ARM GAS  /var/folders/c6/c789hm653lg9vtl73krp73tm0000gn/T//cccAEIGR.s 			page 1


   1              		.syntax unified
   2              		.cpu cortex-m4
   3              		.fpu softvfp
   4              		.eabi_attribute 20, 1
   5              		.eabi_attribute 21, 1
   6              		.eabi_attribute 23, 3
   7              		.eabi_attribute 24, 1
   8              		.eabi_attribute 25, 1
   9              		.eabi_attribute 26, 1
  10              		.eabi_attribute 30, 2
  11              		.eabi_attribute 34, 1
  12              		.eabi_attribute 18, 4
  13              		.thumb
  14              		.file	"board.c"
  15              		.text
  16              	.Ltext0:
  17              		.section	.gnu.lto_.jmpfuncs.8331052bef5cc745,"",%progbits
  18 0000 789C6362 		.ascii	"x\234cb`b\300\006\370\2404+\003H\0013#\003\013\210\011"
  18      6062C006 
  18      F8A0342B 
  18      03480133 
  18      23030B88 
  19 0015 0002B400 		.ascii	"\000\002\264\000'"
  19      27
  20              		.text
  21              		.section	.gnu.lto_.inline.8331052bef5cc745,"",%progbits
  22 0000 789C6362 		.ascii	"x\234cb`b\300\006\326BiV\006\006\016vF\006&\256\011"
  22      6062C006 
  22      D6426956 
  22      06060E76 
  22      460626AE 
  23 0015 7E0C6C0B 		.ascii	"~\014l\013\344\301\212\231\030Xx\030\301\372`\"\214"
  23      E4C18A99 
  23      18587818 
  23      C1FA6022 
  23      8C
  24 0026 5C408299 		.ascii	"\\@\202\231\201\217\237\221\225!=\2021\223\221\201\215"
  24      818F9F91 
  24      95213D82 
  24      31939181 
  24      8D
  25 0037 81598121 		.ascii	"\201Y\201!\003\301\204\210\262#D\301LF\240.\005V\246"
  25      03C18488 
  25      B22344C1 
  25      4C46A02E 
  25      0556A6
  26 004a 43EC1093 		.ascii	"C\354\020\223\030_\260;01p\377\360w``\231#\342\300\001"
  26      185FB03B 
  26      303170FF 
  26      F0776060 
  26      9923E2C0 
  27 005f B68C9B41 		.ascii	"\266\214\233A\001\310`a`fB\265\223\025C\204\001\000"
  27      01C86061 
  27      606642B5 
  27      93154384 
  27      0100
  28 0071 D0A1102C 		.ascii	"\320\241\020,"
ARM GAS  /var/folders/c6/c789hm653lg9vtl73krp73tm0000gn/T//cccAEIGR.s 			page 2


  29              		.text
  30              		.section	.gnu.lto_.pureconst.8331052bef5cc745,"",%progbits
  31 0000 789C6362 		.ascii	"x\234cb`b\340f\200\000V\006)&\011fI\026 \003\000\003"
  31      6062E066 
  31      80005606 
  31      29260966 
  31      49162003 
  32 0016 C2006E   		.ascii	"\302\000n"
  33              		.text
  34              		.section	.gnu.lto_sdc_lld_is_card_inserted.part.0.8331052bef5cc745,"",%progbits
  35 0000 789C5D52 		.ascii	"x\234]R\317+DQ\024>\337\275\367\361$e';\331N\315\370"
  35      CF2B4451 
  35      143EDFBD 
  35      F7F12465 
  35      273BD94E 
  36 0016 55F80328 		.ascii	"U\370\003(E\026L\261\232\236QL\231\310\033+\013\327"
  36      45164CB1 
  36      9A9E514C 
  36      99C81B2B 
  36      0BD7
  37 0028 9066F9B2 		.ascii	"\220f\371\262\022\026$\033\013le#\273Q\304\016\253I"
  37      1216241B 
  37      0B6C6523 
  37      BB51C40E 
  37      AB49
  38 003a C942CADA 		.ascii	"\311B\312\332\3028\347\335f\304\355\275s\316=\337\371"
  38      C238E7DD 
  38      66C4EDBD 
  38      73CE3DDF 
  38      F9
  39 004b CEAFF714 		.ascii	"\316\257\367\024)\372\177\022\374~\200h\2305<\202\211"
  39      29FA7F12 
  39      FC7E8068 
  39      98353C82 
  39      89
  40 005c EED83050 		.ascii	"\356\3300P\261V\320\242\327}\015\210A\2405\2434\326"
  40      B156D0A2 
  40      D77D0D88 
  40      41A035A3 
  40      34D6
  41 006e A621649D 		.ascii	"\246!d\235\007u\322\241\265\333\225\327\267\363v{P\214"
  41      0775D2A1 
  41      B5DB95D7 
  41      B7F3767B 
  41      508C
  42 0080 EC77B58A 		.ascii	"\354w\265\212\034\270R\037(\013\232\342\013:b\245\314"
  42      1CB8521F 
  42      280B9AE2 
  42      0B3A62A5 
  42      CC
  43 0091 DFD28E79 		.ascii	"\337\322\216y\365\264\265\337vS\2615\246V4\370\313\364"
  43      F5B4B5DF 
  43      7653B135 
  43      A65634F8 
  43      CBF4
  44 00a3 1D53AAE5 		.ascii	"\035S\252\345\361K=S\266R\255^\274\373>(\007\243Dh\021"
  44      F14B3D53 
ARM GAS  /var/folders/c6/c789hm653lg9vtl73krp73tm0000gn/T//cccAEIGR.s 			page 3


  44      B652AD5E 
  44      BCFB3E28 
  44      07A34468 
  45 00b8 86021CA1 		.ascii	"\206\002\034\241\223<\276h\016\364h\323\332\250#\300"
  45      933CBE68 
  45      0EF468D3 
  45      DAA823C0 
  46 00c8 213B49D2 		.ascii	"!;I\322\362\231d)\323\244aD\3532]\373\222\037y\360\202"
  46      F2996429 
  46      D3A46144 
  46      EB325DFB 
  46      921F79F0 
  47 00dd CA54E49B 		.ascii	"\312T\344\233c\260\317\025L3\"\241\267t\375\274\363"
  47      63B0CF15 
  47      4C3322A1 
  47      B774FDBC 
  47      F3
  48 00ee FEA9031C 		.ascii	"\376\251\003\034\363\266\346\200\004\235\330Mn\321\333"
  48      F3B6E680 
  48      049DD84D 
  48      6ED1DB
  49 00fd A3DDF5C8 		.ascii	"\243\335\365\310\266\346\320 \0357\332\250dM\334|c\234"
  49      B6E6D020 
  49      1D37DAA8 
  49      644DDC7C 
  49      639C
  50 010f 60A6DEFD 		.ascii	"`\246\336\375-m\234\326\371\212SH\220\337\354\220\313"
  50      2D6D9CD6 
  50      F98A5348 
  50      90DFEC90 
  50      CB
  51 0120 3AA21914 		.ascii	":\242\031\024\304\300!\217\033/\250a\206\341\030s\371"
  51      C4C0218F 
  51      1B2FA861 
  51      86E11873 
  51      F9
  52 0131 8AE5FB66 		.ascii	"\212\345\373f\007I\023V\232\320\253\364eKb5\271\275"
  52      07491356 
  52      9AD0ABF4 
  52      654B6235 
  52      B9BD
  53 0143 4978535C 		.ascii	"IxS\\\177\016\2466\223\216gz\340\357+nO\234O\344q\200"
  53      7F0EA636 
  53      938E677A 
  53      E0EF2B6E 
  53      4F9C4FE4 
  54 0159 1A902D41 		.ascii	"\032\220-A`\371e\272\223\311\224{\026\303\324|\260\220"
  54      60F965BA 
  54      93C9947B 
  54      16C3D47C 
  54      B090
  55 016b 9A590C96 		.ascii	"\232Y\014\226g\303\324\370\350\310\330\320Tfbr\254\267"
  55      67C3D4F8 
  55      E8C8D8D0 
  55      54666272 
  55      ACB7
  56 017d 2733D4D7 		.ascii	"'3\324\327\325\357\200d\226L8\233]jY\010\302B&,\004"
ARM GAS  /var/folders/c6/c789hm653lg9vtl73krp73tm0000gn/T//cccAEIGR.s 			page 4


  56      D5EF8064 
  56      964C389B 
  56      5D6A5908 
  56      C242262C 
  57 0192 859530D9 		.ascii	"\205\2250\331\365\003a*\204\344"
  57      F503612A 
  57      84E4
  58              		.text
  59              		.section	.gnu.lto___early_init.8331052bef5cc745,"",%progbits
  60 0000 789C6362 		.ascii	"x\234cb`b@\007\222@\\\003\304\306@\314\310\314\300\310"
  60      60624007 
  60      92405C03 
  60      C4C640CC 
  60      C8CCC0C8 
  61 0014 34E11C03 		.ascii	"4\341\034\003C#\007\023##\210\301\300\310P\317\304X"
  61      43230713 
  61      232388C1 
  61      C0C850CF 
  61      C458
  62 0026 1FC90856 		.ascii	"\037\311\010V\273\236\351\300\203\377\377\327\31596"
  62      BB9EE9C0 
  62      83FFFFD7 
  62      CD3936
  63 0035 670EE34C 		.ascii	"g\016\343L&f\240\010+CKC\303\004\005\006\206d\260\212"
  63      2666A008 
  63      2B434B43 
  63      C3040506 
  63      8664B08A 
  64 0049 102009D2 		.ascii	"\020 \011\322\026\312\310\004\242\231\31734?\230\361"
  64      16CAC804 
  64      A299CF33 
  64      343F98F1 
  65 0059 982B9171 		.ascii	"\230+\221q!#+P\272\232\341WCG\203@&#P9\304\304L\020"
  65      21232B50 
  65      BA9AE157 
  65      43478340 
  65      26235039 
  66 0071 7D91A1F1 		.ascii	"}\221\241\361\301Le\230\"\010\010\001J\000M\000\271"
  66      C14C6598 
  66      22080801 
  66      4A004D00 
  66      B9
  67 0082 D7504F4F 		.ascii	"\327POO\037\202\362\213\3653\022s\364\223\362\023\213"
  67      1F82F28B 
  67      F5331273 
  67      F493F213 
  67      8B
  68 0093 528AF5FD 		.ascii	"R\212\365\375}<}]#\342\203C|\215\215\342]M\014\314!"
  68      7D3C7D5D 
  68      23E28343 
  68      7C8D8DE2 
  68      5D4D0CCC 
  69 00a8 127AC90C 		.ascii	"\022z\311\014\0005\3440\352"
  69      0035E430 
  69      EA
  70              		.text
  71              		.section	.gnu.lto_sdc_lld_is_card_inserted.8331052bef5cc745,"",%progbits
ARM GAS  /var/folders/c6/c789hm653lg9vtl73krp73tm0000gn/T//cccAEIGR.s 			page 5


  72 0000 789C5D52 		.ascii	"x\234]R\273JCA\020=g\367\356\336(\276>\301F\020\205"
  72      BB4A4341 
  72      103D67F7 
  72      EEDE28BE 
  72      3EC14610 
  73 0015 C4176865 		.ascii	"\304\027he*\013\301`\241\202V\022#h\300 hi\341\215\011"
  73      2A0BC160 
  73      A1825612 
  73      2368C020 
  73      6869E18D 
  74 002a 626919B4 		.ascii	"bi\031\264\362\007\264\261\026\213\200\011\370\300N"
  74      F207B4B1 
  74      168B8009 
  74      F8C04E
  75 0039 C5C24AC1 		.ascii	"\305\302J\301/\020Atv\257\011\306\345\336y\35493\263"
  75      2F104174 
  75      76AF09C6 
  75      E5DE79EC 
  75      3933B3
  76 004c 33BB0A0A 		.ascii	"3\273\012\012\377\327\222\3745\002\243\242\231\000\325"
  76      FFD792FC 
  76      3502A3A2 
  76      9900D5
  77 005b E12D504C 		.ascii	"\341-PL(e>\272\020\265\353J\032Q\207V\346\252[\274\240"
  77      28653EBA 
  77      10B5EB4A 
  77      1A518756 
  77      E6AA5BBC 
  78 0070 3E295EF0 		.ascii	">)^\360\353Y\357\031\206q\210\215\015\206\244\323 v"
  78      EB59EF19 
  78      8671888D 
  78      0D86A4D3 
  78      2076
  79 0082 950E8C0D 		.ascii	"\225\016\214\015\271\273DW\212\005\342L]\276|\177\237"
  79      B9BB4457 
  79      8A05E24C 
  79      5DBE7C7F 
  79      9F
  80 0093 5EEC9F3F 		.ascii	"^\354\237?\363H\265\023y\312\241D\004\202\322\210E+"
  80      F348B513 
  80      79CAA144 
  80      0482D288 
  80      452B
  81 00a5 42B5B93D 		.ascii	"B\265\271=Y\006\345(:\354-8'\347w\346E\272\374\013T"
  81      5906E528 
  81      3AEC2D38 
  81      27E777E6 
  81      45BAFC0B 
  82 00ba 4EEB1BEC 		.ascii	"N\353\033\354==\274Ody\"\341k4\203\030\310S\037\343"
  82      3D3DBC4F 
  82      647922E1 
  82      6B348318 
  82      C8531FE3 
  83 00ce 8879066B 		.ascii	"\210y\006k\014\026E\033\337\352\012\033M\337\240t\240"
  83      0C16451B 
  83      DFEA0A1B 
  83      4DDFA074 
ARM GAS  /var/folders/c6/c789hm653lg9vtl73krp73tm0000gn/T//cccAEIGR.s 			page 6


  83      A0
  84 00df 1B115682 		.ascii	"\033\021V\202\034I}9\274\206\362k\261\263\211y\200\177"
  84      1C497D39 
  84      BC86F26B 
  84      B1B38979 
  84      807F
  85 00f1 E6B5408D 		.ascii	"\346\265@\215JZ\327P}+v7\213:\232\266-\264\000\267#"
  85      4A5AD750 
  85      7D2B7637 
  85      8B3A9AB6 
  85      2DB400B7 
  86 0106 9EC65656 		.ascii	"\236\306VV\330\3022\270\356s-\324?\336\373\033\2746"
  86      D8C232B8 
  86      EE732DD4 
  86      3FDEFB1B 
  86      BC36
  87 0118 397C318A 		.ascii	"9|1\212zd\002;\370\214\016\234e\375\004\3402\264\226"
  87      7A64023B 
  87      F88C0E9C 
  87      65FD04E0 
  87      32B496
  88 012b B1A8F6EB 		.ascii	"\261\250\366\353:\366\022qt\201Jz\006\356PJ4\362\251"
  88      3AF61271 
  88      74814A7A 
  88      06EE504A 
  88      34F2A9
  89 013e 669630C7 		.ascii	"f\2260\307\270\227\274\\\365o\202\320O\361^.\020\302"
  89      B897BC5C 
  89      F56F82D0 
  89      4FF15E2E 
  89      10C2
  90 0150 F5F02328 		.ascii	"\365\360#(\247\360\241\226n\342t\034\367v\206\223\311"
  90      A7F0A196 
  90      6EE2741C 
  90      F7768693 
  90      C9
  91 0161 54FC6D6E 		.ascii	"T\374mn\247\326\263\033\251\225\315\354\326\352vjvf"
  91      A7D6B31B 
  91      A995CDEC 
  91      D6EA766A 
  91      7666
  92 0173 3A33B5B8 		.ascii	":3\265\270<7\237\031\035Y\236\032\033\032\217\201d\016"
  92      3C379F19 
  92      1D599E1A 
  92      1B1A8F81 
  92      640E
  93 0185 3F295275 		.ascii	"?)Ru\027"
  93      17
  94              		.text
  95              		.section	.gnu.lto_sdc_lld_is_write_protected.8331052bef5cc745,"",%progbits
  96 0000 789C6362 		.ascii	"x\234cb`b@\007\222@\034\015\304\306@\314\310\314\300"
  96      60624007 
  96      92401C0D 
  96      C4C640CC 
  96      C8CCC0
  97 0013 C834E11C 		.ascii	"\3104\341\034\003C#\007\023##\210\301\300\310P\317\304"
  97      03432307 
ARM GAS  /var/folders/c6/c789hm653lg9vtl73krp73tm0000gn/T//cccAEIGR.s 			page 7


  97      13232388 
  97      C1C0C850 
  97      CFC4
  98 0025 581FC908 		.ascii	"X\037\311\010V\273\236\351\300\203\377\377\327}i\333"
  98      56BB9EE9 
  98      C083FFFF 
  98      D77D69DB 
  99 0035 FA867136 		.ascii	"\372\206q6\023\310,V\206\226\206\206\011\012\014\014"
  99      13C82C56 
  99      86968686 
  99      090A0C0C 
 100 0045 C9601521 		.ascii	"\311`\025!@\022\244-\224\221\011D3_dh|\26079\221q!#"
 100      4012A42D 
 100      94910944 
 100      335F6468 
 100      7CB03739 
 101 005d 2B430463 		.ascii	"+C\004c&#\334\326\020FF\220\002\220\021\206zz\372\020"
 101      2623DCD6 
 101      10464690 
 101      02901186 
 101      7A7AFA10 
 102 0071 945FAC9F 		.ascii	"\224_\254\237\221\230\243\237\224\237X\224R\254\357"
 102      9198A39F 
 102      949F5894 
 102      52ACEF
 103 0080 EFE3E9EB 		.ascii	"\357\343\351\353\032\021\037\034\342kl\024\357jb`\016"
 103      1A111F1C 
 103      E26B6C14 
 103      EF6A6260 
 103      0E
 104 0091 91D04B66 		.ascii	"\221\320Kf\000\000w\214)k"
 104      0000778C 
 104      296B
 105              		.text
 106              		.section	.gnu.lto_boardInit.8331052bef5cc745,"",%progbits
 107 0000 789C6362 		.ascii	"x\234cb`b@\007\222@\034\014\304\306@\314\310\314\300"
 107      60624007 
 107      92401C0C 
 107      C4C640CC 
 107      C8CCC0
 108 0013 C834E11C 		.ascii	"\3104\341\034\003C#\007\023##\210\301\300\310P\317\304"
 108      03432307 
 108      13232388 
 108      C1C0C850 
 108      CFC4
 109 0025 581FC908 		.ascii	"X\037\311\010V\273\236\351\300\203\377\377\327}k\237"
 109      56BB9EE9 
 109      C083FFFF 
 109      D77D6B9F 
 110 0035 7E86713E 		.ascii	"~\206q>\023\310,V\206\226\206\206\011\012\014\014\311"
 110      13C82C56 
 110      86968686 
 110      090A0C0C 
 110      C9
 111 0046 60152140 		.ascii	"`\025!@\022\244-\224\221\011D3_d`Ld\\\310\310\012\267"
 111      12A42D94 
 111      91094433 
ARM GAS  /var/folders/c6/c789hm653lg9vtl73krp73tm0000gn/T//cccAEIGR.s 			page 8


 111      5F64604C 
 111      645CC8C8 
 112 005c 2D849111 		.ascii	"-\204\221\021$\001\322j\250\247\247\017A\371\305\372"
 112      2401D26A 
 112      A8A7A70F 
 112      41F9C5FA 
 113 006c 198939FA 		.ascii	"\031\2119\372I\371\211E)\305\372\376>\236\276\256\021"
 113      49F98945 
 113      29C5FAFE 
 113      3E9EBEAE 
 113      11
 114 007d F1C121BE 		.ascii	"\361\301!\276\306F\361\256&\006\346\020\011\275d\006"
 114      C646F1AE 
 114      2606E610 
 114      09BD6406 
 115 008d 00A66B25 		.ascii	"\000\246k%\351"
 115      E9
 116              		.text
 117              		.section	.gnu.lto_.symbol_nodes.8331052bef5cc745,"",%progbits
 118 0000 789C4DC8 		.ascii	"x\234M\310=\016@@\024E\341\373\3563\261f\325\225\370"
 118      3D0E4040 
 118      1445E1FB 
 118      EE33B166 
 118      D595F8
 119 0013 1B3436C0 		.ascii	"\03346\300>\364jk\020\013\021\205I\314\351\276C\020"
 119      3EF46A6B 
 119      100B1185 
 119      49CCE9BE 
 119      4310
 120 0025 15529C29 		.ascii	"\025R\234)`9\001i\215\026&\242\220\263\243,\335-\032"
 120      60390169 
 120      8D1626A2 
 120      90B3A32C 
 120      DD2D1A
 121 0038 7B8A1907 		.ascii	"{\212\031\007\3123F\252\370\031ZZ\020l\244\302w\353"
 121      CA3346AA 
 121      F8195A5A 
 121      106CA4C2 
 121      77EB
 122 004a DA9C259A 		.ascii	"\332\234%\232\3531w\340\336\017\303\013)\304\"3"
 122      EB3177E0 
 122      DE0FC30B 
 122      29C42233 
 123              		.text
 124              		.section	.gnu.lto_.refs.8331052bef5cc745,"",%progbits
 125 0000 789C6362 		.ascii	"x\234cb`b\340d\200\000F\006FFFf \005\000\001'\000\026"
 125      6062E064 
 125      80004606 
 125      46464666 
 125      20050001 
 126              		.text
 127              		.section	.gnu.lto_.decls.8331052bef5cc745,"",%progbits
 128 0000 789CCD5C 		.ascii	"x\234\315\\\011t\024\307\231\356\3569\244A2\010\234"
 128      097414C7 
 128      99EEEE39 
 128      A4413208 
 128      9C
ARM GAS  /var/folders/c6/c789hm653lg9vtl73krp73tm0000gn/T//cccAEIGR.s 			page 9


 129 0011 64C1EBB5 		.ascii	"d\301\353\265'\373\342\034\336\004\011\233\304\370%"
 129      27FBE21C 
 129      DE04099B 
 129      C4F825
 130 0020 2F3648C2 		.ascii	"/6H\302\326\263\220\364\0069\307\276\335\214\233Q\203"
 130      D6B390F4 
 130      0639C7BE 
 130      DD8C9B51 
 130      83
 131 0031 269634E3 		.ascii	"&\2264\343\236\026\307\356\276\227\2268\214\361%\304"
 131      9E16C7EE 
 131      BE979638 
 131      8CF125C4 
 132 0041 21309758 		.ascii	"!0\227X|`\222`\016\233\033\334`\016a\3312\010\004\006"
 132      7C609260 
 132      0E9B1BDC 
 132      600E61D9 
 132      32080406 
 133 0055 83191627 		.ascii	"\203\031\026'\306\340`\356\303\200\265U\177w\317T\265"
 133      C6E060EE 
 133      C380B555 
 133      7F77CF54 
 133      B5
 134 0066 BA67BA07 		.ascii	"\272g\272\007\262o\347i\376\251)u\177\365_\365\377\177"
 134      B26FE769 
 134      FEA92975 
 134      7FF55FF5 
 134      FF7F
 135 0078 57750FC7 		.ascii	"Wu\017\307p\314\177\261\014\323\215^\203\177\3070\017"
 135      70CC7FB1 
 135      0CD38D5E 
 135      837FC730 
 135      0F
 136 0089 F462182F 		.ascii	"\364b\030/\3030\277Do\324\315,f\324\027\356[\217\336"
 136      C330BF44 
 136      6FD4CD2C 
 136      66D417EE 
 136      5B8FDE
 137 009c 0A7A6F47 		.ascii	"\012zoG\357\337s\014S\207\336\317\2407\372cb\210\214"
 137      EFDF730C 
 137      5387DECF 
 137      A037FA63 
 137      62888C
 138 00af E518EA85 		.ascii	"\345\030\352\205\217Gp\314.\364\356\215\336\271\350"
 138      8F4770CC 
 138      2EF4EE8D 
 138      DEB9E8
 139 00be BD11BDB3 		.ascii	"\275\021\275\263\320{\000:v9z\037Ao7\372~\224S\307\333"
 139      D07B003A 
 139      76397A1F 
 139      416F37FA 
 139      7E9453C7 
 140 00d3 A87DE273 		.ascii	"\250}\342s]\032\356\247\350=\306\200\215\371\300]\307"
 140      5D1AEEA7 
 140      E83DC680 
 140      8DF9C05D 
 140      C7
ARM GAS  /var/folders/c6/c789hm653lg9vtl73krp73tm0000gn/T//cccAEIGR.s 			page 10


 141 00e4 10D9AAF5 		.ascii	"\020\331\252\365qZ\3773\206c\031\215g\2376\376k\204"
 141      715AFF33 
 141      8663198D 
 141      679F36FE 
 141      6B84
 142 00f6 6C6D1A7F 		.ascii	"lm\032\177x\3748zo\320\376\227\307\252x\333\015\274"
 142      78FC387A 
 142      6FD0FE97 
 142      C7AA78DB 
 142      0DBC
 143 0108 603E8E1B 		.ascii	"`>\216\033\360\177\257\363\256}g\265>\343\253\216\350"
 143      F07FAFF3 
 143      AE7D67B5 
 143      3EE3AB8E 
 143      E8
 144 0119 630DDFF5 		.ascii	"c\015\337\365W\0263E\226\033\345\370\344\306\376s\220"
 144      57163345 
 144      961BE5F8 
 144      E4C6FE73 
 144      90
 145 012a CE7EC3F2 		.ascii	"\316~\303\362lo\037\223\015\215\\\037\234v\037\363\252"
 145      6C6F1F93 
 145      0D8D5C1F 
 145      9C761FF3 
 145      AA
 146 013b 2C37C577 		.ascii	",7\305w\034f\375<\273\230\315B|\376\210e\356g\336\224"
 146      1C66FD3C 
 146      BB98CD42 
 146      7CFE8865 
 146      EE67DE94 
 147 014f 51373AF9 		.ascii	"Q7:\371\037{\242\332\201e\030\236}\015\241\361\354\253"
 147      1F7BA2DA 
 147      8165189E 
 147      7D0DA1F1 
 147      ECAB
 148 0161 ECFDEA20 		.ascii	"\354\375\352 \262\262r\202_\355e\264~\223\227\213\001"
 148      B2B27282 
 148      5FED65B4 
 148      7E93978B 
 148      01
 149 0172 1FF8390B 		.ascii	"\037\3709\013hn_\262kx\242\213%\016,O\364rD\357\277"
 149      686E5FB2 
 149      6B78A28B 
 149      250E2C4F 
 149      F47244EF 
 150 0187 267A5D44 		.ascii	"&z]Do8\321\353&z\3773\321\353!z'\263\211n/\321==\331"
 150      6F38D1EB 
 150      267AFF33 
 150      D1EB217A 
 150      27B3896E 
 151 01a0 9D45742F 		.ascii	"\235Et/Hvgk\202\340\257\254/\331\350f)9I\365\360\354"
 151      4876676B 
 151      82E0AFAC 
 151      2FD9E866 
 151      293949F5 
 152 01b6 EBEC7D88 		.ascii	"\353\354}\210\276\301\272LO\273\227Y(+\361\370\352\366"
 152      BEC1BA4C 
ARM GAS  /var/folders/c6/c789hm653lg9vtl73krp73tm0000gn/T//cccAEIGR.s 			page 11


 152      4FBB9759 
 152      282BF1F8 
 152      EAF6
 153 01c8 8FF8B94D 		.ascii	"\217\370\271M\312$\271\273\373\017\314w\230YH\245r+"
 153      CA24B9BB 
 153      FB0FCC77 
 153      985948A5 
 153      722B
 154 01da B2042B65 		.ascii	"\262\004+e3\317\252\006\221\033\330gR\330\031[\224\343"
 154      33CFAA06 
 154      911BD867 
 154      52D8195B 
 154      94E3
 155 01ec D98D6C36 		.ascii	"\331\215l6\342\371\023\226\346\210`\015\037\240\313"
 155      E2F91396 
 155      E688600D 
 155      1FA0CB
 156 01fb A0B6F516 		.ascii	"\240\266\365\026\233@\367\353\350n\355\244\015\354w"
 156      9B40F7EB 
 156      E86EEDA4 
 156      0DEC77
 157 020a B4D6932E 		.ascii	"\264\326\223.\025\210c\216\2431hS\177\237yM\226\233"
 157      1588638E 
 157      A3316853 
 157      7F9F794D 
 157      969B
 158 021c E5E54B65 		.ascii	"\345\345Ke\227\216\315\263\353\331{-\274\010\376\275"
 158      978ECDB3 
 158      EBD97B2D 
 158      BC08FEBD 
 159 022c 85A57C1B 		.ascii	"\205\245|\033\253\2435\256\314\337\231\333\324\020\357"
 159      ABA335AE 
 159      CCDF99DB 
 159      D410EF
 160 023b EEBE9752 		.ascii	"\356\276\227R\005\317\376\362\333\226,n5a\261\2013e"
 160      05CFFEF2 
 160      DB962C6E 
 160      3561B181 
 160      3365
 161 024d 11BD8045 		.ascii	"\021\275\200E\204\206\217W\020\207\224\212\266\231\362"
 161      84868F57 
 161      1087948A 
 161      B699F2
 162 025c B445E369 		.ascii	"\264E\343i\321\243\006\246\260\244V\\\355\320\270r\251"
 162      D1A306A6 
 162      B0A4565C 
 162      EDD0B872 
 162      A9
 163 026d 2E9CC34C 		.ascii	".\234\303L\303\306Dg>\336\326\273\0373\035\303\370\333"
 163      C3C64467 
 163      3EDED6BB 
 163      1F331DC3 
 163      F8DB
 164 027f 92F32CEE 		.ascii	"\222\363,\356\326\001J\231\304\374\335\334\371\301\022"
 164      D6014A99 
 164      C4FCDDDC 
 164      F9C112
ARM GAS  /var/folders/c6/c789hm653lg9vtl73krp73tm0000gn/T//cccAEIGR.s 			page 12


 165 028e 76221A8B 		.ascii	"v\"\032\213g\333\330~\010h\275A\254\264@<\373>\022\211"
 165      67DBD87E 
 165      0868BD41 
 165      ACB4403C 
 165      FB3E1289 
 166 02a2 67DBD1E9 		.ascii	"g\333\321\351\324\254\355z9Wv\253\375)\346\355w\231"
 166      D4ACED7A 
 166      395776AB 
 166      FD29E6ED 
 166      7799
 167 02b4 56C4B572 		.ascii	"V\304\265r\364\345E\003\344\326m\254\231\020\350\000"
 167      F4E54503 
 167      E4D66DAC 
 167      9910E800 
 168 02c4 96185EE6 		.ascii	"\226\030^\346\364\341\375`\210\367\020\307&\\\322\207"
 168      F4E1FD60 
 168      88F710C7 
 168      265CD287 
 169 02d4 F1EC1EE0 		.ascii	"\361\354\036\340r\257\221\313\265*\227{mq\271\376\243"
 169      72AF91CB 
 169      B52A977B 
 169      6D71B9FE 
 169      A3
 170 02e5 DDACDC9C 		.ascii	"\335\254\334\234K1\351\300`]\264\301x\366\221\034\302"
 170      4B31E9C0 
 170      605DB4C1 
 170      78F6911C 
 170      C2
 171 02f6 A518EB29 		.ascii	"\245\030\353)\262\037\351\205\321\035o\017X\0103lv\270"
 171      B21FE985 
 171      D11D6F0F 
 171      5808336C 
 171      76B8
 172 0308 D6A4F028 		.ascii	"\326\244\360(!\344U\262\354\363\252\230\034\312|N\301"
 172      21E455B2 
 172      ECF3AA98 
 172      1CCA7C4E 
 172      C1
 173 0319 FCD6605F 		.ascii	"\374\326`_\330\001\313\266\311\3319\307`&\234ej\251"
 173      D801CBB6 
 173      C9D939C7 
 173      60269C65 
 173      6AA9
 174 032b B889A5B4 		.ascii	"\270\211\245\264\266\217\231\232\20447\2316\267\256"
 174      B68F999A 
 174      84343799 
 174      36B7AE
 175 033a B5ECD8CA 		.ascii	"\265\354\330\3126\302\334:\301\342<\263\333E\317-\373"
 175      36C2DC3A 
 175      C1E23CB3 
 175      DB45CF2D 
 175      FB
 176 034b 505D0B37 		.ascii	"P]\0137=,\313\331<\373W\000z\313M\003\361lVB\227\211"
 176      3D2CCBD9 
 176      3CFB5700 
 176      7ACB4D03 
 176      F16C5642 
ARM GAS  /var/folders/c6/c789hm653lg9vtl73krp73tm0000gn/T//cccAEIGR.s 			page 13


 177 0361 EFFA0118 		.ascii	"\357\372\001\030-\313\227l\340\"\253\017\223\301\341"
 177      2DCB976C 
 177      E022AB0F 
 177      93C1E1
 178 0370 66714613 		.ascii	"fqF\023!\376\232\234\256R\270\326\362\347\177\001\021"
 178      21FE9A9C 
 178      AE52B8D6 
 178      F2E77F01 
 178      11
 179 0381 4E83081B 		.ascii	"N\203\010\033\334\246\272\260\001\324\265p\341\020\000"
 179      DCA6BAB0 
 179      01D4B570 
 179      E11000
 180 0390 3A0340DB 		.ascii	":\003@\333z\350\2025\350\202\245\205K\231\\\323\034"
 180      7AE88235 
 180      E882A585 
 180      4B995CD3 
 180      1C
 181 03a1 6BE52FA7 		.ascii	"k\345/\247\222\023\224\364\232\023*+\266\346\3701r\216"
 181      921394F4 
 181      9A132A2B 
 181      B6E6F831 
 181      728E
 182 03b3 7FE0B6E1 		.ascii	"\177\340\266\341\374y$\236\366R\235?\276\271\371\314"
 182      FC79249E 
 182      F6529D3F 
 182      BEB9F9CC 
 183 03c3 83736565 		.ascii	"\203see\222+\323\011p\311z\002$\304J\351\017\212\245"
 183      922BD309 
 183      70C97A02 
 183      24C44AE9 
 183      0F8AA5
 184 03d6 1979F64B 		.ascii	"\031y\366K\250Z2T\365\265[W\365ER\325{\035\253\332O"
 184      A85A3254 
 184      F5B55B57 
 184      F54552D5 
 184      7B1DABDA 
 185 03eb AA9A0E5A 		.ascii	"\252\232\016Z\007\355\200\365\267\264\333\255\005\255"
 185      07ED80F5 
 185      B7B4DBAD 
 185      05AD
 186 03f9 06CED266 		.ascii	"\006\316\322f\246i\365Q\"\350<JFTm\242m\277\007\325"
 186      A669F551 
 186      22E83C4A 
 186      46546DA2 
 186      6DBF07D5 
 187 040d 7C93395C 		.ascii	"|\2239\\\025\034q\233V\005\326\020x\370\251\234!\327"
 187      151C719B 
 187      5605D610 
 187      78F8A99C 
 187      21D7
 188 041f 1E13FC6A 		.ascii	"\036\023\374jo\372L{\3565\310\264z\344\374\022\306\307"
 188      6FFA4C7B 
 188      EE35C8B4 
 188      7AE4FC12 
 188      C6C7
 189 0431 A76694F3 		.ascii	"\247f\224\363\224\363B[\201\216u\3111\226\337\214Q\246"
ARM GAS  /var/folders/c6/c789hm653lg9vtl73krp73tm0000gn/T//cccAEIGR.s 			page 14


 189      94F3425B 
 189      818E75C9 
 189      3196DF8C 
 189      51A6
 190 0443 87943CFB 		.ascii	"\207\224<\373\034\207\035{\032\367]D_@4\255'N\342r("
 190      1C871D7B 
 190      1AF75D44 
 190      5F4034AD 
 190      274EE272 
 191 0458 301BCE2B 		.ascii	"0\033\316+s\204\363\336t\354oFYtC\360\354>\026\263\375"
 191      7384F3DE 
 191      74EC6F46 
 191      597443F0 
 191      EC3E16B3 
 192 046d 31D0C340 		.ascii	"1\320\303@\217\000\375\024\350\005\2407\201v\2636D\353"
 192      8F00FD14 
 192      E805A037 
 192      8176B336 
 192      44EB
 193 047f 2027D914 		.ascii	" '\331\024\017\253\225\210\031\331\017\225\251W\036"
 193      0FAB9588 
 193      19D90F95 
 193      A9571E
 194 048e 6C919506 		.ascii	"l\221\225\006\227~\2559\315\010H\205\230tu\013\236\013"
 194      977EAD39 
 194      CD084885 
 194      9874750B 
 194      9E0B
 195 04a0 68A2F565 		.ascii	"h\242\365e\232\264\252Q\365\015\275rd\351i\317\2633"
 195      9AB4AA51 
 195      F50DBD72 
 195      64E969CF 
 195      B333
 196 04b2 B8BED082 		.ascii	"\270\276\320\202\350&k\323\010\216\260\222~&\347K\014"
 196      E8266BD3 
 196      088EB092 
 196      7E26E74B 
 196      0C
 197 04c3 9EEB4B36 		.ascii	"\236\353K6t\373rL\223Q\002z\330t\325\222&\202\312\033"
 197      74FB724C 
 197      9351027A 
 197      D874D592 
 197      2682CA1B 
 198 04d7 C7CCB485 		.ascii	"\307\314\264\205\226.\362\350Sd\216\035s\375\320\022"
 198      962EF2E8 
 198      53648E1D 
 198      73FDD012 
 199 04e7 4CB992AA 		.ascii	"L\271\222\252\232W\250j\336$\360(7;X\177\332\010\303"
 199      9A57A86A 
 199      DE24F028 
 199      373B587F 
 199      DA08C3
 200 04fa B30BD06C 		.ascii	"\263\013\320l\263\025\210\026\031\003\321\273\035P\364"
 200      B3158816 
 200      1903D1BB 
 200      1D50F4
 201 0509 2FB2178A 		.ascii	"/\262\027\212^\232\005\302\250Y\236c\026\203r\026e\034"
ARM GAS  /var/folders/c6/c789hm653lg9vtl73krp73tm0000gn/T//cccAEIGR.s 			page 15


 201      5E9A05C2 
 201      A8599E63 
 201      16837216 
 201      651C
 202 051b 8BAE75CC 		.ascii	"\213\256u\314\374\0079\256\260\366\027Y\326\237V\356"
 202      FC0739AE 
 202      B0F61759 
 202      D69F56EE 
 203 052b 51AFD15E 		.ascii	"Q\257\321^\345\260\363\267{\350hls]\345\015\316\260"
 203      E5B0F3B7 
 203      7BE8686C 
 203      735DE50D 
 203      CEB0
 204 053d AEB2FED9 		.ascii	"\256\262\376\331>X\015\270?\375\312\312\307\236\236"
 204      3E580DB8 
 204      3FFDCACA 
 204      C79E9E
 205 054c 4B2B7FF5 		.ascii	"K+\177\365\230\256\255\\\364\320\213+\214\215\302+\311"
 205      98AEAD5C 
 205      F4D08B2B 
 205      8C8DC22B 
 205      C9
 206 055d 1CCF2E85 		.ascii	"\034\317.\2050\372&g\276\252\3011\215^\203\005\354N"
 206      30FA2667 
 206      BEAAC131 
 206      8D5E8305 
 206      EC4E
 207 056f 7E623C75 		.ascii	"~b<u\244V\030i1\004\354%d\300\346\230\027\274\306\272"
 207      A4561869 
 207      3104EC25 
 207      64C0E698 
 207      17BCC6BA 
 208 0583 52751702 		.ascii	"Ru\027\002#\351W\2149\212Ut\230G\306\360\331^\247\223"
 208      23E9578C 
 208      398A5574 
 208      9847C6F0 
 208      D95EA793 
 209 0597 CD4FFA13 		.ascii	"\315O\372\023\212\215\335\373\330\031\023\345\266\002"
 209      8A8DDDFB 
 209      D81913E5 
 209      B602
 210 05a5 DBD7134A 		.ascii	"\333\327\023J\367\363\337\306\226_\315a\013-\350!\351"
 210      F7F3DFC6 
 210      965FCD61 
 210      0B2DE821 
 210      E9
 211 05b6 0963099D 		.ascii	"\011c\011\235\376\372\200c\336\260#G\001)\007C\312\241"
 211      FEFA8063 
 211      DEB02347 
 211      01290743 
 211      CAA1
 212 05c8 B4742E84 		.ascii	"\264t.\204yf_\212\271/\201\024\353@\212\025\267G\212"
 212      79665F8A 
 212      B92F8114 
 212      EB408A15 
 212      B7478A
 213 05db 8D8EA5A0 		.ascii	"\215\216\245\240\254\241,\322\244\320C\3516;xC\254\265"
ARM GAS  /var/folders/c6/c789hm653lg9vtl73krp73tm0000gn/T//cccAEIGR.s 			page 16


 213      ACA12CD2 
 213      A4D043E9 
 213      363B7843 
 213      ACB5
 214 05ed B2AE33B7 		.ascii	"\262\2563\267\2117]\332\231z\"Y%\313^\035\352\251\204"
 214      89375DDA 
 214      997A2259 
 214      25CB5E1D 
 214      EAA984
 215 0600 7AE20B2E 		.ascii	"z\342\013._}C[\333Q\240\212;\3555\255\342R \241\271"
 215      5F7D435B 
 215      DB51A08A 
 215      3BED35AD 
 215      E25220A1 
 216 0615 0CE7BC67 		.ascii	"\014\347\274g\210\240\361\233W\366\014\231#\313y\352"
 216      88A0F19B 
 216      57F60C99 
 216      23CB79EA 
 217 0625 BFD207D1 		.ascii	"\277\322\007\321\226\227\026\364\314\010*_V\223d\027"
 217      969716F4 
 217      CC082A5F 
 217      56936417 
 218 0635 9743C272 		.ascii	"\227C\302r\314\242,\235\225\314\002\357+\035H\225*."
 218      CCA22C9D 
 218      95CC02EF 
 218      2B1D4895 
 218      2A2E
 219 0647 C7BCEE18 		.ascii	"\307\274\356\030\314`\347\216\371\316\2745\276\361z"
 219      CC60E78E 
 219      F9CEBC35 
 219      BEF17A
 220 0656 7CC06650 		.ascii	"|\300fP\331\007\340\260\377\223u[\034\366\224\035A\254"
 220      D907E0B0 
 220      FF93755B 
 220      1CF6941D 
 220      41AC
 221 0668 CB086449 		.ascii	"\313\010dI\345\341\365(\373?\347\325s\251\327J\020\216"
 221      E5E1F528 
 221      FB3FE7D5 
 221      73A9D74A 
 221      108E
 222 067a 390783ED 		.ascii	"9\007\203\3555z\303\205\356\266\037\251\336\260\327"
 222      357AC385 
 222      EEB61FA9 
 222      DEB0D7
 223 0689 9637BCF3 		.ascii	"\2267\274\363~\213e}@\256\341\265&\326\360\276\247z"
 223      7E8B657D 
 223      40AEE1B5 
 223      26D6F0BE 
 223      A77A
 224 069b 40361EFE 		.ascii	"@6\036\376\200q\370\265K\216\377R\035\376\200\255\341"
 224      8071F8B5 
 224      4B8EFF52 
 224      1DFE80AD 
 224      E1
 225 06ac 1775CE34 		.ascii	"\027u\3164sF\213\005`\315|\027\272O\336\275\010\006"
 225      73468B05 
ARM GAS  /var/folders/c6/c789hm653lg9vtl73krp73tm0000gn/T//cccAEIGR.s 			page 17


 225      60CD7C17 
 225      BA4FDEBD 
 225      0806
 226 06be 390C0ED4 		.ascii	"9\014\016\324\225m4\337#d-\317h\253{\204\377~\232\340"
 226      956D34DF 
 226      23642DCF 
 226      68AB7B84 
 226      FF7E9AE0 
 227 06d2 3EB32278 		.ascii	">\263\"x\355\222\255%o\202\245t\036\216;F\244\235xU"
 227      ED92AD25 
 227      6F82A574 
 227      1E8E3B46 
 227      A49D7855 
 228 06e6 27CC0815 		.ascii	"'\314\010\025\3543;`\326\253w\312\333$\330\347\216\301"
 228      EC333B60 
 228      D6AB77CA 
 228      DB24D8E7 
 228      8EC1
 229 06f8 68CED690 		.ascii	"h\316\326\220`\247\354\200Y\257\206\2501T\007\373\233"
 229      60A7EC80 
 229      59AF86A8 
 229      315407FB 
 229      9B
 230 0709 63309AB3 		.ascii	"c0\232\263\015$\330Y;`\326U\267\262\211\004\273\350"
 230      0D24D859 
 230      3B60D655 
 230      B7B28904 
 230      BBE8
 231 071b 188CE66C 		.ascii	"\030\214\346l\013\011v\325\016\230\337\204\263\304\313"
 231      0B0976D5 
 231      0E98DF84 
 231      B3C4CB
 232 072a 2A2E7791 		.ascii	"*.w\221\305\313\365l= 8\364i&\211\321\235\3554\202Q"
 232      C5CBF56C 
 232      3D2038F4 
 232      692689D1 
 232      9DED3482 
 233 073f 72E35CF4 		.ascii	"r\343\\\364\360\006m^\250\301}\262\317\006b\012\207"
 233      F0066D5E 
 233      A8C17DB2 
 233      CF06620A 
 233      87
 234 0750 5943668A 		.ascii	"YCf\212\027\035\203\321f\331\337a\314\3406\026\311\222"
 234      171D83D1 
 234      66D9DF61 
 234      CCE03616 
 234      C992
 235 0762 DB6EC4C2 		.ascii	"\333n\304\302h\177\363cy\366\012\224\261W\211kN\265"
 235      687FF363 
 235      79F60A94 
 235      B157896B 
 235      4EB5
 236 0774 ADB7D4B2 		.ascii	"\255\267\324\262y\226\317r\343.\365\251V\236p\211\364"
 236      7996CF72 
 236      E32EF5A9 
 236      569E7089 
 236      F4
ARM GAS  /var/folders/c6/c789hm653lg9vtl73krp73tm0000gn/T//cccAEIGR.s 			page 18


 237 0785 8457ECA8 		.ascii	"\204W\354\250)\305T8k\245&e\212<\225mXyw\252KF\034\235"
 237      29C55438 
 237      6BA52665 
 237      8A3C956D 
 237      587977AA 
 238 079d FF691944 		.ascii	"\377i\031D\347\233\220\\\027\373L\227\227ma]k\371H_"
 238      E79B905C 
 238      17FB4C97 
 238      976D615D 
 238      6BF9485F 
 239 07b1 B7975D18 		.ascii	"\267\227]\030\354O\231\203\265v}z7\256Q'\002\320;>c"
 239      EC4F9983 
 239      B5767D7A 
 239      37AE5127 
 239      02D03B3E 
 240 07c6 CEF01932 		.ascii	"\316\360\0312\276\217\316\370>_"
 240      BE8FCEF8 
 240      3E5F
 241 07d0 B2D1ADBF 		.ascii	"\262\321\255\277\214\227N\177\307s\254,\177\203\264"
 241      8C974E7F 
 241      C773AC2C 
 241      7F83B4
 242 07df BCE2D8F2 		.ascii	"\274\342\330\362\324\004\211\337\270r\362\347\260\270"
 242      D40489DF 
 242      B872F2E7 
 242      B0B8
 243 07ed 637F0F60 		.ascii	"c\177\017`\343\3656\255\226\232\012\212m\357\241\330"
 243      E3F536AD 
 243      969A0A8A 
 243      6DEFA1D8 
 244 07fd D30E7701 		.ascii	"\323\016w\0018f\277Q\014\263\253J\277\245\003\2430\324"
 244      3866BF51 
 244      0CB3AB4A 
 244      BFA503A3 
 244      30D4
 245 080f F68BF5CB 		.ascii	"\366\213\365\313ey\242\327\211\034\212&\307\213 \307"
 245      6579A2D7 
 245      891C8A26 
 245      C78B20C7 
 246 081f 91DB20C7 		.ascii	"\221\333 \307g\216\345\3106\310q6\0039\366hr4\203\034"
 246      678EE5C8 
 246      36C87136 
 246      0339F668 
 246      7234831C 
 247 0833 5FDE0639 		.ascii	"_\336\0069.:\226#\217\220\003\027\266meja{'\323\234"
 247      2E3A9623 
 247      8F900317 
 247      B66D656A 
 247      617B27D3 
 248 0848 BAB0C5FC 		.ascii	"\272\260\305\374\264\270\356\244WG.}\204om\301\335\351"
 248      B4B8EEA4 
 248      57472E7D 
 248      846F6DC1 
 248      DDE9
 249 085a 2A4A5999 		.ascii	"*JY\231\321I\\\015\310\366\256\006Nj\032{\0054v\335"
 249      D1495C0D 
 249      C8F6AE06 
ARM GAS  /var/folders/c6/c789hm653lg9vtl73krp73tm0000gn/T//cccAEIGR.s 			page 19


 249      4E6A1A7B 
 249      053476DD 
 250 086e 2CC6D842 		.ascii	",\306\330B\272vp\373J-\\-\000\250\206^\231Bu}\272V\335"
 250      BA7670FB 
 250      4A2D5C2D 
 250      00A8865E 
 250      9942757D 
 251 0885 5A6B05A0 		.ascii	"Zk\005\240\347z\031\255\3505\030\321K\033\021}\305#"
 251      E77A19AD 
 251      E83518D1 
 251      4B1B117D 
 251      C523
 252 0897 5D85E8F1 		.ascii	"]\205\350\361\007\255\007\177\311b\376\317\317\343\230"
 252      07AD077F 
 252      C962FECF 
 252      CFE398
 253 08a6 19C03E36 		.ascii	"\031\300>6`&\3656\\\031\225\254\327\352\012\325H\257"
 253      6026F536 
 253      5C1995AC 
 253      D7EA0AD5 
 253      48AF
 254 08b8 DC1262A3 		.ascii	"\334\022b\243\362n\363\002mq\340\021\\Y,\271E\270#="
 254      F26EF302 
 254      6D71E011 
 254      5C592CB9 
 254      45B8233D 
 255 08cc D60678F6 		.ascii	"\326\006x\366]\024\231\255\\\374M\027\021\265\227\335"
 255      5D1499AD 
 255      5CFC4D17 
 255      11B597DD 
 256 08dc E2E0372C 		.ascii	"\342\3407,\027&\010'{J\007\312\2051W\300\230\177v\031"
 256      17260827 
 256      7B4A07CA 
 256      853157C0 
 256      987F7619 
 257 08f0 AEDFAEAF 		.ascii	"\256\337\256\257>>E\363`\374\277\364\323\355\223\277"
 257      3E3E45F3 
 257      60FCBFF4 
 257      D3ED93BF 
 258 0900 F8E4E65C 		.ascii	"\370\344\346\\\223\361\314\322\371\202\313\312]\273"
 258      93F1CCD2 
 258      F982CBCA 
 258      5DBB
 259 090e 61A6AD74 		.ascii	"a\246\255t\341U\220\243\006\257N\273\204\214\256\031"
 259      E15590A3 
 259      06AF4EBB 
 259      848CAE19 
 260 091e E094B78D 		.ascii	"\340\224\267\215|\337\274ru\240z\335\371\266\015\266"
 260      7CDFBC72 
 260      75A07ADD 
 260      F9B60DB6 
 261 092e 1B9573CF 		.ascii	"\033\225s\317\353\346W\3276\3328N\203\315\314\004\347"
 261      EBE657D7 
 261      36DA384E 
 261      83CDCC04 
 261      E7
 262 093f DB13652A 		.ascii	"\333\023e*\317\276\357\030\314o\306*\243\371JRX\236"
ARM GAS  /var/folders/c6/c789hm653lg9vtl73krp73tm0000gn/T//cccAEIGR.s 			page 20


 262      CFBEEF18 
 262      CC6FC62A 
 262      A3F94A52 
 262      589E
 263 0951 5DE3C2E5 		.ascii	"]\343\302\345\345Z\027^\337\\\347\242VI\277IX\324Ls"
 263      E55A175E 
 263      DF5CE7A2 
 263      5649BF49 
 263      58D44C73 
 264 0965 E9E7D8F5 		.ascii	"\351\347\330\365\325\327f\023\213\2276Cg\333]j\350\334"
 264      D5D76613 
 264      8B973643 
 264      67DB5D6A 
 264      E8DC
 265 0977 08B3724A 		.ascii	"\010\263rJ\2161L\3418HI\343(n\274\220c\220\311\356\205"
 265      8E314CE1 
 265      384849E3 
 265      286EBC90 
 265      6390C9EE 
 266 098c 70E26535 		.ascii	"p\342e5\001\377DN\300\346\234[\232\200\330\373J\325"
 266      01FF444E 
 266      C0E69C5B 
 266      9A80D8FB 
 266      4AD5
 267 099e CB9E74B3 		.ascii	"\313\236t\263\220\336\013\342\230\2710\3626\243;\317"
 267      90DE0BE2 
 267      98B930F2 
 267      36A33BCF 
 268 09ae DAB8FB59 		.ascii	"\332\270\373Y\266\001\246\3416[\323\360\022LC}^mK\240"
 268      B601A6E1 
 268      365BD3F0 
 268      124C437D 
 268      5E6D4BA0 
 269 09c2 66E20A8D 		.ascii	"f\342\012\215\312\265/\264-_\365\262\353}#\234]+\350"
 269      CAB52FB4 
 269      2D5FF5B2 
 269      EB7D239C 
 269      5D2BE8
 270 09d5 F149682B 		.ascii	"\361Ih+p\246\030mU\371\320_p\336o\007\231:{\270\226"
 270      70A6186D 
 270      55F9D05F 
 270      70DE6F07 
 270      993A7BB8 
 271 09ea AA19C2B5 		.ascii	"\252\031\302\265\266\021\023e;L\224\0350Qv\001\335M"
 271      B6111365 
 271      3B4C941D 
 271      30517601 
 271      DD4D
 272 09fc 4E172BB7 		.ascii	"N\027+\267x\237t\213\303\216\345\366\333\364\276\255"
 272      789F748B 
 272      C38EE5F6 
 272      DBF4BEAD 
 273 0a0c E430C76F 		.ascii	"\3440\307o\321\373n\\\271:\002\3560q\262\000zU+y\366"
 273      D1FB6E5C 
 273      B93A02EE 
 273      3071B200 
 273      7A552B79 
ARM GAS  /var/folders/c6/c789hm653lg9vtl73krp73tm0000gn/T//cccAEIGR.s 			page 21


 274 0a21 C2BC3DD9 		.ascii	"\302\274=\331C\271\031-\200^\314T\222\304\013U_96.a"
 274      43B9192D 
 274      805ECC54 
 274      92C40B55 
 274      5F39362E 
 275 0a36 FC264A4F 		.ascii	"\374&JO\224\012g\313l.\242&\262R\333\2006P\306A\360"
 275      940A67CB 
 275      6C2EA226 
 275      B252DB80 
 275      3650C641 
 276 0a4b B4EE1CF3 		.ascii	"\264\356\034\363\254\224b1\366\245\\|\312\341\236YI"
 276      AC946231 
 276      F6A55C7C 
 276      CAE19E59 
 276      49
 277 0a5c D1B2D261 		.ascii	"\321\262\322a[Yi\237iV:\354<+\231\275H\376x\366\010"
 277      5B59699F 
 277      69563AEC 
 277      3C2B99BD 
 277      48FE78F6 
 278 0a71 CC8FA374 		.ascii	"\314\217\243t\012Y\230kC\367\226\233\315\262rm\337|"
 278      0A59986B 
 278      43F7969B 
 278      CDB2726D 
 278      DF7C
 279 0a83 56E55F8D 		.ascii	"V\345_\215CK\215xfq\310r?MV\232\016@VU+\276\325v\230"
 279      434B8D78 
 279      6671C872 
 279      3F4D569A 
 279      0E405655 
 280 0a9c 4BB11D34 		.ascii	"K\261\0354_\005S\035~\275\035\260\024{A\033g\353\226"
 280      5F05531D 
 280      7EBD1DB0 
 280      147B411B 
 280      67EB96
 281 0aaf C2539963 		.ascii	"\302S\231c\266;\306\243\231\333w`\276\206\247\356Ht"
 281      B63BC6A3 
 281      99DB7760 
 281      BE86A7EE 
 281      4874
 282 0ac1 D8C17BD4 		.ascii	"\330\301{\324\232\277s\263\251\362\366\220c8\332\020"
 282      9ABF73B3 
 282      A9F2F690 
 282      6338DA10 
 283 0ad1 370F60C3 		.ascii	"7\017`\303\276\320\337l\233JIDn\274\260\240\315\251"
 283      BED0DF6C 
 283      9B4A4944 
 283      6EBCB0A0 
 283      CDA9
 284 0ae3 199F9F1B 		.ascii	"\031\237\237\033\240\356w}\011\236 \337\221~\277\213"
 284      A0EE777D 
 284      099E20DF 
 284      917EBF8B 
 285 0af3 06C20EFB 		.ascii	"\006\302\016\373\225aB)+w\302\335\002_\331\232M\253"
 285      95614229 
 285      2B77C2DD 
 285      025FD99A 
ARM GAS  /var/folders/c6/c789hm653lg9vtl73krp73tm0000gn/T//cccAEIGR.s 			page 22


 285      4DAB
 286 0b05 773ADF17 		.ascii	"w:\337\027:\331_\015\213\347\301Kf\334q[\302\342<\200"
 286      3AD95F0D 
 286      8BE7C14B 
 286      66DC715B 
 286      C2E23C80 
 287 0b19 F92AD3E2 		.ascii	"\371*\323\342\022)s\357\000\375\352Ge\254\3251\"\355"
 287      122973EF 
 287      00FDEA47 
 287      65ACD531 
 287      22ED
 288 0b2b 6E6B76C2 		.ascii	"nkv\302\\P\301^\267\003\226\"\275\257\303`N\224\274"
 288      5C50C15E 
 288      B7039622 
 288      BDAFC360 
 288      4E94BC
 289 0b3e 47AB19AF 		.ascii	"G\253\031\257\303\360\177\274=J^\345X\012J%H\311_\014"
 289      C3F07FBC 
 289      3D4A5EE5 
 289      580A4A25 
 289      48C95F0C 
 290 0b52 58FFB62C 		.ascii	"X\377\266,\257|\312\311\002\345\306\353g5\217\221\341"
 290      AF7CCAC9 
 290      02E5C6EB 
 290      67358F91 
 290      E1
 291 0b63 168BB77B 		.ascii	"\026\213\267{\010#\033\013`\233\353}\034\263\331(\221"
 291      08231B0B 
 291      609BEB7D 
 291      1CB3D928 
 291      91
 292 0b74 59F4345B 		.ascii	"Y\3644[:7{\221\223\211g\317B\364?\007u\321e\240W\201"
 292      3A377B91 
 292      938967CF 
 292      42F43F07 
 292      75D165A0 
 293 0b8a 7E0DB49B 		.ascii	"~\015\264\233\316\012mw\030\202\007=Q\265\346\343\266"
 293      CE0A6D77 
 293      1882073D 
 293      51B5E6E3 
 293      B6
 294 0b9b 1949EE60 		.ascii	"\031I\356`\243\002\015\226\313w\302\375\032\273\201"
 294      A3020D96 
 294      CB77C2FD 
 294      1ABB81
 295 0baa B603DD03 		.ascii	"\266\003\335\003\364,\320\363@/\002\275\016\364Y`\363"
 295      F42CD0F3 
 295      402F02BD 
 295      0EF45960 
 295      F3
 296 0bbb 05A0D381 		.ascii	"\005\240\323\201\316\006z\000\3501\240\307\201\236\000"
 296      CE067A00 
 296      E831A0C7 
 296      819E00
 297 0bca FA17A09F 		.ascii	"\372\027\240\237\003\375\002\350\351t\305`\2426\210"
 297      03FD02E8 
 297      E974C560 
ARM GAS  /var/folders/c6/c789hm653lg9vtl73krp73tm0000gn/T//cccAEIGR.s 			page 23


 297      A23688
 298 0bd9 F7FF13D8 		.ascii	"\367\377\023\330\367](\205\367\364\260\357.\316\260"
 298      F75D2885 
 298      F7F4B0EF 
 298      2ECEB0
 299 0be8 D7D863B3 		.ascii	"\327\330c\263\374\304\035N\357;\240=ss\363\376\375\352"
 299      FCC41D4E 
 299      EF3BA03D 
 299      7373F3FE 
 299      FDEA
 300 0bfa 85997E27 		.ascii	"\205\231~'\303);\210\217\232\030D\233\261\207\232m?"
 300      C3293B88 
 300      8F9A1844 
 300      9BB1879A 
 300      6D3F
 301 0c0c E2412D1B 		.ascii	"\342A-\033\350kS_\355\376\005\016\356\351V\031x\366"
 301      E86B535F 
 301      EDFE050E 
 301      EEE95619 
 301      78F6
 302 0c1e 45F77D66 		.ascii	"E\367}f\017\204PG\341\343^v\033\002\375%\365\2660\334"
 302      0F845047 
 302      E1E35E76 
 302      1B02FD25 
 302      F5B630DC 
 303 0c32 9F3ED05F 		.ascii	"\237>\320_1\273\243\301dX\323L5\357\302\241\337\251"
 303      31BBA3C1 
 303      6458D34C 
 303      35EFC2A1 
 303      DFA9
 304 0c44 996A861B 		.ascii	"\231j\206\033g\252\017{\233g*K\034\314\337l#\377k\017"
 304      67AA0F7B 
 304      9B672A4B 
 304      1CCCDF6C 
 304      23FF6B0F 
 305 0c58 02FFB3D3 		.ascii	"\002\377\263\323\363?i\242\262\361\340\314d\242\232"
 305      F33F69A2 
 305      B2F1E0CC 
 305      64A29A
 306 0c67 983286F2 		.ascii	"\2302\206\362\354gp\307\266\235\210\030\007I0\013\031"
 306      EC6770C7 
 306      B69D8818 
 306      0749300B 
 306      19
 307 0c78 A41DC4D6 		.ascii	"\244\035\304\326\246\203\220$\346B`;\341\030\314O\201"
 307      A6839024 
 307      E642603B 
 307      E118CC4F 
 307      81
 308 0c89 6D21C14E 		.ascii	"m!\301N\332\001\263\3128\010l\017\011\366\245c0\232"
 308      DA01B3CA 
 308      38086C0F 
 308      09F6A563 
 308      309A
 309 0c9b B34E12EC 		.ascii	"\263N\022\354\234\0350\253\355J\004\266\237\004\273"
 309      9C1D30AB 
 309      ED4A04B6 
ARM GAS  /var/folders/c6/c789hm653lg9vtl73krp73tm0000gn/T//cccAEIGR.s 			page 24


 309      9F04BB
 310 0caa EC18CC6F 		.ascii	"\354\030\314o\346%L\017'C\327Xn\354\005s\3348\226\315"
 310      E6254C0F 
 310      2743D758 
 310      6EEC0573 
 310      DC3896CD 
 311 0cbe 03BA00E8 		.ascii	"\003\272\000\350\"\240\213\201.q\333\270\340mv\023W"
 311      22A08B81 
 311      2E71DBB8 
 311      E06D7613 
 311      57
 312 0ccf A25F03C3 		.ascii	"\242_\003\303/g\3461(Ru}u\374\347&\353 \252>\2548x\203"
 312      2F67E631 
 312      2852757D 
 312      75FCE726 
 312      EB20AA3E 
 313 0ce7 E4A0A18F 		.ascii	"\344\240\241\217S\016\374$\007\312\365\216\371pG\247"
 313      530EFC24 
 313      07CAF58E 
 313      F97047A7 
 314 0cf7 FE6CCB14 		.ascii	"\376l\313\024#\236\331\316E\212\332\346\233\216\234"
 314      239ED9CE 
 314      458ADAE6 
 314      9B8E9C
 315 0d06 154FE960 		.ascii	"\025O\351`/:\006\243\266s\224\246\217\010\260\026\307"
 315      2F3A06A3 
 315      B67394A6 
 315      8F08B016 
 315      C7
 316 0d17 60793D3C 		.ascii	"`y=<B\365\205&\360\205\351`\363\327\201\276\011\364"
 316      42F58526 
 316      F085E960 
 316      F3D781BE 
 316      09F4
 317 0d29 8F40FFEC 		.ascii	"\217@\377\354\246\222\371\302>\306\004\246\306X\002"
 317      A692F9C2 
 317      3EC604A6 
 317      C65802
 318 0d38 35198C19 		.ascii	"5\031\214\031\273\270V\266}\236\264\355\312>N\263\026"
 318      BBB856B6 
 318      7D9EB4ED 
 318      CA3E4EB3 
 318      16
 319 0d49 65DBF8E6 		.ascii	"e\333\370\346\316#\237\251y0\355\315J\011]N\"v\306\346"
 319      CE239FA9 
 319      7930EDCD 
 319      4A095D4E 
 319      2276C6E6 
 320 0d5d 5DF86203 		.ascii	"]\370b\003\273\022\222\371j\010\365\357\364I\033\352"
 320      BB1292F9 
 320      6A08F5EF 
 320      F4491BEA 
 321 0d6d 0D4858A6 		.ascii	"\015HX\2465\306X\337}\272\215\205\255\2325\266\242\375"
 321      35C658DF 
 321      7DBA8D85 
 321      AD9A35B6 
 321      A2FD
ARM GAS  /var/folders/c6/c789hm653lg9vtl73krp73tm0000gn/T//cccAEIGR.s 			page 25


 322 0d7f 8C336D1C 		.ascii	"\2143m\034,\327\350ab\033\260\261&\3438=\363L\233\272"
 322      2CD7E861 
 322      621BB0B1 
 322      26E3383D 
 322      F34C9BBA 
 323 0d93 5AA7C2B5 		.ascii	"Z\247\302\2659\206\363Sp\263i\270\016;p)b\365\034\032"
 323      3986F353 
 323      70B369B8 
 323      0E3B7029 
 323      62F51C1A 
 324 0da7 AED3311C 		.ascii	"\256\3231\034\301\335\314\211\312+*\\\"U*\267%U\036"
 324      C1DDCC89 
 324      CA2B2A5C 
 324      22552AB7 
 324      25551E
 325 0dba B0C39555 		.ascii	"\260\303\225U\330G\\\315\327\205\334\012B~\352\030\216"
 325      D8475CCD 
 325      D785DC0A 
 325      427EEA18 
 325      8E
 326 0dcb 1672210D 		.ascii	"\026r!\015\367\231\0358\253\3739\020\334\012\032\356"
 326      F7991D38 
 326      ABFB3910 
 326      DC0A1AEE 
 327 0ddb 9463389A 		.ascii	"\224c8\232\273U4\334Y;p~k\007y\233v\220\313\216\341"
 327      BB5534DC 
 327      593B707E 
 327      6B07799B 
 327      7690CB8E 
 328 0df0 68F75D43 		.ascii	"h\367]C\303\335\264\003g\265\244\205\340\326\321p\215"
 328      C3DDB403 
 328      67B5A485 
 328      E0D6D170 
 328      8D
 329 0e01 794EE168 		.ascii	"yN\341h\335m\240u7\325\016\234\325\215\332\010n\023"
 329      DD6DA075 
 329      37D50E9C 
 329      D58DDA08 
 329      6E13
 330 0e13 0DF7B263 		.ascii	"\015\367\262c8Zw[hag\330\201\263Z$\303e\032\015\327"
 330      385A775B 
 330      686167D8 
 330      81B35A24 
 330      C3651A0D 
 331 0e28 E2188EE0 		.ascii	"\342\030\216\340\016\305\331\3163\331\010M{R\010\357"
 331      0EC5D9CE 
 331      33D9084D 
 331      7B5208EF 
 332 0e38 11528F0A 		.ascii	"\021R\217\012Q\027\307\260\332\351v\372\244\320'n\363"
 332      5117C7B0 
 332      DAE976FA 
 332      A4D0276E 
 332      F3
 333 0e49 2785584D 		.ascii	"'\205XM,\216\231o\024\301\354\222\374Qk{\355\247\355"
 333      2C8E996F 
 333      14C1EC92 
 333      FC516B7B 
ARM GAS  /var/folders/c6/c789hm653lg9vtl73krp73tm0000gn/T//cccAEIGR.s 			page 26


 333      EDA7ED
 334 0e5c F5BA1D8D 		.ascii	"\365\272\035\215\230]Xk\0329@j\304\370\354T\253KG\030"
 334      985D586B 
 334      1A39406A 
 334      C4F8EC54 
 334      AB4B4718 
 335 0e70 ACC91777 		.ascii	"\254\311\027w\254\221\343\026\032\311Mhd\271Q\004zX"
 335      AC91E316 
 335      1AC94D68 
 335      64B95104 
 335      7A58
 336 0e82 3319689F 		.ascii	"3\031h\237\373\230v\222uvT\"\263&:1{\221\331\232g\327"
 336      FB987692 
 336      75765422 
 336      B3263A31 
 336      7B91D99A 
 337 0e98 42A1B40E 		.ascii	"B\241\264\016\312\227\015@7\001\335\002T\001\372\036"
 337      CA970D40 
 337      3701DD02 
 337      5401FA1E 
 338 0ea8 D01D4077 		.ascii	"\320\035@w\001\335\015\264\035\350\207@?\002\272\027"
 338      01DD0DB4 
 338      1DE88740 
 338      3F02BA17 
 339 0eb8 E83EA05D 		.ascii	"\350>\240]@\017\002=\004\364(\320c@O\330)\225V\221\245"
 339      400F023D 
 339      04F428D0 
 339      63404FD8 
 339      29955691 
 340 0ecd D2E63C1B 		.ascii	"\322\346<\033\245\222\375\025\227\344\017B\360\354\007"
 340      A592FD15 
 340      97E40F42 
 340      F0EC07
 341 0edc 90143F84 		.ascii	"\220\024?\204\247\007\233`5\245\031\350l\240s\200\276"
 341      A7079B60 
 341      35A519E8 
 341      6CA07380 
 341      BE
 342 0eed 027415D0 		.ascii	"\002t\025\320\265@7\001\335\002t*\0105\015\350J;\242"
 342      B5403701 
 342      DD02742A 
 342      08350DE8 
 342      4A3BA2
 343 0f00 ED4A3E7F 		.ascii	"\355J>\177H=W\211J\237<\272\002\373\036\263D\226\233"
 343      483D5789 
 343      4A9F3CBA 
 343      02FB1EB3 
 343      44969B
 344 0f13 F1CFA42C 		.ascii	"\361\317\244,fgM\224\037W\317\345\230O\340\270\355\311"
 344      66674D94 
 344      1F57CFE5 
 344      984FE0B8 
 344      EDC9
 345 0f25 DF183164 		.ascii	"\337\0301dzm\004\370\331\217F\371o\223'\347\261\311"
 345      7A6D04F8 
 345      D98F46F9 
 345      6F9327E7 
ARM GAS  /var/folders/c6/c789hm653lg9vtl73krp73tm0000gn/T//cccAEIGR.s 			page 27


 345      B1C9
 346 0f37 9F26D99E 		.ascii	"\237&\331\236\372\247I\376\352\356\3613 +\342\312E\375"
 346      FAA749FE 
 346      EAEEF133 
 346      202BE2CA 
 346      45FD
 347 0f49 A749D41F 		.ascii	"\247I\324\037\367@W\323\246\254\312\353\005\215I\236"
 347      F74057D3 
 347      A6ACCAEB 
 347      058D499E 
 348 0f59 3DE9C6BB 		.ascii	"=\351\306\2735\247\334\0311I\234f\306\344iS&/\357J0"
 348      35A7DC19 
 348      31499C66 
 348      C6E46953 
 348      262FEF4A 
 349 0f6e B91598BC 		.ascii	"\271\025\230\274n`\322\374\227P\316\270\015\277\204"
 349      6E60D2FC 
 349      9750CEB8 
 349      0DBF84
 350 0f7d F2554FF4 		.ascii	"\362UO\3648\252\227\227\035\236\306N\\2E\301c\374!1"
 350      38AA9797 
 350      1D9EC64E 
 350      5C3245C1 
 350      63FC2131 
 351 0f91 C69ABEC6 		.ascii	"\306\232\276\3061T\220\3634\310?3\213e\271"
 351      315490F3 
 351      34C83F33 
 351      8B65B9
 352 0fa0 33BEFAF9 		.ascii	"3\276\372\371\375\347\330s\215\362\034y\222\322\335"
 352      FDE7D873 
 352      8DF21C79 
 352      92D2DD
 353 0faf CDDEABFF 		.ascii	"\315\336\253\377t\315\256\276lJ\323p\314\276\276\311"
 353      74CDAEBE 
 353      6C4AD370 
 353      CCBEBEC9 
 354 0fbf 59AEFD9A 		.ascii	"Y\256\375\232\015\306\\\241(\027^\365!\315\313gQ\361"
 354      0DC65CA1 
 354      28175EF5 
 354      21CDCB67 
 354      51F1
 355 0fd1 66BE6815 		.ascii	"f\276h\025\357\243\203\335 \352\377\271o\235\177\304"
 355      EFA383DD 
 355      20EAFFB9 
 355      6F9D7FC4 
 356 0fe1 62D9CA70 		.ascii	"b\331\312p\002\317^5_\2702\034\207\217\374\332x9pA]"
 356      02CF5E35 
 356      5FB8321C 
 356      878FFCDA 
 356      78397041 
 357 0ff6 BAFADAC6 		.ascii	"\272\372\332\306\322\225\254\\\353P"
 357      D295AC5C 
 357      EB50
 358 1000 77CCCCC6 		.ascii	"w\314\314\306J\2542\335\235\220A\331\333\201w\304o\302"
 358      4AAC32DD 
 358      9D9041D9 
 358      DB8177C4 
ARM GAS  /var/folders/c6/c789hm653lg9vtl73krp73tm0000gn/T//cccAEIGR.s 			page 28


 358      6FC2
 359 1012 E5CBEC7E 		.ascii	"\345\313\354~i/_h\014X\216\366\030\330\235\241\262\213"
 359      692F5F68 
 359      0C588EF6 
 359      18D89DA1 
 359      B28B
 360 1024 FB6D3C3B 		.ascii	"\373m<;\3241\237z\244\352M`\001\237\233\301\245\213"
 360      D4319F7A 
 360      A4EA4D60 
 360      019F9BC1 
 360      A58B
 361 1036 9C780E48 		.ascii	"\234x\016H\005{\3131\230\237\002[H\202\255\261\003\226"
 361      057BCB31 
 361      989F025B 
 361      4882ADB1 
 361      0396
 362 1048 E2C27F15 		.ascii	"\342\302\177\025\011\266\3051\030\315\331\032\022l\273"
 362      09B6C531 
 362      18CDD91A 
 362      126CBB
 363 1057 1DB01477 		.ascii	"\035\260\024w\304o \301\332\034\203\321\234m!\301>\264"
 363      C46F20C1 
 363      DA1C83D1 
 363      9C6D21C1 
 363      3EB4
 364 1069 0366769D 		.ascii	"\003fv\235a\366\"]\215g\033<8\3534zp\316\230\004t\012"
 364      61F6225D 
 364      8D671B3C 
 364      38EB347A 
 364      70CE9804 
 365 107f D0A940A7 		.ascii	"\320\251@\247\001}\001\350K\036j\275\242\023x\372:Y"
 365      017D01E8 
 365      4B1E6ABD 
 365      A21378FA 
 365      3A59
 366 1091 0FD02E9D 		.ascii	"\017\320.\235\316\305d\245\251\034\013\250\316\230C"
 366      CEC564A5 
 366      A91C0BA8 
 366      CE9843
 367 10a0 B6C02CEF 		.ascii	"\266\300,\357\217\226\2259\004X\334\026\230\345\036"
 367      8F969539 
 367      0458DC16 
 367      98E51E
 368 10af B2ACAC20 		.ascii	"\262\254\254 \300>\267\005Va\315\331:\002\354\214-\260"
 368      C03EB705 
 368      5661CDD9 
 368      3A02EC8C 
 368      2DB0
 369 10c1 A835677B 		.ascii	"\2505g{\010\260K\266\300\246\262\326\254}L\240\335\260"
 369      08B04BB6 
 369      C0A6B2D6 
 369      AC7D4CA0 
 369      DDB0
 370 10d3 85B6D4AC 		.ascii	"\205\266\324\254\276\323\320\316\022h\023\357\264\203"
 370      BED3D0CE 
 370      126813EF 
 370      B483
ARM GAS  /var/folders/c6/c789hm653lg9vtl73krp73tm0000gn/T//cccAEIGR.s 			page 29


 371 10e1 A6A4E0ED 		.ascii	"\246\244\340\355*\2016\315\026Z<e\355\251\373\373u("
 371      2A8136CD 
 371      165A3C65 
 371      EDA9FBFB 
 371      7528
 372 10f3 356F408D 		.ascii	"5o@\2154\035\374z\006\320Y@[\200\316\005:\017\350\002"
 372      341DFC7A 
 372      06D05940 
 372      5B80CE05 
 372      3A0FE802 
 373 1107 A08B68DF 		.ascii	"\240\213h\337\237~\247q\255\356k\343Z]2\3730\267>\336"
 373      9F7EA771 
 373      ADEE6BE3 
 373      5A5D32FB 
 373      30B73EDE 
 374 111b BCC478D6 		.ascii	"\274\304x\326\351\356\277=\034s\017\263\374\316\005"
 374      E9EEBF3D 
 374      1C730FB3 
 374      FCCE05
 375 112a B21AEF06 		.ascii	"\262\032\357\0063\253\345\251J\023*.\256\000+\230\005"
 375      33ABE5A9 
 375      4A132A2E 
 375      AE002B98 
 375      05
 376 113b B52FAAEA 		.ascii	"\265/\252\352U\235\365\030&\013\031V\236\322\325K\013"
 376      559DF518 
 376      260B1956 
 376      9ED2D54B 
 376      0B
 377 114c 015A17A3 		.ascii	"\001Z\027\243\305\002\355\253\272$\243\006\006\255K"
 377      C502EDAB 
 377      BA24A306 
 377      06AD4B
 378 115b 5ED62A73 		.ascii	"^\326*sZ\224\320\217\272\351\322\002\206\326\261\242"
 378      5A94D08F 
 378      BAE9D202 
 378      86D6B1A2 
 379 116b 459673B4 		.ascii	"E\226s\264\350\241\237\266\377~F\323\2065C\015\223\227"
 379      E8A19FB6 
 379      FF7E46D3 
 379      8635430D 
 379      9397
 380 117d 4E373024 		.ascii	"N70${\323s\264\264a\030\315\3207\335\006\206\030\232"
 380      7BD373B4 
 380      B46118CD 
 380      D037DD06 
 380      86189A
 381 1190 99EDD356 		.ascii	"\231\355\323V\304s\031\315,)\364\323\265\354\247N\325"
 381      C47319CD 
 381      2C29F4D3 
 381      B5ECA74E 
 381      D5
 382 11a1 C31A5463 		.ascii	"\303\032Tc\344d\305\037\377\266#\233\346\346\203\271"
 382      E464C51F 
 382      FFB6239B 
 382      E6E683B9 
 383 11b1 0F329A73 		.ascii	"\0172\232sX\363\342w\312\310\216e]\313<i\230\221\373"
ARM GAS  /var/folders/c6/c789hm653lg9vtl73krp73tm0000gn/T//cccAEIGR.s 			page 30


 383      58F3E277 
 383      CAC88E65 
 383      5DCB3C69 
 383      9891FB
 384 11c4 D39C006C 		.ascii	"\323\234\000lKJ>\030\247|t\331\340\2031ac\356mgci&l"
 384      4B4A3E18 
 384      A77C74D9 
 384      E0833161 
 384      63EE6D67 
 385 11dc CC4BC906 		.ascii	"\314K\311\006\212Y\3339\347\254\314\232\352v\306\212"
 385      8A59DB39 
 385      E7ACCC9A 
 385      EA76C68A 
 386 11ec 1CDFF6EF 		.ascii	"\034\337\366\357\214\026(n\243R\366dh\233E\377\037\\"
 386      8C16286E 
 386      A352F664 
 386      689B45FF 
 386      1F5C
 387 11fe C4BCC44E 		.ascii	"\304\274\304N<\030\375c&Q\246_k\307e\372r\017N+\273"
 387      3C18FD63 
 387      2651A65F 
 387      6BC765FA 
 387      720F4E2B 
 388 1213 0D513C2D 		.ascii	"\015Q<-\006\036x\245\261L_\335\016e\372\312\364e\372"
 388      061E78A5 
 388      B14C5FDD 
 388      0E65FACA 
 388      F465FA
 389 1226 A489CADA 		.ascii	"\244\211\312\332v\275LW\027U\016\000\013+3+\323\361"
 389      76BD4C57 
 389      17550E00 
 389      0B2B332B 
 389      D3F1
 390 1238 22683BB1 		.ascii	"\"h;\261\253y\3041\230\237\002\333@\202\235\260\003"
 390      AB79C431 
 390      989F02DB 
 390      40829DB0 
 390      03
 391 1249 96627761 		.ascii	"\226bwa\023\011v\3321\030\315\331\026\022\354\234\035"
 391      130976DA 
 391      3118CDD9 
 391      1612EC9C 
 391      1D
 392 125a B0143BC1 		.ascii	"\260\024;\301{H\260K\216\301H\316\032\224c\355\357\343"
 392      7B48B04B 
 392      8EC148CE 
 392      1A9463ED 
 392      EFE3
 393 126c 4532787A 		.ascii	"E2xz\252!\345\323S\266\036\260\332\3521<`\265\357\371"
 393      AA21E5D3 
 393      53B61EB0 
 393      DAEA313C 
 393      60B5EFF9 
 394 1280 DED8BB70 		.ascii	"\336\330\273p\177\372\213\300\256v\372\"\360\032\010"
 394      7FFA8BC0 
 394      AE76FA22 
 394      F01A08
ARM GAS  /var/folders/c6/c789hm653lg9vtl73krp73tm0000gn/T//cccAEIGR.s 			page 31


 395 128f 87CFCDC0 		.ascii	"\207\317\315\300\273\320\340G\333s\344i\271\211g?\226"
 395      BBD0E047 
 395      DB73E469 
 395      B989673F 
 395      96
 396 12a0 A6607CA7 		.ascii	"\246`|\247qZ\034l\347\374jwz\276\017\265\317\357/\267"
 396      715A1C6C 
 396      E7FC6A77 
 396      7ABE0FB5 
 396      CFEF2FB7 
 397 12b4 6ED5EF07 		.ascii	"n\325\357\007\224\247\310?$\306\312\323\307\302\253"
 397      94A7C83F 
 397      24C6CAD3 
 397      C7C2AB
 398 12c3 1889C74F 		.ascii	"\030\211\307O\327\376\030v\366v{\340\3010\303L\266\017"
 398      D7FE1876 
 398      F6767BE0 
 398      C130C34C 
 398      B60F
 399 12d5 D4B5F00D 		.ascii	"\324\265\360\015\365G#?\000\240I\3372\026v\306\233\304"
 399      F547233F 
 399      00A049DF 
 399      321676C6 
 399      9BC4
 400 12e7 5CF4A695 		.ascii	"\\\364\246\225\313\227l\340@\345\354`\216y\031\006\334"
 400      CB976CE0 
 400      40E5EC60 
 400      8E791906 
 400      DC
 401 12f8 99F43F8A 		.ascii	"\231\364?\212\311t&j\214\317y\353\324\3009\262\322\350"
 401      C974266A 
 401      8CCF79EB 
 401      D4C039B2 
 401      D2E8
 402 130a D25531C3 		.ascii	"\322U1\3031\240q\367\232c\346~+C\277!D\327+\337\367"
 402      31A071F7 
 402      9A63E67E 
 402      2B43BF21 
 402      44D72BDF 
 403 131f A09EDD61 		.ascii	"\240\236\335a\250g\277ec\326Y\355\233\241)|\226\234"
 403      A867BF65 
 403      63D659ED 
 403      9BA1297C 
 403      969C
 404 1331 C2AD8EC1 		.ascii	"\302\255\216\301\374\024\330y\022\3545;`~k\316.\222"
 404      FC14D879 
 404      12EC353B 
 404      607E6BCE 
 404      2E92
 405 1343 60CB1C83 		.ascii	"`\313\034\203\321\234]&\301\336\262\003f\266_f\366\""
 405      D19C5D26 
 405      C1DEB203 
 405      66B65F66 
 405      F622
 406 1355 F318CFAE 		.ascii	"\363\030\317\256\2025\200\325`\251w\200\256\005\272"
 406      823580D5 
 406      60A97780 
ARM GAS  /var/folders/c6/c789hm653lg9vtl73krp73tm0000gn/T//cccAEIGR.s 			page 32


 406      AE05BA
 407 1364 1EE846A0 		.ascii	"\036\350F\240\233\201\276\013t?\320\003@?\006z\230\264"
 407      9B81BE0B 
 407      743FD003 
 407      403F067A 
 407      98B4
 408 1376 AFE11693 		.ascii	"\257\341\026\223\345\026,c.\216x\250[\362\014g\246\372"
 408      E5162C63 
 408      2E8E78A8 
 408      5BF20C67 
 408      A6FA
 409 1388 21C7A39E 		.ascii	"!\307\243\236\304\322\365\017\230\327Q\304\211\257~"
 409      C4D2F50F 
 409      98D751C4 
 409      89AF7E
 410 1397 FE9BBE73 		.ascii	"\376\233\276s\233\262\251UmSX\274Zj\005{,\011k8kC\212"
 410      9BB2A955 
 410      6D5358BC 
 410      5A6A057B 
 410      2C096B38 
 411 13ae B3E24666 		.ascii	"\263\342Ff\344U\255y&\2140\337\03780_\375\213\304\362"
 411      E455AD79 
 411      268C30DF 
 411      1F38305F 
 411      FD8BC4F2 
 412 13c2 ABF99AFC 		.ascii	"\253\371\232\374p]\250\246\276J\300\355`82\252&\022"
 412      705DA8A6 
 412      BE4AC0ED 
 412      603832AA 
 412      2612
 413 13d4 7A7A6035 		.ascii	"zz`5\323kT\315\3231\211\227\204\240\344}\254\354I\177"
 413      D36B54CD 
 413      D3318997 
 413      84A0E47D 
 413      ACEC497F 
 414 13e8 21D36B58 		.ascii	"!\323kX\351\023\301'\313J\312J*\263qsdey\005\364\015"
 414      E913C127 
 414      CB4ACA4A 
 414      2AB37173 
 414      64657905 
 415 13fe 2DAC2CF9 		.ascii	"-\254,\371Uqo\334,,/++F_\313\036\353\213\277\026\225"
 415      55716FDC 
 415      2C2C2F2B 
 415      2B465FCB 
 415      1EEB8BBF 
 416 1414 8C4CF6F8 		.ascii	"\214L\366\370pO\240xh\321os\364\026\352\205\366\257"
 416      704FA078 
 416      68D16F73 
 416      F416EA85 
 416      F6AF
 417 1426 0325957A 		.ascii	"\003%\225z{\344o\313\012Q{\220\221\315Q\021^\254\212"
 417      7BE46FCB 
 417      0A517B90 
 417      91CD5111 
 417      5EAC8A
 418 1439 E5979796 		.ascii	"\345\227\227\226\214(\376\015\032|\304\203\017\004\213"
 418      8C28FE0D 
ARM GAS  /var/folders/c6/c789hm653lg9vtl73krp73tm0000gn/T//cccAEIGR.s 			page 33


 418      1A7CC483 
 418      0F048B
 419 1448 07173CA4 		.ascii	"\007\027<\244\376c`\210\361\004\207E\"5\367\306\252"
 419      FE636088 
 419      F1048745 
 419      2235F7C6 
 419      AA
 420 1459 42C19A9A 		.ascii	"B\301\232\232\252`8\026\014\241\177\004\303u1A\224\204"
 420      AA603816 
 420      0CA17F04 
 420      C3753141 
 420      9484
 421 146b AA81515E 		.ascii	"\252\201Q^\224\006\026\344\006\203\002/\326L@\375a\351"
 421      940616E4 
 421      0683022F 
 421      D64C40FD 
 421      61E9
 422 147d 7EE320D1 		.ascii	"~\343 \321\210(\305\362\001<\277\264\264(_\003C\372"
 422      8828C5F2 
 422      013CBFB4 
 422      B4285F03 
 422      43FA
 423 148f F08D2C2A 		.ascii	"\360\215,*,\022\303c\00517\321\372\325\210\312\0344"
 423      2C12C363 
 423      053137D1 
 423      FAD588CA 
 423      1C34
 424 14a1 8C3E422E 		.ascii	"\214>B.jG\305\210$\204\320\227\254P\244\256\016\265"
 424      6A47C588 
 424      2484D097 
 424      AC50A4AE 
 424      0EB5
 425 14b3 7A558563 		.ascii	"zU\205cZ\2634\277>&\346#\375\242\201\012\205\232\032"
 425      5AB334BF 
 425      3E26E623 
 425      FDA2810A 
 425      859A1A
 426 14c6 5ECC1F13 		.ascii	"^\314\037\023\012\375\204\027k\177R\027\251\023~\"\360"
 426      0AFD8417 
 426      6B7F5217 
 426      A9137E22 
 426      F0
 427 14d7 A3C2F90F 		.ascii	"\243\302\371\017\024\014\032\\0\244\340\247\371t\267"
 427      140C1A5C 
 427      30A4E0A7 
 427      F974B7
 428 14e6 6EA49854 		.ascii	"n\244\230T\025\256\223\020?\331\365\350\023\251@\372"
 428      15AE9310 
 428      3FD9F5E8 
 428      13A940FA 
 429 14f6 B7DB805A 		.ascii	"\267\333\200Z\313\207\252\303uB~\260J\030\315\327\327"
 429      CB87AAC3 
 429      75427EB0 
 429      4A18CDD7 
 429      D7
 430 1507 48416942 		.ascii	"HAiBT\210a/\010\006\365q\262pcHP\362\251]\250\345\026"
 430      5488612F 
ARM GAS  /var/folders/c6/c789hm653lg9vtl73krp73tm0000gn/T//cccAEIGR.s 			page 34


 430      0806F571 
 430      B2706348 
 430      50F2A95D 
 431 151e 05BECA33 		.ascii	"\005\276\3123N\014K\202;6\241.\324g\030\366\235\"al"
 431      4E0C4B82 
 431      3B36A12E 
 431      D46718F6 
 431      9D22616C 
 432 1532 382494D4 		.ascii	"8$\224\324\215\216d#\027\012\306\302\377!d\341F]}m\366"
 432      8D8E6423 
 432      170AC6C2 
 432      FF2164E1 
 432      465D7D6D 
 433 1547 184142DA 		.ascii	"\030AB\332\032\035q\215\255\225<\340]\256P\270\312\025"
 433      1A1D718D 
 433      AD953CE0 
 433      5DAE50B8 
 433      CA15
 434 1559 8A556587 		.ascii	"\212Ue\207\370(\037\012K\023z\305B\"/\205\252\243|\325"
 434      F8281F0A 
 434      4B137AC5 
 434      42222F85 
 434      AAA37CD5 
 435 156d 3D569E8A 		.ascii	"=V\236\212\254\202x\313E\037\243\352c\265\221*\344\243"
 435      AC8278CB 
 435      451FA3EA 
 435      63B5912A 
 435      E4A3
 436 157f 7720A304 		.ascii	"w \243\004G\224\027\025\007\007\015+\251L~\033L}\033"
 436      47941715 
 436      07070D2B 
 436      A94C7E1B 
 436      4C7D1B
 437 1592 82BEF9D0 		.ascii	"\202\276\371\3209\301q\341*\251\032\233\2640R7:<\306"
 437      39C171E1 
 437      2AA91A9B 
 437      B4305237 
 437      3A3CC6
 438 15a5 1B820F1F 		.ascii	"\033\202\017\037BT\341\262\261\353\340f/\3245\272\206"
 438      4254E1B2 
 438      B1EBE066 
 438      2FD435BA 
 438      86
 439 15b6 1F1343D3 		.ascii	"\037\023C\323@\020\305\210\030s\211!\376{$g\242\224"
 439      4010C588 
 439      18738921 
 439      FE7B2467 
 439      A294
 440 15c8 602C541D 		.ascii	"`,T\035\233\020\323u\227-Uc\005!\215\205\252\203j\333"
 440      9B10D375 
 440      972D5563 
 440      05218D85 
 440      AA836ADB 
 441 15dc 6F7D5EA8 		.ascii	"o}^\250\032{\2317\032\254\023\306K\350#*\012c\007\033"
 441      1A7B9937 
 441      1AAC13C6 
 441      4BE8232A 
ARM GAS  /var/folders/c6/c789hm653lg9vtl73krp73tm0000gn/T//cccAEIGR.s 			page 35


 441      0A63071B 
 442 15f0 0E57BD73 		.ascii	"\016W\275sh`D\341\210\361\371\241Hm4\\#\210\261\374"
 442      686044E1 
 442      88F1F9A1 
 442      486D345C 
 442      2388B1FC 
 443 1604 C70A0B11 		.ascii	"\307\012\013\021\202>l\226\024\025\303\221\240\212\021"
 443      823E6C96 
 443      1415C391 
 443      A08A11
 444 1613 8E603F94 		.ascii	"\216`?\224\020\344})\261\252C\021Q@'\347\340nd\")$\215"
 444      10E47D29 
 444      B1AA4311 
 444      514027E7 
 444      E06E6422 
 445 162a FF51FA33 		.ascii	"\377Q\3723\202c\037\252\305\222\212\302\030\344XA\211"
 445      82631FAA 
 445      C5928AC2 
 445      18E45841 
 445      89
 446 163b 130773E2 		.ascii	"\023\007s\342O9\361g\234\370\020'\016\341\304\207]\342"
 446      4F39F167 
 446      9CF81027 
 446      0EE1C487 
 446      5DE2
 447 164d A002F41E 		.ascii	"\240\002\364\036\304\325\210\350\343AO4\210\220\263"
 447      C4D588E8 
 447      E3414F34 
 447      8890B3
 448 165c B094E304 		.ascii	"\260\224\343\004\021}Fj\252\004\321\035\252\346E,:_"
 448      117D466A 
 448      AA04D11D 
 448      AAE6452C 
 448      3A5F
 449 166e 8B142E3D 		.ascii	"\213\024.=\315\327\204\307\324!#`?\373\331\340\240\244"
 449      CDD784C7 
 449      D4212360 
 449      3FFBD9E0 
 449      A0A4
 450 1680 792134A3 		.ascii	"y!4\243At@M\2706,eKZ|\312\302}\250\225%\251\306C\337"
 450      4174404D 
 450      B8362C65 
 450      4B5A7CCA 
 450      C27DA895 
 451 1699 C1645992 		.ascii	"\301dY\222(\214\216\201&p\303S\033\033\203\376\251\271"
 451      288C8E81 
 451      2670C353 
 451      1B1B83FE 
 451      A9B9
 452 16ab 337263AD 		.ascii	"3rc\255\345\025\253&\240\177e\013\343\303R\010\001x"
 452      E515AB26 
 452      A07F650B 
 452      E3C35208 
 452      0178
 453 16bd C7499151 		.ascii	"\307I\221Q\277\217z\306I\222\030\315E\266\213\011\265"
 453      BF8F7AC6 
 453      499218CD 
ARM GAS  /var/folders/c6/c789hm653lg9vtl73krp73tm0000gn/T//cccAEIGR.s 			page 36


 453      45B68B09 
 453      B5
 454 16ce 7CB41A89 		.ascii	"|\264\032\211{\257\265\371\004\254\207>\252\225c\301"
 454      7BAFB5F9 
 454      04AC873E 
 454      AA9563C1 
 455 16de 67EA857A 		.ascii	"g\352\205z\304H^\302\360ZW\226\366\351\011\325\2419"
 455      C4485EC2 
 455      F05A5796 
 455      F6E909D5 
 455      A139
 456 16f0 E64111AA 		.ascii	"\346A\021\252NB\303\241\263\243\331\350\330\332zd)\353"
 456      4E42C3A1 
 456      B3A3D9E8 
 456      D8DA7A64 
 456      29EB
 457 1702 416AA5F1 		.ascii	"Aj\245\361\330\276\265\032Vm02\256\016)\021\316Bb\324"
 457      D8BEB51A 
 457      566D3032 
 457      AE0E2911 
 457      CE4262D4 
 458 1716 AAAE334E 		.ascii	"\252\2563NB\307Es\204\261B\235T\313\307\236\306\216"
 458      42C74573 
 458      84B1429D 
 458      54CBC79E 
 458      C68E
 459 1728 3B0E375C 		.ascii	";\0167\\\321`}o\235\235\232p\014q\320\207`\020\367\370"
 459      D1607D6F 
 459      9D9D9A70 
 459      0C71D087 
 459      6010F7F8 
 460 173c A2C1717C 		.ascii	"\242\301q|X\012\327\215AzF:Q\231\205&\352\020\242B\035"
 460      580AD78D 
 460      417A463A 
 460      51998526 
 460      EA10A242 
 461 1751 8A3E63D0 		.ascii	"\212>c\320Qh\010||/\254Y\276\006\374\014uFQ\374\275"
 461      5168087C 
 461      7C2FAC59 
 461      BE06FC0C 
 461      754651FC 
 462 1766 C7927D09 		.ascii	"\307\222}\011\253\250\237\024\256\025\202\265\002\037"
 462      ABA89F14 
 462      AE1582B5 
 462      021F
 463 1774 AB17855A 		.ascii	"\253\027\205Z\001\253!K\224@\035\356QBL\362\214CSLr"
 463      01AB214B 
 463      94401DEE 
 463      51424CF2 
 463      8C43534C 
 464 1789 D7F031C9 		.ascii	"\327\3601\311[\017\335l]\266(\301YR\257P}m}\015/\241"
 464      5B0FDD6C 
 464      5DB628C1 
 464      5952AF50 
 464      7D6D7D0D 
 465 179f D8ABD93C 		.ascii	"\330\253\331<\326O\233d\310\300\202(\324\205p\272R\273"
 465      D64F9B64 
ARM GAS  /var/folders/c6/c789hm653lg9vtl73krp73tm0000gn/T//cccAEIGR.s 			page 37


 465      C8C08228 
 465      D48570BA 
 465      52BB
 466 17b1 B2AA6A79 		.ascii	"\262\252jy\354\017\017\244\212\361@\207\017\036?\036"
 466      EC0F0FA4 
 466      8AF14087 
 466      0F1E3F1E 
 467 17c1 05D65AE4 		.ascii	"\005\326Z\344\014\350\034\304\344\017\310S\220N\363"
 467      0CE81CC4 
 467      E40FC853 
 467      904EF3
 468 17d0 0B478C2C 		.ascii	"\013G\214,\031\211\016V\217\032\215\262\316xl\212~E"
 468      19890E56 
 468      8F1A8DB2 
 468      CE786C8A 
 468      7E45
 469 17e2 23860647 		.ascii	"#\206\006G\"/\343k\203\225h\372\025\011\243\271\302"
 469      222FE36B 
 469      839568FA 
 469      1509A3B9 
 469      C2
 470 17f3 80BBACA8 		.ascii	"\200\273\254\2502\340\252\030\032p\217(\300d\320\320"
 470      32E0AA18 
 470      1A708F28 
 470      C064D0D0 
 471 1803 806B7861 		.ascii	"\200kxa\300\033\203\003\335\341\321!\321\033\216U\207"
 471      C01B8303 
 471      DDE1D121 
 471      D11B8E55 
 471      87
 472 1814 474BBE98 		.ascii	"GK\276\230P3:\\W%\214\367\216E\371!\"\366Kp\021T\217"
 472      50333A5C 
 472      57258CF7 
 472      8E45F921 
 472      22F64B70 
 473 182b 0E4A2EF4 		.ascii	"\016J.\364\005e\234\222r}\004OE\371\257\213\003\236"
 473      05659C92 
 473      727D044F 
 473      45F9AF8B 
 473      039E
 474 183d C2D2270A 		.ascii	"\302\322'\012\003\256\241\201\307\\\205#\212\262\002"
 474      03AEA181 
 474      C75C8523 
 474      8AB202
 475 184c C5232BD0 		.ascii	"\305#+\320\247\007\177\016\002\372\000\320\007\201\016"
 475      A7077F0E 
 475      02FA00D0 
 475      07810E
 476 185b F61655A2 		.ascii	"\366\026U\242\254\031p\027\225\026\227y\212\012+\003"
 476      AC197017 
 476      95169779 
 476      8A0A2B03 
 477 186b A5DEA2C2 		.ascii	"\245\336\242\302\362'\313*]#+\207\272J\020\317#\206"
 477      F227CB2A 
 477      5D232B87 
 477      BA4A10CF 
 477      2386
ARM GAS  /var/folders/c6/c789hm653lg9vtl73krp73tm0000gn/T//cccAEIGR.s 			page 38


 478 187d 8E7CC287 		.ascii	"\216|\302\207\216-\016\374\252\270\250 kx\311\360\362"
 478      8E2D0EFC 
 478      AAB8A820 
 478      6B78C9F0 
 478      F2
 479 188e C2B2CA44 		.ascii	"\302\262\312D\317 7\356q\307\252\302\221\376V\011\026"
 479      CF2037EE 
 479      71C7AAC2 
 479      91FE5609 
 479      16
 480 189f FD3714BD 		.ascii	"\3757\024\275\213\370/d\206dF\364A\242.Ai\267\300\236"
 480      8BF82F64 
 480      866446F4 
 480      41A22E41 
 480      69B7C09E 
 481 18b3 497041A2 		.ascii	"IpA\242&\337<U/!\234_ q\347`\007\001\017\250\217\345"
 481      26DF3C55 
 481      2F219C5F 
 481      2071E760 
 481      07010FA8 
 482 18c9 11ED810F 		.ascii	"\021\355\201\017\015)\030\334\243t0f\365\307*J\312\307"
 482      0D2918DC 
 482      A3743066 
 482      F5C72A4A 
 482      CAC7
 483 18db 3E901F4D 		.ascii	">\220\037M\340kz\037\023E\2013&H\365Q49\261\357\210"
 483      E06B7A1F 
 483      13458133 
 483      2648F551 
 483      3439B1EF 
 484 18f0 DE080EAB 		.ascii	"\336\010\016\253bV$\026\025\204*\321\023\255\217V\211"
 484      62562416 
 484      15842AD1 
 484      13AD8F56 
 484      89
 485 1901 AE4895E8 		.ascii	"\256H\225\350\346G\2135\230T{+\206\026\361\022\357\255"
 485      E6478B35 
 485      98547B2B 
 485      8616F112 
 485      EFAD
 486 1913 18A67E14 		.ascii	"\030\246~\024\252\037E\352G\261\3721\\\375xL\375x\\"
 486      AA1F45EA 
 486      47B1FA31 
 486      5CFD784C 
 486      FD785C
 487 1926 FD28C11F 		.ascii	"\375(\301\037\276\212\241\245j\022\352\207\371\321\023"
 487      BE8AA1A5 
 487      6A12EA87 
 487      F9D113
 488 1935 B09A90EE 		.ascii	"\260\232\220\356\032(F\252\320A\003{\376+\227`Y\362"
 488      1A2846AA 
 488      D041037B 
 488      FE2B9760 
 488      59F2
 489 1947 E0EC16F0 		.ascii	"\340\354\026\360\226W\376\266\2428\220U>\262\242\270"
 489      9657FEB6 
 489      A2389055 
ARM GAS  /var/folders/c6/c789hm653lg9vtl73krp73tm0000gn/T//cccAEIGR.s 			page 39


 489      3EB2A2B8 
 490 1957 B828E0A9 		.ascii	"\270(\340\251x\262\242(\340*A\357\362\242\000\373k\010"
 490      78B2A228 
 490      E02A41EF 
 490      F2A200FB 
 490      6B08
 491 1969 A7837E96 		.ascii	"\247\203~\226\010\247\270\351B\322zB5\250\"b\037w\017"
 491      08A7B8E9 
 491      42D27A42 
 491      35A82262 
 491      1F770F
 492 197c 1B1908B8 		.ascii	"\033\031\010\270K\013\237\010\270\207\016\017\224b\362"
 492      4B0B9F08 
 492      B8870E0F 
 492      9462F2
 493 198b B86B5820 		.ascii	"\270kX \360\277]+[\310"
 493      F0BF5D2B 
 493      5BC8
 494              		.text
 495              		.section	.gnu.lto_.symtab.8331052bef5cc745,"",%progbits
 496 0000 5F5F6561 		.ascii	"__early_init\000\000\000\000\000\000\000\000\000\000"
 496      726C795F 
 496      696E6974 
 496      00000000 
 496      00000000 
 497 0016 0000C000 		.ascii	"\000\000\300\000\000\000sdc_lld_is_card_inserted\000"
 497      00007364 
 497      635F6C6C 
 497      645F6973 
 497      5F636172 
 498 0035 00000000 		.ascii	"\000\000\000\000\000\000\000\000\000\000\000\304\000"
 498      00000000 
 498      000000C4 
 498      00
 499 0042 00007364 		.ascii	"\000\000sdc_lld_is_write_protected\000\000\000\000\000"
 499      635F6C6C 
 499      645F6973 
 499      5F777269 
 499      74655F70 
 500 0063 00000000 		.ascii	"\000\000\000\000\000\000\000j\002\000\000boardInit\000"
 500      0000006A 
 500      02000062 
 500      6F617264 
 500      496E6974 
 501 0078 00000000 		.ascii	"\000\000\000\000\000\000\000\000\000\000\000n\002\000"
 501      00000000 
 501      0000006E 
 501      0200
 502 0086 0070616C 		.ascii	"\000pal_default_config\000\000\000\000\000\000\000\000"
 502      5F646566 
 502      61756C74 
 502      5F636F6E 
 502      66696700 
 503 00a1 00000000 		.ascii	"\000\000\000\000v\002\000\000stm32_clock_init\000\000"
 503      76020000 
 503      73746D33 
 503      325F636C 
ARM GAS  /var/folders/c6/c789hm653lg9vtl73krp73tm0000gn/T//cccAEIGR.s 			page 40


 503      6F636B5F 
 504 00bb 02000000 		.ascii	"\002\000\000\000\000\000\000\000\000\000q\002\000\000"
 504      00000000 
 504      00007102 
 504      0000
 505              		.text
 506              		.section	.gnu.lto_.opts,"",%progbits
 507 0000 272D6D63 		.ascii	"'-mcpu=cortex-m4' '-mno-thumb-interwork' '-mthumb' "
 507      70753D63 
 507      6F727465 
 507      782D6D34 
 507      2720272D 
 508 0033 272D6767 		.ascii	"'-ggdb' '-O2' '-fomit-frame-pointer' '-falign-funct"
 508      64622720 
 508      272D4F32 
 508      2720272D 
 508      666F6D69 
 509 0066 696F6E73 		.ascii	"ions=16' '-ffunction-sections' '-fdata-sections' '-"
 509      3D313627 
 509      20272D66 
 509      66756E63 
 509      74696F6E 
 510 0099 666E6F2D 		.ascii	"fno-common' '-flto'\000"
 510      636F6D6D 
 510      6F6E2720 
 510      272D666C 
 510      746F2700 
 511              		.text
 512              		.cfi_sections	.debug_frame
 513              		.section	.text.__early_init,"ax",%progbits
 514              		.align	2
 515              		.p2align 4,,15
 516              		.global	__early_init
 517              		.thumb
 518              		.thumb_func
 519              		.type	__early_init, %function
 520              	__early_init:
 521              	.LFB260:
 522              		.file 1 "../../../os/hal/boards/OLIMEX_STM32_E407/board.c"
 523              		.loc 1 70 0
 524              		.cfi_startproc
 525              		@ args = 0, pretend = 0, frame = 0
 526              		@ frame_needed = 0, uses_anonymous_args = 0
 527              		@ link register save eliminated.
 528              		.loc 1 72 0
 529 0000 FFF7FEBF 		b	stm32_clock_init
 530              	.LVL0:
 531              		.cfi_endproc
 532              	.LFE260:
 533              		.size	__early_init, .-__early_init
 534 0004 AFF30080 		.section	.text.sdc_lld_is_card_inserted,"ax",%progbits
 534      AFF30080 
 534      AFF30080 
 535              		.align	2
 536              		.p2align 4,,15
 537              		.global	sdc_lld_is_card_inserted
 538              		.thumb
ARM GAS  /var/folders/c6/c789hm653lg9vtl73krp73tm0000gn/T//cccAEIGR.s 			page 41


 539              		.thumb_func
 540              		.type	sdc_lld_is_card_inserted, %function
 541              	sdc_lld_is_card_inserted:
 542              	.LFB261:
 543              		.loc 1 79 0
 544              		.cfi_startproc
 545              		@ args = 0, pretend = 0, frame = 0
 546              		@ frame_needed = 0, uses_anonymous_args = 0
 547              		@ link register save eliminated.
 548              	.LVL1:
 549              		.loc 1 82 0
 550 0000 0379     		ldrb	r3, [r0, #4]	@ zero_extendqisi2
 551 0002 DA1E     		subs	r2, r3, #3
 552 0004 012A     		cmp	r2, #1
 553 0006 09D9     		bls	.L3
 554              		.loc 1 82 0 is_stmt 0 discriminator 1
 555 0008 063B     		subs	r3, r3, #6
 556 000a 012B     		cmp	r3, #1
 557 000c 06D9     		bls	.L3
 558              	.LVL2:
 559              	.LBB4:
 560              	.LBB5:
 561              		.loc 1 84 0 is_stmt 1
 562 000e 054A     		ldr	r2, .L7
 563 0010 054B     		ldr	r3, .L7+4
 564 0012 1069     		ldr	r0, [r2, #16]
 565              	.LVL3:
 566 0014 C0F3C020 		ubfx	r0, r0, #11, #1
 567 0018 1870     		strb	r0, [r3]
 568              	.LBE5:
 569              	.LBE4:
 570              		.loc 1 85 0
 571 001a 7047     		bx	lr
 572              	.LVL4:
 573              	.L3:
 574              		.loc 1 83 0
 575 001c 024B     		ldr	r3, .L7+4
 576 001e 1878     		ldrb	r0, [r3]	@ zero_extendqisi2
 577              	.LVL5:
 578 0020 7047     		bx	lr
 579              	.L8:
 580 0022 00BF     		.align	2
 581              	.L7:
 582 0024 00080240 		.word	1073874944
 583 0028 00000000 		.word	.LANCHOR0
 584              		.cfi_endproc
 585              	.LFE261:
 586              		.size	sdc_lld_is_card_inserted, .-sdc_lld_is_card_inserted
 587 002c AFF30080 		.section	.text.sdc_lld_is_write_protected,"ax",%progbits
 588              		.align	2
 589              		.p2align 4,,15
 590              		.global	sdc_lld_is_write_protected
 591              		.thumb
 592              		.thumb_func
 593              		.type	sdc_lld_is_write_protected, %function
 594              	sdc_lld_is_write_protected:
 595              	.LFB262:
ARM GAS  /var/folders/c6/c789hm653lg9vtl73krp73tm0000gn/T//cccAEIGR.s 			page 42


 596              		.loc 1 90 0
 597              		.cfi_startproc
 598              		@ args = 0, pretend = 0, frame = 0
 599              		@ frame_needed = 0, uses_anonymous_args = 0
 600              		@ link register save eliminated.
 601              	.LVL6:
 602              		.loc 1 94 0
 603 0000 0020     		movs	r0, #0
 604              	.LVL7:
 605 0002 7047     		bx	lr
 606              		.cfi_endproc
 607              	.LFE262:
 608              		.size	sdc_lld_is_write_protected, .-sdc_lld_is_write_protected
 609 0004 AFF30080 		.section	.text.boardInit,"ax",%progbits
 609      AFF30080 
 609      AFF30080 
 610              		.align	2
 611              		.p2align 4,,15
 612              		.global	boardInit
 613              		.thumb
 614              		.thumb_func
 615              		.type	boardInit, %function
 616              	boardInit:
 617              	.LFB263:
 618              		.loc 1 123 0
 619              		.cfi_startproc
 620              		@ args = 0, pretend = 0, frame = 0
 621              		@ frame_needed = 0, uses_anonymous_args = 0
 622              		@ link register save eliminated.
 623 0000 7047     		bx	lr
 624              		.cfi_endproc
 625              	.LFE263:
 626              		.size	boardInit, .-boardInit
 627              		.global	pal_default_config
 628 0002 00BFAFF3 		.section	.bss.last_status.7804,"aw",%nobits
 628      0080AFF3 
 628      0080AFF3 
 628      0080
 629              		.set	.LANCHOR0,. + 0
 630              		.type	last_status.7804, %object
 631              		.size	last_status.7804, 1
 632              	last_status.7804:
 633 0000 00       		.space	1
 634              		.section	.rodata.pal_default_config,"a",%progbits
 635              		.align	2
 636              		.type	pal_default_config, %object
 637              		.size	pal_default_config, 252
 638              	pal_default_config:
 639 0000 2880A1AA 		.word	-1432256472
 640 0004 00000000 		.word	0
 641 0008 FFFFFFFF 		.word	-1
 642 000c 00150820 		.word	537400576
 643 0010 FFFE0000 		.word	65279
 644 0014 B00B00B0 		.word	-1342174288
 645 0018 00AA0A00 		.word	698880
 646 001c 81022AA2 		.word	-1574305151
 647 0020 00030000 		.word	768
ARM GAS  /var/folders/c6/c789hm653lg9vtl73krp73tm0000gn/T//cccAEIGR.s 			page 43


 648 0024 FFFFFFFF 		.word	-1
 649 0028 00544008 		.word	138433536
 650 002c FEFF0000 		.word	65534
 651 0030 00000000 		.word	0
 652 0034 44050CCC 		.word	-871627452
 653 0038 A8AAAA06 		.word	111848104
 654 003c 00000000 		.word	0
 655 0040 FFFFFFFF 		.word	-1
 656 0044 01000000 		.word	1
 657 0048 FFFF0000 		.word	65535
 658 004c B055BB88 		.word	-2000988752
 659 0050 CCCC0C00 		.word	838860
 660 0054 20000000 		.word	32
 661 0058 00000000 		.word	0
 662 005c FFFFFFFF 		.word	-1
 663 0060 45555555 		.word	1431655749
 664 0064 FFFF0000 		.word	65535
 665 0068 000C0000 		.word	3072
 666 006c 00000000 		.word	0
 667 0070 00000000 		.word	0
 668 0074 00000000 		.word	0
 669 0078 FFFFFFFF 		.word	-1
 670 007c 55555555 		.word	1431655765
 671 0080 FFFF0000 		.word	65535
 672 0084 00000000 		.word	0
 673 0088 00000000 		.word	0
 674 008c 00000000 		.word	0
 675 0090 00000000 		.word	0
 676 0094 FFFFFFFF 		.word	-1
 677 0098 55551555 		.word	1427461461
 678 009c FFFF0000 		.word	65535
 679 00a0 00000000 		.word	0
 680 00a4 00000000 		.word	0
 681 00a8 00009028 		.word	680525824
 682 00ac 00000000 		.word	0
 683 00b0 FFFFFFFF 		.word	-1
 684 00b4 55550541 		.word	1090868565
 685 00b8 FFFF0000 		.word	65535
 686 00bc 00000000 		.word	0
 687 00c0 00B0B00B 		.word	196128768
 688 00c4 00000000 		.word	0
 689 00c8 00000000 		.word	0
 690 00cc FFFFFFFF 		.word	-1
 691 00d0 50555555 		.word	1431655760
 692 00d4 FFFF0000 		.word	65535
 693 00d8 00000000 		.word	0
 694 00dc 00000000 		.word	0
 695 00e0 00000000 		.word	0
 696 00e4 00000000 		.word	0
 697 00e8 FFFFFFFF 		.word	-1
 698 00ec 55555555 		.word	1431655765
 699 00f0 FFFF0000 		.word	65535
 700 00f4 00000000 		.word	0
 701 00f8 00000000 		.word	0
 702              		.text
 703              	.Letext0:
 704              		.file 2 "/usr/local/Cellar/gcc-arm-none-eabi/20140805/lib/gcc/arm-none-eabi/4.8.4/include/stddef.h
ARM GAS  /var/folders/c6/c789hm653lg9vtl73krp73tm0000gn/T//cccAEIGR.s 			page 44


 705              		.file 3 "/usr/local/Cellar/gcc-arm-none-eabi/20140805/arm-none-eabi/include/machine/_default_types
 706              		.file 4 "/usr/local/Cellar/gcc-arm-none-eabi/20140805/arm-none-eabi/include/stdint.h"
 707              		.file 5 "../../../os/rt/ports/ARMCMx/compilers/GCC/chtypes.h"
 708              		.file 6 "../../../os/rt/include/chsystypes.h"
 709              		.file 7 "../../../os/rt/include/chschd.h"
 710              		.file 8 "../../../os/ext/CMSIS/ST/stm32f407xx.h"
 711              		.file 9 "../../../os/rt/ports/ARMCMx/chcore.h"
 712              		.file 10 "../../../os/rt/ports/ARMCMx/chcore_v7m.h"
 713              		.file 11 "../../../os/rt/include/chdebug.h"
 714              		.file 12 "../../../os/rt/include/chtm.h"
 715              		.file 13 "../../../os/rt/include/chstats.h"
 716              		.file 14 "../../../os/rt/include/chsem.h"
 717              		.file 15 "../../../os/rt/include/chmtx.h"
 718              		.file 16 "../../../os/hal/ports/STM32/STM32F4xx/stm32_dma.h"
 719              		.file 17 "../../../os/hal/include/hal_ioblock.h"
 720              		.file 18 "../../../os/hal/ports/STM32/LLD/GPIOv2/pal_lld.h"
 721              		.file 19 "../../../os/hal/include/sdc.h"
 722              		.file 20 "../../../os/hal/ports/STM32/LLD/sdc_lld.h"
 723              		.file 21 "../../../os/ext/CMSIS/include/core_cm4.h"
 724              		.file 22 "../../../os/hal/ports/STM32/STM32F4xx/hal_lld.h"