ARM GAS  /var/folders/c6/c789hm653lg9vtl73krp73tm0000gn/T//ccUvcYCi.s 			page 1


   1              		.syntax unified
   2              		.cpu cortex-m4
   3              		.fpu softvfp
   4              		.eabi_attribute 20, 1
   5              		.eabi_attribute 21, 1
   6              		.eabi_attribute 23, 3
   7              		.eabi_attribute 24, 1
   8              		.eabi_attribute 25, 1
   9              		.eabi_attribute 26, 1
  10              		.eabi_attribute 30, 2
  11              		.eabi_attribute 34, 1
  12              		.eabi_attribute 18, 4
  13              		.thumb
  14              		.file	"chcore_v7m.c"
  15              		.text
  16              	.Ltext0:
  17              		.section	.gnu.lto_.jmpfuncs.200b5c56cd906cc5,"",%progbits
  18 0000 789C6362 		.ascii	"x\234cb`b\300\006\270\24043\030\263\000I\000\001\302"
  18      6062C006 
  18      B8A03433 
  18      18B30049 
  18      0001C2
  19 0013 0019     		.ascii	"\000\031"
  20              		.text
  21              		.section	.gnu.lto_.inline.200b5c56cd906cc5,"",%progbits
  22 0000 789C6362 		.ascii	"x\234cb`b\300\006\334\24043\003\003\277\030#\003\223"
  22      6062C006 
  22      DCA03433 
  22      0303BF18 
  22      230393
  23 0013 C8851E46 		.ascii	"\310\205\036F\006\266\005\362`\325L\334`\031N\016\240"
  23      06B605F2 
  23      60D54CDC 
  23      60194E0E 
  23      A0
  24 0024 04CF8358 		.ascii	"\004\317\203X\2708\013\003\0277HhN$\\\210\221\013D\002"
  24      B8380B03 
  24      17374868 
  24      4E245C88 
  24      910B4402 
  25 0038 000FB806 		.ascii	"\000\017\270\006\321"
  25      D1
  26              		.text
  27              		.section	.gnu.lto_.pureconst.200b5c56cd906cc5,"",%progbits
  28 0000 789C6362 		.ascii	"x\234cb`b`g\200\000f\006+f+\026+\000\002\367\000\304"
  28      60626067 
  28      80006606 
  28      2B662B16 
  28      2B0002F7 
  29              		.text
  30              		.section	.gnu.lto__port_irq_epilogue.part.0.200b5c56cd906cc5,"",%progbits
  31 0000 789CAD52 		.ascii	"x\234\255RMHTQ\024>\347\276\037ur*Z\004B\310 \204E2"
  31      4D485451 
  31      143EE7BE 
  31      1F75722A 
  31      5A0442C8 
  32 0018 2F297015 		.ascii	"/)p\025\024F\320b(\034\205Z\325\370\232\364\221:\303"
ARM GAS  /var/folders/c6/c789hm653lg9vtl73krp73tm0000gn/T//ccUvcYCi.s 			page 2


  32      1446D062 
  32      281C855A 
  32      D5F89AF4 
  32      913AC3
  33 002b CC185690 		.ascii	"\314\030V\220w~ 1B\031\024R+\034\350\307l!\021\204\320"
  33      777E2031 
  33      42191452 
  33      2B1CE8C7 
  33      6C211184 
  34 0040 662AA444 		.ascii	"f*\244D4ZEH4\273\010#\224hc?\323\271\367\315\033\307"
  34      345A4548 
  34      34BB0823 
  34      9468633F 
  34      D3B9F7CD 
  35 0056 0874D1E1 		.ascii	"\010t\321\341\315=o\3569\337\367\335\373\235\307\200"
  35      CD3D6FEE 
  35      39DFF7DD 
  35      FB9DC780 
  36 0066 C1DF7194 		.ascii	"\301\337q\224~\255*@\2062\226\001\352\203\013\364\242"
  36      7EAD2A40 
  36      86329601 
  36      EA830BF4 
  36      A2
  37 0077 23939931 		.ascii	"#\223\2311\245\257\026\270K\025k\245\202\232\330\215"
  37      A5AF16B8 
  37      4B156BA5 
  37      829AD88D 
  38 0087 97ABCE8B 		.ascii	"\227\253\316\213\206(^\000\241Wg\212\252a\357i\024\254"
  38      86285E00 
  38      A157678A 
  38      AA61EF69 
  38      14AC
  39 0099 6A0D6438 		.ascii	"j\015d8O\347f\236.\261\021\236Me\370\317|\036\321B:"
  39      4FE7669E 
  39      2EB1119E 
  39      4D65F8CF 
  39      7C1ED142 
  40 00ae 81816022 		.ascii	"\201\201`\"\234\242?\350\221\211\251\353\217$\261\243"
  40      9CA23FE8 
  40      9189A9EB 
  40      8F24B1A3 
  41 00be B90F9F07 		.ascii	"\271\017\237\007\364\221\241lj\274\210\205\315\000\323"
  41      F491A16C 
  41      6ABC8885 
  41      CD00D3
  42 00cd D95FAF6E 		.ascii	"\331_\257nU\361\361\304 \377M8\013\025\006g7%\231\316"
  42      55F1F1C4 
  42      20FF4D38 
  42      0B150667 
  42      372599CE 
  43 00e1 BEEB1FA8 		.ascii	"\276\353\037\250\352_C\252\014\202\033!\247\030\317"
  43      EA5F43AA 
  43      0C821B21 
  43      A718CF
  44 00f0 E5F3EF9F 		.ascii	"\345\363\357\237TT\"\0040\2035t\303\000\336\245\254"
  44      54542204 
  44      30833574 
ARM GAS  /var/folders/c6/c789hm653lg9vtl73krp73tm0000gn/T//ccUvcYCi.s 			page 3


  44      C300DEA5 
  44      AC
  45 0101 14B24AF9 		.ascii	"\024\262J\371>e\015,\324\010\241A\212\363A\217\274\014"
  45      3E650D2C 
  45      D408A141 
  45      8AF3418F 
  45      BC0C
  46 0113 4533ADC2 		.ascii	"E3\255\302\303f\324EVZ\220\311\274\000\361\225\027\213"
  46      C366D445 
  46      565A90C9 
  46      BC00F195 
  46      178B
  47 0125 EE42B74D 		.ascii	"\356B\267M\355\200\263\317\276M\354\324\212T\266\016"
  47      ED80B3CF 
  47      BE4DECD4 
  47      8A54B60E 
  48 0135 90CE8454 		.ascii	"\220\316\204T fIMc\201\016E\014]\261'_\015\227o\363"
  48      2066494D 
  48      63810E45 
  48      0C5DB127 
  48      5F0D976F 
  49 014a 9B872D92 		.ascii	"\233\207-\222\242h+t\315Bb\231\224\002\370\220\320\266"
  49      A2682B74 
  49      CD426299 
  49      9402F890 
  49      D0B6
  50 015c 902CCD43 		.ascii	"\220,\315Cb\351%)\035\014\340#\252\264!\223\333\263"
  50      62E92529 
  50      1D0CE023 
  50      AAB42193 
  50      DBB3
  51 016e C0EC0D5B 		.ascii	"\300\354\015[\226\266Ek\362zri\250\312\351ThW\272E\336"
  51      96B6456B 
  51      F27A7269 
  51      A8CAE954 
  51      6857BA45 
  52 0183 E4B7C13F 		.ascii	"\344\267\301?@\212\344\237\236~\360\274P\330\007\223"
  52      408AE49F 
  52      9E7EF0BC 
  52      50D80793 
  53 0193 9CE28085 		.ascii	"\234\342\200\205ec0\032\347|\273\205\345\005\032\305"
  53      6563301A 
  53      E77CBB85 
  53      E5051AC5 
  54 01a3 A18156FB 		.ascii	"\241\201V\373\310r\024\025\324^\016\222\347krj\270\332"
  54      C8721415 
  54      D45E0E92 
  54      E76B726A 
  54      B8DA
  55 01b5 1157257B 		.ascii	"\021W%{Q\2610\333\357\327\346\220\247y|\231\230\344"
  55      51B130DB 
  55      EFD7E690 
  55      A7797C99 
  55      98E4
  56 01c7 777875A3 		.ascii	"wxu\243\321\022\023\300\002$V\322\037\335\305\2419\003"
  56      D11213C0 
  56      022456D2 
ARM GAS  /var/folders/c6/c789hm653lg9vtl73krp73tm0000gn/T//ccUvcYCi.s 			page 4


  56      1FDDC5A1 
  56      3903
  57 01d9 589CDC85 		.ascii	"X\234\334\205\001|\\\360]\350\230\310l\317\021n\340"
  57      017C5CF0 
  57      5DE898C8 
  57      6CCF116E 
  57      E0
  58 01ea 7AD7C7D0 		.ascii	"z\327\307\320\266\335U\244]\253\335\301\222\221\000"
  58      B6DD55A4 
  58      5DABDDC1 
  58      929100
  59 01f9 BC81646E 		.ascii	"\274\201dnjf\207s\027\355\012\254\362>\341\305\026S"
  59      6A668773 
  59      17ED0AAC 
  59      F23EE1C5 
  59      1653
  60 020b DC8AC2C2 		.ascii	"\334\212\302\302J\200\327\220\372\022\257/v\211\343"
  60      4A80D790 
  60      FA12AF2F 
  60      7689E3
  61 021a 6BA5676F 		.ascii	"k\245go\241\346\276Z\205\254YM~\032\336\263\316\342"
  61      A1E6BE5A 
  61      85AC594D 
  61      7E1ADEB3 
  61      CEE2
  62 022c 868D2CB6 		.ascii	"\206\215,\266=\266\225\371%\013\335&\252%\314j\221\371"
  62      3DB695F9 
  62      250BDD26 
  62      AA25CC6A 
  62      91F9
  63 023e C77F60D6 		.ascii	"\307\177`\326J\2305\371\345\277\205xn\356\036\332\314"
  63      4A9835F9 
  63      E5BF8578 
  63      6EEE1EDA 
  63      CC
  64 024f 4E341396 		.ascii	"N4\023\226\212\302\264:\257\327\260\237P\324\010\366"
  64      8AC2B43A 
  64      AFD7B09F 
  64      50D408F6 
  65 025f C48C469F 		.ascii	"\304\214F\237\377\270\337\260\272\314\216\356sA\303"
  65      FFB8DFB0 
  65      BACC8EEE 
  65      7341C3
  66 026e 0C458267 		.ascii	"\014E\202g\314\316c\335]\246\267\035\364H0\332\335\021"
  66      CCCE63DD 
  66      5DA6B71D 
  66      F44830DA 
  66      DD11
  67 0280 DB5B8A89 		.ascii	"\333[\212\211\304\214p(\022\213\032G\232|\215\276\036"
  67      C48C7028 
  67      128B1A47 
  67      9A7C8DBE 
  67      1E
  68 0291 C36C9798 		.ascii	"\303l\227\230\213\015\235^\023T3\326\023\326\305\342"
  68      8B0D9D5E 
  68      135433D6 
  68      13D6C5E2 
ARM GAS  /var/folders/c6/c789hm653lg9vtl73krp73tm0000gn/T//ccUvcYCi.s 			page 5


  69 02a1 AD77FB9A 		.ascii	"\255w\373\232\374\236\335\373\353<\341h\330\005\312"
  69      FC9EDDFB 
  69      EB3CE168 
  69      D805CA
  70 02b0 A1086C8D 		.ascii	"\241\010l\215\205\302'\316\237\214\204L\177,`^p\373"
  70      85C227CE 
  70      9F8C844C 
  70      7F2C605E 
  70      70FB
  71 02c2 FC4DA258 		.ascii	"\374M\242XG].`\021P\242a\370\003\215%BG"
  71      475D2E60 
  71      1150A261 
  71      F8038D25 
  71      4247
  72              		.text
  73              		.section	.gnu.lto_SVC_Handler.200b5c56cd906cc5,"",%progbits
  74 0000 789C8D52 		.ascii	"x\234\215RMh\023Q\020\236y\273\333\204h\375\271Y\220"
  74      4D681351 
  74      109E79BB 
  74      DB8468FD 
  74      B95990
  75 0013 1A2A8242 		.ascii	"\032*\202B\314\026<x\022\224\202\340!(M\005=I\\\327"
  75      CC163C78 
  75      129482E0 
  75      21284D05 
  75      3D495CD7 
  76 0027 369834CB 		.ascii	"6\2304\313fS\252\007\373\362s\020R!-\365\247H\245E\304"
  76      6653AA07 
  76      FBF27310 
  76      52212DF5 
  76      A748A545 
  77 003c 42516F45 		.ascii	"BQoE\020$\"\250\305\266\242\340AzI)\"*\210\321K\017"
  77      102422A8 
  77      C5B6A2E0 
  77      417A4929 
  77      222A88D1 
  78 0052 D5F5FD24 		.ascii	"\325\365\375$\233\266\210\355\260ogwf\276\357\315|\357"
  78      9BB688ED 
  78      B06F6777 
  78      66BEEFCD 
  78      7CEF
  79 0064 1120B0DE 		.ascii	"\021 \260\336Z\330\232T\000\2762\217\012 )\315\003d"
  79      5AD89A54 
  79      00BE328F 
  79      0A2029CD 
  79      0364
  80 0076 FD04917F 		.ascii	"\375\004\221\177\000\302\000\301\201\263\310K\2256\230"
  80      00C200C1 
  80      81B3C84B 
  80      953698
  81 0085 A074B8F2 		.ascii	"\240t\270\362\351s\005GG\312\205q\272\342\272\210qd"
  81      E9730547 
  81      47CA8571 
  81      BAE2BA88 
  81      7164
  82 0097 B4210403 		.ascii	"\264!\004\003\341\014\373\301\240pD]\273\217\304\226"
  82      E10CFBC1 
ARM GAS  /var/folders/c6/c789hm653lg9vtl73krp73tm0000gn/T//ccUvcYCi.s 			page 6


  82      A070445D 
  82      BB8FC496 
  83 00a7 875EDE6A 		.ascii	"\207^\336j\241\343\271\022\375\303\240qT\010\034\332"
  83      A1E3B912 
  83      FDC3A071 
  83      54081CDA 
  84 00b7 1CB252FD 		.ascii	"\034\262R\3752}p\224\226\013\023\365]U\002\346F\330"
  84      327D7094 
  84      960B13F5 
  84      5D5502E6 
  84      46D8
  85 00c9 C7A45C71 		.ascii	"\307\244\\q\335G+\213\213S\2703\240@\014\357a\033\250"
  85      DD472B8B 
  85      8B53B833 
  85      A0400CEF 
  85      611BA8
  86 00dc 35AF313F 		.ascii	"5\2571?\301\274\237\371\373\3143\323\240@i)(\363\300"
  86      C1BC9FF9 
  86      FBCC33D3 
  86      A0406929 
  86      28F3C0
  87 00ef D99975B1 		.ascii	"\331\231u\2617W\3434\022\356\225y\310V\227\237,\240"
  87      3757E334 
  87      12EE9579 
  87      C856979F 
  87      2CA0
  88 0101 572CC1F2 		.ascii	"W,\301\362\267\\\234\035\332\002\214\361\001\313\033"
  88      B75C9C1D 
  88      DA028CF1 
  88      01CB1B
  89 0110 2808988C 		.ascii	"(\010\230\214\220P\270\372\212<\202V\2702Fo\037\215"
  89      9050B8FA 
  89      8A3C8256 
  89      B832466F 
  89      1F8D
  90 0122 B31266DD 		.ascii	"\263\022f\335\350\027U3\220\373\301yc8\211Z\255'\221"
  90      E8175533 
  90      90FBC179 
  90      6338895A 
  90      AD2791
  91 0135 9B83DCB7 		.ascii	"\233\203\334\267\027\305\331\254\"Y\273Q\021\341\031"
  91      17C5D9AC 
  91      2259BB51 
  91      11E119
  92 0144 203220DB 		.ascii	" 2 \333ea^\232/\346\177\015\372\352\225*\213\012e\202"
  92      65615E9A 
  92      2FE67F0D 
  92      FAEA952A 
  92      8B0A6582 
  93 0158 F00F802A 		.ascii	"\360\017\200*\270\277\347\335\301\335u\200&\242^e\355"
  93      B8BFE7DD 
  93      C1DD7580 
  93      26A25E65 
  93      ED
  94 0169 DC7E7FDC 		.ascii	"\334~\177\334Z\312^\243\256; \204\277\272\221\360\335"
  94      5ACA5EA3 
  94      AE3B2084 
ARM GAS  /var/folders/c6/c789hm653lg9vtl73krp73tm0000gn/T//ccUvcYCi.s 			page 7


  94      BFBA91F0 
  94      DD
  95 017a 7CB279C8 		.ascii	"|\262y\310U\227\177z:y\012\275y\373\234M\362P\210V\327"
  95      55977F7A 
  95      3A790ABD 
  95      79FB9C4D 
  95      F2508856 
  96 018f 89489910 		.ascii	"\211H\231\020\256\343Z\241\356\240T\252\311\243m\344"
  96      AEE35AA1 
  96      EEA054AA 
  96      C9A36DE4 
  97 019f EEE22A15 		.ascii	"\356\342*\025\205~~\357\276\334(\316\275\302\341<}M"
  97      857E7EEF 
  97      BEDC28CE 
  97      BDC2E13C 
  97      7D4D
  98 01b1 0B657661 		.ascii	"\013eva\366\210\276gq\243\306yL\204D\363#K\273\3267"
  98      F688BE67 
  98      71A3C679 
  98      4C8444F3 
  98      234BBBD6 
  99 01c6 3F75736C 		.ascii	"?usl\373\376\030N\257:r\372\364Yk\343\370?T\265\306"
  99      FBFE184E 
  99      AF3A72FA 
  99      F4596BE3 
  99      F83F54B5 
 100 01db 580A5B2A 		.ascii	"X\012[*[Z}\274\367\377\033\317\333\274\221_\252\345"
 100      5B5A7DBC 
 100      F7FF1BCF 
 100      DBBC915F 
 100      AAE5
 101 01ed 7DB2BD77 		.ascii	"}\262\275w\220\255L\355\225\354u\353bC\261k\311\001"
 101      90AD4CED 
 101      95EC75EB 
 101      6243B16B 
 101      C901
 102 01ff 07C2615D 		.ascii	"\007\302a]>\251\264n;\272\225\262\235\264~\2543\322"
 102      3EA9B46E 
 102      3BBA95B2 
 102      9DB47EAC 
 102      33D2
 103 0211 11E9D78D 		.ascii	"\021\351\327\215\036#e\233\347\372\016'\303\0064\031"
 103      1E23659B 
 103      E7FA0E27 
 103      C3063419 
 104 0221 4EBF156E 		.ascii	"N\277\025nW\271\013\255F\231\375\216\336\021\211\236"
 104      57B90BAD 
 104      4699FD8E 
 104      DE11899E 
 105 0231 88EAF15E 		.ascii	"\210\352\361^#\221\271`\352\002e$\217gz\215p\0174\331"
 105      2391B960 
 105      EA026524 
 105      8F677A8D 
 105      700F34D9 
 106 0245 663A9370 		.ascii	"f:\223p\232#\235\321\340\276\366P\320J[\001P\216\330"
 106      9A239DD1 
 106      E0BEF650 
ARM GAS  /var/folders/c6/c789hm653lg9vtl73krp73tm0000gn/T//ccUvcYCi.s 			page 8


 106      D04A5B01 
 106      508ED8
 107 0258 B0CD4959 		.ascii	"\260\315IY'/\236\262SF\324\211\031\227\232#\321N\236"
 107      272F9EB2 
 107      5346D489 
 107      19979A23 
 107      D14E9E
 108 026b 0CB1AA00 		.ascii	"\014\261\252\000\020\033\224\264\265\351\376z@\353\213"
 108      101B94B4 
 108      B5E9FE7A 
 108      40EB8B
 109 027a 2532E60E 		.ascii	"%2\346\016Nr>\2266-;\316\211\300\2274\223)\3732\374"
 109      4E723E96 
 109      362D3BCE 
 109      89C09734 
 109      9329FB32 
 110 028f 05CDFB1E 		.ascii	"\005\315\373\036\212"
 110      8A
 111              		.text
 112              		.section	.gnu.lto__port_irq_epilogue.200b5c56cd906cc5,"",%progbits
 113 0000 789C8D52 		.ascii	"x\234\215RMh\023A\024~of\267]k\225\\,\010\022B\301\203"
 113      4D681341 
 113      147E6F66 
 113      B75D6B95 
 113      5C2C0812 
 114 0017 18B2DE72 		.ascii	"\030\262\336r\360\242\024\004\017\2714\255\350I\266"
 114      F0A21404 
 114      0FB934AD 
 114      E849B6
 115 0026 EB62179A 		.ascii	"\353b\027\232&l\222\022\361\320\311\317A\321C\360\344"
 115      266C9212 
 115      F1D0C9CF 
 115      41D143F0 
 115      E4
 116 0037 5FB1557A 		.ascii	"_\261Uzh)*^T\032%\350\241Ji\245\320\203\364\224\223"
 116      68292A5E 
 116      541A25E8 
 116      A14A69A5 
 116      D083F494 
 117 004c A0144AD5 		.ascii	"\240\024J\325\213E\033\337\3546\3536\210\365\2613ov"
 117      8B451BDF 
 117      EC36EB36 
 117      88F5B133 
 117      6F76
 118 005e DE7BDFFB 		.ascii	"\336{\337\373\371\206\001\203v9I\353\020\007\230!\215"
 118      F9860183 
 118      763949EB 
 118      10079821 
 118      8D
 119 006f 1D80ACBA 		.ascii	"\035\200\254\272\014P\324\030\343\253= \272\224Z\034"
 119      0C50D418 
 119      E3AB3D20 
 119      BA945A1C 
 120 007f 44374755 		.ascii	"D7GU^\243\342\351\242\246\"\312\003 \2143\256\2508~"
 120      5EA3E2E9 
 120      A2A622CA 
 120      03208C33 
ARM GAS  /var/folders/c6/c789hm653lg9vtl73krp73tm0000gn/T//ccUvcYCi.s 			page 9


 120      AEA8387E 
 121 0093 015DB427 		.ascii	"\001]\264'\254\336h6\037\177_x\260\216s\254\233\203"
 121      ACDE6836 
 121      1F7F5F78 
 121      B08E73AC 
 121      9B83
 122 00a5 8DA0C88D 		.ascii	"\215\240\310\215D\205\212\020\325\010\200\351\376\016"
 122      44858A10 
 122      D50880E9 
 122      FE0E
 123 00b3 D02E3106 		.ascii	"\320.1\006\221I\315\337CI\003\350\205)!n5^n>\217\336"
 123      9149CDDF 
 123      434903E8 
 123      8529216E 
 123      355E6E3E 
 124 00c9 11F5CAA4 		.ascii	"\021\365\312\244\370\331l\"\332HN\347PF\236\247\037"
 124      F8D96C22 
 124      DA484EE7 
 124      50469EA7 
 124      1F
 125 00da 16711557 		.ascii	"\026q\025Wv\267\"\357\220\360a\031J\233\265\267\317"
 125      76B722EF 
 125      90F06119 
 125      4A9BB5B7 
 125      CF
 126 00eb 6E723FA5 		.ascii	"nr?\245w\250\177\333\332\0101\003\037b\257_\217\330"
 126      77A87FDB 
 126      DA083103 
 126      1F62AF5F 
 126      8FD8
 127 00fd 7875C4B7 		.ascii	"xu\304\267\337\330^Q\001\014\234B\225r\311|\214\026"
 127      DFD85E51 
 127      010C9C42 
 127      9572C97C 
 127      8C16
 128 010f 07B75384 		.ascii	"\007\267S\204\353t\244\011ro\214a\270\213\023\342\366"
 128      EB74A409 
 128      726F8C61 
 128      B88B13E2 
 128      F6
 129 0120 291B955D 		.ascii	")\033\225]\331\377\330'v\354\252W\337\022\274Y{\321"
 129      D9FFD827 
 129      76ECAA57 
 129      DF12BC59 
 129      7BD1
 130 0132 FC881EFE 		.ascii	"\374\210\036\376e\344\307aVT(\254\343\036A\331\330)"
 130      65E4C761 
 130      565428AC 
 130      E31E41D9 
 130      D829
 131 0144 2134B156 		.ascii	"!4\261V\026\007]4\315\215\032\302V\177KP\236/\317\372"
 131      16075D34 
 131      CD8D1AC2 
 131      567F4B50 
 131      9E2FCFFA 
 132 0158 E10A2148 		.ascii	"\341\012!H7\020!2\276\203\312z\361\200os\015A\031\244"
 132      37102132 
ARM GAS  /var/folders/c6/c789hm653lg9vtl73krp73tm0000gn/T//ccUvcYCi.s 			page 10


 132      BE83CA7A 
 132      F1806F73 
 132      0D4119A4 
 133 016c DA577BF8 		.ascii	"\332W{\370\007(k\236\023\300U\330\022\327D\310\306}"
 133      07286B9E 
 133      13C055D8 
 133      12D744C8 
 133      C67D
 134 017e A6D70211 		.ascii	"\246\327\002\021\325\325\362V\240\026o\343\344s\255"
 134      D5D5F256 
 134      A0166FE3 
 134      E473AD
 135 018d 8D13031F 		.ascii	"\215\023\003\037\271\003\332\223\024\370')_~HR\236\006"
 135      B903DA93 
 135      14F82729 
 135      5F7E4852 
 135      9E06
 136 019f 49997F1D 		.ascii	"I\231\177\035\366\355\213\237\276\006H\221\253\343/"
 136      F6ED8B9F 
 136      BE064891 
 136      ABE32F
 137 01ae A4183843 		.ascii	"\244\0308C\007?[\213\004\003\3470\034\234\202\352>\266"
 137      073F5B8B 
 137      0403E730 
 137      1C9C82EA 
 137      3EB6
 138 01c0 15283616 		.ascii	"\025(6\026\247q\247\024\257\301\372\257\205\373\207"
 138      A771A714 
 138      AFC1FAAF 
 138      85FB87
 139 01cf C564A92A 		.ascii	"\305d\251*\266\251?\033\3673\230\306\275\336\\\253\260"
 139      B6A93F1B 
 139      F73398C6 
 139      BDDE5CAB 
 139      B0
 140 01e0 800C5010 		.ascii	"\200\014P\020\345\220\351\217\305b\272\367\245\263\272"
 140      E590E98F 
 140      C562BAF7 
 140      A5B3BA
 141 01ef 93D33369 		.ascii	"\223\3233i'\227\325O\367'\372\022\005\335\0346\323\216"
 141      2797D54F 
 141      F727FA12 
 141      05DD1C36 
 141      D38E
 142 0201 75712C9E 		.ascii	"uq,\236\212\231\377\3559\014\352\2301\222\267\242A\177"
 142      8A99FFED 
 142      390CEA98 
 142      3192B7A2 
 142      417F
 143 0213 AB90D3FB 		.ascii	"\253\220\323\373\022\311\263I\335\0365G\362\227,\335"
 143      12C9B349 
 143      DD1E3547 
 143      F2972CDD 
 144 0223 F5375367 		.ascii	"\3657Sg\362\243&\205\204\022\311\376\310\220\221\265"
 144      F2A32685 
 144      8412C9FE 
 144      C89091B5 
ARM GAS  /var/folders/c6/c789hm653lg9vtl73krp73tm0000gn/T//ccUvcYCi.s 			page 11


 145 0233 328E1D8D 		.ascii	"2\216\035\215\034=\001\314\201\316\224\225J;W@1s\205"
 145      1C3D01CC 
 145      81CE9495 
 145      4A3B5740 
 145      317385
 146 0246 CC6FE89B 		.ascii	"\314o\350\233\356e"
 146      EE65
 147              		.text
 148              		.section	.gnu.lto_.symbol_nodes.200b5c56cd906cc5,"",%progbits
 149 0000 789C45CA 		.ascii	"x\234E\312\271\015\2000\024\004\321\335o\273\0162j\243"
 149      B90D8030 
 149      1404D1DD 
 149      6FBB0E32 
 149      6AA3
 150 0012 8B350972 		.ascii	"\2135\011rH\003& \243\016r\272\340\222\0205\020`\301"
 150      48032620 
 150      A30E72BA 
 150      E0921035 
 150      1060C1
 151 0025 644F1A83 		.ascii	"dO\032\203\241A\311n\012\350\027@\312\211<(\276\214"
 151      A141C96E 
 151      0AE81740 
 151      CA893C28 
 151      BE8C
 152 0037 2D7952F6 		.ascii	"-yR\366\311V\312\225uH\264\215\362?\271S\241\274\221"
 152      C956CA95 
 152      7548B48D 
 152      F23FB953 
 152      A1BC91
 153 004a 0E017377 		.ascii	"\016\001swU\316\003\343T\343\001\310\242\037\356"
 153      55CE03E3 
 153      54E301C8 
 153      A21FEE
 154              		.text
 155              		.section	.gnu.lto_.refs.200b5c56cd906cc5,"",%progbits
 156 0000 789C6362 		.ascii	"x\234cb`b`g\200\000&\006&F&&\006\000\000\352\000\025"
 156      60626067 
 156      80002606 
 156      26462626 
 156      060000EA 
 157              		.text
 158              		.section	.gnu.lto_.decls.200b5c56cd906cc5,"",%progbits
 159 0000 789CAD58 		.ascii	"x\234\255X}l\024\307\025\237\331;\177\\\3558\204&\221"
 159      7D6C14C7 
 159      159FD93B 
 159      7F5CED38 
 159      842691
 160 0013 FD17875A 		.ascii	"\375\027\207Z\252&\015>CR\325\225Z\300\234\241\266T"
 160      AA260D3E 
 160      4352D595 
 160      5AC09CA1 
 160      B654
 161 0025 37A7BB40 		.ascii	"7\247\273@\253\250\322\262=\037\334)\347;\263\267\016"
 161      ABA8D2B2 
 161      3D1FDC29 
 161      E73BB3B7 
 161      0E
ARM GAS  /var/folders/c6/c789hm653lg9vtl73krp73tm0000gn/T//ccUvcYCi.s 			page 12


 162 0036 44AAC4DA 		.ascii	"D\252\304\332\347\270\024\321\366\354\020\344D)\034"
 162      E7B814D1 
 162      F6EC10E4 
 162      44291C
 163 0045 1F494C08 		.ascii	"\037IL\010\204\030\032\323\360u A\250\"\241\246\011"
 163      84181AD3 
 163      F0752041 
 163      A822A1A6 
 163      09
 164 0056 31C1062E 		.ascii	"1\301\006.uD\245\022ZS,D,\354\353\233\331\335\273\331"
 164      7544A512 
 164      5A532C44 
 164      2CECEB9B 
 164      D9DDBBD9 
 165 006a F52EDE8B 		.ascii	"\365.\336\213\262\342=\317\355\316\374\336\357\275y"
 165      B2E23DCF 
 165      EDCEFCDE 
 165      EFBD79
 166 0079 33F3060E 		.ascii	"3\363\006\016q\350\267\030\241\034<\227j\020\332\344"
 166      71E8B718 
 166      A11C3C97 
 166      6A10DAE4 
 167 0089 40C88910 		.ascii	"@\310\211\020Z\202\012O)\310.\2207@\366\201\354\007"
 167      5A820A4F 
 167      29C82E90 
 167      3740F681 
 167      EC07
 168 009b 3908F22E 		.ascii	"9\010\362.\232\371\220~U C\352\337J\220\023 e \207A"
 168      9AF9907E 
 168      552043EA 
 168      DF4A9013 
 168      20652087 
 169 00b0 3E013903 		.ascii	">\0019\003r\022d)\310g # \203 \243 \034\310?@\376\316"
 169      72126429 
 169      C8672023 
 169      208320A3 
 169      201CC83F 
 170 00c7 D8BD0232 		.ascii	"\330\275\0022\246\332\3238\030\037\302\251\\\265\303"
 170      A6DAD338 
 170      181FC2A9 
 170      5CB5C3
 171 00d6 DA1D526D 		.ascii	"\332\035Rm\022;7\030\177\3663\2707A\306An\233\340\036"
 171      123B3718 
 171      7FF633B8 
 171      3741C641 
 171      6E9BE01E 
 172 00ea 54B1CA0C 		.ascii	"T\261\312\014>ix_\201L\202\374\004b\370S\220\335\252"
 172      3E69785F 
 172      814C82FC 
 172      0462F853 
 172      90DDAA
 173 00fd 5D4C7CC1 		.ascii	"]L|\301\3128\202\261\004\332\015X\261\261\213\261i|"
 173      CA3882B1 
 173      04DA0D58 
 173      B1B18BB1 
 173      697C
 174 010f E6A11D72 		.ascii	"\346\241\035r&\233=;}\250fs\272+\223\313-E\217\242\227"
ARM GAS  /var/folders/c6/c789hm653lg9vtl73krp73tm0000gn/T//ccUvcYCi.s 			page 13


 174      269B3D3B 
 174      7DA86673 
 174      BA2B93CB 
 174      2D458FA2 
 175 0124 6578D23D 		.ascii	"ex\322=\262\214%\001/y\004\375\012\013\270\312\205\334"
 175      B28C2501 
 175      2F7904FD 
 175      0A0BB8CA 
 175      85DC
 176 0136 B451E9A2 		.ascii	"\264Q\351\242\023\206\220\200w\343G\325\326*\207\002"
 176      13869080 
 176      77E347D5 
 176      D62A8702 
 177 0146 C7A12730 		.ascii	"\307\241'0z\034\355\203\361)Y>\363\035lb\022\241\357"
 177      7A1CED83 
 177      F129593E 
 177      F31D6C62 
 177      12A1EF
 178 0159 A1D7E9F7 		.ascii	"\241\327\351\367\001\331A\361\011\302.<\217\355\"\340"
 178      01D941F1 
 178      09C22E3C 
 178      8FED22E0 
 179 0169 3D983312 		.ascii	"=\2303\022\315\246\262\307\316}\371\"\356M\246\317\313"
 179      CDA6B2C7 
 179      CE7DF922 
 179      EE4DA6CF 
 179      CB
 180 017a E3B9DC83 		.ascii	"\343\271\334\203Ep}\323\204\353\006\014?\367\342\307"
 180      45707DD3 
 180      84EB060C 
 180      3FF7E2C7 
 181 018a 91DEF280 		.ascii	"\221\336\362\200\231\345\314\221\341\2552Nufs\271y\012"
 181      99E5CC91 
 181      E1AD324E 
 181      756673B9 
 181      790A
 182 019c 1A87FE80 		.ascii	"\032\207\376\200\315\001\336\232\011\220\206\030\357"
 182      CD01DE9A 
 182      09908618 
 182      EF
 183 01a9 FC10CB7D 		.ascii	"\374\020\313}\362\275\\\316\2014\204]3\020hld}l\366"
 183      F2BD5CCE 
 183      8134845D 
 183      3310686C 
 183      647D6CF6 
 184 01bd 1B63F3B6 		.ascii	"\033c\363\266\231\201\314\304\007\225\224\337\316e\032"
 184      9981CCC4 
 184      079594DF 
 184      CE651A
 185 01cc FC015BF0 		.ascii	"\374\001[\360\007\215\360\357\230\206\276\367\217\243"
 185      078DF0EF 
 185      9886BEF7 
 185      8FA3
 186 01da D5FD8372 		.ascii	"\325\375\203r\367\357\345\351\334&\254\213|9\372\235"
 186      F7EFE5E9 
 186      DC26AC8B 
 186      7C39FA9D 
ARM GAS  /var/folders/c6/c789hm653lg9vtl73krp73tm0000gn/T//ccUvcYCi.s 			page 14


 187 01ea 2C77C9D9 		.ascii	",w\311\331\027\345N\274\036isP\256\315\001\311\202\005"
 187      17E54EBC 
 187      1E697350 
 187      AECD01C9 
 187      8205
 188 01fc 68AF9214 		.ascii	"h\257\222\024\234\200\017\343r \36796\317\016\244t "
 188      9C800FE3 
 188      7220F739 
 188      36CF0EA4 
 188      7420
 189 020e 0F19AFB4 		.ascii	"\017\031\257\264\265\026F\2263<h2\303\377\262\230\241"
 189      B5164696 
 189      333C6832 
 189      C3FFB298 
 189      A1
 190 021f F7F41EBA 		.ascii	"\367\364\036\272\320f\302\037\234i:_en\201\362Oe_\352"
 190      D066C21F 
 190      9C693A5F 
 190      656E81F2 
 190      4F655FEA 
 191 0233 3B7B1A77 		.ascii	";{\032w\201\317\002\036\302.\260p\201\323[\260\017u"
 191      81CF021E 
 191      C22EB070 
 191      81D35BB0 
 191      0F75
 192 0245 6DFBF11F 		.ascii	"m\373\361\037\313r\271\200\337\247@G\034z \001\227\271"
 192      CB72B980 
 192      DFA74047 
 192      1C7A2001 
 192      97B9
 193 0257 F4A4E1B7 		.ascii	"\364\244\341\267\326\201\240\321\317j\203l\247\017\242"
 193      D681A0D1 
 193      CF6A836C 
 193      A70FA2
 194 0266 62BB57A0 		.ascii	"b\273W\240-\005\256sQ/\231P7\303Z\3464\332n\032\315"
 194      2D05AE73 
 194      512F9950 
 194      37C35AE6 
 194      34DA6E1A 
 195 027b 5394E249 		.ascii	"S\224\342I<W\005V\346\024\326\344\247I\334IcB\276!\223"
 195      3C570556 
 195      E614D6E4 
 195      A749DC49 
 195      6342BE21 
 196 0290 88ABCF7C 		.ascii	"\210\253\317|\224\006\203\231+\027\266\325\310\3513"
 196      94068399 
 196      2B17B6D5 
 196      C8E933
 197 029f 5867DF72 		.ascii	"Xg\337r\365\252\341\032\272z\375\226j\205\214\344\320"
 197      F5AAE11A 
 197      BA7AFD96 
 197      6A858CE4 
 197      D0
 198 02b0 AD19015B 		.ascii	"\255\031\001[Z\241\217\000\374f:ph2\317\337\314\216"
 198      5AA18F00 
 198      FC663A70 
 198      6832CFDF 
ARM GAS  /var/folders/c6/c789hm653lg9vtl73krp73tm0000gn/T//ccUvcYCi.s 			page 15


 198      CC8E
 199 02c2 DA44F9CC 		.ascii	"\332D\371\314\253r\351y\203\243\303/\341\276\244|\276"
 199      AB72E979 
 199      83A3C32F 
 199      E1BEA47C 
 199      BE
 200 02d3 4EE33055 		.ascii	"N\3430U4\242[\027\211\361\013\225)A\003\223\2356\300"
 200      34A25B17 
 200      89F10B95 
 200      29410393 
 200      9D36C0
 201 02e6 CA2DE965 		.ascii	"\312-\351e\376\307\202%\213\006\3233\233`\301z\354\200"
 201      FEC78225 
 201      8B06D333 
 201      9B60C17A 
 201      EC80
 202 02f8 CDB16676 		.ascii	"\315\261fv\207\005\333R4\230\236\331]\026\254\327\016"
 202      8705DB52 
 202      34989ED9 
 202      5D16ACD7 
 202      0E
 203 0309 58B535B3 		.ascii	"X\2655\263I\026l[\321`nC\202[\355M'p>5\037B)\272\316"
 203      49166C5B 
 203      D1606E43 
 203      825BED4D 
 203      27703E35 
 204 0322 FAABD4AD 		.ascii	"\372\253\324\255\"\373\272\\]=\373\246y\221\356\022"
 204      22FBBA5C 
 204      5D3DFBA6 
 204      7991EE12 
 205 0332 AF382D37 		.ascii	"\2578-7M\322A\343\240\264\265V\256\260kVk\360\016u\324"
 205      4DD241E3 
 205      A0B4B556 
 205      AEB06B56 
 205      6BF00E75 
 206 0347 27F821DA 		.ascii	"'\370!\332\242d\344\374Z\204\036V\276\\b\354T\272\012"
 206      A264E4FC 
 206      5A841E56 
 206      BE5C62EC 
 206      54BA0A
 207 035a 0D6D4755 		.ascii	"\015mGU\035L/\353\257R\314\253@s\364\035\005\374Y\321"
 207      1D4C2FEB 
 207      AF52CCAB 
 207      4073F41D 
 207      05FC59D1 
 208 036e A62F5B98 		.ascii	"\246/[\230\326bb\330P\310\211`\0055R\230\021\303\250"
 208      D66262D8 
 208      50C88960 
 208      05355298 
 208      11C3A8
 209 0381 37EF336A 		.ascii	"7\3573j\2640\212VN\343\331\251\177f\332\246\006e\231"
 209      B4308A56 
 209      4EE3D9A9 
 209      7F66DAA6 
 209      066599
 210 0394 9E8A9DDD 		.ascii	"\236\212\235\335\363\015\025\311\020\266\366\346\252"
 210      F30D15C9 
ARM GAS  /var/folders/c6/c789hm653lg9vtl73krp73tm0000gn/T//ccUvcYCi.s 			page 16


 210      10B6F6E6 
 210      AA
 211 03a1 C981F5A1 		.ascii	"\311\201\365\241\223\335\324\034$V\034\272X\230tz~w"
 211      93DDD41C 
 211      24561CBA 
 211      5898747A 
 211      7E77
 212 03b3 C98303B2 		.ascii	"\311\203\003\262K\001'\303\257\300\001nn\204~\2766\363"
 212      4B0127C3 
 212      AFC0016E 
 212      6E847EBE 
 212      36F3
 213 03c5 38CF8C67 		.ascii	"8\317\214g\256\215\034\207M\230\224|\247\344\371N\373"
 213      AE8D1C87 
 213      4D98947C 
 213      A7E4F94E 
 213      FB
 214 03d6 85D4172A 		.ascii	"\205\324\027*k\2072\217\012\213\202\013\324\213\261"
 214      6B87328F 
 214      0A8B820B 
 214      D48BB1
 215 03e5 995E08F8 		.ascii	"\231^\010\370s\215\306w\321\036\031\012\241\277\236"
 215      738DC677 
 215      D11E190A 
 215      A1BF9E
 216 03f4 AB4CE58F 		.ascii	"\253L\345\217\321\233t\304\230\205#\232\253Z\371r\273"
 216      D19B74C4 
 216      9885239A 
 216      AB5AF972 
 216      BB
 217 0405 D3579D2F 		.ascii	"\323W\235/_\306\214\345\313u\275\277\205\005\247K\307"
 217      5FC68CE5 
 217      CB75BDBF 
 217      8505A74B 
 217      C7
 218 0416 7ACD4099 		.ascii	"z\315@\231:\354F\321\351\370\245E:\226\352S\344X\317"
 218      3AEC46D1 
 218      E9F8A545 
 218      3A96EA53 
 218      E458CF
 219 0429 F50FE8B1 		.ascii	"\365\017\350\261Ak\326t\271V\235\335s\332\251\316n\032"
 219      416BD674 
 219      B9569DDD 
 219      73DAA9CE 
 219      6E1A
 220 043b DDFB8FE9 		.ascii	"\335\373\217\351t\036\271\252\026\177\2319\032~o\211"
 220      741EB9AA 
 220      167F9939 
 220      1A7E6F89 
 221 044b 1DFC7123 		.ascii	"\035\374q#\376-3|\222\347[q\357;=2\261\262ig&\345TR"
 221      FE2D337C 
 221      92E75B71 
 221      EF3B3D32 
 221      B1B26967 
 222 0463 81437F2E 		.ascii	"\201C\177.\2611\331\037\261\223\275\237\216\270\375"
 222      B131D91F 
 222      B193BD9F 
ARM GAS  /var/folders/c6/c789hm653lg9vtl73krp73tm0000gn/T//ccUvcYCi.s 			page 17


 222      8EB8FD
 223 0472 7526FBB6 		.ascii	"u&\373\266\221\355\204I%\227\274o\371%\340\243x\201"
 223      91ED8449 
 223      2597BC6F 
 223      F925E0A3 
 223      7881
 224 0484 ADFAC8A4 		.ascii	"\255\372\310\244$\312\346\367\347\255\371\015:\225\375"
 224      24CAE6F7 
 224      E7ADF90D 
 224      3A95FD
 225 0493 F8C6DD70 		.ascii	"\370\306\335p\222\226&\223pxph\304\020\371\331\201\010"
 225      92962693 
 225      70787068 
 225      C410F9D9 
 225      8108
 226 04a5 AD294361 		.ascii	"\255)Ca\225\371h\270Rv*\357g)\252\266%3\027\207\225"
 226      95F968B8 
 226      52762AEF 
 226      6729AAB6 
 226      25331787 
 227 04ba A22A1F81 		.ascii	"\242*\037\201\3147\020\001\016}A]\231\372z5Sw2\363\351"
 227      CC371001 
 227      0E7D415D 
 227      99FA7A35 
 227      537732F3 
 228 04cf 303D60BF 		.ascii	"0=`\277\242\023\377\357\242\301\334:\260K,\330\177\355"
 228      A213FFEF 
 228      A2C1DC3A 
 228      B04B2CD8 
 228      7FED
 229 04e1 8059954B 		.ascii	"\200Y\225K\000v\231\005\233(\032L\317l\224\005\233\264"
 229      00769905 
 229      9B281A4C 
 229      CF6C9405 
 229      9BB4
 230 04f3 0366552E 		.ascii	"\003fU.\001\330U\026l\272h0\226Ygf\374\227\207\326\030"
 230      01D85516 
 230      6CBA6830 
 230      96596766 
 230      FC9787D6 
 231 0508 6A8E24AD 		.ascii	"j\216$\2559\372\013\3311\263\350 7\235\003?\200\353"
 231      39FA0BD9 
 231      31B3E820 
 231      379D033F 
 231      80EB
 232 051a 0953A458 		.ascii	"\011S\244X\015\020\360\2378\222NX\237N\371\022D\255"
 232      0D10F09F 
 232      38924E58 
 232      9F4EF912 
 232      44AD
 233 052c 4038D455 		.ascii	"@8\324UjzW\262A\346\332\366\035\365\364\256\324\307"
 233      6A7A57B2 
 233      41E6DAF6 
 233      1DF5F4AE 
 233      D4C7
 234 053e 91986C29 		.ascii	"\221\230l)5\226\376\330pW\232\205K1}UZk4Z\225t\030{"
 234      3596FED8 
ARM GAS  /var/folders/c6/c789hm653lg9vtl73krp73tm0000gn/T//ccUvcYCi.s 			page 18


 234      70579A85 
 234      4B317D55 
 234      5A6B345A 
 235 0556 AAA43897 		.ascii	"\252\2448\227E/\001\277\314\025{\252l\347\314O\225\012"
 235      452F01BF 
 235      CC157BAA 
 235      6CE7CC4F 
 235      950A
 236 0568 1D69AD17 		.ascii	"\035i\255\027)[K\015\031\242#1K\015\334\235\204\335"
 236      295B4B0D 
 236      19A22331 
 236      4B0DDC9D 
 236      84DD
 237 057a EB3CBF8F 		.ascii	"\353<\277\217\2240\245Z\316\365\033\021\315r\316m\275"
 237      9430A55A 
 237      CEF51B11 
 237      CD72CE6D 
 237      BD
 238 058b 1A26D804 		.ascii	"\032&\330\004\336a\007\354\373\326\253\341\016\013\266"
 238      DE6107EC 
 238      FBD6ABE1 
 238      0E0BB6
 239 059a A768303D 		.ascii	"\247h0=\263\273,\330\200\035\260:kf\223,\330\201\242"
 239      B3BB2CD8 
 239      801DB03A 
 239      6B66932C 
 239      D881A2
 240 05ad C1F4CCEE 		.ascii	"\301\364\314\356\261`\207\355\200\325[3\233f\301\216"
 240      B16087ED 
 240      80D55B33 
 240      9B66C18E 
 241 05bd 160DC630 		.ascii	"\026\015\3060\333\326\231I=\233\022\362E=I^\271\220"
 241      DBD69949 
 241      3D9B12F2 
 241      453D495E 
 241      B990
 242 05cf EFCBF47B 		.ascii	"\357\313\364{\243\256\033S\373\032\272\011x@]\026\205"
 242      A3AE1B53 
 242      FB1ABA09 
 242      78405D16 
 242      85
 243 05e0 9ADEF893 		.ascii	"\232\336\370\223C'\214\274u(js\231E\020\340D\354\273"
 243      43278CBC 
 243      75286A73 
 243      994510E0 
 243      44ECBB
 244 05f3 4C8320D3 		.ascii	"L\203 \323-\343\264\235 4Y\203mc\301\316\026\015\246"
 244      2DE3B49D 
 244      20345983 
 244      6D63C1CE 
 244      160DA6
 245 0606 8FE8F642 		.ascii	"\217\350\366BD\335\206\200\312X\277\247\263\335\230"
 245      44DD8680 
 245      CA58BFA7 
 245      B3DD98
 246 0615 801ABB09 		.ascii	"\200\032\273\011\370P\321\033\315\273\026\033M\241\222"
 246      F850D11B 
ARM GAS  /var/folders/c6/c789hm653lg9vtl73krp73tm0000gn/T//ccUvcYCi.s 			page 19


 246      CDBB161B 
 246      4DA192
 247 0624 677B81DB 		.ascii	"g{\201\333\1773\272\255g\2416}VA\354\314\364[\373\235"
 247      7F33BAAD 
 247      67A1367D 
 247      5641ECCC 
 247      F45BFB9D 
 248 0638 CE433D7C 		.ascii	"\316C=|?\277\215\335\004\374\227\242\375~\317\302\357"
 248      3FBF8DDD 
 248      04FC97A2 
 248      FD7ECFC2 
 248      EF
 249 0649 FC9549D7 		.ascii	"\374\225I\327\213\374\037\237\321o=\013\265\271\306"
 249      8BFC1F9F 
 249      D16F3D0B 
 249      B5B9C6
 250 0658 C26F28E4 		.ascii	"\302o(\344^}\226\344\016a\312\241\217m\201\265[$\017"
 250      5E7D96E4 
 250      0E61CAA1 
 250      8F6D81B5 
 250      5B240F
 251 066b ACEDD72E 		.ascii	"\254\355\327.3k\373\212\235L\334\214M\250\231=l\015"
 251      336BFB8A 
 251      9D4CDC8C 
 251      4DA8993D 
 251      6C0D
 252 067d 2AE0695A 		.ascii	"*\340iZ$\346\360|\320]\034\321\335T\367P\275\231\352"
 252      24E6F07C 
 252      D05D1CD1 
 252      DD54F750 
 252      BD99EA
 253 0690 2D546FA5 		.ascii	"-To\245\272\237\352W\251~\215\352\035T\247\251\336M"
 253      BA9FEA57 
 253      A97E8DEA 
 253      1D54A7A9 
 253      DE4D
 254 06a2 F55EAADF 		.ascii	"\365^\252\337\240\372-\252\337\246\372 \325\207\251"
 254      A0FA2DAA 
 254      DFA6FA20 
 254      D587A9
 255 06b1 3E4AF5FB 		.ascii	">J\365\373\240\363\217\341\212>i\341/\361\3408gu\261"
 255      A0F38FE1 
 255      8A3E69E1 
 255      2FF1E038 
 255      6775B1
 256 06c4 DF7D9F8B 		.ascii	"\337}\237\213\375\011\316x\261?vn\324\364\3266f\250"
 256      FD09CE78 
 256      B13F766E 
 256      D4F4D636 
 256      66A8
 257 06d6 3DCC6F55 		.ascii	"=\314oU'9\303=\345\024gvk\273;2\343\326v\307\026\376"
 257      2739C33D 
 257      E5146776 
 257      6BBB3B32 
 257      E3D676C7 
 258 06ec 6923FE19 		.ascii	"i#\376\031=>z\254\266\326\243\374\213'<\242\344i\217"
 258      3D3E7AAC 
ARM GAS  /var/folders/c6/c789hm653lg9vtl73krp73tm0000gn/T//ccUvcYCi.s 			page 20


 258      B6D6A3FC 
 258      8B273CA2 
 258      E4698F
 259 06ff 8B52C2D3 		.ascii	"\213R\302\323\340o\361\266l\364\004\303\301\270\030"
 259      E06FF1B6 
 259      6CF404C3 
 259      C1B818
 260 070e E29FFF51 		.ascii	"\342\237\377Q[m\020\325\360\344\033\037\021\327\363"
 260      5B6D10D5 
 260      F0E41B1F 
 260      11D7F3
 261 071d A1F64834 		.ascii	"\241\366H4\276\256#T\333.\210Rm]\351\317~\261\312\355"
 261      BEAE2354 
 261      DB2E8852 
 261      6D5DE9CF 
 261      7EB1CAED 
 262 0731 B50D1546 		.ascii	"\265\015\025F\217(P\211\015\021)\030\346\327\212\361"
 262      8F285089 
 262      0D112918 
 262      E6D78AF1 
 263 0741 363E9210 		.ascii	"6>\222\020\277\255\274\015m\214H\371w\025\201\325^\276"
 263      BFADBC0D 
 263      6D8C48F9 
 263      771581D5 
 263      5EBE
 264 0753 4988B546 		.ascii	"I\210\265FC\342\334\231\004\334\006\223\221X0\332\321"
 264      43E2DC99 
 264      04DC0693 
 264      915830DA 
 264      D1
 265 0764 1A026B89 		.ascii	"\032\002k\211`\270\025,\225\360\313\343\361hM0\034\010"
 265      60B8152C 
 265      95F0CBE3 
 265      F1684D30 
 265      1C08
 266 0776 869B133E 		.ascii	"\206\233\023>1\024jk\227\"\361\230?\264\276#\"\206Z"
 266      31146A6B 
 266      9722F198 
 266      3FB4BE23 
 266      22865A
 267 0789 7FEEE948 		.ascii	"\177\356\351H\210\236h<(D=\336P4*\210\236u\301\340B"
 267      889E683C 
 267      28443DDE 
 267      50342A88 
 267      9E75C1E0 
 268 079e 416C5B18 		.ascii	"Al[\030\213\307B\013C\302o\"\236\305u\213\236\252\253"
 268      8BC7420B 
 268      43C26F22 
 268      9EC5758B 
 268      9EAAAB
 269 07b1 AFFBA147 		.ascii	"\257\373\241G\377Z3\226\220Z#1\011\214\225w\300\337"
 269      FF5A3396 
 269      905A2331 
 269      098C9577 
 269      C0DF
 270 07c3 2717F3D2 		.ascii	"'\027\363\322\257\277\001\3246!\030\216\304"
 270      AFBF01D4 
ARM GAS  /var/folders/c6/c789hm653lg9vtl73krp73tm0000gn/T//ccUvcYCi.s 			page 21


 270      3621188E 
 270      C4
 271 07d0 421EBE35 		.ascii	"B\036\2765\264V\350\210J\274\364B{(\001V\276\305\363"
 271      B456E888 
 271      4ABCF442 
 271      7B280156 
 271      BEC5F3
 272 07e3 9A9D0A35 		.ascii	"\232\235\0125`RP\332\270`\366\350\023\212bh\035\330"
 272      605250DA 
 272      B860F6E8 
 272      138A6268 
 272      1DD8
 273 07f5 E3254EAC 		.ascii	"\343%N\254\343\304E\234\270\230\023\237t\210\213\026"
 273      E3C4459C 
 273      B898139F 
 273      74888B16 
 274 0805 9746455E 		.ascii	"\227FE^\012\267r\355A\347\306\366\204\350\014\206\005"
 274      0AB772ED 
 274      41E7C6F6 
 274      84E80C86 
 274      05
 275 0816 F1091612 		.ascii	"\361\011\026\022\254x\274-\201\346@!\310dB\203m+;bA"
 275      AC78BC2D 
 275      81E64021 
 275      C8644283 
 275      6D2B3B62 
 276 082b 4076F1FC 		.ascii	"@v\361\374\272\220\304\373\002\276\007\204\350\006\341"
 276      BA90C4FB 
 276      02BE0784 
 276      E806E1
 277 083a 85041F89 		.ascii	"\205\004\037\211E\301\001x\237P\336WI\361\366\247\327"
 277      45C10178 
 277      9F50DE57 
 277      49F1F6A7 
 277      D7
 278 084b FAC47830 		.ascii	"\372\304x0 \011\301\347\036\246\344;b\020\246\347\012"
 278      2009C1E7 
 278      1EA6E43B 
 278      6210A6E7 
 278      0A
 279 085c F3CDBC7C 		.ascii	"\363\315\274|@\031\271\274!\260\302\347o.y^\210v\204"
 279      4019B9BC 
 279      21B0C2E7 
 279      6F2E795E 
 279      887684
 280 086f 1EB345E9 		.ascii	"\036\263E\351)\342i\300\273\234\177\006bV\342\365\255"
 280      29E269C0 
 280      BB9C7F06 
 280      6256E2F5 
 280      AD
 281 0880 6A6E7436 		.ascii	"jnt6{\003~\347\352g\236\366\22744\373\275~G\000\304"
 281      7B037EE7 
 281      EA679EF6 
 281      973434FB 
 281      BD7E4700 
 282 0895 EBF59791 		.ascii	"\353\365\227\221X\326\363\222K\211*\264\034\201&_I\240"
 282      58D6F392 
ARM GAS  /var/folders/c6/c789hm653lg9vtl73krp73tm0000gn/T//ccUvcYCi.s 			page 22


 282      4B892AB4 
 282      1C81265F 
 282      49A0
 283 08a7 8974F7AE 		.ascii	"\211t\367\256\004\325DT#\250\222\226\226\225\015~\347"
 283      04D54454 
 283      23A89296 
 283      96950D7E 
 283      E7
 284 08b8 72A21AE0 		.ascii	"r\242\032\340\267\303\267\322\357h\004ih\364;\341\233"
 284      B7C3B7D2 
 284      EF680469 
 284      68F43BE1 
 284      9B
 285 08c9 DFD91C68 		.ascii	"\337\331\034h\360\273\374+\002+\374\253W4\326\201\341"
 285      F0BBFC2B 
 285      022BFCAB 
 285      5734D681 
 285      E1
 286 08da 06AF7F2E 		.ascii	"\006\257\177.\365H\347\244+\377\352\377\"\227\373H"
 286      F548E7A4 
 286      2BFFEAFF 
 286      2297FB48 
 287              		.text
 288              		.section	.gnu.lto_.symtab.200b5c56cd906cc5,"",%progbits
 289 0000 5356435F 		.ascii	"SVC_Handler\000\000\000\000\000\000\000\000\000\000"
 289      48616E64 
 289      6C657200 
 289      00000000 
 289      00000000 
 290 0015 0000AB00 		.ascii	"\000\000\253\000\000\000_port_irq_epilogue\000\000\000"
 290      00005F70 
 290      6F72745F 
 290      6972715F 
 290      6570696C 
 291 0030 00000000 		.ascii	"\000\000\000\000\000\000\000\000\000\256\000\000\000"
 291      00000000 
 291      00AE0000 
 291      00
 292 003d 5F706F72 		.ascii	"_port_switch_from_isr\000\000\002\000\000\000\000\000"
 292      745F7377 
 292      69746368 
 292      5F66726F 
 292      6D5F6973 
 293 005a 00000000 		.ascii	"\000\000\000\000\246\000\000\000_port_exit_from_isr"
 293      A6000000 
 293      5F706F72 
 293      745F6578 
 293      69745F66 
 294 0075 00000200 		.ascii	"\000\000\002\000\000\000\000\000\000\000\000\000\251"
 294      00000000 
 294      00000000 
 294      A9
 295 0082 00000063 		.ascii	"\000\000\000chSchIsPreemptionRequired\000\000\002\000"
 295      68536368 
 295      49735072 
 295      65656D70 
 295      74696F6E 
ARM GAS  /var/folders/c6/c789hm653lg9vtl73krp73tm0000gn/T//ccUvcYCi.s 			page 23


 296 00a2 00000000 		.ascii	"\000\000\000\000\000\000\000\000\261\000\000\000"
 296      00000000 
 296      B1000000 
 297              		.text
 298              		.section	.gnu.lto_.opts,"",%progbits
 299 0000 272D6D63 		.ascii	"'-mcpu=cortex-m4' '-mno-thumb-interwork' '-mthumb' "
 299      70753D63 
 299      6F727465 
 299      782D6D34 
 299      2720272D 
 300 0033 272D6767 		.ascii	"'-ggdb' '-O2' '-fomit-frame-pointer' '-falign-funct"
 300      64622720 
 300      272D4F32 
 300      2720272D 
 300      666F6D69 
 301 0066 696F6E73 		.ascii	"ions=16' '-ffunction-sections' '-fdata-sections' '-"
 301      3D313627 
 301      20272D66 
 301      66756E63 
 301      74696F6E 
 302 0099 666E6F2D 		.ascii	"fno-common' '-flto'\000"
 302      636F6D6D 
 302      6F6E2720 
 302      272D666C 
 302      746F2700 
 303              		.text
 304              		.cfi_sections	.debug_frame
 305              		.section	.text.SVC_Handler,"ax",%progbits
 306              		.align	2
 307              		.p2align 4,,15
 308              		.global	SVC_Handler
 309              		.thumb
 310              		.thumb_func
 311              		.type	SVC_Handler, %function
 312              	SVC_Handler:
 313              	.LFB229:
 314              		.file 1 "../../../os/rt/ports/ARMCMx/chcore_v7m.c"
 315              		.loc 1 62 0
 316              		.cfi_startproc
 317              		@ args = 0, pretend = 0, frame = 0
 318              		@ frame_needed = 0, uses_anonymous_args = 0
 319              		@ link register save eliminated.
 320              	.LBB51:
 321              	.LBB52:
 322              		.file 2 "../../../os/ext/CMSIS/include/core_cmFunc.h"
 323              		.loc 2 428 0
 324              	@ 428 "../../../os/ext/CMSIS/include/core_cmFunc.h" 1
 325 0000 EFF30983 		MRS r3, psp
 326              	
 327              	@ 0 "" 2
 328              	.LVL0:
 329              		.thumb
 330              	.LBE52:
 331              	.LBE51:
 332              		.loc 1 76 0
 333 0004 2033     		adds	r3, r3, #32
 334              	.LVL1:
ARM GAS  /var/folders/c6/c789hm653lg9vtl73krp73tm0000gn/T//ccUvcYCi.s 			page 24


 335              	.LBB53:
 336              	.LBB54:
 337              		.loc 2 441 0
 338              	@ 441 "../../../os/ext/CMSIS/include/core_cmFunc.h" 1
 339 0006 83F30988 		MSR psp, r3
 340              	
 341              	@ 0 "" 2
 342              	.LVL2:
 343              		.thumb
 344              	.LBE54:
 345              	.LBE53:
 346              	.LBB55:
 347              	.LBB56:
 348              	.LBB57:
 349              	.LBB58:
 350              		.loc 2 546 0
 351 000a 0023     		movs	r3, #0
 352              	.LVL3:
 353              	@ 546 "../../../os/ext/CMSIS/include/core_cmFunc.h" 1
 354 000c 83F31188 		MSR basepri, r3
 355              	@ 0 "" 2
 356              		.thumb
 357 0010 7047     		bx	lr
 358              	.LBE58:
 359              	.LBE57:
 360              	.LBE56:
 361              	.LBE55:
 362              		.cfi_endproc
 363              	.LFE229:
 364              		.size	SVC_Handler, .-SVC_Handler
 365 0012 00BFAFF3 		.section	.text._port_irq_epilogue,"ax",%progbits
 365      0080AFF3 
 365      0080AFF3 
 365      0080
 366              		.align	2
 367              		.p2align 4,,15
 368              		.global	_port_irq_epilogue
 369              		.thumb
 370              		.thumb_func
 371              		.type	_port_irq_epilogue, %function
 372              	_port_irq_epilogue:
 373              	.LFB230:
 374              		.loc 1 122 0
 375              		.cfi_startproc
 376              		@ args = 0, pretend = 0, frame = 0
 377              		@ frame_needed = 0, uses_anonymous_args = 0
 378              	.LVL4:
 379 0000 10B5     		push	{r4, lr}
 380              		.cfi_def_cfa_offset 8
 381              		.cfi_offset 4, -8
 382              		.cfi_offset 14, -4
 383              	.LBB83:
 384              	.LBB84:
 385              	.LBB85:
 386              	.LBB86:
 387              		.loc 2 546 0
 388 0002 2023     		movs	r3, #32
ARM GAS  /var/folders/c6/c789hm653lg9vtl73krp73tm0000gn/T//ccUvcYCi.s 			page 25


 389              	@ 546 "../../../os/ext/CMSIS/include/core_cmFunc.h" 1
 390 0004 83F31188 		MSR basepri, r3
 391              	@ 0 "" 2
 392              		.thumb
 393              	.LBE86:
 394              	.LBE85:
 395              	.LBE84:
 396              	.LBE83:
 397              		.loc 1 125 0
 398 0008 0E4B     		ldr	r3, .L8
 399 000a 5B68     		ldr	r3, [r3, #4]
 400 000c 13F40063 		ands	r3, r3, #2048
 401 0010 02D1     		bne	.L7
 402              	.LVL5:
 403              	.LBB87:
 404              	.LBB88:
 405              	.LBB89:
 406              	.LBB90:
 407              		.loc 2 546 0
 408              	@ 546 "../../../os/ext/CMSIS/include/core_cmFunc.h" 1
 409 0012 83F31188 		MSR basepri, r3
 410              	@ 0 "" 2
 411              		.thumb
 412 0016 10BD     		pop	{r4, pc}
 413              	.LVL6:
 414              	.L7:
 415              	.LBE90:
 416              	.LBE89:
 417              	.LBE88:
 418              	.LBE87:
 419              	.LBB91:
 420              	.LBB92:
 421              	.LBB93:
 422              	.LBB94:
 423              		.loc 2 428 0
 424              	@ 428 "../../../os/ext/CMSIS/include/core_cmFunc.h" 1
 425 0018 EFF30984 		MRS r4, psp
 426              	
 427              	@ 0 "" 2
 428              	.LVL7:
 429              		.thumb
 430              	.LBE94:
 431              	.LBE93:
 432              		.loc 1 141 0
 433 001c 4FF08073 		mov	r3, #16777216
 434 0020 44F8043C 		str	r3, [r4, #-4]
 435              	.LVL8:
 436              		.loc 1 138 0
 437 0024 A4F12003 		sub	r3, r4, #32
 438              	.LVL9:
 439              	.LBB95:
 440              	.LBB96:
 441              		.loc 2 441 0
 442              	@ 441 "../../../os/ext/CMSIS/include/core_cmFunc.h" 1
 443 0028 83F30988 		MSR psp, r3
 444              	
 445              	@ 0 "" 2
ARM GAS  /var/folders/c6/c789hm653lg9vtl73krp73tm0000gn/T//ccUvcYCi.s 			page 26


 446              		.thumb
 447              	.LBE96:
 448              	.LBE95:
 449              		.loc 1 151 0
 450 002c FFF7FEFF 		bl	chSchIsPreemptionRequired
 451              	.LVL10:
 452 0030 18B1     		cbz	r0, .L4
 453              		.loc 1 153 0
 454 0032 054B     		ldr	r3, .L8+4
 455 0034 44F8083C 		str	r3, [r4, #-8]
 456 0038 10BD     		pop	{r4, pc}
 457              	.LVL11:
 458              	.L4:
 459              		.loc 1 158 0
 460 003a 044B     		ldr	r3, .L8+8
 461 003c 44F8083C 		str	r3, [r4, #-8]
 462 0040 10BD     		pop	{r4, pc}
 463              	.LVL12:
 464              	.L9:
 465 0042 00BF     		.align	2
 466              	.L8:
 467 0044 00ED00E0 		.word	-536810240
 468 0048 00000000 		.word	_port_switch_from_isr
 469 004c 00000000 		.word	_port_exit_from_isr
 470              	.LBE92:
 471              	.LBE91:
 472              		.cfi_endproc
 473              	.LFE230:
 474              		.size	_port_irq_epilogue, .-_port_irq_epilogue
 475              		.text
 476              	.Letext0:
 477              		.file 3 "/usr/local/Cellar/gcc-arm-none-eabi/20140805/arm-none-eabi/include/machine/_default_types
 478              		.file 4 "/usr/local/Cellar/gcc-arm-none-eabi/20140805/arm-none-eabi/include/stdint.h"
 479              		.file 5 "../../../os/rt/ports/ARMCMx/compilers/GCC/chtypes.h"
 480              		.file 6 "../../../os/rt/include/chsystypes.h"
 481              		.file 7 "../../../os/rt/include/chschd.h"
 482              		.file 8 "../../../os/ext/CMSIS/include/core_cm4.h"
 483              		.file 9 "../../../os/rt/ports/ARMCMx/chcore.h"
 484              		.file 10 "../../../os/rt/ports/ARMCMx/chcore_v7m.h"
 485              		.file 11 "../../../os/rt/include/chdebug.h"
 486              		.file 12 "../../../os/rt/include/chtm.h"
 487              		.file 13 "../../../os/rt/include/chstats.h"
 488              		.file 14 "../../../os/rt/include/chsem.h"
 489              		.file 15 "../../../os/rt/include/chmtx.h"
 490              		.section	.debug_info,"",%progbits
 491              	.Ldebug_info0:
 492 0000 F70B0000 		.4byte	0xbf7
 493 0004 0400     		.2byte	0x4
 494 0006 00000000 		.4byte	.Ldebug_abbrev0
 495 000a 04       		.byte	0x4
 496 000b 01       		.uleb128 0x1
 497 000c 9B060000 		.4byte	.LASF159
 498 0010 01       		.byte	0x1
 499 0011 66010000 		.4byte	.LASF160
 500 0015 7C020000 		.4byte	.LASF161
 501 0019 00000000 		.4byte	.Ldebug_ranges0+0
 502 001d 00000000 		.4byte	0
ARM GAS  /var/folders/c6/c789hm653lg9vtl73krp73tm0000gn/T//ccUvcYCi.s 			page 27


 503 0021 00000000 		.4byte	.Ldebug_line0
 504 0025 02       		.uleb128 0x2
 505 0026 04       		.byte	0x4
 506 0027 05       		.byte	0x5
 507 0028 696E7400 		.ascii	"int\000"
 508 002c 03       		.uleb128 0x3
 509 002d 04       		.byte	0x4
 510 002e 07       		.byte	0x7
 511 002f 3A020000 		.4byte	.LASF0
 512 0033 03       		.uleb128 0x3
 513 0034 01       		.byte	0x1
 514 0035 06       		.byte	0x6
 515 0036 16010000 		.4byte	.LASF1
 516 003a 04       		.uleb128 0x4
 517 003b 38000000 		.4byte	.LASF5
 518 003f 03       		.byte	0x3
 519 0040 1C       		.byte	0x1c
 520 0041 45000000 		.4byte	0x45
 521 0045 03       		.uleb128 0x3
 522 0046 01       		.byte	0x1
 523 0047 08       		.byte	0x8
 524 0048 8D040000 		.4byte	.LASF2
 525 004c 03       		.uleb128 0x3
 526 004d 02       		.byte	0x2
 527 004e 05       		.byte	0x5
 528 004f B8040000 		.4byte	.LASF3
 529 0053 03       		.uleb128 0x3
 530 0054 02       		.byte	0x2
 531 0055 07       		.byte	0x7
 532 0056 FC040000 		.4byte	.LASF4
 533 005a 04       		.uleb128 0x4
 534 005b 65030000 		.4byte	.LASF6
 535 005f 03       		.byte	0x3
 536 0060 37       		.byte	0x37
 537 0061 65000000 		.4byte	0x65
 538 0065 03       		.uleb128 0x3
 539 0066 04       		.byte	0x4
 540 0067 05       		.byte	0x5
 541 0068 54010000 		.4byte	.LASF7
 542 006c 04       		.uleb128 0x4
 543 006d DB050000 		.4byte	.LASF8
 544 0071 03       		.byte	0x3
 545 0072 38       		.byte	0x38
 546 0073 77000000 		.4byte	0x77
 547 0077 03       		.uleb128 0x3
 548 0078 04       		.byte	0x4
 549 0079 07       		.byte	0x7
 550 007a 7C050000 		.4byte	.LASF9
 551 007e 03       		.uleb128 0x3
 552 007f 08       		.byte	0x8
 553 0080 05       		.byte	0x5
 554 0081 08010000 		.4byte	.LASF10
 555 0085 04       		.uleb128 0x4
 556 0086 2A040000 		.4byte	.LASF11
 557 008a 03       		.byte	0x3
 558 008b 4E       		.byte	0x4e
 559 008c 90000000 		.4byte	0x90
ARM GAS  /var/folders/c6/c789hm653lg9vtl73krp73tm0000gn/T//ccUvcYCi.s 			page 28


 560 0090 03       		.uleb128 0x3
 561 0091 08       		.byte	0x8
 562 0092 07       		.byte	0x7
 563 0093 91000000 		.4byte	.LASF12
 564 0097 04       		.uleb128 0x4
 565 0098 78060000 		.4byte	.LASF13
 566 009c 04       		.byte	0x4
 567 009d 2A       		.byte	0x2a
 568 009e 3A000000 		.4byte	0x3a
 569 00a2 04       		.uleb128 0x4
 570 00a3 85040000 		.4byte	.LASF14
 571 00a7 04       		.byte	0x4
 572 00a8 41       		.byte	0x41
 573 00a9 5A000000 		.4byte	0x5a
 574 00ad 04       		.uleb128 0x4
 575 00ae 4B050000 		.4byte	.LASF15
 576 00b2 04       		.byte	0x4
 577 00b3 42       		.byte	0x42
 578 00b4 6C000000 		.4byte	0x6c
 579 00b8 04       		.uleb128 0x4
 580 00b9 22000000 		.4byte	.LASF16
 581 00bd 04       		.byte	0x4
 582 00be 4E       		.byte	0x4e
 583 00bf 85000000 		.4byte	0x85
 584 00c3 05       		.uleb128 0x5
 585 00c4 A2000000 		.4byte	0xa2
 586 00c8 05       		.uleb128 0x5
 587 00c9 AD000000 		.4byte	0xad
 588 00cd 04       		.uleb128 0x4
 589 00ce 19060000 		.4byte	.LASF17
 590 00d2 05       		.byte	0x5
 591 00d3 45       		.byte	0x45
 592 00d4 AD000000 		.4byte	0xad
 593 00d8 04       		.uleb128 0x4
 594 00d9 F3000000 		.4byte	.LASF18
 595 00dd 05       		.byte	0x5
 596 00de 46       		.byte	0x46
 597 00df B8000000 		.4byte	0xb8
 598 00e3 04       		.uleb128 0x4
 599 00e4 E4040000 		.4byte	.LASF19
 600 00e8 05       		.byte	0x5
 601 00e9 48       		.byte	0x48
 602 00ea 97000000 		.4byte	0x97
 603 00ee 04       		.uleb128 0x4
 604 00ef 5D010000 		.4byte	.LASF20
 605 00f3 05       		.byte	0x5
 606 00f4 49       		.byte	0x49
 607 00f5 97000000 		.4byte	0x97
 608 00f9 04       		.uleb128 0x4
 609 00fa 40040000 		.4byte	.LASF21
 610 00fe 05       		.byte	0x5
 611 00ff 4A       		.byte	0x4a
 612 0100 97000000 		.4byte	0x97
 613 0104 04       		.uleb128 0x4
 614 0105 6E040000 		.4byte	.LASF22
 615 0109 05       		.byte	0x5
 616 010a 4C       		.byte	0x4c
ARM GAS  /var/folders/c6/c789hm653lg9vtl73krp73tm0000gn/T//ccUvcYCi.s 			page 29


 617 010b AD000000 		.4byte	0xad
 618 010f 04       		.uleb128 0x4
 619 0110 F6020000 		.4byte	.LASF23
 620 0114 05       		.byte	0x5
 621 0115 4D       		.byte	0x4d
 622 0116 A2000000 		.4byte	0xa2
 623 011a 04       		.uleb128 0x4
 624 011b 4A030000 		.4byte	.LASF24
 625 011f 05       		.byte	0x5
 626 0120 4F       		.byte	0x4f
 627 0121 AD000000 		.4byte	0xad
 628 0125 04       		.uleb128 0x4
 629 0126 29020000 		.4byte	.LASF25
 630 012a 05       		.byte	0x5
 631 012b 51       		.byte	0x51
 632 012c A2000000 		.4byte	0xa2
 633 0130 04       		.uleb128 0x4
 634 0131 07030000 		.4byte	.LASF26
 635 0135 05       		.byte	0x5
 636 0136 52       		.byte	0x52
 637 0137 AD000000 		.4byte	0xad
 638 013b 04       		.uleb128 0x4
 639 013c BD050000 		.4byte	.LASF27
 640 0140 06       		.byte	0x6
 641 0141 33       		.byte	0x33
 642 0142 AD000000 		.4byte	0xad
 643 0146 04       		.uleb128 0x4
 644 0147 A8050000 		.4byte	.LASF28
 645 014b 06       		.byte	0x6
 646 014c 3F       		.byte	0x3f
 647 014d 51010000 		.4byte	0x151
 648 0151 06       		.uleb128 0x6
 649 0152 E7020000 		.4byte	.LASF50
 650 0156 60       		.byte	0x60
 651 0157 07       		.byte	0x7
 652 0158 C2       		.byte	0xc2
 653 0159 57020000 		.4byte	0x257
 654 015d 07       		.uleb128 0x7
 655 015e DD040000 		.4byte	.LASF29
 656 0162 07       		.byte	0x7
 657 0163 C3       		.byte	0xc3
 658 0164 62020000 		.4byte	0x262
 659 0168 00       		.byte	0
 660 0169 07       		.uleb128 0x7
 661 016a 67040000 		.4byte	.LASF30
 662 016e 07       		.byte	0x7
 663 016f C5       		.byte	0xc5
 664 0170 62020000 		.4byte	0x262
 665 0174 04       		.byte	0x4
 666 0175 07       		.uleb128 0x7
 667 0176 FC000000 		.4byte	.LASF31
 668 017a 07       		.byte	0x7
 669 017b C7       		.byte	0xc7
 670 017c 04010000 		.4byte	0x104
 671 0180 08       		.byte	0x8
 672 0181 07       		.uleb128 0x7
 673 0182 B0070000 		.4byte	.LASF32
ARM GAS  /var/folders/c6/c789hm653lg9vtl73krp73tm0000gn/T//ccUvcYCi.s 			page 30


 674 0186 07       		.byte	0x7
 675 0187 C8       		.byte	0xc8
 676 0188 5A060000 		.4byte	0x65a
 677 018c 0C       		.byte	0xc
 678 018d 07       		.uleb128 0x7
 679 018e AF010000 		.4byte	.LASF33
 680 0192 07       		.byte	0x7
 681 0193 CA       		.byte	0xca
 682 0194 62020000 		.4byte	0x262
 683 0198 10       		.byte	0x10
 684 0199 07       		.uleb128 0x7
 685 019a ED030000 		.4byte	.LASF34
 686 019e 07       		.byte	0x7
 687 019f CB       		.byte	0xcb
 688 01a0 62020000 		.4byte	0x262
 689 01a4 14       		.byte	0x14
 690 01a5 07       		.uleb128 0x7
 691 01a6 87060000 		.4byte	.LASF35
 692 01aa 07       		.byte	0x7
 693 01ab D2       		.byte	0xd2
 694 01ac 66090000 		.4byte	0x966
 695 01b0 18       		.byte	0x18
 696 01b1 07       		.uleb128 0x7
 697 01b2 2F020000 		.4byte	.LASF36
 698 01b6 07       		.byte	0x7
 699 01b7 D8       		.byte	0xd8
 700 01b8 78090000 		.4byte	0x978
 701 01bc 1C       		.byte	0x1c
 702 01bd 07       		.uleb128 0x7
 703 01be C2040000 		.4byte	.LASF37
 704 01c2 07       		.byte	0x7
 705 01c3 DD       		.byte	0xdd
 706 01c4 EE000000 		.4byte	0xee
 707 01c8 20       		.byte	0x20
 708 01c9 07       		.uleb128 0x7
 709 01ca EC040000 		.4byte	.LASF38
 710 01ce 07       		.byte	0x7
 711 01cf E1       		.byte	0xe1
 712 01d0 E3000000 		.4byte	0xe3
 713 01d4 21       		.byte	0x21
 714 01d5 07       		.uleb128 0x7
 715 01d6 5E060000 		.4byte	.LASF39
 716 01da 07       		.byte	0x7
 717 01db E6       		.byte	0xe6
 718 01dc F9000000 		.4byte	0xf9
 719 01e0 22       		.byte	0x22
 720 01e1 08       		.uleb128 0x8
 721 01e2 705F7500 		.ascii	"p_u\000"
 722 01e6 07       		.byte	0x7
 723 01e7 3101     		.2byte	0x131
 724 01e9 A1080000 		.4byte	0x8a1
 725 01ed 24       		.byte	0x24
 726 01ee 09       		.uleb128 0x9
 727 01ef 89030000 		.4byte	.LASF40
 728 01f3 07       		.byte	0x7
 729 01f4 3601     		.2byte	0x136
 730 01f6 68020000 		.4byte	0x268
ARM GAS  /var/folders/c6/c789hm653lg9vtl73krp73tm0000gn/T//ccUvcYCi.s 			page 31


 731 01fa 28       		.byte	0x28
 732 01fb 09       		.uleb128 0x9
 733 01fc 60020000 		.4byte	.LASF41
 734 0200 07       		.byte	0x7
 735 0201 3C01     		.2byte	0x13c
 736 0203 8C020000 		.4byte	0x28c
 737 0207 2C       		.byte	0x2c
 738 0208 09       		.uleb128 0x9
 739 0209 7B070000 		.4byte	.LASF42
 740 020d 07       		.byte	0x7
 741 020e 4001     		.2byte	0x140
 742 0210 0F010000 		.4byte	0x10f
 743 0214 34       		.byte	0x34
 744 0215 09       		.uleb128 0x9
 745 0216 40050000 		.4byte	.LASF43
 746 021a 07       		.byte	0x7
 747 021b 4601     		.2byte	0x146
 748 021d 1A010000 		.4byte	0x11a
 749 0221 38       		.byte	0x38
 750 0222 09       		.uleb128 0x9
 751 0223 AE040000 		.4byte	.LASF44
 752 0227 07       		.byte	0x7
 753 0228 4D01     		.2byte	0x14d
 754 022a 60090000 		.4byte	0x960
 755 022e 3C       		.byte	0x3c
 756 022f 09       		.uleb128 0x9
 757 0230 C7050000 		.4byte	.LASF45
 758 0234 07       		.byte	0x7
 759 0235 5101     		.2byte	0x151
 760 0237 04010000 		.4byte	0x104
 761 023b 40       		.byte	0x40
 762 023c 09       		.uleb128 0x9
 763 023d 22010000 		.4byte	.LASF46
 764 0241 07       		.byte	0x7
 765 0242 5801     		.2byte	0x158
 766 0244 3F030000 		.4byte	0x33f
 767 0248 44       		.byte	0x44
 768 0249 09       		.uleb128 0x9
 769 024a F4040000 		.4byte	.LASF47
 770 024e 07       		.byte	0x7
 771 024f 5E01     		.2byte	0x15e
 772 0251 52080000 		.4byte	0x852
 773 0255 48       		.byte	0x48
 774 0256 00       		.byte	0
 775 0257 04       		.uleb128 0x4
 776 0258 9C030000 		.4byte	.LASF48
 777 025c 06       		.byte	0x6
 778 025d 44       		.byte	0x44
 779 025e 62020000 		.4byte	0x262
 780 0262 0A       		.uleb128 0xa
 781 0263 04       		.byte	0x4
 782 0264 46010000 		.4byte	0x146
 783 0268 04       		.uleb128 0x4
 784 0269 7A030000 		.4byte	.LASF49
 785 026d 06       		.byte	0x6
 786 026e 49       		.byte	0x49
 787 026f 73020000 		.4byte	0x273
ARM GAS  /var/folders/c6/c789hm653lg9vtl73krp73tm0000gn/T//ccUvcYCi.s 			page 32


 788 0273 06       		.uleb128 0x6
 789 0274 6C050000 		.4byte	.LASF51
 790 0278 04       		.byte	0x4
 791 0279 07       		.byte	0x7
 792 027a B0       		.byte	0xb0
 793 027b 8C020000 		.4byte	0x28c
 794 027f 07       		.uleb128 0x7
 795 0280 DD040000 		.4byte	.LASF29
 796 0284 07       		.byte	0x7
 797 0285 B1       		.byte	0xb1
 798 0286 62020000 		.4byte	0x262
 799 028a 00       		.byte	0
 800 028b 00       		.byte	0
 801 028c 04       		.uleb128 0x4
 802 028d 45060000 		.4byte	.LASF52
 803 0291 06       		.byte	0x6
 804 0292 50       		.byte	0x50
 805 0293 97020000 		.4byte	0x297
 806 0297 06       		.uleb128 0x6
 807 0298 4E000000 		.4byte	.LASF53
 808 029c 08       		.byte	0x8
 809 029d 07       		.byte	0x7
 810 029e B7       		.byte	0xb7
 811 029f BC020000 		.4byte	0x2bc
 812 02a3 07       		.uleb128 0x7
 813 02a4 DD040000 		.4byte	.LASF29
 814 02a8 07       		.byte	0x7
 815 02a9 B8       		.byte	0xb8
 816 02aa 62020000 		.4byte	0x262
 817 02ae 00       		.byte	0
 818 02af 07       		.uleb128 0x7
 819 02b0 67040000 		.4byte	.LASF30
 820 02b4 07       		.byte	0x7
 821 02b5 B9       		.byte	0xb9
 822 02b6 62020000 		.4byte	0x262
 823 02ba 04       		.byte	0x4
 824 02bb 00       		.byte	0
 825 02bc 04       		.uleb128 0x4
 826 02bd 00000000 		.4byte	.LASF54
 827 02c1 06       		.byte	0x6
 828 02c2 57       		.byte	0x57
 829 02c3 C7020000 		.4byte	0x2c7
 830 02c7 0B       		.uleb128 0xb
 831 02c8 3C030000 		.4byte	.LASF55
 832 02cc 1C       		.byte	0x1c
 833 02cd 07       		.byte	0x7
 834 02ce 9001     		.2byte	0x190
 835 02d0 23030000 		.4byte	0x323
 836 02d4 09       		.uleb128 0x9
 837 02d5 5B050000 		.4byte	.LASF56
 838 02d9 07       		.byte	0x7
 839 02da 9101     		.2byte	0x191
 840 02dc 8C020000 		.4byte	0x28c
 841 02e0 00       		.byte	0
 842 02e1 09       		.uleb128 0x9
 843 02e2 CF040000 		.4byte	.LASF57
 844 02e6 07       		.byte	0x7
ARM GAS  /var/folders/c6/c789hm653lg9vtl73krp73tm0000gn/T//ccUvcYCi.s 			page 33


 845 02e7 9201     		.2byte	0x192
 846 02e9 04010000 		.4byte	0x104
 847 02ed 08       		.byte	0x8
 848 02ee 09       		.uleb128 0x9
 849 02ef F5030000 		.4byte	.LASF58
 850 02f3 07       		.byte	0x7
 851 02f4 9401     		.2byte	0x194
 852 02f6 5A060000 		.4byte	0x65a
 853 02fa 0C       		.byte	0xc
 854 02fb 09       		.uleb128 0x9
 855 02fc D1010000 		.4byte	.LASF59
 856 0300 07       		.byte	0x7
 857 0301 9701     		.2byte	0x197
 858 0303 62020000 		.4byte	0x262
 859 0307 10       		.byte	0x10
 860 0308 09       		.uleb128 0x9
 861 0309 22040000 		.4byte	.LASF60
 862 030d 07       		.byte	0x7
 863 030e 9801     		.2byte	0x198
 864 0310 62020000 		.4byte	0x262
 865 0314 14       		.byte	0x14
 866 0315 09       		.uleb128 0x9
 867 0316 18040000 		.4byte	.LASF61
 868 031a 07       		.byte	0x7
 869 031b 9B01     		.2byte	0x19b
 870 031d 62020000 		.4byte	0x262
 871 0321 18       		.byte	0x18
 872 0322 00       		.byte	0
 873 0323 04       		.uleb128 0x4
 874 0324 D2050000 		.4byte	.LASF62
 875 0328 06       		.byte	0x6
 876 0329 5C       		.byte	0x5c
 877 032a 2E030000 		.4byte	0x32e
 878 032e 0A       		.uleb128 0xa
 879 032f 04       		.byte	0x4
 880 0330 34030000 		.4byte	0x334
 881 0334 0C       		.uleb128 0xc
 882 0335 3F030000 		.4byte	0x33f
 883 0339 0D       		.uleb128 0xd
 884 033a 3F030000 		.4byte	0x33f
 885 033e 00       		.byte	0
 886 033f 0E       		.uleb128 0xe
 887 0340 04       		.byte	0x4
 888 0341 04       		.uleb128 0x4
 889 0342 57040000 		.4byte	.LASF63
 890 0346 06       		.byte	0x6
 891 0347 61       		.byte	0x61
 892 0348 4C030000 		.4byte	0x34c
 893 034c 0B       		.uleb128 0xb
 894 034d 22050000 		.4byte	.LASF64
 895 0351 14       		.byte	0x14
 896 0352 07       		.byte	0x7
 897 0353 6B01     		.2byte	0x16b
 898 0355 9B030000 		.4byte	0x39b
 899 0359 09       		.uleb128 0x9
 900 035a 51020000 		.4byte	.LASF65
 901 035e 07       		.byte	0x7
ARM GAS  /var/folders/c6/c789hm653lg9vtl73krp73tm0000gn/T//ccUvcYCi.s 			page 34


 902 035f 6C01     		.2byte	0x16c
 903 0361 7E090000 		.4byte	0x97e
 904 0365 00       		.byte	0
 905 0366 09       		.uleb128 0x9
 906 0367 E2010000 		.4byte	.LASF66
 907 036b 07       		.byte	0x7
 908 036c 6D01     		.2byte	0x16d
 909 036e 7E090000 		.4byte	0x97e
 910 0372 04       		.byte	0x4
 911 0373 09       		.uleb128 0x9
 912 0374 63050000 		.4byte	.LASF67
 913 0378 07       		.byte	0x7
 914 0379 6E01     		.2byte	0x16e
 915 037b 3B010000 		.4byte	0x13b
 916 037f 08       		.byte	0x8
 917 0380 09       		.uleb128 0x9
 918 0381 B6070000 		.4byte	.LASF68
 919 0385 07       		.byte	0x7
 920 0386 6F01     		.2byte	0x16f
 921 0388 23030000 		.4byte	0x323
 922 038c 0C       		.byte	0xc
 923 038d 09       		.uleb128 0x9
 924 038e 3E060000 		.4byte	.LASF69
 925 0392 07       		.byte	0x7
 926 0393 7101     		.2byte	0x171
 927 0395 3F030000 		.4byte	0x33f
 928 0399 10       		.byte	0x10
 929 039a 00       		.byte	0
 930 039b 04       		.uleb128 0x4
 931 039c D7000000 		.4byte	.LASF70
 932 03a0 06       		.byte	0x6
 933 03a1 66       		.byte	0x66
 934 03a2 A6030000 		.4byte	0x3a6
 935 03a6 0B       		.uleb128 0xb
 936 03a7 AF030000 		.4byte	.LASF71
 937 03ab 10       		.byte	0x10
 938 03ac 07       		.byte	0x7
 939 03ad 7B01     		.2byte	0x17b
 940 03af E8030000 		.4byte	0x3e8
 941 03b3 09       		.uleb128 0x9
 942 03b4 51020000 		.4byte	.LASF65
 943 03b8 07       		.byte	0x7
 944 03b9 7C01     		.2byte	0x17c
 945 03bb 7E090000 		.4byte	0x97e
 946 03bf 00       		.byte	0
 947 03c0 09       		.uleb128 0x9
 948 03c1 E2010000 		.4byte	.LASF66
 949 03c5 07       		.byte	0x7
 950 03c6 7E01     		.2byte	0x17e
 951 03c8 7E090000 		.4byte	0x97e
 952 03cc 04       		.byte	0x4
 953 03cd 09       		.uleb128 0x9
 954 03ce 63050000 		.4byte	.LASF67
 955 03d2 07       		.byte	0x7
 956 03d3 8001     		.2byte	0x180
 957 03d5 3B010000 		.4byte	0x13b
 958 03d9 08       		.byte	0x8
ARM GAS  /var/folders/c6/c789hm653lg9vtl73krp73tm0000gn/T//ccUvcYCi.s 			page 35


 959 03da 09       		.uleb128 0x9
 960 03db E1030000 		.4byte	.LASF72
 961 03df 07       		.byte	0x7
 962 03e0 8801     		.2byte	0x188
 963 03e2 3B010000 		.4byte	0x13b
 964 03e6 0C       		.byte	0xc
 965 03e7 00       		.byte	0
 966 03e8 04       		.uleb128 0x4
 967 03e9 5F000000 		.4byte	.LASF73
 968 03ed 06       		.byte	0x6
 969 03ee 6B       		.byte	0x6b
 970 03ef F3030000 		.4byte	0x3f3
 971 03f3 0F       		.uleb128 0xf
 972 03f4 F3010000 		.4byte	.LASF74
 973 03f8 1404     		.2byte	0x414
 974 03fa 07       		.byte	0x7
 975 03fb A201     		.2byte	0x1a2
 976 03fd 36040000 		.4byte	0x436
 977 0401 09       		.uleb128 0x9
 978 0402 F4050000 		.4byte	.LASF75
 979 0406 07       		.byte	0x7
 980 0407 AA01     		.2byte	0x1aa
 981 0409 84090000 		.4byte	0x984
 982 040d 00       		.byte	0
 983 040e 09       		.uleb128 0x9
 984 040f 65060000 		.4byte	.LASF76
 985 0413 07       		.byte	0x7
 986 0414 AF01     		.2byte	0x1af
 987 0416 25010000 		.4byte	0x125
 988 041a 04       		.byte	0x4
 989 041b 09       		.uleb128 0x9
 990 041c 11020000 		.4byte	.LASF77
 991 0420 07       		.byte	0x7
 992 0421 B301     		.2byte	0x1b3
 993 0423 25010000 		.4byte	0x125
 994 0427 08       		.byte	0x8
 995 0428 09       		.uleb128 0x9
 996 0429 8E060000 		.4byte	.LASF78
 997 042d 07       		.byte	0x7
 998 042e B901     		.2byte	0x1b9
 999 0430 E4070000 		.4byte	0x7e4
 1000 0434 0C       		.byte	0xc
 1001 0435 00       		.byte	0
 1002 0436 04       		.uleb128 0x4
 1003 0437 0D060000 		.4byte	.LASF79
 1004 043b 06       		.byte	0x6
 1005 043c 70       		.byte	0x70
 1006 043d 41040000 		.4byte	0x441
 1007 0441 0F       		.uleb128 0xf
 1008 0442 4A010000 		.4byte	.LASF80
 1009 0446 D805     		.2byte	0x5d8
 1010 0448 07       		.byte	0x7
 1011 0449 C201     		.2byte	0x1c2
 1012 044b AE040000 		.4byte	0x4ae
 1013 044f 09       		.uleb128 0x9
 1014 0450 72060000 		.4byte	.LASF81
 1015 0454 07       		.byte	0x7
ARM GAS  /var/folders/c6/c789hm653lg9vtl73krp73tm0000gn/T//ccUvcYCi.s 			page 36


 1016 0455 C601     		.2byte	0x1c6
 1017 0457 BC020000 		.4byte	0x2bc
 1018 045b 00       		.byte	0
 1019 045c 09       		.uleb128 0x9
 1020 045d 32010000 		.4byte	.LASF82
 1021 0461 07       		.byte	0x7
 1022 0462 CA01     		.2byte	0x1ca
 1023 0464 9B030000 		.4byte	0x39b
 1024 0468 1C       		.byte	0x1c
 1025 0469 08       		.uleb128 0x8
 1026 046a 64626700 		.ascii	"dbg\000"
 1027 046e 07       		.byte	0x7
 1028 046f CE01     		.2byte	0x1ce
 1029 0471 E8030000 		.4byte	0x3e8
 1030 0475 2C       		.byte	0x2c
 1031 0476 10       		.uleb128 0x10
 1032 0477 CC000000 		.4byte	.LASF83
 1033 047b 07       		.byte	0x7
 1034 047c D201     		.2byte	0x1d2
 1035 047e 46010000 		.4byte	0x146
 1036 0482 4004     		.2byte	0x440
 1037 0484 11       		.uleb128 0x11
 1038 0485 746D00   		.ascii	"tm\000"
 1039 0488 07       		.byte	0x7
 1040 0489 D701     		.2byte	0x1d7
 1041 048b 04080000 		.4byte	0x804
 1042 048f A004     		.2byte	0x4a0
 1043 0491 10       		.uleb128 0x10
 1044 0492 2B000000 		.4byte	.LASF84
 1045 0496 07       		.byte	0x7
 1046 0497 DD01     		.2byte	0x1dd
 1047 0499 96080000 		.4byte	0x896
 1048 049d A804     		.2byte	0x4a8
 1049 049f 10       		.uleb128 0x10
 1050 04a0 1A020000 		.4byte	.LASF85
 1051 04a4 07       		.byte	0x7
 1052 04a5 E301     		.2byte	0x1e3
 1053 04a7 89090000 		.4byte	0x989
 1054 04ab E004     		.2byte	0x4e0
 1055 04ad 00       		.byte	0
 1056 04ae 03       		.uleb128 0x3
 1057 04af 04       		.byte	0x4
 1058 04b0 07       		.byte	0x7
 1059 04b1 93030000 		.4byte	.LASF86
 1060 04b5 12       		.uleb128 0x12
 1061 04b6 8C       		.byte	0x8c
 1062 04b7 08       		.byte	0x8
 1063 04b8 7001     		.2byte	0x170
 1064 04ba D0050000 		.4byte	0x5d0
 1065 04be 09       		.uleb128 0x9
 1066 04bf ED000000 		.4byte	.LASF87
 1067 04c3 08       		.byte	0x8
 1068 04c4 7201     		.2byte	0x172
 1069 04c6 D0050000 		.4byte	0x5d0
 1070 04ca 00       		.byte	0
 1071 04cb 09       		.uleb128 0x9
 1072 04cc F1020000 		.4byte	.LASF88
ARM GAS  /var/folders/c6/c789hm653lg9vtl73krp73tm0000gn/T//ccUvcYCi.s 			page 37


 1073 04d0 08       		.byte	0x8
 1074 04d1 7301     		.2byte	0x173
 1075 04d3 C8000000 		.4byte	0xc8
 1076 04d7 04       		.byte	0x4
 1077 04d8 09       		.uleb128 0x9
 1078 04d9 71020000 		.4byte	.LASF89
 1079 04dd 08       		.byte	0x8
 1080 04de 7401     		.2byte	0x174
 1081 04e0 C8000000 		.4byte	0xc8
 1082 04e4 08       		.byte	0x8
 1083 04e5 09       		.uleb128 0x9
 1084 04e6 FC020000 		.4byte	.LASF90
 1085 04ea 08       		.byte	0x8
 1086 04eb 7501     		.2byte	0x175
 1087 04ed C8000000 		.4byte	0xc8
 1088 04f1 0C       		.byte	0xc
 1089 04f2 08       		.uleb128 0x8
 1090 04f3 53435200 		.ascii	"SCR\000"
 1091 04f7 08       		.byte	0x8
 1092 04f8 7601     		.2byte	0x176
 1093 04fa C8000000 		.4byte	0xc8
 1094 04fe 10       		.byte	0x10
 1095 04ff 08       		.uleb128 0x8
 1096 0500 43435200 		.ascii	"CCR\000"
 1097 0504 08       		.byte	0x8
 1098 0505 7701     		.2byte	0x177
 1099 0507 C8000000 		.4byte	0xc8
 1100 050b 14       		.byte	0x14
 1101 050c 08       		.uleb128 0x8
 1102 050d 53485000 		.ascii	"SHP\000"
 1103 0511 08       		.byte	0x8
 1104 0512 7801     		.2byte	0x178
 1105 0514 E5050000 		.4byte	0x5e5
 1106 0518 18       		.byte	0x18
 1107 0519 09       		.uleb128 0x9
 1108 051a 9B040000 		.4byte	.LASF91
 1109 051e 08       		.byte	0x8
 1110 051f 7901     		.2byte	0x179
 1111 0521 C8000000 		.4byte	0xc8
 1112 0525 24       		.byte	0x24
 1113 0526 09       		.uleb128 0x9
 1114 0527 C6030000 		.4byte	.LASF92
 1115 052b 08       		.byte	0x8
 1116 052c 7A01     		.2byte	0x17a
 1117 052e C8000000 		.4byte	0xc8
 1118 0532 28       		.byte	0x28
 1119 0533 09       		.uleb128 0x9
 1120 0534 87070000 		.4byte	.LASF93
 1121 0538 08       		.byte	0x8
 1122 0539 7B01     		.2byte	0x17b
 1123 053b C8000000 		.4byte	0xc8
 1124 053f 2C       		.byte	0x2c
 1125 0540 09       		.uleb128 0x9
 1126 0541 02030000 		.4byte	.LASF94
 1127 0545 08       		.byte	0x8
 1128 0546 7C01     		.2byte	0x17c
 1129 0548 C8000000 		.4byte	0xc8
ARM GAS  /var/folders/c6/c789hm653lg9vtl73krp73tm0000gn/T//ccUvcYCi.s 			page 38


 1130 054c 30       		.byte	0x30
 1131 054d 09       		.uleb128 0x9
 1132 054e 0E030000 		.4byte	.LASF95
 1133 0552 08       		.byte	0x8
 1134 0553 7D01     		.2byte	0x17d
 1135 0555 C8000000 		.4byte	0xc8
 1136 0559 34       		.byte	0x34
 1137 055a 09       		.uleb128 0x9
 1138 055b BF010000 		.4byte	.LASF96
 1139 055f 08       		.byte	0x8
 1140 0560 7E01     		.2byte	0x17e
 1141 0562 C8000000 		.4byte	0xc8
 1142 0566 38       		.byte	0x38
 1143 0567 09       		.uleb128 0x9
 1144 0568 CC010000 		.4byte	.LASF97
 1145 056c 08       		.byte	0x8
 1146 056d 7F01     		.2byte	0x17f
 1147 056f C8000000 		.4byte	0xc8
 1148 0573 3C       		.byte	0x3c
 1149 0574 08       		.uleb128 0x8
 1150 0575 50465200 		.ascii	"PFR\000"
 1151 0579 08       		.byte	0x8
 1152 057a 8001     		.2byte	0x180
 1153 057c FA050000 		.4byte	0x5fa
 1154 0580 40       		.byte	0x40
 1155 0581 08       		.uleb128 0x8
 1156 0582 44465200 		.ascii	"DFR\000"
 1157 0586 08       		.byte	0x8
 1158 0587 8101     		.2byte	0x181
 1159 0589 D0050000 		.4byte	0x5d0
 1160 058d 48       		.byte	0x48
 1161 058e 08       		.uleb128 0x8
 1162 058f 41445200 		.ascii	"ADR\000"
 1163 0593 08       		.byte	0x8
 1164 0594 8201     		.2byte	0x182
 1165 0596 D0050000 		.4byte	0x5d0
 1166 059a 4C       		.byte	0x4c
 1167 059b 09       		.uleb128 0x9
 1168 059c 6D060000 		.4byte	.LASF98
 1169 05a0 08       		.byte	0x8
 1170 05a1 8301     		.2byte	0x183
 1171 05a3 14060000 		.4byte	0x614
 1172 05a7 50       		.byte	0x50
 1173 05a8 09       		.uleb128 0x9
 1174 05a9 03010000 		.4byte	.LASF99
 1175 05ad 08       		.byte	0x8
 1176 05ae 8401     		.2byte	0x184
 1177 05b0 2E060000 		.4byte	0x62e
 1178 05b4 60       		.byte	0x60
 1179 05b5 09       		.uleb128 0x9
 1180 05b6 48040000 		.4byte	.LASF100
 1181 05ba 08       		.byte	0x8
 1182 05bb 8501     		.2byte	0x185
 1183 05bd 1E060000 		.4byte	0x61e
 1184 05c1 74       		.byte	0x74
 1185 05c2 09       		.uleb128 0x9
 1186 05c3 81070000 		.4byte	.LASF101
ARM GAS  /var/folders/c6/c789hm653lg9vtl73krp73tm0000gn/T//ccUvcYCi.s 			page 39


 1187 05c7 08       		.byte	0x8
 1188 05c8 8601     		.2byte	0x186
 1189 05ca C8000000 		.4byte	0xc8
 1190 05ce 88       		.byte	0x88
 1191 05cf 00       		.byte	0
 1192 05d0 13       		.uleb128 0x13
 1193 05d1 C8000000 		.4byte	0xc8
 1194 05d5 14       		.uleb128 0x14
 1195 05d6 97000000 		.4byte	0x97
 1196 05da E5050000 		.4byte	0x5e5
 1197 05de 15       		.uleb128 0x15
 1198 05df AE040000 		.4byte	0x4ae
 1199 05e3 0B       		.byte	0xb
 1200 05e4 00       		.byte	0
 1201 05e5 05       		.uleb128 0x5
 1202 05e6 D5050000 		.4byte	0x5d5
 1203 05ea 14       		.uleb128 0x14
 1204 05eb AD000000 		.4byte	0xad
 1205 05ef FA050000 		.4byte	0x5fa
 1206 05f3 15       		.uleb128 0x15
 1207 05f4 AE040000 		.4byte	0x4ae
 1208 05f8 01       		.byte	0x1
 1209 05f9 00       		.byte	0
 1210 05fa 13       		.uleb128 0x13
 1211 05fb FF050000 		.4byte	0x5ff
 1212 05ff 05       		.uleb128 0x5
 1213 0600 EA050000 		.4byte	0x5ea
 1214 0604 14       		.uleb128 0x14
 1215 0605 AD000000 		.4byte	0xad
 1216 0609 14060000 		.4byte	0x614
 1217 060d 15       		.uleb128 0x15
 1218 060e AE040000 		.4byte	0x4ae
 1219 0612 03       		.byte	0x3
 1220 0613 00       		.byte	0
 1221 0614 13       		.uleb128 0x13
 1222 0615 19060000 		.4byte	0x619
 1223 0619 05       		.uleb128 0x5
 1224 061a 04060000 		.4byte	0x604
 1225 061e 14       		.uleb128 0x14
 1226 061f AD000000 		.4byte	0xad
 1227 0623 2E060000 		.4byte	0x62e
 1228 0627 15       		.uleb128 0x15
 1229 0628 AE040000 		.4byte	0x4ae
 1230 062c 04       		.byte	0x4
 1231 062d 00       		.byte	0
 1232 062e 13       		.uleb128 0x13
 1233 062f 33060000 		.4byte	0x633
 1234 0633 05       		.uleb128 0x5
 1235 0634 1E060000 		.4byte	0x61e
 1236 0638 16       		.uleb128 0x16
 1237 0639 EA010000 		.4byte	.LASF102
 1238 063d 08       		.byte	0x8
 1239 063e 8701     		.2byte	0x187
 1240 0640 B5040000 		.4byte	0x4b5
 1241 0644 04       		.uleb128 0x4
 1242 0645 D9010000 		.4byte	.LASF103
 1243 0649 09       		.byte	0x9
ARM GAS  /var/folders/c6/c789hm653lg9vtl73krp73tm0000gn/T//ccUvcYCi.s 			page 40


 1244 064a 65       		.byte	0x65
 1245 064b 3F030000 		.4byte	0x33f
 1246 064f 04       		.uleb128 0x4
 1247 0650 6F030000 		.4byte	.LASF104
 1248 0654 09       		.byte	0x9
 1249 0655 6D       		.byte	0x6d
 1250 0656 B8000000 		.4byte	0xb8
 1251 065a 06       		.uleb128 0x6
 1252 065b 05060000 		.4byte	.LASF105
 1253 065f 04       		.byte	0x4
 1254 0660 09       		.byte	0x9
 1255 0661 89       		.byte	0x89
 1256 0662 73060000 		.4byte	0x673
 1257 0666 17       		.uleb128 0x17
 1258 0667 72313300 		.ascii	"r13\000"
 1259 066b 09       		.byte	0x9
 1260 066c 8A       		.byte	0x8a
 1261 066d EE060000 		.4byte	0x6ee
 1262 0671 00       		.byte	0
 1263 0672 00       		.byte	0
 1264 0673 06       		.uleb128 0x6
 1265 0674 42000000 		.4byte	.LASF106
 1266 0678 24       		.byte	0x24
 1267 0679 0A       		.byte	0xa
 1268 067a F4       		.byte	0xf4
 1269 067b EE060000 		.4byte	0x6ee
 1270 067f 08       		.uleb128 0x8
 1271 0680 723400   		.ascii	"r4\000"
 1272 0683 0A       		.byte	0xa
 1273 0684 0701     		.2byte	0x107
 1274 0686 44060000 		.4byte	0x644
 1275 068a 00       		.byte	0
 1276 068b 08       		.uleb128 0x8
 1277 068c 723500   		.ascii	"r5\000"
 1278 068f 0A       		.byte	0xa
 1279 0690 0801     		.2byte	0x108
 1280 0692 44060000 		.4byte	0x644
 1281 0696 04       		.byte	0x4
 1282 0697 08       		.uleb128 0x8
 1283 0698 723600   		.ascii	"r6\000"
 1284 069b 0A       		.byte	0xa
 1285 069c 0901     		.2byte	0x109
 1286 069e 44060000 		.4byte	0x644
 1287 06a2 08       		.byte	0x8
 1288 06a3 08       		.uleb128 0x8
 1289 06a4 723700   		.ascii	"r7\000"
 1290 06a7 0A       		.byte	0xa
 1291 06a8 0A01     		.2byte	0x10a
 1292 06aa 44060000 		.4byte	0x644
 1293 06ae 0C       		.byte	0xc
 1294 06af 08       		.uleb128 0x8
 1295 06b0 723800   		.ascii	"r8\000"
 1296 06b3 0A       		.byte	0xa
 1297 06b4 0B01     		.2byte	0x10b
 1298 06b6 44060000 		.4byte	0x644
 1299 06ba 10       		.byte	0x10
 1300 06bb 08       		.uleb128 0x8
ARM GAS  /var/folders/c6/c789hm653lg9vtl73krp73tm0000gn/T//ccUvcYCi.s 			page 41


 1301 06bc 723900   		.ascii	"r9\000"
 1302 06bf 0A       		.byte	0xa
 1303 06c0 0C01     		.2byte	0x10c
 1304 06c2 44060000 		.4byte	0x644
 1305 06c6 14       		.byte	0x14
 1306 06c7 08       		.uleb128 0x8
 1307 06c8 72313000 		.ascii	"r10\000"
 1308 06cc 0A       		.byte	0xa
 1309 06cd 0D01     		.2byte	0x10d
 1310 06cf 44060000 		.4byte	0x644
 1311 06d3 18       		.byte	0x18
 1312 06d4 08       		.uleb128 0x8
 1313 06d5 72313100 		.ascii	"r11\000"
 1314 06d9 0A       		.byte	0xa
 1315 06da 0E01     		.2byte	0x10e
 1316 06dc 44060000 		.4byte	0x644
 1317 06e0 1C       		.byte	0x1c
 1318 06e1 08       		.uleb128 0x8
 1319 06e2 6C7200   		.ascii	"lr\000"
 1320 06e5 0A       		.byte	0xa
 1321 06e6 0F01     		.2byte	0x10f
 1322 06e8 44060000 		.4byte	0x644
 1323 06ec 20       		.byte	0x20
 1324 06ed 00       		.byte	0
 1325 06ee 0A       		.uleb128 0xa
 1326 06ef 04       		.byte	0x4
 1327 06f0 73060000 		.4byte	0x673
 1328 06f4 06       		.uleb128 0x6
 1329 06f5 FB030000 		.4byte	.LASF107
 1330 06f9 20       		.byte	0x20
 1331 06fa 0A       		.byte	0xa
 1332 06fb D5       		.byte	0xd5
 1333 06fc 5C070000 		.4byte	0x75c
 1334 0700 17       		.uleb128 0x17
 1335 0701 723000   		.ascii	"r0\000"
 1336 0704 0A       		.byte	0xa
 1337 0705 D6       		.byte	0xd6
 1338 0706 44060000 		.4byte	0x644
 1339 070a 00       		.byte	0
 1340 070b 17       		.uleb128 0x17
 1341 070c 723100   		.ascii	"r1\000"
 1342 070f 0A       		.byte	0xa
 1343 0710 D7       		.byte	0xd7
 1344 0711 44060000 		.4byte	0x644
 1345 0715 04       		.byte	0x4
 1346 0716 17       		.uleb128 0x17
 1347 0717 723200   		.ascii	"r2\000"
 1348 071a 0A       		.byte	0xa
 1349 071b D8       		.byte	0xd8
 1350 071c 44060000 		.4byte	0x644
 1351 0720 08       		.byte	0x8
 1352 0721 17       		.uleb128 0x17
 1353 0722 723300   		.ascii	"r3\000"
 1354 0725 0A       		.byte	0xa
 1355 0726 D9       		.byte	0xd9
 1356 0727 44060000 		.4byte	0x644
 1357 072b 0C       		.byte	0xc
ARM GAS  /var/folders/c6/c789hm653lg9vtl73krp73tm0000gn/T//ccUvcYCi.s 			page 42


 1358 072c 17       		.uleb128 0x17
 1359 072d 72313200 		.ascii	"r12\000"
 1360 0731 0A       		.byte	0xa
 1361 0732 DA       		.byte	0xda
 1362 0733 44060000 		.4byte	0x644
 1363 0737 10       		.byte	0x10
 1364 0738 07       		.uleb128 0x7
 1365 0739 0F050000 		.4byte	.LASF108
 1366 073d 0A       		.byte	0xa
 1367 073e DB       		.byte	0xdb
 1368 073f 44060000 		.4byte	0x644
 1369 0743 14       		.byte	0x14
 1370 0744 17       		.uleb128 0x17
 1371 0745 706300   		.ascii	"pc\000"
 1372 0748 0A       		.byte	0xa
 1373 0749 DC       		.byte	0xdc
 1374 074a 44060000 		.4byte	0x644
 1375 074e 18       		.byte	0x18
 1376 074f 07       		.uleb128 0x7
 1377 0750 CA040000 		.4byte	.LASF109
 1378 0754 0A       		.byte	0xa
 1379 0755 DD       		.byte	0xdd
 1380 0756 44060000 		.4byte	0x644
 1381 075a 1C       		.byte	0x1c
 1382 075b 00       		.byte	0
 1383 075c 18       		.uleb128 0x18
 1384 075d 10       		.byte	0x10
 1385 075e 0B       		.byte	0xb
 1386 075f 51       		.byte	0x51
 1387 0760 95070000 		.4byte	0x795
 1388 0764 07       		.uleb128 0x7
 1389 0765 0D000000 		.4byte	.LASF110
 1390 0769 0B       		.byte	0xb
 1391 076a 55       		.byte	0x55
 1392 076b 3B010000 		.4byte	0x13b
 1393 076f 00       		.byte	0
 1394 0770 07       		.uleb128 0x7
 1395 0771 8F010000 		.4byte	.LASF111
 1396 0775 0B       		.byte	0xb
 1397 0776 59       		.byte	0x59
 1398 0777 62020000 		.4byte	0x262
 1399 077b 04       		.byte	0x4
 1400 077c 07       		.uleb128 0x7
 1401 077d A6070000 		.4byte	.LASF112
 1402 0781 0B       		.byte	0xb
 1403 0782 5D       		.byte	0x5d
 1404 0783 3F030000 		.4byte	0x33f
 1405 0787 08       		.byte	0x8
 1406 0788 07       		.uleb128 0x7
 1407 0789 BA000000 		.4byte	.LASF113
 1408 078d 0B       		.byte	0xb
 1409 078e 61       		.byte	0x61
 1410 078f 97000000 		.4byte	0x97
 1411 0793 0C       		.byte	0xc
 1412 0794 00       		.byte	0
 1413 0795 04       		.uleb128 0x4
 1414 0796 D2030000 		.4byte	.LASF114
ARM GAS  /var/folders/c6/c789hm653lg9vtl73krp73tm0000gn/T//ccUvcYCi.s 			page 43


 1415 079a 0B       		.byte	0xb
 1416 079b 62       		.byte	0x62
 1417 079c 5C070000 		.4byte	0x75c
 1418 07a0 19       		.uleb128 0x19
 1419 07a1 0804     		.2byte	0x408
 1420 07a3 0B       		.byte	0xb
 1421 07a4 67       		.byte	0x67
 1422 07a5 CE070000 		.4byte	0x7ce
 1423 07a9 07       		.uleb128 0x7
 1424 07aa C4010000 		.4byte	.LASF115
 1425 07ae 0B       		.byte	0xb
 1426 07af 6B       		.byte	0x6b
 1427 07b0 2C000000 		.4byte	0x2c
 1428 07b4 00       		.byte	0
 1429 07b5 07       		.uleb128 0x7
 1430 07b6 CB030000 		.4byte	.LASF116
 1431 07ba 0B       		.byte	0xb
 1432 07bb 6F       		.byte	0x6f
 1433 07bc CE070000 		.4byte	0x7ce
 1434 07c0 04       		.byte	0x4
 1435 07c1 07       		.uleb128 0x7
 1436 07c2 27030000 		.4byte	.LASF117
 1437 07c6 0B       		.byte	0xb
 1438 07c7 73       		.byte	0x73
 1439 07c8 D4070000 		.4byte	0x7d4
 1440 07cc 08       		.byte	0x8
 1441 07cd 00       		.byte	0
 1442 07ce 0A       		.uleb128 0xa
 1443 07cf 04       		.byte	0x4
 1444 07d0 95070000 		.4byte	0x795
 1445 07d4 14       		.uleb128 0x14
 1446 07d5 95070000 		.4byte	0x795
 1447 07d9 E4070000 		.4byte	0x7e4
 1448 07dd 15       		.uleb128 0x15
 1449 07de AE040000 		.4byte	0x4ae
 1450 07e2 3F       		.byte	0x3f
 1451 07e3 00       		.byte	0
 1452 07e4 04       		.uleb128 0x4
 1453 07e5 A8000000 		.4byte	.LASF118
 1454 07e9 0B       		.byte	0xb
 1455 07ea 74       		.byte	0x74
 1456 07eb A0070000 		.4byte	0x7a0
 1457 07ef 18       		.uleb128 0x18
 1458 07f0 04       		.byte	0x4
 1459 07f1 0C       		.byte	0xc
 1460 07f2 38       		.byte	0x38
 1461 07f3 04080000 		.4byte	0x804
 1462 07f7 07       		.uleb128 0x7
 1463 07f8 FE050000 		.4byte	.LASF119
 1464 07fc 0C       		.byte	0xc
 1465 07fd 3C       		.byte	0x3c
 1466 07fe CD000000 		.4byte	0xcd
 1467 0802 00       		.byte	0
 1468 0803 00       		.byte	0
 1469 0804 04       		.uleb128 0x4
 1470 0805 07040000 		.4byte	.LASF120
 1471 0809 0C       		.byte	0xc
ARM GAS  /var/folders/c6/c789hm653lg9vtl73krp73tm0000gn/T//ccUvcYCi.s 			page 44


 1472 080a 3D       		.byte	0x3d
 1473 080b EF070000 		.4byte	0x7ef
 1474 080f 18       		.uleb128 0x18
 1475 0810 18       		.byte	0x18
 1476 0811 0C       		.byte	0xc
 1477 0812 48       		.byte	0x48
 1478 0813 52080000 		.4byte	0x852
 1479 0817 07       		.uleb128 0x7
 1480 0818 B1050000 		.4byte	.LASF121
 1481 081c 0C       		.byte	0xc
 1482 081d 49       		.byte	0x49
 1483 081e CD000000 		.4byte	0xcd
 1484 0822 00       		.byte	0
 1485 0823 07       		.uleb128 0x7
 1486 0824 78000000 		.4byte	.LASF122
 1487 0828 0C       		.byte	0xc
 1488 0829 4A       		.byte	0x4a
 1489 082a CD000000 		.4byte	0xcd
 1490 082e 04       		.byte	0x4
 1491 082f 07       		.uleb128 0x7
 1492 0830 45010000 		.4byte	.LASF123
 1493 0834 0C       		.byte	0xc
 1494 0835 4B       		.byte	0x4b
 1495 0836 CD000000 		.4byte	0xcd
 1496 083a 08       		.byte	0x8
 1497 083b 17       		.uleb128 0x17
 1498 083c 6E00     		.ascii	"n\000"
 1499 083e 0C       		.byte	0xc
 1500 083f 4C       		.byte	0x4c
 1501 0840 30010000 		.4byte	0x130
 1502 0844 0C       		.byte	0xc
 1503 0845 07       		.uleb128 0x7
 1504 0846 35040000 		.4byte	.LASF124
 1505 084a 0C       		.byte	0xc
 1506 084b 4D       		.byte	0x4d
 1507 084c D8000000 		.4byte	0xd8
 1508 0850 10       		.byte	0x10
 1509 0851 00       		.byte	0
 1510 0852 04       		.uleb128 0x4
 1511 0853 7E000000 		.4byte	.LASF125
 1512 0857 0C       		.byte	0xc
 1513 0858 4E       		.byte	0x4e
 1514 0859 0F080000 		.4byte	0x80f
 1515 085d 18       		.uleb128 0x18
 1516 085e 38       		.byte	0x38
 1517 085f 0D       		.byte	0xd
 1518 0860 38       		.byte	0x38
 1519 0861 96080000 		.4byte	0x896
 1520 0865 07       		.uleb128 0x7
 1521 0866 6B020000 		.4byte	.LASF126
 1522 086a 0D       		.byte	0xd
 1523 086b 39       		.byte	0x39
 1524 086c 30010000 		.4byte	0x130
 1525 0870 00       		.byte	0
 1526 0871 07       		.uleb128 0x7
 1527 0872 76040000 		.4byte	.LASF127
 1528 0876 0D       		.byte	0xd
ARM GAS  /var/folders/c6/c789hm653lg9vtl73krp73tm0000gn/T//ccUvcYCi.s 			page 45


 1529 0877 3A       		.byte	0x3a
 1530 0878 30010000 		.4byte	0x130
 1531 087c 04       		.byte	0x4
 1532 087d 07       		.uleb128 0x7
 1533 087e 8C070000 		.4byte	.LASF128
 1534 0882 0D       		.byte	0xd
 1535 0883 3B       		.byte	0x3b
 1536 0884 52080000 		.4byte	0x852
 1537 0888 08       		.byte	0x8
 1538 0889 07       		.uleb128 0x7
 1539 088a 31030000 		.4byte	.LASF129
 1540 088e 0D       		.byte	0xd
 1541 088f 3D       		.byte	0x3d
 1542 0890 52080000 		.4byte	0x852
 1543 0894 20       		.byte	0x20
 1544 0895 00       		.byte	0
 1545 0896 04       		.uleb128 0x4
 1546 0897 D8020000 		.4byte	.LASF130
 1547 089b 0D       		.byte	0xd
 1548 089c 3F       		.byte	0x3f
 1549 089d 5D080000 		.4byte	0x85d
 1550 08a1 1A       		.uleb128 0x1a
 1551 08a2 04       		.byte	0x4
 1552 08a3 07       		.byte	0x7
 1553 08a4 FA       		.byte	0xfa
 1554 08a5 FE080000 		.4byte	0x8fe
 1555 08a9 1B       		.uleb128 0x1b
 1556 08aa 1B000000 		.4byte	.LASF131
 1557 08ae 07       		.byte	0x7
 1558 08af 0101     		.2byte	0x101
 1559 08b1 0F010000 		.4byte	0x10f
 1560 08b5 1B       		.uleb128 0x1b
 1561 08b6 C3000000 		.4byte	.LASF132
 1562 08ba 07       		.byte	0x7
 1563 08bb 0801     		.2byte	0x108
 1564 08bd 0F010000 		.4byte	0x10f
 1565 08c1 1B       		.uleb128 0x1b
 1566 08c2 80060000 		.4byte	.LASF133
 1567 08c6 07       		.byte	0x7
 1568 08c7 0F01     		.2byte	0x10f
 1569 08c9 3F030000 		.4byte	0x33f
 1570 08cd 1B       		.uleb128 0x1b
 1571 08ce 15000000 		.4byte	.LASF134
 1572 08d2 07       		.byte	0x7
 1573 08d3 1601     		.2byte	0x116
 1574 08d5 FE080000 		.4byte	0x8fe
 1575 08d9 1B       		.uleb128 0x1b
 1576 08da 59020000 		.4byte	.LASF135
 1577 08de 07       		.byte	0x7
 1578 08df 1E01     		.2byte	0x11e
 1579 08e1 29090000 		.4byte	0x929
 1580 08e5 1B       		.uleb128 0x1b
 1581 08e6 54050000 		.4byte	.LASF136
 1582 08ea 07       		.byte	0x7
 1583 08eb 2701     		.2byte	0x127
 1584 08ed 60090000 		.4byte	0x960
 1585 08f1 1B       		.uleb128 0x1b
ARM GAS  /var/folders/c6/c789hm653lg9vtl73krp73tm0000gn/T//ccUvcYCi.s 			page 46


 1586 08f2 D6040000 		.4byte	.LASF137
 1587 08f6 07       		.byte	0x7
 1588 08f7 2F01     		.2byte	0x12f
 1589 08f9 1A010000 		.4byte	0x11a
 1590 08fd 00       		.byte	0
 1591 08fe 0A       		.uleb128 0xa
 1592 08ff 04       		.byte	0x4
 1593 0900 57020000 		.4byte	0x257
 1594 0904 06       		.uleb128 0x6
 1595 0905 33050000 		.4byte	.LASF138
 1596 0909 0C       		.byte	0xc
 1597 090a 0E       		.byte	0xe
 1598 090b 34       		.byte	0x34
 1599 090c 29090000 		.4byte	0x929
 1600 0910 07       		.uleb128 0x7
 1601 0911 B7010000 		.4byte	.LASF139
 1602 0915 0E       		.byte	0xe
 1603 0916 35       		.byte	0x35
 1604 0917 8C020000 		.4byte	0x28c
 1605 091b 00       		.byte	0
 1606 091c 07       		.uleb128 0x7
 1607 091d 76020000 		.4byte	.LASF140
 1608 0921 0E       		.byte	0xe
 1609 0922 37       		.byte	0x37
 1610 0923 25010000 		.4byte	0x125
 1611 0927 08       		.byte	0x8
 1612 0928 00       		.byte	0
 1613 0929 0A       		.uleb128 0xa
 1614 092a 04       		.byte	0x4
 1615 092b 04090000 		.4byte	0x904
 1616 092f 06       		.uleb128 0x6
 1617 0930 55060000 		.4byte	.LASF141
 1618 0934 10       		.byte	0x10
 1619 0935 0F       		.byte	0xf
 1620 0936 39       		.byte	0x39
 1621 0937 60090000 		.4byte	0x960
 1622 093b 07       		.uleb128 0x7
 1623 093c 2A010000 		.4byte	.LASF142
 1624 0940 0F       		.byte	0xf
 1625 0941 3A       		.byte	0x3a
 1626 0942 8C020000 		.4byte	0x28c
 1627 0946 00       		.byte	0
 1628 0947 07       		.uleb128 0x7
 1629 0948 97070000 		.4byte	.LASF143
 1630 094c 0F       		.byte	0xf
 1631 094d 3C       		.byte	0x3c
 1632 094e 62020000 		.4byte	0x262
 1633 0952 08       		.byte	0x8
 1634 0953 07       		.uleb128 0x7
 1635 0954 B6050000 		.4byte	.LASF144
 1636 0958 0F       		.byte	0xf
 1637 0959 3E       		.byte	0x3e
 1638 095a A4090000 		.4byte	0x9a4
 1639 095e 0C       		.byte	0xc
 1640 095f 00       		.byte	0
 1641 0960 0A       		.uleb128 0xa
 1642 0961 04       		.byte	0x4
ARM GAS  /var/folders/c6/c789hm653lg9vtl73krp73tm0000gn/T//ccUvcYCi.s 			page 47


 1643 0962 2F090000 		.4byte	0x92f
 1644 0966 0A       		.uleb128 0xa
 1645 0967 04       		.byte	0x4
 1646 0968 6C090000 		.4byte	0x96c
 1647 096c 13       		.uleb128 0x13
 1648 096d 71090000 		.4byte	0x971
 1649 0971 03       		.uleb128 0x3
 1650 0972 01       		.byte	0x1
 1651 0973 08       		.byte	0x8
 1652 0974 8E050000 		.4byte	.LASF145
 1653 0978 0A       		.uleb128 0xa
 1654 0979 04       		.byte	0x4
 1655 097a 4F060000 		.4byte	0x64f
 1656 097e 0A       		.uleb128 0xa
 1657 097f 04       		.byte	0x4
 1658 0980 41030000 		.4byte	0x341
 1659 0984 05       		.uleb128 0x5
 1660 0985 66090000 		.4byte	0x966
 1661 0989 14       		.uleb128 0x14
 1662 098a 4F060000 		.4byte	0x64f
 1663 098e 99090000 		.4byte	0x999
 1664 0992 15       		.uleb128 0x15
 1665 0993 AE040000 		.4byte	0x4ae
 1666 0997 1E       		.byte	0x1e
 1667 0998 00       		.byte	0
 1668 0999 04       		.uleb128 0x4
 1669 099a 03020000 		.4byte	.LASF146
 1670 099e 0F       		.byte	0xf
 1671 099f 34       		.byte	0x34
 1672 09a0 2F090000 		.4byte	0x92f
 1673 09a4 0A       		.uleb128 0xa
 1674 09a5 04       		.byte	0x4
 1675 09a6 99090000 		.4byte	0x999
 1676 09aa 1C       		.uleb128 0x1c
 1677 09ab E6050000 		.4byte	.LASF149
 1678 09af 02       		.byte	0x2
 1679 09b0 2002     		.2byte	0x220
 1680 09b2 03       		.byte	0x3
 1681 09b3 C4090000 		.4byte	0x9c4
 1682 09b7 1D       		.uleb128 0x1d
 1683 09b8 0B020000 		.4byte	.LASF151
 1684 09bc 02       		.byte	0x2
 1685 09bd 2002     		.2byte	0x220
 1686 09bf AD000000 		.4byte	0xad
 1687 09c3 00       		.byte	0
 1688 09c4 1E       		.uleb128 0x1e
 1689 09c5 6E000000 		.4byte	.LASF147
 1690 09c9 0A       		.byte	0xa
 1691 09ca BC01     		.2byte	0x1bc
 1692 09cc 03       		.byte	0x3
 1693 09cd 1E       		.uleb128 0x1e
 1694 09ce 39010000 		.4byte	.LASF148
 1695 09d2 0A       		.byte	0xa
 1696 09d3 CA01     		.2byte	0x1ca
 1697 09d5 03       		.byte	0x3
 1698 09d6 1F       		.uleb128 0x1f
 1699 09d7 34060000 		.4byte	.LASF162
ARM GAS  /var/folders/c6/c789hm653lg9vtl73krp73tm0000gn/T//ccUvcYCi.s 			page 48


 1700 09db 02       		.byte	0x2
 1701 09dc A801     		.2byte	0x1a8
 1702 09de AD000000 		.4byte	0xad
 1703 09e2 03       		.byte	0x3
 1704 09e3 F4090000 		.4byte	0x9f4
 1705 09e7 20       		.uleb128 0x20
 1706 09e8 9F070000 		.4byte	.LASF155
 1707 09ec 02       		.byte	0x2
 1708 09ed AA01     		.2byte	0x1aa
 1709 09ef AD000000 		.4byte	0xad
 1710 09f3 00       		.byte	0
 1711 09f4 1C       		.uleb128 0x1c
 1712 09f5 47020000 		.4byte	.LASF150
 1713 09f9 02       		.byte	0x2
 1714 09fa B701     		.2byte	0x1b7
 1715 09fc 03       		.byte	0x3
 1716 09fd 0E0A0000 		.4byte	0xa0e
 1717 0a01 1D       		.uleb128 0x1d
 1718 0a02 56030000 		.4byte	.LASF152
 1719 0a06 02       		.byte	0x2
 1720 0a07 B701     		.2byte	0x1b7
 1721 0a09 AD000000 		.4byte	0xad
 1722 0a0d 00       		.byte	0
 1723 0a0e 1E       		.uleb128 0x1e
 1724 0a0f 93050000 		.4byte	.LASF153
 1725 0a13 0A       		.byte	0xa
 1726 0a14 E401     		.2byte	0x1e4
 1727 0a16 03       		.byte	0x3
 1728 0a17 1E       		.uleb128 0x1e
 1729 0a18 21060000 		.4byte	.LASF154
 1730 0a1c 0A       		.byte	0xa
 1731 0a1d D901     		.2byte	0x1d9
 1732 0a1f 03       		.byte	0x3
 1733 0a20 21       		.uleb128 0x21
 1734 0a21 14030000 		.4byte	.LASF163
 1735 0a25 01       		.byte	0x1
 1736 0a26 7A       		.byte	0x7a
 1737 0a27 01       		.byte	0x1
 1738 0a28 3A0A0000 		.4byte	0xa3a
 1739 0a2c 22       		.uleb128 0x22
 1740 0a2d 23       		.uleb128 0x23
 1741 0a2e 52040000 		.4byte	.LASF156
 1742 0a32 01       		.byte	0x1
 1743 0a33 7E       		.byte	0x7e
 1744 0a34 3A0A0000 		.4byte	0xa3a
 1745 0a38 00       		.byte	0
 1746 0a39 00       		.byte	0
 1747 0a3a 0A       		.uleb128 0xa
 1748 0a3b 04       		.byte	0x4
 1749 0a3c F4060000 		.4byte	0x6f4
 1750 0a40 24       		.uleb128 0x24
 1751 0a41 16050000 		.4byte	.LASF164
 1752 0a45 01       		.byte	0x1
 1753 0a46 3E       		.byte	0x3e
 1754 0a47 00000000 		.4byte	.LFB229
 1755 0a4b 12000000 		.4byte	.LFE229-.LFB229
 1756 0a4f 01       		.uleb128 0x1
ARM GAS  /var/folders/c6/c789hm653lg9vtl73krp73tm0000gn/T//ccUvcYCi.s 			page 49


 1757 0a50 9C       		.byte	0x9c
 1758 0a51 E10A0000 		.4byte	0xae1
 1759 0a55 25       		.uleb128 0x25
 1760 0a56 52040000 		.4byte	.LASF156
 1761 0a5a 01       		.byte	0x1
 1762 0a5b 40       		.byte	0x40
 1763 0a5c 3A0A0000 		.4byte	0xa3a
 1764 0a60 00000000 		.4byte	.LLST0
 1765 0a64 26       		.uleb128 0x26
 1766 0a65 D6090000 		.4byte	0x9d6
 1767 0a69 00000000 		.4byte	.LBB51
 1768 0a6d 04000000 		.4byte	.LBE51-.LBB51
 1769 0a71 01       		.byte	0x1
 1770 0a72 48       		.byte	0x48
 1771 0a73 8B0A0000 		.4byte	0xa8b
 1772 0a77 27       		.uleb128 0x27
 1773 0a78 00000000 		.4byte	.LBB52
 1774 0a7c 04000000 		.4byte	.LBE52-.LBB52
 1775 0a80 28       		.uleb128 0x28
 1776 0a81 E7090000 		.4byte	0x9e7
 1777 0a85 20000000 		.4byte	.LLST1
 1778 0a89 00       		.byte	0
 1779 0a8a 00       		.byte	0
 1780 0a8b 26       		.uleb128 0x26
 1781 0a8c F4090000 		.4byte	0x9f4
 1782 0a90 06000000 		.4byte	.LBB53
 1783 0a94 04000000 		.4byte	.LBE53-.LBB53
 1784 0a98 01       		.byte	0x1
 1785 0a99 4F       		.byte	0x4f
 1786 0a9a A80A0000 		.4byte	0xaa8
 1787 0a9e 29       		.uleb128 0x29
 1788 0a9f 010A0000 		.4byte	0xa01
 1789 0aa3 00000000 		.4byte	.LLST0
 1790 0aa7 00       		.byte	0
 1791 0aa8 2A       		.uleb128 0x2a
 1792 0aa9 0E0A0000 		.4byte	0xa0e
 1793 0aad 0A000000 		.4byte	.LBB55
 1794 0ab1 08000000 		.4byte	.LBE55-.LBB55
 1795 0ab5 01       		.byte	0x1
 1796 0ab6 52       		.byte	0x52
 1797 0ab7 2B       		.uleb128 0x2b
 1798 0ab8 CD090000 		.4byte	0x9cd
 1799 0abc 0A000000 		.4byte	.LBB56
 1800 0ac0 08000000 		.4byte	.LBE56-.LBB56
 1801 0ac4 0A       		.byte	0xa
 1802 0ac5 E601     		.2byte	0x1e6
 1803 0ac7 2B       		.uleb128 0x2b
 1804 0ac8 AA090000 		.4byte	0x9aa
 1805 0acc 0A000000 		.4byte	.LBB57
 1806 0ad0 08000000 		.4byte	.LBE57-.LBB57
 1807 0ad4 0A       		.byte	0xa
 1808 0ad5 CD01     		.2byte	0x1cd
 1809 0ad7 2C       		.uleb128 0x2c
 1810 0ad8 B7090000 		.4byte	0x9b7
 1811 0adc 00       		.byte	0
 1812 0add 00       		.byte	0
 1813 0ade 00       		.byte	0
ARM GAS  /var/folders/c6/c789hm653lg9vtl73krp73tm0000gn/T//ccUvcYCi.s 			page 50


 1814 0adf 00       		.byte	0
 1815 0ae0 00       		.byte	0
 1816 0ae1 2D       		.uleb128 0x2d
 1817 0ae2 200A0000 		.4byte	0xa20
 1818 0ae6 00000000 		.4byte	.LFB230
 1819 0aea 50000000 		.4byte	.LFE230-.LFB230
 1820 0aee 01       		.uleb128 0x1
 1821 0aef 9C       		.byte	0x9c
 1822 0af0 D00B0000 		.4byte	0xbd0
 1823 0af4 26       		.uleb128 0x26
 1824 0af5 170A0000 		.4byte	0xa17
 1825 0af9 02000000 		.4byte	.LBB83
 1826 0afd 06000000 		.4byte	.LBE83-.LBB83
 1827 0b01 01       		.byte	0x1
 1828 0b02 7C       		.byte	0x7c
 1829 0b03 300B0000 		.4byte	0xb30
 1830 0b07 2B       		.uleb128 0x2b
 1831 0b08 C4090000 		.4byte	0x9c4
 1832 0b0c 02000000 		.4byte	.LBB84
 1833 0b10 06000000 		.4byte	.LBE84-.LBB84
 1834 0b14 0A       		.byte	0xa
 1835 0b15 DB01     		.2byte	0x1db
 1836 0b17 2B       		.uleb128 0x2b
 1837 0b18 AA090000 		.4byte	0x9aa
 1838 0b1c 02000000 		.4byte	.LBB85
 1839 0b20 06000000 		.4byte	.LBE85-.LBB85
 1840 0b24 0A       		.byte	0xa
 1841 0b25 BF01     		.2byte	0x1bf
 1842 0b27 2C       		.uleb128 0x2c
 1843 0b28 B7090000 		.4byte	0x9b7
 1844 0b2c 20       		.byte	0x20
 1845 0b2d 00       		.byte	0
 1846 0b2e 00       		.byte	0
 1847 0b2f 00       		.byte	0
 1848 0b30 26       		.uleb128 0x26
 1849 0b31 0E0A0000 		.4byte	0xa0e
 1850 0b35 12000000 		.4byte	.LBB87
 1851 0b39 06000000 		.4byte	.LBE87-.LBB87
 1852 0b3d 01       		.byte	0x1
 1853 0b3e A5       		.byte	0xa5
 1854 0b3f 6F0B0000 		.4byte	0xb6f
 1855 0b43 2B       		.uleb128 0x2b
 1856 0b44 CD090000 		.4byte	0x9cd
 1857 0b48 12000000 		.4byte	.LBB88
 1858 0b4c 06000000 		.4byte	.LBE88-.LBB88
 1859 0b50 0A       		.byte	0xa
 1860 0b51 E601     		.2byte	0x1e6
 1861 0b53 2B       		.uleb128 0x2b
 1862 0b54 AA090000 		.4byte	0x9aa
 1863 0b58 12000000 		.4byte	.LBB89
 1864 0b5c 06000000 		.4byte	.LBE89-.LBB89
 1865 0b60 0A       		.byte	0xa
 1866 0b61 CD01     		.2byte	0x1cd
 1867 0b63 29       		.uleb128 0x29
 1868 0b64 B7090000 		.4byte	0x9b7
 1869 0b68 40000000 		.4byte	.LLST3
 1870 0b6c 00       		.byte	0
ARM GAS  /var/folders/c6/c789hm653lg9vtl73krp73tm0000gn/T//ccUvcYCi.s 			page 51


 1871 0b6d 00       		.byte	0
 1872 0b6e 00       		.byte	0
 1873 0b6f 27       		.uleb128 0x27
 1874 0b70 18000000 		.4byte	.LBB92
 1875 0b74 38000000 		.4byte	.LBE92-.LBB92
 1876 0b78 28       		.uleb128 0x28
 1877 0b79 2D0A0000 		.4byte	0xa2d
 1878 0b7d 54000000 		.4byte	.LLST4
 1879 0b81 26       		.uleb128 0x26
 1880 0b82 D6090000 		.4byte	0x9d6
 1881 0b86 18000000 		.4byte	.LBB93
 1882 0b8a 04000000 		.4byte	.LBE93-.LBB93
 1883 0b8e 01       		.byte	0x1
 1884 0b8f 86       		.byte	0x86
 1885 0b90 A80B0000 		.4byte	0xba8
 1886 0b94 27       		.uleb128 0x27
 1887 0b95 18000000 		.4byte	.LBB94
 1888 0b99 04000000 		.4byte	.LBE94-.LBB94
 1889 0b9d 28       		.uleb128 0x28
 1890 0b9e E7090000 		.4byte	0x9e7
 1891 0ba2 81000000 		.4byte	.LLST5
 1892 0ba6 00       		.byte	0
 1893 0ba7 00       		.byte	0
 1894 0ba8 26       		.uleb128 0x26
 1895 0ba9 F4090000 		.4byte	0x9f4
 1896 0bad 28000000 		.4byte	.LBB95
 1897 0bb1 04000000 		.4byte	.LBE95-.LBB95
 1898 0bb5 01       		.byte	0x1
 1899 0bb6 93       		.byte	0x93
 1900 0bb7 C50B0000 		.4byte	0xbc5
 1901 0bbb 29       		.uleb128 0x29
 1902 0bbc 010A0000 		.4byte	0xa01
 1903 0bc0 94000000 		.4byte	.LLST6
 1904 0bc4 00       		.byte	0
 1905 0bc5 2E       		.uleb128 0x2e
 1906 0bc6 30000000 		.4byte	.LVL10
 1907 0bca E70B0000 		.4byte	0xbe7
 1908 0bce 00       		.byte	0
 1909 0bcf 00       		.byte	0
 1910 0bd0 2F       		.uleb128 0x2f
 1911 0bd1 A1040000 		.4byte	.LASF157
 1912 0bd5 08       		.byte	0x8
 1913 0bd6 A706     		.2byte	0x6a7
 1914 0bd8 C3000000 		.4byte	0xc3
 1915 0bdc 30       		.uleb128 0x30
 1916 0bdd 636800   		.ascii	"ch\000"
 1917 0be0 07       		.byte	0x7
 1918 0be1 0902     		.2byte	0x209
 1919 0be3 36040000 		.4byte	0x436
 1920 0be7 31       		.uleb128 0x31
 1921 0be8 95010000 		.4byte	.LASF165
 1922 0bec 07       		.byte	0x7
 1923 0bed 1802     		.2byte	0x218
 1924 0bef F30B0000 		.4byte	0xbf3
 1925 0bf3 03       		.uleb128 0x3
 1926 0bf4 01       		.byte	0x1
 1927 0bf5 02       		.byte	0x2
ARM GAS  /var/folders/c6/c789hm653lg9vtl73krp73tm0000gn/T//ccUvcYCi.s 			page 52


 1928 0bf6 7F040000 		.4byte	.LASF158
 1929 0bfa 00       		.byte	0
 1930              		.section	.debug_abbrev,"",%progbits
 1931              	.Ldebug_abbrev0:
 1932 0000 01       		.uleb128 0x1
 1933 0001 11       		.uleb128 0x11
 1934 0002 01       		.byte	0x1
 1935 0003 25       		.uleb128 0x25
 1936 0004 0E       		.uleb128 0xe
 1937 0005 13       		.uleb128 0x13
 1938 0006 0B       		.uleb128 0xb
 1939 0007 03       		.uleb128 0x3
 1940 0008 0E       		.uleb128 0xe
 1941 0009 1B       		.uleb128 0x1b
 1942 000a 0E       		.uleb128 0xe
 1943 000b 55       		.uleb128 0x55
 1944 000c 17       		.uleb128 0x17
 1945 000d 11       		.uleb128 0x11
 1946 000e 01       		.uleb128 0x1
 1947 000f 10       		.uleb128 0x10
 1948 0010 17       		.uleb128 0x17
 1949 0011 00       		.byte	0
 1950 0012 00       		.byte	0
 1951 0013 02       		.uleb128 0x2
 1952 0014 24       		.uleb128 0x24
 1953 0015 00       		.byte	0
 1954 0016 0B       		.uleb128 0xb
 1955 0017 0B       		.uleb128 0xb
 1956 0018 3E       		.uleb128 0x3e
 1957 0019 0B       		.uleb128 0xb
 1958 001a 03       		.uleb128 0x3
 1959 001b 08       		.uleb128 0x8
 1960 001c 00       		.byte	0
 1961 001d 00       		.byte	0
 1962 001e 03       		.uleb128 0x3
 1963 001f 24       		.uleb128 0x24
 1964 0020 00       		.byte	0
 1965 0021 0B       		.uleb128 0xb
 1966 0022 0B       		.uleb128 0xb
 1967 0023 3E       		.uleb128 0x3e
 1968 0024 0B       		.uleb128 0xb
 1969 0025 03       		.uleb128 0x3
 1970 0026 0E       		.uleb128 0xe
 1971 0027 00       		.byte	0
 1972 0028 00       		.byte	0
 1973 0029 04       		.uleb128 0x4
 1974 002a 16       		.uleb128 0x16
 1975 002b 00       		.byte	0
 1976 002c 03       		.uleb128 0x3
 1977 002d 0E       		.uleb128 0xe
 1978 002e 3A       		.uleb128 0x3a
 1979 002f 0B       		.uleb128 0xb
 1980 0030 3B       		.uleb128 0x3b
 1981 0031 0B       		.uleb128 0xb
 1982 0032 49       		.uleb128 0x49
 1983 0033 13       		.uleb128 0x13
 1984 0034 00       		.byte	0
ARM GAS  /var/folders/c6/c789hm653lg9vtl73krp73tm0000gn/T//ccUvcYCi.s 			page 53


 1985 0035 00       		.byte	0
 1986 0036 05       		.uleb128 0x5
 1987 0037 35       		.uleb128 0x35
 1988 0038 00       		.byte	0
 1989 0039 49       		.uleb128 0x49
 1990 003a 13       		.uleb128 0x13
 1991 003b 00       		.byte	0
 1992 003c 00       		.byte	0
 1993 003d 06       		.uleb128 0x6
 1994 003e 13       		.uleb128 0x13
 1995 003f 01       		.byte	0x1
 1996 0040 03       		.uleb128 0x3
 1997 0041 0E       		.uleb128 0xe
 1998 0042 0B       		.uleb128 0xb
 1999 0043 0B       		.uleb128 0xb
 2000 0044 3A       		.uleb128 0x3a
 2001 0045 0B       		.uleb128 0xb
 2002 0046 3B       		.uleb128 0x3b
 2003 0047 0B       		.uleb128 0xb
 2004 0048 01       		.uleb128 0x1
 2005 0049 13       		.uleb128 0x13
 2006 004a 00       		.byte	0
 2007 004b 00       		.byte	0
 2008 004c 07       		.uleb128 0x7
 2009 004d 0D       		.uleb128 0xd
 2010 004e 00       		.byte	0
 2011 004f 03       		.uleb128 0x3
 2012 0050 0E       		.uleb128 0xe
 2013 0051 3A       		.uleb128 0x3a
 2014 0052 0B       		.uleb128 0xb
 2015 0053 3B       		.uleb128 0x3b
 2016 0054 0B       		.uleb128 0xb
 2017 0055 49       		.uleb128 0x49
 2018 0056 13       		.uleb128 0x13
 2019 0057 38       		.uleb128 0x38
 2020 0058 0B       		.uleb128 0xb
 2021 0059 00       		.byte	0
 2022 005a 00       		.byte	0
 2023 005b 08       		.uleb128 0x8
 2024 005c 0D       		.uleb128 0xd
 2025 005d 00       		.byte	0
 2026 005e 03       		.uleb128 0x3
 2027 005f 08       		.uleb128 0x8
 2028 0060 3A       		.uleb128 0x3a
 2029 0061 0B       		.uleb128 0xb
 2030 0062 3B       		.uleb128 0x3b
 2031 0063 05       		.uleb128 0x5
 2032 0064 49       		.uleb128 0x49
 2033 0065 13       		.uleb128 0x13
 2034 0066 38       		.uleb128 0x38
 2035 0067 0B       		.uleb128 0xb
 2036 0068 00       		.byte	0
 2037 0069 00       		.byte	0
 2038 006a 09       		.uleb128 0x9
 2039 006b 0D       		.uleb128 0xd
 2040 006c 00       		.byte	0
 2041 006d 03       		.uleb128 0x3
ARM GAS  /var/folders/c6/c789hm653lg9vtl73krp73tm0000gn/T//ccUvcYCi.s 			page 54


 2042 006e 0E       		.uleb128 0xe
 2043 006f 3A       		.uleb128 0x3a
 2044 0070 0B       		.uleb128 0xb
 2045 0071 3B       		.uleb128 0x3b
 2046 0072 05       		.uleb128 0x5
 2047 0073 49       		.uleb128 0x49
 2048 0074 13       		.uleb128 0x13
 2049 0075 38       		.uleb128 0x38
 2050 0076 0B       		.uleb128 0xb
 2051 0077 00       		.byte	0
 2052 0078 00       		.byte	0
 2053 0079 0A       		.uleb128 0xa
 2054 007a 0F       		.uleb128 0xf
 2055 007b 00       		.byte	0
 2056 007c 0B       		.uleb128 0xb
 2057 007d 0B       		.uleb128 0xb
 2058 007e 49       		.uleb128 0x49
 2059 007f 13       		.uleb128 0x13
 2060 0080 00       		.byte	0
 2061 0081 00       		.byte	0
 2062 0082 0B       		.uleb128 0xb
 2063 0083 13       		.uleb128 0x13
 2064 0084 01       		.byte	0x1
 2065 0085 03       		.uleb128 0x3
 2066 0086 0E       		.uleb128 0xe
 2067 0087 0B       		.uleb128 0xb
 2068 0088 0B       		.uleb128 0xb
 2069 0089 3A       		.uleb128 0x3a
 2070 008a 0B       		.uleb128 0xb
 2071 008b 3B       		.uleb128 0x3b
 2072 008c 05       		.uleb128 0x5
 2073 008d 01       		.uleb128 0x1
 2074 008e 13       		.uleb128 0x13
 2075 008f 00       		.byte	0
 2076 0090 00       		.byte	0
 2077 0091 0C       		.uleb128 0xc
 2078 0092 15       		.uleb128 0x15
 2079 0093 01       		.byte	0x1
 2080 0094 27       		.uleb128 0x27
 2081 0095 19       		.uleb128 0x19
 2082 0096 01       		.uleb128 0x1
 2083 0097 13       		.uleb128 0x13
 2084 0098 00       		.byte	0
 2085 0099 00       		.byte	0
 2086 009a 0D       		.uleb128 0xd
 2087 009b 05       		.uleb128 0x5
 2088 009c 00       		.byte	0
 2089 009d 49       		.uleb128 0x49
 2090 009e 13       		.uleb128 0x13
 2091 009f 00       		.byte	0
 2092 00a0 00       		.byte	0
 2093 00a1 0E       		.uleb128 0xe
 2094 00a2 0F       		.uleb128 0xf
 2095 00a3 00       		.byte	0
 2096 00a4 0B       		.uleb128 0xb
 2097 00a5 0B       		.uleb128 0xb
 2098 00a6 00       		.byte	0
ARM GAS  /var/folders/c6/c789hm653lg9vtl73krp73tm0000gn/T//ccUvcYCi.s 			page 55


 2099 00a7 00       		.byte	0
 2100 00a8 0F       		.uleb128 0xf
 2101 00a9 13       		.uleb128 0x13
 2102 00aa 01       		.byte	0x1
 2103 00ab 03       		.uleb128 0x3
 2104 00ac 0E       		.uleb128 0xe
 2105 00ad 0B       		.uleb128 0xb
 2106 00ae 05       		.uleb128 0x5
 2107 00af 3A       		.uleb128 0x3a
 2108 00b0 0B       		.uleb128 0xb
 2109 00b1 3B       		.uleb128 0x3b
 2110 00b2 05       		.uleb128 0x5
 2111 00b3 01       		.uleb128 0x1
 2112 00b4 13       		.uleb128 0x13
 2113 00b5 00       		.byte	0
 2114 00b6 00       		.byte	0
 2115 00b7 10       		.uleb128 0x10
 2116 00b8 0D       		.uleb128 0xd
 2117 00b9 00       		.byte	0
 2118 00ba 03       		.uleb128 0x3
 2119 00bb 0E       		.uleb128 0xe
 2120 00bc 3A       		.uleb128 0x3a
 2121 00bd 0B       		.uleb128 0xb
 2122 00be 3B       		.uleb128 0x3b
 2123 00bf 05       		.uleb128 0x5
 2124 00c0 49       		.uleb128 0x49
 2125 00c1 13       		.uleb128 0x13
 2126 00c2 38       		.uleb128 0x38
 2127 00c3 05       		.uleb128 0x5
 2128 00c4 00       		.byte	0
 2129 00c5 00       		.byte	0
 2130 00c6 11       		.uleb128 0x11
 2131 00c7 0D       		.uleb128 0xd
 2132 00c8 00       		.byte	0
 2133 00c9 03       		.uleb128 0x3
 2134 00ca 08       		.uleb128 0x8
 2135 00cb 3A       		.uleb128 0x3a
 2136 00cc 0B       		.uleb128 0xb
 2137 00cd 3B       		.uleb128 0x3b
 2138 00ce 05       		.uleb128 0x5
 2139 00cf 49       		.uleb128 0x49
 2140 00d0 13       		.uleb128 0x13
 2141 00d1 38       		.uleb128 0x38
 2142 00d2 05       		.uleb128 0x5
 2143 00d3 00       		.byte	0
 2144 00d4 00       		.byte	0
 2145 00d5 12       		.uleb128 0x12
 2146 00d6 13       		.uleb128 0x13
 2147 00d7 01       		.byte	0x1
 2148 00d8 0B       		.uleb128 0xb
 2149 00d9 0B       		.uleb128 0xb
 2150 00da 3A       		.uleb128 0x3a
 2151 00db 0B       		.uleb128 0xb
 2152 00dc 3B       		.uleb128 0x3b
 2153 00dd 05       		.uleb128 0x5
 2154 00de 01       		.uleb128 0x1
 2155 00df 13       		.uleb128 0x13
ARM GAS  /var/folders/c6/c789hm653lg9vtl73krp73tm0000gn/T//ccUvcYCi.s 			page 56


 2156 00e0 00       		.byte	0
 2157 00e1 00       		.byte	0
 2158 00e2 13       		.uleb128 0x13
 2159 00e3 26       		.uleb128 0x26
 2160 00e4 00       		.byte	0
 2161 00e5 49       		.uleb128 0x49
 2162 00e6 13       		.uleb128 0x13
 2163 00e7 00       		.byte	0
 2164 00e8 00       		.byte	0
 2165 00e9 14       		.uleb128 0x14
 2166 00ea 01       		.uleb128 0x1
 2167 00eb 01       		.byte	0x1
 2168 00ec 49       		.uleb128 0x49
 2169 00ed 13       		.uleb128 0x13
 2170 00ee 01       		.uleb128 0x1
 2171 00ef 13       		.uleb128 0x13
 2172 00f0 00       		.byte	0
 2173 00f1 00       		.byte	0
 2174 00f2 15       		.uleb128 0x15
 2175 00f3 21       		.uleb128 0x21
 2176 00f4 00       		.byte	0
 2177 00f5 49       		.uleb128 0x49
 2178 00f6 13       		.uleb128 0x13
 2179 00f7 2F       		.uleb128 0x2f
 2180 00f8 0B       		.uleb128 0xb
 2181 00f9 00       		.byte	0
 2182 00fa 00       		.byte	0
 2183 00fb 16       		.uleb128 0x16
 2184 00fc 16       		.uleb128 0x16
 2185 00fd 00       		.byte	0
 2186 00fe 03       		.uleb128 0x3
 2187 00ff 0E       		.uleb128 0xe
 2188 0100 3A       		.uleb128 0x3a
 2189 0101 0B       		.uleb128 0xb
 2190 0102 3B       		.uleb128 0x3b
 2191 0103 05       		.uleb128 0x5
 2192 0104 49       		.uleb128 0x49
 2193 0105 13       		.uleb128 0x13
 2194 0106 00       		.byte	0
 2195 0107 00       		.byte	0
 2196 0108 17       		.uleb128 0x17
 2197 0109 0D       		.uleb128 0xd
 2198 010a 00       		.byte	0
 2199 010b 03       		.uleb128 0x3
 2200 010c 08       		.uleb128 0x8
 2201 010d 3A       		.uleb128 0x3a
 2202 010e 0B       		.uleb128 0xb
 2203 010f 3B       		.uleb128 0x3b
 2204 0110 0B       		.uleb128 0xb
 2205 0111 49       		.uleb128 0x49
 2206 0112 13       		.uleb128 0x13
 2207 0113 38       		.uleb128 0x38
 2208 0114 0B       		.uleb128 0xb
 2209 0115 00       		.byte	0
 2210 0116 00       		.byte	0
 2211 0117 18       		.uleb128 0x18
 2212 0118 13       		.uleb128 0x13
ARM GAS  /var/folders/c6/c789hm653lg9vtl73krp73tm0000gn/T//ccUvcYCi.s 			page 57


 2213 0119 01       		.byte	0x1
 2214 011a 0B       		.uleb128 0xb
 2215 011b 0B       		.uleb128 0xb
 2216 011c 3A       		.uleb128 0x3a
 2217 011d 0B       		.uleb128 0xb
 2218 011e 3B       		.uleb128 0x3b
 2219 011f 0B       		.uleb128 0xb
 2220 0120 01       		.uleb128 0x1
 2221 0121 13       		.uleb128 0x13
 2222 0122 00       		.byte	0
 2223 0123 00       		.byte	0
 2224 0124 19       		.uleb128 0x19
 2225 0125 13       		.uleb128 0x13
 2226 0126 01       		.byte	0x1
 2227 0127 0B       		.uleb128 0xb
 2228 0128 05       		.uleb128 0x5
 2229 0129 3A       		.uleb128 0x3a
 2230 012a 0B       		.uleb128 0xb
 2231 012b 3B       		.uleb128 0x3b
 2232 012c 0B       		.uleb128 0xb
 2233 012d 01       		.uleb128 0x1
 2234 012e 13       		.uleb128 0x13
 2235 012f 00       		.byte	0
 2236 0130 00       		.byte	0
 2237 0131 1A       		.uleb128 0x1a
 2238 0132 17       		.uleb128 0x17
 2239 0133 01       		.byte	0x1
 2240 0134 0B       		.uleb128 0xb
 2241 0135 0B       		.uleb128 0xb
 2242 0136 3A       		.uleb128 0x3a
 2243 0137 0B       		.uleb128 0xb
 2244 0138 3B       		.uleb128 0x3b
 2245 0139 0B       		.uleb128 0xb
 2246 013a 01       		.uleb128 0x1
 2247 013b 13       		.uleb128 0x13
 2248 013c 00       		.byte	0
 2249 013d 00       		.byte	0
 2250 013e 1B       		.uleb128 0x1b
 2251 013f 0D       		.uleb128 0xd
 2252 0140 00       		.byte	0
 2253 0141 03       		.uleb128 0x3
 2254 0142 0E       		.uleb128 0xe
 2255 0143 3A       		.uleb128 0x3a
 2256 0144 0B       		.uleb128 0xb
 2257 0145 3B       		.uleb128 0x3b
 2258 0146 05       		.uleb128 0x5
 2259 0147 49       		.uleb128 0x49
 2260 0148 13       		.uleb128 0x13
 2261 0149 00       		.byte	0
 2262 014a 00       		.byte	0
 2263 014b 1C       		.uleb128 0x1c
 2264 014c 2E       		.uleb128 0x2e
 2265 014d 01       		.byte	0x1
 2266 014e 03       		.uleb128 0x3
 2267 014f 0E       		.uleb128 0xe
 2268 0150 3A       		.uleb128 0x3a
 2269 0151 0B       		.uleb128 0xb
ARM GAS  /var/folders/c6/c789hm653lg9vtl73krp73tm0000gn/T//ccUvcYCi.s 			page 58


 2270 0152 3B       		.uleb128 0x3b
 2271 0153 05       		.uleb128 0x5
 2272 0154 27       		.uleb128 0x27
 2273 0155 19       		.uleb128 0x19
 2274 0156 20       		.uleb128 0x20
 2275 0157 0B       		.uleb128 0xb
 2276 0158 01       		.uleb128 0x1
 2277 0159 13       		.uleb128 0x13
 2278 015a 00       		.byte	0
 2279 015b 00       		.byte	0
 2280 015c 1D       		.uleb128 0x1d
 2281 015d 05       		.uleb128 0x5
 2282 015e 00       		.byte	0
 2283 015f 03       		.uleb128 0x3
 2284 0160 0E       		.uleb128 0xe
 2285 0161 3A       		.uleb128 0x3a
 2286 0162 0B       		.uleb128 0xb
 2287 0163 3B       		.uleb128 0x3b
 2288 0164 05       		.uleb128 0x5
 2289 0165 49       		.uleb128 0x49
 2290 0166 13       		.uleb128 0x13
 2291 0167 00       		.byte	0
 2292 0168 00       		.byte	0
 2293 0169 1E       		.uleb128 0x1e
 2294 016a 2E       		.uleb128 0x2e
 2295 016b 00       		.byte	0
 2296 016c 03       		.uleb128 0x3
 2297 016d 0E       		.uleb128 0xe
 2298 016e 3A       		.uleb128 0x3a
 2299 016f 0B       		.uleb128 0xb
 2300 0170 3B       		.uleb128 0x3b
 2301 0171 05       		.uleb128 0x5
 2302 0172 27       		.uleb128 0x27
 2303 0173 19       		.uleb128 0x19
 2304 0174 20       		.uleb128 0x20
 2305 0175 0B       		.uleb128 0xb
 2306 0176 00       		.byte	0
 2307 0177 00       		.byte	0
 2308 0178 1F       		.uleb128 0x1f
 2309 0179 2E       		.uleb128 0x2e
 2310 017a 01       		.byte	0x1
 2311 017b 03       		.uleb128 0x3
 2312 017c 0E       		.uleb128 0xe
 2313 017d 3A       		.uleb128 0x3a
 2314 017e 0B       		.uleb128 0xb
 2315 017f 3B       		.uleb128 0x3b
 2316 0180 05       		.uleb128 0x5
 2317 0181 27       		.uleb128 0x27
 2318 0182 19       		.uleb128 0x19
 2319 0183 49       		.uleb128 0x49
 2320 0184 13       		.uleb128 0x13
 2321 0185 20       		.uleb128 0x20
 2322 0186 0B       		.uleb128 0xb
 2323 0187 01       		.uleb128 0x1
 2324 0188 13       		.uleb128 0x13
 2325 0189 00       		.byte	0
 2326 018a 00       		.byte	0
ARM GAS  /var/folders/c6/c789hm653lg9vtl73krp73tm0000gn/T//ccUvcYCi.s 			page 59


 2327 018b 20       		.uleb128 0x20
 2328 018c 34       		.uleb128 0x34
 2329 018d 00       		.byte	0
 2330 018e 03       		.uleb128 0x3
 2331 018f 0E       		.uleb128 0xe
 2332 0190 3A       		.uleb128 0x3a
 2333 0191 0B       		.uleb128 0xb
 2334 0192 3B       		.uleb128 0x3b
 2335 0193 05       		.uleb128 0x5
 2336 0194 49       		.uleb128 0x49
 2337 0195 13       		.uleb128 0x13
 2338 0196 00       		.byte	0
 2339 0197 00       		.byte	0
 2340 0198 21       		.uleb128 0x21
 2341 0199 2E       		.uleb128 0x2e
 2342 019a 01       		.byte	0x1
 2343 019b 3F       		.uleb128 0x3f
 2344 019c 19       		.uleb128 0x19
 2345 019d 03       		.uleb128 0x3
 2346 019e 0E       		.uleb128 0xe
 2347 019f 3A       		.uleb128 0x3a
 2348 01a0 0B       		.uleb128 0xb
 2349 01a1 3B       		.uleb128 0x3b
 2350 01a2 0B       		.uleb128 0xb
 2351 01a3 27       		.uleb128 0x27
 2352 01a4 19       		.uleb128 0x19
 2353 01a5 20       		.uleb128 0x20
 2354 01a6 0B       		.uleb128 0xb
 2355 01a7 01       		.uleb128 0x1
 2356 01a8 13       		.uleb128 0x13
 2357 01a9 00       		.byte	0
 2358 01aa 00       		.byte	0
 2359 01ab 22       		.uleb128 0x22
 2360 01ac 0B       		.uleb128 0xb
 2361 01ad 01       		.byte	0x1
 2362 01ae 00       		.byte	0
 2363 01af 00       		.byte	0
 2364 01b0 23       		.uleb128 0x23
 2365 01b1 34       		.uleb128 0x34
 2366 01b2 00       		.byte	0
 2367 01b3 03       		.uleb128 0x3
 2368 01b4 0E       		.uleb128 0xe
 2369 01b5 3A       		.uleb128 0x3a
 2370 01b6 0B       		.uleb128 0xb
 2371 01b7 3B       		.uleb128 0x3b
 2372 01b8 0B       		.uleb128 0xb
 2373 01b9 49       		.uleb128 0x49
 2374 01ba 13       		.uleb128 0x13
 2375 01bb 00       		.byte	0
 2376 01bc 00       		.byte	0
 2377 01bd 24       		.uleb128 0x24
 2378 01be 2E       		.uleb128 0x2e
 2379 01bf 01       		.byte	0x1
 2380 01c0 3F       		.uleb128 0x3f
 2381 01c1 19       		.uleb128 0x19
 2382 01c2 03       		.uleb128 0x3
 2383 01c3 0E       		.uleb128 0xe
ARM GAS  /var/folders/c6/c789hm653lg9vtl73krp73tm0000gn/T//ccUvcYCi.s 			page 60


 2384 01c4 3A       		.uleb128 0x3a
 2385 01c5 0B       		.uleb128 0xb
 2386 01c6 3B       		.uleb128 0x3b
 2387 01c7 0B       		.uleb128 0xb
 2388 01c8 27       		.uleb128 0x27
 2389 01c9 19       		.uleb128 0x19
 2390 01ca 11       		.uleb128 0x11
 2391 01cb 01       		.uleb128 0x1
 2392 01cc 12       		.uleb128 0x12
 2393 01cd 06       		.uleb128 0x6
 2394 01ce 40       		.uleb128 0x40
 2395 01cf 18       		.uleb128 0x18
 2396 01d0 9742     		.uleb128 0x2117
 2397 01d2 19       		.uleb128 0x19
 2398 01d3 01       		.uleb128 0x1
 2399 01d4 13       		.uleb128 0x13
 2400 01d5 00       		.byte	0
 2401 01d6 00       		.byte	0
 2402 01d7 25       		.uleb128 0x25
 2403 01d8 34       		.uleb128 0x34
 2404 01d9 00       		.byte	0
 2405 01da 03       		.uleb128 0x3
 2406 01db 0E       		.uleb128 0xe
 2407 01dc 3A       		.uleb128 0x3a
 2408 01dd 0B       		.uleb128 0xb
 2409 01de 3B       		.uleb128 0x3b
 2410 01df 0B       		.uleb128 0xb
 2411 01e0 49       		.uleb128 0x49
 2412 01e1 13       		.uleb128 0x13
 2413 01e2 02       		.uleb128 0x2
 2414 01e3 17       		.uleb128 0x17
 2415 01e4 00       		.byte	0
 2416 01e5 00       		.byte	0
 2417 01e6 26       		.uleb128 0x26
 2418 01e7 1D       		.uleb128 0x1d
 2419 01e8 01       		.byte	0x1
 2420 01e9 31       		.uleb128 0x31
 2421 01ea 13       		.uleb128 0x13
 2422 01eb 11       		.uleb128 0x11
 2423 01ec 01       		.uleb128 0x1
 2424 01ed 12       		.uleb128 0x12
 2425 01ee 06       		.uleb128 0x6
 2426 01ef 58       		.uleb128 0x58
 2427 01f0 0B       		.uleb128 0xb
 2428 01f1 59       		.uleb128 0x59
 2429 01f2 0B       		.uleb128 0xb
 2430 01f3 01       		.uleb128 0x1
 2431 01f4 13       		.uleb128 0x13
 2432 01f5 00       		.byte	0
 2433 01f6 00       		.byte	0
 2434 01f7 27       		.uleb128 0x27
 2435 01f8 0B       		.uleb128 0xb
 2436 01f9 01       		.byte	0x1
 2437 01fa 11       		.uleb128 0x11
 2438 01fb 01       		.uleb128 0x1
 2439 01fc 12       		.uleb128 0x12
 2440 01fd 06       		.uleb128 0x6
ARM GAS  /var/folders/c6/c789hm653lg9vtl73krp73tm0000gn/T//ccUvcYCi.s 			page 61


 2441 01fe 00       		.byte	0
 2442 01ff 00       		.byte	0
 2443 0200 28       		.uleb128 0x28
 2444 0201 34       		.uleb128 0x34
 2445 0202 00       		.byte	0
 2446 0203 31       		.uleb128 0x31
 2447 0204 13       		.uleb128 0x13
 2448 0205 02       		.uleb128 0x2
 2449 0206 17       		.uleb128 0x17
 2450 0207 00       		.byte	0
 2451 0208 00       		.byte	0
 2452 0209 29       		.uleb128 0x29
 2453 020a 05       		.uleb128 0x5
 2454 020b 00       		.byte	0
 2455 020c 31       		.uleb128 0x31
 2456 020d 13       		.uleb128 0x13
 2457 020e 02       		.uleb128 0x2
 2458 020f 17       		.uleb128 0x17
 2459 0210 00       		.byte	0
 2460 0211 00       		.byte	0
 2461 0212 2A       		.uleb128 0x2a
 2462 0213 1D       		.uleb128 0x1d
 2463 0214 01       		.byte	0x1
 2464 0215 31       		.uleb128 0x31
 2465 0216 13       		.uleb128 0x13
 2466 0217 11       		.uleb128 0x11
 2467 0218 01       		.uleb128 0x1
 2468 0219 12       		.uleb128 0x12
 2469 021a 06       		.uleb128 0x6
 2470 021b 58       		.uleb128 0x58
 2471 021c 0B       		.uleb128 0xb
 2472 021d 59       		.uleb128 0x59
 2473 021e 0B       		.uleb128 0xb
 2474 021f 00       		.byte	0
 2475 0220 00       		.byte	0
 2476 0221 2B       		.uleb128 0x2b
 2477 0222 1D       		.uleb128 0x1d
 2478 0223 01       		.byte	0x1
 2479 0224 31       		.uleb128 0x31
 2480 0225 13       		.uleb128 0x13
 2481 0226 11       		.uleb128 0x11
 2482 0227 01       		.uleb128 0x1
 2483 0228 12       		.uleb128 0x12
 2484 0229 06       		.uleb128 0x6
 2485 022a 58       		.uleb128 0x58
 2486 022b 0B       		.uleb128 0xb
 2487 022c 59       		.uleb128 0x59
 2488 022d 05       		.uleb128 0x5
 2489 022e 00       		.byte	0
 2490 022f 00       		.byte	0
 2491 0230 2C       		.uleb128 0x2c
 2492 0231 05       		.uleb128 0x5
 2493 0232 00       		.byte	0
 2494 0233 31       		.uleb128 0x31
 2495 0234 13       		.uleb128 0x13
 2496 0235 1C       		.uleb128 0x1c
 2497 0236 0B       		.uleb128 0xb
ARM GAS  /var/folders/c6/c789hm653lg9vtl73krp73tm0000gn/T//ccUvcYCi.s 			page 62


 2498 0237 00       		.byte	0
 2499 0238 00       		.byte	0
 2500 0239 2D       		.uleb128 0x2d
 2501 023a 2E       		.uleb128 0x2e
 2502 023b 01       		.byte	0x1
 2503 023c 31       		.uleb128 0x31
 2504 023d 13       		.uleb128 0x13
 2505 023e 11       		.uleb128 0x11
 2506 023f 01       		.uleb128 0x1
 2507 0240 12       		.uleb128 0x12
 2508 0241 06       		.uleb128 0x6
 2509 0242 40       		.uleb128 0x40
 2510 0243 18       		.uleb128 0x18
 2511 0244 9742     		.uleb128 0x2117
 2512 0246 19       		.uleb128 0x19
 2513 0247 01       		.uleb128 0x1
 2514 0248 13       		.uleb128 0x13
 2515 0249 00       		.byte	0
 2516 024a 00       		.byte	0
 2517 024b 2E       		.uleb128 0x2e
 2518 024c 898201   		.uleb128 0x4109
 2519 024f 00       		.byte	0
 2520 0250 11       		.uleb128 0x11
 2521 0251 01       		.uleb128 0x1
 2522 0252 31       		.uleb128 0x31
 2523 0253 13       		.uleb128 0x13
 2524 0254 00       		.byte	0
 2525 0255 00       		.byte	0
 2526 0256 2F       		.uleb128 0x2f
 2527 0257 34       		.uleb128 0x34
 2528 0258 00       		.byte	0
 2529 0259 03       		.uleb128 0x3
 2530 025a 0E       		.uleb128 0xe
 2531 025b 3A       		.uleb128 0x3a
 2532 025c 0B       		.uleb128 0xb
 2533 025d 3B       		.uleb128 0x3b
 2534 025e 05       		.uleb128 0x5
 2535 025f 49       		.uleb128 0x49
 2536 0260 13       		.uleb128 0x13
 2537 0261 3F       		.uleb128 0x3f
 2538 0262 19       		.uleb128 0x19
 2539 0263 3C       		.uleb128 0x3c
 2540 0264 19       		.uleb128 0x19
 2541 0265 00       		.byte	0
 2542 0266 00       		.byte	0
 2543 0267 30       		.uleb128 0x30
 2544 0268 34       		.uleb128 0x34
 2545 0269 00       		.byte	0
 2546 026a 03       		.uleb128 0x3
 2547 026b 08       		.uleb128 0x8
 2548 026c 3A       		.uleb128 0x3a
 2549 026d 0B       		.uleb128 0xb
 2550 026e 3B       		.uleb128 0x3b
 2551 026f 05       		.uleb128 0x5
 2552 0270 49       		.uleb128 0x49
 2553 0271 13       		.uleb128 0x13
 2554 0272 3F       		.uleb128 0x3f
ARM GAS  /var/folders/c6/c789hm653lg9vtl73krp73tm0000gn/T//ccUvcYCi.s 			page 63


 2555 0273 19       		.uleb128 0x19
 2556 0274 3C       		.uleb128 0x3c
 2557 0275 19       		.uleb128 0x19
 2558 0276 00       		.byte	0
 2559 0277 00       		.byte	0
 2560 0278 31       		.uleb128 0x31
 2561 0279 2E       		.uleb128 0x2e
 2562 027a 00       		.byte	0
 2563 027b 3F       		.uleb128 0x3f
 2564 027c 19       		.uleb128 0x19
 2565 027d 03       		.uleb128 0x3
 2566 027e 0E       		.uleb128 0xe
 2567 027f 3A       		.uleb128 0x3a
 2568 0280 0B       		.uleb128 0xb
 2569 0281 3B       		.uleb128 0x3b
 2570 0282 05       		.uleb128 0x5
 2571 0283 27       		.uleb128 0x27
 2572 0284 19       		.uleb128 0x19
 2573 0285 49       		.uleb128 0x49
 2574 0286 13       		.uleb128 0x13
 2575 0287 3C       		.uleb128 0x3c
 2576 0288 19       		.uleb128 0x19
 2577 0289 00       		.byte	0
 2578 028a 00       		.byte	0
 2579 028b 00       		.byte	0
 2580              		.section	.debug_loc,"",%progbits
 2581              	.Ldebug_loc0:
 2582              	.LLST0:
 2583 0000 04000000 		.4byte	.LVL0
 2584 0004 06000000 		.4byte	.LVL1
 2585 0008 0300     		.2byte	0x3
 2586 000a 73       		.byte	0x73
 2587 000b 20       		.sleb128 32
 2588 000c 9F       		.byte	0x9f
 2589 000d 06000000 		.4byte	.LVL1
 2590 0011 0C000000 		.4byte	.LVL3
 2591 0015 0100     		.2byte	0x1
 2592 0017 53       		.byte	0x53
 2593 0018 00000000 		.4byte	0
 2594 001c 00000000 		.4byte	0
 2595              	.LLST1:
 2596 0020 04000000 		.4byte	.LVL0
 2597 0024 06000000 		.4byte	.LVL1
 2598 0028 0100     		.2byte	0x1
 2599 002a 53       		.byte	0x53
 2600 002b 06000000 		.4byte	.LVL1
 2601 002f 0C000000 		.4byte	.LVL3
 2602 0033 0300     		.2byte	0x3
 2603 0035 73       		.byte	0x73
 2604 0036 60       		.sleb128 -32
 2605 0037 9F       		.byte	0x9f
 2606 0038 00000000 		.4byte	0
 2607 003c 00000000 		.4byte	0
 2608              	.LLST3:
 2609 0040 12000000 		.4byte	.LVL5
 2610 0044 18000000 		.4byte	.LVL6
 2611 0048 0200     		.2byte	0x2
ARM GAS  /var/folders/c6/c789hm653lg9vtl73krp73tm0000gn/T//ccUvcYCi.s 			page 64


 2612 004a 30       		.byte	0x30
 2613 004b 9F       		.byte	0x9f
 2614 004c 00000000 		.4byte	0
 2615 0050 00000000 		.4byte	0
 2616              	.LLST4:
 2617 0054 1C000000 		.4byte	.LVL7
 2618 0058 28000000 		.4byte	.LVL9
 2619 005c 0300     		.2byte	0x3
 2620 005e 74       		.byte	0x74
 2621 005f 60       		.sleb128 -32
 2622 0060 9F       		.byte	0x9f
 2623 0061 28000000 		.4byte	.LVL9
 2624 0065 2F000000 		.4byte	.LVL10-1
 2625 0069 0100     		.2byte	0x1
 2626 006b 53       		.byte	0x53
 2627 006c 2F000000 		.4byte	.LVL10-1
 2628 0070 42000000 		.4byte	.LVL12
 2629 0074 0300     		.2byte	0x3
 2630 0076 74       		.byte	0x74
 2631 0077 60       		.sleb128 -32
 2632 0078 9F       		.byte	0x9f
 2633 0079 00000000 		.4byte	0
 2634 007d 00000000 		.4byte	0
 2635              	.LLST5:
 2636 0081 1C000000 		.4byte	.LVL7
 2637 0085 42000000 		.4byte	.LVL12
 2638 0089 0100     		.2byte	0x1
 2639 008b 54       		.byte	0x54
 2640 008c 00000000 		.4byte	0
 2641 0090 00000000 		.4byte	0
 2642              	.LLST6:
 2643 0094 24000000 		.4byte	.LVL8
 2644 0098 28000000 		.4byte	.LVL9
 2645 009c 0300     		.2byte	0x3
 2646 009e 74       		.byte	0x74
 2647 009f 60       		.sleb128 -32
 2648 00a0 9F       		.byte	0x9f
 2649 00a1 28000000 		.4byte	.LVL9
 2650 00a5 2F000000 		.4byte	.LVL10-1
 2651 00a9 0100     		.2byte	0x1
 2652 00ab 53       		.byte	0x53
 2653 00ac 2F000000 		.4byte	.LVL10-1
 2654 00b0 42000000 		.4byte	.LVL12
 2655 00b4 0300     		.2byte	0x3
 2656 00b6 74       		.byte	0x74
 2657 00b7 60       		.sleb128 -32
 2658 00b8 9F       		.byte	0x9f
 2659 00b9 00000000 		.4byte	0
 2660 00bd 00000000 		.4byte	0
 2661              		.section	.debug_aranges,"",%progbits
 2662 0000 24000000 		.4byte	0x24
 2663 0004 0200     		.2byte	0x2
 2664 0006 00000000 		.4byte	.Ldebug_info0
 2665 000a 04       		.byte	0x4
 2666 000b 00       		.byte	0
 2667 000c 0000     		.2byte	0
 2668 000e 0000     		.2byte	0
ARM GAS  /var/folders/c6/c789hm653lg9vtl73krp73tm0000gn/T//ccUvcYCi.s 			page 65


 2669 0010 00000000 		.4byte	.LFB229
 2670 0014 12000000 		.4byte	.LFE229-.LFB229
 2671 0018 00000000 		.4byte	.LFB230
 2672 001c 50000000 		.4byte	.LFE230-.LFB230
 2673 0020 00000000 		.4byte	0
 2674 0024 00000000 		.4byte	0
 2675              		.section	.debug_ranges,"",%progbits
 2676              	.Ldebug_ranges0:
 2677 0000 00000000 		.4byte	.LFB229
 2678 0004 12000000 		.4byte	.LFE229
 2679 0008 00000000 		.4byte	.LFB230
 2680 000c 50000000 		.4byte	.LFE230
 2681 0010 00000000 		.4byte	0
 2682 0014 00000000 		.4byte	0
 2683              		.section	.debug_line,"",%progbits
 2684              	.Ldebug_line0:
 2685 0000 50020000 		.section	.debug_str,"MS",%progbits,1
 2685      0200EA01 
 2685      00000201 
 2685      FB0E0D00 
 2685      01010101 
 2686              	.LASF54:
 2687 0000 72656164 		.ascii	"ready_list_t\000"
 2687      795F6C69 
 2687      73745F74 
 2687      00
 2688              	.LASF110:
 2689 000d 73655F74 		.ascii	"se_time\000"
 2689      696D6500 
 2690              	.LASF134:
 2691 0015 77747472 		.ascii	"wttrp\000"
 2691      7000
 2692              	.LASF131:
 2693 001b 7264796D 		.ascii	"rdymsg\000"
 2693      736700
 2694              	.LASF16:
 2695 0022 75696E74 		.ascii	"uint64_t\000"
 2695      36345F74 
 2695      00
 2696              	.LASF84:
 2697 002b 6B65726E 		.ascii	"kernel_stats\000"
 2697      656C5F73 
 2697      74617473 
 2697      00
 2698              	.LASF5:
 2699 0038 5F5F7569 		.ascii	"__uint8_t\000"
 2699      6E74385F 
 2699      7400
 2700              	.LASF106:
 2701 0042 706F7274 		.ascii	"port_intctx\000"
 2701      5F696E74 
 2701      63747800 
 2702              	.LASF53:
 2703 004e 63685F74 		.ascii	"ch_threads_queue\000"
 2703      68726561 
 2703      64735F71 
 2703      75657565 
ARM GAS  /var/folders/c6/c789hm653lg9vtl73krp73tm0000gn/T//ccUvcYCi.s 			page 66


 2703      00
 2704              	.LASF73:
 2705 005f 73797374 		.ascii	"system_debug_t\000"
 2705      656D5F64 
 2705      65627567 
 2705      5F7400
 2706              	.LASF147:
 2707 006e 706F7274 		.ascii	"port_lock\000"
 2707      5F6C6F63 
 2707      6B00
 2708              	.LASF122:
 2709 0078 776F7273 		.ascii	"worst\000"
 2709      7400
 2710              	.LASF125:
 2711 007e 74696D65 		.ascii	"time_measurement_t\000"
 2711      5F6D6561 
 2711      73757265 
 2711      6D656E74 
 2711      5F7400
 2712              	.LASF12:
 2713 0091 6C6F6E67 		.ascii	"long long unsigned int\000"
 2713      206C6F6E 
 2713      6720756E 
 2713      7369676E 
 2713      65642069 
 2714              	.LASF118:
 2715 00a8 63685F74 		.ascii	"ch_trace_buffer_t\000"
 2715      72616365 
 2715      5F627566 
 2715      6665725F 
 2715      7400
 2716              	.LASF113:
 2717 00ba 73655F73 		.ascii	"se_state\000"
 2717      74617465 
 2717      00
 2718              	.LASF132:
 2719 00c3 65786974 		.ascii	"exitcode\000"
 2719      636F6465 
 2719      00
 2720              	.LASF83:
 2721 00cc 6D61696E 		.ascii	"mainthread\000"
 2721      74687265 
 2721      616400
 2722              	.LASF70:
 2723 00d7 76697274 		.ascii	"virtual_timers_list_t\000"
 2723      75616C5F 
 2723      74696D65 
 2723      72735F6C 
 2723      6973745F 
 2724              	.LASF87:
 2725 00ed 43505549 		.ascii	"CPUID\000"
 2725      4400
 2726              	.LASF18:
 2727 00f3 72747469 		.ascii	"rttime_t\000"
 2727      6D655F74 
 2727      00
 2728              	.LASF31:
ARM GAS  /var/folders/c6/c789hm653lg9vtl73krp73tm0000gn/T//ccUvcYCi.s 			page 67


 2729 00fc 705F7072 		.ascii	"p_prio\000"
 2729      696F00
 2730              	.LASF99:
 2731 0103 49534152 		.ascii	"ISAR\000"
 2731      00
 2732              	.LASF10:
 2733 0108 6C6F6E67 		.ascii	"long long int\000"
 2733      206C6F6E 
 2733      6720696E 
 2733      7400
 2734              	.LASF1:
 2735 0116 7369676E 		.ascii	"signed char\000"
 2735      65642063 
 2735      68617200 
 2736              	.LASF46:
 2737 0122 705F6D70 		.ascii	"p_mpool\000"
 2737      6F6F6C00 
 2738              	.LASF142:
 2739 012a 6D5F7175 		.ascii	"m_queue\000"
 2739      65756500 
 2740              	.LASF82:
 2741 0132 76746C69 		.ascii	"vtlist\000"
 2741      737400
 2742              	.LASF148:
 2743 0139 706F7274 		.ascii	"port_unlock\000"
 2743      5F756E6C 
 2743      6F636B00 
 2744              	.LASF123:
 2745 0145 6C617374 		.ascii	"last\000"
 2745      00
 2746              	.LASF80:
 2747 014a 63685F73 		.ascii	"ch_system\000"
 2747      79737465 
 2747      6D00
 2748              	.LASF7:
 2749 0154 6C6F6E67 		.ascii	"long int\000"
 2749      20696E74 
 2749      00
 2750              	.LASF20:
 2751 015d 74737461 		.ascii	"tstate_t\000"
 2751      74655F74 
 2751      00
 2752              	.LASF160:
 2753 0166 2E2E2F2E 		.ascii	"../../../os/rt/ports/ARMCMx/chcore_v7m.c\000"
 2753      2E2F2E2E 
 2753      2F6F732F 
 2753      72742F70 
 2753      6F727473 
 2754              	.LASF111:
 2755 018f 73655F74 		.ascii	"se_tp\000"
 2755      7000
 2756              	.LASF165:
 2757 0195 63685363 		.ascii	"chSchIsPreemptionRequired\000"
 2757      68497350 
 2757      7265656D 
 2757      7074696F 
 2757      6E526571 
ARM GAS  /var/folders/c6/c789hm653lg9vtl73krp73tm0000gn/T//ccUvcYCi.s 			page 68


 2758              	.LASF33:
 2759 01af 705F6E65 		.ascii	"p_newer\000"
 2759      77657200 
 2760              	.LASF139:
 2761 01b7 735F7175 		.ascii	"s_queue\000"
 2761      65756500 
 2762              	.LASF96:
 2763 01bf 42464152 		.ascii	"BFAR\000"
 2763      00
 2764              	.LASF115:
 2765 01c4 74625F73 		.ascii	"tb_size\000"
 2765      697A6500 
 2766              	.LASF97:
 2767 01cc 41465352 		.ascii	"AFSR\000"
 2767      00
 2768              	.LASF59:
 2769 01d1 725F6E65 		.ascii	"r_newer\000"
 2769      77657200 
 2770              	.LASF103:
 2771 01d9 72656761 		.ascii	"regarm_t\000"
 2771      726D5F74 
 2771      00
 2772              	.LASF66:
 2773 01e2 76745F70 		.ascii	"vt_prev\000"
 2773      72657600 
 2774              	.LASF102:
 2775 01ea 5343425F 		.ascii	"SCB_Type\000"
 2775      54797065 
 2775      00
 2776              	.LASF74:
 2777 01f3 63685F73 		.ascii	"ch_system_debug\000"
 2777      79737465 
 2777      6D5F6465 
 2777      62756700 
 2778              	.LASF146:
 2779 0203 6D757465 		.ascii	"mutex_t\000"
 2779      785F7400 
 2780              	.LASF151:
 2781 020b 76616C75 		.ascii	"value\000"
 2781      6500
 2782              	.LASF77:
 2783 0211 6C6F636B 		.ascii	"lock_cnt\000"
 2783      5F636E74 
 2783      00
 2784              	.LASF85:
 2785 021a 69646C65 		.ascii	"idle_thread_wa\000"
 2785      5F746872 
 2785      6561645F 
 2785      776100
 2786              	.LASF25:
 2787 0229 636E745F 		.ascii	"cnt_t\000"
 2787      7400
 2788              	.LASF36:
 2789 022f 705F7374 		.ascii	"p_stklimit\000"
 2789      6B6C696D 
 2789      697400
 2790              	.LASF0:
ARM GAS  /var/folders/c6/c789hm653lg9vtl73krp73tm0000gn/T//ccUvcYCi.s 			page 69


 2791 023a 756E7369 		.ascii	"unsigned int\000"
 2791      676E6564 
 2791      20696E74 
 2791      00
 2792              	.LASF150:
 2793 0247 5F5F7365 		.ascii	"__set_PSP\000"
 2793      745F5053 
 2793      5000
 2794              	.LASF65:
 2795 0251 76745F6E 		.ascii	"vt_next\000"
 2795      65787400 
 2796              	.LASF135:
 2797 0259 77747365 		.ascii	"wtsemp\000"
 2797      6D7000
 2798              	.LASF41:
 2799 0260 705F6D73 		.ascii	"p_msgqueue\000"
 2799      67717565 
 2799      756500
 2800              	.LASF126:
 2801 026b 6E5F6972 		.ascii	"n_irq\000"
 2801      7100
 2802              	.LASF89:
 2803 0271 56544F52 		.ascii	"VTOR\000"
 2803      00
 2804              	.LASF140:
 2805 0276 735F636E 		.ascii	"s_cnt\000"
 2805      7400
 2806              	.LASF161:
 2807 027c 2F557365 		.ascii	"/Users/savonetj/Downloads/ChibiOS_3.0.2/demos/STM32"
 2807      72732F73 
 2807      61766F6E 
 2807      65746A2F 
 2807      446F776E 
 2808 02af 2F52542D 		.ascii	"/RT-STM32F407-OLIMEX_E407-LWIP-FATFS-USB\000"
 2808      53544D33 
 2808      32463430 
 2808      372D4F4C 
 2808      494D4558 
 2809              	.LASF130:
 2810 02d8 6B65726E 		.ascii	"kernel_stats_t\000"
 2810      656C5F73 
 2810      74617473 
 2810      5F7400
 2811              	.LASF50:
 2812 02e7 63685F74 		.ascii	"ch_thread\000"
 2812      68726561 
 2812      6400
 2813              	.LASF88:
 2814 02f1 49435352 		.ascii	"ICSR\000"
 2814      00
 2815              	.LASF23:
 2816 02f6 6D73675F 		.ascii	"msg_t\000"
 2816      7400
 2817              	.LASF90:
 2818 02fc 41495243 		.ascii	"AIRCR\000"
 2818      5200
 2819              	.LASF94:
ARM GAS  /var/folders/c6/c789hm653lg9vtl73krp73tm0000gn/T//ccUvcYCi.s 			page 70


 2820 0302 44465352 		.ascii	"DFSR\000"
 2820      00
 2821              	.LASF26:
 2822 0307 75636E74 		.ascii	"ucnt_t\000"
 2822      5F7400
 2823              	.LASF95:
 2824 030e 4D4D4641 		.ascii	"MMFAR\000"
 2824      5200
 2825              	.LASF163:
 2826 0314 5F706F72 		.ascii	"_port_irq_epilogue\000"
 2826      745F6972 
 2826      715F6570 
 2826      696C6F67 
 2826      756500
 2827              	.LASF117:
 2828 0327 74625F62 		.ascii	"tb_buffer\000"
 2828      75666665 
 2828      7200
 2829              	.LASF129:
 2830 0331 6D5F6372 		.ascii	"m_crit_isr\000"
 2830      69745F69 
 2830      737200
 2831              	.LASF55:
 2832 033c 63685F72 		.ascii	"ch_ready_list\000"
 2832      65616479 
 2832      5F6C6973 
 2832      7400
 2833              	.LASF24:
 2834 034a 6576656E 		.ascii	"eventmask_t\000"
 2834      746D6173 
 2834      6B5F7400 
 2835              	.LASF152:
 2836 0356 746F704F 		.ascii	"topOfProcStack\000"
 2836      6650726F 
 2836      63537461 
 2836      636B00
 2837              	.LASF6:
 2838 0365 5F5F696E 		.ascii	"__int32_t\000"
 2838      7433325F 
 2838      7400
 2839              	.LASF104:
 2840 036f 73746B61 		.ascii	"stkalign_t\000"
 2840      6C69676E 
 2840      5F7400
 2841              	.LASF49:
 2842 037a 74687265 		.ascii	"threads_list_t\000"
 2842      6164735F 
 2842      6C697374 
 2842      5F7400
 2843              	.LASF40:
 2844 0389 705F7761 		.ascii	"p_waiting\000"
 2844      6974696E 
 2844      6700
 2845              	.LASF86:
 2846 0393 73697A65 		.ascii	"sizetype\000"
 2846      74797065 
 2846      00
ARM GAS  /var/folders/c6/c789hm653lg9vtl73krp73tm0000gn/T//ccUvcYCi.s 			page 71


 2847              	.LASF48:
 2848 039c 74687265 		.ascii	"thread_reference_t\000"
 2848      61645F72 
 2848      65666572 
 2848      656E6365 
 2848      5F7400
 2849              	.LASF71:
 2850 03af 63685F76 		.ascii	"ch_virtual_timers_list\000"
 2850      69727475 
 2850      616C5F74 
 2850      696D6572 
 2850      735F6C69 
 2851              	.LASF92:
 2852 03c6 43465352 		.ascii	"CFSR\000"
 2852      00
 2853              	.LASF116:
 2854 03cb 74625F70 		.ascii	"tb_ptr\000"
 2854      747200
 2855              	.LASF114:
 2856 03d2 63685F73 		.ascii	"ch_swc_event_t\000"
 2856      77635F65 
 2856      76656E74 
 2856      5F7400
 2857              	.LASF72:
 2858 03e1 76745F6C 		.ascii	"vt_lasttime\000"
 2858      61737474 
 2858      696D6500 
 2859              	.LASF34:
 2860 03ed 705F6F6C 		.ascii	"p_older\000"
 2860      64657200 
 2861              	.LASF58:
 2862 03f5 725F6374 		.ascii	"r_ctx\000"
 2862      7800
 2863              	.LASF107:
 2864 03fb 706F7274 		.ascii	"port_extctx\000"
 2864      5F657874 
 2864      63747800 
 2865              	.LASF120:
 2866 0407 746D5F63 		.ascii	"tm_calibration_t\000"
 2866      616C6962 
 2866      72617469 
 2866      6F6E5F74 
 2866      00
 2867              	.LASF61:
 2868 0418 725F6375 		.ascii	"r_current\000"
 2868      7272656E 
 2868      7400
 2869              	.LASF60:
 2870 0422 725F6F6C 		.ascii	"r_older\000"
 2870      64657200 
 2871              	.LASF11:
 2872 042a 5F5F7569 		.ascii	"__uint64_t\000"
 2872      6E743634 
 2872      5F7400
 2873              	.LASF124:
 2874 0435 63756D75 		.ascii	"cumulative\000"
 2874      6C617469 
ARM GAS  /var/folders/c6/c789hm653lg9vtl73krp73tm0000gn/T//ccUvcYCi.s 			page 72


 2874      766500
 2875              	.LASF21:
 2876 0440 74726566 		.ascii	"trefs_t\000"
 2876      735F7400 
 2877              	.LASF100:
 2878 0448 52455345 		.ascii	"RESERVED0\000"
 2878      52564544 
 2878      3000
 2879              	.LASF156:
 2880 0452 63747870 		.ascii	"ctxp\000"
 2880      00
 2881              	.LASF63:
 2882 0457 76697274 		.ascii	"virtual_timer_t\000"
 2882      75616C5F 
 2882      74696D65 
 2882      725F7400 
 2883              	.LASF30:
 2884 0467 705F7072 		.ascii	"p_prev\000"
 2884      657600
 2885              	.LASF22:
 2886 046e 74707269 		.ascii	"tprio_t\000"
 2886      6F5F7400 
 2887              	.LASF127:
 2888 0476 6E5F6374 		.ascii	"n_ctxswc\000"
 2888      78737763 
 2888      00
 2889              	.LASF158:
 2890 047f 5F426F6F 		.ascii	"_Bool\000"
 2890      6C00
 2891              	.LASF14:
 2892 0485 696E7433 		.ascii	"int32_t\000"
 2892      325F7400 
 2893              	.LASF2:
 2894 048d 756E7369 		.ascii	"unsigned char\000"
 2894      676E6564 
 2894      20636861 
 2894      7200
 2895              	.LASF91:
 2896 049b 53484353 		.ascii	"SHCSR\000"
 2896      5200
 2897              	.LASF157:
 2898 04a1 49544D5F 		.ascii	"ITM_RxBuffer\000"
 2898      52784275 
 2898      66666572 
 2898      00
 2899              	.LASF44:
 2900 04ae 705F6D74 		.ascii	"p_mtxlist\000"
 2900      786C6973 
 2900      7400
 2901              	.LASF3:
 2902 04b8 73686F72 		.ascii	"short int\000"
 2902      7420696E 
 2902      7400
 2903              	.LASF37:
 2904 04c2 705F7374 		.ascii	"p_state\000"
 2904      61746500 
 2905              	.LASF109:
ARM GAS  /var/folders/c6/c789hm653lg9vtl73krp73tm0000gn/T//ccUvcYCi.s 			page 73


 2906 04ca 78707372 		.ascii	"xpsr\000"
 2906      00
 2907              	.LASF57:
 2908 04cf 725F7072 		.ascii	"r_prio\000"
 2908      696F00
 2909              	.LASF137:
 2910 04d6 65776D61 		.ascii	"ewmask\000"
 2910      736B00
 2911              	.LASF29:
 2912 04dd 705F6E65 		.ascii	"p_next\000"
 2912      787400
 2913              	.LASF19:
 2914 04e4 746D6F64 		.ascii	"tmode_t\000"
 2914      655F7400 
 2915              	.LASF38:
 2916 04ec 705F666C 		.ascii	"p_flags\000"
 2916      61677300 
 2917              	.LASF47:
 2918 04f4 705F7374 		.ascii	"p_stats\000"
 2918      61747300 
 2919              	.LASF4:
 2920 04fc 73686F72 		.ascii	"short unsigned int\000"
 2920      7420756E 
 2920      7369676E 
 2920      65642069 
 2920      6E7400
 2921              	.LASF108:
 2922 050f 6C725F74 		.ascii	"lr_thd\000"
 2922      686400
 2923              	.LASF164:
 2924 0516 5356435F 		.ascii	"SVC_Handler\000"
 2924      48616E64 
 2924      6C657200 
 2925              	.LASF64:
 2926 0522 63685F76 		.ascii	"ch_virtual_timer\000"
 2926      69727475 
 2926      616C5F74 
 2926      696D6572 
 2926      00
 2927              	.LASF138:
 2928 0533 63685F73 		.ascii	"ch_semaphore\000"
 2928      656D6170 
 2928      686F7265 
 2928      00
 2929              	.LASF43:
 2930 0540 705F6570 		.ascii	"p_epending\000"
 2930      656E6469 
 2930      6E6700
 2931              	.LASF15:
 2932 054b 75696E74 		.ascii	"uint32_t\000"
 2932      33325F74 
 2932      00
 2933              	.LASF136:
 2934 0554 77746D74 		.ascii	"wtmtxp\000"
 2934      787000
 2935              	.LASF56:
 2936 055b 725F7175 		.ascii	"r_queue\000"
ARM GAS  /var/folders/c6/c789hm653lg9vtl73krp73tm0000gn/T//ccUvcYCi.s 			page 74


 2936      65756500 
 2937              	.LASF67:
 2938 0563 76745F64 		.ascii	"vt_delta\000"
 2938      656C7461 
 2938      00
 2939              	.LASF51:
 2940 056c 63685F74 		.ascii	"ch_threads_list\000"
 2940      68726561 
 2940      64735F6C 
 2940      69737400 
 2941              	.LASF9:
 2942 057c 6C6F6E67 		.ascii	"long unsigned int\000"
 2942      20756E73 
 2942      69676E65 
 2942      6420696E 
 2942      7400
 2943              	.LASF145:
 2944 058e 63686172 		.ascii	"char\000"
 2944      00
 2945              	.LASF153:
 2946 0593 706F7274 		.ascii	"port_unlock_from_isr\000"
 2946      5F756E6C 
 2946      6F636B5F 
 2946      66726F6D 
 2946      5F697372 
 2947              	.LASF28:
 2948 05a8 74687265 		.ascii	"thread_t\000"
 2948      61645F74 
 2948      00
 2949              	.LASF121:
 2950 05b1 62657374 		.ascii	"best\000"
 2950      00
 2951              	.LASF144:
 2952 05b6 6D5F6E65 		.ascii	"m_next\000"
 2952      787400
 2953              	.LASF27:
 2954 05bd 73797374 		.ascii	"systime_t\000"
 2954      696D655F 
 2954      7400
 2955              	.LASF45:
 2956 05c7 705F7265 		.ascii	"p_realprio\000"
 2956      616C7072 
 2956      696F00
 2957              	.LASF62:
 2958 05d2 76746675 		.ascii	"vtfunc_t\000"
 2958      6E635F74 
 2958      00
 2959              	.LASF8:
 2960 05db 5F5F7569 		.ascii	"__uint32_t\000"
 2960      6E743332 
 2960      5F7400
 2961              	.LASF149:
 2962 05e6 5F5F7365 		.ascii	"__set_BASEPRI\000"
 2962      745F4241 
 2962      53455052 
 2962      4900
 2963              	.LASF75:
ARM GAS  /var/folders/c6/c789hm653lg9vtl73krp73tm0000gn/T//ccUvcYCi.s 			page 75


 2964 05f4 70616E69 		.ascii	"panic_msg\000"
 2964      635F6D73 
 2964      6700
 2965              	.LASF119:
 2966 05fe 6F666673 		.ascii	"offset\000"
 2966      657400
 2967              	.LASF105:
 2968 0605 636F6E74 		.ascii	"context\000"
 2968      65787400 
 2969              	.LASF79:
 2970 060d 63685F73 		.ascii	"ch_system_t\000"
 2970      79737465 
 2970      6D5F7400 
 2971              	.LASF17:
 2972 0619 7274636E 		.ascii	"rtcnt_t\000"
 2972      745F7400 
 2973              	.LASF154:
 2974 0621 706F7274 		.ascii	"port_lock_from_isr\000"
 2974      5F6C6F63 
 2974      6B5F6672 
 2974      6F6D5F69 
 2974      737200
 2975              	.LASF162:
 2976 0634 5F5F6765 		.ascii	"__get_PSP\000"
 2976      745F5053 
 2976      5000
 2977              	.LASF69:
 2978 063e 76745F70 		.ascii	"vt_par\000"
 2978      617200
 2979              	.LASF52:
 2980 0645 74687265 		.ascii	"threads_queue_t\000"
 2980      6164735F 
 2980      71756575 
 2980      655F7400 
 2981              	.LASF141:
 2982 0655 63685F6D 		.ascii	"ch_mutex\000"
 2982      75746578 
 2982      00
 2983              	.LASF39:
 2984 065e 705F7265 		.ascii	"p_refs\000"
 2984      667300
 2985              	.LASF76:
 2986 0665 6973725F 		.ascii	"isr_cnt\000"
 2986      636E7400 
 2987              	.LASF98:
 2988 066d 4D4D4652 		.ascii	"MMFR\000"
 2988      00
 2989              	.LASF81:
 2990 0672 726C6973 		.ascii	"rlist\000"
 2990      7400
 2991              	.LASF13:
 2992 0678 75696E74 		.ascii	"uint8_t\000"
 2992      385F7400 
 2993              	.LASF133:
 2994 0680 77746F62 		.ascii	"wtobjp\000"
 2994      6A7000
 2995              	.LASF35:
ARM GAS  /var/folders/c6/c789hm653lg9vtl73krp73tm0000gn/T//ccUvcYCi.s 			page 76


 2996 0687 705F6E61 		.ascii	"p_name\000"
 2996      6D6500
 2997              	.LASF78:
 2998 068e 74726163 		.ascii	"trace_buffer\000"
 2998      655F6275 
 2998      66666572 
 2998      00
 2999              	.LASF159:
 3000 069b 474E5520 		.ascii	"GNU C 4.8.4 20140725 (release) [ARM/embedded-4_8-br"
 3000      4320342E 
 3000      382E3420 
 3000      32303134 
 3000      30373235 
 3001 06ce 616E6368 		.ascii	"anch revision 213147] -mcpu=cortex-m4 -mno-thumb-in"
 3001      20726576 
 3001      6973696F 
 3001      6E203231 
 3001      33313437 
 3002 0701 74657277 		.ascii	"terwork -mthumb -ggdb -O2 -fomit-frame-pointer -fal"
 3002      6F726B20 
 3002      2D6D7468 
 3002      756D6220 
 3002      2D676764 
 3003 0734 69676E2D 		.ascii	"ign-functions=16 -ffunction-sections -fdata-section"
 3003      66756E63 
 3003      74696F6E 
 3003      733D3136 
 3003      202D6666 
 3004 0767 73202D66 		.ascii	"s -fno-common -flto\000"
 3004      6E6F2D63 
 3004      6F6D6D6F 
 3004      6E202D66 
 3004      6C746F00 
 3005              	.LASF42:
 3006 077b 705F6D73 		.ascii	"p_msg\000"
 3006      6700
 3007              	.LASF101:
 3008 0781 43504143 		.ascii	"CPACR\000"
 3008      5200
 3009              	.LASF93:
 3010 0787 48465352 		.ascii	"HFSR\000"
 3010      00
 3011              	.LASF128:
 3012 078c 6D5F6372 		.ascii	"m_crit_thd\000"
 3012      69745F74 
 3012      686400
 3013              	.LASF143:
 3014 0797 6D5F6F77 		.ascii	"m_owner\000"
 3014      6E657200 
 3015              	.LASF155:
 3016 079f 72657375 		.ascii	"result\000"
 3016      6C7400
 3017              	.LASF112:
 3018 07a6 73655F77 		.ascii	"se_wtobjp\000"
 3018      746F626A 
 3018      7000
 3019              	.LASF32:
ARM GAS  /var/folders/c6/c789hm653lg9vtl73krp73tm0000gn/T//ccUvcYCi.s 			page 77


 3020 07b0 705F6374 		.ascii	"p_ctx\000"
 3020      7800
 3021              	.LASF68:
 3022 07b6 76745F66 		.ascii	"vt_func\000"
 3022      756E6300 
 3023              		.comm	__gnu_lto_v1,1,1
 3024              		.ident	"GCC: (GNU Tools for ARM Embedded Processors) 4.8.4 20140725 (release) [ARM/embedded-4_8-br
ARM GAS  /var/folders/c6/c789hm653lg9vtl73krp73tm0000gn/T//ccUvcYCi.s 			page 78


DEFINED SYMBOLS
                            *ABS*:0000000000000000 chcore_v7m.c
/var/folders/c6/c789hm653lg9vtl73krp73tm0000gn/T//ccUvcYCi.s:306    .text.SVC_Handler:0000000000000000 $t
/var/folders/c6/c789hm653lg9vtl73krp73tm0000gn/T//ccUvcYCi.s:312    .text.SVC_Handler:0000000000000000 SVC_Handler
/var/folders/c6/c789hm653lg9vtl73krp73tm0000gn/T//ccUvcYCi.s:366    .text._port_irq_epilogue:0000000000000000 $t
/var/folders/c6/c789hm653lg9vtl73krp73tm0000gn/T//ccUvcYCi.s:372    .text._port_irq_epilogue:0000000000000000 _port_irq_epilogue
/var/folders/c6/c789hm653lg9vtl73krp73tm0000gn/T//ccUvcYCi.s:467    .text._port_irq_epilogue:0000000000000044 $d
                            *COM*:0000000000000001 __gnu_lto_v1
                     .debug_frame:0000000000000010 $d

UNDEFINED SYMBOLS
chSchIsPreemptionRequired
_port_switch_from_isr
_port_exit_from_isr
