ARM GAS  /var/folders/c6/c789hm653lg9vtl73krp73tm0000gn/T//ccjnlM3Z.s 			page 1


   1              		.syntax unified
   2              		.cpu cortex-m4
   3              		.fpu softvfp
   4              		.eabi_attribute 20, 1
   5              		.eabi_attribute 21, 1
   6              		.eabi_attribute 23, 3
   7              		.eabi_attribute 24, 1
   8              		.eabi_attribute 25, 1
   9              		.eabi_attribute 26, 1
  10              		.eabi_attribute 30, 2
  11              		.eabi_attribute 34, 1
  12              		.eabi_attribute 18, 4
  13              		.thumb
  14              		.file	"chheap.c"
  15              		.text
  16              	.Ltext0:
  17              		.section	.gnu.lto_.jmpfuncs.5291d388c91db3a5,"",%progbits
  18 0000 789C6362 		.ascii	"x\234cb`b\300\006\026BiV\006\006F\246j\206_\015\035"
  18      6062C006 
  18      16426956 
  18      060646A6 
  18      6A865F0D 
  19 0015 0D02998C 		.ascii	"\015\002\231\214\014\332\014\253\032\032@,\306\\F\206"
  19      0CDA0CAB 
  19      1A1A402C 
  19      C65C4686 
  20 0025 2446B872 		.ascii	"$F\270rF\306\007\377\241\2001\2021\223\021h(3;#K\003"
  20      46C607FF 
  20      A1803182 
  20      31931168 
  20      28333B23 
  21 003b 90095204 		.ascii	"\220\011R\0041b\006H#s.X\204\201\225\031H\301Q=\003"
  21      31620648 
  21      23732E58 
  21      84819519 
  21      48C1513D 
  22 0050 031B481C 		.ascii	"\003\033H\034I!K.#\330i\330E9\240\332\031\000\265\237"
  22      49214B2E 
  22      23D869D8 
  22      4539A0DA 
  22      1900B59F 
  23 0064 1EFA     		.ascii	"\036\372"
  24              		.text
  25              		.section	.gnu.lto_.inline.5291d388c91db3a5,"",%progbits
  26 0000 789C6362 		.ascii	"x\234cb`b\300\006\322\030!4+\003\003\207\000#\003\023"
  26      6062C006 
  26      D2182134 
  26      2B030387 
  26      00230313 
  27 0014 DB073D06 		.ascii	"\333\007=\006\266\005\362`\305L\334\014\014\214\014"
  27      B605F260 
  27      C54CDC0C 
  27      0C8C0C
  28 0023 CC0CC20A 		.ascii	"\314\014\302\012\214\314\214 uL`\305 \202\205\265C\235"
  28      8CCC8C20 
  28      754C60C5 
  28      208285B5 
ARM GAS  /var/folders/c6/c789hm653lg9vtl73krp73tm0000gn/T//ccjnlM3Z.s 			page 2


  28      439D
  29 0035 817B851B 		.ascii	"\201{\205\033\023\003P\003\013\003\307\027\003\016\270"
  29      13035003 
  29      0B03C717 
  29      030EB8
  30 0044 8E097E10 		.ascii	"\216\011~\020\215\254\014\372\037\030\030Y\030\322#"
  30      8DAC0CFA 
  30      1F181859 
  30      18D223
  31 0053 18331959 		.ascii	"\0303\031YA\322\031p\026\310\014\260\221,f\035=\234"
  31      41D21970 
  31      16C80CB0 
  31      912C661D 
  31      3D9C
  32 0065 101B5916 		.ascii	"\020\033Y\026\310\0130p\354\323S@7\011N\261\012\202"
  32      C80B3070 
  32      ECD35340 
  32      37094EB1 
  32      0A82
  33 0077 293606CB 		.ascii	")6\006\313\035L\214\314\020\203\331\340\006\263\301"
  33      1D4C8CCC 
  33      1083D9E0 
  33      06B3C1
  34 0086 0C66F67B 		.ascii	"\014f\366{sX\216\201o\2063\330u\002(\3061\002U \014"
  34      73588E81 
  34      6F8633D8 
  34      750228C6 
  34      31025520 
  35 009b 6501F238 		.ascii	"e\001\3628\030\204\3562\0005cq&#\230\305\016b\245\303"
  35      1884EE32 
  35      00356371 
  35      262398C5 
  35      0E62A5C3 
  36 00af 5808A7B3 		.ascii	"X\010\247\263\361<y\304\016w\272\003\210h\000\032\337"
  36      F13C79C4 
  36      0E77BA03 
  36      8868001A 
  36      DF
  37 00c0 C42EC004 		.ascii	"\304.\300\004&1\275\301\000\000eA*l"
  37      2631BDC1 
  37      00006541 
  37      2A6C
  38              		.text
  39              		.section	.gnu.lto_.pureconst.5291d388c91db3a5,"",%progbits
  40 0000 789C6362 		.ascii	"x\234cb`b\340f\200\000V\006\011f)V)6)\016)\000\004M"
  40      6062E066 
  40      80005606 
  40      09662956 
  40      2936290E 
  41 0018 00AB     		.ascii	"\000\253"
  42              		.text
  43              		.section	.gnu.lto__heap_init.5291d388c91db3a5,"",%progbits
  44 0000 789C6362 		.ascii	"x\234cb`b@\007\222@\374\225\221\201A\016H32302M8\307"
  44      60624007 
  44      9240FC95 
  44      9181410E 
  44      48333233 
ARM GAS  /var/folders/c6/c789hm653lg9vtl73krp73tm0000gn/T//ccjnlM3Z.s 			page 3


  45 0019 C0D0C8C1 		.ascii	"\300\320\310\301\304\310\010b002\32431\326G2\202\325"
  45      C4C80862 
  45      303032D4 
  45      3331D647 
  45      3282D5
  46 002c AE673AF0 		.ascii	"\256g:\360\340\377\377u\337\216M\277\3038\207\211\015"
  46      E0FFFF75 
  46      DF8E4DBF 
  46      C3388789 
  46      0D
  47 003d 28C2CAD0 		.ascii	"(\302\312\320\322\3200A\201\201!\031\254\"\004H\202"
  47      D2D03041 
  47      81812119 
  47      AC220448 
  47      82
  48 004e B4853232 		.ascii	"\264\20522\201h\346\263\014M\277\232\277\367Z'2.dde"
  48      8168E6B3 
  48      0C4DBF9A 
  48      BFF75A27 
  48      322E6464 
  49 0063 D06658D5 		.ascii	"\320fX\325\000\004\366\231\214\014\263\031f564\010d"
  49      0004F699 
  49      8C0CB319 
  49      66353634 
  49      0864
  50 0075 32325633 		.ascii	"22V3\374j\350\000\261\230r\301FD0\002\231`\333\222 "
  50      FC6AE800 
  50      B19872C1 
  50      46443002 
  50      9960DB92 
  51 008a 96324054 		.ascii	"\2262@T4Tg22'3B\304\200\346\356\270\361\376\000\013"
  51      34546732 
  51      32273342 
  51      C480E6EE 
  51      B8F1FE00 
  52 009f 8AB9A599 		.ascii	"\212\271\245\231\214,Pfa&#+\224\031\233\311\310\206"
  52      8C2C5066 
  52      6126232B 
  52      94199BC9 
  52      C886
  53 00b1 B0989D38 		.ascii	"\260\230\2358\213\031\2414\214\317\014\245Y\030`*Y`"
  53      8B19A134 
  53      8CCF0CA5 
  53      5918602A 
  53      5960
  54 00c3 CEF8F1FE 		.ascii	"\316\370\361\376\0033\2123\200vsP\323nV\270\235\034"
  54      03338A33 
  54      80767350 
  54      D36E56B8 
  54      9D1C
  55 00d5 20C67986 		.ascii	" \306y\206\226\007'\017sA\254\204\005\016\320$\316d"
  55      9607270F 
  55      7341AC84 
  55      050ED024 
  55      CE64
  56 00e7 A80E9008 		.ascii	"\250\016\220\010G&#\027\324\342\211@\215\334@[\222\030"
  56      47262317 
ARM GAS  /var/folders/c6/c789hm653lg9vtl73krp73tm0000gn/T//ccjnlM3Z.s 			page 4


  56      D4E28940 
  56      8DDC405B 
  56      9218
  57 00f9 D9C0D250 		.ascii	"\331\300\322P\215\231\214<\014\014\027\031\032\037\234"
  57      8D998C3C 
  57      0C0C1719 
  57      1A1F9C
  58 0108 55861905 		.ascii	"U\206\031\005\001!@\007\000\243\016d\226\214\236\236"
  58      01214007 
  58      00A30E64 
  58      968C9E9E 
  59 0118 3E04E517 		.ascii	">\004\345\027\353\027\225\350\027\027%\353'gd\244&\026"
  59      EB1795E8 
  59      171725EB 
  59      276764A4 
  59      2616
  60 012a E8253300 		.ascii	"\350%3\000\000\377\313\203o"
  60      00FFCB83 
  60      6F
  61              		.text
  62              		.section	.gnu.lto_chHeapObjectInit.5291d388c91db3a5,"",%progbits
  63 0000 789CA553 		.ascii	"x\234\245S\315k\023Q\020\237y\037\233\246\037\333\324"
  63      CD6B1351 
  63      109F791F 
  63      9BA61FDB 
  63      D4
  64 0011 8358102D 		.ascii	"\203X\020-\205\"T\314ZP\352\325?Ah\300\036\323E\223"
  64      852254CC 
  64      5A50EAD5 
  64      3F4168C0 
  64      1ED34593 
  65 0025 3D144BA3 		.ascii	"=\024K\243\027{\350k\023\260\212\220\320\213E=XT\020"
  65      177BE86B 
  65      13B08A90 
  65      D08B453D 
  65      585410
  66 0038 11BC0806 		.ascii	"\021\274\010\006\214\270G{\320V\020\364\230\243\007"
  66      8CB8477B 
  66      D05610F4 
  66      98A307
  67 0047 D1A3A585 		.ascii	"\321\243\245\205l\347\355\276\315\272m\221\202C\262"
  67      6CE7EDBE 
  67      CDBA6D91 
  67      8243B2
  68 0056 336F7666 		.ascii	"3ovf~\363\233y\313\200\301~\271L\377\013\002\340\014"
  68      7EF39B79 
  68      CB80C17E 
  68      B94CFF0B 
  68      02E00C
  69 0069 69B40059 		.ascii	"i\264\000Y\3433\300R\017c\342\353qP\275\2745\011\252"
  69      E333C052 
  69      0F63E2EB 
  69      7150BDBC 
  69      3509AA
  70 007c 9FD3C9A1 		.ascii	"\237\323\311\241\223l\235\242\223@\031\005IDm\000\302"
  70      936C9DA2 
  70      93401905 
ARM GAS  /var/folders/c6/c789hm653lg9vtl73krp73tm0000gn/T//ccjnlM3Z.s 			page 5


  70      49446D00 
  70      C2
  71 008d 22E342E2 		.ascii	"\"\343B\342\3424\352\222l\024\326\225Zm?\337]\033\276"
  71      E234EA92 
  71      6C14D695 
  71      5A6D3FDF 
  71      5D1BBE
  72 00a0 F764B9A1 		.ascii	"\367d\271\241:A\200\036\022\370i\004\027\341*\035p$"
  72      3A41801E 
  72      12F86904 
  72      17E12A1D 
  72      7024
  73 00b2 544CA4BB 		.ascii	"TL\244\273\231Ex\315\374v\020\274z\377\346\376c|\301"
  73      994578CD 
  73      FC7610BC 
  73      7AFFE6FE 
  73      637CC1
  74 00c5 8E319C45 		.ascii	"\2161\234E\344P\304u\034\005\001TF\222\207Y\332\312"
  74      E450C475 
  74      1C050154 
  74      46928759 
  74      DACA
  75 00d7 92C56D6D 		.ascii	"\222\305mm\345\350\301)_BM\251\306H\324\200\377\355"
  75      E5E8C129 
  75      5F424DA9 
  75      C648D480 
  75      FFED
  76 00e9 CE836195 		.ascii	"\316\203a\2254 \030\214\035\241\001\320!$S\364\324\364"
  76      3420188C 
  76      1DA101D0 
  76      212453F4 
  76      D4F4
  77 00fb 0AC8B4E6 		.ascii	"\012\310\264\346\033\300\212\370\024%\365\362\214z)"
  77      1BC08AF8 
  77      1425F5F2 
  77      8C7A29
  78 010a 911B3EC1 		.ascii	"\221\033>\301\362\257\352\333:\217^\224\220\033o\365"
  78      F2AFEADB 
  78      3A8F5E94 
  78      901B6FF5 
  79 011a 5DD725C8 		.ascii	"]\327%\310\253\221 C5?B\355'v\337\204\356\277\245@$"
  79      AB912043 
  79      353F42ED 
  79      2776DF84 
  79      EEBFA540 
  80 012f 5A933C95 		.ascii	"Z\223<\225o\225P\352@y \337\012\335\351|\001\037.\361"
  80      6F9550EA 
  80      407920DF 
  80      0ADDE97C 
  80      011F2EF1 
  81 0143 4D10510C 		.ascii	"M\020Q\014\300\002\354\250\025\225\363\320r1\302\322"
  81      C002ECA8 
  81      1595F3D0 
  81      7231C2D2 
  82 0153 9E131E66 		.ascii	"\236\023\036f\210\251\011\362\260'N\227!Sb\325\334\336"
  82      88A909F2 
  82      B0274E97 
ARM GAS  /var/folders/c6/c789hm653lg9vtl73krp73tm0000gn/T//ccjnlM3Z.s 			page 6


  82      215362D5 
  82      DCDE
  83 0165 FD61E89E 		.ascii	"\375a\350\236\205\227\212d\302\303\354#xH\220\275%\314"
  83      85978A64 
  83      C2C3EC23 
  83      784890BD 
  83      25CC
  84 0177 6AE8BE30 		.ascii	"j\350\2760i\306P\320\236\2546({c\255\263\305S\331\323"
  84      69C650D0 
  84      9EAC3628 
  84      7B63ADB3 
  84      C553D9D3 
  85 018b 347E6316 		.ascii	"4~c\026<\3547\346\025\017\007\222\362\366\341\345\321"
  85      3CEC37E6 
  85      150F0792 
  85      F2F6E1E5 
  85      D1
  86 019c 68663437 		.ascii	"hf47:\332\\\274\206f\263\343\247!\011G\376\017\216\354"
  86      3ADA5CBC 
  86      8666B3E3 
  86      A7210947 
  86      FE0F8EEC 
  87 01b0 D2928656 		.ascii	"\322\222\206V\363{\307O\017\345bBk\"\241\325Gp\021\206"
  87      F37BC74F 
  87      0FE56242 
  87      6B22A1D5 
  87      47701186 
  88 01c4 4DEDE90A 		.ascii	"M\355\351\012\342\237\034\272\021\264\370\225\352\357"
  88      E29F1CBA 
  88      11B4F895 
  88      EAEF
  89 01d2 FAB978C3 		.ascii	"\372\271x\303v\274\373\355 \010\006\315l\2672\373\367"
  89      76BCFBED 
  89      200806CD 
  89      6CB732FB 
  89      F7
  90 01e3 228F8C2B 		.ascii	"\"\217\214+\315\314\354\260\324N\365O}<\306\312-\300"
  90      CDCCECB0 
  90      D44EF54F 
  90      7D3CC6CA 
  90      2DC0
  91 01f5 6DFA884C 		.ascii	"m\372\210L\251\212\207\203\207\217\311J\256\333&\324"
  91      A98A8783 
  91      878FC94A 
  91      AEDB26D4 
  92 0205 FCF10337 		.ascii	"\374\361\0037-\347\0328\252\351\341\020\300\027Xj\337"
  92      2DE71A38 
  92      AAE9E110 
  92      C017586A 
  92      DF
  93 0216 1D8BE322 		.ascii	"\035\213\343\"\231\242q\323U\323\201'\363y'\372\335"
  93      99A271D3 
  93      55D38127 
  93      F37927FA 
  93      DD
  94 0227 A838F337 		.ascii	"\2508\3637\235\312\274\353\270\345\362\265\342\\\336"
  94      9DCABCEB 
ARM GAS  /var/folders/c6/c789hm653lg9vtl73krp73tm0000gn/T//ccjnlM3Z.s 			page 7


  94      B8E5F2B5 
  94      E25CDE
  95 0236 053973EB 		.ascii	"\0059s\353z\376<+\317\355\001z+\367p"
  95      7AFE3C2B 
  95      CFED017A 
  95      2BF770
  96              		.text
  97              		.section	.gnu.lto_chHeapAlloc.5291d388c91db3a5,"",%progbits
  98 0000 789CC556 		.ascii	"x\234\305V\335k\034U\024?\347\336\335\231\331\257\331"
  98      DD6B1C55 
  98      143FE7DE 
  98      DD99D9AF 
  98      D9
  99 0011 2D094D91 		.ascii	"-\011M\221\224\204\205X\260\220P\212H(\265\210\376\003"
  99      94848558 
  99      B090508A 
  99      4828B588 
  99      FE03
 100 0023 4203FA66 		.ascii	"B\003\372f\022c\262\017\305\264\325\027\373\220Iv\013"
 100      1263B20F 
 100      C5B4D517 
 100      FB904976 
 100      0B
 101 0034 D1FA1085 		.ascii	"\321\372\020\205\244~\364!\245\224\202\242\001?H\260"
 101      A47EF421 
 101      A59482A2 
 101      013F48B0 
 102 0044 916E43D1 		.ascii	"\221nC\321$\325\330>HSiiZ\015\005+h\360!5\010\3539\367"
 102      24D5D83E 
 102      48536969 
 102      5A0D052B 
 102      68F02135 
 103 005c 6376B646 		.ascii	"cv\266F\263}\020\207\344~\314=\347w~\347\343\236Y\001"
 103      B37D1087 
 103      E47ECC3D 
 103      E7777EE7 
 103      E39E5901 
 104 0070 021E7CBE 		.ascii	"\002\036|\276\244\377\236$\300.\2321\007(\306\226\000"
 104      A4FF9E24 
 104      C02E9A31 
 104      0728C696 
 104      00
 105 0081 863D21E4 		.ascii	"\206=!\344\215\024\004\311\330gs\000AZbL\277\217aR/"
 105      8D1404C9 
 105      D8677300 
 105      415A624C 
 105      BF8F6152 
 106 0096 E2C29993 		.ascii	"\342\302\231\223$\220]Zd\001G\270\243\273h\353\361\230"
 106      24905D5A 
 106      640147B8 
 106      A3BB68EB 
 106      F198
 107 00a8 7631A1A5 		.ascii	"v1\241\245<\273H\240\257\027Y\015\360TR\304\225f2\305"
 107      3CBB48A0 
 107      AF17590D 
 107      F05452C4 
 107      956632C5 
ARM GAS  /var/folders/c6/c789hm653lg9vtl73krp73tm0000gn/T//ccjnlM3Z.s 			page 8


 108 00bc 30E99448 		.ascii	"0\351\224H\177\245\266\376\"o\323\"s\345\033\265-#m"
 108      7FA5B6FE 
 108      226FD322 
 108      73E51BB5 
 108      2D236D
 109 00cf 3356DB47 		.ascii	"3V\333G\344\005 \014\011\031\213;\256\227\310&S\351"
 109      E405200C 
 109      09198B3B 
 109      AE97C826 
 109      53E9
 110 00e1 8C8F43CF 		.ascii	"\214\217C\317#\273#\363p:\010\336^9\376\341\232x7(\227"
 110      23BB23F3 
 110      703A08DE 
 110      5E39FEE1 
 110      9A783728 
 111 00f6 26833F2B 		.ascii	"&\203?+\025\304\002\222\353-\010\275\010\317\321\006"
 111      15C40292 
 111      EB2D08BD 
 111      08CFD106 
 112 0106 5BD52462 		.ascii	"[\325$b\265\261\320\272\301\372\213\363A\251\\\251\034"
 112      B5B1D0BA 
 112      C1FA8BF3 
 112      41A95CA9 
 112      1C
 113 0117 505AF93A 		.ascii	"PZ\371:\265\336\352\213j\265m\2455%\312+\225\312\354"
 113      B5DEEA8B 
 113      6AB56DA5 
 113      3525CA2B 
 113      95CAEC
 114 012a F7333F9E 		.ascii	"\3673?\236\302\206G\021\016\261V7\236\306<H(\240t\220"
 114      C2864711 
 114      0EB15637 
 114      9EC63C48 
 114      28A07490 
 115 013e DEB834A0 		.ascii	"\336\2704\240G\333X\202\0040i\004R\364&\356\323\000"
 115      47DB5882 
 115      04306904 
 115      52F426EE 
 115      D300
 116 0150 593ECBF1 		.ascii	"Y>\313\361\260\215\267\015$p\226\004\032y\263\235_7"
 116      B08DB70D 
 116      24709604 
 116      1A79B39D 
 116      5F37
 117 0162 F1B09301 		.ascii	"\361\260\223\001[hpZy\233'\2513$\325ffz\342P\012\202"
 117      5B68705A 
 117      799B27A9 
 117      3324D566 
 117      667AE250 
 118 0178 B1560DAF 		.ascii	"\261V\015\257\337j$`7\3509H\343o\016t\241\240I\316\303"
 118      DF6A2460 
 118      37E83948 
 118      E36F0E74 
 118      A1A049CE 
 119 018d A5BB176F 		.ascii	"\245\273\027o\276!\273\361\034\306\241\037\035\366\320"
 119      BE21BBF1 
 119      1CC6A11F 
ARM GAS  /var/folders/c6/c789hm653lg9vtl73krp73tm0000gn/T//ccjnlM3Z.s 			page 9


 119      1DF6D0
 120 019c 8DBAD785 		.ascii	"\215\272\327\205\022J(\027`dej\325\321r\344\3201\330"
 120      124A2817 
 120      6064656A 
 120      D5D172E4 
 120      D031D8
 121 01af 08468360 		.ascii	"\010F\203`\037I\037B\021\221\2161,I{\300b\375H\346\276"
 121      1F491F42 
 121      11918E31 
 121      2C497BC0 
 121      62FD48E6 
 122 01c4 85E268F1 		.ascii	"\205\342h\361\336\370#\326\210\327\217.\333\361\330"
 122      DEF823D6 
 122      88D78F2E 
 122      DBF1D8
 123 01d3 101D9E2F 		.ascii	"\020\035\236/\366\330\243\004\235\252\243\373\225J%"
 123      F6D8A304 
 123      9DAAA3FB 
 123      954A25
 124 01e2 4BC70B20 		.ascii	"K\307\013 \254M\244c\226\037\331(\376:\356X\215$3\241"
 124      AC4DA463 
 124      961FD928 
 124      FE3AEE58 
 124      8D2433A1 
 125 01f6 670F056A 		.ascii	"g\017\005j7|\300\313\375\005L\274\017\357\021L\222\354"
 125      377CC0CB 
 125      FD054CBC 
 125      0FEF114C 
 125      92EC
 126 0208 573DEAC1 		.ascii	"W=\352\301\210_D\261l@t\260\010\312\240\257\217\207"
 126      885F44B1 
 126      6C4074B0 
 126      08CAA0AF 
 126      8F87
 127 021a F1481D83 		.ascii	"\361H\035\203\327(E\273\341\261\002\2466\307\214\200"
 127      D72845BB 
 127      E1B102A6 
 127      36C78C80 
 128 022a 7E0731AD 		.ascii	"~\0071\255\010&>\271\002\246{\215\004\201\0250\303\253"
 128      08263EB9 
 128      02A67B8D 
 128      04811530 
 128      C3AB
 129 023c EB40AE38 		.ascii	"\353@\2568\002\265L\371\326\242\037FQ\316H\016b\034"
 129      02B54CF9 
 129      D6A21F46 
 129      51CE480E 
 129      621C
 130 024e E84AA998 		.ascii	"\350J\251\230_8\036\222<\243H\372\212\344\017\357|\262"
 130      5F381E92 
 130      3CA348FA 
 130      8AE40FEF 
 130      7CB2
 131 0260 86966456 		.ascii	"\206\226dV\321\363\214\367O\024\320\327L)\230>3\005"
 131      D1F38CF7 
 131      4F14D0D7 
 131      4C29983E 
ARM GAS  /var/folders/c6/c789hm653lg9vtl73krp73tm0000gn/T//ccjnlM3Z.s 			page 10


 131      3305
 132 0272 C3549859 		.ascii	"\303T\230Y\032\272\363P\272;\274'DQ\341\255&\322\201"
 132      1ABAF350 
 132      BA3BBC27 
 132      4451E1AD 
 132      26D281
 133 0285 8FA554A9 		.ascii	"\217\245T\251;7\361\244\025\312\221\220\312\217\247"
 133      3B37F1A4 
 133      15CA9190 
 133      CA8FA7
 134 0294 F42FAD0E 		.ascii	"\364/\255\016?\036\321\317E\365]\270\206\222\251\316"
 134      3F1ED1CF 
 134      45F55DB8 
 134      8692A9CE 
 135 02a4 7CFA4718 		.ascii	"|\372G\030\317m\212\252M\324\261\002sW\313W\267d\035"
 135      CF6D8AAA 
 135      4DD4B102 
 135      7357CB57 
 135      B7641D
 136 02b7 3373DC58 		.ascii	"3s\334X \350\205+)\015l@\236\255\251\201\354f\001\021"
 136      20E8852B 
 136      290D6C40 
 136      9EADA981 
 136      EC660111 
 137 02cb 5B43134B 		.ascii	"[C\023K\353\203\247}(\236(\336\233h\266>4\020A\345k"
 137      EB83A77D 
 137      289E28DE 
 137      9B68B63E 
 137      341041E5 
 138 02e0 589BFA86 		.ascii	"X\233\372\206\321\211\311\315t\325\341\306\377\333\341"
 138      D189C9CD 
 138      74D5E1C6 
 138      FFDBE1
 139 02ef 867A1C6E 		.ascii	"\206z\034nT\367\360\365\342\372\304\220%\276\335V\004"
 139      54F7F0F5 
 139      E2FAC490 
 139      25BEDD56 
 139      04
 140 0300 9740E84E 		.ascii	"\227@\350N\023\035\324\334O&5VKj\377?\324\342\246L\244"
 140      131DD4DC 
 140      4F263556 
 140      4B6AFF3F 
 140      D4E2A64C 
 141 0315 61D0A4A1 		.ascii	"a\320\244\241\226\247\327\304\177\222R\235\232\313\367"
 141      96A7D7C4 
 141      7F92529D 
 141      9ACBF7
 142 0324 A76F8BBA 		.ascii	"\247o\213\272\310\376\313\305\011\357I\027-\324\035"
 142      C8FECBC5 
 142      09EF4917 
 142      2DD41D
 143 0333 19B93CF3 		.ascii	"\031\271<\363\305\337q]\263\354\254\362\336[w\322\035"
 143      C5DF715D 
 143      B3ECACF2 
 143      DE5B77D2 
 143      1D
 144 0344 630AB9AB 		.ascii	"c\012\271\253\224V~^\305\315:\2130R\272\263\250B\375"
ARM GAS  /var/folders/c6/c789hm653lg9vtl73krp73tm0000gn/T//ccjnlM3Z.s 			page 11


 144      94567E5E 
 144      C5CD3A8B 
 144      3052BAB3 
 144      A842FD
 145 0357 BCC9E66A 		.ascii	"\274\311\346j\2471!<S@\0071\013\223_\003vQ\247\243\217"
 145      A731213C 
 145      53400731 
 145      0B935F03 
 145      7651A7A3 
 146 036c AFE9D2B6 		.ascii	"\257\351\322\266\373\011]\274\313S\013\302\"\3705\305"
 146      FB095DBC 
 146      CB530BC2 
 146      22F835C5 
 147 037c 7BA0EA47 		.ascii	"{\240\352G\347C\306_\365\232_\206\367\206\300U\025\365"
 147      E743C65F 
 147      F59A5F86 
 147      F786C055 
 147      15F5
 148 038e 5C0741ED 		.ascii	"\\\007A\35576{m\007\235e\337\274\365\002\0077\005sR"
 148      37367B6D 
 148      079D65DF 
 148      BCF50207 
 148      37057352 
 149 03a2 B2F31B7D 		.ascii	"\262\363\033}\365\370N\324/\334\016{b\213\242\236\333"
 149      F5F84ED4 
 149      2FDC0E7B 
 149      628BA29E 
 149      DB
 150 03b3 BC65BB51 		.ascii	"\274e\273QR\231P\205E\"-\2149\244\341#\323\004+'\367"
 150      52995085 
 150      45222D8C 
 150      39A4E123 
 150      D3042B27 
 151 03c8 59C1D668 		.ascii	"Y\301\326h\023$\202\345\035\366$O(\314\251\265\300="
 151      132482E5 
 151      1DF6244F 
 151      28CCA9B5 
 151      C03D
 152 03da 24D21F74 		.ascii	"$\322\037t\357\316k\223\027\307\374P\341\201@\260\315"
 152      EFCE6B93 
 152      17C7FC50 
 152      E18140B0 
 152      CD
 153 03eb 0C9C3545 		.ascii	"\014\2345Eu\347\341\213*_gQ1\376\362\235\253\265\370"
 153      75E7E18B 
 153      2A5F6751 
 153      31FEF29D 
 153      ABB5F8
 154 03fe 9DD5CBB0 		.ascii	"\235\325\313\2605h\3442P!M\236p\243\276>\003O\027\320"
 154      3568E432 
 154      50214D9E 
 154      70A3BE3E 
 154      034F17D0 
 155 0412 FA470568 		.ascii	"\372G\005h\023\250?\260\347O\2716\000m\372\363]>\271"
 155      13A83FB0 
 155      E74FB936 
 155      006DFAF3 
ARM GAS  /var/folders/c6/c789hm653lg9vtl73krp73tm0000gn/T//ccjnlM3Z.s 			page 12


 155      5D3EB9
 156 0425 942605B2 		.ascii	"\224&\005\2628\034p~\255Q\251j7\324\326\001\362\371"
 156      381C707E 
 156      AD51A96A 
 156      37D4D601 
 156      F2F9
 157 0437 27C655FA 		.ascii	"'\306U\372\021\311\346\245\256\037I\365\236\270q\263"
 157      11C9E6A5 
 157      AE1F49F5 
 157      9EB871B3 
 158 0447 9910333F 		.ascii	"\231\0203?\035V\252\000\351\331\337\323f\231R\365\217"
 158      1D56AA00 
 158      E9D9DFD3 
 158      669952F5 
 158      8F
 159 0458 A4C9FC9B 		.ascii	"\244\311\374\233\333\333;\364\337\313G;\216\274\322"
 159      DBDB3BF4 
 159      DFCB473B 
 159      8EBCD2
 160 0467 71F4486F 		.ascii	"q\364HoG\357\300@_\367`{/\210\303\203b`P\2744\370\027"
 160      47EFC040 
 160      5FF7607B 
 160      2F88C383 
 160      626050BC 
 161 047e 100B59C6 		.ascii	"\020\013Y\306"
 162              		.text
 163              		.section	.gnu.lto_chHeapFree.5291d388c91db3a5,"",%progbits
 164 0000 789CAD56 		.ascii	"x\234\255V_h\034E\030\377\276\331\335\373\267{w{\006"
 164      5F681C45 
 164      18FFBED9 
 164      DDFBB77B 
 164      777B06
 165 0013 92BB36C4 		.ascii	"\222\2736\304\344\232px\221\004\021)E\244\317>\026\033"
 165      E49A7078 
 165      91041129 
 165      45A4CF3E 
 165      161B
 166 0025 D037E329 		.ascii	"\3207\343)\311=\004c\243/\346\241\233\344\036\002\005"
 166      C93D0463 
 166      A32FE6A1 
 166      9BE41E02 
 166      05
 167 0036 0D8AB6B5 		.ascii	"\015\212\266\265T\023\244\024\372\242\210\017}\360\341"
 167      5413A414 
 167      FAA2880F 
 167      7DF0E1
 168 0045 AE28E48A 		.ascii	"\256(\344\212M,\370\220\226\202\211`+\370`k0I\257\321"
 168      4D2CF890 
 168      96828960 
 168      2BF8606B 
 168      3049AFD1 
 169 0059 F39B999D 		.ascii	"\363\233\231\235\335\275\3434\271\324%\231\331\371f"
 169      DDBDE334 
 169      B9D42599 
 169      D9F966
 170 0068 BEDFF7CD 		.ascii	"\276\337\367\315\357\373\315\3342`\320\374\374L\377"
 170      EFFBCDDC 
ARM GAS  /var/folders/c6/c789hm653lg9vtl73krp73tm0000gn/T//ccjnlM3Z.s 			page 13


 170      3260D0FC 
 170      FC4CFF
 171 0077 5F9A0079 		.ascii	"_\232\000y\352\361\011@\266\260\0020\023aL[4\300\211"
 171      EAF10940 
 171      B6B00230 
 171      13614C5B 
 171      34C089
 172 008a E9F79701 		.ascii	"\351\367\227\001\034KC]\332u4\344\213\301B\3639Z\020"
 172      1C4B435D 
 172      DA7534E4 
 172      8BC142F3 
 172      395A10
 173 009d E1AD1562 		.ascii	"\341\255\025b\341\037;\371\350\233\2434\012cD.\212\260"
 173      E11F3BF9 
 173      E89BA334 
 173      0A63442E 
 173      8AB0
 174 00af D81D93CC 		.ascii	"\330\035\223\314\321\257\257q\224(\213\011\037[\370"
 174      D1AFAF71 
 174      94288B09 
 174      1F5BF8
 175 00be C498754D 		.ascii	"\304\230uM\243\221\271r\235O\232\356\320\226C\213\305"
 175      A391B972 
 175      9D4F9AEE 
 175      D096438B 
 175      C5
 176 00cf 856B42BA 		.ascii	"\205kB\272\3061!!\023,)\354)iObJ\332m\231X%\222B\344"
 176      C6312121 
 176      132C29EC 
 176      29694F62 
 176      4ADA6D99 
 177 00e8 2F80709A 		.ascii	"/\200p\232i\272\021\012G\2421\323\212'\222v\012O\277"
 177      69BA110A 
 177      47A231D3 
 177      8A279276 
 177      0A4FBF
 178 00fb 827CCF7A 		.ascii	"\202|\317z\026\226\034\347\203\365\357~{\300\316;\345"
 178      16961CE7 
 178      83F5EF7E 
 178      7BC0CE3B 
 178      E5
 179 010c D2A2B35B 		.ascii	"\322\242\263[\257#\026\221\370y\022\241\200\3602\015"
 179      AF231691 
 179      F87912A1 
 179      80F0320D 
 180 011c B057744C 		.ascii	"\260WtLo$L\372:\333\257/;\245r\275~\\xe\367\347U\376"
 180      6F244CFA 
 180      3ADBAF2F 
 180      3BA572BD 
 180      7E5C7865 
 181 0134 E9BD8F32 		.ascii	"\351\275\2172\316\342\354\202\3637\005,\242\306``/\317"
 181      CEE2EC82 
 181      F337052C 
 181      A2C66060 
 181      2FCF
 182 0146 09842F58 		.ascii	"\011\204/Xy\275^\277\363\347\257\033\273\3301\2100\212"
 182      79BD5EBF 
ARM GAS  /var/folders/c6/c789hm653lg9vtl73krp73tm0000gn/T//ccjnlM3Z.s 			page 14


 182      F3E7AF1B 
 182      BBD83188 
 182      308A
 183 0158 4B988530 		.ascii	"K\230\2050N \306h\3609\015L\352/Qo\271\223q(\242\236"
 183      4E20C668 
 183      F0390D4C 
 183      EA2F516F 
 183      B9937128 
 184 016e A4C6B0A9 		.ascii	"\244\306\260\251a)j\240\2037\235\334\326\305mi>\314"
 184      61296AA0 
 184      83379DDC 
 184      D6C56D69 
 184      3ECC
 185 0180 F0E610B7 		.ascii	"\360\346\020\267\035\346M7oz\270\255\227\277\365\361"
 185      1DE64D37 
 185      6F7AB8AD 
 185      97BFF5F1 
 186 0190 75593E3C 		.ascii	"uY><\302\207\375\274\031\340M\216\333\362n,z\014(9\316"
 186      C287FDBC 
 186      19E04D8E 
 186      DBF26E2C 
 186      7A0C2839 
 187 01a5 42AF1CCB 		.ascii	"B\257\034\313\214d>\023\234\360\202`\375$\2655\015F"
 187      8C643E13 
 187      9CF08260 
 187      FD24B535 
 187      0D46
 188 01b7 9051A72D 		.ascii	"\220Q\247-\303\267\367*\233+8\212\227\321\2001\014\363"
 188      C3B7F72A 
 188      9B2B388A 
 188      97D18031 
 188      0CF3
 189 01c9 BD87821B 		.ascii	"\275\207\202\033\037A\015\262\332*\350r\011\3004\324"
 189      1F410DB2 
 189      DA2AE872 
 189      09C034D4 
 190 01d9 9C79C72E 		.ascii	"\234y\307.b\270\200\002QX\322E\214LpN\304\242\"F\225"
 190      62B88002 
 190      5158D245 
 190      8C4C704E 
 190      C4A22246 
 191 01ee B7CEC3DC 		.ascii	"\267\316\303\334\200\2713s\233\027C*L\314\215\304v\352"
 191      80B93373 
 191      9B17432A 
 191      4CCC8DC4 
 191      76EA
 192 0200 F57A92D6 		.ascii	"\365z\222\326U\201\3119\2315\255\000\270\001\263\267"
 192      5581C939 
 192      9935AD00 
 192      B801B3B7 
 193 0210 D77EAF7A 		.ascii	"\327~\257z\271\231\203p\305\241g\204*\346\276\236(b"
 193      B9998370 
 193      C5A16784 
 193      2AE6BE9E 
 193      2862
 194 0222 CC7D7DBE 		.ascii	"\314}}\276\210\346\005\370\204@-\027\034\0248\274&\363"
 194      88E605F8 
ARM GAS  /var/folders/c6/c789hm653lg9vtl73krp73tm0000gn/T//ccjnlM3Z.s 			page 15


 194      84402D17 
 194      1C1438BC 
 194      26F3
 195 0234 A41EDD5E 		.ascii	"\244\036\335^\235\300*\314\2263*\362%\021\331\024\221"
 195      9DC02ACC 
 195      96332AF2 
 195      2511D914 
 195      91
 196 0245 6B73753F 		.ascii	"ksu?]\213\357\220\236g\010\324\015\367\002\305\221\341"
 196      5D8BEF90 
 196      9E6708D4 
 196      0DF702C5 
 196      91E1
 197 0257 E2E4C2C3 		.ascii	"\342\344\302\303i.\264\346s\307\321C\012}I\240[.\372"
 197      692EB4E6 
 197      73C7D143 
 197      0A7D49A0 
 197      5B2EFA
 198 026a E54F3585 		.ascii	"\345O5\205\036\237\206wI&\203\220/b\2425f@\214\255*"
 198      1E9F8677 
 198      49268390 
 198      2F62A235 
 198      66408CAD 
 199 027f 912CB81B 		.ascii	"\221,\270\033\"\260\"\332\212z\003\350\010j\224D\004"
 199      22B022DA 
 199      8A7A03E8 
 199      086A9444 
 199      04
 200 0290 BCF844C0 		.ascii	"\274\370D\3002\224\356U\316\256\262@1P\241\337\002\034"
 200      3294EE55 
 200      CEAEB240 
 200      3150A1DF 
 200      021C
 201 02a2 C3BCBDFB 		.ascii	"\303\274\275\373\327\253\224\252\276\273\235\3468!\230"
 201      D7AB94AA 
 201      BEBB9DE6 
 201      382198
 202 02b1 CF69BC1A 		.ascii	"\317i\274\032;\177<\245\234\222\"\335\224h}\336Q\360"
 202      3B7F3CA5 
 202      9C9222DD 
 202      94687DDE 
 202      51F0
 203 02c3 0E8D9C1B 		.ascii	"\016\215\234\033.6\211`\336\333\264M\020B\001\0219s"
 203      2E368960 
 203      DEDBB44D 
 203      10420111 
 203      3973
 204 02d5 C69B4911 		.ascii	"\306\233I\021\314\030\337\004i\363.\006\254\261\240"
 204      CC18DF04 
 204      69F32E06 
 204      ACB1A0
 205 02e4 28C370C5 		.ascii	"(\303p\305|\014UF\0045B\375\027\336\267T\020\024\365"
 205      7C0C5546 
 205      043542FD 
 205      17DEB754 
 205      1014F5
 206 02f7 F1834481 		.ascii	"\361\203D\201\2567\276\352\356\314\207\330\212.\276"
ARM GAS  /var/folders/c6/c789hm653lg9vtl73krp73tm0000gn/T//ccjnlM3Z.s 			page 16


 206      AE37BEEA 
 206      EECC87D8 
 206      8A2EBE
 207 0306 28065B4F 		.ascii	"(\006[O\013v\3266oz\234v\010b`\017\231\266\244KIT\235"
 207      0B76D636 
 207      6F7A9C76 
 207      0862600F 
 207      99B6A44B 
 208 031d 4299E4EA 		.ascii	"B\231\344\352\260\007\355;y9\230\260\231\347y\376R\271"
 208      B007ED3B 
 208      793998B0 
 208      99E779FE 
 208      52B9
 209 032f B8DA1F48 		.ascii	"\270\332\037H\264#\270\310\222'q\266znk\303M\324\027"
 209      B423B8C8 
 209      922771B6 
 209      7A6E6BC3 
 209      4DD417
 210 0342 B37A3DE6 		.ascii	"\263z=\346\247\372l['*\344\012\260C\010\274z\365\000"
 210      A7FA6C5B 
 210      272AE40A 
 210      B04308BC 
 210      7AF500
 211 0355 31F64187 		.ascii	"1\366A\207w1\354l\335\362*\322\331R\213\377\232qK=v"
 211      7731EC6C 
 211      DDF22AD2 
 211      D9528BFF 
 211      9A714B3D 
 212 036a 114C6B3D 		.ascii	"\021Lk=\246\005\223]2\354\375\2442g\032*<\355o\351\235"
 212      A605935D 
 212      32ECFDA4 
 212      32671A2A 
 212      3CED6FE9 
 213 037f 03D026AB 		.ascii	"\003\320&\253<\363\\ f&X\2728|\017BcW\267\037\350j\321"
 213      3CF35C20 
 213      662658BA 
 213      387C0F42 
 213      6357B71F 
 214 0396 21B56D11 		.ascii	"!\265m\021\366,\006\343f\366:\210s_y\364\035\246\255"
 214      F62C06E3 
 214      66F63A88 
 214      735F79F4 
 214      1DA6AD
 215 03a9 135A1321 		.ascii	"\023Z\023!\3354\301AR\222\220\331\027\203\325\264\275"
 215      DD34C141 
 215      529290D9 
 215      1783D5B4 
 215      BD
 216 03ba B8761B94 		.ascii	"\270v\033\224\023\250{\253oW\015\025\247\247\201\307"
 216      13A87BAB 
 216      6F570D15 
 216      A7A781C7 
 217 03ca CFD027F2 		.ascii	"\317\320'\362\374\336;jf\221+\357\007\263Aw'\032\356"
 217      FCDE3B6A 
 217      66912BEF 
 217      07B34177 
 217      271AEE
ARM GAS  /var/folders/c6/c789hm653lg9vtl73krp73tm0000gn/T//ccjnlM3Z.s 			page 17


 218 03dd 6C857DF4 		.ascii	"l\205}\364@\332\356Q\365H\270G\351\366\271\332\206\307"
 218      40DAEE51 
 218      F548B847 
 218      E9F6B9DA 
 218      86C7
 219 03ef 63EF635E 		.ascii	"c\357c^\211}\004\321Z\202Yq5\3655\253$\333t'&\225J\326"
 219      897D04D1 
 219      5A825971 
 219      35F535AB 
 219      24DB7427 
 220 0407 6A1B9EEF 		.ascii	"j\033\236\357\221\006\225L\265}B\002B\351\247\004\011"
 220      9106954C 
 220      B57D4202 
 220      42E9A704 
 220      09
 221 0418 B029ED01 		.ascii	"\260)\355\001\232hW(\377A\012\001\272'\274\366\320\213"
 221      9A685728 
 221      FF410A01 
 221      BA27BCF6 
 221      D08B
 222 042a 91FB7F0F 		.ascii	"\221\373\177\017\333\301d\262\257\353)\247\212a\303"
 222      DBC164B2 
 222      AFEB29A7 
 222      8A61C3
 223 0439 C7D76535 		.ascii	"\307\327e5v\036U<\012\363.\360K~\270\343~\270cm\377"
 223      761E553C 
 223      0AF32EF0 
 223      4B7EB8E3 
 223      7EB8636D 
 224 044e 38F02F8C 		.ascii	"8\360/\214t\343\027F^e\220\342\"]\205\322\372\303\261"
 224      74E31746 
 224      5E6590E2 
 224      225D85D2 
 224      FAC3B1
 225 0461 565F0C9A 		.ascii	"V_\014\232\233\261\374b\270\0113\213\217\302j\235|N"
 225      9BB1FC62 
 225      B809338B 
 225      8FC26A9D 
 225      7C4E
 226 0473 52B89AC6 		.ascii	"R\270\232\306\277,\272\207\206\206\345\337\233S\303"
 226      BF2CBA87 
 226      8686E5DF 
 226      9B53C3
 227 0482 A7DE1E9E 		.ascii	"\247\336\036\236:U\030.\214\217\2771:9T\000\366\326"
 227      3A55182E 
 227      8C8FBF31 
 227      3A395400 
 227      F6D6
 228 0494 241B9F34 		.ascii	"$\033\2374\370h\362\037d4\253\263"
 228      F868F21F 
 228      6434ABB3 
 229              		.text
 230              		.section	.gnu.lto_chHeapStatus.5291d388c91db3a5,"",%progbits
 231 0000 789C8D53 		.ascii	"x\234\215S\315KTQ\024?\347\336\3675\363f\306\210Z\010"
 231      CD4B5451 
 231      143FE7DE 
 231      F735F366 
ARM GAS  /var/folders/c6/c789hm653lg9vtl73krp73tm0000gn/T//ccjnlM3Z.s 			page 18


 231      C6885A08 
 232 0014 4122D122 		.ascii	"A\"\321\"\301!ZED\377\204B\255b\234\342\371\026\226"
 232      C1215A45 
 232      44FF8442 
 232      AD629CE2 
 232      F91696
 233 0027 1FAD74E1 		.ascii	"\037\255t\341\035}\221\201\201\030bY\013E\304,\313M"
 233      1D7D9181 
 233      81186259 
 233      0B45C42C 
 233      CB4D
 234 0039 0BC9C031 		.ascii	"\013\311\3001\244\034\301Dw\212\213\241\026\"\270j\021"
 234      A41CC144 
 234      778A8BA1 
 234      1622B86A 
 234      11
 235 004a 25D174EE 		.ascii	"%\321t\356\273\367\315G\010\365\230y\347\276{\177\347"
 235      BBF7CD47 
 235      08F59879 
 235      E7BE7B7F 
 235      E7
 236 005b 9CDFF99D 		.ascii	"\234\337\371\235s\0310\370\373\351\242\377y\223\376"
 236      731930F8 
 236      FBE9A2FF 
 236      7993FE
 237 006a 64310EC8 		.ascii	"d1\016\310F>\003\344\034\306\370\236\013\"n\274\375"
 237      463E03E4 
 237      1CC6F89E 
 237      0B226EBC 
 237      FD
 238 007b 0020121C 		.ascii	"\000 \022\034\015\265o\240\245\026\246Z\2548\0263\207"
 238      0DB56FA0 
 238      A516A65A 
 238      AC381633 
 238      87
 239 008c 3F11266E 		.ascii	"?\021&n\0076!m\346L|\224\237\261\357\362\323\301\230"
 239      0736216D 
 239      E64C7C94 
 239      9FB1EFF2 
 239      D3C198
 240 009f C2C710E5 		.ascii	"\302\307\020\345\002\020\372\0317L\313\246\235\376\033"
 240      0210FA19 
 240      374CCBA6 
 240      9DFE1B
 241 00ae 2829F046 		.ascii	"()\360F\230\022b\264x\177\366\033{*\362\301\244\370"
 241      981262B4 
 241      787FF61B 
 241      7B2AF2C1 
 241      A4F8
 242 00c0 552A21FA 		.ascii	"U*!\372Ht\317\"d\021\256\323\0076\204\206\031\265\374"
 242      4874CF22 
 242      6411AED3 
 242      07368486 
 242      19B5FC
 243 00d3 956F7E69 		.ascii	"\225o~i\364Q\275\230\034\030\021\277\311\325G\316\240"
 243      F451BD98 
 243      1C1811BF 
ARM GAS  /var/folders/c6/c789hm653lg9vtl73krp73tm0000gn/T//ccjnlM3Z.s 			page 19


 243      C9D547CE 
 243      A0
 244 00e4 F1FF3CC5 		.ascii	"\361\377<\305\322\2555\021\344K\245k\241\327\271\177"
 244      D2AD3511 
 244      E44BA56B 
 244      A1D7B97F 
 245 00f4 792DB07C 		.ascii	"y-\260|\261Tz\377\370\340\353:\236:\211\320!Yfp\012"
 245      B1547AFF 
 245      F8E0EB3A 
 245      9E3A89D0 
 245      21596670 
 246 0109 1B81939D 		.ascii	"\033\201\223\235&k\220\235!k!\035\332\340\243\021\327"
 246      266B909D 
 246      216B211D 
 246      DAE0A311 
 246      D7
 247 011a 08973E20 		.ascii	"\010\227> A/3\2511)\355SGX)\206\011\201\020#\015\012"
 247      412F33A9 
 247      3129ED53 
 247      47582986 
 247      09811023 
 248 0130 AE8E1410 		.ascii	"\256\216\024\020$/zZ\350MB\267\"#\303\327`u\177ey\224"
 248      242F7A5A 
 248      E84D42B7 
 248      2223C3D7 
 248      60757F65 
 249 0146 6770164D 		.ascii	"gp\026M\360\320\222\224\255j\276\255\310\341\001\362"
 249      F0D09294 
 249      AD6ABEAD 
 249      C8E101F2 
 250 0156 020C145F 		.ascii	"\002\014\024_\034X\012G\264\372\340H\014\011q\205\320"
 250      1C580A47 
 250      B4FAE048 
 250      0C097185 
 250      D0
 251 0167 1DC8AAD0 		.ascii	"\035\310\252\320\206\014Kh\007$\314\223\2446`\340hp"
 251      860C4B68 
 251      0724CC93 
 251      A43660E0 
 251      6870
 252 0179 61A69CC4 		.ascii	"a\246\234\304\356\203^*\252\011.\370h?\203\011J\351"
 252      EE835E2A 
 252      AA092EF8 
 252      683F8309 
 252      4AE9
 253 018b 10B092BA 		.ascii	"\020\260\222\272\015\253\010l\202\241\034A'=\341c,\213"
 253      0DAB086C 
 253      82A11C41 
 253      273DE163 
 253      2C8B
 254 019d 0A42C17C 		.ascii	"\012B\301|\232:\220\364\346\013\250\200\252`\031\216"
 254      9A3A90F4 
 254      E60BA880 
 254      AA60198E 
 255 01ad 4B8C3C7B 		.ascii	"K\214<{=W>\233\256>\013\251-\315X\021\265\270LA\317"
 255      3D573E9B 
 255      AE3E0BA9 
ARM GAS  /var/folders/c6/c789hm653lg9vtl73krp73tm0000gn/T//ccjnlM3Z.s 			page 20


 255      2DCD5811 
 255      B5B84C41 
 256 01c2 45D2B909 		.ascii	"E\322\271\011^\312\345U\037\335\343IV\261\244\034y+"
 256      5ECAE555 
 256      1FDDE349 
 256      56B1A41C 
 256      792B
 257 01d4 CA20A5F7 		.ascii	"\312 \245\367$+\200\035@\022\225\241b\236\337\332N\225"
 257      242B801D 
 257      401295A1 
 257      629EDFDA 
 257      4E95
 258 01e6 05E38B5C 		.ascii	"\005\343\213\\\352e\002M?'\036\273O\336l\227%J\204\342"
 258      EA65024D 
 258      3F271EBB 
 258      4FDE6C97 
 258      254A84E2 
 259 01fa 704DE1A6 		.ascii	"pM\341\246\217\011E\301\365\320\225\024@S`\332r\315"
 259      8F0945C1 
 259      F5D09514 
 259      405360DA 
 259      72CD
 260 020c 63030687 		.ascii	"c\003\006\207\006\333\242(I\012\344QG\210\036\253\226"
 260      06DBA228 
 260      490AE451 
 260      47881EAB 
 260      96
 261 021d 864E3474 		.ascii	"\206N4t\277Rz\312C\036\352\202P\3430\035:\244\224\216"
 261      BF527ACA 
 261      431EEA82 
 261      50E3301D 
 261      3AA4948E 
 262 0231 EF1EFE55 		.ascii	"\357\036\376U\245\033\365\335\002\272\236\272\361Q\226"
 262      A51BF5DD 
 262      02BA9EBA 
 262      F15196
 263 0240 30B3DA50 		.ascii	"0\263\332PQxeC\271\263\260\005\273?^\255\263\210\207"
 263      51786543 
 263      B9B3B005 
 263      BB3F5EAD 
 263      B38887
 264 0253 1B961EA9 		.ascii	"\033\226\036\251O\267*\251\227\227\253U`\307\251`hk"
 264      4FB72AA9 
 264      9797AB55 
 264      60C7A960 
 264      686B
 265 0265 6A35D620 		.ascii	"j5\326 8\314]*\007\256\270\200\352\015\243.\031\207"
 265      38CC5D2A 
 265      07AEB880 
 265      EA0DA32E 
 265      1987
 266 0277 63F57466 		.ascii	"c\365tf\316\217gv\200\353\3010\366\306NS\315\346\363"
 266      CE8F6776 
 266      80EBC130 
 266      F6C64E53 
 266      CDE6F3
 267 028a F1FA1D30 		.ascii	"\361\372\0350\242\315\3251jf\322\034\036\317\310\202"
ARM GAS  /var/folders/c6/c789hm653lg9vtl73krp73tm0000gn/T//ccjnlM3Z.s 			page 21


 267      A2CDD531 
 267      6A66D21C 
 267      1ECFC882 
 268 029a 6D757F82 		.ascii	"mu\177\202\303\225\237\225\373S'\261\251\332\373\343"
 268      C3959F95 
 268      FB5327B1 
 268      A9DAFBE3 
 269 02aa C09C251B 		.ascii	"\300\234%\033\\X\\\370\242\247\220\312\310QE.\305\255"
 269      5C585CF8 
 269      A2A790CA 
 269      C851452E 
 269      C5AD
 270 02bc F1F17409 		.ascii	"\361\361t\011\344\025\223\3417!(.\373\307\215?\253\031"
 270      E41593E1 
 270      3721282E 
 270      FBC78D3F 
 270      AB19
 271 02ce FF2DC84D 		.ascii	"\377-\310M\026b\021\011=\014-4\240\201-\201g\232\233"
 271      16621109 
 271      3D0C2D34 
 271      A0812D81 
 271      679A9B
 272 02e1 D3EA77B7 		.ascii	"\323\352w\267'\335}/\335\323\235Mg\333\333og:\233\263"
 272      27DD7D2F 
 272      DDD39D4D 
 272      67DBDB6F 
 272      673A9BB3 
 273 02f5 C0BA3AF1 		.ascii	"\300\272:\361\016\353\351\375\003\323\3210\223"
 273      0EEBE9FD 
 273      03D3D130 
 273      93
 274              		.text
 275              		.section	.gnu.lto_.symbol_nodes.5291d388c91db3a5,"",%progbits
 276 0000 789C4D8C 		.ascii	"x\234M\214;\012\302P\024Dg\336\315W\203[pc\356\345F"
 276      3B0AC250 
 276      144467DE 
 276      CD57835B 
 276      7063EEE5 
 277 0015 022A0822 		.ascii	"\002*\010\"X\330\331\330\352*\322YXh-(\342?\376\300"
 277      58D8D9D8 
 277      EA2AD259 
 277      58682D28 
 277      E23FFEC0 
 278 0029 5A7D4131 		.ascii	"Z}A1N3\234\3410\006\006\025\342\023\263\245\002\335"
 278      4E339CE1 
 278      30060615 
 278      E213B3A5 
 278      02DD
 279 003b 29A03A68 		.ascii	")\240:h\321\335\020\216\012OT~\326\270N\263\243\232"
 279      D1DD108E 
 279      0A4F547E 
 279      D6B84EB3 
 279      A39A
 280 004d 3FE7425A 		.ascii	"?\347BZ\307\354\251R\254\346@u\376\244;M.\035\251n\261"
 280      C7ECA952 
 280      ACE64075 
 280      FEA43B4D 
ARM GAS  /var/folders/c6/c789hm653lg9vtl73krp73tm0000gn/T//ccjnlM3Z.s 			page 22


 280      2E1DA96E 
 281 0062 32A37ADF 		.ascii	"2\243z\337\337\230<S\375\202n\324\240\240+5\374\221"
 281      DF983C53 
 281      FD826ED4 
 281      A0A02B35 
 281      FC91
 282 0074 20C47AF9 		.ascii	" \304z\371\244H\011\351xa;D\332\314\252\342F\0306\362"
 282      A44809E9 
 282      78613B44 
 282      DACCAAE2 
 282      461836F2 
 283 0088 2E63DDC9 		.ascii	".c\335\311\374\274\223\331\313w\\\364\346;_\274\022"
 283      FCBC93D9 
 283      CB775CF4 
 283      E63B5FBC 
 283      12
 284 0099 86A348BC 		.ascii	"\206\243H\274\257e1\231<j\342Y\273o9\210\220\254\354"
 284      AF653199 
 284      3C6AE259 
 284      BB6F3988 
 284      90ACEC
 285 00ac 6B5046DA 		.ascii	"kPF\332\316\252x\003\031cQ\317"
 285      CEAA7803 
 285      196351CF 
 286              		.text
 287              		.section	.gnu.lto_.refs.5291d388c91db3a5,"",%progbits
 288 0000 789C25C4 		.ascii	"x\234%\304\311\021\000 \014\304\260\2659B\027\364\337"
 288      C9110020 
 288      0CC4B0B5 
 288      394217F4 
 288      DF
 289 0011 2599410F 		.ascii	"%\231A\017\031s\363\255\200\322\272\341d\211\333\262"
 289      1973F3AD 
 289      80D2BAE1 
 289      6489DBB2 
 290 0021 38920709 		.ascii	"8\222\007\011\215\000o"
 290      8D006F
 291              		.text
 292              		.section	.gnu.lto_.decls.5291d388c91db3a5,"",%progbits
 293 0000 789CBD5A 		.ascii	"x\234\275Z{p\024E\036\356\236\311n6\017\024\261\316"
 293      7B701445 
 293      1EEE9EC9 
 293      6E360F14 
 293      B1CE
 294 0012 02CFD29C 		.ascii	"\002\317\322\234\247Ww\336I@Q\361\376\020-\252\024\257"
 294      A75777DE 
 294      494051F1 
 294      FE102DAA 
 294      14AF
 295 0024 F4EEEA2C 		.ascii	"\364\356\352,\253\254\253\253Z\207\315@V\367u\263\223"
 295      ABACABAB 
 295      5A87CD40 
 295      56F775B3 
 295      93
 296 0035 005775E5 		.ascii	"\000Wu\345d\005\014\021CxF\020\344\241\"xb\014\362\012"
 296      64050C11 
 296      43784610 
ARM GAS  /var/folders/c6/c789hm653lg9vtl73krp73tm0000gn/T//ccjnlM3Z.s 			page 23


 296      E4A12278 
 296      620CF20A 
 297 0049 E0B18086 		.ascii	"\340\261\200\206\\\214\201\000\002\032\201\340\0138"
 297      5C8C8100 
 297      021A81E0 
 297      0B38
 298 0057 5F20283E 		.ascii	"_ (>\320\275_\367\364\354\316\364\316lf\202\336\326"
 298      D0BD5FF7 
 298      F4ECCEF4 
 298      CE6C6682 
 298      DED6
 299 0069 F6CCEC4C 		.ascii	"\366\314\354L\367\327\337\357\331\217\035\001\011\250"
 299      F7D7DFEF 
 299      D98F1D01 
 299      09A8
 300 0077 4A442803 		.ascii	"JD(\003\237\3417\"\364\224\037!\370\242\333\240\004"
 300      9FE13722 
 300      F4941F21 
 300      F8A2DBA0 
 300      04
 301 0088 A02C87B2 		.ascii	"\240,\207\262\002J-Fh\012\224\177B\251\2032\006\356"
 301      024A2D46 
 301      680A947F 
 301      42A98332 
 301      06EE
 302 009a AD82337C 		.ascii	"\255\2023|\321J8\224\302y5\234\327@i\201\262\005\312"
 302      D14A3894 
 302      C279359C 
 302      D7406981 
 302      B205CA
 303 00ad 4E289D50 		.ascii	"N(\235P\366A9\010\245\027\312a(\320\035:\012\347cP>"
 303      F6413908 
 303      A517CA61 
 303      28D01D3A 
 303      0AE76350 
 304 00c2 2400A60F 		.ascii	"$\000\246\017\301\030\004\347\031pN\261\276\032\241"
 304      C11804E7 
 304      19704EB1 
 304      BE1AA1
 305 00d1 2C81B208 		.ascii	",\201\262\010J3\224\331X\347s\002\347\370\355\207\353"
 305      4A3394D9 
 305      58E77302 
 305      E7F8ED87 
 305      EB
 306 00e2 6238D7C3 		.ascii	"b8\327\303\271\011\312\002(\013\241,\206\262\002\353"
 306      B909CA02 
 306      280BA12C 
 306      86B202EB 
 307 00f2 1C4513C7 		.ascii	"\034E\023\307}\214\373Q\256\177\302}\010\234}P.\202"
 307      7D8CFB51 
 307      AE7FC27D 
 307      089C7D50 
 307      2E82
 308 0104 52CE74B0 		.ascii	"R\316t\260\204\365y\222\351\341\020\266r4s#|\0107\267"
 308      84F57992 
 308      E9E110B6 
 308      72347323 
ARM GAS  /var/folders/c6/c789hm653lg9vtl73krp73tm0000gn/T//ccjnlM3Z.s 			page 24


 308      7C0837B7 
 309 0118 9C5A987E 		.ascii	"\234Z\230~\010\247\"\244\353e#\2246(\3539~[\030?\302"
 309      08A722A4 
 309      EB652394 
 309      3628EB39 
 309      7E5B183F 
 310 012d C7E03786 		.ascii	"\307\3407\206\361%<\033\031\237Z\306%\305\361if\\\011"
 310      F1253C1B 
 310      199F5AC6 
 310      25C5F169 
 310      665C09
 311 0140 F706ACDB 		.ascii	"\367\006\254\333\270\211qY\300x\031\034\227b\235\273"
 311      B8897159 
 311      C078191C 
 311      97629DBB 
 312 0150 C8FA3DCC 		.ascii	"\310\372=\314lH~\247\341\274\035\347\353o\247\015\277"
 312      6C487EA7 
 312      E1BC1DE7 
 312      EB6FA70D 
 312      BF
 313 0161 3A66271F 		.ascii	":f'\037\343z\222\371\321!No<\327Z\246?CoKq\216\353\012"
 313      E37A92F9 
 313      D1214E6F 
 313      3CD75AA6 
 313      3F436F4B 
 314 0179 C6B188F5 		.ascii	"\306\261\210\365y\320\304O@\272_\355\342\270\021_\274"
 314      79D0C44F 
 314      40BA5FED 
 314      E2B8115F 
 314      BC
 315 018a 98E3566B 		.ascii	"\230\343Vk\342V\307\372O\341\034\207\331&\235\021\177"
 315      E256C7FA 
 315      4FE11C87 
 315      D9269D11 
 315      7F
 316 019b F7337F37 		.ascii	"\3673\1777\354i\326\227\310\3720\353i7\234\367\330\350"
 316      EC69D697 
 316      C8FA30EB 
 316      69379CF7 
 316      D8E8
 317 01ad A90C3568 		.ascii	"\251\0145hZJ[6]\033\327q\321\0204[\203OE\007\260z\000"
 317      5A4A5B36 
 317      5D1BD771 
 317      D110345B 
 317      834F4507 
 318 01c4 4BF8A212 		.ascii	"K\370\242\022\244azU^\202\006C\355k\321\263\232\326"
 318      A4617A55 
 318      5E820643 
 318      ED6BD1B3 
 318      9AD6
 319 01d6 D437ADF7 		.ascii	"\3247\255\367\012\255H\302+\360\020\220\361j\214\256"
 319      0AAD48C2 
 319      2BF01090 
 319      F16A8CAE 
 320 01e6 43ABA159 		.ascii	"C\253\241Y\223\246\355\270\014\345\177\372E\025\320"
 320      93A6EDB8 
 320      0CE57FFA 
ARM GAS  /var/folders/c6/c789hm653lg9vtl73krp73tm0000gn/T//ccjnlM3Z.s 			page 25


 320      4515D0
 321 01f5 488C24BC 		.ascii	"H\214$\274\022\340$\374\034\276N\357FK\237\221*\364"
 321      12E024FC 
 321      1CBE4EEF 
 321      464B9F91 
 321      2AF4
 322 0207 BB88DDB7 		.ascii	"\273\210\335\267\371\374\002-#U\277\374\260D\233Sn\323"
 322      F9FC022D 
 322      2355BFFC 
 322      B0449B53 
 322      6ED3
 323 0219 D3ED4647 		.ascii	"\323\355FG\201\034\375/\227?q\267\246\005$\374\002\025"
 323      811CFD2F 
 323      973F71B7 
 323      A60524FC 
 323      0215
 324 022b 20882DF0 		.ascii	" \210-\360\014d\331\355N(\002\212\223\026k8\272}\263"
 324      0C64D9ED 
 324      4E28028A 
 324      93166B38 
 324      BA7DB3
 325 023e 3BCFA570 		.ascii	";\317\245p\235\246a\375Y\177\244S\351\323\217/\031\246"
 325      9DA661FD 
 325      597FA453 
 325      E9D38F2F 
 325      19A6
 326 0250 2DDB816D 		.ascii	"-\333\201mmP\377>\316\251\313o\364\377`N\212\263\337"
 326      6D50FF3E 
 326      CEA9CB6F 
 326      F4FF604E 
 326      8AB3DF
 327 0263 8BA09EB5 		.ascii	"\213\240\236\265T\204\345\330V\206\002 \002z\201\266"
 327      5484E5D8 
 327      56860220 
 327      027A81B6 
 328 0273 599F2745 		.ascii	"Y\237'E\303\353\2172)\326\273\222\242\271Q\227B\302"
 328      C3EB8F32 
 328      29D6BB92 
 328      A2B95197 
 328      42C2
 329 0285 AD208980 		.ascii	"\255 \211\200\326eqY\307\025F\277$F\330\245\376a\025"
 329      D6657159 
 329      C71546BF 
 329      2446D8A5 
 329      FE6115
 330 0298 AC788BBA 		.ascii	"\254x\213\272\313\233$\003l\213g\260\012\013\330\322"
 330      CB9B2403 
 330      6C8B67B0 
 330      0A0BD8D2 
 331 02a8 EEC5945C 		.ascii	"\356\305\224\\\011\252\317\251\030\331\2021\265\316"
 331      09AACFA9 
 331      18D98231 
 331      B5CE
 332 02b6 6FECEEC1 		.ascii	"o\354\356\301\217R\371_\205f\002:\307\351\326=Tf\326"
 332      8F52F95F 
 332      8566023A 
 332      C7E9D63D 
ARM GAS  /var/folders/c6/c789hm653lg9vtl73krp73tm0000gn/T//ccjnlM3Z.s 			page 26


 332      5466D6
 333 02c9 EBDB718A 		.ascii	"\353\333q\212B\245)T\2270P\250\336\005[o\245.\273\223"
 333      42A52954 
 333      973050A8 
 333      DE055B6F 
 333      A52EBB93 
 334 02dd 02AD15AD 		.ascii	"\002\255\025\255@\022.\316\2521\373\333\250@\320\350"
 334      40122ECE 
 334      AA31FBDB 
 334      A840D0E8 
 335 02ed 63764186 		.ascii	"cvA\206\330\213\321O\\]@\257\212.L\027p\362\003\255"
 335      D88BD14F 
 335      5C5D40AF 
 335      8A2E4C17 
 335      70F203AD 
 336 0301 AFA9A14B 		.ascii	"\257\251\241K\\\250\245\247\212F@\372\235t$\240\327"
 336      5CA8A5A7 
 336      8A4640FA 
 336      9D7424A0 
 336      D7
 337 0312 685F1DBC 		.ascii	"h_\035\274/\267\035\3512\"\262\303\225/\257\357lv\216"
 337      2FB71DE9 
 337      3222B2C3 
 337      952FAFEF 
 337      6C768E
 338 0325 4853F7CB 		.ascii	"HS\367\313\004\243\377kh\377_\320\376\337\344\373\377"
 338      04A3FF6B 
 338      68FF5FD0 
 338      FEDFE4FB 
 338      FF
 339 0336 7EE95746 		.ascii	"~\351WF,\275\351\252\377\245{\347\345\367/\341\333~"
 339      2CBDE9AA 
 339      FFA57BE7 
 339      E5F72FE1 
 339      DB7E
 340 0348 56C837DA 		.ascii	"V\3107\332\216|t\232\365\322C\203fU\021\357\035c\312"
 340      8E7C749A 
 340      F5D24383 
 340      665511EF 
 340      1D63CA
 341 035b ACF683DF 		.ascii	"\254\366\203\337\246\012\002j-2\370\017(fA\320\256y"
 341      A60A026A 
 341      2D32F80F 
 341      286641D0 
 341      AE79
 342 036d 78CEA35A 		.ascii	"x\316\243Z\307\010\203\303:\317\210\025\026M\254\335"
 342      C70883C3 
 342      3ACF8815 
 342      164DACDD 
 343 037d 4BB3800E 		.ascii	"K\263\200\016\266\321\015\230\243+\245\322\353\314`"
 343      B6D10D98 
 343      A32BA5D2 
 343      EBCC60
 344 038c 9B3D8359 		.ascii	"\233=\203Y\231m0\203\275\352\006l\2603\263Mf\260\264"
 344      996D3083 
 344      BDEA066C 
 344      B033B34D 
ARM GAS  /var/folders/c6/c789hm653lg9vtl73krp73tm0000gn/T//ccjnlM3Z.s 			page 27


 344      66B0B4
 345 039f 67302BB3 		.ascii	"g0+\263\315f\260\235n\300\206:3\333j\006\333\345\031"
 345      CD66B09D 
 345      6EC0863A 
 345      33DB6A06 
 345      DBE519
 346 03b2 CCCAECDF 		.ascii	"\314\312\354\337f\2607\334\200U\3300\313~\354\332\021"
 346      66B037DC 
 346      8055D830 
 346      CB7EECDA 
 346      11
 347 03c3 B7EEC259 		.ascii	"\267\356\302Y?\027Pw\221\221\023<\3724\312a\354-\362"
 347      3F175077 
 347      9191133C 
 347      FA34CA61 
 347      EC2DF2
 348 03d6 9AC32C72 		.ascii	"\232\303,r\303`\372\3463x\256\036\027\372\200v\310\015"
 348      C360FAE6 
 348      3378AE1E 
 348      17FA8076 
 348      C80D
 349 03e8 620187D9 		.ascii	"b\001\207\331`\036\035\373<\203Y\315\262\237\200Yr\015"
 349      601E1DFB 
 349      3C8359CD 
 349      B29F8059 
 349      720D
 350 03fa 1B91FA9E 		.ascii	"\033\221\372\236K\017}2\227\356\002\006\026\231<\352"
 350      4B0F7D32 
 350      97EE0206 
 350      16993CEA 
 351 040a B90D267B 		.ascii	"\271\015&{B\266\2626t\250}]\011\177\206\257\205\343"
 351      42B6B236 
 351      74A87D5D 
 351      097F86AF 
 351      85E3
 352 041c E7B824CB 		.ascii	"\347\270$\313B\2776\2562t\236|\242\210\233\226\032\237"
 352      42BF36AE 
 352      32749E7C 
 352      A2889B96 
 352      1A9F
 353 042e FE9A3A79 		.ascii	"\376\232:y\302'fO\370\324\215\232\012\204\302)'5\245"
 353      C227664F 
 353      F8D48D9A 
 353      0A84C229 
 353      2735A5
 354 0441 A76BF5B8 		.ascii	"\247k\365\270\256\365\212\202\263\315\266#\237-g\263"
 354      AEF58A82 
 354      B3CDB623 
 354      9F2D67B3 
 355 0451 80B374F0 		.ascii	"\200\263t\360>[d;\013p\005\226\231\265\333\230R\234"
 355      3E5B643B 
 355      0B700596 
 355      99B5DB98 
 355      529C
 356 0463 A3609981 		.ascii	"\243`\231\201\203-\353=@\247\361\337R\240z\037?h\224"
 356      832DEB3D 
 356      40A7F1DF 
ARM GAS  /var/folders/c6/c789hm653lg9vtl73krp73tm0000gn/T//ccjnlM3Z.s 			page 28


 356      52A07A1F 
 356      3F6894
 357 0476 70538A12 		.ascii	"pS\212\022\353\240_R\222\273\310\030\037\253\031\177"
 357      EBA05F52 
 357      92BBC818 
 357      1FAB197F 
 358 0486 D2364EA6 		.ascii	"\3226N\246?c6\375\\\237W\323[\"\244\257\251\363\210"
 358      3F6336FD 
 358      5C9F57D3 
 358      5B22A4AF 
 358      A9F388
 359 0499 D8ACA5EB 		.ascii	"\330\254\245\353D\223\257\027\014\014\230@vw\031\023"
 359      4493AF17 
 359      0C0C9840 
 359      76771913 
 360 04a9 C80CD5EC 		.ascii	"\310\014\325\354\323>[\023\271\200\312\314Z\363[:\353"
 360      D33E5B13 
 360      B980CACC 
 360      5AF35B3A 
 360      EB
 361 04ba 4B0904E8 		.ascii	"K\011\004\350\371\001\003\365.xz4\005\232F\201Z\362"
 361      F90103F5 
 361      2E787A34 
 361      059A4681 
 361      5AF2
 362 04cc 6C8D395B 		.ascii	"l\2159[c\253\015\262q\307\302\356\247\252+\2406\336"
 362      63AB0DB2 
 362      71C7C2EE 
 362      A7AA2BA0 
 362      36DE
 363 04de 6016710A 		.ascii	"`\026q\012\014\016F\306\355\374`.>\223\322\236\034\341"
 363      0C0E46C6 
 363      EDFC602E 
 363      3E93D29E 
 363      1CE1
 364 04f0 C1628D59 		.ascii	"\301b\215Y\2135P\375l\317\323\0171\2007A\376\343Y\220"
 364      8B3550FD 
 364      6CCFD30F 
 364      31803741 
 364      FEE35990 
 365 0504 80559086 		.ascii	"\200U\220\206\343\003\020\344MC\220YT\220\236\037A\220"
 365      E30310E4 
 365      4D439059 
 365      54909E1F 
 365      4190
 366 0516 B73D0B32 		.ascii	"\267=\0132\330$\010Y\026\237\235\247\217\201\227\242"
 366      D8240859 
 366      169F9DA7 
 366      8F8197A2 
 367 0526 398527F2 		.ascii	"9\205'\362\204\317<\341R\353.\300\227\273q\205~\273"
 367      84CF3CE1 
 367      52EB2EC0 
 367      97BB7185 
 367      7EBB
 368 0538 FF6D80B9 		.ascii	"\377m\200\271{M\313=\315\325r\257;\273\334k\246*\353"
 368      7B4DCB3D 
 368      CDD572AF 
ARM GAS  /var/folders/c6/c789hm653lg9vtl73krp73tm0000gn/T//ccjnlM3Z.s 			page 29


 368      3BBBDC6B 
 368      A62AEB
 369 054b B30B3257 		.ascii	"\263\0132WP\231\335\257\265\262\334\274\210B}4`\250"
 369      5099DDAF 
 369      B5B2DCBC 
 369      88427D34 
 369      60A8
 370 055d DE031BF5 		.ascii	"\336\003\033\365x]B\201>\3133\243\237\263\242\337jE"
 370      785D4281 
 370      3ECB33A3 
 370      9FB3A2DF 
 370      6A45
 371 056f F8497AFA 		.ascii	"\370Iz\372\232\246\312G\330\035\362\243\030\375\337"
 371      9AA6CA47 
 371      D81DF2A3 
 371      18FDDF
 372 057e DB09E86B 		.ascii	"\333\011\350kJ\237X\320\343L\314\360\240\206\256y\306"
 372      4A9F58D0 
 372      E34CCCF0 
 372      A086AE79 
 372      C6
 373 058f 2C4A3752 		.ascii	",J7R\346\202\020S\351ms\214=\2131d\036U\357\2770\270"
 373      E6821053 
 373      E96D738C 
 373      3D8B3164 
 373      1E55EFBF 
 374 05a5 77F7F213 		.ascii	"w\367\362\023\004n\001\267\326a\00026\244Zg\376\216"
 374      046E01B7 
 374      D6610032 
 374      36A45A67 
 374      FE8E
 375 05b7 9AFB7981 		.ascii	"\232\373y\201\320\231\345\347\315\335\212\271\005\034"
 375      D099E5E7 
 375      CDDD8AB9 
 375      051C
 376 05c5 B961AAE2 		.ascii	"\271a\252\342\024L+\005\323X\270\342\302\244\0043\034"
 376      144C2B05 
 376      D358B8E2 
 376      C2A40433 
 376      1C
 377 05d6 7D563743 		.ascii	"}V7C\177\313\343\007\015\264r\332\361*\332\361\032\201"
 377      7FCBE307 
 377      0DB472DA 
 377      F12ADAF1 
 377      1A81
 378 05e8 5B1DF79E 		.ascii	"[\035\367\236\351\233\316\342\205<\353?\272{\351&\237"
 378      E99BCEE2 
 378      853CEB3F 
 378      BA7BE926 
 378      9F
 379 05f9 B16DF756 		.ascii	"\261m\367V\026\325n\212\323\257W\245\217\310\035#\274"
 379      16D56E8A 
 379      D3AF57A5 
 379      8FC81D23 
 379      BC
 380 060a E489FD46 		.ascii	"\344\211\375F\236x\205\272\340\341<#-\342S\253\247 "
 380      9E7885BA 
ARM GAS  /var/folders/c6/c789hm653lg9vtl73krp73tm0000gn/T//ccjnlM3Z.s 			page 30


 380      E0E13C23 
 380      2DE253AB 
 380      A720
 381 061c 799F17C7 		.ascii	"y\237\027\307\355\0327\373qr\202\027\315Np\362B\235"
 381      ED1A37FB 
 381      71728217 
 381      CD4E70F2 
 381      429D
 382 062e A0F3B89D 		.ascii	"\240\363\270\235\023\350\373\264N\014\332\314\014N]"
 382      13E8FBB4 
 382      4E0CDACC 
 382      0C4E5D
 383 063d 60B06DDB 		.ascii	"`\260m\333\347yK\257{\267a\273\255\324v\347\362l\227"
 383      E7794BAF 
 383      7BB761BB 
 383      ADD476E7 
 383      F26C97
 384 0650 E627406E 		.ascii	"\346'@nv\270\036-\036\240$\331\217\200\032\212]LP+\254"
 384      76B81E2D 
 384      1EA024D9 
 384      8F801A8A 
 384      5D4C502B 
 385 0665 F6357931 		.ascii	"\3665y1\004\3459\226\033\373\335&3\222\315\2073\307"
 385      04E53996 
 385      1BFBDD26 
 385      3392CD87 
 385      33C7
 386 0677 D164B343 		.ascii	"\321d\263C a\324Xl\277\375]`\267m\011m\362:\037\317"
 386      2061D458 
 386      6CBFFD5D 
 386      60B76D09 
 386      6DF23A1F 
 387 068c B31BCE1A 		.ascii	"\263\033\316\032\273m\257\273\210\347Tz\337\343\346"
 387      BB6DAFBB 
 387      88E7547A 
 387      DFE3E6
 388 069b 9D637013 		.ascii	"\235cp\023,0\334\201\352\323b\302\034A\011\357\022\310"
 388      2C30DC81 
 388      EAD362C2 
 388      1C4109EF 
 388      12C8
 389 06ad 32B443F8 		.ascii	"2\264C\370\205Y\367k\334\350\376\327N\236\250\245\277"
 389      8559F76B 
 389      DCE8FED7 
 389      4E9EA8A5 
 389      BF
 390 06be D9B718EB 		.ascii	"\331\267\030\353\374\365\214\264\221\307\263\313H\026"
 390      FCF58CB4 
 390      91C7B3CB 
 390      4816
 391 06cc 3C8B2DD3 		.ascii	"<\213-\323M\007\350\332^\037\342v\270!7\302\011,\225"
 391      4D07E8DA 
 391      5E1FE276 
 391      B82137C2 
 391      092C95
 392 06df 5EAC83E9 		.ascii	"^\254\203\351\016\337\341\006l\264\223\244\251\364\226"
 392      0EDFE106 
ARM GAS  /var/folders/c6/c789hm653lg9vtl73krp73tm0000gn/T//ccjnlM3Z.s 			page 31


 392      6CB493A4 
 392      A9F496
 393 06ee 0586A5DA 		.ascii	"\005\206\245\332\350\010\265\3173\236\225\334\276\003"
 393      E808B5CF 
 393      339E95DC 
 393      BE03
 394 06fc 8B199EBE 		.ascii	"\213\031\236\276\307~\330\015\336\355\316\374N/\260"
 394      C77ED80D 
 394      DEEDCEFC 
 394      4E2FB0
 395 070b 8CE7273C 		.ascii	"\214\347'<\303Y\015\361\375\001b\330\231C\355\376FI"
 395      C3590DF1 
 395      FD0162D8 
 395      9943EDFE 
 395      4649
 396 071d 67FFBA22 		.ascii	"g\377\272\"\313F\026S=\231S\303\364\004s\220\006\325"
 396      CB461653 
 396      3D9953C3 
 396      F4047390 
 396      06D5
 397 072f AC40FFFF 		.ascii	"\254@\377\377\307X\201\210\303\276\303ET\272\265\275"
 397      C7588188 
 397      C3BEC345 
 397      54BAB5BD 
 398 073f 9C2CD0DF 		.ascii	"\234,\320\337q\025M\257\264{\317\213\355F^<L\335dE\340"
 398      71154DAF 
 398      B47BCF8B 
 398      ED465E3C 
 398      4CDD6445 
 399 0754 47C98B2F 		.ascii	"G\311\213/P\230w\274\3071\033cz2{\206\265\255\325\264"
 399      509877BC 
 399      C7311B63 
 399      7A327B86 
 399      B5ADD5B4 
 400 0768 197E8358 		.ascii	"\031~\203X\213gD\253\277mh\247\301\240\203\255w\003"
 400      8B6744AB 
 400      BF6D68A7 
 400      C1A083AD 
 400      7703
 401 077a 56603779 		.ascii	"V`7y\023\001\363\362\207\322[\206\226?\242\375o\376"
 401      1301F3F2 
 401      87D25B86 
 401      963FA2FD 
 401      6FFE
 402 078c 71B4BCDD 		.ascii	"q\264\274\335\263\030\026\235\200\226O\014k[\247i\255"
 402      B318169D 
 402      80964F0C 
 402      6B5BA769 
 402      AD
 403 079d 0F7AD980 		.ascii	"\017z\331\200\232\337\270\313\220\346c*\315\316<i\316"
 403      9ADFB8CB 
 403      90E6632A 
 403      CDCE3C69 
 403      CE
 404 07ae F1D2B8DC 		.ascii	"\361\322\270\334\320\021P\027/\222]\002\265\333\034"
 404      D0115017 
 404      2F925D02 
ARM GAS  /var/folders/c6/c789hm653lg9vtl73krp73tm0000gn/T//ccjnlM3Z.s 			page 32


 404      B5DB1C
 405 07bd B5FB98E3 		.ascii	"\265\373\230\343I\302\275t\000x\027\006\000\011\037"
 405      49C2BD74 
 405      00781706 
 405      00091F
 406 07cc A3C7F7E9 		.ascii	"\243\307\367\351"
 407 07d0 F1437AFC 		.ascii	"\361Cz\374\257u`8\030\340\362\2075V\331\3458\327Dr\177"
 407      AF756038 
 407      18E0F287 
 407      3556D9E5 
 407      38D74472 
 408 07e5 B24A7823 		.ascii	"\262Jx#\335\020\335\204I\267\233\351q+=\356\242\307"
 408      DD10DD84 
 408      49B79BE9 
 408      712B3DEE 
 408      A2C7
 409 07f7 E3F47892 		.ascii	"\343\364x\222\036?\246\307/\350\361\007z\234A\3116\322"
 409      1E3FA6C7 
 409      2FE8F107 
 409      7A9C41C9 
 409      36D2
 410 0809 E35C7ADC 		.ascii	"\343\\z\334N\217\235\364\330E\217\335\364\270\207\036"
 410      4E8F9DF4 
 410      D8458FDD 
 410      F4B8871E 
 411 0819 F7D2E37E 		.ascii	"\367\322\343~z<`\026\321i\242\306-+\214!y\315\200\377"
 411      7A3C6016 
 411      D169A2C6 
 411      2D2B8C21 
 411      79CD80FF 
 412 082d 189ADD79 		.ascii	"\030\232\335y~\205y\003\\\302[<#V\024R\355\032\223j"
 412      7E857903 
 412      5CC25B3C 
 412      23561452 
 412      ED1A936A 
 413 0841 5BA86A5F 		.ascii	"[\250j_\246\252:e\265\350\321\200\361\206\301@\026\013"
 413      A6AA3A65 
 413      B5E8D180 
 413      F186C140 
 413      160B
 414 0853 A9BEA947 		.ascii	"\251\276\251GM\333\356\307y0\217\011\344\274L\324\261"
 414      4DDBEEC7 
 414      79308F09 
 414      E4BC4CD4 
 414      B1
 415 0864 9C627DEE 		.ascii	"\234b}\356\031\253\240:V\232\324\261\212\252c\265\356"
 415      19ABA03A 
 415      569AD4B1 
 415      8AAA63B5 
 415      EE
 416 0875 45D407CE 		.ascii	"E\324\007\316\272\361\201\345\271\265\246\373$w\370"
 416      BAF181E5 
 416      B9B5A6FB 
 416      2477F8
 417 0884 F963BF6F 		.ascii	"\371c\277o\321\264\301\022\376J\337x*\341\263\202\217"
 417      D1B4C112 
 417      FE4ADF78 
ARM GAS  /var/folders/c6/c789hm653lg9vtl73krp73tm0000gn/T//ccjnlM3Z.s 			page 33


 417      2AE1B382 
 417      8F
 418 0895 4B0A3E6B 		.ascii	"K\012>kR\360\225\344.X\212\263,0.AMt\004}\022\226\032"
 418      52F095E4 
 418      2E588AB3 
 418      2C302E41 
 418      4D74047D 
 419 08ac 9F428261 		.ascii	"\237B\202a\\\352\263\201y\011\3055W\373\334\271\232"
 419      5CEAB381 
 419      7909C535 
 419      57FBDCB9 
 419      9A
 420 08bd 84BF132E 		.ascii	"\204\277\023.\311\211\250eW1\345%\216z9/\344\376\210"
 420      C989A865 
 420      5731E525 
 420      8E7A392F 
 420      E4FE88
 421 08d0 282F415C 		.ascii	"(/A\\>B\\-G\230ork!7\002>`\264/+$\037WK\302\031\317"
 421      3E425C2D 
 421      47986F72 
 421      6B213702 
 421      3E60B42F 
 422 08ec E269A2BD 		.ascii	"\342i\242\275x\245\026\361\214Z\2160\337;\210g\373F"
 422      78A516F1 
 422      8C5A8E30 
 422      DF3B8867 
 422      FB46
 423 08fe 4AF65FF4 		.ascii	"J\366_\364\212\234'\235~\351\330.6\300\244D2\227\372"
 423      8A9C279D 
 423      7EE9D82E 
 423      36C0A444 
 423      3297FA
 424 0911 8673A5FE 		.ascii	"\206s\245\376\221\004\364X)i3M\344\346S\333\246\323"
 424      9104F458 
 424      2969334D 
 424      E4E653DB 
 424      A6D3
 425 0923 F914B9DF 		.ascii	"\371\024\271\337\377|\252\207\315\247,b\\\206\3463}"
 425      FF7CAA87 
 425      CDA72C62 
 425      5C86E633 
 425      7D
 426 0934 6A58A5B3 		.ascii	"jX\245\263M'E4\210\372\273P\"}\015\014\351\201!\341"
 426      4D274534 
 426      88FABB50 
 426      227D0D0C 
 426      E98121E1 
 427 0948 FBC56C3F 		.ascii	"\373\305l?\005\302\351\340\332\323\013\330\326\310\014"
 427      05C2E9E0 
 427      DAD30BD8 
 427      D6C80C
 428 0957 91FE035E 		.ascii	"\221\376\003^jU\002\267\370&\2359\021i\024\313\034d"
 428      6A5502B7 
 428      F8269D39 
 428      116914CB 
 428      1C64
 429 0969 CD7B26A0 		.ascii	"\315{&\240\327\262\212\033H\276\327\300z=\227\353\223"
ARM GAS  /var/folders/c6/c789hm653lg9vtl73krp73tm0000gn/T//ccjnlM3Z.s 			page 34


 429      D7B28A1B 
 429      48BED7C0 
 429      7A3D97EB 
 429      93
 430 097a 0AB6D99B 		.ascii	"\012\266\331\233\366\233\355d\311\272\002\332M{\233"
 430      F69BED64 
 430      C9BA02DA 
 430      4D7B9B
 431 0989 2D723BBE 		.ascii	"-r;\276s\333\311\233M\344v\377V\232?}\326\345d\252n"
 431      73DBC99B 
 431      4DE476FF 
 431      569A3F7D 
 431      D6E564AA 
 432 099e FCB9D69B 		.ascii	"\374\271\326\233\205\034H\242\327`\026]\232{\221\314"
 432      851C48A2 
 432      D760165D 
 432      9A7B91CC 
 433 09ae F91D3042 		.ascii	"\371\0350B\254\231w\257\346v\262S\335\354\302\273\264"
 433      AC9977AF 
 433      E676B253 
 433      DDECC2BB 
 433      B4
 434 09bf F4D2F637 		.ascii	"\364\322\36670t\344jK|\021\257\240\205\355B\205~\273"
 434      3074E46A 
 434      4B7C11AF 
 434      A085ED42 
 434      857EBB
 435 09d2 7F053D35 		.ascii	"\177\005=5\335\346%3\213\206\362\372[\"\232\266k\216"
 435      DDE62533 
 435      8B86F2FA 
 435      5B229AB6 
 435      6B8E
 436 09e4 51852E72 		.ascii	"Q\205.r\250\336\357\310\231^\254O\275\353\250\033\177"
 436      A8DEEFC8 
 436      995EAC4F 
 436      BDEBA81B 
 436      7F
 437 09f5 3450B0EC 		.ascii	"4P\260\354G@\037S\214\346\001\272h\012\026U\306\332"
 437      47401F53 
 437      8CE601BA 
 437      680A1655 
 437      C6DA
 438 0a07 531FAA3E 		.ascii	"S\037\252>\365\214W\221\307\351\213\201z\235\011\343"
 438      F58C5791 
 438      C7E98B81 
 438      7A9D09E3 
 439 0a17 2C1F7A76 		.ascii	",\037zv\030\316\357K\245\017\335I\364\254\277\223\371"
 439      18CEEF4B 
 439      A50FDD49 
 439      F4ACBF93 
 439      F9
 440 0a28 1D8F657D 		.ascii	"\035\217e}\341\322\363L:\227I%\374\230H\246\025\365"
 440      E1D2F34C 
 440      3A974925 
 440      FC9848A6 
 440      15F5
 441 0a3a 22995034 		.ascii	"\"\231P4\321\343J\321\305\264\242N\264\037\030t38\265"
ARM GAS  /var/folders/c6/c789hm653lg9vtl73krp73tm0000gn/T//ccjnlM3Z.s 			page 35


 441      D1E34AD1 
 441      C5B4A24E 
 441      B41F1874 
 441      3338B5
 442 0a4d 5A956B75 		.ascii	"Z\225ku\025zZ[\326\3277w\363\333?_\000\023J\355\024"
 442      157A5A5B 
 442      D6D73777 
 442      F3DB3F5F 
 442      00134AED 
 443 0a62 992470F9 		.ascii	"\231$p\371\330\341E)\202\364\002\313\307\271\024,\240"
 443      D8E14529 
 443      82F402CB 
 443      C7B9142C 
 443      A0
 444 0a73 A7CB3017 		.ascii	"\247\3130\027?\277B\317\021<m\225&R4R\177\265x\225U"
 444      3FBF42CF 
 444      113C6D95 
 444      26523452 
 444      7FB57895 
 445 0a88 1BFF1205 		.ascii	"\033\377\022\005\363\015B\254\217\344\354\236+\026\256"
 445      F30D42AC 
 445      8FE4EC9E 
 445      2B16AE
 446 0a97 D5A6CED0 		.ascii	"\325\246\316\320~\310<\202\365\234,\240\325y]\350\030"
 446      7EC83C82 
 446      F59C2CA0 
 446      D5795DE8 
 446      18
 447 0aa8 2FE56350 		.ascii	"/\345cP\341z\256\034\210p/\363\203\015\321v\366\207"
 447      E17AAE1C 
 447      88702FF3 
 447      830DD176 
 447      F687
 448 0aba FEF69765 		.ascii	"\376\366\227e \262(\202\352b=G\364\032\364\214\246\315"
 448      20B22882 
 448      EA623D47 
 448      F41AF48C 
 448      A6CD
 449 0acc D196C8E3 		.ascii	"\321\226\310\343\214\340m\2475Z@\033v4\230\205Y\263"
 449      8CE06DA7 
 449      355A401B 
 449      76349885 
 449      59B3
 450 0ade 83A419DD 		.ascii	"\203\244\031\335\213\351\352\247\325\230\\\243\014i"
 450      8BE9EAA7 
 450      D5985CA3 
 450      0C69
 451 0aec A40F93CF 		.ascii	"\244\017\223\317\210B\301VL\006f\256'\264i\203q\326"
 451      8842C156 
 451      4C0666AE 
 451      27B46983 
 451      71D6
 452 0afe 5E2DBCBD 		.ascii	"^-\274\275\326\331\351:}\260\223d`\355|&#\362\232.0"
 452      D6D9E93A 
 452      7DB09364 
 452      60ED7C26 
 452      23F29A2E 
ARM GAS  /var/folders/c6/c789hm653lg9vtl73krp73tm0000gn/T//ccjnlM3Z.s 			page 36


 453 0b13 AC6F2DA8 		.ascii	"\254o-\250i{\325\356\261W\355|C\265\022\336@\305\335"
 453      697BD5EE 
 453      B157ED7C 
 453      43B512DE 
 453      40C5DD
 454 0b26 E24AB53D 		.ascii	"\342J\265=\274\226\234\233\231\265\224\322Z\246O\033"
 454      BC969C9B 
 454      99B594D2 
 454      5AA64F1B 
 455 0b36 5CC4BCC1 		.ascii	"\\\304\274\301\271\025\223s\233\255\316z\033\035uV\300"
 455      B9159373 
 455      9BADCE7A 
 455      1B1D7556 
 455      C0
 456 0b47 3B5FE375 		.ascii	";_\343uF_?\264\250\350]{\025\035\2552\334\3508\255\260"
 456      465F3FB4 
 456      A8E85D7B 
 456      151DAD32 
 456      DCE838AD 
 457 0b5c B3A01B39 		.ascii	"\263\240\0339\370\303N\336\037\332me\3338g&\214\013"
 457      F8C34EDE 
 457      1FDA6D65 
 457      DB386726 
 457      8C0B
 458 0b6e A9742633 		.ascii	"\251t&3\206\227\255P\206z\243\240C\260\374\305I{\322"
 458      8697AD50 
 458      867AA3A0 
 458      43B0FCC5 
 458      497BD2
 459 0b81 5EDA85BC 		.ascii	"^\332\205\274Ct\272\217\265U4D\277\242\300\316\315\030"
 459      4374BA8F 
 459      B5553444 
 459      BFA2C0CE 
 459      CD18
 460 0b93 1DE610AD 		.ascii	"\035\346\020\255\037\374y\234\341$\316\255\230\234\335"
 460      1FFC799C 
 460      E124CEAD 
 460      989CDD
 461 0ba2 B649EF83 		.ascii	"\266I\357\2033\035\270\336\263C\354\347u\266\034\347"
 461      331DB8DE 
 461      B343ECE7 
 461      75B61CE7 
 462 0bb2 79C47987 		.ascii	"y\304y\207\304y\300\226\307\246\367N\377a\241\266c\252"
 462      C479C096 
 462      C7A6F74E 
 462      FF61A1B6 
 462      63AA
 463 0bc4 96C93CE2 		.ascii	"\226\311<\342\201\310!\236\310'\371D^,\267'\362\216"
 463      81C8219E 
 463      C827F944 
 463      5E2CB727 
 463      F28E
 464 0bd6 2D91A9E7 		.ascii	"-\221\251\347r\012\321\005\025\320\006\007\204w\355"
 464      720AD105 
 464      15D00607 
 464      8477ED
 465 0be5 10D22FEF 		.ascii	"\020\322/\357\232\251\341\246\272\276L\346*\003`\207"
ARM GAS  /var/folders/c6/c789hm653lg9vtl73krp73tm0000gn/T//ccjnlM3Z.s 			page 37


 465      9AA9E1A6 
 465      BABE4CE6 
 465      2A036087 
 466 0bf5 03C0112B 		.ascii	"\003\300\021+\300\325h\271\226\336\003\203\310\261a"
 466      C0D568B9 
 466      96DE0383 
 466      C8B161
 467 0c04 2FC1E2A1 		.ascii	"/\301\342\241\025t\220\301\2311\306B\252+\213b\273j"
 467      157490C1 
 467      9931C642 
 467      AA2B8B62 
 467      BB6A
 468 0c16 22807D39 		.ascii	"\"\200}9@\002\266gO\272w\327\014\215\204|\035\031\221"
 468      4002B667 
 468      4FBA77D7 
 468      0C8D847C 
 468      1D1991
 469 0c29 24FC2DAC 		.ascii	"$\374-\254+\005\364v9\227\323\371\365\265\200\336+\327"
 469      2B05F476 
 469      3997D3F9 
 469      F5B580DE 
 469      2BD7
 470 0c3b 5FFDB912 		.ascii	"_\375\271\022\235*_B\376m\372\226\256H\031\352\027\335"
 470      9D2A5F42 
 470      FE6DFA96 
 470      AE4819EA 
 470      17DD
 471 0c4d 5AA0A9AE 		.ascii	"Z\240\251\256\236XK\302?\300\023\011\277G=\336\024\340"
 471      9E584BC2 
 471      3FC01309 
 471      BF473DDE 
 471      14E0
 472 0c5f DC9A5640 		.ascii	"\334\232V@\251A\006d\323 \012\371\003\205\344f\023\373"
 472      A9410664 
 472      D3200AF9 
 472      0385E466 
 472      13FB
 473 0c71 0B2C854E 		.ascii	"\013,\205N8\316A\016\025hu2\327\012]5|x\245\376\215"
 473      38CE410E 
 473      15687532 
 473      D70A5D35 
 473      7C78A5FE 
 474 0c86 272B15B5 		.ascii	"'+\025\2652\034\013Ej\252\344\312PuT\235<\274\032\025"
 474      321C0B45 
 474      6AAAE4CA 
 474      5075549D 
 474      3CBC1A15 
 475 0c9a 476B5479 		.ascii	"GkTyrP\365\337\365\307\373+\306\242@\250:H\357\\\343"
 475      7250F5DF 
 475      F5C7FB2B 
 475      C6A240A8 
 475      3A48EF5C 
 476 0caf D82E3925 		.ascii	"\330.9%\251NI\310Ih|\261Z\255\310RU2\370\367\032\271"
 476      A94E49C8 
 476      49687CB1 
 476      5AADC852 
 476      5532F8F7 
ARM GAS  /var/folders/c6/c789hm653lg9vtl73krp73tm0000gn/T//ccjnlM3Z.s 			page 38


 477 0cc5 460EAA83 		.ascii	"F\016\252\203\241\265\345V\2053J\250\272\012\020\002"
 477      A1B5E556 
 477      85334AA8 
 477      BA0A1002 
 478 0cd5 7AF5A05A 		.ascii	"z\365\240Z\222m\352O\004c\362d\025N\011E\256\035\305"
 478      926DEA4F 
 478      0463F264 
 478      154E0945 
 478      AE1DC5
 479 0ce8 2124E28A 		.ascii	"!$\342\212\232\254\274\343/\367\216\275wre(\036M\204"
 479      9AACBCE3 
 479      2FF78EBD 
 479      77726528 
 479      1E4D84
 480 0cfb 23B292AC 		.ascii	"#\262\222\254\274k\354X\0005x\025\253\011%\034\017\252"
 480      BC6BEC58 
 480      00357815 
 480      AB09251C 
 480      0FAA
 481 0d0d F754D624 		.ascii	"\367T\326$\225\312H<$E*\307\312\221\210\244TN\014\205"
 481      95CA483C 
 481      24452AC7 
 481      CA9188A4 
 481      544E0C85 
 482 0d21 AE9794E8 		.ascii	"\256\227\224\350\365\261xL\276^\226\306\207+o\0301r"
 482      F5B1784C 
 482      BE5E96C6 
 482      872B6F18 
 482      3172
 483 0d33 D488D123 		.ascii	"\324\210\321#n\252\264\3366\250&\325\252pL%Tk\340|\343"
 483      6EAAB4DE 
 483      36A826D5 
 483      AA704C25 
 483      546BE07C 
 484 0d48 0D41F56F 		.ascii	"\015A\365o?\002jT\012U\207cre\260J\236 \325D\324\240"
 484      3F026A54 
 484      0A558763 
 484      7265B04A 
 484      9E20D544 
 485 0d5e 41BD3418 		.ascii	"A\2754\0304\372\241\032\010\307\213C\361\030\030D\275"
 485      34FAA11A 
 485      08C78B43 
 485      F1181844 
 485      BD
 486 0d6f B6A026AA 		.ascii	"\266\240&\252CqE\206\366e\344v\020\020B\352\344\337"
 486      43714586 
 486      F665E476 
 486      101042EA 
 486      E4DF
 487 0d81 F4DF2258 		.ascii	"\364\337\"X{K\224\310\246\310\023\201hP\025\224Q\202"
 487      7B4B94C8 
 487      A6C81381 
 487      68501594 
 487      5182
 488 0d93 7293A0DC 		.ascii	"r\223\240\334,(\267\010\312hA\271UTF\216\2002R\210("
 488      2C28B708 
 488      CA6841B9 
ARM GAS  /var/folders/c6/c789hm653lg9vtl73krp73tm0000gn/T//ccjnlM3Z.s 			page 39


 488      5554468E 
 488      80325288 
 489 0da8 70BAD197 		.ascii	"p\272\321\227\010\002r1\261\321$Y\201s<R%+E\241jI!\206"
 489      08027231 
 489      B1D12459 
 489      81733C52 
 489      252B45A1 
 490 0dc0 93A27269 		.ascii	"\223\242riR}X\212\204'\306\202*U\331\315\243\202*\223"
 490      527D588A 
 490      8427C682 
 490      2A55D9CD 
 490      A3822A93 
 491 0dd4 8A5E2682 		.ascii	"\212^&\202P!\022\216\206\325\200\232T%\025\374\246\230"
 491      5021128E 
 491      86D5809A 
 491      542515FC 
 491      A698
 492 0de6 3C1C0D4E 		.ascii	"<\034\015N\240W\203\253bR\013\236\025\253\321x\225L"
 492      A05783AB 
 492      62520B9E 
 492      15ABD178 
 492      954C
 493 0df8 7F4F8848 		.ascii	"\177O\210H\023\223\305\252\"OHR\335\220\013_49\021\036"
 493      1393C5AA 
 493      224F4852 
 493      DD900B5F 
 493      3439111E 
 494 0e0c 32854173 		.ascii	"2\205AsCuJ\325\024x\024\220'\207\325\020\000\370'\251"
 494      43754AD5 
 494      14781490 
 494      2787D510 
 494      00F827A9 
 495 0e20 F1F10F25 		.ascii	"\361\361\017%\2060o\203\246\262\"\307B\000\354\233\244"
 495      86306F83 
 495      A6B222C7 
 495      4200EC9B 
 495      A4
 496 0e31 AA4AA21C 		.ascii	"\252J\242\034\274/)G\245D5\350\3049d\240\012\361.\346"
 496      BC2F2947 
 496      A54435E8 
 496      C43964A0 
 496      0AF12EE6 
 497 0e45 DCBE500C 		.ascii	"\334\276P\014\354\346K\006\341\014\035\300\303\004\234"
 497      ECE64B06 
 497      E10C1DC0 
 497      C3049C
 498 0e54 20AC1265 		.ascii	" \254\022er\255\034S\243R\362a\240\"O\"\027b\"Xs\221"
 498      72AD1C53 
 498      A352F261 
 498      A0224F22 
 498      17622258 
 499 0e6a 111B9170 		.ascii	"\021\033\221p\022Z^l\212\026r\247$\021\234$\205\325"
 499      125A5E6C 
 499      8A1672A7 
 499      24119C24 
 499      85D5
 500 0e7c 706C22E8 		.ascii	"pl\"\350\010\330\353\235\320K\270!'\344\030x\342D\250"
ARM GAS  /var/folders/c6/c789hm653lg9vtl73krp73tm0000gn/T//ccjnlM3Z.s 			page 40


 500      08D8EB9D 
 500      D04BB821 
 500      27E41878 
 500      E244A8
 501 0e8f 055D90FA 		.ascii	"\005]\220\372\245D\007R\204\372\010\334L\304\343\221"
 501      A5440752 
 501      84FA08DC 
 501      4CC4E391 
 502 0e9f 2B1DA9AB 		.ascii	"+\035\251\253\204\371\0205\034\225\203QYJ\326(rT&\364"
 502      84F91035 
 502      1C958351 
 502      594AD628 
 502      725426F4 
 503 0eb3 8B15958A 		.ascii	"\213\025\225\212Q4^N\2022\342JR-\212HI\325_Co\343X@"
 503      51345E4E 
 503      8232E24A 
 503      522D8A48 
 503      49D55F43 
 504 0ecb 51692BB5 		.ascii	"Qi+\2654T\023\255\211Hj\270Vf\326I\026GuM\3009>)&+\376"
 504      345413AD 
 504      89486AB8 
 504      5666D649 
 504      1647754D 
 505 0ee6 280DDDBF 		.ascii	"(\015\335\277z\012\220Hx<y\314\005\312\250\341\243\207"
 505      7A0A9048 
 505      783C79CC 
 505      05CAA8E1 
 505      A387
 506 0ef8 8F320721 		.ascii	"\2172\007!\004\012H\340O\206\377\001\\\234\363J\265"
 506      040A48E0 
 506      4F86FF01 
 506      5C9CF34A 
 506      B5
 507 0f09 2C25A0DE 		.ascii	",%\240\336\240\250\034\215+S\202\344gP-3\375\372\245"
 507      A0A81C8D 
 507      2B5382E4 
 507      67502D33 
 507      FDFAA5
 508 0f1c 734294A3 		.ascii	"sB\224\243,\210\312\341r\242\254N\250\211\205@\356j"
 508      2C88CAE1 
 508      72A2AC4E 
 508      A8898540 
 508      EE6A
 509 0f2e 08C3786D 		.ascii	"\010\303xm\030\334\274\214\302\301\001\256}\324\307"
 509      18DCBC8C 
 509      C2C101AE 
 509      7DD4C7
 510 0f3d 8B88BC45 		.ascii	"\213\210\274E\3446\256)\"\334p\265\277:8A\221e_5\261"
 510      E436AE29 
 510      22DC70B5 
 510      BF3A3841 
 510      91655F35 
 511 0f52 D3155C6F 		.ascii	"\323\025\\oI%d\220\014A\254S\274p,\254\226\205\252\307"
 511      49256490 
 511      0C41AC53 
 511      BC702CAC 
 511      9685AAC7 
ARM GAS  /var/folders/c6/c789hm653lg9vtl73krp73tm0000gn/T//ccjnlM3Z.s 			page 41


 512 0f66 42DF7744 		.ascii	"B\337wD@k\220E\307\301\375?\215\177H\016\251w\303C\037"
 512      406B9045 
 512      C7C1FD3F 
 512      8D7F480E 
 512      A977C343 
 513 0f7b A99610C7 		.ascii	"\251\226\020\307\327L(\323\037\321j\245\372\365\235"
 513      D74C28D3 
 513      1FD16AA5 
 513      FAF59D
 514 0f8a D017260E 		.ascii	"\320\027&\016L~\334\007V\251I\372\010\221\004\270\327"
 514      4C7EDC07 
 514      56A949FA 
 514      089104B8 
 514      D7
 515 0f9b BDEAE41C 		.ascii	"\275\352\344\034J"
 515      4A
 516 0fa0 01B79E42 		.ascii	"\001\267\236B2\017d\340\373\246$\307I\021B\006Z\336"
 516      320F64E0 
 516      FBA624C7 
 516      49114206 
 516      5ADE
 517 0fb2 1F834E1E 		.ascii	"\037\203N\036.\241\327\367\300U\271\221\252\010\233"
 517      2EA1D7F7 
 517      C055B991 
 517      AA089B
 518 0fc1 403048B5 		.ascii	"@0H\265\023\034d\\\014\277\371\246\233G]\302SG\346\347"
 518      131C645C 
 518      0CBFF9A6 
 518      9B475DC2 
 518      5347E6E7 
 519 0fd5 A34796E5 		.ascii	"\243G\226\3458\243\377\001!\200\031["
 519      38A3FF01 
 519      2180195B 
 520              		.text
 521              		.section	.gnu.lto_.symtab.5291d388c91db3a5,"",%progbits
 522 0000 5F686561 		.ascii	"_heap_init\000\000\000\000\000\000\000\000\000\000\000"
 522      705F696E 
 522      69740000 
 522      00000000 
 522      00000000 
 523 0015 00A90100 		.ascii	"\000\251\001\000\000chHeapObjectInit\000\000\000\000"
 523      00636848 
 523      6561704F 
 523      626A6563 
 523      74496E69 
 524 002e 00000000 		.ascii	"\000\000\000\000\000\000\000\000\257\001\000\000chH"
 524      00000000 
 524      AF010000 
 524      636848
 525 003d 65617041 		.ascii	"eapAlloc\000\000\000\000\000\000\000\000\000\000\000"
 525      6C6C6F63 
 525      00000000 
 525      00000000 
 525      000000
 526 0050 00BB0100 		.ascii	"\000\273\001\000\000chHeapFree\000\000\000\000\000\000"
 526      00636848 
 526      65617046 
ARM GAS  /var/folders/c6/c789hm653lg9vtl73krp73tm0000gn/T//ccjnlM3Z.s 			page 42


 526      72656500 
 526      00000000 
 527 0065 00000000 		.ascii	"\000\000\000\000\000\000\303\001\000\000chHeapStatu"
 527      0000C301 
 527      00006368 
 527      48656170 
 527      53746174 
 528 007a 73000000 		.ascii	"s\000\000\000\000\000\000\000\000\000\000\000\000\312"
 528      00000000 
 528      00000000 
 528      00CA
 529 0088 01000063 		.ascii	"\001\000\000chCoreAlloc\000\000\002\000\000\000\000"
 529      68436F72 
 529      65416C6C 
 529      6F630000 
 529      02000000 
 530 009d 00000000 		.ascii	"\000\000\000\000\000\255\001\000\000chMtxObjectInit"
 530      00AD0100 
 530      0063684D 
 530      74784F62 
 530      6A656374 
 531 00b5 00000200 		.ascii	"\000\000\002\000\000\000\000\000\000\000\000\000\323"
 531      00000000 
 531      00000000 
 531      D3
 532 00c2 01000063 		.ascii	"\001\000\000chSysHalt\000\000\002\000\000\000\000\000"
 532      68537973 
 532      48616C74 
 532      00000200 
 532      00000000 
 533 00d6 00000000 		.ascii	"\000\000\000\000\327\001\000\000chMtxUnlock\000\000"
 533      D7010000 
 533      63684D74 
 533      78556E6C 
 533      6F636B00 
 534 00eb 02000000 		.ascii	"\002\000\000\000\000\000\000\000\000\000\333\001\000"
 534      00000000 
 534      0000DB01 
 534      00
 535 00f8 0063684D 		.ascii	"\000chMtxLock\000\000\002\000\000\000\000\000\000\000"
 535      74784C6F 
 535      636B0000 
 535      02000000 
 535      00000000 
 536 010c 0000DD01 		.ascii	"\000\000\335\001\000\000"
 536      0000
 537              		.text
 538              		.section	.gnu.lto_.opts,"",%progbits
 539 0000 272D6D63 		.ascii	"'-mcpu=cortex-m4' '-mno-thumb-interwork' '-mthumb' "
 539      70753D63 
 539      6F727465 
 539      782D6D34 
 539      2720272D 
 540 0033 272D6767 		.ascii	"'-ggdb' '-O2' '-fomit-frame-pointer' '-falign-funct"
 540      64622720 
 540      272D4F32 
 540      2720272D 
ARM GAS  /var/folders/c6/c789hm653lg9vtl73krp73tm0000gn/T//ccjnlM3Z.s 			page 43


 540      666F6D69 
 541 0066 696F6E73 		.ascii	"ions=16' '-ffunction-sections' '-fdata-sections' '-"
 541      3D313627 
 541      20272D66 
 541      66756E63 
 541      74696F6E 
 542 0099 666E6F2D 		.ascii	"fno-common' '-flto'\000"
 542      636F6D6D 
 542      6F6E2720 
 542      272D666C 
 542      746F2700 
 543              		.text
 544              		.cfi_sections	.debug_frame
 545              		.section	.text._heap_init,"ax",%progbits
 546              		.align	2
 547              		.p2align 4,,15
 548              		.global	_heap_init
 549              		.thumb
 550              		.thumb_func
 551              		.type	_heap_init, %function
 552              	_heap_init:
 553              	.LFB229:
 554              		.file 1 "../../../os/rt/src/chheap.c"
 555              		.loc 1 91 0
 556              		.cfi_startproc
 557              		@ args = 0, pretend = 0, frame = 0
 558              		@ frame_needed = 0, uses_anonymous_args = 0
 559              		@ link register save eliminated.
 560              		.loc 1 93 0
 561 0000 044B     		ldr	r3, .L2
 562 0002 054A     		ldr	r2, .L2+4
 563 0004 1A60     		str	r2, [r3]
 564              		.loc 1 97 0
 565 0006 03F11000 		add	r0, r3, #16
 566              		.loc 1 94 0
 567 000a 0022     		movs	r2, #0
 568 000c 9A60     		str	r2, [r3, #8]
 569              		.loc 1 95 0
 570 000e DA60     		str	r2, [r3, #12]
 571              		.loc 1 97 0
 572 0010 FFF7FEBF 		b	chMtxObjectInit
 573              	.LVL0:
 574              	.L3:
 575              		.align	2
 576              	.L2:
 577 0014 00000000 		.word	.LANCHOR0
 578 0018 00000000 		.word	chCoreAlloc
 579              		.cfi_endproc
 580              	.LFE229:
 581              		.size	_heap_init, .-_heap_init
 582 001c AFF30080 		.section	.text.chHeapObjectInit,"ax",%progbits
 583              		.align	2
 584              		.p2align 4,,15
 585              		.global	chHeapObjectInit
 586              		.thumb
 587              		.thumb_func
 588              		.type	chHeapObjectInit, %function
ARM GAS  /var/folders/c6/c789hm653lg9vtl73krp73tm0000gn/T//ccjnlM3Z.s 			page 44


 589              	chHeapObjectInit:
 590              	.LFB230:
 591              		.loc 1 114 0
 592              		.cfi_startproc
 593              		@ args = 0, pretend = 0, frame = 0
 594              		@ frame_needed = 0, uses_anonymous_args = 0
 595              	.LVL1:
 596 0000 70B5     		push	{r4, r5, r6, lr}
 597              		.cfi_def_cfa_offset 16
 598              		.cfi_offset 4, -16
 599              		.cfi_offset 5, -12
 600              		.cfi_offset 6, -8
 601              		.cfi_offset 14, -4
 602              		.loc 1 114 0
 603 0002 1646     		mov	r6, r2
 604              		.loc 1 117 0
 605 0004 4A07     		lsls	r2, r1, #29
 606              	.LVL2:
 607              		.loc 1 114 0
 608 0006 0C46     		mov	r4, r1
 609              	.LVL3:
 610 0008 0546     		mov	r5, r0
 611              		.loc 1 117 0
 612 000a 01D1     		bne	.L5
 613              		.loc 1 117 0 is_stmt 0 discriminator 2
 614 000c 7307     		lsls	r3, r6, #29
 615 000e 02D0     		beq	.L6
 616              	.L5:
 617              		.loc 1 117 0 discriminator 1
 618 0010 0748     		ldr	r0, .L11
 619              	.LVL4:
 620 0012 FFF7FEFF 		bl	chSysHalt
 621              	.LVL5:
 622              	.L6:
 623              		.loc 1 119 0 is_stmt 1
 624 0016 0023     		movs	r3, #0
 625              		.loc 1 123 0
 626 0018 083E     		subs	r6, r6, #8
 627              	.LVL6:
 628              		.loc 1 120 0
 629 001a AC60     		str	r4, [r5, #8]
 630              		.loc 1 119 0
 631 001c 2B60     		str	r3, [r5]
 632              		.loc 1 121 0
 633 001e EB60     		str	r3, [r5, #12]
 634              		.loc 1 122 0
 635 0020 84E84800 		stmia	r4, {r3, r6}
 636              		.loc 1 125 0
 637 0024 05F11000 		add	r0, r5, #16
 638              		.loc 1 129 0
 639 0028 BDE87040 		pop	{r4, r5, r6, lr}
 640              	.LVL7:
 641              		.loc 1 125 0
 642 002c FFF7FEBF 		b	chMtxObjectInit
 643              	.LVL8:
 644              	.L12:
 645              		.align	2
ARM GAS  /var/folders/c6/c789hm653lg9vtl73krp73tm0000gn/T//ccjnlM3Z.s 			page 45


 646              	.L11:
 647 0030 00000000 		.word	.LANCHOR1
 648              		.cfi_endproc
 649              	.LFE230:
 650              		.size	chHeapObjectInit, .-chHeapObjectInit
 651 0034 AFF30080 		.section	.text.chHeapAlloc,"ax",%progbits
 651      AFF30080 
 651      AFF30080 
 652              		.align	2
 653              		.p2align 4,,15
 654              		.global	chHeapAlloc
 655              		.thumb
 656              		.thumb_func
 657              		.type	chHeapAlloc, %function
 658              	chHeapAlloc:
 659              	.LFB231:
 660              		.loc 1 147 0
 661              		.cfi_startproc
 662              		@ args = 0, pretend = 0, frame = 0
 663              		@ frame_needed = 0, uses_anonymous_args = 0
 664              	.LVL9:
 665 0000 F8B5     		push	{r3, r4, r5, r6, r7, lr}
 666              		.cfi_def_cfa_offset 24
 667              		.cfi_offset 3, -24
 668              		.cfi_offset 4, -20
 669              		.cfi_offset 5, -16
 670              		.cfi_offset 6, -12
 671              		.cfi_offset 7, -8
 672              		.cfi_offset 14, -4
 673              		.loc 1 151 0
 674 0002 214E     		ldr	r6, .L28
 675 0004 0028     		cmp	r0, #0
 676 0006 18BF     		it	ne
 677 0008 0646     		movne	r6, r0
 678              	.LVL10:
 679              		.loc 1 157 0
 680 000a 06F11007 		add	r7, r6, #16
 681              		.loc 1 154 0
 682 000e 0731     		adds	r1, r1, #7
 683              	.LVL11:
 684              		.loc 1 157 0
 685 0010 3846     		mov	r0, r7
 686              		.loc 1 154 0
 687 0012 21F00705 		bic	r5, r1, #7
 688              	.LVL12:
 689              		.loc 1 155 0
 690 0016 06F10804 		add	r4, r6, #8
 691              	.LVL13:
 692              		.loc 1 157 0
 693 001a FFF7FEFF 		bl	chMtxLock
 694              	.LVL14:
 695              		.loc 1 158 0
 696 001e 03E0     		b	.L15
 697              	.LVL15:
 698              	.L20:
 699              		.loc 1 160 0
 700 0020 5A68     		ldr	r2, [r3, #4]
ARM GAS  /var/folders/c6/c789hm653lg9vtl73krp73tm0000gn/T//ccjnlM3Z.s 			page 46


 701 0022 9542     		cmp	r5, r2
 702 0024 12D9     		bls	.L27
 703 0026 1C46     		mov	r4, r3
 704              	.LVL16:
 705              	.L15:
 706              		.loc 1 158 0 discriminator 1
 707 0028 2368     		ldr	r3, [r4]
 708              	.LVL17:
 709 002a 002B     		cmp	r3, #0
 710 002c F8D1     		bne	.L20
 711              		.loc 1 186 0
 712 002e 3846     		mov	r0, r7
 713 0030 FFF7FEFF 		bl	chMtxUnlock
 714              	.LVL18:
 715              		.loc 1 190 0
 716 0034 3368     		ldr	r3, [r6]
 717 0036 2BB3     		cbz	r3, .L22
 718              		.loc 1 191 0
 719 0038 05F10800 		add	r0, r5, #8
 720 003c 9847     		blx	r3
 721              	.LVL19:
 722              		.loc 1 192 0
 723 003e 08B3     		cbz	r0, .L22
 724              		.loc 1 193 0
 725 0040 0660     		str	r6, [r0]
 726              		.loc 1 194 0
 727 0042 4560     		str	r5, [r0, #4]
 728              	.LVL20:
 729              		.loc 1 198 0
 730 0044 00F10804 		add	r4, r0, #8
 731              	.LVL21:
 732              	.L19:
 733              		.loc 1 204 0
 734 0048 2046     		mov	r0, r4
 735 004a F8BD     		pop	{r3, r4, r5, r6, r7, pc}
 736              	.LVL22:
 737              	.L27:
 738              		.loc 1 161 0
 739 004c 05F10801 		add	r1, r5, #8
 740 0050 9142     		cmp	r1, r2
 741 0052 09D9     		bls	.L17
 742              		.loc 1 165 0
 743 0054 1A68     		ldr	r2, [r3]
 744 0056 2260     		str	r2, [r4]
 745              	.L18:
 746              		.loc 1 177 0
 747 0058 1C46     		mov	r4, r3
 748              	.LVL23:
 749              		.loc 1 178 0
 750 005a 3846     		mov	r0, r7
 751              		.loc 1 177 0
 752 005c 44F8086B 		str	r6, [r4], #8
 753              		.loc 1 178 0
 754 0060 FFF7FEFF 		bl	chMtxUnlock
 755              	.LVL24:
 756              		.loc 1 204 0
 757 0064 2046     		mov	r0, r4
ARM GAS  /var/folders/c6/c789hm653lg9vtl73krp73tm0000gn/T//ccjnlM3Z.s 			page 47


 758 0066 F8BD     		pop	{r3, r4, r5, r6, r7, pc}
 759              	.LVL25:
 760              	.L17:
 761              		.loc 1 173 0
 762 0068 6FF00700 		mvn	r0, #7
 763 006c 401B     		subs	r0, r0, r5
 764              		.loc 1 170 0
 765 006e 03EB010E 		add	lr, r3, r1
 766              	.LVL26:
 767              		.loc 1 173 0
 768 0072 0244     		add	r2, r2, r0
 769              		.loc 1 172 0
 770 0074 1868     		ldr	r0, [r3]
 771 0076 5850     		str	r0, [r3, r1]
 772              		.loc 1 173 0
 773 0078 CEF80420 		str	r2, [lr, #4]
 774              		.loc 1 174 0
 775 007c C4F800E0 		str	lr, [r4]
 776              		.loc 1 175 0
 777 0080 5D60     		str	r5, [r3, #4]
 778 0082 E9E7     		b	.L18
 779              	.LVL27:
 780              	.L22:
 781              		.loc 1 203 0
 782 0084 0024     		movs	r4, #0
 783              	.LVL28:
 784 0086 DFE7     		b	.L19
 785              	.L29:
 786              		.align	2
 787              	.L28:
 788 0088 00000000 		.word	.LANCHOR0
 789              		.cfi_endproc
 790              	.LFE231:
 791              		.size	chHeapAlloc, .-chHeapAlloc
 792 008c AFF30080 		.section	.text.chHeapFree,"ax",%progbits
 793              		.align	2
 794              		.p2align 4,,15
 795              		.global	chHeapFree
 796              		.thumb
 797              		.thumb_func
 798              		.type	chHeapFree, %function
 799              	chHeapFree:
 800              	.LFB232:
 801              		.loc 1 213 0
 802              		.cfi_startproc
 803              		@ args = 0, pretend = 0, frame = 0
 804              		@ frame_needed = 0, uses_anonymous_args = 0
 805              	.LVL29:
 806 0000 2DE9F041 		push	{r4, r5, r6, r7, r8, lr}
 807              		.cfi_def_cfa_offset 24
 808              		.cfi_offset 4, -24
 809              		.cfi_offset 5, -20
 810              		.cfi_offset 6, -16
 811              		.cfi_offset 7, -12
 812              		.cfi_offset 8, -8
 813              		.cfi_offset 14, -4
 814              		.loc 1 217 0
ARM GAS  /var/folders/c6/c789hm653lg9vtl73krp73tm0000gn/T//ccjnlM3Z.s 			page 48


 815 0004 8046     		mov	r8, r0
 816 0006 0028     		cmp	r0, #0
 817 0008 5AD0     		beq	.L44
 818              	.LVL30:
 819              	.L31:
 820              		.loc 1 222 0
 821 000a 58F8086C 		ldr	r6, [r8, #-8]
 822              		.loc 1 225 0
 823 000e 06F11007 		add	r7, r6, #16
 824 0012 3846     		mov	r0, r7
 825 0014 FFF7FEFF 		bl	chMtxLock
 826              	.LVL31:
 827              		.loc 1 223 0
 828 0018 0836     		adds	r6, r6, #8
 829 001a 3446     		mov	r4, r6
 830              		.loc 1 220 0
 831 001c A8F10805 		sub	r5, r8, #8
 832              	.LVL32:
 833              	.L39:
 834              		.loc 1 227 0 discriminator 1
 835 0020 AC42     		cmp	r4, r5
 836 0022 04D8     		bhi	.L32
 837 0024 6368     		ldr	r3, [r4, #4]
 838 0026 0833     		adds	r3, r3, #8
 839 0028 2344     		add	r3, r3, r4
 840 002a 9D42     		cmp	r5, r3
 841 002c 0BD3     		bcc	.L45
 842              	.L32:
 843              		.loc 1 229 0
 844 002e B442     		cmp	r4, r6
 845 0030 0ED0     		beq	.L33
 846              	.L46:
 847              		.loc 1 229 0 is_stmt 0 discriminator 2
 848 0032 AC42     		cmp	r4, r5
 849 0034 0CD3     		bcc	.L33
 850 0036 2468     		ldr	r4, [r4]
 851              	.LVL33:
 852              		.loc 1 227 0 is_stmt 1
 853 0038 AC42     		cmp	r4, r5
 854 003a F8D8     		bhi	.L32
 855 003c 6368     		ldr	r3, [r4, #4]
 856 003e 0833     		adds	r3, r3, #8
 857 0040 2344     		add	r3, r3, r4
 858 0042 9D42     		cmp	r5, r3
 859 0044 F3D2     		bcs	.L32
 860              	.L45:
 861              		.loc 1 227 0 is_stmt 0 discriminator 1
 862 0046 2048     		ldr	r0, .L49
 863 0048 FFF7FEFF 		bl	chSysHalt
 864              	.LVL34:
 865              		.loc 1 229 0 is_stmt 1 discriminator 1
 866 004c B442     		cmp	r4, r6
 867 004e F0D1     		bne	.L46
 868              	.L33:
 869              		.loc 1 230 0 discriminator 1
 870 0050 2368     		ldr	r3, [r4]
 871              		.loc 1 229 0 discriminator 1
ARM GAS  /var/folders/c6/c789hm653lg9vtl73krp73tm0000gn/T//ccjnlM3Z.s 			page 49


 872 0052 1BB1     		cbz	r3, .L35
 873              		.loc 1 230 0
 874 0054 9D42     		cmp	r5, r3
 875 0056 01D3     		bcc	.L35
 876 0058 1C46     		mov	r4, r3
 877              	.LVL35:
 878              		.loc 1 248 0
 879 005a E1E7     		b	.L39
 880              	.LVL36:
 881              	.L35:
 882              		.loc 1 235 0
 883 005c 58F8042C 		ldr	r2, [r8, #-4]
 884              		.loc 1 232 0
 885 0060 48F8083C 		str	r3, [r8, #-8]
 886              		.loc 1 233 0
 887 0064 2560     		str	r5, [r4]
 888              		.loc 1 235 0
 889 0066 02F10803 		add	r3, r2, #8
 890 006a 58F8080C 		ldr	r0, [r8, #-8]
 891 006e E918     		adds	r1, r5, r3
 892 0070 8142     		cmp	r1, r0
 893 0072 0AD0     		beq	.L47
 894              		.loc 1 240 0
 895 0074 6368     		ldr	r3, [r4, #4]
 896 0076 03F10802 		add	r2, r3, #8
 897 007a 2244     		add	r2, r2, r4
 898 007c 9542     		cmp	r5, r2
 899 007e 12D0     		beq	.L48
 900              	.L38:
 901              		.loc 1 249 0
 902 0080 3846     		mov	r0, r7
 903              		.loc 1 252 0
 904 0082 BDE8F041 		pop	{r4, r5, r6, r7, r8, lr}
 905              	.LVL37:
 906              		.loc 1 249 0
 907 0086 FFF7FEBF 		b	chMtxUnlock
 908              	.LVL38:
 909              	.L47:
 910              		.loc 1 237 0
 911 008a 4968     		ldr	r1, [r1, #4]
 912              		.loc 1 238 0
 913 008c EB58     		ldr	r3, [r5, r3]
 914 008e 48F8083C 		str	r3, [r8, #-8]
 915              		.loc 1 237 0
 916 0092 5318     		adds	r3, r2, r1
 917 0094 0833     		adds	r3, r3, #8
 918 0096 48F8043C 		str	r3, [r8, #-4]
 919              		.loc 1 240 0
 920 009a 6368     		ldr	r3, [r4, #4]
 921 009c 03F10802 		add	r2, r3, #8
 922 00a0 2244     		add	r2, r2, r4
 923 00a2 9542     		cmp	r5, r2
 924 00a4 ECD1     		bne	.L38
 925              	.L48:
 926              		.loc 1 242 0
 927 00a6 58F8041C 		ldr	r1, [r8, #-4]
 928              		.loc 1 243 0
ARM GAS  /var/folders/c6/c789hm653lg9vtl73krp73tm0000gn/T//ccjnlM3Z.s 			page 50


 929 00aa 58F8082C 		ldr	r2, [r8, #-8]
 930 00ae 2260     		str	r2, [r4]
 931              		.loc 1 242 0
 932 00b0 0B44     		add	r3, r3, r1
 933 00b2 0833     		adds	r3, r3, #8
 934 00b4 6360     		str	r3, [r4, #4]
 935              		.loc 1 249 0
 936 00b6 3846     		mov	r0, r7
 937              		.loc 1 252 0
 938 00b8 BDE8F041 		pop	{r4, r5, r6, r7, r8, lr}
 939              	.LVL39:
 940              		.loc 1 249 0
 941 00bc FFF7FEBF 		b	chMtxUnlock
 942              	.LVL40:
 943              	.L44:
 944              		.loc 1 217 0 discriminator 1
 945 00c0 0148     		ldr	r0, .L49
 946              	.LVL41:
 947 00c2 FFF7FEFF 		bl	chSysHalt
 948              	.LVL42:
 949 00c6 A0E7     		b	.L31
 950              	.L50:
 951              		.align	2
 952              	.L49:
 953 00c8 00000000 		.word	.LANCHOR2
 954              		.cfi_endproc
 955              	.LFE232:
 956              		.size	chHeapFree, .-chHeapFree
 957 00cc AFF30080 		.section	.text.chHeapStatus,"ax",%progbits
 958              		.align	2
 959              		.p2align 4,,15
 960              		.global	chHeapStatus
 961              		.thumb
 962              		.thumb_func
 963              		.type	chHeapStatus, %function
 964              	chHeapStatus:
 965              	.LFB233:
 966              		.loc 1 267 0
 967              		.cfi_startproc
 968              		@ args = 0, pretend = 0, frame = 0
 969              		@ frame_needed = 0, uses_anonymous_args = 0
 970              	.LVL43:
 971 0000 F8B5     		push	{r3, r4, r5, r6, r7, lr}
 972              		.cfi_def_cfa_offset 24
 973              		.cfi_offset 3, -24
 974              		.cfi_offset 4, -20
 975              		.cfi_offset 5, -16
 976              		.cfi_offset 6, -12
 977              		.cfi_offset 7, -8
 978              		.cfi_offset 14, -4
 979              		.loc 1 272 0
 980 0002 0E4C     		ldr	r4, .L64
 981 0004 0028     		cmp	r0, #0
 982 0006 18BF     		it	ne
 983 0008 0446     		movne	r4, r0
 984              	.LVL44:
 985              		.loc 1 275 0
ARM GAS  /var/folders/c6/c789hm653lg9vtl73krp73tm0000gn/T//ccjnlM3Z.s 			page 51


 986 000a 04F11006 		add	r6, r4, #16
 987 000e 3046     		mov	r0, r6
 988              		.loc 1 267 0
 989 0010 0F46     		mov	r7, r1
 990              		.loc 1 275 0
 991 0012 FFF7FEFF 		bl	chMtxLock
 992              	.LVL45:
 993              		.loc 1 279 0
 994 0016 A368     		ldr	r3, [r4, #8]
 995 0018 6BB1     		cbz	r3, .L57
 996              		.loc 1 276 0
 997 001a 0022     		movs	r2, #0
 998              		.loc 1 277 0
 999 001c 1446     		mov	r4, r2
 1000              	.LVL46:
 1001              	.L54:
 1002              		.loc 1 279 0
 1003 001e 28CB     		ldmia	r3, {r3, r5}
 1004              		.loc 1 281 0
 1005 0020 0134     		adds	r4, r4, #1
 1006              	.LVL47:
 1007              		.loc 1 280 0
 1008 0022 2A44     		add	r2, r2, r5
 1009              	.LVL48:
 1010              		.loc 1 279 0
 1011 0024 002B     		cmp	r3, #0
 1012 0026 FAD1     		bne	.L54
 1013              	.LVL49:
 1014              	.L53:
 1015              		.loc 1 284 0
 1016 0028 07B1     		cbz	r7, .L55
 1017              		.loc 1 285 0
 1018 002a 3A60     		str	r2, [r7]
 1019              	.L55:
 1020              		.loc 1 287 0
 1021 002c 3046     		mov	r0, r6
 1022 002e FFF7FEFF 		bl	chMtxUnlock
 1023              	.LVL50:
 1024              		.loc 1 290 0
 1025 0032 2046     		mov	r0, r4
 1026 0034 F8BD     		pop	{r3, r4, r5, r6, r7, pc}
 1027              	.LVL51:
 1028              	.L57:
 1029              		.loc 1 276 0
 1030 0036 1A46     		mov	r2, r3
 1031              		.loc 1 277 0
 1032 0038 1C46     		mov	r4, r3
 1033              	.LVL52:
 1034 003a F5E7     		b	.L53
 1035              	.L65:
 1036              		.align	2
 1037              	.L64:
 1038 003c 00000000 		.word	.LANCHOR0
 1039              		.cfi_endproc
 1040              	.LFE233:
 1041              		.size	chHeapStatus, .-chHeapStatus
 1042              		.section	.rodata.__func__.6564,"a",%progbits
ARM GAS  /var/folders/c6/c789hm653lg9vtl73krp73tm0000gn/T//ccjnlM3Z.s 			page 52


 1043              		.align	2
 1044              		.set	.LANCHOR1,. + 0
 1045              		.type	__func__.6564, %object
 1046              		.size	__func__.6564, 17
 1047              	__func__.6564:
 1048 0000 63684865 		.ascii	"chHeapObjectInit\000"
 1048      61704F62 
 1048      6A656374 
 1048      496E6974 
 1048      00
 1049 0011 000000   		.section	.rodata.__func__.6581,"a",%progbits
 1050              		.align	2
 1051              		.set	.LANCHOR2,. + 0
 1052              		.type	__func__.6581, %object
 1053              		.size	__func__.6581, 11
 1054              	__func__.6581:
 1055 0000 63684865 		.ascii	"chHeapFree\000"
 1055      61704672 
 1055      656500
 1056 000b 00       		.section	.bss.default_heap,"aw",%nobits
 1057              		.align	3
 1058              		.set	.LANCHOR0,. + 0
 1059              		.type	default_heap, %object
 1060              		.size	default_heap, 32
 1061              	default_heap:
 1062 0000 00000000 		.space	32
 1062      00000000 
 1062      00000000 
 1062      00000000 
 1062      00000000 
 1063              		.text
 1064              	.Letext0:
 1065              		.file 2 "/usr/local/Cellar/gcc-arm-none-eabi/20140805/lib/gcc/arm-none-eabi/4.8.4/include/stddef.h
 1066              		.file 3 "/usr/local/Cellar/gcc-arm-none-eabi/20140805/arm-none-eabi/include/machine/_default_types
 1067              		.file 4 "/usr/local/Cellar/gcc-arm-none-eabi/20140805/arm-none-eabi/include/stdint.h"
 1068              		.file 5 "../../../os/rt/ports/ARMCMx/compilers/GCC/chtypes.h"
 1069              		.file 6 "../../../os/rt/include/chsystypes.h"
 1070              		.file 7 "../../../os/rt/include/chschd.h"
 1071              		.file 8 "../../../os/rt/ports/ARMCMx/chcore.h"
 1072              		.file 9 "../../../os/rt/ports/ARMCMx/chcore_v7m.h"
 1073              		.file 10 "../../../os/rt/include/chdebug.h"
 1074              		.file 11 "../../../os/rt/include/chtm.h"
 1075              		.file 12 "../../../os/rt/include/chstats.h"
 1076              		.file 13 "../../../os/rt/include/chsem.h"
 1077              		.file 14 "../../../os/rt/include/chmtx.h"
 1078              		.file 15 "../../../os/rt/include/chmemcore.h"
 1079              		.file 16 "../../../os/rt/include/chheap.h"
 1080              		.file 17 "../../../os/rt/include/chsys.h"
 1081              		.file 18 "../../../os/ext/CMSIS/include/core_cm4.h"