ARM GAS  /var/folders/c6/c789hm653lg9vtl73krp73tm0000gn/T//ccbA1dPv.s 			page 1


   1              		.syntax unified
   2              		.cpu cortex-m4
   3              		.fpu softvfp
   4              		.eabi_attribute 20, 1
   5              		.eabi_attribute 21, 1
   6              		.eabi_attribute 23, 3
   7              		.eabi_attribute 24, 1
   8              		.eabi_attribute 25, 1
   9              		.eabi_attribute 26, 1
  10              		.eabi_attribute 30, 2
  11              		.eabi_attribute 34, 1
  12              		.eabi_attribute 18, 4
  13              		.thumb
  14              		.file	"chmempools.c"
  15              		.text
  16              	.Ltext0:
  17              		.section	.gnu.lto_.jmpfuncs.cc4c223ba5ed2fc4,"",%progbits
  18 0000 789C6D8E 		.ascii	"x\234m\2161\016\2000\010E\377\007M\215.^\323\201\325"
  18      310E8030 
  18      0845FF07 
  18      4D8D2E5E 
  18      D381D5
  19 0013 C5A13D85 		.ascii	"\305\241=\205\361\254NR\354P\023Y\200\307\313\017\002"
  19      F1AC4E52 
  19      EC501359 
  19      80C7CB0F 
  19      02
  20 0024 C15F9DAD 		.ascii	"\301_\235\255'\200r\340.WY7\302\330\270\246\016\323"
  20      278072E0 
  20      2E575937 
  20      C2D8B8A6 
  20      0ED3
  21 0036 187C6407 		.ascii	"\030|d\007\305\370F\373){\020\021\316\244\337<\015g"
  21      C5F846FB 
  21      297B1011 
  21      CEA4DF3C 
  21      0D67
  22 0048 D6FA87CF 		.ascii	"\326\372\207\317\334\353\272$\251<\346NW\343\020\372"
  22      DCEBBA24 
  22      A93CE64E 
  22      57E310FA 
  23 0058 036DEB16 		.ascii	"\003m\353\026D"
  23      44
  24              		.text
  25              		.section	.gnu.lto_.inline.cc4c223ba5ed2fc4,"",%progbits
  26 0000 789C8D8F 		.ascii	"x\234\215\217=n\0021\020F\277\031\333\273\260l\302\202"
  26      3D6E0231 
  26      1046BF19 
  26      DBBBB06C 
  26      C282
  27 0012 10540889 		.ascii	"\020T\010\211\036\211*u\244\364[s\000\020K\303\031("
  27      1E892A75 
  27      A4F45B73 
  27      00104BC3 
  27      1928
  28 0024 38C01608 		.ascii	"8\300\026\010\350\340\030\210SP DC\3139b\017\353\220"
  28      E8E01888 
ARM GAS  /var/folders/c6/c789hm653lg9vtl73krp73tm0000gn/T//ccbA1dPv.s 			page 2


  28      53502044 
  28      43CB3962 
  28      0FEB90
  29 0037 6213E1C2 		.ascii	"b\023\341\302~\032\317\317\033\006\243\354\\\350\361"
  29      7E1ACFCF 
  29      1B06A3EC 
  29      5CE8F1
  30 0046 8640D227 		.ascii	"\206@\322'p\363\274$\004\373\236ds\015 PdQ.\2058\241"
  30      70F3BC24 
  30      04FB9E64 
  30      730D2050 
  30      64512E85 
  31 005c 00D311CD 		.ascii	"\000\323\021\315H\273\204\314\023\215\035\031ei\342"
  31      48BB84CC 
  31      138D1D19 
  31      6569E2
  32 006b 09AE35B9 		.ascii	"\011\2565\271K\253C\007\325\353\007C\357{\237\320yw"
  32      4BAB4307 
  32      D5EB0743 
  32      EF7B9FD0 
  32      7977
  33 007d 41956240 		.ascii	"A\225b@\313\246\031\264;\244\312\372J\017\365\276\376"
  33      CBA619B4 
  33      3BA4CAFA 
  33      4A0FF5BE 
  33      FE
  34 008e 42B41D4A 		.ascii	"B\264\035JyR\324iof\0326+OCD\003\353\317\247\372\217"
  34      7952D469 
  34      6F661A36 
  34      2B4F4344 
  34      03EBCFA7 
  35 00a4 FEC33996 		.ascii	"\376\3039\226\357\347\022\025\274\265\377XBb\201\243"
  35      EFE71215 
  35      BCB5FF58 
  35      426281A3 
  36 00b4 CCD3EB4B 		.ascii	"\314\323\353KH\363\350\037\013\316\323\337\03654\216"
  36      48F3E81F 
  36      0BCED3DF 
  36      1E35348E 
  37 00c4 542EC212 		.ascii	"T.\302\0223\2162O\"\302\"R\335\334\015\302\335\334\233"
  37      338E324F 
  37      22C22252 
  37      DDDC0DC2 
  37      DDDC9B
  38 00d7 ACBC898A 		.ascii	"\254\274\211\212\355\354[\230\247\205\022\276\001/\210"
  38      EDEC5B98 
  38      A78512BE 
  38      012F88
  39 00e6 2F78     		.ascii	"/x"
  40              		.text
  41              		.section	.gnu.lto_.pureconst.cc4c223ba5ed2fc4,"",%progbits
  42 0000 789C6362 		.ascii	"x\234cb`b\340g\200\000v\006+f)V)v+\016).+nI\000\013"
  42      6062E067 
  42      80007606 
  42      2B662956 
  42      29762B0E 
  43 001b 1A015C   		.ascii	"\032\001\\"
ARM GAS  /var/folders/c6/c789hm653lg9vtl73krp73tm0000gn/T//ccbA1dPv.s 			page 3


  44              		.text
  45              		.section	.gnu.lto_chSysUnlock.cc4c223ba5ed2fc4,"",%progbits
  46 0000 789C9553 		.ascii	"x\234\225SMh\023A\024~ov'\273\266i\033=\211B\015\005"
  46      4D681341 
  46      147E6F76 
  46      27BBB669 
  46      1B3D8942 
  47 0016 0FDA90F5 		.ascii	"\017\332\220\365\346U-\010\212\2714-\250\027I\327\305"
  47      E6552D08 
  47      8AB9342D 
  47      A81749D7 
  47      C5
  48 0027 2E749BB2 		.ascii	".t\233\262IJ\213\207Nb\016\202\036\202\"jT\260'A\301"
  48      494A8B87 
  48      4E620E82 
  48      1E82226A 
  48      54B02741 
  49 003c 82070FE2 		.ascii	"\202\007\017\342!\240HE\255x\021\355Ar\351A\355\305"
  49      21A04845 
  49      AD7811ED 
  49      4172E941 
  49      EDC5
  50 004e 43FD4388 		.ascii	"C\375C\210o\366'\177\346\342\220\2747\273\363}\337|"
  50      6FF6277F 
  50      E6E290BC 
  50      37BBF37D 
  50      DF7C
  51 0060 6FE62D03 		.ascii	"o\346-\003\006\335\343\010\375\217+\000U\312\030\001"
  51      06DDE308 
  51      FD8F2B00 
  51      55CA1801 
  52 0070 64953580 		.ascii	"d\2255\200\242\316\230R}\001 \372\370w\015DTa\352\223"
  52      A2CE9852 
  52      7D0120FA 
  52      F8770D44 
  52      5461EA93 
  53 0084 61F9F4DE 		.ascii	"a\371\364\336\240'\025\271\217\342\210r\002\010KLQ9"
  53      A02715B9 
  53      8FE28872 
  53      02084B4C 
  53      5139
  54 0096 2E9D42A9 		.ascii	".\235B\251\211\016\302\012\253\325\033\215\207\267\257"
  54      890EC20A 
  54      ABD51B8D 
  54      87B7AF
  55 00a5 DF7B8D9F 		.ascii	"\337{\215\237X\224\203\215\020\221A\243\200\272\014"
  55      5894838D 
  55      109141A3 
  55      80BA0C
  56 00b4 84E45016 		.ascii	"\204\344P\026\242\022w\344\334\364\270\023\024\245\346"
  56      A21277E4 
  56      DCF4B813 
  56      14A5E6
  57 00c3 24329995 		.ascii	"$2\231\225\267p\241\376\341R\177\006\227\221\323\362"
  57      B770A1FE 
  57      E1527F06 
  57      9791D3F2 
ARM GAS  /var/folders/c6/c789hm653lg9vtl73krp73tm0000gn/T//ccbA1dPv.s 			page 4


  58 00d3 79F82D2E 		.ascii	"y\370-.\212\230\215\314\364\004\200\204\310\275D}\374"
  58      8A988DCC 
  58      F4048084 
  58      C8BD447D 
  58      FC
  59 00e4 3AD40BC5 		.ascii	":\324\013\305Z\2507PZ\377\371c\227\217:\207|\024\366"
  59      5AA83750 
  59      5AFFF963 
  59      978F3A87 
  59      7C14F6
  60 00f7 93212FAA 		.ascii	"\223!/\252^\344\267\240Z\024\222\030iJh\216\267\321"
  60      5EE4B7A0 
  60      5A149218 
  60      694A688E 
  60      B7D1
  61 0109 49A4A927 		.ascii	"I\244\251'5\345\357K\031\203\034\236\352*\2247\261\251"
  61      35E5EF4B 
  61      19831C9E 
  61      EA2A9437 
  61      B1A9
  62 011b 2E15741B 		.ascii	".\025t\033\365v}\322\352\246w\214I\262I\347\256\220"
  62      F5767DD2 
  62      EAA6778C 
  62      49B249E7 
  62      AE90
  63 012d D3D3A150 		.ascii	"\323\323\241P\244\315\346\177\032T\002\331v9\315\023"
  63      A4CDE67F 
  63      1A5402D9 
  63      7639CD13 
  64 013d DA464244 		.ascii	"\332FBD\350#yI\014\011j\017\202\336E\340\275\010\253"
  64      E8237949 
  64      0C096A0F 
  64      82DE45E0 
  64      BD08AB
  65 0150 F07CA359 		.ascii	"\360|\243Y\272F\244\366\232TX\331M\027\251\376s=\375"
  65      BA46A4F6 
  65      9A5458D9 
  65      4D17A9FE 
  65      733DFD
  66 0163 666051BE 		.ascii	"f`Q\276\331ic\224\032!\000\3318\020\322\271\327\010"
  66      D9696394 
  66      1A2100D9 
  66      3810D2B9 
  66      D708
  67 0175 2FA144A2 		.ascii	"/\241D\242#\260,\304\225\372\265\317O\0237E\255|W\374"
  67      23B02CC4 
  67      95FAB5CF 
  67      4F133745 
  67      AD7C57FC 
  68 0189 693490FC 		.ascii	"i4\220\374\01428\201\262\205\244\271\241\270\227b*t"
  68      0C323881 
  68      B285A4B9 
  68      A1B89762 
  68      2A74
  69 019b 0CF96E50 		.ascii	"\014\371nPN\326\240\364\355\376\263G\227\225\240\375"
  69      4ED6A0F4 
  69      EDFEB347 
ARM GAS  /var/folders/c6/c789hm653lg9vtl73krp73tm0000gn/T//ccbA1dPv.s 			page 5


  69      9795A0FD 
  70 01ab C23EAC3D 		.ascii	"\302>\254=\370\362+\3062\370\030G\232\275Y{\265\265"
  70      F8F22BC6 
  70      32F81847 
  70      9ABD597B 
  70      B5B5
  71 01bd 411E7D57 		.ascii	"A\036}W&\225bz%P\313S\323+\362\203R\374\257j\030*xG"
  71      2695627A 
  71      2550CB53 
  71      D32BF283 
  71      52FCAF6A 
  72 01d5 DC3864E3 		.ascii	"\3348d\343\366\216\315Z\353W\203\365\035\276\235wP\254"
  72      F68ECD5A 
  72      EB5783F5 
  72      1DBE9D77 
  72      50AC
  73 01e7 6F8E8667 		.ascii	"o\216\206g\342\217\011\272J*V\022\366$\223\206\377\313"
  73      E28F09BA 
  73      4A2A5612 
  73      F6249386 
  73      FFCB
  74 01f9 E60C376F 		.ascii	"\346\0147o\330\263\346L\341\254e\230\323\271\305\\r"
  74      D8B3E64C 
  74      E1AC6598 
  74      D3B9C55C 
  74      72
  75 020a 1AF675AD 		.ascii	"\032\366u\255\317e\335|\3168<\236\032K-\020\310\314"
  75      CF65DD7C 
  75      CE383C9E 
  75      1A4B2D10 
  75      C8CC
  76 021c BAD699F9 		.ascii	"\272\326\231\371\203\016!\371|f\246`%\332\361\326B\336"
  76      830E21F9 
  76      7C66A660 
  76      25DAF1D6 
  76      42DE
  77 022e 184BA58F 		.ascii	"\030K\245\217\245[\262\022o:G\013\263&Qb\251\364x|*"
  77      A55BB212 
  77      6F3A470B 
  77      B3265162 
  77      A9F4787C 
  78 0243 93B3E65C 		.ascii	"\223\263\346\\;\021\337{\000\230\013\232c9Yw\021\376"
  78      3B11DF7B 
  78      00980B9A 
  78      63395977 
  78      11FE
  79 0255 022699DD 		.ascii	"\002&\231\335U"
  79      55
  80              		.text
  81              		.section	.gnu.lto_chPoolObjectInit.cc4c223ba5ed2fc4,"",%progbits
  82 0000 789C6D8F 		.ascii	"x\234m\217\277KBQ\024\307\277\347\334wM\254\241\261"
  82      BF4B4251 
  82      14C7BFE7 
  82      DC774DAC 
  82      A1B1
  83 0012 2924C7C0 		.ascii	")$\307\300G\377B\177\203B\215\365\010{\320\343\205\266"
  83      47FF427F 
ARM GAS  /var/folders/c6/c789hm653lg9vtl73krp73tm0000gn/T//ccbA1dPv.s 			page 6


  83      83428DF5 
  83      087BD0E3 
  83      85B6
  84 0024 35780D89 		.ascii	"5x\015\211F\307\250\245V\241\332B\250A!B\210\222\240"
  84      46C7A8A5 
  84      56A1DA42 
  84      A8412142 
  84      8892A0
  85 0037 219A9C12 		.ascii	"!\232\234\022\234\034\245\305\316\365\275\012\315\303"
  85      9C1CA5C5 
  85      CEF5BD0A 
  85      CDC3
  86 0045 BDE7DC7B 		.ascii	"\275\347\334{\370~\316\017\006c\332\326\345^\021\260"
  86      F87ECE0F 
  86      0663DAD6 
  86      E55E11B0 
  87 0055 22911220 		.ascii	"\"\221\022 \256\275\000\225$\263s\241aRj\320\006\314"
  87      AEBD0095 
  87      24B373A1 
  87      61526AD0 
  87      06CC
  88 0067 8262E7CD 		.ascii	"\202b\347\315\225\257\276_\226\237C:Ri\"\373\000\241"
  88      95AFBE5F 
  88      969F433A 
  88      526922FB 
  88      00A1
  89 0079 CCCAD154 		.ascii	"\314\312\321T\336$[\223\002\302\0157\273\243\321\365"
  89      DE245B93 
  89      02C20D37 
  89      BBA3D1F5 
  90 0089 ED71A745 		.ascii	"\355q\247E\365L\212%GJ\034'\305)\021iT\215\251\245\003"
  90      F54C8A25 
  90      474A1C27 
  90      C5291169 
  90      548DA9A5 
  91 009e 4B78632C 		.ascii	"Kxc,'\336\226\313\023\333\250\332x\350\265\356\036i"
  91      27DE96CB 
  91      13DBA8DA 
  91      78E8B5EE 
  91      1E69
  92 00b0 8B2E49A3 		.ascii	"\213.I\243@\274A>M\014\237\227J2\240(\253\237\2772e"
  92      40BC413E 
  92      4D0C9F97 
  92      4A32A028 
  92      AB9FBF32 
  93 00c5 65E3167F 		.ascii	"e\343\026\1772\007\037k\252\003'\322\000\207\3702'f"
  93      32071F6B 
  93      AA0327D2 
  93      0087F832 
  93      2766
  94 00d7 D127F628 		.ascii	"\321'\366(*i3K>)\231'\026\371B\305\270\036\317\363\214"
  94      2A69334B 
  94      3E299927 
  94      16F942C5 
  94      B81ECFF3 
  95 00ec A3C6B037 		.ascii	"\243\306\2607\214\033\255\242n\304\346}\322\3478\223"
  95      8C1BADA2 
ARM GAS  /var/folders/c6/c789hm653lg9vtl73krp73tm0000gn/T//ccbA1dPv.s 			page 7


  95      6EC4E67D 
  95      D2E73893 
  96 00fc 96898909 		.ascii	"\226\211\211\011\267\343h3\266#\204~:\355\017x\232\246"
  96      B7E36833 
  96      B623847E 
  96      3AED0F78 
  96      9AA6
  97 010e D974F428 		.ascii	"\331t\364(\330=,\331\350\277\377#\347f\223\034\223I"
  97      D83D2CD9 
  97      E8BFFF23 
  97      E766931C 
  97      9349
  98 0120 E015956E 		.ascii	"\340\025\225n=\363\263td9)-\333XU:\233u\243\023\226"
  98      3DF3B374 
  98      6439292D 
  98      DB58553A 
  98      9B75A313 
  99 0135 DCE2815B 		.ascii	"\334\342\201[*z\256\267\033\354\004\373a\270W\312z\370"
  99      2A7AAEB7 
  99      1BEC04FB 
  99      61B857CA 
  99      7AF8
 100 0147 064F6D70 		.ascii	"\006Omp\014"
 100      0C
 101              		.text
 102              		.section	.gnu.lto_chPoolAllocI.cc4c223ba5ed2fc4,"",%progbits
 103 0000 789C8552 		.ascii	"x\234\205R\277k\024A\024~of\177\335\217\334\035V\301"
 103      BF6B1441 
 103      147E6F66 
 103      7FDD8FDC 
 103      1D56C1
 104 0013 EA888560 		.ascii	"\352\210\205`\340\256\024\213\024\376\017\006\2643Y"
 104      E0AE148B 
 104      14FE0F06 
 104      B43359
 105 0022 8ECB8ACB 		.ascii	"\216\313\212\313\205\234\235H\346\342\025\"\026\321"
 105      859C9D48 
 105      E6E21522 
 105      16D1
 106 0030 2A31042F 		.ascii	"*1\004/\01166ZZ\010\331\200\340\005\324\220\316X\035"
 106      0936365A 
 106      5A08D980 
 106      E005D490 
 106      CE581D
 107 0043 5AD8A430 		.ascii	"Z\330\2440\004\301_\270\2767\273\263\270Fp\330\235\331"
 107      04C15FB8 
 107      BE37BBB3 
 107      B84670D8 
 107      9DD9
 108 0055 F9F6BDEF 		.ascii	"\371\366\275\357\373\336\233\021 \340\357\321\242\367"
 108      FBDE9B11 
 108      20E0EFD1 
 108      A2F7
 109 0063 A204384B 		.ascii	"\242\0048K+\026\000\305\362[\200\236'\204\034\330\240"
 109      2B1600C5 
 109      F25B809E 
 109      27841CD8 
ARM GAS  /var/folders/c6/c789hm653lg9vtl73krp73tm0000gn/T//ccbA1dPv.s 			page 8


 109      A0
 110 0074 8AD6E721 		.ascii	"\212\326\347!\200*K\264\022\334\022\366\372\024\341"
 110      802A4BB4 
 110      12DC12F6 
 110      FA14E1
 111 0083 CE718D60 		.ascii	"\316q\215`\033\275\004v\204\273\306\260\367\205a\327"
 111      1BBD0476 
 111      84BBC6B0 
 111      F78561D7 
 112 0093 C01E227F 		.ascii	"\300\036\"\177\000\302\242\220\226\355\270\036.^A\226"
 112      00C2A290 
 112      96EDB81E 
 112      2E5E4196 
 113 00a3 1513B0A1 		.ascii	"\025\023\260\241\324\203\321\343_C\\UQ\177\240~\306"
 113      D483D1E3 
 113      5F435C55 
 113      517FA07E 
 113      C6
 114 00b4 31628064 		.ascii	"1b\200d\361\014\202\217p\2316X\327\213\260\362\236C"
 114      F10C828F 
 114      70993658 
 114      D78BB0F2 
 114      9E43
 115 00c6 84A7221A 		.ascii	"\204\247\"\032\305\361\275\355\027\037V\361T\025a\006"
 115      C5F1BDED 
 115      171F56F1 
 115      54156106 
 116 00d6 3770021C 		.ascii	"7p\002\034\014\021\275tS\200\000e\211&\253L\223]Ia\032"
 116      0C11BD74 
 116      53800065 
 116      8926AB4C 
 116      935D4961 
 117 00eb 36F4955A 		.ascii	"6\364\225Z\256'\373\220\375\370\332\324%\232\331\357"
 117      AE27FB90 
 117      FDF8DAD4 
 117      259AD9EF 
 118 00fb 340A5EE5 		.ascii	"4\012^\345\036\334\036\375\370X\234\301-\264\351\367"
 118      1EDC1EFD 
 118      F8589CC1 
 118      2DB4E9F7 
 119 010b 4DF8AEEE 		.ascii	"M\370\256\356\250Z\200\216\217:\236h]\200!\274\374\264"
 119      A85A808E 
 119      8F3A9E68 
 119      5D8021BC 
 119      FCB4
 120 011d F3ED1526 		.ascii	"\363\355\025&amt\330\262\367\247\337i\2240\260\211\316"
 120      616D74D8 
 120      B2F7A7DF 
 120      699430B0 
 120      89CE
 121 012f 3A4155F0 		.ascii	":AU\36019\023F\306\003,\206\\\213\016\012\260d\322-"
 121      31391346 
 121      C6032C86 
 121      5C8B0E0A 
 121      B064D22D 
 122 0143 6DE70D2C 		.ascii	"m\347\015,\275\177\027G\231\2207\011O\024\215\013T\347"
 122      BD7F1747 
ARM GAS  /var/folders/c6/c789hm653lg9vtl73krp73tm0000gn/T//ccbA1dPv.s 			page 9


 122      99903709 
 122      4F148D0B 
 122      54E7
 123 0155 1A3C24D5 		.ascii	"\032<$\325rN}\026\215\201]X\212\306\223\264\244\350"
 123      724E7D16 
 123      8D815D58 
 123      8AC693B4 
 123      A4E8
 124 0167 36870CA1 		.ascii	"6\207\014\241\177\270s\377\256\314\3708\025\362\306"
 124      7FB873FF 
 124      AECCF838 
 124      15F2C6
 125 0176 6D589FD2 		.ascii	"mX\237\322\302\3177\217\262\300\302$\234\3134\307\322"
 125      C2CF378F 
 125      B2C0C224 
 125      9CCB34C7 
 125      D2
 126 0187 44996A1A 		.ascii	"D\231j\032\006J\332}\226\366.5Z\375\217Qb6\272\016\034"
 126      064ADA7D 
 126      96F62E35 
 126      5AFD8F51 
 126      6236BA0E 
 127 019c D7B4EED7 		.ascii	"\327\264\356\327\315\243\254\340\222\326\255\374\233"
 127      CDA3ACE0 
 127      92D6ADFC 
 127      9B
 128 01a9 C25C6DAE 		.ascii	"\302\\m\256\252w>K\341\220J\276&\027\036\215i\356\225"
 128      AA773E4B 
 128      E1904ABE 
 128      26171E8D 
 128      69EE95
 129 01bc AD83ACA6 		.ascii	"\255\203\254\246\262\346\256\022w\217\234\336:\311/"
 129      B2E6AE12 
 129      778F9CDE 
 129      3AC92F
 130 01cb D3FC3DE8 		.ascii	"\323\374=\350G\247MV\245\315\207D\331\001\326\270\315"
 130      47A74D56 
 130      A5CD8744 
 130      D901D6B8 
 130      CD
 131 01dc 22DFE48A 		.ascii	"\"\337\344\212\221\364\364\001\3221\020\233\371IE\357"
 131      91F4F401 
 131      D231109B 
 131      F94945EF 
 132 01ec 436FB4D2 		.ascii	"Co\264\3222d\272\013\007\200\324P\373p\373*-\016s\270"
 132      3264BA0B 
 132      0780D450 
 132      FB70FB2A 
 132      2D0E73B8 
 133 0200 AFF7E7F8 		.ascii	"\257\367\347\370n\"sp\225\365F\243\231<\235ns\341F\263"
 133      6E227370 
 133      95F546A3 
 133      993C9D6E 
 133      73E146B3 
 134 0214 BBE037FD 		.ascii	"\273\3407\375\271\260\025\316w:\327\273\015\037\254"
 134      B9B015CE 
 134      773AD7BB 
ARM GAS  /var/folders/c6/c789hm653lg9vtl73krp73tm0000gn/T//ccbA1dPv.s 			page 10


 134      0D1FAC
 135 0223 CEECB5F9 		.ascii	"\316\354\265\371\337\014\215\310\372"
 135      DF0C8DC8 
 135      FA
 136              		.text
 137              		.section	.gnu.lto_chPoolAlloc.cc4c223ba5ed2fc4,"",%progbits
 138 0000 789C8551 		.ascii	"x\234\205QAK\033A\024~o6kR{\011\275\025\212.-=\024B"
 138      414B1B41 
 138      147E6F36 
 138      6B527B09 
 138      BD158A2E 
 139 0018 B637AF16 		.ascii	"\2667\257\026\241\340!\036\022\205\366\324\256\323%"
 139      A1E0211E 
 139      1285F6D4 
 139      AED325
 140 0027 D99275C3 		.ascii	"\331\222u\303n\"\206\036\034m\016-(\210x\320\203Pi="
 140      6E22861E 
 140      1C6D0E2D 
 140      288878D0 
 140      8350693D 
 141 003b B43D94F6 		.ascii	"\264=\224\366PmQ\011-\036\202\240\364Pz\361\020\352"
 141      506D5109 
 141      2D1E82A0 
 141      F4507AF1 
 141      10EA
 142 004d 0F50AF52 		.ascii	"\017P\257RH\337\316\304\255\011\005\207\335}o\276\367"
 142      48DFCEC4 
 142      AD090587 
 142      DD7D6FBE 
 142      F7
 143 005e EDFBBE79 		.ascii	"\355\373\276y\303\200A\367\272N\357\010\301u\212\250"
 143      C38041F7 
 143      BA4EEF08 
 143      C1758AA8 
 144 006e 01B2857D 		.ascii	"\001\262\205}\200\231\004C\014\023@\230f8\375\020C*"
 144      80990443 
 144      0C134098 
 144      6638FD10 
 144      432A
 145 0080 DE843521 		.ascii	"\336\2045!\026\233\273\357\033\270\"\352\265W\342O\253"
 145      169BBBEF 
 145      1BB822EA 
 145      B557E24F 
 145      AB
 146 0091 85E820B5 		.ascii	"\205\350 \265\275\205\300\021\036\320\006\015\031X\254"
 146      BD85C011 
 146      1ED0060D 
 146      1958AC
 147 00a0 53E703AB 		.ascii	"S\347\003\2537[\255\303\237\233\277\267\361Z\257\206"
 147      375BADC3 
 147      9F9BBFB7 
 147      F15AAF86 
 148 00b0 2E820E16 		.ascii	".\202\016\026\256QSZ:\324\204X0\316\367\\\352\215\322"
 148      AE51535A 
 148      3AD48458 
 148      30CEF75C 
 148      EA8DD2
ARM GAS  /var/folders/c6/c789hm653lg9vtl73krp73tm0000gn/T//ccbA1dPv.s 			page 11


 149 00c3 37343186 		.ascii	"741\206,\214Z\003f\023\000m\023\037O7R\035&4\006\331"
 149      2C8C5A03 
 149      6613006D 
 149      131F4F37 
 149      521D2634 
 150 00d9 CB4C8498 		.ascii	"\313L\204\230fP\262\017\263\247\233\337?\315im\341s"
 150      6650B20F 
 150      B3A79BDF 
 150      3FCD696D 
 150      E173
 151 00eb 07F5A3B3 		.ascii	"\007\365\243\263\343$\263\360\215\264\321\3066\226\266"
 151      E324B3F0 
 151      8DB4D1C6 
 151      3696B6
 152 00fa AEDE883C 		.ascii	"\256\336\210<F\360\313C\032\233\205\257Q'Ui\230\223"
 152      46F0CB43 
 152      1A9B85AF 
 152      51275569 
 152      9893
 153 010c 514E4394 		.ascii	"QNC\224sCX\247\224(\232\232z\037|\306U\261<\350`\254"
 153      734358A7 
 153      94289A9A 
 153      7A1F7CC6 
 153      55B13CE8 
 154 0122 C3CABFFA 		.ascii	"\303\312\277\372\227v]Wf\017\340\371\311\374\372\361"
 154      97765D57 
 154      660FE0F9 
 154      C9FCFAF1 
 155 0132 B798856F 		.ascii	"\267\230\205o%\366\014\316\304\013\221t\260\207#\201"
 155      25F60CCE 
 155      C40B9174 
 155      B0872381 
 156 0142 EF14D1C1 		.ascii	"\357\024\321\301\270\3446w\366z\377\307\324\273\231"
 156      B8E43677 
 156      F67AFFC7 
 156      D4BB99
 157 0151 B593C55F 		.ascii	"\265\223\305_\217\225\357<\352\0215\301\261G\352\346"
 157      8F95EF3C 
 157      EA1135C1 
 157      B147EAE6 
 158 0161 5173F00A 		.ascii	"Qs\360\012@\003\230b\251[\311\207MB\235\257\273q\205"
 158      40039862 
 158      A95BC987 
 158      4D429DAF 
 158      BB7185
 159 0174 77EAC421 		.ascii	"w\352\304!\322\370\0013\315-;\222P\307\031\245\031\321"
 159      D2F80133 
 159      CD2D3B92 
 159      50C719A5 
 159      19D1
 160 0186 2D866735 		.ascii	"-\206g5\322iS=^`\372e3\360\271\311\013\256\355\226<"
 160      D269533D 
 160      5E60FA65 
 160      33F0B9C9 
 160      0BAEED96 
 161 019b AF18A439 		.ascii	"\257\030\2449\304\274\361\247\245;]\254\222\347\227"
 161      C4BCF1A7 
ARM GAS  /var/folders/c6/c789hm653lg9vtl73krp73tm0000gn/T//ccbA1dPv.s 			page 12


 161      A53B5DAC 
 161      92E797
 162 01aa 03F35E36 		.ascii	"\003\363^63\224\231\":\367|\373\321\344\200\233.\200"
 162      33949922 
 162      3AF77CFB 
 162      D1E4809B 
 162      2E80
 163 01bc 3E69152B 		.ascii	">i\025+v\352\"\337\236*\233C\231\334p\316t&x\261\362"
 163      76EA22DF 
 163      9E2A9B43 
 163      99DC70CE 
 163      742678B1 
 164 01d1 C436259F 		.ascii	"\3046%\237\273\367+\023\234~\351\357j\036\261\012A5"
 164      BBF72B13 
 164      9C7EE9EF 
 164      6A1EB10A 
 164      4135
 165 01e3 A07A3293 		.ascii	"\240z2\223\313\032\343V`\227|'e\334\276\013\314\207"
 165      CB1AE356 
 165      60977C27 
 165      65DCBE0B 
 165      CC87
 166 01f5 3839F4FC 		.ascii	"89\364\374*\374\005\247\037\310p"
 166      2AFC05A7 
 166      1FC870
 167              		.text
 168              		.section	.gnu.lto_chPoolFreeI.cc4c223ba5ed2fc4,"",%progbits
 169 0000 789C8551 		.ascii	"x\234\205Q1/CQ\024\376\316\271\357j\265$\026\302\326"
 169      312F4351 
 169      14FECEB9 
 169      EF6AB524 
 169      16C2D6
 170 0013 100692F6 		.ascii	"\020\006\222\366\027X\374\206J\030y\021m\242i\2436C"
 170      1758FC86 
 170      4A187911 
 170      6DA269A3 
 170      3643
 171 0025 AF32181B 		.ascii	"\2572\030\033\213\204H\312h`\021\241\221\250\304\240"
 171      8B8448CA 
 171      686011A1 
 171      91A8C4A0 
 172 0035 69686C62 		.ascii	"ihlb\220\032\304`\221\230\030\324\271\357\265\242\014"
 172      901AC460 
 172      919818D4 
 172      B9EFB5A2 
 172      0C
 173 0046 4EDEBBE7 		.ascii	"N\336\273\347\236\223\357\234\357|\3472\030\277mB\376"
 173      9E93EF9C 
 173      EF7CE732 
 173      18BF6D42 
 173      FE
 174 0057 3E498F88 		.ascii	">I\217\210\247\016\020\027n\200\225 \263S\3240!\365"
 174      A70E1017 
 174      6E809520 
 174      B353D430 
 174      21F5
 175 0069 7A05982E 		.ascii	"z\005\230.\305\316[\217\204zg\\\"\207\264\217\322D\366"
ARM GAS  /var/folders/c6/c789hm653lg9vtl73krp73tm0000gn/T//ccbA1dPv.s 			page 13


 175      C5CE5B8F 
 175      847A675C 
 175      2287B48F 
 175      D244F6
 176 007c 02428E95 		.ascii	"\002B\216\225\243)7M\266'\245\010\207\\\2567\032\007"
 176      A329374D 
 176      B627A508 
 176      875CAE37 
 176      1A07
 177 008e C7D5A333 		.ascii	"\307\325\2433:\340\020K\216\264\034\034@\322\003i\254"
 177      3AE0104B 
 177      8EB41C1C 
 177      40D20369 
 177      AC
 178 009f 1953880C 		.ascii	"\031S\210\014b\327\230\215\362ius\300\024\363\005\363"
 178      62D7988D 
 178      F2697573 
 178      C014F305 
 178      F3
 179 00b0 D9689000 		.ascii	"\331h\220\000\030C\004\2270%\001E<\307N\373\344)\333"
 179      18430497 
 179      30250145 
 179      3CC74EFB 
 179      E429DB
 180 00c3 C6F57AC5 		.ascii	"\306\365z\305\345\264\203L\022[\257*\340\031\332%\215"
 180      E5B4834C 
 180      125BAF2A 
 180      E019DA25 
 180      8D
 181 00d4 19DAA341 		.ascii	"\031\332\243A\314K\0325\254\326\037\236B~\036X\306\207"
 181      CC4B1A35 
 181      ACD61F9E 
 181      427E1E58 
 181      C687
 182 00e6 59373D49 		.ascii	"Y7=IR.y=d,!\270\302\345\363\305y\225|\330<i\313\254"
 182      522E793D 
 182      642C21B8 
 182      C2E5F3C5 
 182      79957CD8 
 183 00fe 7FD24E92 		.ascii	"\177\322N\222\202,EY\3447\214-\254\243\035\346 \337"
 183      822C4559 
 183      E4378C2D 
 183      ACA31DE6 
 183      20DF
 184 0110 AB6A70FE 		.ascii	"\253jp\3760\006\\\362\337\301f\372\223\024\024%MP\222"
 184      30065CF2 
 184      DFC166FA 
 184      93141425 
 184      4D5092
 185 0123 3A5BE5DA 		.ascii	":[\345\332Sr\215\374\375I\351\221[D\2011\214\312z\266"
 185      53728DFC 
 185      FD49E991 
 185      5B448131 
 185      8CCA7AB6 
 186 0137 B12584A1 		.ascii	"\261%\204\241\266\371f\251\305-E\225BS\351\030\366\215"
 186      B6F966A9 
 186      C52D4595 
ARM GAS  /var/folders/c6/c789hm653lg9vtl73krp73tm0000gn/T//ccbA1dPv.s 			page 14


 186      4253E918 
 186      F68D
 187 0149 58F77751 		.ascii	"X\367wQ\2709-\232E\376E:\373uw\245wj\253\014\377C\347"
 187      B8392D9A 
 187      45FE453A 
 187      FB7577A5 
 187      776AAB0C 
 188 0160 2DF7162B 		.ascii	"-\367\026+\365\227\341\226R\337\342\322Z$X\251\221h"
 188      F597E196 
 188      52DFE2D2 
 188      5A2458A9 
 188      9168
 189 0172 34E67FE9 		.ascii	"4\346\177\351llq)\226]tcn\"5\227\312\244\323\013\331"
 189      6C6C7129 
 189      965D7463 
 189      6E223597 
 189      CAA4D30B 
 190 0187 A80B9549 		.ascii	"\250\013\225Id\276\000T\351\206F"
 190      64BE0054 
 190      E98646
 191              		.text
 192              		.section	.gnu.lto_chPoolFree.cc4c223ba5ed2fc4,"",%progbits
 193 0000 789C6D91 		.ascii	"x\234m\221Ak\023Q\020\307\377\3636kB\275\344*\210.\005"
 193      416B1351 
 193      10C7FFF3 
 193      366B42BD 
 193      E42A882E 
 194 0015 112164BD 		.ascii	"\021!d\275yU\012\202\207\2754\025\332\223\254\317\245"
 194      79550A82 
 194      87BD3415 
 194      DA93ACCF 
 194      A5
 195 0026 59C876C3 		.ascii	"Y\310v\303nRR<\364\265V\350AK)\202\355AH\025Q\020,J"
 195      6E52523C 
 195      F4B556E8 
 195      414B2982 
 195      ED414815 
 196 003e 41419150 		.ascii	"AA\221P\361P\204\212\337 \037@hs\361P\2048\3736\256"
 196      F150848A 
 196      DF201F40 
 196      6873F150 
 196      8438FB36 
 197 0053 3176D87D 		.ascii	"1v\330}3;\363{\363\376oV@`\324\316\360\373\223\200\017"
 197      333BF37B 
 197      F3FE6F56 
 197      4060D4CE 
 197      F0FB9380 
 198 0068 ECC90089 		.ascii	"\354\311\000\211\365\003`\251 \210\222\000\204EA\213"
 198      F50360A9 
 198      20889200 
 198      8445418B 
 199 0078 33A4D91D 		.ascii	"3\244\331\035\321\351\366\373\2577\326v\177\320{1fP"
 199      D1E9F6FB 
 199      AF37D676 
 199      7FD07B31 
 199      6650
 200 008a 40C8F192 		.ascii	"@\310\361\222TM\254(\265n\001R\263S\274&\015n\222H\274"
ARM GAS  /var/folders/c6/c789hm653lg9vtl73krp73tm0000gn/T//ccbA1dPv.s 			page 15


 200      544DAC28 
 200      B56E0152 
 200      B353BC26 
 200      0D6E9248 
 201 009f B18FE502 		.ascii	"\261\217\345\0020\216m\2456\272\217{\357J[\252\263\322"
 201      308E6DA5 
 201      36BA8F7B 
 201      EF4A5BAA 
 201      B3D2
 202 00b1 56BFFA7D 		.ascii	"V\277\372}\"\237X\227C\311\316i\376 K;\221\373Wh\222"
 202      229F5897 
 202      43C9CE69 
 202      FE204B3B 
 202      91FB5768 
 203 00c6 03F7C701 		.ascii	"\003\367\307\001\226{\257>\277}`dG\246Ag\347\370\260"
 203      967BAF3E 
 203      BF7D6064 
 203      47A64167 
 203      E7F8B0
 204 00d9 285C7A4A 		.ascii	"(\\zJ\343\231\236\316\263G\037O\237\035R7H\357\1771"
 204      E3999ECE 
 204      B3471F4F 
 204      9F1D5237 
 204      48EF7F31 
 205 00ed 0097B6C9 		.ascii	"\000\227\266\311\344S\265`\311B%\017@\337\231\320\346"
 205      E453B560 
 205      C942250F 
 205      40DF99D0 
 205      E6
 206 00fe 908765A4 		.ascii	"\220\207e\244\023;\2077\364Dm^\365S \223\362\267\276"
 206      133B8737 
 206      F4446D5E 
 206      F5532093 
 206      F2B7BE
 207 0111 3BA80F44 		.ascii	";\250\017D\177\303\275\243\325\347\207{9\227^\360\031"
 207      7FC3BDA3 
 207      D5E7877B 
 207      39975EF0 
 207      19
 208 0122 C05D1CAB 		.ascii	"\300]\034\253UU\364\311\224\304\311\227:\011\237Ni\266"
 208      5555F4C9 
 208      94C4C997 
 208      3A099F4E 
 208      69B6
 209 0134 FBE9EBD8 		.ascii	"\373\351\353\330I\2449J\336?\332\353\265R\335Cd^&U\266"
 209      49A4394A 
 209      DE3FDAEB 
 209      B552DD43 
 209      645E2655 
 210 0149 59326629 		.ascii	"Y2f)\347SAwm?\314\377\207r\323<\262\206\337\261\324"
 210      E7534177 
 210      6D3FCCFF 
 210      8772D33C 
 210      B286DFB1 
 211 015e 5DBBF807 		.ascii	"]\273\370\007Jm\212\347\301\177,\271\227U.\333\351\023"
 211      4A6D8AE7 
 211      C17F2CB9 
ARM GAS  /var/folders/c6/c789hm653lg9vtl73krp73tm0000gn/T//ccbA1dPv.s 			page 16


 211      97552EDB 
 211      E913
 212 0170 C676D4B0 		.ascii	"\306v\324\260\343H\332\262\032xA=\014kqY\342\322\010"
 212      E348DAB2 
 212      1A78413D 
 212      0C6B7159 
 212      E2D208
 213 0183 500FA346 		.ascii	"P\017\243Fl_\233t&\234\026\2232\214\274[\363W\202r\025"
 213      6C5F9B74 
 213      269C1693 
 213      328CBC5B 
 213      F3578272 
 214 0198 E6BC5B6B 		.ascii	"\346\274[kz\245a\336k5\354\011\247r\243b\373s\262\326"
 214      7AA561DE 
 214      6B35EC09 
 214      A772A362 
 214      FB73B2D6 
 215 01ac BCE3D99A 		.ascii	"\274\343\331\232\227\301\365\346\234\344-\347G\232g"
 215      97C1F5E6 
 215      9CE42DE7 
 215      479A67
 216 01bb 54355E88 		.ascii	"T5^\210\271^t*\223\326m7\366\352\221_\262.\\\206\210"
 216      B95E742A 
 216      93D66D37 
 216      F6EA915F 
 216      B22E5C86 
 217 01d0 90677161 		.ascii	"\220gqa\264\200\337p \261u"
 217      B480DF70 
 217      20B175
 218              		.text
 219              		.section	.gnu.lto_chPoolLoadArray.cc4c223ba5ed2fc4,"",%progbits
 220 0000 789C8552 		.ascii	"x\234\205R\317k\023A\024\376\336\314\354\217\244!\321"
 220      CF6B1341 
 220      14FEDECC 
 220      EC8FA421 
 220      D1
 221 0011 5B0F22A1 		.ascii	"[\017\"\241\025\005\205\344O\361\322\202\036\3335\244"
 221      150585E4 
 221      4FF1D282 
 221      1EDB35A4 
 222 0021 2B5D131A 		.ascii	"+]\023\032=y\350\244\2114\320\"\245\036\024\203\320"
 222      3D79E8A4 
 222      8934D022 
 222      A51E1483 
 222      D0
 223 0032 82088228 		.ascii	"\202\010\202(x\360R\220\006\204\304\037\265x\214z\210"
 223      78F05290 
 223      0684C41F 
 223      B5788C7A 
 223      88
 224 0043 A71EF4D0 		.ascii	"\247\036\364\320\223\007\021\3267\273\331\220\344\342"
 224      930711D6 
 224      37BBD990 
 224      E4E2
 225 0051 B0FB66E6 		.ascii	"\260\373f\346\275o\276y\357{# 0=J\374\317I\340*\317"
 225      BD6FBE79 
 225      EF7B2320 
ARM GAS  /var/folders/c6/c789hm653lg9vtl73krp73tm0000gn/T//ccbA1dPv.s 			page 17


 225      303D4AFC 
 225      CF49E02A 
 226 0066 9402899D 		.ascii	"\224\002\211\235\317@\335\025B\355Y\320iy\332\003tF"
 226      CF40DD15 
 226      42ED59D0 
 226      6979DA03 
 226      7446
 227 0078 0AD5BAC4 		.ascii	"\012\325\272\304[\333\330\214\";F\331\344\232\005Y\361"
 227      5BDBD88C 
 227      223B46D9 
 227      E49A0559 
 227      F1
 228 0089 DC715D61 		.ascii	"\334q]amw\371@\332i:\014t\210\214\037\204u!\225m\271"
 228      6D77F940 
 228      DA693A0C 
 228      74888C1F 
 228      84752195 
 229 009f 0EAD5F27 		.ascii	"\016\255_'s-\005\204W\342p\020\206/w7\337~\242'\342"
 229      732D0584 
 229      57E27010 
 229      862F7737 
 229      DF7EA227 
 230 00b4 2C212012 		.ascii	",! \022l\204\342\250\264\330\010\233\015\245\341\023"
 230      6C84E2A8 
 230      B4D8089B 
 230      0DA5E113 
 231 00c4 664C3463 		.ascii	"fL4c\242Y\263\312\231\025\363Xhj\275\223\017\014\251"
 231      A259B3CA 
 231      9915F358 
 231      686ABD93 
 231      0F0CA9
 232 00d7 17312FB0 		.ascii	"\0271/\260\345\313\0279\334td\017\357N:\017\273\264"
 232      E5CB1739 
 232      DC74640F 
 232      EF4E3A0F 
 232      BBB4
 233 00e9 44FB64A1 		.ascii	"D\373d\241L\352\032\371D\343\002,\222D\317\216\200#"
 233      4CEA1AF9 
 233      44E3022C 
 233      9244CF8E 
 233      8023
 234 00fb 94655062 		.ascii	"\224ePb\022\2450\220\362\030*\306\000w\361G\267\364"
 234      12A53090 
 234      F2182AC6 
 234      0077F147 
 234      B7F4
 235 010d 199FA437 		.ascii	"\031\237\2447$4\236Y\237\024'3\004\371\0212:n\233l\200"
 235      24349E59 
 235      9F142733 
 235      04F91132 
 235      3A6E9B6C 
 236 0122 3EB265B2 		.ascii	">\262e\262%\261Q\324G\216\3572\033K\221\001Y`\365\344"
 236      25B151D4 
 236      478EEF32 
 236      1B4B9101 
 236      5960F5E4 
 237 0136 7B6CB8DC 		.ascii	"{l\270\334\024\354k\275{\370`\363#\351]]?\015\303\234"
ARM GAS  /var/folders/c6/c789hm653lg9vtl73krp73tm0000gn/T//ccbA1dPv.s 			page 18


 237      14EC6BBD 
 237      7BF860F3 
 237      23E95D5D 
 237      3F0DC39C 
 238 014a 6FF49927 		.ascii	"o\364\231'S\250I\320\316G\223\243&;\312E\002\343\034"
 238      53A849D0 
 238      CE4793A3 
 238      263BCA45 
 238      02E31C
 239 015d FAB5D6A9 		.ascii	"\372\265\326\251=\3757\014\245O\256\300\305\3773p6\307"
 239      3DFD370C 
 239      A54FAEC0 
 239      C5FF3370 
 239      36C7
 240 016f B877FAED 		.ascii	"\270w\372\355\315\207\354P\341D\352\303\255\223\037"
 240      CD87EC50 
 240      E144EAC3 
 240      AD931F
 241 017e 72899ED1 		.ascii	"r\211\236\321\034\027\371\224-\206\305z\211`#aR\036"
 241      1C17F994 
 241      2D86C57A 
 241      89602361 
 241      521E
 242 0190 31F279AC 		.ascii	"1\362y\254\001g\305\264>7\023G\330\370\372\350wO%j\247"
 242      0167C5B4 
 242      3E371347 
 242      D8F8FAE8 
 242      774F256A 
 243 01a5 AFE032CB 		.ascii	"\257\3402\313\335\306\343\272\326\272\315\240\231\211"
 243      DDC6E3BA 
 243      D6BACDA0 
 243      9989
 244 01b3 462D8FFA 		.ascii	"F-\217\372u\204\306V\343|r\216Q,]\332\024+b_`\0343\021"
 244      7584C656 
 244      E37C728E 
 244      512C5DDA 
 244      142B625F 
 245 01cb AED5F879 		.ascii	"\256\325\370y\337N\220\2312\211\250\245!\217\034&N\010"
 245      DF4E9099 
 245      3289A8A5 
 245      218F1C26 
 245      4E08
 246 01dd 0E274D72 		.ascii	"\016'Mr\301\317\225b\355\242\210H\224\214\2309\217\036"
 246      C1CF9562 
 246      EDA28848 
 246      948C9839 
 246      8F1E
 247 01ef 9ABF3AED 		.ascii	"\232\277:\355n&a\026S/\245\017\306em\223\206\265}p\256"
 247      6E266116 
 247      532FA50F 
 247      C6656D93 
 247      86B57D70 
 248 0204 0F26C999 		.ascii	"\017&\311\231m\306zq0k\356p\314C\370\202\372\340\373"
 248      6DC67A71 
 248      306BEE70 
 248      CC43F882 
 248      FAE0FB
ARM GAS  /var/folders/c6/c789hm653lg9vtl73krp73tm0000gn/T//ccbA1dPv.s 			page 19


 249 0217 7CF294E2 		.ascii	"|\362\224\342\261\300\374M\307p\345\013\205b\374Uj\305"
 249      B1C0FC4D 
 249      C770E50B 
 249      8562FC55 
 249      6AC5
 250 0229 B5DBC5DA 		.ascii	"\265\333\305\332\232W\364V\202RP\255TVk\005\017\"\250"
 250      9A57F456 
 250      825250AD 
 250      54566B05 
 250      0F22A8
 251 023c AACAF2CD 		.ascii	"\252\312\362\315\352\205)\240\177\313[\275s\2434\016"
 251      EA8529A0 
 251      7FCB5BBD 
 251      73A3340E 
 252 024c 5EC13FBB 		.ascii	"^\301?\273\223\311\233"
 252      93C99B
 253              		.text
 254              		.section	.gnu.lto_.symbol_nodes.cc4c223ba5ed2fc4,"",%progbits
 255 0000 789C4D8C 		.ascii	"x\234M\214MN\002A\020\205\337\353\232r\306\006\024="
 255      4D4E0241 
 255      1085DFEB 
 255      9A72C606 
 255      143D
 256 0012 833B4FE5 		.ascii	"\203;O\345E,\"\211a\351\005`\201[\227\236@\242K=\202"
 256      452C2289 
 256      61E90560 
 256      815B979E 
 256      40A24B3D 
 257 0027 1AE33F0A 		.ascii	"\032\343?\012\212\270\323\330MO\354\251\315\227\367"
 257      8AB8D3D8 
 257      4D4FECA9 
 257      CD97F7
 258 0036 EACB7370 		.ascii	"\352\313sp\330'\322\271!\0158\272\004\314\206\203=\375"
 258      D827D2B9 
 258      210D38BA 
 258      04CC8683 
 258      3DFD
 259 0048 A2C2A04B 		.ascii	"\242\302\240K\2420q\3674\326\317\321\200:%c\373Hs\215"
 259      A23071F7 
 259      34D6CFD1 
 259      803A2563 
 259      FB48738D 
 260 005c 764617DB 		.ascii	"vF\027\333'\232\344\326=\323\212\206\364M\211\322\013"
 260      279AE4D6 
 260      3DD38A86 
 260      F44D89D2 
 260      0B
 261 006d 4D1BD203 		.ascii	"M\033\322\003m\255!\275\261\010\022_iej{=rA\253r\372"
 261      6DAD21BD 
 261      B108125F 
 261      69656A7B 
 261      3D7241AB 
 262 0083 A4ADE7F4 		.ascii	"\244\255\347\364N\3639}\320Z9\315i\355\377$\330D\377"
 262      4EF3397D 
 262      D05A39CD 
 262      69EDFF24 
 262      D844FF
ARM GAS  /var/folders/c6/c789hm653lg9vtl73krp73tm0000gn/T//ccbA1dPv.s 			page 20


 263 0096 E6377003 		.ascii	"\3467p\003\307+v\320?\274V\221\016&\363+\212v\323_C"
 263      C72B76D0 
 263      3FBC5691 
 263      0E26F32B 
 263      8A76D35F 
 264 00ab 3E69178A 		.ascii	">i\027\212\305\305\324I\271\215Il\313-\334\255\2508"
 264      C5C5D449 
 264      B98D496C 
 264      CB2DDCAD 
 264      A838
 265 00bd B88D04CE 		.ascii	"\270\215\004\316\"\253nZ\253\302\332rG|\255\373Z\367"
 265      22AB6E5A 
 265      ABC2DA72 
 265      477CADFB 
 265      5AF7
 266 00cf 55D23D30 		.ascii	"U\322=0\216l\205\361\323\363@\217\361\317l\027\177A"
 266      8E6C85F1 
 266      D3F3408F 
 266      F1CF6C17 
 266      7F41
 267 00e1 CE755B   		.ascii	"\316u["
 268              		.text
 269              		.section	.gnu.lto_.refs.cc4c223ba5ed2fc4,"",%progbits
 270 0000 789C25C3 		.ascii	"x\234%\303\211\011\000 \000\304\260k}Pt\003\367\337"
 270      89090020 
 270      00C4B06B 
 270      7D507403 
 270      F7DF
 271 0012 53C1408C 		.ascii	"S\301@\2149\371j\202\274R\2544;\303\311r\347\002\007"
 271      39F96A82 
 271      BC52AC34 
 271      3BC3C972 
 271      E70207
 272 0025 A40073   		.ascii	"\244\000s"
 273              		.text
 274              		.section	.gnu.lto_.decls.cc4c223ba5ed2fc4,"",%progbits
 275 0000 789CBD5C 		.ascii	"x\234\275\\\013t\024U\232\256\252\356N\347E\022`f\026"
 275      0B741455 
 275      9AAEAAEE 
 275      4EE74512 
 275      606616
 276 0013 5C46E3EC 		.ascii	"\\F\343\3548gg\316H\230\021\024w\346\210\016\273\243"
 276      386767CE 
 276      48981114 
 276      77E6880E 
 276      BBA3
 277 0025 ECEAAC67 		.ascii	"\354\352\254g<\236\263gw\235\266\350\024\244\307\356"
 277      3C9EB367 
 277      779DB6E8 
 277      14A4C7EE 
 278 0035 A4A7BA02 		.ascii	"\244\247\272\0022\273\347XI\020\2428Lx\203\200D| \212"
 278      32BBE758 
 278      4910A238 
 278      4C788380 
 278      447C208A 
 279 0049 0891F72B 		.ascii	"\010\221\367+\215\"\0118(o\020\020\002\370\200\021\234"
 279      8D220938 
ARM GAS  /var/folders/c6/c789hm653lg9vtl73krp73tm0000gn/T//ccbA1dPv.s 			page 21


 279      286F1010 
 279      02F88011 
 279      9C
 280 005a 90180C88 		.ascii	"\220\030\014\210f\377\373\337[\335U\267\253:UQ\267O"
 280      66FFFBDF 
 280      5BDD55B7 
 280      AB3A5551 
 280      B74F
 281 006c EEED9BAA 		.ascii	"\356\355\233\252\272\337\377\376\357\243\252K\022$\341"
 281      BADFFFFE 
 281      EFA3AA4B 
 281      1224E1
 282 007b A04F107A 		.ascii	"\240O\020z\340\263\340~A\030\224/\010\271\202 \334\001"
 282      E0B3E07E 
 282      4118942F 
 282      08B98220 
 282      DC01
 283 008d 2508E559 		.ascii	"%\010\345Y(\313\241\274\012e5\224\265P\336\2022J\240"
 283      28CBA1BC 
 283      0A653594 
 283      B550DE82 
 283      324AA0
 284 00a0 9F7E50F6 		.ascii	"\237~P\366A9\004\345\014\224sP.@\351\202r\025J\216("
 284      413904E5 
 284      0C947350 
 284      2E40E982 
 284      72154A8E 
 285 00b5 080550FA 		.ascii	"\010\005P\372A)\206\322\037\312@(9p\356\273\360=\030"
 285      412986D2 
 285      1FCA4028 
 285      3970EEBB 
 285      F03D18
 286 00c8 CA102837 		.ascii	"\312\020(7@\371\001\224\233D\301\362!\330\003\241\374"
 286      40F90194 
 286      9B44C1F2 
 286      21D803A1 
 286      FC
 287 00d9 42A4FCE8 		.ascii	"B\244\374\350\222 \354\207\357\341\360\377\315P~\004"
 287      9220EC87 
 287      EFE1F0FF 
 287      CD507E04 
 288 00e9 A5068ED5 		.ascii	"\245\006\216\325B\271\033\332\277\204R'Q\276\203\320"
 288      42B91BDA 
 288      BF845227 
 288      51BE83D0 
 289 00f9 FE572845 		.ascii	"\376W(E\320.\2042\031\216O\201\022\200\366O\341\370"
 289      D02E8432 
 289      198E4F81 
 289      1280F64F 
 289      E1F8
 290 010b 2D50FE89 		.ascii	"-P\376\211\360\007\307~\315x\"\364\3721\236\011\357"
 290      F007C77E 
 290      CD7822F4 
 290      FA319E09 
 290      EF
 291 011c F5706E1A 		.ascii	"\365pn\032\024\211\361\313\363G\344\3165\351\205\320"
 291      1489F1CB 
ARM GAS  /var/folders/c6/c789hm653lg9vtl73krp73tm0000gn/T//ccbA1dPv.s 			page 22


 291      F347E4CE 
 291      35E985D0 
 292 012c 5ECE686F 		.ascii	"^\316ho\205\357uPvC\001\025\013[\240\354\200\262K\240"
 292      85EF7550 
 292      76430115 
 292      0B5BA0EC 
 292      80B24BA0 
 293 0140 7887987E 		.ascii	"x\207\230~\374\002\325\303q\370~\037\312)+\011\324k"
 293      FC02D5C3 
 293      71F87E1F 
 293      CA292B09 
 293      D46B
 294 0152 7FA67343 		.ascii	"\177\246sC\026\202\375\256@e1t\262\226\321\177\225\321"
 294      1682FDAE 
 294      40653174 
 294      B296D17F 
 294      95D1
 295 0164 27B4B731 		.ascii	"'\264\2671\372\204\267\267\005J\213\360\261\235\361"
 295      FA84B7B7 
 295      054A8BF0 
 295      B19DF1
 296 0173 B183F146 		.ascii	"\261\203\361Fh\0243\231\011o\304&\037q|\020\333\346"
 296      68143399 
 296      096FC426 
 296      1F717C10 
 296      DBE6
 297 0185 737C10FD 		.ascii	"s|\020\375\032z5\370\230\015\337gY\237\\\326o\016\034"
 297      1A7A35F8 
 297      980DDF67 
 297      599F5CD6 
 297      6F0E1C
 298 0198 9BCF7439 		.ascii	"\233\317t9\220\371\301\031\246o\242\322\277r\264.\230"
 298      90F9C119 
 298      A66FA2D2 
 298      BF72B42E 
 298      98
 299 01a9 E4346899 		.ascii	"\3444h\231\345\034%X\355l\310*\231\344\3631\034C.\362"
 299      E51C2558 
 299      ED6CC82A 
 299      99E4F331 
 299      1C432EF2 
 300 01bd 3FF1B30E 		.ascii	"?\361\263\016\370\276\304\321#\376\232'\330\373\213"
 300      F8BEC4D1 
 300      23FE9A27 
 300      D8FB8B
 301 01cc 4177217C 		.ascii	"Aw!|_4\311\325\345 \327\005&\027\341\345s(\335\034\255"
 301      5F34C9D5 
 301      E520D705 
 301      2617E1E5 
 301      7328DD1C 
 302 01e1 AB0C3F20 		.ascii	"\253\014? X\375f5\223\305\240?\312Ds\035\323\323\016"
 302      58FD6635 
 302      93C5A03F 
 302      CA44731D 
 302      D3D30E
 303 01f4 664323B6 		.ascii	"fC#\266\026I\224\017r\214\304\217H\344\024\331\305\246"
 303      1649940F 
ARM GAS  /var/folders/c6/c789hm653lg9vtl73krp73tm0000gn/T//ccbA1dPv.s 			page 23


 303      728CC48F 
 303      48E414D9 
 303      C5A6
 304 0206 4F81F0A4 		.ascii	"O\201\360\244\256\327\352\215S\364{Z\213\372\013\015"
 304      AED7EA8D 
 304      53F47B5A 
 304      8BFA0B0D 
 305 0216 3A7C4AE7 		.ascii	":|J\347\027\345\011\365\344p\333\013\311A\363\201\354"
 305      17E509F5 
 305      E470DB0B 
 305      C941F381 
 305      EC
 306 0227 7F88B208 		.ascii	"\177\210\262\010\307r\261Q\230\207 7\011\317\303\265"
 306      C772B151 
 306      98872037 
 306      09CFC3B5 
 307 0237 D0414A5D 		.ascii	"\320AJ]\254\017\032d\177\255,>/\336\004\365\013b\036"
 307      AC0F1A64 
 307      7FAD2C3E 
 307      2FDE04F5 
 307      0B621E
 308 024a 5225A768 		.ascii	"R%\247h\333h\365\240\177I\034w\306\247\267\236\214\346"
 308      DB68F5A0 
 308      7F491C77 
 308      C6A7B79E 
 308      8CE6
 309 025c C306CD42 		.ascii	"\303\006\315B\2746-\016\275\322\376*Y\\&\366\307\026"
 309      BC362D0E 
 309      BDD2FE2A 
 309      595C26F6 
 309      C716
 310 026e CAA1335D 		.ascii	"\312\2413]\340\025\254G\251\321\303\317z\274d\342\246"
 310      E015AC47 
 310      A9D1C3CF 
 310      7ABC64E2 
 310      A6
 311 027f 302FDD28 		.ascii	"0/\335(\260\360l\\\345\010\363\254\230\352\340`\007"
 311      B0F06C5C 
 311      E508F3AC 
 311      98EAE060 
 311      07
 312 0290 597C2ECD 		.ascii	"Y|.\315x\275h\000\364\317&\037\177\231,\276\342Y\300"
 312      78BD6800 
 312      F4CF261F 
 312      7F992CBE 
 312      E259C0
 313 02a3 150E0296 		.ascii	"\025\016\002\226X\004\\\321\233\200\313\275\011Xa\364"
 313      58045CD1 
 313      9B80CBBD 
 313      095861F4 
 314 02b3 EF974D3E 		.ascii	"\357\227M>\356*Y|\315\263x\253\034\304+\264\210\267"
 314      EE2A597C 
 314      CDB378AB 
 314      1CC42BB4 
 314      88B7
 315 02c5 AA37F15E 		.ascii	"\2527\361^\365&\236.Z\325\350 \037\177\231,\276\356"
 315      F5269E2E 
ARM GAS  /var/folders/c6/c789hm653lg9vtl73krp73tm0000gn/T//ccbA1dPv.s 			page 24


 315      5AD5E820 
 315      1F7F992C 
 315      BEEE
 316 02d7 59C0350E 		.ascii	"Y\3005\016\002\026[\004\\\323\233\200\253\035\004\034"
 316      02165B04 
 316      5CD39B80 
 316      AB1D041C 
 317 02e7 20CC40CE 		.ascii	" \314@\316[\213\354c\017sCC\333\273g\007\351~Y\\'\016"
 317      5B8BEC63 
 317      0F734343 
 317      DBBB6707 
 317      E97E595C 
 318 02fd 80D88691 		.ascii	"\200\330\206\221\365'\302r\2322\336\270^\310\374\364"
 318      F527C272 
 318      9A32DEB8 
 318      5EC8FCF4 
 319 030d 064A18DA 		.ascii	"\006J\030\332\004P\262\270Q\374\011K?\311\031;\013\011"
 319      0450B2B8 
 319      51FC094B 
 319      3FC9193B 
 319      0B09
 320 031f 09725C60 		.ascii	"\011r\\`gl>7\012\215\300|r\326\224\305\203\365\3067"
 320      676C3E37 
 320      0A8DC07C 
 320      72D694C5 
 320      83F5C637 
 321 0333 443B591A 		.ascii	"D;Y\032sLt-\212\220\204\273D\200\336\306\223\276$\227"
 321      734C742D 
 321      8A9084BB 
 321      4480DEC6 
 321      93BE2497 
 322 0347 D2A3BD13 		.ascii	"\322\243\275\023\356<\277K\324g\026\312\342V\240-\011"
 322      EE3CBF4B 
 322      D46716CA 
 322      E256A02D 
 322      09
 323 0358 F7197876 		.ascii	"\367\031xv\344R&3\031\206\3778\331kk\332^\222\360\240"
 323      E4522633 
 323      1986FF38 
 323      D96B6BDA 
 323      5E92F0A0 
 324 036c C814E691 		.ascii	"\310\024\346\221\012\343y\316\316E\250,\226\335\251"
 324      0AE379CE 
 324      CE45A82C 
 324      96DDA9
 325 037b B2EC4933 		.ascii	"\262\354I3s\1771\345p\247X\253\353p\342-\350&\011\033"
 325      737F31E5 
 325      70A758AB 
 325      EB70E22D 
 325      E826091B 
 326 038f 44D1A21A 		.ascii	"D\321\242\032Y\014Xd\301\377\215\013\010^ /\335 3\317"
 326      590C5864 
 326      C1FF8D0B 
 326      085E202F 
 326      DD2033CF 
 327 03a3 622247B3 		.ascii	"b\"G\263\350U\220R\263 m\177>\333\352[\240''\373,f\377"
 327      E8559052 
ARM GAS  /var/folders/c6/c789hm653lg9vtl73krp73tm0000gn/T//ccbA1dPv.s 			page 25


 327      B3206D7F 
 327      3EDBEA5B 
 327      A02727FB 
 328 03ba 9E3087C5 		.ascii	"\2360\207\305\222.j\2628\252\300Q\251o\213\337\303\226"
 328      922E6AB2 
 328      38AAC051 
 328      A96F8BDF 
 328      C396
 329 03cc 0F076E81 		.ascii	"\017\007n\201\012'\213\017\372\262\232\203\351d\353"
 329      0A278B0F 
 329      FAB29A83 
 329      E964EB
 330 03db F4F53FD6 		.ascii	"\364\365?\326\365\\Y\334\215\226\357\3404ba\211\222"
 330      F55C59DC 
 330      8D96EFE0 
 330      34626189 
 330      92
 331 03ec 7262E35D 		.ascii	"rb\343]\000\260\367\263\214s\022\014\212.t\226\233\315"
 331      00B0F7B3 
 331      8C73120C 
 331      8A2E7496 
 331      9BCD
 332 03fe C52CF8E9 		.ascii	"\305,\370\351\260\223\305\3158\222o\021o\204z\007\326"
 332      B093C5CD 
 332      38926F11 
 332      6F847A07 
 332      D6
 333 040f BBA0CEAA 		.ascii	"\273\240\316\252\013\002\2616\355\2327\010\317\350\311"
 333      0B02B136 
 333      ED9A3708 
 333      CFE8C9
 334 041e F6B6F533 		.ascii	"\366\266\3653?~K\234Y\247\267\352\355`i=\227\263\310"
 334      3F7E4B9C 
 334      59A7B7EA 
 334      ED60693D 
 334      97B3C8
 335 0431 1DDF75C4 		.ascii	"\035\337u\304\332\317,\2226\202$\274\"\211\234z~$\274"
 335      DACF2C92 
 335      368224BC 
 335      22899C7A 
 335      7E24BC
 336 0444 40F0F497 		.ascii	"@\360\364\227t\037\242\221\353\367\2117X%; J\346\003"
 336      741FA291 
 336      EBF78937 
 336      58253B20 
 336      4AE603
 337 0457 84B5C6B6 		.ascii	"\204\265\306\266\266S\007\366\310\304e\364\236\236\307"
 337      B65307F6 
 337      C8C465F4 
 337      9E9EC7
 338 0466 04F77C1D 		.ascii	"\004\367|\035\346=\205\010mq\033\363\311\335T#\026O"
 338      E63D8508 
 338      6D711BF3 
 338      C9DD5423 
 338      164F
 339 0478 9284A39C 		.ascii	"\222\204\243\234\034?\024\236\323\365\231\372b\345\036"
 339      1C3F149E 
ARM GAS  /var/folders/c6/c789hm653lg9vtl73krp73tm0000gn/T//ccbA1dPv.s 			page 26


 339      D3F599FA 
 339      62E51E
 340 0487 0A2709E7 		.ascii	"\012'\011\347\361\212C \211\035\037L\323\254\333\001"
 340      F18A4320 
 340      891D1F4C 
 340      D3ACDB01 
 341 0497 D28D06E3 		.ascii	"\322\215\006\343\205^\272!{\254\333\202\235\205\015"
 341      855EBA21 
 341      7BACDB82 
 341      9D850D
 342 04a6 A2E1B397 		.ascii	"\242\341\263\227z\351\310\344`\352\376\223\376x\211"
 342      7AE9C8E4 
 342      60EAFE93 
 342      FE7889
 343 04b5 98D2F721 		.ascii	"\230\322\367!^\337\3072\365\335\326\236\274\324\362"
 343      5EDFC732 
 343      F5DDD69E 
 343      BCD4F2
 344 04c4 36E447FD 		.ascii	"6\344G\375ZO\217\217Ww\226\300<k\247nN\235W\355\325"
 344      5A4F8F8F 
 344      577796C0 
 344      3C6BA76E 
 344      4E9D57ED 
 345 04d9 39CF50A7 		.ascii	"9\317P\247,\236\000\216d\361Lvu2\361j\365\327\246<^"
 345      2C9E008E 
 345      64F14C76 
 345      7532F16A 
 345      F5D7A63C 
 346 04ee E247AE84 		.ascii	"\342G\256\204,\275\030\203\037\3329W\362\330\356\302"
 346      2CBD1883 
 346      1FDA3957 
 346      F2D8EEC2 
 347 04fe 869AB69E 		.ascii	"\206\232\266\236\236\033\250\004\2220\325g\313\343\034"
 347      9E1BA804 
 347      9230D567 
 347      CBE31C
 348 050d 9EC7737D 		.ascii	"\236\307s}\342\321\251\027\343\361\274\255A\326Os4H"
 348      E2D1A917 
 348      E3F1BCAD 
 348      41D64F73 
 348      3448
 349 051f 16FFBF98 		.ascii	"\026\377\277\230\325\377G\331\271\373,{\331g\361\262"
 349      D5FF47D9 
 349      B9FB2C7B 
 349      D967F1B2 
 350 052f 5F70E5EE 		.ascii	"_p\345\356\353I\267Q\304i\227 \256s\257Q\316>{\201\367"
 350      EB49B751 
 350      C4699720 
 350      AE73AF51 
 350      CE3E7B81 
 351 0544 D9765B15 		.ascii	"\331v[\025\315|'e\306\213h\306\347\355E\231\301\213"
 351      CD7C2765 
 351      C68B68C6 
 351      E7ED4599 
 351      C18B
 352 0556 D2E54A94 		.ascii	"\322\345J\224\265L\024Y\354\354\245W\026Q\272xQ.\333"
 352      B54C1459 
ARM GAS  /var/folders/c6/c789hm653lg9vtl73krp73tm0000gn/T//ccbA1dPv.s 			page 27


 352      ECECA557 
 352      1651BA78 
 352      512EDB
 353 0569 7AE4CC16 		.ascii	"z\344\314\026&\212{S\177\341\302\324|\346\343L\377\232"
 353      268A7B53 
 353      7FE1C2D4 
 353      7CE6E34C 
 353      FF9A
 354 057b BDBE16F2 		.ascii	"\275\276\026\362\372\272\352J_\315)\3237#\256s\257Q"
 354      FABAEA4A 
 354      5FCD29D3 
 354      3723AE73 
 354      AF51
 355 058d E94E9DE9 		.ascii	"\351N\235\351\364\270\275\227^L\006[5_\345\325\334c"
 355      F4B8BD97 
 355      5E4C065B 
 355      355FE5D5 
 355      DC63
 356 059f E3310D30 		.ascii	"\3431\0150\340\035\231,\316\250k\244\003\236\207\270"
 356      E01D992C 
 356      CEA86BA4 
 356      039E87B8 
 357 05af 9A2A5994 		.ascii	"\232*Y\224\315M\032L+\214\214\236OH\005i\256,\332\177"
 357      CD4D1A4C 
 357      2B8C8C9E 
 357      4F480569 
 357      AE2CDA7F 
 358 05c3 D3C78F97 		.ascii	"\323\307\217\227\364\242'%;\3267=sP\\\240\277A\007D"
 358      F4A22725 
 358      3BD6373D 
 358      73505CA0 
 358      BF410744 
 359 05d7 3A004BC2 		.ascii	":\000K\302\337\034 \236\262\205\330p\246\365\027\031"
 359      DF1C209E 
 359      B285D870 
 359      A6F51719 
 360 05e7 102BFDF6 		.ascii	"\020+\375\366\020\323\355 \222\327\336yJ\027\215\240"
 360      10D3ED20 
 360      92D7DE79 
 360      4A178DA0 
 361 05f7 A3004907 		.ascii	"\243\000I\007\200\006[\200\366L\200}\016\0003\355\365"
 361      80065B80 
 361      F64C807D 
 361      0E0033ED 
 361      F5
 362 0608 70F2DD4C 		.ascii	"p\362\335L=\234v\200\230m\205\370\201\360\254\276wo"
 362      3D9C7680 
 362      986D85F8 
 362      81F0ACBE 
 362      776F
 363 061a DBFAFD7F 		.ascii	"\333\372\375\177\033Q\323\220\234\334H\262\253\010\346"
 363      1B51D390 
 363      9CDC48B2 
 363      AB08E6
 364 0629 5A0AAB3B 		.ascii	"Z\012\253;\230\261!\310\276\264\377qk\037I\250\017\320"
 364      98B121C8 
 364      BEB4FF71 
ARM GAS  /var/folders/c6/c789hm653lg9vtl73krp73tm0000gn/T//ccbA1dPv.s 			page 28


 364      6B1F49A8 
 364      0FD0
 365 063b DD91EB85 		.ascii	"\335\221\353\205\271\201\305dJ\271\024\227\205\014\366"
 365      B981C564 
 365      4AB91497 
 365      850CF6
 366 064a E4817744 		.ascii	"\344\201wD\013\354\313pV\026\347J\222u\360\346w\007"
 366      0BECCB70 
 366      5616E74A 
 366      9275F0E6 
 366      7707
 367 065c 24E1B914 		.ascii	"$\341\271\024\356j\212\373\262\0117\331\335\242\347"
 367      EE6A8AFB 
 367      B20937D9 
 367      DDA2E7
 368 066b 36D4D413 		.ascii	"6\324\324\023\201eq\245\011\3234\366q+rp\256\024\344"
 368      816571A5 
 368      09D334F6 
 368      712B7270 
 368      AE14E4
 369 067e 3E0AB9D2 		.ascii	">\012\271\322\014\271\355m\023\344R\023\344\205,\322"
 369      0CB9ED6D 
 369      13E45213 
 369      E4852CD2 
 370 068e 9F4A415E 		.ascii	"\237JA^\314\224>9\327\314e\223\011\322\024\320\374\272"
 370      CC943E39 
 370      D7CC6593 
 370      09D214D0 
 370      FCBA
 371 06a0 1A260729 		.ascii	"\032&\007)\314\372\034\304lJa\202\255;;Z\237\020\267"
 371      CCFA1CC4 
 371      6C4A6182 
 371      AD3B3B5A 
 371      9F10B7
 372 06b3 BFA0271B 		.ascii	"\277\240'\033 B\333\305\236\236\240\261B\255?\233\336"
 372      2042DBC5 
 372      9E9EA0B1 
 372      42AD3F9B 
 372      DE
 373 06c4 734A3E64 		.ascii	"sJ>d\240\036%\241\306\246\375]\235\311\3537\351z\211"
 373      A01E25A1 
 373      C6A6FD5D 
 373      9DC9EB37 
 373      E97A89
 374 06d7 2CBE2891 		.ascii	",\276(\221\305\357\251\034\253\213\270@\222\204O\260"
 374      C5EFA91C 
 374      AB8BB840 
 374      92844FB0 
 375 06e7 D372C9BA 		.ascii	"\323r\311\272\356\004\276\366>:\037\261\311\251\336"
 375      EE04BEF6 
 375      3E3A1FB1 
 375      C9A9DE
 376 06f6 169F7A72 		.ascii	"\026\237zr\361\311E\"Y\310\331\254\257\333R*\031b\346"
 376      F1C94522 
 376      59C8D9AC 
 376      AFDB522A 
 376      1962E6
ARM GAS  /var/folders/c6/c789hm653lg9vtl73krp73tm0000gn/T//ccbA1dPv.s 			page 29


 377 0709 BDFBBA6D 		.ascii	"\275\373\272m\210\377*\362\336\345\300\273#\216$\324"
 377      88FF2AF2 
 377      DEE5C0BB 
 377      238E24D4 
 378 0719 06499755 		.ascii	"\006I\227U\231\234'\177O9_\345\212\363\003\307\0349"
 378      999C277F 
 378      4F395FE5 
 378      8AF303C7 
 378      1C39
 379 072b BFD3BC88 		.ascii	"\277\323\274\210I+\375\272]\010\277\006\031o\010\332"
 379      492BFDBA 
 379      5D08BF06 
 379      196F08DA 
 380 073b 32DE78A7 		.ascii	"2\336x\247\023\216$4b\227\365\231\214w\017\245\214\257"
 380      138E2434 
 380      6297F599 
 380      8C770FA5 
 380      8CAF
 381 074d 77C1786D 		.ascii	"w\301xm\362\3224\347\215\006\213\315\365\034\203\376"
 381      F2D234E7 
 381      8D068BCD 
 381      F51C83FE 
 382 075d C369393E 		.ascii	"\303i9>\353\354\016\342\232q\013\212\261\332^\214,8"
 382      EBEC0EE2 
 382      9A710B8A 
 382      B1DA5E8C 
 382      2C38
 383 076f 92B009FB 		.ascii	"\222\260\011\3734\333\270\316H*G\263+9\346M\247r\300"
 383      34DBB8CE 
 383      482A47B3 
 383      2B39E64D 
 383      A772C0
 384 0782 AA4F2243 		.ascii	"\252O\"C\353\216\024l\337\366\024\236\2069\223l\200"
 384      EB8E146C 
 384      DFF6149E 
 384      8639936C 
 384      80
 385 0793 BDED19AC 		.ascii	"\275\355\031\254\324\002\266\344\035\257\033\024\207"
 385      D402B6E4 
 385      1DAF1B14 
 385      87
 386 07a0 BE6A1BBC 		.ascii	"\276j\033\274\025\305o\221\310\230?5\327\252Y\367H\315"
 386      15C56F91 
 386      C8983F35 
 386      D7AA59F7 
 386      48CD
 387 07b2 4BF70D5A 		.ascii	"K\367\015Z\201H\273\021\351D\237\221\026.\333>O\254"
 387      8148BB11 
 387      E9449F91 
 387      162EDB3E 
 387      4FAC
 388 07c4 C34D933D 		.ascii	"\303M\223=\010\365F\036\277i\022\344"
 388      08F5461E 
 388      BF6912E4 
 389 07d0 364D82D6 		.ascii	"6M\202\326M\223`^\272\3016M\276\335\313%aO\236\013\323"
 389      4D93605E 
 389      BAC1364D 
ARM GAS  /var/folders/c6/c789hm653lg9vtl73krp73tm0000gn/T//ccbA1dPv.s 			page 30


 389      BEDDCB25 
 389      614F9E0B 
 390 07e5 D96D2FD0 		.ascii	"\331m/\320\300n\353\350H\336\216[2.6\337\016\"\255\375"
 390      C06EEBE8 
 390      48DE8E5B 
 390      322E36DF 
 390      0E22ADFD 
 391 07f9 BC2B5F59 		.ascii	"\274+_Y\271\353\307\324\225\367\273r\345\265\273\347"
 391      B9EBC7D4 
 391      95F7BB72 
 391      E5B5BBE7 
 392 0809 3987A489 		.ascii	"9\207\244\211z\243d\220\377!\222\257\315'\344\217\360"
 392      7AA36490 
 392      FF2192AF 
 392      CD27E48F 
 392      F0
 393 081a E4B7369D 		.ascii	"\344\2676\235\276\203\222?\342\212\374\222\375\2633"
 393      BE83923F 
 393      E28AFC92 
 393      FDB333
 394 0829 C93B4EFA 		.ascii	"\311;N\372\230o\\Yy~\310\022$r\034#fC>\357\032\243\314"
 394      986F5C59 
 394      797EC812 
 394      24721C23 
 394      66433EEF 
 395 0840 771C04B6 		.ascii	"w\034\004\266`0\355\003mOq\337\247\200\0051\267\217"
 395      6030ED03 
 395      6D4F71DF 
 395      A7800531 
 395      B78F
 396 0852 59DEA4EB 		.ascii	"Y\336\244\353O\344\030<\354\360\214XjQD\323~L\001\024"
 396      4FE4183C 
 396      ECF08C58 
 396      6A5144D3 
 396      7E4C0114 
 397 0866 ACC50D98 		.ascii	"\254\305\015\230\243\037\325&\327\230\301v{\006\263"
 397      A31FD526 
 397      D798C176 
 397      7B06B3
 398 0875 72B6CE0C 		.ascii	"r\266\316\014\266\307\015X\2113g\033\314`{=\203Y9\333"
 398      B6C70D58 
 398      8933671B 
 398      CC607B3D 
 398      835939DB 
 399 0889 64063BE0 		.ascii	"d\006;\340\006l\2203g[\314`G<\203Y9\333f\006;\356\006"
 399      066C9033 
 399      675BCC60 
 399      473C8359 
 399      39DB6606 
 400 08a0 ACD486B3 		.ascii	"\254\324\206\263\324\307i\031sX2\355k\237\3147\022\202"
 400      D4C76919 
 400      735832ED 
 400      6B9FCC37 
 400      1282
 401 08b2 479F16D2 		.ascii	"G\237\026\322\030g\362\275&0\213\334d \275}\023\213"
 401      1867F2BD 
 401      26308BDC 
ARM GAS  /var/folders/c6/c789hm653lg9vtl73krp73tm0000gn/T//ccbA1dPv.s 			page 31


 401      6420BD7D 
 401      138B
 402 08c4 0B3A9A9D 		.ascii	"\013:\232\235s\203\230\305a\326\231\207\306v\317`V\263"
 402      738398C5 
 402      61D69987 
 402      C676CF60 
 402      56B3
 403 08d6 1CA4604F 		.ascii	"\034\244`O X\267\033\260,\016\323N\300,y\213\215n\311"
 403      2058B71B 
 403      B02C0ED3 
 403      4EC02C79 
 403      8B8D6EC9 
 404 08ea 297ABD58 		.ascii	")z\275X\263zH\326I\031\344\260\357\277\2149\354\012"
 404      B37A48D6 
 404      4919E4B0 
 404      EFBF8C39 
 404      EC0A
 405 08fc 0E6F3DF9 		.ascii	"\016o=\371\266#\245+\254\346\245\227\006\323Q\367\032"
 405      B623A52B 
 405      ACE6A597 
 405      06D351F7 
 405      1A
 406 090d 623D59D0 		.ascii	"b=Y\320g\254\306\205\313v\371p\222\325\203P\263\012"
 406      67ACC685 
 406      CB76F970 
 406      92D58350 
 406      B30A
 407 091f F8D49AC7 		.ascii	"\370\324\232\307\215\272y\326q1//\335\3501>\326\333"
 407      8DBA79D6 
 407      71312F2F 
 407      DDE8313E 
 407      D6DB
 408 0931 D7DF6A1F 		.ascii	"\327\337j\037\247P\3516\207\3123\005^Mou\363\216\216"
 408      A750E936 
 408      87CA3305 
 408      5E4D6F75 
 408      F38E8E
 409 0944 73BF98A7 		.ascii	"s\277\230\247'k|\246[\374Y\237\007 s\254V6\307\232\354"
 409      276B7CA6 
 409      5BFC599F 
 409      072073AC 
 409      5636C79A 
 410 0959 238A5D6E 		.ascii	"#\212]no#\027H0\307Z\313n'ME\250\246>C-\\v\272\216M"
 410      6F231748 
 410      30C75ACB 
 410      6E274D45 
 410      A8A63E43 
 411 0973 B29E44A8 		.ascii	"\262\236D\250M\031\346\0269s\213V3\244\0369`O\034|["
 411      4D19E616 
 411      39738B56 
 411      33A41E39 
 411      604F1C7C 
 412 0988 D7C200CB 		.ascii	"\327\302\000\313\333\314\"P\226,\232JM\255\277\334\270"
 412      DBCC2250 
 412      962C9A4A 
 412      4DADBFDC 
 412      B8
ARM GAS  /var/folders/c6/c789hm653lg9vtl73krp73tm0000gn/T//ccbA1dPv.s 			page 32


 413 0999 52D7EB72 		.ascii	"R\327\353r\274\030-\311\214\366gT\317_2\324C,\340M\216"
 413      BC182DC9 
 413      8CF66754 
 413      CF5F32D4 
 413      432CE04D 
 414 09ae 839EE5C8 		.ascii	"\203\236\345\310\345\344h\357\203\034{\231\034\263Q"
 414      E5E468EF 
 414      831C7B99 
 414      1CB351
 415 09bd 8E13DF80 		.ascii	"\216\023\337\200\034\037x\226\243\304$\007Ys\265\376"
 415      1C1F7896 
 415      A3C42407 
 415      5973B5FE 
 416 09cd 66230E15 		.ascii	"f#\016\025\003\205\231\331'\273\204\237\005\276\201"
 416      038599D9 
 416      27BB849F 
 416      05BE81
 417 09dc 969966B2 		.ascii	"\226\231f\262\353]\261\224\036\356}\301<k\277iI\244"
 417      EB5DB194 
 417      1EEE7DC1 
 417      3C6BBF69 
 417      49A4
 418 09ee BB5B129D 		.ascii	"\273[\022\235c\032[\204\032\373\304.\306\\!5/\3355\350"
 418      631A5B84 
 418      1AFBC42E 
 418      C65C2135 
 418      2FDD35E8 
 419 0a02 15445A82 		.ascii	"\025DZ\202H\227\372\214\264p\331\225),Z\227\"\324\225"
 419      4897FA8C 
 419      B470D995 
 419      292C5A97 
 419      22D495
 420 0a15 0C33E670 		.ascii	"\0143\346pV\314\261Z\021\376%\264\2721W>\306\216\220"
 420      56CCB15A 
 420      11FE25B4 
 420      BA31573E 
 420      C68E90
 421 0a28 7F82C2FF 		.ascii	"\177\202\302\377{?I\250+\024\231a\3732\011\307m\223"
 421      7B3F49A8 
 421      2B149961 
 421      FB3209C7 
 421      6D93
 422 0a3a 311BD964 		.ascii	"1\033\331d\203Z\351\311\257\205X\233l\236i\254\353q"
 422      835AE9C9 
 422      AF85589B 
 422      6C9E69AC 
 422      EB71
 423 0a4c C77CD6D7 		.ascii	"\307|\326\327\204;\261\237\237!p\313\234-\016#Pj\343"
 423      843BB19F 
 423      9F2170CB 
 423      9C2D0E23 
 423      506AE3
 424 0a5f A68DADA6 		.ascii	"\246\215\255\246W\370\010?O\027\362\366\336,q\013\035"
 424      57F8083F 
 424      4F17F2F6 
 424      DE2C710B 
 424      1D
ARM GAS  /var/folders/c6/c789hm653lg9vtl73krp73tm0000gn/T//ccbA1dPv.s 			page 33


 425 0a70 72C07489 		.ascii	"r\300t\211S4\275\3423\215\206\257~=1IF\3727:\351\363"
 425      5334BDE2 
 425      338D86AF 
 425      7E3D3149 
 425      46FA373A 
 426 0a86 F4308C24 		.ascii	"\3640\214$\274\216\204\233|\334\032r\306G\247\247\260"
 426      BC8E849B 
 426      7CDC1A72 
 426      C647A7A7 
 426      B0
 427 0a97 018E9CEB 		.ascii	"\001\216\234\353=\274\217\177\230\207O\221\320\355\255"
 427      3DBC8F7F 
 427      98874F91 
 427      D0EDAD
 428 0aa6 B614AADD 		.ascii	"\266\024\252\3354\247W\267J\236TZ\207yI\024\255\327"
 428      34A757B7 
 428      4A9E545A 
 428      87794914 
 428      ADD7
 429 0ab8 D144B101 		.ascii	"\321D\261\001]\360\\\206\215\226\360\251\325S\220|\312"
 429      5DF05C86 
 429      8D96F0A9 
 429      D553907C 
 429      CA
 430 0ac9 4BE37629 		.ascii	"K\343v)\230\3728\371\300j\263\017|\366\265}\240\373"
 430      98FA38F9 
 430      C06AB30F 
 430      7CF6B57D 
 430      A0FB
 431 0adb 5E773E60 		.ascii	"^w>`\335n\226\204/\220r3\357\004\013\376\272k\252X\203"
 431      DD6E9684 
 431      2F907233 
 431      EF040BFE 
 431      BA6BAA58 
 432 0af0 4ED0ECCA 		.ascii	"N\320\354\312\011\272,N\360|?\003\265/NP\233\274b<\231"
 432      09BA2C4E 
 432      F07C3F03 
 432      B52F4E50 
 432      9BBC623C 
 433 0b05 44171E2B 		.ascii	"D\027\036+x8\217\013\362k\340S\336\024C\335+\371\336"
 433      78388F0B 
 433      F26BE053 
 433      DE1443DD 
 433      2BF9DE
 434 0b18 8764946B 		.ascii	"\207d\224k\365\021\231\326\364\343]\213j\306\344Zi5"
 434      F51199D6 
 434      F4E35D8B 
 434      6AC6E45A 
 434      6935
 435 0b2a CAE2761F 		.ascii	"\312\342v\037y \345\015\037>\220\202\365N\237\213\007"
 435      7920E50D 
 435      1F3E9082 
 435      F54E9F8B 
 435      07
 436 0b3b 525ACC6E 		.ascii	"RZ\314n\261\305\263\334\245.\275o\233\231\314\233\375"
 436      B1C5B3DC 
 436      A52EBD6F 
ARM GAS  /var/folders/c6/c789hm653lg9vtl73krp73tm0000gn/T//ccbA1dPv.s 			page 34


 436      9B99CC9B 
 436      FD
 437 0b4c BE9EF775 		.ascii	"\276\236\367utt\337\207\373f^\366<\273\331\000\377\016"
 437      7474DF87 
 437      FB665EF6 
 437      3CBBD900 
 437      FF0E
 438 0b5e C6EDEE0C 		.ascii	"\306\355\356\014\345\222\035L\213r\335\354\000\036\356"
 438      E5921D4C 
 438      8B72DDEC 
 438      001EEE
 439 0b6d AB24A98F 		.ascii	"\253$\251\217$\274\337\317\305\352\244\324F\351\251"
 439      24BCDFCF 
 439      C5EAA4D4 
 439      46E9A9
 440 0b7c 71B19DCD 		.ascii	"q\261\235\315\254z\335FL\0154\255\203[Q\031\007\321"
 440      AC7ADD46 
 440      4C0D34AD 
 440      835B5119 
 440      07D1
 441 0b8e D34E73CA 		.ascii	"\323Ns\312p\261\035\331\216]\216\360a\014c4\273Cp\304"
 441      70B11DD9 
 441      8E5D8EF0 
 441      610C6334 
 441      BB4370C4 
 442 0ba2 4514D726 		.ascii	"E\024\327&\017L3\357\254\313\342\233x\267\352Hv\007"
 442      0F4C33EF 
 442      ACCBE29B 
 442      78B7EA48 
 442      7607
 443 0bb4 CCAA4F8B 		.ascii	"\314\252O\213\011\217\230\342\343=\214\217c\346\230"
 443      098F98E2 
 443      E33D8C8F 
 443      63E698
 444 0bc3 9004BDC8 		.ascii	"\220\004\275\310\205\356\377\321\311\023\365\344\225"
 444      85EEFFD1 
 444      C913F5E4 
 444      95
 445 0bd0 03F4D68C 		.ascii	"\003\364\326\214\221\207\236\344\361\354\362\220\005"
 445      91879EE4 
 445      F1ECF290 
 445      05
 446 0bdd CF62CB64 		.ascii	"\317b\313d\303a\334\261\240\323\2339n\230\033\346\004"
 446      C361DCB1 
 446      A0D39B39 
 446      6E981BE6 
 446      04
 447 0bee 569B5C44 		.ascii	"V\233\\D\301\250\303/t\0036\322I\322\332\344\346\271"
 447      C1A8C32F 
 447      740336D2 
 447      49D2DAE4 
 447      E6B9
 448 0c00 86A5B6E1 		.ascii	"\206\245\266\341\344\344E\317xV\346\016\034^\304\360"
 448      E4E445CF 
 448      7856E60E 
 448      1C5EC4F0 
 449 0c10 E84D8855 		.ascii	"\350M\210Un\360\356t\346\357\322\\\313\\n\263g8\253"
ARM GAS  /var/folders/c6/c789hm653lg9vtl73krp73tm0000gn/T//ccbA1dPv.s 			page 35


 449      6EF0EE74 
 449      E6EFD25C 
 449      CB5C6EB3 
 449      6738AB
 450 0c23 21BE3C4C 		.ascii	"!\276<L\014\373\324 \333;\224\251\314M\366\014XL\315"
 450      0CFBD420 
 450      DB3B94A9 
 450      CC4DF60C 
 450      584CCD
 451 0c36 BB7C6930 		.ascii	"\273|i0\235\254\237\307\230:S\344\342V\247\005\010\037"
 451      9DAC9FC7 
 451      983A53E4 
 451      E256A705 
 451      081F
 452 0c48 BAE1022A 		.ascii	"\272\341\002*\271\232>\330{\301U4\275\356\371YUX\367"
 452      B99A3ED8 
 452      7BC15534 
 452      BDEEF959 
 452      5558F7
 453 0c5b 0CA269F1 		.ascii	"\014\242i\361o\350%]E\337HZ\374\022a.x\017c\226\340"
 453      6FE8255D 
 453      45DF485A 
 453      FC12612E 
 453      780F6396 
 454 0c70 E75DDE37 		.ascii	"\347]\3367\330\230\352S\306j\213\275\"Z\335m\335N\214"
 454      D898EA53 
 454      C66A8BBD 
 454      225ADD6D 
 454      DD4E8C
 455 0c83 050A56EF 		.ascii	"\005\012V\357\006,\313\360\276\201\200yQ\362^6g\354"
 455      062CCBF0 
 455      BE818079 
 455      51F25E36 
 455      67EC
 456 0c95 46F27F2A 		.ascii	"F\362\177*\376\006\224,\213\223\351\303\002\336\007"
 456      FE06942C 
 456      8B93E9C3 
 456      02DE07
 457 0ca4 EB9492CF 		.ascii	"\353\224\222\317\017\336\270F\327W?\354e\363\361\320"
 457      0FDEB846 
 457      D7573FEC 
 457      65F3F1D0 
 458 0cb4 57EDCC63 		.ascii	"W\355\314c\256\2410\2633\204\271\306\013\343r+O\022"
 458      AEA130B3 
 458      3384B9C6 
 458      0BE3722B 
 458      4F12
 459 0cc6 16F376B1 		.ascii	"\026\363v\261\313\236v\233\307v\037s0\311\342E\314\376"
 459      CB9E769B 
 459      C7761F73 
 459      30C9E245 
 459      CCFE
 460 0cd8 9FE2BCA8 		.ascii	"\237\342\274\250\023\353.\254?\307\372\013\353\250\360"
 460      13EB2EAC 
 460      3FC7FA0B 
 460      EBA8F0
 461 0ce7 5231973C 		.ascii	"R1\227<\254\201\312\232\367\270f$}\003\032\246i\022"
ARM GAS  /var/folders/c6/c789hm653lg9vtl73krp73tm0000gn/T//ccbA1dPv.s 			page 36


 461      AC81CA9A 
 461      F7B86624 
 461      7D031AA6 
 461      6912
 462 0cf9 4ED3249C 		.ascii	"N\323$\234\246a\275\023\353}X_\302\272\023\353.\254"
 462      A661BD13 
 462      EB7D585F 
 462      C2BA13EB 
 462      2EAC
 463 0d0b 3FC7BA0E 		.ascii	"?\307\272\016\331\234\216\365,\254\347c}\000\353\023"
 463      D99C8EF5 
 463      2CACE763 
 463      7D00EB13 
 464 0d1b 589FC4BA 		.ascii	"X\237\304\272\015\3533X\177\200\365GX\237s3\031\344"
 464      0DEB3358 
 464      7F80F547 
 464      589F7333 
 464      19E4
 465 0d2d 9693C678 		.ascii	"\226\223\306x\274\276\3177\316:;Z\313\3147\010d\361"
 465      BCBECF37 
 465      CE3A3B5A 
 465      CBCC3708 
 465      64F1
 466 0d3f 2DCF88A5 		.ascii	"-\317\210\245\331T\273\336\244\332\215\250\332M\250"
 466      D954BBDE 
 466      A4DA8DA8 
 466      DA4DA8
 467 0d4e B01ABFC5 		.ascii	"\260\032\277\305\242\253\212\215'1\372\266>8t\314:Z"
 467      A2AB8A8D 
 467      2731FAB6 
 467      3E3874CC 
 467      3A5A
 468 0d60 6DE0F13C 		.ascii	"m\340\361<e\020=y\364\030\246\243\3758ih\366\014Vja"
 468      65103D79 
 468      F418A6A3 
 468      FD386968 
 468      F60C566A 
 469 0d75 EED4D3D6 		.ascii	"\356\324\323\326\307\023\336r\203\227\345\036L\3731"
 469      C713DE72 
 469      8397E51E 
 469      4CFB31
 470 0d84 D33D983D 		.ascii	"\323=\230=\236\301\254\314]6\203\035r\003fw\017\306"
 470      9EC1ACCC 
 470      5D36831D 
 470      72036677 
 470      0FC6
 471 0d96 DEF8AB4C 		.ascii	"\336\370\253L\306oB\343\277N\243\305O\352\307\261\236"
 471      C66F42E3 
 471      BF4EA3C5 
 471      4FEAC7B1 
 471      9E
 472 0da7 8AF51358 		.ascii	"\212\365\023XO\263:\305\251b\343\301\"F\314\372\374"
 472      4FB33AC5 
 472      A962E3C1 
 472      2246CCFA 
 472      FC
 473 0db8 4E6F5EA1 		.ascii	"No^\241'\327:?Rd\267\272\203yw\373\220\243t\177\331"
ARM GAS  /var/folders/c6/c789hm653lg9vtl73krp73tm0000gn/T//ccbA1dPv.s 			page 37


 473      27D73A3F 
 473      5264B7BA 
 473      837977FB 
 473      90A3747F 
 474 0dcd 4F0CFF21 		.ascii	"O\014\377!\227;\335,\237\261\313L\177\306\274\373h\210"
 474      973BDD2C 
 474      9FB1CB4C 
 474      7FC6BCFB 
 474      6888
 475 0ddf CEBBC9A9 		.ascii	"\316\273\311\251\336g\012W\346ey2\307\374\030@\212\374"
 475      DE670A57 
 475      E6657932 
 475      C7FC1840 
 475      8AFC
 476 0df1 77CC62B4 		.ascii	"w\314b\264\016\241\017\030\315C1f\226\364*\206\025G"
 476      0EA10F18 
 476      CD433166 
 476      96F42A86 
 476      1547
 477 0e03 12966297 		.ascii	"\022\226b\227\247m\304x\210\212\361\264+16\3163<\177"
 477      A76DC478 
 477      888AF1B4 
 477      2B3136CE 
 477      333C7F
 478 0e16 AE9FF8D7 		.ascii	"\256\237\370\327\353)\330>\245\253\344\246#\350\254"
 478      EB29D83E 
 478      A5ABE4A6 
 478      23E8AC
 479 0e25 146CB367 		.ascii	"\024l\263g0\253\347o=\342u6\326\325y\364E\266\023\266"
 479      30ABE76F 
 479      3DE27536 
 479      D6D579F4 
 479      45B613B6 
 480 0e39 D44FD2CC 		.ascii	"\324O\322\314\233\234f\3738\035\333\343F\022\347\371"
 480      9B9C66FB 
 480      381DDBE3 
 480      4612E7F9 
 481 0e49 0ED9ED79 		.ascii	"\016\331\355yhc\346n\217\373'w_\362s\217I\217\342~\241"
 481      6863E66E 
 481      8FFB2777 
 481      5FF2738F 
 481      498FE27E 
 482 0e5e 9055296D 		.ascii	"\220U)m\177\377\022\372\30424\313aN'\334\036+!\345\304"
 482      7FFF12FA 
 482      C43234CB 
 482      614E27DC 
 482      1E2B21E5 
 483 0e73 C60ABFF3 		.ascii	"\306\012\277\363o\207\270s\220\035<+\315b~2\364\375"
 483      6F87B873 
 483      901D3C2B 
 483      CD627E32 
 483      F4FD
 484 0e85 CE18FA70 		.ascii	"\316\030\372pI\362\261\033@\367\263\233t\360\300z\321"
 484      49F2B11B 
 484      40F7B39B 
 484      74F0C07A 
 484      D1
ARM GAS  /var/folders/c6/c789hm653lg9vtl73krp73tm0000gn/T//ccbA1dPv.s 			page 38


 485 0e96 4F92DF62 		.ascii	"O\222\337bLrK\260~\026\353\027\261^\351w1\364\023\237"
 485      4C724BB0 
 485      7E16EB17 
 485      B15EE977 
 485      31F4139F 
 486 0eaa 4F613FE3 		.ascii	"Oa?\343\227X\226\351[\034]K\307\221,6z\006\263(29#5"
 486      975896E9 
 486      5B1C5D4B 
 486      C7912C36 
 486      7A06B328 
 487 0ec2 F692A090 		.ascii	"\366\222\240\220\305\027\334\340e\231\275\257\242#\022"
 487      C517DCE0 
 487      6599BDAF 
 487      A22312
 488 0ed1 8DB04F4B 		.ascii	"\215\260OKD\217`\245\331\2142\323d\224\331h\2249h\202"
 488      448F60A5 
 488      D98C32D3 
 488      6494D968 
 488      94396882 
 489 0ee5 5558AFC6 		.ascii	"UX\257\306\272\311:\012]-\341F!k\312\267\033\024\315"
 489      BAC93A0A 
 489      5D2DE146 
 489      216BCAB7 
 489      1B14CD
 490 0ef8 FAD1935B 		.ascii	"\372\321\223[~\327 \333\245\334\273\214\276\263-\017"
 490      7ED720DB 
 490      A5DCBB8C 
 490      BEB32D0F 
 491 0f08 871EFD3E 		.ascii	"\207\036\375>\335\372Y\207\271\273\246\177\357\271\333"
 491      DDFA5987 
 491      B9BBA67F 
 491      EFB9DB
 492 0f17 0A24090D 		.ascii	"\012$\011\015\264Of\362\336\033\245\311{c\357\311{r"
 492      B44F66F2 
 492      DE1BA5C9 
 492      7B63EFC9 
 492      7B72
 493 0f29 5D72EDC2 		.ascii	"]r\355\302\027\323cP\235\327\347\370%\2411\305F_\234"
 493      17D36350 
 493      9DD7E7F8 
 493      25A131C5 
 493      465F9C
 494 0f3c 544F361F 		.ascii	"TO6\0377\374\212n\345\277\354\031\317j\207\303\307\321"
 494      37FC8A6E 
 494      E5BFEC19 
 494      CF6A87C3 
 494      C7D1
 495 0f4e AF285893 		.ascii	"\257(X\223\033\260,\023\304\216\377\2625j25o\2557\031"
 495      1BB02C13 
 495      C48EFFB2 
 495      356A3235 
 495      6FAD3719 
 496 0f62 75E399B6 		.ascii	"u\343\231\266\353\351\336\303\0164\352\346\336\215\312"
 496      EBE9DEC3 
 496      0E34EAE6 
 496      DE8DCA
 497 0f71 01E14E30 		.ascii	"\001\341N0g\320\344\222\026\334{hq5\024\257o1\264\031"
ARM GAS  /var/folders/c6/c789hm653lg9vtl73krp73tm0000gn/T//ccbA1dPv.s 			page 39


 497      67D0E492 
 497      16DC7B68 
 497      713514AF 
 497      6F31B419 
 498 0f85 20F2EF41 		.ascii	" \362\357A\026Z\372\234A\232\247\272\233\240\330\356"
 498      165AFA9C 
 498      419AA7BA 
 498      9BA0D8EE 
 499 0f95 A2CF6921 		.ascii	"\242\317i!\273\350{P\027\207z"
 499      BBE87B50 
 499      17877A
 500 0fa0 D745E62F 		.ascii	"\327E\346/\315\367\362\2528@\267a\366\272R\305\361\235"
 500      CDF7F2AA 
 500      3840B761 
 500      F6BA52C5 
 500      F19D
 501 0fb2 E6842509 		.ascii	"\346\204%\011\037 \013{\373\254\213\316)\326\371\375"
 501      1F200B7B 
 501      FBAC8BCE 
 501      29D6F9FD 
 502 0fc2 05CF78A5 		.ascii	"\005\317x\245\026\274\253t/\004\007\245\0167XY\222\351"
 502      16BCAB74 
 502      2F0407A5 
 502      0E375859 
 502      92E9
 503 0fd4 AC96457F 		.ascii	"\254\226E\177\247\267%E\343\341\224k<\236\335c\002\356"
 503      A7B72545 
 503      E3E1946B 
 503      3C9EDD63 
 503      02EE
 504 0fe6 F3E95E53 		.ascii	"\363\351^S>\335\207\371t?\346\320\203X\037\306\372\250"
 504      3EDD87F9 
 504      743FE6D0 
 504      83581FC6 
 504      FAA8
 505 0ff8 9BE1ED2F 		.ascii	"\233\341\355/~S\346x"
 505      7E53E678 
 506 1000 7C8057E7 		.ascii	"|\200W\3474+\020\"\375\356\006\331xk\001IY{\322Hz*\256"
 506      342B1022 
 506      FDEE06D9 
 506      786B0149 
 506      597BD248 
 507 1017 7423AE4E 		.ascii	"t#\256N\370\275\276\266\340}\277\375k\013F\245$x\212"
 507      F8BDBEB6 
 507      E07DBFFD 
 507      6B0B46A5 
 507      24788A
 508 102a 9780A39B 		.ascii	"\227\200\243\233\305p\366\212n1)\272\025\025\275\013"
 508      C570F68A 
 508      6E3129BA 
 508      1515BD0B 
 509 103a 95FB36D6 		.ascii	"\225\3736\326\307\255C\326\334\001\\r\343\262\211g3"
 509      C7AD43D6 
 509      DC015C72 
 509      E3B28967 
 509      33
 510 104b 6F3451DF 		.ascii	"o4Q\337\214\324\267 \335f\254\267c\375\246\225\207\347"
ARM GAS  /var/folders/c6/c789hm653lg9vtl73krp73tm0000gn/T//ccbA1dPv.s 			page 40


 510      8CD4B720 
 510      DD66ACB7 
 510      63FDA695 
 510      87E7
 511 105d 0670C326 		.ascii	"\006p\303&7L\261\266\363^{[G\307\336?\326\350\311\371"
 511      374CB1B6 
 511      F35E7B5B 
 511      47C7DE3F 
 511      D6E8C9F9 
 512 1071 C38C5F18 		.ascii	"\303\214_\030,\343!\255?'`\315d\226\254}\362da*m\367"
 512      2CE321AD 
 512      3F2760CD 
 512      6496AC7D 
 512      F264612A 
 513 1087 7A1766DE 		.ascii	"z\027f\336\345\363\267\341\243w\037`\242j\032\340\361"
 513      E5F3B7E1 
 513      A3771F60 
 513      A26A1AE0 
 513      F1
 514 1098 260C51DC 		.ascii	"&\014Q\334\307|\242\272\244\224\322\243.\326\200\037"
 514      C77CA2BA 
 514      A494D2A3 
 514      2ED6801F 
 515 10a8 B27B9E74 		.ascii	"\262{\236tS\364M\244\377\261\367,eo\322\217M&=\207&"
 515      53F44DA4 
 515      FFB1F72C 
 515      656FD28F 
 515      4D263D87 
 516 10bd 3D6F35E0 		.ascii	"=o5\340n^\333v\364\032\323\201\300+\233<\225\367?h?"
 516      6E5EDB76 
 516      F41AD381 
 516      C02B9B3C 
 516      95F73F68 
 517 10d2 DBAD759F 		.ascii	"\333\255u\237\00112\255\361\315'\233\351\303\216\027"
 517      013132AD 
 517      F1CD279B 
 517      E9C38E17 
 518 10e2 51E37BEC 		.ascii	"Q\343{\3545\236\005\007\177\006k\253\362vW*\3574TN7"
 518      359E0507 
 518      7F066BAB 
 518      F276572A 
 518      EF34544E 
 519 10f7 824F2003 		.ascii	"\202O \003\355}\036\030>SZ\207\031Xg<c\225\232\265\231"
 519      ED7D1E18 
 519      3E535A87 
 519      1958673C 
 519      63959AB5 
 520 110c BC1CA8AF 		.ascii	"\274\034\250\257\3131n^|\302\203\331n\200f\011\204\253"
 520      CB316E5E 
 520      7CC283D9 
 520      6E806609 
 520      84AB
 521 111e 66B4CBAE 		.ascii	"f\264\313\256\320J]\273V\273\311\265.\241ku`\206\370"
 521      D04A5DBB 
 521      56BBC9B5 
 521      2EA16B75 
 521      6086F8
ARM GAS  /var/folders/c6/c789hm653lg9vtl73krp73tm0000gn/T//ccbA1dPv.s 			page 41


 522 1131 0CEBCB58 		.ascii	"\014\353\313Xw[\235\255f \347lV\273\262\346KY\274\255"
 522      775B9DAD 
 522      6620E76C 
 522      56BBB2E6 
 522      4B59BCAD 
 523 1145 B3E3E8FF 		.ascii	"\263\343\350\377\316\322u\020\313\310\374\340&\364i"
 523      CED27510 
 523      CBC8FCE0 
 523      26F469
 524 1154 5E03B2D8 		.ascii	"^\003\262\330\300\351\026\031\247\327<\247\376/\035"
 524      C0E91619 
 524      A7D73CA7 
 524      FE2F1D
 525 1163 52FFF529 		.ascii	"R\377\365)Q\246g\210b\245\313\332mv\262\330\353s\271"
 525      51A66788 
 525      62A5CBDA 
 525      6D76B2D8 
 525      EB73B9
 526 1176 691BED15 		.ascii	"i\033\355\025\334F[\201\333h\323Q\223k\261>\215\365"
 526      DC465B81 
 526      DB68D351 
 526      936BB13E 
 526      8DF5
 527 1188 59AC2F60 		.ascii	"Y\254/`\375\205U\303\213\007\032\301d\260e\375\035\037"
 527      FD8555C3 
 527      8B071AC1 
 527      64B065FD 
 527      1D1F
 528 119a FE1ED89F 		.ascii	"\376\036\330\237\372%(\267j\337\237\345\215\037z\300"
 528      FA2528B7 
 528      6ADF9FE5 
 528      8D1F7AC0 
 529 11aa FEED3BF4 		.ascii	"\376\355;\364G\205N\275j\034{\255\311\322\253\326\261"
 529      47854EBD 
 529      6A1C7BAD 
 529      C9D2ABD6 
 529      B1
 530 11bb 17F9F1B1 		.ascii	"\027\371\361\261S\257\272t/\346\034\215wro3*1\372H\254"
 530      53AFBA74 
 530      2FE61C8D 
 530      77726F33 
 530      2A31FA48 
 531 11d0 CFE48057 		.ascii	"\317\344\200W\327x<`\357\032\242\2254\377\036\245\221"
 531      D7783C60 
 531      EF1AA295 
 531      34FF1EA5 
 531      91
 532 11e1 C6754186 		.ascii	"\306uA\2063\3053\345\251\016\224s\030e\366&\223\255"
 532      33C533E5 
 532      A90E9473 
 532      1865F626 
 532      93AD
 533 11f3 4DFB26AD 		.ascii	"M\373&\255 ;\036\372W=\217\325L\026\215\037\0067\016"
 533      203B1EFA 
 533      573D8FD5 
 533      4C168D1F 
 533      06370E
ARM GAS  /var/folders/c6/c789hm653lg9vtl73krp73tm0000gn/T//ccbA1dPv.s 			page 42


 534 1206 B4E659FB 		.ascii	"\264\346Y\373w\222\324\007\270_\217?\021\310\370\351"
 534      7792D407 
 534      B85F8F3F 
 534      11C8F8E9 
 535 1216 3110D9B8 		.ascii	"1\020\331\270\371\215\247\304\031\257M\321\311\357\227"
 535      F98DA7C4 
 535      19AF4DD1 
 535      C9EF97
 536 1225 1F5B926C 		.ascii	"\037[\222l\360\273\337\206z*\300mC\221\3354\356\007"
 536      F0BBDF86 
 536      7A2AC06D 
 536      4391DD34 
 536      EE07
 537 1237 E1EF5998 		.ascii	"\341\357Y\230\305+%\341\343\201L\311\354\007\363\373"
 537      C52B25E1 
 537      E3814CC9 
 537      EC07F3FB 
 538 1247 D88B41F0 		.ascii	"\330\213A\360^@\027\366\230\026p|1\010\335\262c2w\326"
 538      5E4017F6 
 538      9816707C 
 538      3108DDB2 
 538      633277D6 
 539 125b DC3F2825 		.ascii	"\334?(%\3634^\346\351V\2319\037<\233%Jf\247}0\365b\231"
 539      F3345EE6 
 539      E9569939 
 539      1F3C9B25 
 539      4A66A77D 
 540 1273 F74D2F96 		.ascii	"\367M/\226i\3145\314\361\205+s\314\341Y\233kk\216-M"
 540      69CC35CC 
 540      F1852B73 
 540      CCE1599B 
 540      6B6B8E2D 
 541 1288 A7AB8C57 		.ascii	"\247\253\214W\304\334hPx\374;n(\314\347),\310*\374\305"
 541      C4DC6850 
 541      78FC3B6E 
 541      28CCE729 
 541      2CC82AFC 
 542 129d 2CC22FCC 		.ascii	",\302/\314\020~\345\213\273\330\233;\352\352\311v\021"
 542      107EE58B 
 542      BBD89B3B 
 542      EAEAC976 
 542      11
 543 12ae 7D37C59F 		.ascii	"}7\305\2379\306\23097\363\357ZX\344hL\363\273\026Nq"
 543      39C69839 
 543      37F3EF5A 
 543      58E4684C 
 543      F3BB164E 
 544 12c3 EFA670EE 		.ascii	"\357\246p\356ey7\305{\272\311\003\026\361JXlU\202\340"
 544      657937C5 
 544      7BBAC903 
 544      16F14A58 
 544      6C5582E0 
 545 12d7 0F57C8EA 		.ascii	"\017W\310\352\017\207\016-\243\177U\2112U+\213T\206"
 545      0F870E2D 
 545      A37F5589 
 545      32552B8B 
 545      5486
ARM GAS  /var/folders/c6/c789hm653lg9vtl73krp73tm0000gn/T//ccbA1dPv.s 			page 43


 546 12e9 A3D5E54A 		.ascii	"\243\325\345JY\270\"\246\304\342UU\321\304\320\012\241"
 546      59B822A6 
 546      C4E25555 
 546      D1C4D00A 
 546      A1
 547 12fa 1FB4ABD4 		.ascii	"\037\264\253\324I!\362\177H\313\271\3737\017\226\216"
 547      4921F27F 
 547      48CBB9FB 
 547      370F968E 
 548 130a 160AF0BF 		.ascii	"\026\012\360\277\012E.W\324`\274\"T\251<\252\005cq\374"
 548      0A452E57 
 548      D460BC22 
 548      54A93CAA 
 548      056371FC 
 549 131e FECFB2EA 		.ascii	"\376\317\262\352\204Z\026\255\012\313\321\262\321J4"
 549      845A16AD 
 549      0ACBD1B2 
 549      D14A34
 550 132d 2AAB65E3 		.ascii	"*\253e\343\303\341\233e5vseU\245r\263\"\217\215\224"
 550      C3E19B65 
 550      35767365 
 550      55A572B3 
 550      228F8D94 
 551 1341 FD7CD8CF 		.ascii	"\375|\330\317\206\017\0339lDY42\226\234.\263\236\036"
 551      860F1B39 
 551      6C445934 
 551      32969C2E 
 551      B39E1E
 552 1354 3E74E4D0 		.ascii	">t\344\320\341)~\022Zy\2712\016x\311ID\376\250\204\264"
 552      E1297E12 
 552      5A79B932 
 552      0E78C949 
 552      44FEA884 
 553 1369 22A05435 		.ascii	"\"\240T5\366\367JX\013\221\003\377\220M\214p\225\252"
 553      F6F74A58 
 553      0B9103FF 
 553      904D8C70 
 553      95AA
 554 137b 40CF4268 		.ascii	"@\317Bh\216W\264q\325\225\341\220V\000\375\343j\325"
 554      8E57B471 
 554      D595E190 
 554      5600FDE3 
 554      6AD5
 555 138d 8408707F 		.ascii	"\204\010p\177\203c\347\304$\"~A\270\342\201I\211\007"
 555      8363E7C4 
 555      24227E41 
 555      B8E28149 
 555      8907
 556 139f 2B419E47 		.ascii	"+A\236GJ\271k\023j\330\254\253\260P\022\256\270\037"
 556      4AB96B13 
 556      6AD8ACAB 
 556      B05012AE 
 556      B81F
 557 13b1 9AFF8EBC 		.ascii	"\232\377\216\274\215\251\214hR,\356',\346\032\344\012"
 557      8DA98C68 
 557      522CEE27 
 557      2CE61AE4 
ARM GAS  /var/folders/c6/c789hm653lg9vtl73krp73tm0000gn/T//ccbA1dPv.s 			page 44


 557      0A
 558 13c2 E9157745 		.ascii	"\351\025wE\001oL\201\351\037\326\376\265\252(c\374 "
 558      016F4C81 
 558      E91FD6FE 
 558      B5AA2863 
 558      FC20
 559 13d4 5C3C3F7D 		.ascii	"\\<?}\240\2306\357\255\222\313\357RUy\222\030\027+\363"
 559      A09836EF 
 559      AD92CBEF 
 559      52557992 
 559      18172BF3 
 560 13e8 90AF7BE4 		.ascii	"\220\257{\344\250v\243\263\004\232\254\021\031\206\204"
 560      A876A3B3 
 560      049AAC11 
 560      198684
 561 13f7 B0057555 		.ascii	"\260\005uU<\024S\344D\265\252\204\302jD\013i\025\345"
 561      3C1453E4 
 561      44B5AA84 
 561      C26A440B 
 561      6915E5
 562 140a CEDDCB95 		.ascii	"\316\335\313\225\261\325\343\241{\377P\371\330\361\241"
 562      B1D5E3A1 
 562      7BFF50F9 
 562      D8F1A1
 563 1419 7085127E 		.ascii	"p\205\022~$T\215\212\0009\377y\354\370\321\344\310\350"
 563      24548D8A 
 563      0039FF79 
 563      ECF8D1E4 
 563      C8E8
 564 142b A89C488C 		.ascii	"\250\234H\214)6]B.\370~\212\242\254j\031$sC!4D\250\237"
 564      29365D42 
 564      2EF87E8A 
 564      A2AC6A19 
 564      24734321 
 565 1443 D1183A62 		.ascii	"\321\030:b\344\255?/4\251ZH\237\272u\304\210\333\373"
 565      E4AD3F2F 
 565      34A95A48 
 565      9FBA75C4 
 565      88DBFB
 566 1456 F38AB59C 		.ascii	"\363\212\265\234\277\355\226~f\265Z\316\215\274\245"
 566      BFED967E 
 566      66B55ACE 
 566      8DBCA5
 567 1465 D0A459CB 		.ascii	"\320\244Y\313\251[G\224p\212\025x\013\233t\011\372\000"
 567      A95B4794 
 567      708A1578 
 567      0B9B7409 
 567      FA00
 568 1477 5D38870C 		.ascii	"]8\207\014\270\2136)\2560\237\011\221\177\225XH\313"
 568      B88B3629 
 568      AE309F09 
 568      917F9558 
 568      48CB
 569 1489 4BB50B55 		.ascii	"K\265\013U\010\227I\241h$\001J\000\206C\351\377\213"
 569      089749A1 
 569      6824014A 
 569      008643E9 
ARM GAS  /var/folders/c6/c789hm653lg9vtl73krp73tm0000gn/T//ccbA1dPv.s 			page 45


 569      FF8B
 570 149b B50AF24F 		.ascii	"\265\012\362O\"\364\207j\245\032\034\034\370\012Y\016"
 570      22F4876A 
 570      A51A1C1C 
 570      F80A590E 
 571 14ab E5D2FF28 		.ascii	"\345\322\377(\034m\347\320h\313!\256\254L\030\316\361"
 571      1C6DE7D0 
 571      68CB21AE 
 571      AC4C18CE 
 571      F1
 572 14bc 15AF52B5 		.ascii	"\025\257R\265D\331]\277\275o\364}\217\226\205\253b\361"
 572      44D95DBF 
 572      BD6FF47D 
 572      8F9685AB 
 572      62F1
 573 14ce 48545113 		.ascii	"HTQ\023ew\217\036\015\254\032|\006\265\270\032\251\012"
 573      65778F1E 
 573      0DAC1A7C 
 573      06B5B81A 
 573      A90A
 574 14e0 69F77A8A 		.ascii	"i\367z\212X\353aS\214F*5\000\315\255\206\357[~\036\322"
 574      58EB6153 
 574      8C462A35 
 574      00CDAD86 
 574      EF5B7E1E 
 575 14f5 FEFB1B40 		.ascii	"\376\373\033@\215\311\341\212H\245R\026\202\370\227"
 575      8DC9E18A 
 575      48A55216 
 575      82F897
 576 1504 ABA3A038 		.ascii	"\253\243\2408\306z~(d\320A\015D\252\202\341\252J\015"
 576      C67A7E28 
 576      64D0410D 
 576      44AA82E1 
 576      AA4A0D
 577 1517 14725356 		.ascii	"\024rSVMT\260|P@\016\207\000!\254=\372\343\336{\204"
 577      4D54B07C 
 577      50400E87 
 577      0021AC3D 
 577      FAE3DE7B 
 578 152c 26DC1623 		.ascii	"&\334\026#\262\251\312x`4\244I\352pI\035!\251\267J\352"
 578      B2A9CA78 
 578      6034A449 
 578      EA70491D 
 578      21A9B74A 
 579 1541 6D923A52 		.ascii	"m\222:RRo\367\251?\033\006\345gRT\205\257[\002\361\020"
 579      526FF7A9 
 579      3F1B06E5 
 579      67525485 
 579      AF5B02F1 
 580 1556 2007898D 		.ascii	" \007\211\215&\222\024\031\252\212B\364\023\233\311"
 580      26921419 
 580      AA8A42F4 
 580      139BC9
 581 1565 31253FA1 		.ascii	"1%?\241=\"G#\343+C\032j\353\326\341!\215\011\204\315"
 581      3D224723 
 581      E32B431A 
 581      6AEBD6E1 
ARM GAS  /var/folders/c6/c789hm653lg9vtl73krp73tm0000gn/T//ccbA1dPv.s 			page 46


 581      218D0984 
 582 157a 38C4CD23 		.ascii	"8\304\315#\321H,\242\345j$\216\300#\202\344\344H\260"
 582      D1482CA2 
 582      E56A248E 
 582      C02382E4 
 582      E448B0
 583 158d 3FBD0C5A 		.ascii	"?\275\014Z\3018\306\230\022\324bU\345\012\376?.*\217"
 583      C138C698 
 583      12D46255 
 583      E50AFE3F 
 583      2E2A8F
 584 15a0 4F043555 		.ascii	"O\0045U\031\227@\265\220F \226\030\017'\231\256\240"
 584      199740B5 
 584      90462096 
 584      180F2799 
 584      AEA0
 585 15b2 BBA135B5 		.ascii	"\273\2415\265|\022\234\312U\036\215ha\000\310\231\250"
 585      7C129CCA 
 585      551E8D68 
 585      6100C899 
 585      A8
 586 15c3 91AC3380 		.ascii	"\221\2543\2009\032tUT\2452\014\300\201\211\232\246\306"
 586      391A7455 
 586      54A5320C 
 586      C081899A 
 586      A6C6
 587 15d5 0B891F2B 		.ascii	"\013\211\037+19^\001\352\310\2224\025\242\247 s\333"
 587      31395E01 
 587      EAC89234 
 587      15A2A720 
 587      73DB
 588 15e7 40B8124C 		.ascii	"@\270\022L\026H\204\340\033\010\300\311x.\340\304\252"
 588      164884E0 
 588      1B08C0C9 
 588      782EE0C4 
 588      AA
 589 15f8 C150CE18 		.ascii	"\301P\316\0301\355Q\202\021\243\030\360]5\261\022t\210"
 589      31ED5182 
 589      11A318F0 
 589      5D35B112 
 589      7488
 590 160a BD80F118 		.ascii	"\275\200\361\030\365\373\211\032\\\027/P&(\225ZLN<\002"
 590      F5FB891A 
 590      5C172F50 
 590      2628955A 
 590      4C4E3C02 
 591 161e 679489A4 		.ascii	"g\224\211\244\341\213\207\252\213\214\350\241\321Vl"
 591      E18B87AA 
 591      8B8CE8A1 
 591      D1566C
 592 162d 8A277224 		.ascii	"\212'r$/\036\232(G\264H\345x\3205h\2012\213M8\240\304"
 592      2F1E9A28 
 592      47B448E5 
 592      78D03568 
 592      81328B4D 
 593 1644 954A70E6 		.ascii	"\225Jp\346\361p\025\220 \327\347\023]\312Qt38H\322\375"
 593      F1701590 
ARM GAS  /var/folders/c6/c789hm653lg9vtl73krp73tm0000gn/T//ccbA1dPv.s 			page 47


 593      20D7E713 
 593      5DCA5174 
 593      333848D2 
 594 1659 F58EEC6B 		.ascii	"\365\216\354kD\003\003\264HL1\022_L!j\010\252\032\252"
 594      440303B4 
 594      484C3112 
 594      5F4C216A 
 594      08AA1AAA 
 595 166d C33F5649 		.ascii	"\303?VI\200R\253\324\204\346\207\344\251\345T\343\341"
 595      8052ABD4 
 595      84E687E4 
 595      A9E554E3 
 595      E1
 596 167e 5C55C33E 		.ascii	"\\U\303>Z~\270:V\035\225\265\310\004\205\3318\021T\251"
 596      5A7EB83A 
 596      561D95B5 
 596      C80485D9 
 596      381154A9 
 597 1692 2E725474 		.ascii	".rTt\365\200\212\316\2452\347R\251s\345\301\321j\025"
 597      F5808ACE 
 597      A532E752 
 597      A973E5C1 
 597      D16A15
 598 16a5 8CA60554 		.ascii	"\214\246\005T\302\364w'DT\255Z\206A\033`UC\025\337\003"
 598      C2F47727 
 598      4454AD5A 
 598      86411B60 
 598      554315DF 
 599 16ba 55D89C28 		.ascii	"U\330\234(\266\034\243\031\310r(8A\243\243<|\223\204"
 599      B61CA319 
 599      C8722838 
 599      41A3A33C 
 599      7C9384
 600 16cd 9347921A 		.ascii	"\223G\222\032\362\233\013G\312\225\250&C\203\216\257"
 600      F29B0B47 
 600      CA95A826 
 600      43838EAF 
 601 16dd E41AD2CA 		.ascii	"\344\032\322\312!\327\312j\001|\021A\311\345p\210\220"
 601      21D7CA6A 
 601      017C1141 
 601      C9E57088 
 601      90
 602 16ee 2B62E911 		.ascii	"+b\351\021\207\030j\037\363\221\274\270\\\031\011\023"
 602      87186A1F 
 602      F391BCB8 
 602      5C190913 
 603 16fe 73042309 		.ascii	"s\004#\011\225xO.\031\024H\243?1\245*\203c\216\255\036"
 603      95784F2E 
 603      191448A3 
 603      3F31A52A 
 603      83638EAD 
 604 1713 378EB01A 		.ascii	"7\216\260\032\324\306\3424\240\210\200L\014\207\320"
 604      D4C6E234 
 604      A088804C 
 604      0C87D0
 605 1722 23E07042 		.ascii	"#\340pBA\316\003\344;\236\0075\365\360\\ha\340\344@"
 605      41CE03E4 
ARM GAS  /var/folders/c6/c789hm653lg9vtl73krp73tm0000gn/T//ccbA1dPv.s 			page 48


 605      3B9E0735 
 605      F5F05C68 
 605      61E0E440 
 606 1736 BFB8A6E6 		.ascii	"\277\270\246\346\301\027\205*4\343\372`@\313\217\311"
 606      C117852A 
 606      34E3FA60 
 606      40CB8FC9 
 607 1746 102DE837 		.ascii	"\020-\3507%Z,\004\211,2V\005\303TA\340\346T\215\033"
 607      255A2C04 
 607      892C3256 
 607      05C35441 
 607      E0E6548D 
 608 175b 97503449 		.ascii	"\227P4I\213\025=\242\250\225J\224\215xZ\2402\024Q\377"
 608      8B153DA2 
 608      A8954A94 
 608      8D785AA0 
 608      321451FF 
 609 176f 905B494C 		.ascii	"\220[IL\004\354\344\307R\303\236\321\004\221\012\315"
 609      04ECE4C7 
 609      52C39ED1 
 609      04910ACD 
 610 177f 7D8A22E5 		.ascii	"}\212\"\345Q\205\371'\370\245\024\256\240\331\211\216"
 610      5185F927 
 610      F8A514AE 
 610      A0D9898E 
 611 178f B53F353B 		.ascii	"\265?5;\032\030\240l\364}\017\214y \355o$;\205c\277"
 611      1A18A06C 
 611      F47D0F8C 
 611      7920ED6F 
 611      243B8563 
 612 17a4 067593C9 		.ascii	"\006u\223\311Z\010\202T\013\375\352\256\007\376\345"
 612      5A088254 
 612      0BFDEAAE 
 612      07FEE5
 613 17b3 FEDF8EE9 		.ascii	"\376\337\216\351'G'\312\223\022\020\362QH\242\201\011"
 613      274727CA 
 613      931210F2 
 613      5148A281 
 613      09
 614 17c4 72B45AA1 		.ascii	"r\264Z\241\363\206{\0018\017\211\020"
 614      F3867B01 
 614      380F8910 
 615 17d0 12796CF4 		.ascii	"\022yl\364,/\377?\031\226\342_"
 615      2C2FFF3F 
 615      1996E25F 
 616              		.text
 617              		.section	.gnu.lto_.symtab.cc4c223ba5ed2fc4,"",%progbits
 618 0000 6368506F 		.ascii	"chPoolObjectInit\000\000\000\000\000\000\000\000\000"
 618      6F6C4F62 
 618      6A656374 
 618      496E6974 
 618      00000000 
 619 0019 000000D5 		.ascii	"\000\000\000\325\000\000\000chPoolAllocI\000\000\000"
 619      00000063 
 619      68506F6F 
 619      6C416C6C 
 619      6F634900 
ARM GAS  /var/folders/c6/c789hm653lg9vtl73krp73tm0000gn/T//ccbA1dPv.s 			page 49


 620 002f 00000000 		.ascii	"\000\000\000\000\000\000\000\000\000\342\000\000\000"
 620      00000000 
 620      00E20000 
 620      00
 621 003c 6368506F 		.ascii	"chPoolAlloc\000\000\000\000\000\000\000\000\000\000"
 621      6F6C416C 
 621      6C6F6300 
 621      00000000 
 621      00000000 
 622 0051 0000E800 		.ascii	"\000\000\350\000\000\000chPoolFreeI\000\000\000\000"
 622      00006368 
 622      506F6F6C 
 622      46726565 
 622      49000000 
 623 0066 00000000 		.ascii	"\000\000\000\000\000\000\000\000\354\000\000\000chP"
 623      00000000 
 623      EC000000 
 623      636850
 624 0075 6F6F6C46 		.ascii	"oolFree\000\000\000\000\000\000\000\000\000\000\000"
 624      72656500 
 624      00000000 
 624      00000000 
 624      0000
 625 0087 00F50000 		.ascii	"\000\365\000\000\000chPoolLoadArray\000\000\000\000"
 625      00636850 
 625      6F6F6C4C 
 625      6F616441 
 625      72726179 
 626 009f 00000000 		.ascii	"\000\000\000\000\000\000\000\000\372\000\000\000ch\000"
 626      00000000 
 626      FA000000 
 626      636800
 627 00ae 00020000 		.ascii	"\000\002\000\000\000\000\000\000\000\000\000%\001\000"
 627      00000000 
 627      00000025 
 627      0100
 628 00bc 00636853 		.ascii	"\000chSysHalt\000\000\002\000\000\000\000\000\000\000"
 628      79734861 
 628      6C740000 
 628      02000000 
 628      00000000 
 629 00d0 00000601 		.ascii	"\000\000\006\001\000\000_stats_stop_measure_crit_th"
 629      00005F73 
 629      74617473 
 629      5F73746F 
 629      705F6D65 
 630 00f1 64000002 		.ascii	"d\000\000\002\000\000\000\000\000\000\000\000\000\013"
 630      00000000 
 630      00000000 
 630      000B
 631 00ff 0100005F 		.ascii	"\001\000\000_dbg_check_unlock\000\000\002\000\000\000"
 631      6462675F 
 631      63686563 
 631      6B5F756E 
 631      6C6F636B 
 632 0119 00000000 		.ascii	"\000\000\000\000\000\000\015\001\000\000chDbgCheckC"
 632      00000D01 
ARM GAS  /var/folders/c6/c789hm653lg9vtl73krp73tm0000gn/T//ccbA1dPv.s 			page 50


 632      00006368 
 632      44626743 
 632      6865636B 
 633 012e 6C617373 		.ascii	"lassI\000\000\002\000\000\000\000\000\000\000\000\000"
 633      49000002 
 633      00000000 
 633      00000000 
 633      00
 634 013f 0F010000 		.ascii	"\017\001\000\000_dbg_check_lock\000\000\002\000\000"
 634      5F646267 
 634      5F636865 
 634      636B5F6C 
 634      6F636B00 
 635 0157 00000000 		.ascii	"\000\000\000\000\000\000\000\021\001\000\000_stats_"
 635      00000011 
 635      0100005F 
 635      73746174 
 635      735F
 636 0169 73746172 		.ascii	"start_measure_crit_thd\000\000\002\000\000\000\000\000"
 636      745F6D65 
 636      61737572 
 636      655F6372 
 636      69745F74 
 637 0187 00000000 		.ascii	"\000\000\000\000\023\001\000\000"
 637      13010000 
 638              		.text
 639              		.section	.gnu.lto_.opts,"",%progbits
 640 0000 272D6D63 		.ascii	"'-mcpu=cortex-m4' '-mno-thumb-interwork' '-mthumb' "
 640      70753D63 
 640      6F727465 
 640      782D6D34 
 640      2720272D 
 641 0033 272D6767 		.ascii	"'-ggdb' '-O2' '-fomit-frame-pointer' '-falign-funct"
 641      64622720 
 641      272D4F32 
 641      2720272D 
 641      666F6D69 
 642 0066 696F6E73 		.ascii	"ions=16' '-ffunction-sections' '-fdata-sections' '-"
 642      3D313627 
 642      20272D66 
 642      66756E63 
 642      74696F6E 
 643 0099 666E6F2D 		.ascii	"fno-common' '-flto'\000"
 643      636F6D6D 
 643      6F6E2720 
 643      272D666C 
 643      746F2700 
 644              		.text
 645              		.cfi_sections	.debug_frame
 646              		.section	.text.chPoolObjectInit,"ax",%progbits
 647              		.align	2
 648              		.p2align 4,,15
 649              		.global	chPoolObjectInit
 650              		.thumb
 651              		.thumb_func
 652              		.type	chPoolObjectInit, %function
 653              	chPoolObjectInit:
ARM GAS  /var/folders/c6/c789hm653lg9vtl73krp73tm0000gn/T//ccbA1dPv.s 			page 51


 654              	.LFB229:
 655              		.file 1 "../../../os/rt/src/chmempools.c"
 656              		.loc 1 75 0
 657              		.cfi_startproc
 658              		@ args = 0, pretend = 0, frame = 0
 659              		@ frame_needed = 0, uses_anonymous_args = 0
 660              	.LVL0:
 661 0000 70B5     		push	{r4, r5, r6, lr}
 662              		.cfi_def_cfa_offset 16
 663              		.cfi_offset 4, -16
 664              		.cfi_offset 5, -12
 665              		.cfi_offset 6, -8
 666              		.cfi_offset 14, -4
 667              		.loc 1 77 0
 668 0002 0446     		mov	r4, r0
 669              		.loc 1 75 0
 670 0004 0D46     		mov	r5, r1
 671 0006 1646     		mov	r6, r2
 672              		.loc 1 77 0
 673 0008 08B1     		cbz	r0, .L2
 674              		.loc 1 77 0 is_stmt 0 discriminator 2
 675 000a 0329     		cmp	r1, #3
 676 000c 02D8     		bhi	.L3
 677              	.L2:
 678              		.loc 1 77 0 discriminator 1
 679 000e 0348     		ldr	r0, .L8
 680              	.LVL1:
 681 0010 FFF7FEFF 		bl	chSysHalt
 682              	.LVL2:
 683              	.L3:
 684              		.loc 1 79 0 is_stmt 1
 685 0014 0023     		movs	r3, #0
 686 0016 84E86800 		stmia	r4, {r3, r5, r6}
 687 001a 70BD     		pop	{r4, r5, r6, pc}
 688              	.LVL3:
 689              	.L9:
 690              		.align	2
 691              	.L8:
 692 001c 00000000 		.word	.LANCHOR0
 693              		.cfi_endproc
 694              	.LFE229:
 695              		.size	chPoolObjectInit, .-chPoolObjectInit
 696              		.section	.text.chPoolAllocI,"ax",%progbits
 697              		.align	2
 698              		.p2align 4,,15
 699              		.global	chPoolAllocI
 700              		.thumb
 701              		.thumb_func
 702              		.type	chPoolAllocI, %function
 703              	chPoolAllocI:
 704              	.LFB231:
 705              		.loc 1 120 0
 706              		.cfi_startproc
 707              		@ args = 0, pretend = 0, frame = 0
 708              		@ frame_needed = 0, uses_anonymous_args = 0
 709              	.LVL4:
 710 0000 10B5     		push	{r4, lr}
ARM GAS  /var/folders/c6/c789hm653lg9vtl73krp73tm0000gn/T//ccbA1dPv.s 			page 52


 711              		.cfi_def_cfa_offset 8
 712              		.cfi_offset 4, -8
 713              		.cfi_offset 14, -4
 714              		.loc 1 120 0
 715 0002 0446     		mov	r4, r0
 716              		.loc 1 123 0
 717 0004 FFF7FEFF 		bl	chDbgCheckClassI
 718              	.LVL5:
 719              		.loc 1 124 0
 720 0008 4CB1     		cbz	r4, .L17
 721              	.L11:
 722              		.loc 1 126 0
 723 000a 2068     		ldr	r0, [r4]
 724              	.LVL6:
 725              		.loc 1 128 0
 726 000c 10B1     		cbz	r0, .L12
 727              		.loc 1 129 0
 728 000e 0368     		ldr	r3, [r0]
 729 0010 2360     		str	r3, [r4]
 730 0012 10BD     		pop	{r4, pc}
 731              	.LVL7:
 732              	.L12:
 733              		.loc 1 131 0
 734 0014 A368     		ldr	r3, [r4, #8]
 735 0016 0BB1     		cbz	r3, .L13
 736              		.loc 1 132 0
 737 0018 6068     		ldr	r0, [r4, #4]
 738              	.LVL8:
 739 001a 9847     		blx	r3
 740              	.LVL9:
 741              	.L13:
 742              		.loc 1 137 0
 743 001c 10BD     		pop	{r4, pc}
 744              	.LVL10:
 745              	.L17:
 746              		.loc 1 124 0 discriminator 1
 747 001e 0248     		ldr	r0, .L18
 748 0020 FFF7FEFF 		bl	chSysHalt
 749              	.LVL11:
 750 0024 F1E7     		b	.L11
 751              	.L19:
 752 0026 00BF     		.align	2
 753              	.L18:
 754 0028 00000000 		.word	.LANCHOR1
 755              		.cfi_endproc
 756              	.LFE231:
 757              		.size	chPoolAllocI, .-chPoolAllocI
 758 002c AFF30080 		.section	.text.chPoolAlloc,"ax",%progbits
 759              		.align	2
 760              		.p2align 4,,15
 761              		.global	chPoolAlloc
 762              		.thumb
 763              		.thumb_func
 764              		.type	chPoolAlloc, %function
 765              	chPoolAlloc:
 766              	.LFB232:
 767              		.loc 1 149 0
ARM GAS  /var/folders/c6/c789hm653lg9vtl73krp73tm0000gn/T//ccbA1dPv.s 			page 53


 768              		.cfi_startproc
 769              		@ args = 0, pretend = 0, frame = 0
 770              		@ frame_needed = 0, uses_anonymous_args = 0
 771              	.LVL12:
 772 0000 10B5     		push	{r4, lr}
 773              		.cfi_def_cfa_offset 8
 774              		.cfi_offset 4, -8
 775              		.cfi_offset 14, -4
 776              	.LBB36:
 777              	.LBB37:
 778              	.LBB38:
 779              	.LBB39:
 780              	.LBB40:
 781              		.file 2 "../../../os/ext/CMSIS/include/core_cmFunc.h"
 782              		.loc 2 546 0
 783 0002 2023     		movs	r3, #32
 784              	.LBE40:
 785              	.LBE39:
 786              	.LBE38:
 787              	.LBE37:
 788              	.LBE36:
 789              		.loc 1 149 0
 790 0004 0446     		mov	r4, r0
 791              	.LBB45:
 792              	.LBB44:
 793              	.LBB43:
 794              	.LBB42:
 795              	.LBB41:
 796              		.loc 2 546 0
 797              	@ 546 "../../../os/ext/CMSIS/include/core_cmFunc.h" 1
 798 0006 83F31188 		MSR basepri, r3
 799              	@ 0 "" 2
 800              		.thumb
 801              	.LBE41:
 802              	.LBE42:
 803              	.LBE43:
 804              		.file 3 "../../../os/rt/include/chsys.h"
 805              		.loc 3 349 0
 806 000a FFF7FEFF 		bl	_stats_start_measure_crit_thd
 807              	.LVL13:
 808              		.loc 3 350 0
 809 000e FFF7FEFF 		bl	_dbg_check_lock
 810              	.LVL14:
 811              	.LBE44:
 812              	.LBE45:
 813              		.loc 1 153 0
 814 0012 2046     		mov	r0, r4
 815 0014 FFF7FEFF 		bl	chPoolAllocI
 816              	.LVL15:
 817 0018 0446     		mov	r4, r0
 818              	.LVL16:
 819              	.LBB46:
 820              	.LBB47:
 821              		.loc 3 360 0
 822 001a FFF7FEFF 		bl	_dbg_check_unlock
 823              	.LVL17:
 824              		.loc 3 361 0
ARM GAS  /var/folders/c6/c789hm653lg9vtl73krp73tm0000gn/T//ccbA1dPv.s 			page 54


 825 001e FFF7FEFF 		bl	_stats_stop_measure_crit_thd
 826              	.LVL18:
 827              		.loc 3 367 0
 828 0022 084B     		ldr	r3, .L22
 829 0024 1A68     		ldr	r2, [r3]
 830 0026 9A42     		cmp	r2, r3
 831 0028 07D0     		beq	.L21
 832 002a 9969     		ldr	r1, [r3, #24]
 833 002c 9368     		ldr	r3, [r2, #8]
 834 002e 8A68     		ldr	r2, [r1, #8]
 835 0030 9A42     		cmp	r2, r3
 836 0032 02D2     		bcs	.L21
 837 0034 0448     		ldr	r0, .L22+4
 838 0036 FFF7FEFF 		bl	chSysHalt
 839              	.LVL19:
 840              	.L21:
 841              	.LBB48:
 842              	.LBB49:
 843              	.LBB50:
 844              		.loc 2 546 0
 845 003a 0023     		movs	r3, #0
 846              	@ 546 "../../../os/ext/CMSIS/include/core_cmFunc.h" 1
 847 003c 83F31188 		MSR basepri, r3
 848              	@ 0 "" 2
 849              		.thumb
 850              	.LBE50:
 851              	.LBE49:
 852              	.LBE48:
 853              	.LBE47:
 854              	.LBE46:
 855              		.loc 1 157 0
 856 0040 2046     		mov	r0, r4
 857 0042 10BD     		pop	{r4, pc}
 858              	.LVL20:
 859              	.L23:
 860              		.align	2
 861              	.L22:
 862 0044 00000000 		.word	ch
 863 0048 00000000 		.word	.LANCHOR2
 864              		.cfi_endproc
 865              	.LFE232:
 866              		.size	chPoolAlloc, .-chPoolAlloc
 867 004c AFF30080 		.section	.text.chPoolFreeI,"ax",%progbits
 868              		.align	2
 869              		.p2align 4,,15
 870              		.global	chPoolFreeI
 871              		.thumb
 872              		.thumb_func
 873              		.type	chPoolFreeI, %function
 874              	chPoolFreeI:
 875              	.LFB233:
 876              		.loc 1 171 0
 877              		.cfi_startproc
 878              		@ args = 0, pretend = 0, frame = 0
 879              		@ frame_needed = 0, uses_anonymous_args = 0
 880              	.LVL21:
 881 0000 38B5     		push	{r3, r4, r5, lr}
ARM GAS  /var/folders/c6/c789hm653lg9vtl73krp73tm0000gn/T//ccbA1dPv.s 			page 55


 882              		.cfi_def_cfa_offset 16
 883              		.cfi_offset 3, -16
 884              		.cfi_offset 4, -12
 885              		.cfi_offset 5, -8
 886              		.cfi_offset 14, -4
 887              		.loc 1 171 0
 888 0002 0446     		mov	r4, r0
 889 0004 0D46     		mov	r5, r1
 890              	.LVL22:
 891              		.loc 1 174 0
 892 0006 FFF7FEFF 		bl	chDbgCheckClassI
 893              	.LVL23:
 894              		.loc 1 175 0
 895 000a 24B1     		cbz	r4, .L25
 896              		.loc 1 175 0 is_stmt 0 discriminator 2
 897 000c 1DB1     		cbz	r5, .L25
 898              		.loc 1 177 0 is_stmt 1
 899 000e 2368     		ldr	r3, [r4]
 900 0010 2B60     		str	r3, [r5]
 901              		.loc 1 178 0
 902 0012 2560     		str	r5, [r4]
 903 0014 38BD     		pop	{r3, r4, r5, pc}
 904              	.LVL24:
 905              	.L25:
 906              		.loc 1 175 0 discriminator 1
 907 0016 0348     		ldr	r0, .L30
 908 0018 FFF7FEFF 		bl	chSysHalt
 909              	.LVL25:
 910              		.loc 1 177 0 discriminator 1
 911 001c 2368     		ldr	r3, [r4]
 912 001e 2B60     		str	r3, [r5]
 913              		.loc 1 178 0 discriminator 1
 914 0020 2560     		str	r5, [r4]
 915 0022 38BD     		pop	{r3, r4, r5, pc}
 916              	.LVL26:
 917              	.L31:
 918              		.align	2
 919              	.L30:
 920 0024 00000000 		.word	.LANCHOR3
 921              		.cfi_endproc
 922              	.LFE233:
 923              		.size	chPoolFreeI, .-chPoolFreeI
 924 0028 AFF30080 		.section	.text.chPoolFree,"ax",%progbits
 924      AFF30080 
 925              		.align	2
 926              		.p2align 4,,15
 927              		.global	chPoolFree
 928              		.thumb
 929              		.thumb_func
 930              		.type	chPoolFree, %function
 931              	chPoolFree:
 932              	.LFB234:
 933              		.loc 1 193 0
 934              		.cfi_startproc
 935              		@ args = 0, pretend = 0, frame = 0
 936              		@ frame_needed = 0, uses_anonymous_args = 0
 937              	.LVL27:
ARM GAS  /var/folders/c6/c789hm653lg9vtl73krp73tm0000gn/T//ccbA1dPv.s 			page 56


 938 0000 38B5     		push	{r3, r4, r5, lr}
 939              		.cfi_def_cfa_offset 16
 940              		.cfi_offset 3, -16
 941              		.cfi_offset 4, -12
 942              		.cfi_offset 5, -8
 943              		.cfi_offset 14, -4
 944              		.loc 1 193 0
 945 0002 0546     		mov	r5, r0
 946 0004 0C46     		mov	r4, r1
 947              	.LBB61:
 948              	.LBB62:
 949              	.LBB63:
 950              	.LBB64:
 951              	.LBB65:
 952              		.loc 2 546 0
 953 0006 2023     		movs	r3, #32
 954              	@ 546 "../../../os/ext/CMSIS/include/core_cmFunc.h" 1
 955 0008 83F31188 		MSR basepri, r3
 956              	@ 0 "" 2
 957              		.thumb
 958              	.LBE65:
 959              	.LBE64:
 960              	.LBE63:
 961              		.loc 3 349 0
 962 000c FFF7FEFF 		bl	_stats_start_measure_crit_thd
 963              	.LVL28:
 964              		.loc 3 350 0
 965 0010 FFF7FEFF 		bl	_dbg_check_lock
 966              	.LVL29:
 967              	.LBE62:
 968              	.LBE61:
 969              		.loc 1 196 0
 970 0014 2846     		mov	r0, r5
 971 0016 2146     		mov	r1, r4
 972 0018 FFF7FEFF 		bl	chPoolFreeI
 973              	.LVL30:
 974              	.LBB66:
 975              	.LBB67:
 976              		.loc 3 360 0
 977 001c FFF7FEFF 		bl	_dbg_check_unlock
 978              	.LVL31:
 979              		.loc 3 361 0
 980 0020 FFF7FEFF 		bl	_stats_stop_measure_crit_thd
 981              	.LVL32:
 982              		.loc 3 367 0
 983 0024 074B     		ldr	r3, .L34
 984 0026 1A68     		ldr	r2, [r3]
 985 0028 9A42     		cmp	r2, r3
 986 002a 07D0     		beq	.L33
 987 002c 9969     		ldr	r1, [r3, #24]
 988 002e 9368     		ldr	r3, [r2, #8]
 989 0030 8A68     		ldr	r2, [r1, #8]
 990 0032 9A42     		cmp	r2, r3
 991 0034 02D2     		bcs	.L33
 992 0036 0448     		ldr	r0, .L34+4
 993 0038 FFF7FEFF 		bl	chSysHalt
 994              	.LVL33:
ARM GAS  /var/folders/c6/c789hm653lg9vtl73krp73tm0000gn/T//ccbA1dPv.s 			page 57


 995              	.L33:
 996              	.LBB68:
 997              	.LBB69:
 998              	.LBB70:
 999              		.loc 2 546 0
 1000 003c 0023     		movs	r3, #0
 1001              	@ 546 "../../../os/ext/CMSIS/include/core_cmFunc.h" 1
 1002 003e 83F31188 		MSR basepri, r3
 1003              	@ 0 "" 2
 1004              		.thumb
 1005 0042 38BD     		pop	{r3, r4, r5, pc}
 1006              	.LVL34:
 1007              	.L35:
 1008              		.align	2
 1009              	.L34:
 1010 0044 00000000 		.word	ch
 1011 0048 00000000 		.word	.LANCHOR2
 1012              	.LBE70:
 1013              	.LBE69:
 1014              	.LBE68:
 1015              	.LBE67:
 1016              	.LBE66:
 1017              		.cfi_endproc
 1018              	.LFE234:
 1019              		.size	chPoolFree, .-chPoolFree
 1020 004c AFF30080 		.section	.text.chPoolLoadArray,"ax",%progbits
 1021              		.align	2
 1022              		.p2align 4,,15
 1023              		.global	chPoolLoadArray
 1024              		.thumb
 1025              		.thumb_func
 1026              		.type	chPoolLoadArray, %function
 1027              	chPoolLoadArray:
 1028              	.LFB230:
 1029              		.loc 1 97 0
 1030              		.cfi_startproc
 1031              		@ args = 0, pretend = 0, frame = 0
 1032              		@ frame_needed = 0, uses_anonymous_args = 0
 1033              	.LVL35:
 1034 0000 70B5     		push	{r4, r5, r6, lr}
 1035              		.cfi_def_cfa_offset 16
 1036              		.cfi_offset 4, -16
 1037              		.cfi_offset 5, -12
 1038              		.cfi_offset 6, -8
 1039              		.cfi_offset 14, -4
 1040              		.loc 1 99 0
 1041 0002 0646     		mov	r6, r0
 1042              		.loc 1 97 0
 1043 0004 0D46     		mov	r5, r1
 1044 0006 1446     		mov	r4, r2
 1045              		.loc 1 99 0
 1046 0008 28B1     		cbz	r0, .L37
 1047              		.loc 1 99 0 is_stmt 0 discriminator 2
 1048 000a 42B9     		cbnz	r2, .L39
 1049              		.loc 1 99 0
 1050 000c 0948     		ldr	r0, .L45
 1051              	.LVL36:
ARM GAS  /var/folders/c6/c789hm653lg9vtl73krp73tm0000gn/T//ccbA1dPv.s 			page 58


 1052              		.loc 1 108 0 is_stmt 1
 1053 000e BDE87040 		pop	{r4, r5, r6, lr}
 1054              	.LVL37:
 1055              		.loc 1 99 0
 1056 0012 FFF7FEBF 		b	chSysHalt
 1057              	.LVL38:
 1058              	.L37:
 1059              		.loc 1 99 0 is_stmt 0 discriminator 1
 1060 0016 0748     		ldr	r0, .L45
 1061              	.LVL39:
 1062 0018 FFF7FEFF 		bl	chSysHalt
 1063              	.LVL40:
 1064              		.loc 1 101 0 is_stmt 1 discriminator 1
 1065 001c 44B1     		cbz	r4, .L36
 1066              	.LVL41:
 1067              	.L39:
 1068              	.LBB71:
 1069              	.LBB72:
 1070              		.file 4 "../../../os/rt/include/chmempools.h"
 1071              		.loc 4 139 0
 1072 001e 2946     		mov	r1, r5
 1073 0020 3046     		mov	r0, r6
 1074 0022 FFF7FEFF 		bl	chPoolFree
 1075              	.LVL42:
 1076              	.LBE72:
 1077              	.LBE71:
 1078              		.loc 1 104 0
 1079 0026 7368     		ldr	r3, [r6, #4]
 1080              		.loc 1 101 0
 1081 0028 013C     		subs	r4, r4, #1
 1082              	.LVL43:
 1083              		.loc 1 104 0
 1084 002a 1D44     		add	r5, r5, r3
 1085              	.LVL44:
 1086              		.loc 1 101 0
 1087 002c F7D1     		bne	.L39
 1088 002e 70BD     		pop	{r4, r5, r6, pc}
 1089              	.LVL45:
 1090              	.L36:
 1091 0030 70BD     		pop	{r4, r5, r6, pc}
 1092              	.LVL46:
 1093              	.L46:
 1094 0032 00BF     		.align	2
 1095              	.L45:
 1096 0034 00000000 		.word	.LANCHOR4
 1097              		.cfi_endproc
 1098              	.LFE230:
 1099              		.size	chPoolLoadArray, .-chPoolLoadArray
 1100 0038 AFF30080 		.section	.rodata.__func__.6559,"a",%progbits
 1100      AFF30080 
 1101              		.align	2
 1102              		.set	.LANCHOR0,. + 0
 1103              		.type	__func__.6559, %object
 1104              		.size	__func__.6559, 17
 1105              	__func__.6559:
 1106 0000 6368506F 		.ascii	"chPoolObjectInit\000"
 1106      6F6C4F62 
ARM GAS  /var/folders/c6/c789hm653lg9vtl73krp73tm0000gn/T//ccbA1dPv.s 			page 59


 1106      6A656374 
 1106      496E6974 
 1106      00
 1107 0011 000000   		.section	.rodata.__func__.6565,"a",%progbits
 1108              		.align	2
 1109              		.set	.LANCHOR4,. + 0
 1110              		.type	__func__.6565, %object
 1111              		.size	__func__.6565, 16
 1112              	__func__.6565:
 1113 0000 6368506F 		.ascii	"chPoolLoadArray\000"
 1113      6F6C4C6F 
 1113      61644172 
 1113      72617900 
 1114              		.section	.rodata.__func__.6573,"a",%progbits
 1115              		.align	2
 1116              		.set	.LANCHOR1,. + 0
 1117              		.type	__func__.6573, %object
 1118              		.size	__func__.6573, 13
 1119              	__func__.6573:
 1120 0000 6368506F 		.ascii	"chPoolAllocI\000"
 1120      6F6C416C 
 1120      6C6F6349 
 1120      00
 1121 000d 000000   		.section	.rodata.__func__.6583,"a",%progbits
 1122              		.align	2
 1123              		.set	.LANCHOR3,. + 0
 1124              		.type	__func__.6583, %object
 1125              		.size	__func__.6583, 12
 1126              	__func__.6583:
 1127 0000 6368506F 		.ascii	"chPoolFreeI\000"
 1127      6F6C4672 
 1127      65654900 
 1128              		.section	.rodata.__func__.5862,"a",%progbits
 1129              		.align	2
 1130              		.set	.LANCHOR2,. + 0
 1131              		.type	__func__.5862, %object
 1132              		.size	__func__.5862, 12
 1133              	__func__.5862:
 1134 0000 63685379 		.ascii	"chSysUnlock\000"
 1134      73556E6C 
 1134      6F636B00 
 1135              		.text
 1136              	.Letext0:
 1137              		.file 5 "/usr/local/Cellar/gcc-arm-none-eabi/20140805/lib/gcc/arm-none-eabi/4.8.4/include/stddef.h
 1138              		.file 6 "/usr/local/Cellar/gcc-arm-none-eabi/20140805/arm-none-eabi/include/machine/_default_types
 1139              		.file 7 "/usr/local/Cellar/gcc-arm-none-eabi/20140805/arm-none-eabi/include/stdint.h"
 1140              		.file 8 "../../../os/rt/ports/ARMCMx/compilers/GCC/chtypes.h"
 1141              		.file 9 "../../../os/rt/include/chsystypes.h"
 1142              		.file 10 "../../../os/rt/include/chschd.h"
 1143              		.file 11 "../../../os/rt/ports/ARMCMx/chcore.h"
 1144              		.file 12 "../../../os/rt/ports/ARMCMx/chcore_v7m.h"
 1145              		.file 13 "../../../os/rt/include/chdebug.h"
 1146              		.file 14 "../../../os/rt/include/chtm.h"
 1147              		.file 15 "../../../os/rt/include/chstats.h"
 1148              		.file 16 "../../../os/rt/include/chsem.h"
 1149              		.file 17 "../../../os/rt/include/chmtx.h"
 1150              		.file 18 "../../../os/rt/include/chmemcore.h"
ARM GAS  /var/folders/c6/c789hm653lg9vtl73krp73tm0000gn/T//ccbA1dPv.s 			page 60


 1151              		.file 19 "../../../os/ext/CMSIS/include/core_cm4.h"