ARM GAS  /var/folders/c6/c789hm653lg9vtl73krp73tm0000gn/T//ccHZucMX.s 			page 1


   1              		.syntax unified
   2              		.cpu cortex-m4
   3              		.fpu softvfp
   4              		.eabi_attribute 20, 1
   5              		.eabi_attribute 21, 1
   6              		.eabi_attribute 23, 3
   7              		.eabi_attribute 24, 1
   8              		.eabi_attribute 25, 1
   9              		.eabi_attribute 26, 1
  10              		.eabi_attribute 30, 2
  11              		.eabi_attribute 34, 1
  12              		.eabi_attribute 18, 4
  13              		.thumb
  14              		.file	"chmsg.c"
  15              		.text
  16              	.Ltext0:
  17              		.section	.gnu.lto_.jmpfuncs.f6d3a332cad761bb,"",%progbits
  18 0000 789C6362 		.ascii	"x\234cb`b\300\006\012\2414\013\003\003#S5\303\257\206"
  18      6062C006 
  18      0AA1340B 
  18      03032353 
  18      35C3AF86 
  19 0014 190D0299 		.ascii	"\031\015\002\231\214\014\271\214Pqff\240x\004c&##\017"
  19      8C0CB98C 
  19      50716666 
  19      A0780463 
  19      2623230F 
  20 0028 50054804 		.ascii	"P\005H\004I\031S.#X\210\225\001\246\210\017\254\211"
  20      4919532E 
  20      23588895 
  20      01A6880F 
  20      AC89
  21 003a 8D19641B 		.ascii	"\215\031d\0333P\264\014U\003s.#\314\031\000\224\271"
  21      3350B40C 
  21      5503732E 
  21      23CC1900 
  21      94B9
  22 004c 0EA3     		.ascii	"\016\243"
  23              		.text
  24              		.section	.gnu.lto_.inline.f6d3a332cad761bb,"",%progbits
  25 0000 789C6362 		.ascii	"x\234cb`b\300\006\036@i\026\006\006\001%F\006&\241+"
  25      6062C006 
  25      1E406916 
  25      06060125 
  25      460626A1 
  26 0015 2D8C0C6C 		.ascii	"-\214\014l\013\344\301\252\231\270\031\030\030\031\030"
  26      0BE4C1AA 
  26      99B81918 
  26      181918
  27 0024 B9804C30 		.ascii	"\271\200L0\301\314 m\313\310\314\220\036\301\230\311"
  27      C1CC206D 
  27      CBC8CC90 
  27      1EC198C9 
  28 0034 C8025290 		.ascii	"\310\002R\220\001g1\202\244\305olfd\340\274a\306\304"
  28      01673182 
  28      A4C56F6C 
  28      6664E0BC 
ARM GAS  /var/folders/c6/c789hm653lg9vtl73krp73tm0000gn/T//ccHZucMX.s 			page 2


  28      61C6C4
  29 0047 C0B2405E 		.ascii	"\300\262@^\200\001\246\015b\014\230\234\340\2070\015"
  29      8001A60D 
  29      620C989C 
  29      E087300D 
  30 0057 28C00214 		.ascii	"(\300\002\024ge\0201\003\312\212}X\215\260\030I\033"
  30      67651031 
  30      03CA8A7D 
  30      588DB018 
  30      491B
  31 0069 423D9860 		.ascii	"B=\230`c\0208\0102\214\375\206\031\003{\207:B53\017"
  31      63103808 
  31      328CFD86 
  31      19037B87 
  31      3A423533 
  32 007e 50C7043F 		.ascii	"P\307\004?\250\005\350z\031\0008\027\022\243"
  32      A805E87A 
  32      19003817 
  32      12A3
  33              		.text
  34              		.section	.gnu.lto_.pureconst.f6d3a332cad761bb,"",%progbits
  35 0000 789C6362 		.ascii	"x\234cb`b\340d\200\000\026\006+f+V+6+\000\004\364\001"
  35      6062E064 
  35      80001606 
  35      2B662B56 
  35      2B362B00 
  36 0017 08       		.ascii	"\010"
  37              		.text
  38              		.section	.gnu.lto_chSysUnlock.f6d3a332cad761bb,"",%progbits
  39 0000 789C9553 		.ascii	"x\234\225SMh\023A\024~ov'\273\266i\033=\211B\015\005"
  39      4D681341 
  39      147E6F76 
  39      27BBB669 
  39      1B3D8942 
  40 0016 0FDA90F5 		.ascii	"\017\332\220\365\346U-\010\212\2714-\250\027I\327\305"
  40      E6552D08 
  40      8AB9342D 
  40      A81749D7 
  40      C5
  41 0027 2E749BB2 		.ascii	".t\233\262IJ\213\207Nb\016\202\036\202\"jT\260'A\301"
  41      494A8B87 
  41      4E620E82 
  41      1E82226A 
  41      54B02741 
  42 003c 82070FE2 		.ascii	"\202\007\017\342!\240HE\255x\021\355Ar\351A\355\305"
  42      21A04845 
  42      AD7811ED 
  42      4172E941 
  42      EDC5
  43 004e 43FD4388 		.ascii	"C\375C\210o\366'\177\346\342\220\2747\273\363}\337|"
  43      6FF6277F 
  43      E6E290BC 
  43      37BBF37D 
  43      DF7C
  44 0060 6FE62D03 		.ascii	"o\346-\003\006\335\343\010\375\217+\000U\312\030\001"
  44      06DDE308 
  44      FD8F2B00 
ARM GAS  /var/folders/c6/c789hm653lg9vtl73krp73tm0000gn/T//ccHZucMX.s 			page 3


  44      55CA1801 
  45 0070 64953580 		.ascii	"d\2255\200\242\316\230R}\001 \372\370w\015DTa\352\223"
  45      A2CE9852 
  45      7D0120FA 
  45      F8770D44 
  45      5461EA93 
  46 0084 61F9F4DE 		.ascii	"a\371\364\336\240'\025\271\217\342\210r\002\010KLQ9"
  46      A02715B9 
  46      8FE28872 
  46      02084B4C 
  46      5139
  47 0096 2E9D42A9 		.ascii	".\235B\251\211\016\302\012\253\325\033\215\207\267\257"
  47      890EC20A 
  47      ABD51B8D 
  47      87B7AF
  48 00a5 DF7B8D9F 		.ascii	"\337{\215\237X\224\203\215\020\221A\243\200\272\014"
  48      5894838D 
  48      109141A3 
  48      80BA0C
  49 00b4 84E45016 		.ascii	"\204\344P\026\242\022w\344\334\364\270\023\024\245\346"
  49      A21277E4 
  49      DCF4B813 
  49      14A5E6
  50 00c3 24329995 		.ascii	"$2\231\225\267p\241\376\341R\177\006\227\221\323\362"
  50      B770A1FE 
  50      E1527F06 
  50      9791D3F2 
  51 00d3 79F82D2E 		.ascii	"y\370-.\212\230\215\314\364\004\200\204\310\275D}\374"
  51      8A988DCC 
  51      F4048084 
  51      C8BD447D 
  51      FC
  52 00e4 3AD40BC5 		.ascii	":\324\013\305Z\2507PZ\377\371c\227\217:\207|\024\366"
  52      5AA83750 
  52      5AFFF963 
  52      978F3A87 
  52      7C14F6
  53 00f7 93212FAA 		.ascii	"\223!/\252^\344\267\240Z\024\222\030iJh\216\267\321"
  53      5EE4B7A0 
  53      5A149218 
  53      694A688E 
  53      B7D1
  54 0109 49A4A927 		.ascii	"I\244\251'5\345\357K\031\203\034\236\352*\2247\261\251"
  54      35E5EF4B 
  54      19831C9E 
  54      EA2A9437 
  54      B1A9
  55 011b 2E15741B 		.ascii	".\025t\033\365v}\322\352\246w\214I\262I\347\256\220"
  55      F5767DD2 
  55      EAA6778C 
  55      49B249E7 
  55      AE90
  56 012d D3D3A150 		.ascii	"\323\323\241P\244\315\346\177\032T\002\331v9\315\023"
  56      A4CDE67F 
  56      1A5402D9 
  56      7639CD13 
  57 013d DA464244 		.ascii	"\332FBD\350#yI\014\011j\017\202\336E\340\275\010\253"
ARM GAS  /var/folders/c6/c789hm653lg9vtl73krp73tm0000gn/T//ccHZucMX.s 			page 4


  57      E8237949 
  57      0C096A0F 
  57      82DE45E0 
  57      BD08AB
  58 0150 F07CA359 		.ascii	"\360|\243Y\272F\244\366\232TX\331M\027\251\376s=\375"
  58      BA46A4F6 
  58      9A5458D9 
  58      4D17A9FE 
  58      733DFD
  59 0163 666051BE 		.ascii	"f`Q\276\331ic\224\032!\000\3318\020\322\271\327\010"
  59      D9696394 
  59      1A2100D9 
  59      3810D2B9 
  59      D708
  60 0175 2FA144A2 		.ascii	"/\241D\242#\260,\304\225\372\265\317O\0237E\255|W\374"
  60      23B02CC4 
  60      95FAB5CF 
  60      4F133745 
  60      AD7C57FC 
  61 0189 693490FC 		.ascii	"i4\220\374\01428\201\262\205\244\271\241\270\227b*t"
  61      0C323881 
  61      B285A4B9 
  61      A1B89762 
  61      2A74
  62 019b 0CF96E50 		.ascii	"\014\371nPN\326\240\364\355\376\263G\227\225\240\375"
  62      4ED6A0F4 
  62      EDFEB347 
  62      9795A0FD 
  63 01ab C23EAC3D 		.ascii	"\302>\254=\370\362+\3062\370\030G\232\275Y{\265\265"
  63      F8F22BC6 
  63      32F81847 
  63      9ABD597B 
  63      B5B5
  64 01bd 411E7D57 		.ascii	"A\036}W&\225bz%P\313S\323+\362\203R\374\257j\030*xG"
  64      2695627A 
  64      2550CB53 
  64      D32BF283 
  64      52FCAF6A 
  65 01d5 DC3864E3 		.ascii	"\3348d\343\366\216\315Z\353W\203\365\035\276\235wP\254"
  65      F68ECD5A 
  65      EB5783F5 
  65      1DBE9D77 
  65      50AC
  66 01e7 6F8E8667 		.ascii	"o\216\206g\342\217\011\272J*V\022\366$\223\206\377\313"
  66      E28F09BA 
  66      4A2A5612 
  66      F6249386 
  66      FFCB
  67 01f9 E60C376F 		.ascii	"\346\0147o\330\263\346L\341\254e\230\323\271\305\\r"
  67      D8B3E64C 
  67      E1AC6598 
  67      D3B9C55C 
  67      72
  68 020a 1AF675AD 		.ascii	"\032\366u\255\317e\335|\3168<\236\032K-\020\310\314"
  68      CF65DD7C 
  68      CE383C9E 
  68      1A4B2D10 
ARM GAS  /var/folders/c6/c789hm653lg9vtl73krp73tm0000gn/T//ccHZucMX.s 			page 5


  68      C8CC
  69 021c BAD699F9 		.ascii	"\272\326\231\371\203\016!\371|f\246`%\332\361\326B\336"
  69      830E21F9 
  69      7C66A660 
  69      25DAF1D6 
  69      42DE
  70 022e 184BA58F 		.ascii	"\030K\245\217\245[\262\022o:G\013\263&Qb\251\364x|*"
  70      A55BB212 
  70      6F3A470B 
  70      B3265162 
  70      A9F4787C 
  71 0243 93B3E65C 		.ascii	"\223\263\346\\;\021\337{\000\230\013\232c9Yw\021\376"
  71      3B11DF7B 
  71      00980B9A 
  71      63395977 
  71      11FE
  72 0255 022699DD 		.ascii	"\002&\231\335U"
  72      55
  73              		.text
  74              		.section	.gnu.lto_chMsgSend.f6d3a332cad761bb,"",%progbits
  75 0000 789C8D55 		.ascii	"x\234\215U]h\034U\024>\347\316\337v\222m\266\353_[5"
  75      5D681C55 
  75      143EE7CE 
  75      DF76926D 
  75      B6EB5F5B 
  76 0015 5D0A3E68 		.ascii	"]\012>h\342\256>U\021D)\010B\363\3224\250Oer\2734\003"
  76      E2AE3E55 
  76      11442908 
  76      42F3D234 
  76      A84F6572 
  77 002c 9D66BBBB 		.ascii	"\235f\273\273)\255}\350l\022A\301\325R(DEL\311[\012"
  77      29AD7DE8 
  77      6C1241C1 
  77      D5522844 
  77      454CC95B 
  78 0041 4D51C407 		.ascii	"MQ\304\007\245\256M\015\215K\023}+!\330%/\366E\233\242"
  78      A5AE4D0D 
  78      8D4B137D 
  78      2B21D825 
  78      2FF6459B 
  79 0056 82C4C27A 		.ascii	"\202\304\302z\356\2753\263\231Mj:\273;\367\316\231s"
  79      EEBD33B3 
  79      994D6A3A 
  79      BB3BF7CE 
  79      9973
  80 0068 BEF39D9F 		.ascii	"\276\363\235\237{\226\001\203\366\353\000\375~7\001"
  80      7B960183 
  80      F6EB00FD 
  80      7E3701
  81 0077 5668450B 		.ascii	"VhE\013\220\235[\000\250$\030\323&\015\360m}\365\006"
  81      909D5B00 
  81      A82418D3 
  81      260DF06D 
  81      7DF506
  82 008a 80DFA9A1 		.ascii	"\200\337\251\241\256\344:3\346\272Hn\376\364*\211\015"
  82      AEE43A33 
  82      E6BA486E 
ARM GAS  /var/folders/c6/c789hm653lg9vtl73krp73tm0000gn/T//ccHZucMX.s 			page 6


  82      FEF42A89 
  82      0D
  83 009b 3495D844 		.ascii	"4\225\330D\024\033@8\3134\3350\361\354;(\320\331^\270"
  83      141B4038 
  83      CB34DD30 
  83      F1EC3B28 
  83      D0D95EB8 
  84 00af E8FBE71B 		.ascii	"\350\373\347\033\357\375q\007?\361k\343\223\376\375"
  84      EFFD7107 
  84      3FF16BE3 
  84      93FEFD
  85 00be 6613D145 		.ascii	"f\023\321Eb\322\215\300\021\336\246\007\314\310\205"
  85      62D28DC0 
  85      11DEA607 
  85      CCC885
  86 00cd E9716A1E 		.ascii	"\351qj\036\302\014\2535\232\315\373_\337Y\271\205;v"
  86      C20CAB35 
  86      9ACDFB5F 
  86      DF59B985 
  86      3B76
  87 00df EBE0E045 		.ascii	"\353\340\340E\334\013\006z\210\011\2721\033\\\324\222"
  87      DC0B067A 
  87      8809BA31 
  87      1B5CD492 
  88 00ef 74D353A4 		.ascii	"t\323S\244\316\322\264\023\226\006\214\373\376\271\214"
  88      CED2B413 
  88      96068CFB 
  88      FEB98C
  89 00fe D2F68488 		.ascii	"\322\366\204\210K\371!\272\013\236\003\310\304\252\335"
  89      4BF921BA 
  89      0B9E03C8 
  89      C4AADD
  90 010d 84D1A509 		.ascii	"\204\321\245\011\242\346\340\024\032p\024\365\036\230"
  90      A2E6E014 
  90      1A7014F5 
  90      1E98
  91 011b F6E97A8B 		.ascii	"\366\351z\213`z\3409\027\215\317\340\323\212\357\247"
  91      607AE039 
  91      178DCFE0 
  91      D38AEFA7 
  92 012b 5C34CFC0 		.ascii	"\\4\317\300\232\377\276\330Y\036j\204%\030[\222\347"
  92      9AFFBED8 
  92      591E6A84 
  92      25185B92 
  92      E7
  93 013c 2042B006 		.ascii	" B\260\006\033\230\207\321\332\323\012Tq h\200\033p"
  93      1B9887D1 
  93      DAD30A54 
  93      71206880 
  93      1B70
  94 014e FDB71FFE 		.ascii	"\375\267\037\376\236\213\274\031\002\"\026\361\000!"
  94      9E8BBC19 
  94      022216F1 
  94      0021
  95 015c 4F1ADA22 		.ascii	"O\032\332\"\350J\007 \362\232\340\001\272\220\354tq"
  95      E84A0720 
  95      F29AE001 
ARM GAS  /var/folders/c6/c789hm653lg9vtl73krp73tm0000gn/T//ccHZucMX.s 			page 7


  95      BA90EC74 
  95      71
  96 016d 1B851528 		.ascii	"\033\205\025(\271h\207\346\272\014\213\334'\000\202"
  96      B96887E6 
  96      BA0C8BDC 
  96      270082
  97 017c D45FB8F7 		.ascii	"\324_\270\367Mo,\365\035\014\016l\225z!\353\310\320"
  97      4D6F2CF5 
  97      1D0C0E6C 
  97      957A21EB 
  97      C8D0
  98 018e 660146EF 		.ascii	"f\001F\357M\317~\371\241\026\2444\314m\355\322\332\335"
  98      4DCF7EF9 
  98      A116A434 
  98      CC6DEDD2 
  98      DADD
  99 01a0 1473709A 		.ascii	"\024sp\232\202\213d\315\217\277\353x*\312~$\376\340"
  99      828B64CD 
  99      8FBFEB78 
  99      2ACA7E24 
  99      FEE0
 100 01b2 5762AEB8 		.ascii	"Wb\256\270r\224\035\310)N\216\322'\322\347\013z$\271"
 100      72941DC8 
 100      294E8ED2 
 100      27D2E70B 
 100      7A24B9
 101 01c5 A6DAB31B 		.ascii	"\246\332\263\033\256\340\347\376\304k.v\306\250\264"
 101      AEE0E7FE 
 101      C46B2E76 
 101      C6A8B4
 102 01d4 DE7F15BC 		.ascii	"\336\177\025\274O*\262\2130\266\332\234\272{\215\222"
 102      4F2AB28B 
 102      30B6DA9C 
 102      BA7B8D92 
 103 01e4 36134FDA 		.ascii	"6\023O\332v\216\206\203W\244\220\322\324%u\033W\353"
 103      768E8683 
 103      57A490D2 
 103      D425751B 
 103      57EB
 104 01f6 F6669A66 		.ascii	"\366f\232f\\\223z\243\276\374W\265[\021\017\032#\351"
 104      5C937AA3 
 104      BEFC57B5 
 104      5B110F1A 
 104      23E9
 105 0208 628A5A82 		.ascii	"b\212Z\202(\355\240\222\266\3527\250\342\242\242&\244"
 105      28EDA092 
 105      B6EA37A8 
 105      E2A2A226 
 105      A4
 106 0219 E5DAD8BF 		.ascii	"\345\332\330\277\325\347\303:\333g\340]j\323\000\342"
 106      D5E7C33A 
 106      DB67E05D 
 106      6AD300E2 
 107 0229 848BE908 		.ascii	"\204\213\351\010\302X\017\241\265\362O\020\363\253v"
 107      C2580FA1 
 107      B5F24F10 
 107      F3AB76
ARM GAS  /var/folders/c6/c789hm653lg9vtl73krp73tm0000gn/T//ccHZucMX.s 			page 8


 108 0238 CCF53E17 		.ascii	"\314\365>\027\037i\261xts\026z\260\032\001\033[\366"
 108      1F69B178 
 108      7473167A 
 108      B01A011B 
 108      5BF6
 109 024a 62E37BAE 		.ascii	"b\343{\256\240TK\324n\317\325\321?\357WV\233\315.y\024"
 109      A0544BD4 
 109      6ECFD5D1 
 109      3FEF5756 
 109      9BCD2E79 
 110 025f BFC5AD1A 		.ascii	"\277\305\255\032B6\360\226P\032\203\253\017\001e\007"
 110      4236F096 
 110      501A83AB 
 110      0F016507 
 111 026f D95D99BF 		.ascii	"\331]\231\2774k\265wK\375\366\213\016^\243\266r\260"
 111      346BB577 
 111      4BFDF68B 
 111      0E5EA3B6 
 111      72B0
 112 0281 269B2BEC 		.ascii	"&\233+\354\034y\330T\006\032\027\026\226w\033D=:\236"
 112      1C79D854 
 112      061A1716 
 112      96771B44 
 112      3D3A9E
 113 0294 ED893085 		.ascii	"\355\2110\205\335\217\"\017\241\273\245[\227\253=\016"
 113      DD8F220F 
 113      A1BBA55B 
 113      97AB3D0E 
 114 02a4 5E972549 		.ascii	"^\227%I\313\323\3352O\007\245\320z\225\271\025\231\253"
 114      CBD3DD32 
 114      4F07A5D0 
 114      7A95B915 
 114      99AB
 115 02b6 5AFC6C29 		.ascii	"Z\374l)\313\240\000\035\377\347:\261\316uZE\372\317"
 115      CBA0001D 
 115      FFE73AB1 
 115      CE755A45 
 115      FACF
 116 02c8 E56A3606 		.ascii	"\345j6\006\360J\033@\372A\334u\00501S\335\023\003H>"
 116      F04A1B40 
 116      FA41DC75 
 116      05303153 
 116      DD130348 
 117 02dd 1CFB1060 		.ascii	"\034\373\020`iy\362\243]a?&e\360\217m\336\204\333\202"
 117      6979F2A3 
 117      5D613F26 
 117      65F08F6D 
 117      DE84DB82 
 118 02f1 2A896155 		.ascii	"*\211aUIF&BE\337\276\256\212\003$\237\353\242Q5\336"
 118      49462642 
 118      45DFBEAE 
 118      8A03249F 
 118      EBA25135 
 119 0306 989FC20D 		.ascii	"\230\237\302\015\343\352q.\362 \253Muz\"\2641\345|\022"
 119      E3EA712E 
 119      F220AB4D 
 119      757A22B4 
ARM GAS  /var/folders/c6/c789hm653lg9vtl73krp73tm0000gn/T//ccHZucMX.s 			page 9


 119      31E57C12 
 120 031a 46F5317B 		.ascii	"F\3651{\203\321N\036\270\227\336:\351\034\356R\354'"
 120      83D14E1E 
 120      B897DE3A 
 120      E91CEE52 
 120      EC27
 121 032c FE7C2964 		.ascii	"\376|)d\222\012\022\320\357F\333\227\267<\016\301|\224"
 121      920A12D0 
 121      EF46DB97 
 121      B73C0EC1 
 121      7C94
 122 033e 73D95248 		.ascii	"s\331RH\364oA`j \334\234\2656p\241\201\240\254\3440"
 122      F46F4160 
 122      6A20DC9C 
 122      B53670A1 
 122      81A0ACE4 
 123 0353 F8052A8D 		.ascii	"\370\005*\215E\036qPh\207\250\325)\034q\362\237\314"
 123      451E7150 
 123      6887A8D5 
 123      291C71F2 
 123      9FCC
 124 0365 6673EA3B 		.ascii	"fs\352;\\\312\025\313\271R\221\347\370\220W:\232\345"
 124      5CCA15CB 
 124      B95291E7 
 124      F890573A 
 124      9AE5
 125 0377 A0F172E1 		.ascii	"\240\361r\341\331\266\367\205\341b\271\224{\375`\337"
 125      D9B6F785 
 125      E162B994 
 125      7BFD60DF 
 126 0387 FEBE53A4 		.ascii	"\376\276S\244\310\207\213\371\303'\367y\331!0N:\307"
 126      C8878BF9 
 126      C327F779 
 126      D921304E 
 126      3AC7
 127 0399 46F2BDEB 		.ascii	"F\362\275\353\365\363\247\312\271\375}\375o\366\347"
 127      F5F3A7CA 
 127      B9FD7DFD 
 127      6FF6E7
 128 03a8 DCE3FCD8 		.ascii	"\334\343\374\330\310\221|N\352s\357\215\221\343\234"
 128      C8917C4E 
 128      EA73EF8D 
 128      91E39C
 129 03b7 4CF6B481 		.ascii	"L\366\264\201GZC\245\323%z\237\352\353?\230\031tJ\371"
 129      475A43A5 
 129      D3257A9F 
 129      EAEB3F98 
 129      19744AF9 
 130 03cb 42D1EDCD 		.ascii	"B\321\355\315<\363\002\260\"X^\336\033.\236\006V.h\345"
 130      3CF302B0 
 130      22585EDE 
 130      1B2E9E06 
 130      562E68E5 
 131 03df 1385CC83 		.ascii	"\023\205\314\203!\370\320\021\302\370\017\305J\3410"
 131      21F8D011 
 131      C2F80FC5 
 131      4AE130
ARM GAS  /var/folders/c6/c789hm653lg9vtl73krp73tm0000gn/T//ccHZucMX.s 			page 10


 132              		.text
 133              		.section	.gnu.lto_chMsgWait.f6d3a332cad761bb,"",%progbits
 134 0000 789C9D54 		.ascii	"x\234\235T]h\024W\024>gf6\263\331l6\321\207bkk\227B"
 134      5D681457 
 134      143E6766 
 134      36B3D96C 
 134      36D18762 
 135 0018 1F346926 		.ascii	"\0374i&\340C\361Ah\011\024D\362b\024\365\251L\306%;"
 135      E043F141 
 135      68091444 
 135      F26214F5 
 135      A94CC625 
 136 002d 90357177 		.ascii	"\2205qw\023\242\202\336\304\024\024\223&\352\213U\024"
 136      13A282DE 
 136      C4141493 
 136      26EA8B55 
 136      14
 137 003e 3515510A 		.ascii	"5\025Q\012\201}h\244\024\3356V\023\343\017\276\305\320"
 137      817D68A4 
 137      14DD3656 
 137      13E30FBE 
 137      C5D0
 138 0050 870D8896 		.ascii	"\207\015\210\226RHR\011h4\273\236{\357\314dv\2651\364"
 138      52485209 
 138      6834BB9E 
 138      7BEFCC64 
 138      76B531F4 
 139 0064 EEEECCDD 		.ascii	"\356\356\314\335{\317\375\316\367\235\363\315(\240@"
 139      7BCFFDCE 
 139      F79DF3CD 
 139      28A040
 140 0073 E9D848BF 		.ascii	"\351\330H\277[e\000y\272c\000P\031|\000\320\035T\024"
 140      5B650079 
 140      BA630050 
 140      197C00D0 
 140      1D5414
 141 0086 755E0716 		.ascii	"u^\007\026\322\316\336\006`a\0255\271\256!\362\011 "
 141      D2CEDE06 
 141      60611535 
 141      B9AE21F2 
 141      0920
 142 0098 1C56540D 		.ascii	"\034VT\015\017\357F\016\202\237\301E\306N\346.\347\377"
 142      0FEF460E 
 142      829FC145 
 142      C64EE62E 
 142      E7FF
 143 00aa C21F58B6 		.ascii	"\302\037X\266\367\002{]( \332H\011\327!X\010\273\350"
 143      F7027B5D 
 143      2820DA48 
 143      09D72158 
 143      08BBE8
 144 00bd 0F46C54D 		.ascii	"\017F\305M\321\212\031\014+\331\\\241\320w\363\237\351"
 144      D18A190C 
 144      2BD95CA1 
 144      D077F39F 
 144      E9
 145 00ce 3E5CFD81 		.ascii	">\\\375\201\006tJ\347\227 ]\3240\237U\362Y\004L\274"
ARM GAS  /var/folders/c6/c789hm653lg9vtl73krp73tm0000gn/T//ccHZucMX.s 			page 11


 145      06744AE7 
 145      97205DD4 
 145      309F55F2 
 145      59044CBC 
 146 00e2 4889AAF8 		.ascii	"H\211\252\370\012\215\000\36426\030\225\213\300s\320"
 146      0A8D00F4 
 146      32361895 
 146      8BC073D0 
 147 00f2 D84E57CE 		.ascii	"\330NW\316o\007*\374\256\216CO\020\300awjn\244\266\210"
 147      6F072AFC 
 147      AE8E434F 
 147      10C06177 
 147      6A6EA4B6 
 148 0107 9DA6C0D6 		.ascii	"\235\246\300\326\367\261\343kZ\224&\017\240g\356\352"
 148      F7B1E36B 
 148      5A94260F 
 148      A067EEEA 
 149 0117 68A64F75 		.ascii	"h\246Ou\022\273\014\262W\026f\252\025\023\177\0244\234"
 149      12BB0CB2 
 149      571666AA 
 149      15137F14 
 149      349C
 150 0129 B55703BF 		.ascii	"\265W\003\277V|\354q\364\226\307\027\211\237\211CTh"
 150      567CEC71 
 150      F496C717 
 150      899F8943 
 150      5468
 151 013b 0B05618B 		.ascii	"\013\005a\213\210Z\250\212\"\322\347<M\251G\252l\324"
 151      885AA88A 
 151      22D2E73C 
 151      4DA947AA 
 151      6CD4
 152 014d 3A18C673 		.ascii	":\030\306s\354\364W6\305\373\251,\355g\234\3752I\366"
 152      ECF45736 
 152      C5FBA92C 
 152      ED679CFD 
 152      3249F6
 153 0160 211C99CD 		.ascii	"!\034\231\315\017\315\374\256\231xU\2349\010\013\354"
 153      0FCDFCAE 
 153      9978559C 
 153      39080BEC 
 154 0170 28ABB651 		.ascii	"(\253\266Q\267\220\026\257I \033\203\"6wc\"\364\256"
 154      B79016AF 
 154      49201B83 
 154      22367763 
 154      22F4AE
 155 0183 C84071E4 		.ascii	"\310@q\344}\350\231\372sv\300\220\304[P\253\201\015"
 155      7DE899FA 
 155      7376C090 
 155      C45B50AB 
 155      810D
 156 0195 D4831AB8 		.ascii	"\324\203\032\270\306h\354\263\261\374,\234\351f\374"
 156      C668ECB3 
 156      B1FC2C9C 
 156      E966FC
 157 01a4 70C883A9 		.ascii	"p\310\203\251H\240\313\271BpkFp\356\316\004\2509Y\007"
 157      48A0CBB9 
ARM GAS  /var/folders/c6/c789hm653lg9vtl73krp73tm0000gn/T//ccHZucMX.s 			page 12


 157      42706B46 
 157      70EECE04 
 157      A8395907 
 158 01b8 5476283B 		.ascii	"Tv(;w\247\377Cv\241g\220\345\251A\224\302\304K\242>"
 158      77A7FF43 
 158      76A16790 
 158      E5A94194 
 158      C2C44BA2 
 159 01cd CB3588F8 		.ascii	"\3135\210\370H\341\013\227\377\236TJ+~<?Gj~\026\275"
 159      48E10B97 
 159      FF9E544A 
 159      2B7E3C3F 
 159      476A7E16 
 160 01e2 710BEF14 		.ascii	"q\013\357\024\313\257X7\361z\251\342\033\217\317\034"
 160      CBAF5837 
 160      F17AA9E2 
 160      1B8FCF1C 
 161 01f2 32714448 		.ascii	"2qDH\016\027I\336ic\330\223\\I\0048/W\235\302\023\011"
 161      0E1749DE 
 161      6963D893 
 161      5C490438 
 161      2F579DC2 
 162 0208 B066DE57 		.ascii	"\260f\336W\017\2300\027\216\374\242\272\210\225\007"
 162      0F983017 
 162      8EFCA2BA 
 162      889507
 163 0217 E100B9DA 		.ascii	"\341\000\271\332A|\216+\203\364\320\306\340\326\263"
 163      417C8E2B 
 163      83F4D0C6 
 163      E0D6B3
 164 0226 E9EF0AF5 		.ascii	"\351\357\012\365nO\302\204\270T\223\035\224y^W\037B"
 164      6E4FC284 
 164      B854931D 
 164      94795E57 
 164      1F42
 165 0238 6F6E7134 		.ascii	"onq4$c|\202#\026\027\351t\247*B\232\253\335s\232xl\270"
 165      24637C82 
 165      231617E9 
 165      74A72A42 
 165      9AABDD73 
 166 0250 FE178549 		.ascii	"\376\027\205I\325E\327]\371\033\376w\263\205\374\247"
 166      D545D75D 
 166      F91BFE77 
 166      B385FCA7 
 167 0260 E822068B 		.ascii	"\350\"\006\213\344\237p\344\243\320\256\227hw\007\367"
 167      E49F70E4 
 167      A3D0AE97 
 167      687707F7 
 168 0270 CBA6E5FC 		.ascii	"\313\246\345\374\242*0\205\357{\240[\274\006\317\374"
 168      A22A3085 
 168      EF7BA05B 
 168      BC06CFFC 
 169 0280 F6D390EE 		.ascii	"\366\323\220\356\030F\002\262\014c\345\342\365\240\256"
 169      184602B2 
 169      0C63E5E2 
 169      F5A0AE
 170 028f D07D9ED1 		.ascii	"\320}\236\321&\012\246\211cE>+\227\351\"Rdn\361\373"
ARM GAS  /var/folders/c6/c789hm653lg9vtl73krp73tm0000gn/T//ccHZucMX.s 			page 13


 170      260AA689 
 170      63453E2B 
 170      97E92252 
 170      646EF1FB 
 171 02a3 271F7D41 		.ascii	"'\037}A\260^\375\302\216T\265VJ\025n\271'\373\313\265"
 171      B05EFDC2 
 171      8E54B556 
 171      4A156EB9 
 171      27FBCBB5 
 172 02b7 7E62E25D 		.ascii	"~b\342]\372g\342\004\301\022\216\244=\231\351\257\221"
 172      FA67E204 
 172      C1128EA4 
 172      3D99E9AF 
 172      91
 173 02c8 1B2D5825 		.ascii	"\033-X%\373\3427N\304_<\315\207Hg\307guy\322){\345\312"
 173      FBE2374E 
 173      C45F3CCD 
 173      874867C7 
 173      677579D2 
 174 02e0 D8501E71 		.ascii	"\330P\036q|\342E\246\337(\002\330\\\222\274\312\237"
 174      7CE245A6 
 174      DF2802D8 
 174      5C92BCCA 
 174      9F
 175 02f1 3CE00308 		.ascii	"<\340\003\010\012E\263\377\336\\#\213\343\276\265\005"
 175      0A45B3FF 
 175      DE5C238B 
 175      E3BEB505 
 176 0301 EEF5D397 		.ascii	"\356\365\323\227^:\306pp+l\\\345\331\241HQ\331\222o"
 176      5E3AC670 
 176      702B6C5C 
 176      E5D9A148 
 176      51D9926F 
 177 0315 B9DFF94B 		.ascii	"\271\337\371K\354\330\037\372[\016\247G:\004\336\343"
 177      ECD81FFA 
 177      5B0EA747 
 177      3A04DEE3 
 178 0325 FC08BA73 		.ascii	"\374\010\272s\307c\256\365\"\022k;9\205\274\316\375"
 178      C763AEF5 
 178      22126B3B 
 178      3985BCCE 
 178      FD
 179 0336 B5B6AECE 		.ascii	"\265\266\256\316\220\337\266\224\221L\033\251\244eX"
 179      90DFB694 
 179      914C1BA9 
 179      A46558
 180 0345 F144AAA5 		.ascii	"\361D\252\245\316\002%\335\276\276d\273\275-\231N\031"
 180      CE0225DD 
 180      BEBE64BB 
 180      BD2D994E 
 180      19
 181 0356 5F6F6B6C 		.ascii	"_oklh\354\2428\253-\031\373\266\363\313D]\034\002\235"
 181      68ECA238 
 181      AB2D19FB 
 181      B6F3CB44 
 181      5D1C029D 
 182 036a 666B47AC 		.ascii	"fkG\254\326\037\037\353J\033\015\215M[\232\014{\257"
ARM GAS  /var/folders/c6/c789hm653lg9vtl73krp73tm0000gn/T//ccHZucMX.s 			page 14


 182      D61F1FEB 
 182      4A1B0D8D 
 182      4D5B9A0C 
 182      7BAF
 183 037c D5DAB127 		.ascii	"\325\332\261'f\210x+\361M\307^\213\216|Z\002\356E\305"
 183      6688782B 
 183      F14DC75E 
 183      8B8E7C5A 
 183      02EE45C5 
 184 0390 53FB53B4 		.ascii	"S\373S\264_\335\330\264-\332l\246b\355I\2736\372y=("
 184      5FDDD8B4 
 184      2DDA6CA6 
 184      62ED49BB 
 184      36FA793D 
 185 03a5 49D013B1 		.ascii	"I\320\023\261D[r\3772g9\3678\250\351}\355\321\377\306"
 185      445B72FF 
 185      326739F7 
 185      38A8E97D 
 185      EDD1FFC6 
 186 03b9 B7E27B28 		.ascii	"\267\342{(\350\015T\265\346\341"
 186      E80D54B5 
 186      E6E1
 187              		.text
 188              		.section	.gnu.lto_chMsgRelease.f6d3a332cad761bb,"",%progbits
 189 0000 789C8D52 		.ascii	"x\234\215RKh\023Q\024\275\367\315\244I\177&K\301_(t"
 189      4B681351 
 189      14BDF7CD 
 189      A4497F26 
 189      4BC15F28 
 190 0015 A1964C71 		.ascii	"\241\226Lq\343V)\210.\262\351\007t%\323gH\006:M\231"
 190      E3562988 
 190      2EB2E907 
 190      7425D367 
 190      48063A4D 
 191 002a 494B8A8B 		.ascii	"IK\212\213\276\306\012Z\005CAP\213b\025Q\244\264P\304"
 191      BEC60A5A 
 191      05434150 
 191      8B621551 
 191      A4B450C4 
 192 003e AA8804DD 		.ascii	"\252\210\004\335D\212\255\025*\"\012\331\270+4\356\264"
 192      448AAD15 
 192      2A220AD9 
 192      B82B34EE 
 192      B4
 193 004f D5C6FB66 		.ascii	"\325\306\373f\2321I\025\235|\336\233{\317=\357\334s"
 193      9A314915 
 193      9D7CDE9B 
 193      7BCF3DEF 
 193      DC73
 194 0061 1F0306B5 		.ascii	"\037\003\006\265\317!\372\011\005\3403\255\350\003d"
 194      CF21FA09 
 194      05E033AD 
 194      E80364
 195 0070 D94580D1 		.ascii	"\331E\200\321\000cJ\276\035D\203\232\337\003\242IA\325"
 195      00634ABE 
 195      1D44839A 
 195      DF03A249 
ARM GAS  /var/folders/c6/c789hm653lg9vtl73krp73tm0000gn/T//ccHZucMX.s 			page 15


 195      41D5
 196 0082 0DAB8872 		.ascii	"\015\253\210r\003\010#LQq\344\024J\0164\021fY\256P*"
 196      0308234C 
 196      5171E414 
 196      4A0E3411 
 196      6659AE50 
 197 0097 CDBC1D9F 		.ascii	"\315\274\035\237Y\305\207,\250R\214\350\014\004?\355"
 197      59C5872C 
 197      A8528CE8 
 197      0C043FED 
 198 00a7 E4B13E18 		.ascii	"\344\261>\030\023\"\0336e\005w\312\272\351_\262\365"
 198      13221B36 
 198      650577CA 
 198      BAE95FB2 
 198      F5
 199 00b8 509E56E5 		.ascii	"P\236V\3455d\002\000-0%\304D\341gq\276\355\272\310\215"
 199      35640200 
 199      2D3025C4 
 199      44E16771 
 199      BEEDBAC8 
 200 00cd DD163F4A 		.ascii	"\335\026?J%D\003\011t\034e\345IzaagQ\324\352fd\014\303"
 200      25440309 
 200      741C65E5 
 200      497A6161 
 200      6751D4EA 
 201 00e5 B45984CC 		.ascii	"\264Y\204\314\327[\257\346.+[\247\226\217\317m|_\013"
 201      D75BAFE6 
 201      2E2B5BA7 
 201      968FCF6D 
 201      7C5F0B
 202 00f8 311DEF60 		.ascii	"1\035\357`\213')\267v\345y\343nO\240\027\276\270B\262"
 202      8B2729B7 
 202      76E579E3 
 202      6E4FA017 
 202      BEB842B2 
 203 010c 759CA236 		.ascii	"u\234\24268:\2029i\340\2508-\323g\222\266\004Q\\W\367"
 203      383A8239 
 203      69E0A838 
 203      2DD36792 
 203      B604515C 
 204 0122 C234DE14 		.ascii	"\3024\336\024\327\216\030\250VI\371\235\237\335\312"
 204      D78E18A8 
 204      5649F99D 
 204      9FDDCA
 205 0131 FB5CB14B 		.ascii	"\373\\\261Kp\256\270qw\355\245\252\343}'v\026\326\305"
 205      70AEB871 
 205      77EDA5AA 
 205      E37D2776 
 205      16D6C5
 206 0144 051132B0 		.ascii	"\005\0212\260\216#\005\037\270@\003\375\016\266\360"
 206      8E23051F 
 206      B84003FD 
 206      0EB6F0
 207 0153 62A1E14F 		.ascii	"b\241\341OH_5\362\015d>~\232\276\252\270\302\343\350"
 207      485F35F2 
 207      0D643E7E 
 207      9ABEAAB8 
ARM GAS  /var/folders/c6/c789hm653lg9vtl73krp73tm0000gn/T//ccHZucMX.s 			page 16


 207      C2E3E8
 208 0166 3B08070C 		.ascii	";\010\007\014\014L\302\015\022T\037GU\012kp\004\364"
 208      0C4CC20D 
 208      12541F47 
 208      550A6B70 
 208      04F4
 209 0178 62D9B73C 		.ascii	"b\331\267<\214\255\242W!\021\320\\ak\0175\232oW\226"
 209      8CADA257 
 209      2111D05C 
 209      616B0F35 
 209      9A6F5796 
 210 018c 40753115 		.ascii	"@u1\025\002\0329\3269\030\031\331i`\023\315w\013d`s"
 210      021A39D6 
 210      391819D9 
 210      696013CD 
 210      770B6460 
 211 01a1 B95CDD36 		.ascii	"\271\\\3356\337\334\362\370\002\212\0111Z,\225\202$"
 211      DFDCF2F8 
 211      028A0931 
 211      5A2C9582 
 211      24
 212 01b2 88C13CFE 		.ascii	"\210\301<\376k\272q\351l\005IV\314\011Q\357\\\020\305"
 212      6BBA71E9 
 212      6C054956 
 212      CC0951EF 
 212      5C10C5
 213 01c5 C01D0C9E 		.ascii	"\300\035\014\236\375\007\205kfq\363\336\372\007V;\361"
 213      FD07856B 
 213      6671F3DE 
 213      FA07563B 
 213      F1
 214 01d6 4BEF33E4 		.ascii	"K\3573\344\346c\272\033:>rnHy\374~\360\232,\373\036"
 214      E663BA1B 
 214      3A3E726E 
 214      4879FC7E 
 214      F09A2CFB 
 215 01eb D0F169D5 		.ascii	"\320\361i\325\204\316\0277\277\254\177#\033\237T[\024"
 215      84CE1737 
 215      BFAC7F23 
 215      1B9F545B 
 215      14
 216 01fc E458EF61 		.ascii	"\344X\357a\251\007\322``\310\225\361n%\275\315R\342"
 216      A907D260 
 216      60C895F1 
 216      6E25BDCD 
 216      52E2
 217 020e 76E7E3F0 		.ascii	"v\347\343\360.\303ha\246\265\014r\237n\352\223\014\225"
 217      2EC36861 
 217      A6B50C72 
 217      9F6EEA93 
 217      0C95
 218 0220 D76A5724 		.ascii	"\327jW$\242\271\337\244\255Y)\315\266\270\306\023\246"
 218      A2B9DFA4 
 218      AD5929CD 
 218      B6B8C613 
 218      A6
 219 0231 1D8F70D8 		.ascii	"\035\217p\330_\223\033HZ)[;\332\031\355\210\246\011"
ARM GAS  /var/folders/c6/c789hm653lg9vtl73krp73tm0000gn/T//ccHZucMX.s 			page 17


 219      5F931B48 
 219      5A295B3B 
 219      DA19ED88 
 219      A609
 220 0243 C49356EC 		.ascii	"\304\223V\354\364\320a3\222\000\337\220\3367\030k\253"
 220      F4D06133 
 220      9200DF90 
 220      DE37186B 
 220      AB
 221 0254 C4C7D229 		.ascii	"\304\307\322)\255#\332u\242K3\372y\337\340\231\230\346"
 221      AD23DA75 
 221      A24B33FA 
 221      79DFE099 
 221      98E6
 222 0266 E0B9796C 		.ascii	"\340\271yl\260\237S\311\276\032r\017\225\260\207m\312"
 222      B09F53C9 
 222      BE1A720F 
 222      95B0876D 
 222      CA
 223 0277 87A25D9D 		.ascii	"\207\242]\235\341^\335\216\015XF[\270\265\035\230\005"
 223      E15EDD8E 
 223      0D58465B 
 223      B8B51D98 
 223      05
 224 0288 7E336626 		.ascii	"~3f&\255a`\251\001\205$\376\235B\352O\300/(\020\026"
 224      AD6160A9 
 224      018524FE 
 224      9D42EA4F 
 224      C02F2810 
 225 029d 2B       		.ascii	"+"
 226              		.text
 227              		.section	.gnu.lto_.symbol_nodes.f6d3a332cad761bb,"",%progbits
 228 0000 789C4D8B 		.ascii	"x\234M\213IN\303@\020E\377\357J\033'v\030N\300\3318"
 228      494EC340 
 228      1045FFEF 
 228      4A1B2776 
 228      184EC0D9 
 229 0015 49455844 		.ascii	"IEXD\221\220\020\027\010\013\274\345\026\226\302\002"
 229      91901017 
 229      080BBCE5 
 229      1696C202 
 230 0025 29576088 		.ascii	")W`\210\010S\230\311\026Q\036D\2457O\357\327\353\200"
 230      085398C9 
 230      16511E44 
 230      A5374FEF 
 230      D7EB80
 231 0038 8023A27D 		.ascii	"\200#\242}aJ\005N\347\200\352tr\020\037)P\304O\242\247"
 231      614A054E 
 231      E780EA74 
 231      72101F29 
 231      50C44FA2 
 232 004d 12EEA9EC 		.ascii	"\022\356\251\354\216g\023\306g\262^\227\324\340kx\240"
 232      8E6713C6 
 232      67B25E97 
 232      D4E06B78 
 232      A0
 233 005e CA46F4CD 		.ascii	"\312F\364\315`\021\237\250\275v\035\215\310\017jt{\247"
ARM GAS  /var/folders/c6/c789hm653lg9vtl73krp73tm0000gn/T//ccHZucMX.s 			page 18


 233      60119FA8 
 233      BD761D8D 
 233      C80F6A74 
 233      7BA7
 234 0070 266E2BEA 		.ascii	"&n+\352\226\333\0135u{\243\366\335^\251\003\267/j\346"
 234      96DB0B35 
 234      757BA3F6 
 234      DD5EA903 
 234      B72F6AE6 
 235 0084 B6A6E66E 		.ascii	"\266\246\346n?\324\341\277\011\006(n~\215}\224\015S"
 235      3FD4E1BF 
 235      0906286E 
 235      7E8D7D94 
 235      0D53
 236 0096 14E3EB28 		.ascii	"\024\343\353(\222bq\221\213l\243\272\265Y\206X4\314"
 236      92627191 
 236      8B6CA3BA 
 236      B5598658 
 236      34CC
 237 00a8 515C5D8A 		.ascii	"Q\\]\212H\206\362x\265/\002\034\236\030\243u\365\367"
 237      4886F278 
 237      B52F021C 
 237      9E18A375 
 237      F5F7
 238 00ba 685DC39D 		.ascii	"h]\303\235\366_\314P\315\226F\340\274\356\223\256K\272"
 238      F65FCC50 
 238      CD9646E0 
 238      BCEE93AE 
 238      4BBA
 239 00cc 2E4951AD 		.ascii	".IQ\255\347\306=\224\343\372\276\213\252!pg\304\037"
 239      E7C63D94 
 239      E3FABE8B 
 239      AA217067 
 239      C41F
 240 00de 6E5B76C4 		.ascii	"n[v\304"
 241              		.text
 242              		.section	.gnu.lto_.refs.f6d3a332cad761bb,"",%progbits
 243 0000 789C6362 		.ascii	"x\234cb`b\220f\200\000\026\006\006F&F fbb\006\222,L"
 243      60629066 
 243      80001606 
 243      06462646 
 243      20666262 
 244 0018 AC0C401E 		.ascii	"\254\014@\036#\033\023;\003\000\006\307\000R"
 244      231B133B 
 244      030006C7 
 244      0052
 245              		.text
 246              		.section	.gnu.lto_.decls.f6d3a332cad761bb,"",%progbits
 247 0000 789CBD5C 		.ascii	"x\234\275\\{t\024U\232\257\252\356\244\323$\204\207"
 247      7B741455 
 247      9AAFAAEE 
 247      A4D32484 
 247      87
 248 0011 A30B3EE3 		.ascii	"\243\013>\343\036\335\2633;\022tD\361\314\236\301\031"
 248      1EDDB333 
 248      3B127444 
 248      F1CC9EC1 
ARM GAS  /var/folders/c6/c789hm653lg9vtl73krp73tm0000gn/T//ccHZucMX.s 			page 19


 248      19
 249 0022 6657D8A3 		.ascii	"fW\330\243\263\254\034\317\3149\343L[t\212\244\227\356"
 249      B3AC1CCF 
 249      CC39E34C 
 249      5B748AA4 
 249      97EE
 250 0034 A4ADAE80 		.ascii	"\244\255\256\200\354\376a\245\203\001\0055@x\010\211"
 250      ECFE61A5 
 250      83010535 
 250      40780889 
 251 0044 84471490 		.ascii	"\204G\024\220Wx)*\320q0\011\362~\277\024\242\274\204"
 251      5778292A 
 251      D0713009 
 251      F27EBF14 
 251      A2BC84
 252 0057 01038220 		.ascii	"\001\003\202 \210d\277\373\325\255\356\252\333U\235"
 252      8864BFFB 
 252      D5ADEEAA 
 252      DB559D
 253 0066 AAA85B87 		.ascii	"\252\250[\207{\253r\353\336\337\375\336\367Q\267\021"
 253      7BAB72EB 
 253      DEDFFDDE 
 253      F751B711 
 254 0076 38812BF2 		.ascii	"8\201+\362p\\\007\\\255Or\334\317\375\034\227\305q\334"
 254      705C075C 
 254      AD4F72DC 
 254      CFFD1C97 
 254      C571DC
 255 0089 6F38ED3E 		.ascii	"o8\355>\027\022\017i\021\244\245\220\0329\355\312\207"
 255      17120F69 
 255      11A4A590 
 255      1A39EDCA 
 255      87
 256 009a 14871755 		.ascii	"\024\207\027U\220\252!\325@\252\205T\017i\036\244\005"
 256      90AA21D5 
 256      40AA8554 
 256      0F691EA4 
 256      05
 257 00ab 9016425A 		.ascii	"\220\026BZ\002i\031\244\025\220VBZ\015\311\013m\327"
 257      026919A4 
 257      15905642 
 257      5A0DC90B 
 257      6DD7
 258 00bd C2FD7D48 		.ascii	"\302\375}H\353!%x\316t\021\334[h_>HO\011\034W\011e\375"
 258      EB212578 
 258      CE7411DC 
 258      5B685F3E 
 258      484F091C 
 259 00d5 20B5426A 		.ascii	" \265Bj\202\364\007(\373OH\033\340\375JH\303\004\215"
 259      82F40728 
 259      FB4F481B 
 259      E0FD4A48 
 259      C3048D
 260 00e8 D63AF29E 		.ascii	"\326:\362\236\322\227\007\351\277\240|\270\240\361\322"
 260      D29707E9 
 260      BFA07CB8 
 260      A0F1D2
ARM GAS  /var/folders/c6/c789hm653lg9vtl73krp73tm0000gn/T//ccHZucMX.s 			page 20


 261 00f7 02EFB643 		.ascii	"\002\357\266Cz\030\322A\3227\224e\323\376\346Q\332\011"
 261      7A18D241 
 261      D2379465 
 261      D3FEE651 
 261      DA09
 262 0109 0FCF40FD 		.ascii	"\017\317@\375?A\022(\235,}\204\347\333)}z?\204\026R"
 262      3F411228 
 262      9D2C7D84 
 262      E7DB297D 
 262      7A3F8416 
 263 011e CD481FA1 		.ascii	"\315H\037\241i\221\201&\235\026\235\237\237\361\032"
 263      69918126 
 263      9D169D9F 
 263      9FF11A
 264 012d ED84AF41 		.ascii	"\355\204\257Ap\357\005\367\033p\027I;x\036\001\367\006"
 264      70EF05F7 
 264      1B701749 
 264      3B781E01 
 264      F706
 265 013f B8E752DA 		.ascii	"\270\347R\332\011\315\177\205\364,\244\236\220\012 "
 265      09CD7F85 
 265      F42CA49E 
 265      900A20
 266 014e AD837703 		.ascii	"\255\203w\003\340\376\001\334\277\203t\013\255_Ey\011"
 266      E0FE01DC 
 266      BF83740B 
 266      AD5F4579 
 266      09
 267 015f 02C648CA 		.ascii	"\002\306H\312\3172\252\217\220\240\351\206\350(N\365"
 267      CF32AA8F 
 267      90A0E986 
 267      E8284EF5 
 268 016f 41743111 		.ascii	"At1\021\322\253\026\374\022\375\366\266\340\327\212"
 268      D2AB16FC 
 268      12FDF6B6 
 268      E0D78A
 269 017e 2723FFFD 		.ascii	"'#\377\375(\177#\250l\032(\177>\003?\317R}\020>t\036"
 269      287F23A8 
 269      6C1A287F 
 269      3E033FCF 
 269      527D103E 
 270 0194 72699F56 		.ascii	"ri\237V\264\313\202fK\204\366\377\0254\372\0116K3\261"
 270      B4CB8266 
 270      4B84F6FF 
 270      1534FA09 
 270      364B33B1 
 271 01a8 C75ED476 		.ascii	"\307^\324v\255\354A\247\367\006\265\237FjCK\251\276"
 271      ADEC41A7 
 271      F706B59F 
 271      466A434B 
 271      A9BE
 272 01ba 886E2AE0 		.ascii	"\210n*\340\357i\024_\247\253\306\206.\"\353\270\240"
 272      EF69145F 
 272      A7ABC686 
 272      2E22EBB8 
 272      A0
 273 01cb D9F74A2A 		.ascii	"\331\367J*Wp+\264\3577 \315b\350\313\345^Q\325\270Z"
ARM GAS  /var/folders/c6/c789hm653lg9vtl73krp73tm0000gn/T//ccHZucMX.s 			page 21


 273      57702BB4 
 273      EF3720CD 
 273      62E8CBE5 
 273      5E51D5B8 
 274 01e0 5FA50E69 		.ascii	"_\245\016i\315\357\305U\253p\025\314\314\367s\023Hq"
 274      CDEFC555 
 274      AB7015CC 
 274      CCF77313 
 274      4871
 275 01f2 5B43A2CF 		.ascii	"[C\242\317L \371O\274\310CY\016>\344\371\221\222\373"
 275      4C20F94F 
 275      BCC84359 
 275      0E3EE4F9 
 275      9192FB
 276 0205 B9055017 		.ascii	"\271\005P\027\032\010\311\312j\237>\326uE~\001\177?"
 276      1A08C9CA 
 276      6A9F3ED6 
 276      75457E01 
 276      7F3F
 277 0217 E40DBC1F 		.ascii	"\344\015\274\037{%\257\264g\375\251\203'v.0\324\351"
 277      7B25AFB4 
 277      67FDA983 
 277      27762E30 
 277      D4E9
 278 0229 57672D69 		.ascii	"Wg-i\237\317\351}\346a\335\024;ZM\353Z\"\3776\337\013"
 278      9FCFE97D 
 278      E661DD14 
 278      3B5A4DEB 
 278      5A22FF36 
 279 023f 9F900F95 		.ascii	"\237\220\017\225\312\002k\320\026\005z\013/m\261\320"
 279      CA026BD0 
 279      16057A0B 
 279      2F6DB1D0 
 280 024f 404D9E3F 		.ascii	"@M\236?\365\220k\242Y\257e\0133\227O6\260\321\203\310"
 280      F5906BA2 
 280      59AF650B 
 280      33974F36 
 280      B0D183C8 
 281 0263 CF4F113E 		.ascii	"\317O\021>Lo\337-\023{L-\221\177\3075{Kl\330\363\233"
 281      4C6FDF2D 
 281      137B4C2D 
 281      917FC735 
 281      7B4B6CD8 
 282 0279 D85BD219 		.ascii	"\330[\322\031{\213\334\261W\242\267\357\236\211=\246"
 282      7B8BDCB1 
 282      57A2B7EF 
 282      9E893DA6 
 283 0289 96C82F77 		.ascii	"\226\310/w\315\336\012\033\366\362L\354\255\350\214"
 283      CDDE0A1B 
 283      F6F24CEC 
 283      ADE88C
 284 0298 BDA536EC 		.ascii	"\275\2456\354\365\346&#\341\023\216\247,S\315\326[?"
 284      F5E62623 
 284      E1138EA7 
 284      2C53CDD6 
 284      5B3F
 285 02aa C751D7A9 		.ascii	"\307Q\327\251nk\237s\227\352\025\371\225|o0\375_\362"
ARM GAS  /var/folders/c6/c789hm653lg9vtl73krp73tm0000gn/T//ccHZucMX.s 			page 22


 285      6E6B9F73 
 285      97EA15F9 
 285      957C6F30 
 285      FD5FF2
 286 02bd DC2FB845 		.ascii	"\334/\270E\232G\315\273\203K\277:\207\025\270\177\345"
 286      9A47CDBB 
 286      834BBF3A 
 286      8715B87F 
 286      E5
 287 02ce 81AEB580 		.ascii	"\201\256\265\200'\362k\370_P\027m\253\253\372\270\222"
 287      27F26BF8 
 287      5F50176D 
 287      ABABFAB8 
 287      92
 288 02df AF50555E 		.ascii	"\257PU^{\307\321\267\026\327\275\\=\360\221\230\361"
 288      7BC7D1B7 
 288      16D7BD5C 
 288      3DF09198 
 288      F1
 289 02f0 5A5D5FB5 		.ascii	"Z]_\265\376#\250\337\010<\012\\\261\016k%\212\244\024"
 289      FE23A8DF 
 289      083C0A5C 
 289      B10E6B25 
 289      8AA414
 290 0303 0DB232C3 		.ascii	"\015\2622\303\315\332\236W-\352X\245n\261\012LXs\266"
 290      CDDA9E57 
 290      2DEA58A5 
 290      6EB10A4C 
 290      5873B6
 291 0316 D7226934 		.ascii	"\327\"i4\346h\022\267\326\021\225\362\221\361\333w\361"
 291      E66812B7 
 291      D61195F2 
 291      91F1DB77 
 291      F1
 292 0327 95C8FD06 		.ascii	"\225\310\375\006h&p\213y\336$\001\347P\373&~\334\304"
 292      6826708B 
 292      79DE2401 
 292      E750FB26 
 292      7EDCC4
 293 033a C711AA09 		.ascii	"\307\021\252\011\241:\272\014\3258\345\303\307T5G\344"
 293      A13ABA0C 
 293      D538E5C3 
 293      C7543547 
 293      E4
 294 034b 3721D049 		.ascii	"7!\320I\301\014$\362>\243\263i\177\353\025\010\232\317"
 294      C10C24F2 
 294      3EA3B369 
 294      7FEB1508 
 294      9ACF
 295 035d 9F7A2073 		.ascii	"\237z s\246\036\334O\\]\340.\010\016T\227cg\006j[m\325"
 295      A61EDC4F 
 295      5C5DE02E 
 295      080E5497 
 295      6367066A 
 296 0374 56CF1B6A 		.ascii	"V\317\033jb\234\207Zr}\266\235\214\004\356*\366\265"
 296      629C875A 
 296      727DB69D 
ARM GAS  /var/folders/c6/c789hm653lg9vtl73krp73tm0000gn/T//ccHZucMX.s 			page 23


 296      8C04EE2A 
 296      F6B5
 297 0386 99B5E48E 		.ascii	"\231\265\344\216\003[\343\324\2227;\262\3445\237\314"
 297      035BE3D4 
 297      92373BB2 
 297      E4359FCC 
 298 0396 4073B174 		.ascii	"@s\261tPC\367\365\202\336\377}\330\177\203\207\364\277"
 298      5043F7F5 
 298      82DEFF7D 
 298      D87F8387 
 298      F4BF
 299 03a8 9DED7FCF 		.ascii	"\235\355\177\317\354+\272'mw\324\377\234\3355\351\375"
 299      EC2BBA27 
 299      6D77D4FF 
 299      9CDD35E9 
 299      FD
 300 03b9 8BFC6F6E 		.ascii	"\213\374on\315d\033\035\007N]\244\275\354F\2379\342"
 300      CD641B1D 
 300      074E5DA4 
 300      BDEC469F 
 300      39E2
 301 03cb 61AD6390 		.ascii	"a\255c\220q\244\321\3766T\020\270\023I\372\273\344\262"
 301      71A4D1FE 
 301      365410B8 
 301      1349FABB 
 301      E4B2
 302 03dd C0E8D61A 		.ascii	"\300\350\326\032~J\245\332\332_\247\341\264k\304\002"
 302      7E4AA5DA 
 302      DA5FA7E1 
 302      B46BC402 
 303 03ed 932456EE 		.ascii	"\223$V\356\306 \240\201\235u\002fkJ\361\304j#\330y\327"
 303      C620A081 
 303      9D750266 
 303      6B4AF1C4 
 303      6A23D879 
 304 0402 6066CAD6 		.ascii	"`f\312\326\032\301.8\001\353iO\331{F\260K\256\301\314"
 304      1AC12E38 
 304      01EB694F 
 304      D97B46B0 
 304      4BAEC1CC 
 305 0416 94BD6F04 		.ascii	"\224\275o\004\273\342\004\254\217=e\037\032\301\256"
 305      BBE204AC 
 305      8F3D651F 
 305      1AC1AE
 306 0425 BB063353 		.ascii	"\273\0063S\266\301\010v\323\011X\201\005e\311\313n\210"
 306      B6C10876 
 306      D3095881 
 306      0565C9CB 
 306      6E88
 307 0437 DD961A62 		.ascii	"\335\226\032b\005\256\302\253\307\004\2276\315\2450"
 307      05AEC2AB 
 307      C7049736 
 307      CDA530
 308 0446 5EF2BA8D 		.ascii	"^\362\272\215a&\276a(\3356\237\237\252\371\2056\236"
 308      6126BE61 
 308      28DD369F 
 308      9FAAF985 
ARM GAS  /var/folders/c6/c789hm653lg9vtl73krp73tm0000gn/T//ccHZucMX.s 			page 24


 308      369E
 309 0458 4D748298 		.ascii	"Mt\202\230\301`\326\032\007\307\251\256\301\314j\331"
 309      C160D61A 
 309      07C7A9AE 
 309      C1CC6AD9 
 310 0468 4BC09858 		.ascii	"K\300\230Xc\230a\245\311\367\274Q\276\263\235t\236\301"
 310      639861A5 
 310      C9F7BC51 
 310      BEB39D74 
 310      9EC1
 311 047a C02EA475 		.ascii	"\300.\244uN\207\303D\225:\201\257h\2743\331\356q\243"
 311      4E87C344 
 311      953A81AF 
 311      68BC33D9 
 311      EE71A3
 312 048d A49341EF 		.ascii	"\244\223A\357\253\271tl\275\210C\342<\257\345\330\352"
 312      ABB9746C 
 312      BD8843E2 
 312      3CAFE5D8 
 312      EA
 313 049e 086CDFC4 		.ascii	"\010l\337\304\035\372@}\031\301\226v\035\254\276q\367"
 313      1DFA407D 
 313      19C19676 
 313      1DACBE71 
 313      F7
 314 04af 9D649A76 		.ascii	"\235d\232v\025\201\326z\331P\354g\006j\277y(\365\373"
 314      1581D67A 
 314      D950EC67 
 314      066ABF79 
 314      28F5FB
 315 04c2 530F1DFA 		.ascii	"S\017\035\372e^\346\374\244m\354T\177\301\250\372&\327"
 315      655EE6FC 
 315      A46DEC54 
 315      7FC1A8FA 
 315      26D7
 316 04d4 AA37BB45 		.ascii	"\2527\273Em\363Q\317\0145Q\3411,\0053\256\033aZ\326"
 316      6DF351CF 
 316      0C3551E1 
 316      312C0533 
 316      AE1B615A 
 317 04e9 B2559F96 		.ascii	"\262U\237\226\335@\311n\265V\221\003\250}\023\227\376"
 317      DD40C96E 
 317      B5569103 
 317      A87D1397 
 317      FE
 318 04fa 0BCEA53A 		.ascii	"\013\316\245:\020h_\227\201\032\247\2749\020\201\342"
 318      10685F97 
 318      811AA7BC 
 318      391081E2 
 319 050a 0201FA2C 		.ascii	"\002\001\372,M\327<\243k\336\254\203\344\272\224.K\177"
 319      4DD73CA3 
 319      6BDEAC83 
 319      E4BA942E 
 319      4B7F
 320 051c AABA301A 		.ascii	"\252\2720\032\263\0123\261\223!\344\352q\254\371\304"
 320      B30A33B1 
 320      9321E4EA 
ARM GAS  /var/folders/c6/c789hm653lg9vtl73krp73tm0000gn/T//ccHZucMX.s 			page 25


 320      71ACF9C4 
 321 052c 54FE525C 		.ascii	"T\376R\\\235\331\337\205\306\306'56\036\345\323\236"
 321      9DD9DF85 
 321      C6C62735 
 321      361EE5D3 
 321      9E
 322 053d 269F0E97 		.ascii	"&\237\016\227\002\202\211\236kFr\314\214T\235\356\002"
 322      0282899E 
 322      6B4672CC 
 322      8C549DEE 
 322      02
 323 054e 23DB7446 		.ascii	"#\333tF&!#\035?\002#\343\263\3342\322\323\300\010,\322"
 323      2621231D 
 323      3F0223E3 
 323      B3DC32D2 
 323      D3C0082C 
 324 0563 9A2FD768 		.ascii	"\232/\327h#\313-\334\224\314\323cB\317d\341\026\323"
 324      23CB2DDC 
 324      94CCD363 
 324      42CF64E1 
 324      16D3
 325 0575 D434F1CD 		.ascii	"\3244\361\315\016\276@+\356lV\252&\246\3566,\242TG\213"
 325      0EBE402B 
 325      EE6C56AA 
 325      26A6EE36 
 325      2CA25447 
 326 058a A896E422 		.ascii	"\250\226\344\"\252\006E\366Z\226\205\2239\202\332\267"
 326      AA0645F6 
 326      5A968593 
 326      3982DAB7 
 327 059a 6553238D 		.ascii	"eS#\215\3153\020\252\246\313P\215\273\337\325\374u\026"
 327      CD3310AA 
 327      A6CB508D 
 327      BBDFD5FC 
 327      7516
 328 05ac 02D566B1 		.ascii	"\002\325f\261j\314f\264\230m\326\"\374Iz\372\026C\345"
 328      6ACC66B4 
 328      986DD622 
 328      FC497AFA 
 328      1643E5
 329 05bf 8BB484FC 		.ascii	"\213\264\204\374\341\343\376\337\333\011\334[H>\321"
 329      E1E3FEDF 
 329      DB09DC5B 
 329      483ED1
 330 05ce 6057E6EC 		.ascii	"`W\346\354d\231\277\265F\237\233hJZ\372\203\020\343"
 330      6499BFB5 
 330      469F9B68 
 330      4A5AFA83 
 330      10E3
 331 05e0 898D53F4 		.ascii	"\211\215S\364}\200Adv\262\366\007\302}\272\233\235 "
 331      7D804164 
 331      76B2F607 
 331      C27DBA9B 
 331      9D20
 332 05f2 30539595 		.ascii	"0S\225\2256\003\020U\367\353\307\333\004T\367\002\201"
 332      36031055 
 332      F7EBC7DB 
ARM GAS  /var/folders/c6/c789hm653lg9vtl73krp73tm0000gn/T//ccHZucMX.s 			page 26


 332      0454F702 
 332      81
 333 0603 90B33E4D 		.ascii	"\220\263>M\335\215<\263,\"\005\206*v\3164_0\214\205"
 333      DD8D3CB3 
 333      2C220586 
 333      2A76CE34 
 333      5F308C85 
 334 0617 3B7F1897 		.ascii	";\177\030\227\240\206c\01345t\266\350|NG\313\303\216"
 334      A086630B 
 334      343574B6 
 334      E87C4E47 
 334      CBC38E
 335 062a F763C78B 		.ascii	"\367c\307\213\005f\3159\243\275\255\212\372\013y\327"
 335      0566CD39 
 335      A3BDAD8A 
 335      FA0B79D7 
 336 063a B9771F39 		.ascii	"\271w\0379\351W\247\344Y\364g5Sz\375l\253\027e\272L"
 336      E957A7E4 
 336      59F46735 
 336      537AFD6C 
 336      AB1765BA 
 337 064f 20BB5095 		.ascii	" \273P\225\331f\231\352K\365\307\355``\316\212M\032"
 337      D96699EA 
 337      4BF5C7ED 
 337      6060CE8A 
 337      4D1A
 338 0661 59B2EB9A 		.ascii	"Y\262\353\232\257\352K\365F\007d\307\023\027'\0327\235"
 338      AFEA4BF5 
 338      460764C7 
 338      1317271A 
 338      379D
 339 0673 44FE7D5E 		.ascii	"D\376}^\240\270]\263\266\257\267$'\326\"\377\241k\260"
 339      A0B85DB3 
 339      B6AFB724 
 339      27D622FF 
 339      A16BB0
 340 0686 022B5293 		.ascii	"\002+R\223v\225\344V\344W\011dg{\265p/)\201<y\011\334"
 340      7695E456 
 340      E4570964 
 340      677BB570 
 340      2F29813C 
 341 069d 826C5DA3 		.ascii	"\202l]\243V\242\353\334\243g\264\177;]3%7\221z\257\036"
 341      56A2EBDC 
 341      A367B47F 
 341      3B5D3325 
 341      37917AAF 
 342 06b2 A9DFC320 		.ascii	"\251\337\303 \260$\233u\023\022vM\354\270\012S+Y\246"
 342      B0249B75 
 342      1312764D 
 342      ECB80A53 
 342      2B59A6
 343 06c5 9CAEDD93 		.ascii	"\234\256\335\223\227\235\033.2\272\341{\331?\320\015"
 343      979D1B2E 
 343      32BAE17B 
 343      D93FD00D 
 344 06d5 9B4F3B74 		.ascii	"\233O;tC\2257\256\254\004n#\366\274\2215\350\306+\255"
 344      439537AE 
ARM GAS  /var/folders/c6/c789hm653lg9vtl73krp73tm0000gn/T//ccHZucMX.s 			page 27


 344      AC046E23 
 344      F6BC9135 
 344      E8C62BAD 
 345 06e9 E3A9416F 		.ascii	"\343\251Aot\344\207\337\240\037\352\236\365e\022\265"
 345      74E487DF 
 345      A01FEA9E 
 345      F56512B5 
 346 06f9 2BB6104F 		.ascii	"+\266\020O\\;\263\231G8m\245x\201\205s\252\005\012w"
 346      5C3BB399 
 346      47386DA5 
 346      78818573 
 346      AA050A77 
 347 070d 43722B18 		.ascii	"Cr+\030\315\276\022\207N\222yF+\362\364m\232ii\2221"
 347      CDBE1287 
 347      4E927946 
 347      2BF2F46D 
 347      9A696992 
 348 0722 98D64683 		.ascii	"\230\326F\203\2474\241\247|\204\236\262\011\363f\243"
 348      A734A1A7 
 348      7C849EB2 
 348      09F366A3 
 349 0732 BFD89945 		.ascii	"\277\330\231E\213\321,T\237[\276\013\034Z\337\006c7"
 349      8BD12C54 
 349      9F5BBE0B 
 349      1C5ADF06 
 349      6337
 350 0744 E37D3FCC 		.ascii	"\343}?\314\372j\233\333\275\270\327\351b\237\272e\207"
 350      FA6A9BDB 
 350      BDB8D7E9 
 350      629FBA65 
 350      87
 351 0755 EEB8DBB5 		.ascii	"\356\270\333\265)\226\217\225n\023;+u\262m;\253\253"
 351      29968F95 
 351      6E133B2B 
 351      75B26D3B 
 351      ABAB
 352 0767 AC242F81 		.ascii	"\254$/\201\233\353s\260>,\260\220zrjr\225NM:\335\373"
 352      9BEB73B0 
 352      3E2CB090 
 352      7A726A72 
 352      954E4D3A 
 353 077d A5D2587E 		.ascii	"\245\322X~*\241\215K{\321\322\032|\326\343R\206-\344"
 353      2AA18D4B 
 353      7BD1D21A 
 353      7CD6E352 
 353      862DE4
 354 0790 D5D8E440 		.ascii	"\325\330\344@\332\270TuY\037\227\0168\032\227\366X\216"
 354      DAB85475 
 354      591F970E 
 354      381A97F6 
 354      588E
 355 07a2 4B07DC8F 		.ascii	"K\007\334\217KV\227\221@\221?\204\016r\330<\210lr\""
 355      4B569791 
 355      40913F84 
 355      0E72D83C 
 355      886C7222 
 356 07b6 FB7FB633 		.ascii	"\373\177\2663E5qmO-\257\321\257\005\242\355,\236U 2"
ARM GAS  /var/folders/c6/c789hm653lg9vtl73krp73tm0000gn/T//ccHZucMX.s 			page 28


 356      4535716D 
 356      4F2DAFD1 
 356      AF05A2ED 
 356      2C9E5520 
 357 07cb E1997499 		.ascii	"\341\231t\231\250"
 357      A8
 358 07d0 DE8FE3AA 		.ascii	"\336\217\343\2526\303<\344\204\270\376v`\361D\255\006"
 358      36C33CE4 
 358      84B8FE76 
 358      60F144AD 
 358      06
 359 07e1 A619FC31 		.ascii	"\246\031\3741'`\003\3558\215'>\230\256kj\003N\020\317"
 359      276003ED 
 359      388D273E 
 359      98AE6B6A 
 359      034E10CF 
 360 07f5 BAC63313 		.ascii	"\272\3063\023\267g\177\255\216\207\033\013\227\235\340"
 360      B7677FAD 
 360      8E871B0B 
 360      979DE0
 361 0804 3D6E4FDF 		.ascii	"=nO\337\305\351\246\351t\207k8\263\"\276\337O\024;\251"
 361      C5E9A6E9 
 361      74876B38 
 361      B322BEDF 
 361      4F143BA9 
 362 0818 8FD587C1 		.ascii	"\217\325\207\301D2t\223]\033\352Ss\346]\354\253\005"
 362      44327493 
 362      5D1BEA53 
 362      73E65DEC 
 362      AB05
 363 082a 98336809 		.ascii	"\2303h\011o\345X:U\006 b\260\347\030\217J46\347\221"
 363      6FE5583A 
 363      55062062 
 363      B0E7188F 
 363      4A3436E7 
 364 083f FDB1738E 		.ascii	"\375\261s\216\274iU\263\353\357w-\315z\\lG3Y\227\363"
 364      BC6955B3 
 364      EBEF772D 
 364      CD7A5C6C 
 364      47335997 
 365 0854 A3C4C526 		.ascii	"\243\304\305&\2049\327\325\371%HsW\337u+U\365\345l\235"
 365      8439D7D5 
 365      F9254873 
 365      57DF752B 
 365      55F5E56C 
 366 0869 B066D788 		.ascii	"\260f\327\210f{[\333\214\316\240\201mu\002\226a\200"
 366      667B5BDB 
 366      8CCEA081 
 366      6D750296 
 366      6180
 367 087b 7F8F80B9 		.ascii	"\177\217\200\271\371J\272O\227\362\267\330\377\256\037"
 367      F94ABA4F 
 367      97F2B7D8 
 367      FFAE1F
 368 088a 47CA075D 		.ascii	"G\312\007]\263a\222\011H\371L\337u\253U\265\36197\373"
 368      B3619209 
 368      48F94CDF 
ARM GAS  /var/folders/c6/c789hm653lg9vtl73krp73tm0000gn/T//ccHZucMX.s 			page 29


 368      75AB55B5 
 368      F13937FB 
 369 089e BF47C6B7 		.ascii	"\277G\306\267\350\334|\217\334\034N\343\3462\313\215"
 369      E8DC7C8F 
 369      DC1C4EE3 
 369      E632CB8D 
 370 08ae C3FD5481 		.ascii	"\303\375T\201;\316\262d\025@\255v\374\255.\243?\211"
 370      3BCEB264 
 370      1540AD76 
 370      FCAD2EA3 
 370      3F89
 371 08c0 FC791C00 		.ascii	"\374y\034\000\276\302\271\321%\314\277\301\374*\346"
 371      BEC2B9D1 
 371      25CCBFC1 
 371      FC2AE6
 372 08cf 37CC03C3 		.ascii	"7\314\003\303W9L\3740\373*}\034\342\230\220\324\271"
 372      57394CFC 
 372      30FB2A7D 
 372      1CE29890 
 372      D4B9
 373 08e1 01583AE0 		.ascii	"\001X:\340q\235u<\351\366\003\314\327c\336\212\371\227"
 373      719D753C 
 373      E9F603CC 
 373      D763DE8A 
 373      F997
 374 08f3 989FC5FC 		.ascii	"\230\237\305\374\034\346\355\230\177\207y\025\022;\021"
 374      1CE6ED98 
 374      7F877915 
 374      123B11
 375 0902 F36ACCF7 		.ascii	"\363j\314\367`\376)\346G1o\303\374\013\314O`~\012\363"
 375      60FE29E6 
 375      47316FC3 
 375      FC0BCC4F 
 375      607E0AF3 
 376 0916 2F9D4C08 		.ascii	"/\235L\010\231U\375=\334\233j\342B\333go_|v\011\361"
 376      9955FD3D 
 376      DC9B6AE2 
 376      42DB676F 
 376      5F7C7609 
 377 092b 47F566C7 		.ascii	"G\365f\307\213\025*\177\0337\215.\231T^\261\375\344"
 377      8B152A7F 
 377      1B378D2E 
 377      99545EB1 
 377      FDE4
 378 093d 4AF02A3D 		.ascii	"J\360*=\267\321\247g<\272p\247\373\315\006\303q\377"
 378      B7D1A767 
 378      3CBA70A7 
 378      FBCD06C3 
 378      71FF
 379 094f C435103C 		.ascii	"\3045\020<u\241\352A4R?\356\271\307,\303q\036\301X@"
 379      75A1EA41 
 379      34523FEE 
 379      B9C72CC3 
 379      711EC158 
 380 0964 48AB6F6B 		.ascii	"H\253ok\233\366\316\265\333g\300\354G\275@\274\202!"
 380      9BF6CEB5 
 380      DB67C0EC 
ARM GAS  /var/folders/c6/c789hm653lg9vtl73krp73tm0000gn/T//ccHZucMX.s 			page 30


 380      47BD40BC 
 380      8221
 381 0976 8C0CA476 		.ascii	"\214\014\244v\224\215\247\224y\360\014 e=\371G\215\266"
 381      948DA794 
 381      79F00C20 
 381      653DF947 
 381      8DB6
 382 0988 8E4B918D 		.ascii	"\216K\221\215\224o`(\277\217\233\257\252S\324\253EC"
 382      946F6028 
 382      BF8F9BAF 
 382      AA53D4AB 
 382      4543
 383 099a F4B5432B 		.ascii	"\364\265C+\326\250\002\332\255\372\245\333(\330\254"
 383      D6A802DA 
 383      ADFAA5DB 
 383      28D8AC
 384 09a9 5A9D2D0D 		.ascii	"Z\235-\015\321\307\372-\2354\243\344P9-\257z\251\247"
 384      D1C7FA2D 
 384      9D34A3E4 
 384      50392DAF 
 384      7AA9A7
 385 09bc 572FB46F 		.ascii	"W/\264oF\031}\305Jn\211\213-\257\302`\021Ott\014b\245"
 385      46197DC5 
 385      4A6E898B 
 385      2DAFC260 
 385      114F7474 
 386 09d3 4668B493 		.ascii	"Fh\264\223\332d\013}\356\260\326g\\]\271P\365\353;G"
 386      DA640B7D 
 386      EEB0D667 
 386      5C5DB950 
 386      F5EB3B47 
 387 09e7 60AF99C9 		.ascii	"`\257\231\311\234bI\346\256W\266\300\322L\275\321\321"
 387      9C6249E6 
 387      AE57B6C0 
 387      D24CBDD1 
 387      D1
 388 09f8 E161C9CC 		.ascii	"\341a\311\314`u\323\272\240\333C\326\272\375N\327\255"
 388      6075D3BA 
 388      A0DB43D6 
 388      BAFD4ED7 
 388      AD
 389 0a09 C84FF290 		.ascii	"\310O\362\220\331i\215#\335\316\321u+\362\257u\322\314"
 389      D9698D23 
 389      DDCED175 
 389      2BF2AF75 
 389      D2CC
 390 0a1b ACDB57D5 		.ascii	"\254\333W\325\227z\362I'\250a\235`f\272\224\332\252"
 390      977AF249 
 390      27A8619D 
 390      6066BA94 
 390      DAAA
 391 0a2d 897FFEC7 		.ascii	"\211\177\376\307\314\225\3528\364O\027\336Y\307\312"
 391      CC95EA38 
 391      F44F17DE 
 391      59C7CA
 392 0a3c E93C326A 		.ascii	"\351<2j\222\313\2514\355jU\347XR\262sy\323\355o\250"
 392      92CBA934 
ARM GAS  /var/folders/c6/c789hm653lg9vtl73krp73tm0000gn/T//ccHZucMX.s 			page 31


 392      ED6A55E7 
 392      5852B273 
 392      79D3ED6F 
 393 0a51 1F8D533B 		.ascii	"\037\215S;:^\244\356/pS\272YC\314\265\204\330\260j\363"
 393      3A5EA4EE 
 393      2F7053BA 
 393      5943CCB5 
 393      84D8B06A 
 394 0a66 AFD32076 		.ascii	"\257\323 v\331@\314\267\204\250\255\332\337'\011\341"
 394      D940CCB7 
 394      84A8ADDA 
 394      DF2709E1 
 395 0a76 5C1C0DAC 		.ascii	"\\\034\015\2548n\340\247\011\2238\216\333\020\362\266"
 395      386EE0A7 
 395      0993388E 
 395      DB10F2B6 
 396 0a86 15218903 		.ascii	"\025!\211\003_|\311\333\021\222\311\315\026Y\0310C\311"
 396      5F7CC9DB 
 396      1192C9CD 
 396      16591930 
 396      43C9
 397 0a98 451B4ADE 		.ascii	"E\033J\336\261\024\311\306UM\277N\231\210.\326\357m"
 397      B114C9C6 
 397      554DBF4E 
 397      99882ED6 
 397      EF6D
 398 0aaa 3096DA28 		.ascii	"0\226\332(\367Z\3374\315\274\232k\015\261\334F\271\027"
 398      F75ADF34 
 398      CDBC9A6B 
 398      0DB1DC46 
 398      B917
 399 0abc D395FB8E 		.ascii	"\323\225\373\216\015D\243\215r\017\3641@LC\210\017m"
 399      0D44A38D 
 399      720FF431 
 399      404C4388 
 399      0F6D
 400 0ace 2056D950 		.ascii	" V\331Pq-\235\212\3156\020k\314\020\377\310\315Uw\356"
 400      712D9D8A 
 400      CD36106B 
 400      CC10FFC8 
 400      CD5577EE 
 401 0ae2 0497BBF6 		.ascii	"\004\227\273\366\227\251j\274U\035\007!\224\277G\344"
 401      97A96ABC 
 401      551D0721 
 401      94BF47E4 
 402 0af2 E7F1BDC8 		.ascii	"\347\361\275\310d\010A\342)g7mD\243\001\345j_$\357\346"
 402      640841E2 
 402      2967376D 
 402      44A301E5 
 402      6A5F24EF 
 403 0b07 2EE6D691 		.ascii	".\346\326\221U\370<<dIak\336\331uGEub\\=\011y<\264\\"
 403      55F83C3C 
 403      6449616B 
 403      DED97547 
 403      4575625C 
 404 0b21 0C6F45FE 		.ascii	"\014oE\376]\214!\206@\317\234D\025\270\233I\330Iy\010"
 404      5D8C2186 
ARM GAS  /var/folders/c6/c789hm653lg9vtl73krp73tm0000gn/T//ccHZucMX.s 			page 32


 404      40CF9C44 
 404      15B89B49 
 404      D8497908 
 405 0b35 BBD8009B 		.ascii	"\273\330\000\233\330\377\211\232S]1\201\360\013kU\003"
 405      D8FF899A 
 405      535D3181 
 405      F00B6B55 
 405      03
 406 0b46 A4212C31 		.ascii	"\244!,1\247?\005nF\236\016\331\240A.KB\202\014\353\232"
 406      A73F056E 
 406      469E0ED9 
 406      A0412E4B 
 406      42820CEB 
 407 0b5b B7F65912 		.ascii	"\267\366Y\022W\3075\202Iw\360\035\203,W8\177\3211\017"
 407      57C73582 
 407      4977F01D 
 407      832C5738 
 407      7FD1310F 
 408 0b6f 923140DF 		.ascii	"\2221@\337\027\277\276\323\203\373\017M\036\262TZ\225"
 408      17BFBED3 
 408      83FB0F4D 
 408      1EB2545A 
 408      95
 409 0b80 E760A964 		.ascii	"\347`\251d\006\022\270\215\330h\223'\3758\246\276\221"
 409      0612B88D 
 409      D8689327 
 409      FD38A6BE 
 409      91
 410 0b91 48DE75BE 		.ascii	"H\336u\276\221XwT[\301[l\321\265%\247|w\246ho\377\373"
 410      91587754 
 410      5BC15B6C 
 410      D1B525A7 
 410      7C77A668 
 411 0ba8 058DF656 		.ascii	"\005\215\366V\244}\263\015\355\2660\002\267\037\233"
 411      A47DB30D 
 411      EDB63002 
 411      B71F9B
 412 0bb7 6C49A77C 		.ascii	"lI\247|o\025\245|\213#\312\367\0346\357=\234H\342f\230"
 412      6F15A57C 
 412      8B23CAF7 
 412      1C36EF3D 
 412      9C48E266 
 413 0bcc 3A6B97E5 		.ascii	":k\227\345\242f\357a\\!i\313\361s,\230\253\025\222\232"
 413      A266EF61 
 413      5C2169CB 
 413      F1732C98 
 413      AB15929A 
 414 0be0 38A8816D 		.ascii	"8\250\201m\306\343\267\227\\\203\025\230(;6\313|d\366"
 414      C6E3B797 
 414      5C831598 
 414      283B36CB 
 414      7C64F6
 415 0bf3 9A13BC0C 		.ascii	"\232\023\274\014\307\202.\0346\034\013\252\350\356\026"
 415      C7822E1C 
 415      361C0BAA 
 415      E8EE16
 416 0c02 CC4CDC15 		.ascii	"\314L\334\025#\330\313N\300\254\216\371X]F#\021\371"
ARM GAS  /var/folders/c6/c789hm653lg9vtl73krp73tm0000gn/T//ccHZucMX.s 			page 33


 416      23D8CB4E 
 416      C0AC8EF9 
 416      585D4623 
 416      11F9
 417 0c14 6D1EB26A 		.ascii	"m\036\262j\330\356!3\371\235\230\357\306|/\346\3731"
 417      D8EE2133 
 417      F99D98EF 
 417      C67C2FE6 
 417      FB31
 418 0c26 3FE8312D 		.ascii	"?\3501-b\246v\327}\304\322\024;3\0115\261\306\3369\254"
 418      62A676D7 
 418      7DC4D214 
 418      3B330935 
 418      B1C6DE39 
 419 0c3b F6AFDB76 		.ascii	"\366\257\333v\\Jd\241s|\212\316\361F\367N\235\203\375"
 419      5C4A64A1 
 419      737C8ACE 
 419      F146F74E 
 419      9D83FD
 420 0c4e 3EB01C9B 		.ascii	">\260\034\233\034Ks\216\346\357_\242\316q\314\201s\304"
 420      1C4B738E 
 420      E6EF5FA2 
 420      CE71CC81 
 420      73C4
 421 0c60 13D766D4 		.ascii	"\023\327f\3249;\233\232\354\377g)6\226\177M\277\333"
 421      393B9B9A 
 421      ECFF6729 
 421      36967F4D 
 421      BFDB
 422 0c72 9D40369A 		.ascii	"\235@6\232;g\303\014\003>\216MN\247\263q^g\343\264#"
 422      3B67C30C 
 422      033E8E4D 
 422      4EA7B371 
 422      5E67E3B4 
 423 0c87 36D6CDD0 		.ascii	"6\326\315\320-\377\270\007\017\212&q\273\264\257\222"
 423      2DFFB807 
 423      0F8A2671 
 423      BBB4AF92 
 424 0c97 78FF001A 		.ascii	"x\377\000\032\253\006\326\356\032\314l\371\353\017\270"
 424      AB06D6EE 
 424      1ACC6CF9 
 424      EB0FB8
 425 0ca6 DD6E6A9F 		.ascii	"\335nj\237u+\331\315j\367\220\020s\225\021k\0277A*\362"
 425      752BD9CD 
 425      6AF79010 
 425      7395116B 
 425      1737412A 
 426 0cbb 1D7061BF 		.ascii	"\035pa\277\227\003:i\237f\361-\313\371\244\361\033v"
 426      97033A69 
 426      9F66F12D 
 426      CBF9A4F1 
 426      1B76
 427 0ccd AA368899 		.ascii	"\2526\210\231\251e\020\310\353\355\011\355\253\373e"
 427      A96510C8 
 427      EBED09ED 
 427      ABFB65
 428 0cdc D4C82BF9 		.ascii	"\324\310+\371f\2210\237\360IOvT\\\363\344\332XS\332"
ARM GAS  /var/folders/c6/c789hm653lg9vtl73krp73tm0000gn/T//ccHZucMX.s 			page 34


 428      6691309F 
 428      F0494F76 
 428      545CF3E4 
 428      DA5853DA 
 429 0cf0 3B080CAE 		.ascii	";\010\014\256ef\322<9O\323\240\237\206\300\355\326\331"
 429      6566D23C 
 429      394FD3A0 
 429      9F86C0ED 
 429      D6D9
 430 0d02 4E009D6F 		.ascii	"N\000\235o\333\2346\304\2753\030\367\316b|;\207\371"
 430      DB9C36C4 
 430      BD3318F7 
 430      CE627C3B 
 430      87F9
 431 0d14 57985FC2 		.ascii	"W\230_\302\374;c\304\263\223\0151\367$\366\337q\332"
 431      FC3B63C4 
 431      B3930D31 
 431      F724F6DF 
 431      71DA
 432 0d26 73ACCB2E 		.ascii	"s\254\313.t#\345B\260\\r\015f\022db\362a}\027\234\370"
 432      7423E542 
 432      B05C720D 
 432      66126462 
 432      F2617D17 
 433 0d3c 84C87FED 		.ascii	"\204\310\177\355\004/\303\306\344\012m0\322\034l^>\357"
 433      042FC3C6 
 433      E40A6D30 
 433      D21C6C5E 
 433      3EEF
 434 0d4e 12AC2093 		.ascii	"\022\254 \223R\216\031\224\3629*\345\013T\301\367\230"
 434      528E1994 
 434      F2392AE5 
 434      0B54C1F7 
 434      98
 435 0d5f DFC4BCC3 		.ascii	"\337\304\274\303<\000-\313g\006 s\270\267\032\017\215"
 435      3C002DCB 
 435      67062073 
 435      B8B71A0F 
 435      8D
 436 0d70 F251131F 		.ascii	"\362Q\023\037\376\265Z\264\012\267\277\325\333\326\030"
 436      FEB55AB4 
 436      0AB7BFD5 
 436      DBD618
 437 0d7f 3626DBAF 		.ascii	"6&\333\257$\264\260]\351%a{M~\347a\333\214#p\233\260"
 437      24B4B05D 
 437      E925617B 
 437      4D7EE761 
 437      DB8C2370 
 438 0d95 4D95376D 		.ascii	"M\2257mnvR\237\233\221w\235\304\355q\225\2115\263\337"
 438      6E76529F 
 438      9B91779D 
 438      C4ED7195 
 438      8935B3DF 
 439 0da9 4A0D3F95 		.ascii	"J\015?\225\356\217\013\357M\322\321\025#U\023\033\217"
 439      EE8F0BEF 
 439      4DD2D115 
 439      2355131B 
ARM GAS  /var/folders/c6/c789hm653lg9vtl73krp73tm0000gn/T//ccHZucMX.s 			page 35


 439      8F
 440 0dba E876A59D 		.ascii	"\350v\245\235S8\352\032\317\254\207\375G\320\2564\260"
 440      5338EA1A 
 440      CFAC87FD 
 440      47D0AE34 
 440      B0
 441 0dcb 534EC032 		.ascii	"SN\3002\314\015\277\376\263\245R\023\311\371\352\004"
 441      CC0DBFFE 
 441      B3A55213 
 441      C9F9EA04 
 442 0ddb 835237AE 		.ascii	"\203R7\256\372\374nm\263y2j\265\275s\2552@\270\215\302"
 442      FAFC6E6D 
 442      B379326A 
 442      B5BD73AD 
 442      3240B88D 
 443 0df0 683431A7 		.ascii	"h41\247\005\277\253\324t\256M\360\252w[tif\021\376+"
 443      05BFABD4 
 443      74AE4DF0 
 443      AA775B74 
 443      696611FE 
 444 0e05 7AF014B2 		.ascii	"z\360\024\262k\021d\343xgs\023\313#\002\323Z\310\021"
 444      6B1164E3 
 444      78677313 
 444      CB2302D3 
 444      5AC811
 445 0e18 8159288B 		.ascii	"\201Y(\213\227{\270\234_\341\226\017+\212=\332'\246"
 445      977BB89C 
 445      5FE1960F 
 445      2B8A3DDA 
 445      27A6
 446 0e2a 3A47A238 		.ascii	":G\2428\322l\014X\0027\023I\250\353\262,.U\231\247\366"
 446      D26C0C58 
 446      02371349 
 446      A8EBB22C 
 446      2E5599A7 
 447 0e3f F5AEF10A 		.ascii	"\365\256\361\012Lx\327\265\317<8(\275\345\004+C0\235"
 447      4C78D7B5 
 447      CF3C3828 
 447      BDE5042B 
 447      43309D
 448 0e52 DA52FB0F 		.ascii	"\332R\373\017j[\202\327\317>\257`\361\254N\241:\217"
 448      6A5B82D7 
 448      CF3EAF60 
 448      F1AC4EA1 
 448      3A8F
 449 0e64 A7294588 		.ascii	"\247)E\210\374\233^\022O\347xI\014\235\213\371|\314"
 449      FC9B5E12 
 449      4FE77849 
 449      0C9D8BF9 
 449      7CCC
 450 0e76 1BBC0E86 		.ascii	"\033\274\016\206\2677\274\206\310\261\316\265q\032\005"
 450      B737BC86 
 450      C8B1CEB5 
 450      711A05
 451 0e85 089EFE44 		.ascii	"\010\236\376D\265\250\377:\224\204\254Y)$5\351W\252"
 451      B5A8FF3A 
 451      9484AC59 
ARM GAS  /var/folders/c6/c789hm653lg9vtl73krp73tm0000gn/T//ccHZucMX.s 			page 36


 451      292435E9 
 451      57AA
 452 0e97 EE578BBC 		.ascii	"\356W\213\274n\177\037\272\330k\375\373\320AI\016\022"
 452      6E7F1FBA 
 452      D86BFDFB 
 452      D041490E 
 452      12
 453 0ea8 2C074CBF 		.ascii	",\007L\277\031\024g-\350\032\203\240\247\241\240\247"
 453      1914672D 
 453      E81A83A0 
 453      A7A1A0A7 
 454 0eb8 A3706762 		.ascii	"\243pgb\276\320k\032\262>\351\301\0047&\232\270Vs\225"
 454      BED06B1A 
 454      B23EE9C1 
 454      0437269A 
 454      B8567395 
 455 0ecc A1F709D8 		.ascii	"\241\367\011\330\373\313\330\357$\314_\303\274\332L"
 455      FBCBD8EF 
 455      24CC5FC3 
 455      BCDA4C
 456 0edb C3811ECC 		.ascii	"\303\201\036\314\260\311\214S\364\331\376\034A[m\325"
 456      B0C98C53 
 456      F4D9FE1C 
 456      415B6DD5 
 457 0eeb 3E5F859A 		.ascii	">_\205\232\230\331_\377\005\354\021\026\322\374\353"
 457      98D95FFF 
 457      05EC1116 
 457      D2FCEB
 458 0efa 56FA98C8 		.ascii	"V\372\230\310\020\265\217\036\315K\206\355NO\230\314"
 458      10B58F1E 
 458      CD4B86ED 
 458      4E4F98CC 
 459 0f0a 9977E651 		.ascii	"\231w\346Q\034\212\0331P\235\262\016T\231Oa\257f\003"
 459      1C8A1B31 
 459      509DB20E 
 459      54994F61 
 459      AF6603
 460 0f1d D545A940 		.ascii	"\325E\251@+u\260\374;I\017ti\337{\257b\377\253\335G"
 460      2B75B0FC 
 460      3B490F74 
 460      69DF7BAF 
 460      62FFABDD 
 461 0f32 296B95AE 		.ascii	")k\225\2566\250t\015\252t\255Y\2017Yi[\365W\237r\004"
 461      36A8740D 
 461      AA74AD59 
 461      81375969 
 461      5BF5579F 
 462 0f48 56D8E437 		.ascii	"V\330\3447\037\232\376,\367\302<:\304\300\224\304w-"
 462      1F9AFE2C 
 462      F7C23C3A 
 462      C4C094C4 
 462      772D
 463 0f5a BFA649FC 		.ascii	"\277\246I\374}\224xEO\007{j&\034\302\330zK\221\257w"
 463      7D947845 
 463      4F077B6A 
 463      261CC2D8 
 463      7A4B91AF 
ARM GAS  /var/folders/c6/c789hm653lg9vtl73krp73tm0000gn/T//ccHZucMX.s 			page 37


 464 0f6f 24F24BBA 		.ascii	"$\362K\272\310\265O\334\325H\300\372.\017\014\227%\262"
 464      C8B54FDC 
 464      D548C0FA 
 464      2E0F0C97 
 464      25B2
 465 0f81 B8D0B0A6 		.ascii	"\270\320\260\246\273\306*0J3q%kBe\266~0c\016\013f\371"
 465      BBC62A30 
 465      4A337125 
 465      6B4265B6 
 465      7E30630E 
 466 0f98 65378323 		.ascii	"e7\203#\\7\242-"
 466      5C37A22D 
 467 0fa0 768456E0 		.ascii	"v\204V\340\330\264\326\033Lk\003\232\326F\214\020M\230"
 467      D8B4D61B 
 467      4C6B039A 
 467      D6468C10 
 467      4D98
 468 0fb2 FF0DF38F 		.ascii	"\377\015\363\217\315\306\266\246'clf\275\322\307\205"
 468      CDC6B6A6 
 468      27636C66 
 468      BDD2C785 
 469 0fc2 19ACADAE 		.ascii	"\031\254\255\256\371\344\243hmz\340\007+\321~)\246#"
 469      F9E4A368 
 469      6D7AE007 
 469      2BD17E29 
 469      A623
 470 0fd4 F6D061BE 		.ascii	"\366\320a\276\345)\241\233]G\376Ol\"\377\335IN>J\343"
 470      E529A19B 
 470      5D47FE4F 
 470      6C22FFDD 
 470      494E3E4A 
 471 0fe9 C4DC2F7D 		.ascii	"\304\334/}n\263b\305Z\234\233\014k\226f\\\263\264\340"
 471      6EB362C5 
 471      5A9C9B0C 
 471      6B96665C 
 471      B3B4E0
 472 0ffc 3AE508E6 		.ascii	":\345\010\346"
 473 1000 7114E732 		.ascii	"q\024\3472\314W`\276\016\363V\263\200w%}I'\313\274\031"
 473      CC5760BE 
 473      0EF356B3 
 473      8077257D 
 473      4927CBBC 
 474 1015 4D3ADAEA 		.ascii	"M:\332\352M~#`\026\355\225\031\026\355\333\274\326\377"
 474      4D7E2360 
 474      16ED9519 
 474      16EDDBBC 
 474      D6FF
 475 1027 CB81B633 		.ascii	"\313\201\2663n\327j\273m\253e6GAH\253\035\266\255\352"
 475      6ED76ABB 
 475      6DAB6536 
 475      474148AB 
 475      1DB6ADEA 
 476 103b 3250B833 		.ascii	"2P\2703\325\212\032G\375\343\314\177\032\321So#\320"
 476      D58A1A47 
 476      FDE3CC7F 
 476      1AD1536F 
 476      23D0
ARM GAS  /var/folders/c6/c789hm653lg9vtl73krp73tm0000gn/T//ccHZucMX.s 			page 38


 477 104d 36BB5C9B 		.ascii	"6\273\\\233\306n\033\323\340\315]\263\377]\305@\275"
 477      C66E1BD3 
 477      E0CD5DB3 
 477      FF5DC540 
 477      BD
 478 105e 9E8FE2EC 		.ascii	"\236\217\342\354q\335\363^\233\236\263i\317\364\374"
 478      71DDF35E 
 478      9B9EB369 
 478      CFF4FC
 479 106d C39ED9DB 		.ascii	"\303\236\331\333Z\360'\333x\312\240>G\377d\264\227\011"
 479      5AF027DB 
 479      78CAA03E 
 479      47FF64B4 
 479      9709
 480 107f B3D62719 		.ascii	"\263\326'\031\366y\231\217\270\373\275i\037\245\240"
 480      F679998F 
 480      B8FBBD69 
 480      1FA5A0
 481 108e 93C96F7F 		.ascii	"\223\311o\1774\211\237\274\274J\255\256h\353xqN\242"
 481      34899FBC 
 481      BC4AADAE 
 481      68EB7871 
 481      4EA2
 482 10a0 DAEB7C13 		.ascii	"\332\353|\023\352\220\227\331\204jJ\377r\371j/#\261"
 482      EA9097D9 
 482      846A4AFF 
 482      72F96A2F 
 482      23B1
 483 10b2 5853E066 		.ascii	"XS\340f\367\242B\246\237\273w\301\004\232\327\377\013"
 483      F7A242A6 
 483      9FBB77C1 
 483      049AD7FF 
 483      0B
 484 10c3 8645D8E2 		.ascii	"\206E\330\342\240\327\356\3135\335\260\243<_\252\030"
 484      A0D7EECB 
 484      35DDB0A3 
 484      3C5FAA18 
 485 10d3 D627C9F3 		.ascii	"\326'\311\363A\226\347#f\236\031\033\\\224\301\006?"
 485      4196E723 
 485      669E191B 
 485      5C94C106 
 485      3F
 486 10e4 B7B5DC86 		.ascii	"\267\265\334\206\014\255\276H\265J\036b\331\365\347"
 486      0CADBE48 
 486      B54A1E62 
 486      D9F5E7
 487 10f3 D4219671 		.ascii	"\324!\226q\274\256\304\345\275\234(\3618\313\320\011"
 487      BCAEC4E5 
 487      BD9C28F1 
 487      38CBD009 
 488 1103 4B25EE9E 		.ascii	"K%\356\236}3\233\034N&_\332\356\325{X\347\250\207Sl"
 488      7D339B1C 
 488      4E265FDA 
 488      EED57B58 
 488      E7A88753 
 489 1118 0FA72D7B 		.ascii	"\017\247-{\250m>p{\262\007\347\026r\226\265\020\323"
 489      A86D3E70 
ARM GAS  /var/folders/c6/c789hm653lg9vtl73krp73tm0000gn/T//ccHZucMX.s 			page 39


 489      7BB207E7 
 489      167296B5 
 489      10D3
 490 112a 91081A1D 		.ascii	"\221\010\032\035\030\213\371\033C7\265\221w%\346H\304"
 490      188BF91B 
 490      4337B591 
 490      7725E648 
 490      C4
 491 113b 195B0B49 		.ascii	"\031[\013I\035\211\230\242N\326L\213t%p;\021\332\276"
 491      1D8998A2 
 491      4ED64C8B 
 491      7425703B 
 491      11DABE
 492 114e 212588CA 		.ascii	"!%\210\312\351\220j0\2553\254\234\316[\312\351\340\262"
 492      E9906A30 
 492      AD33AC9C 
 492      CE5BCAE9 
 492      E0B2
 493 1160 EB7DADE5 		.ascii	"\353}\255\345\224\303\215\307_3\276\244V\360\317'\007"
 493      94C38DC7 
 493      5F33BEA4 
 493      56F0CF27 
 493      07
 494 1171 129BFF80 		.ascii	"\022\233\377\200I\344/{s\310\001U\335Q\330K\253@.\322"
 494      49E42F7B 
 494      73C80155 
 494      DD51D84B 
 494      AB402ED2 
 495 1185 5E7BD69F 		.ascii	"^{\326\237x\316V\037\227\254\364\301\310\377\272\265"
 495      78CE561F 
 495      97ACF4C1 
 495      C8FFBAB5 
 496 1195 FCD7B3F2 		.ascii	"\374\327\263\362\377:\263\374\223\347q\016}J\304\250"
 496      FF3AB3FC 
 496      93E7710E 
 496      7D4AC4A8 
 497 11a5 91686A95 		.ascii	"\221hj\225\303F\\x\375\255\245T\353\232\217\335\276"
 497      C3465C78 
 497      FDADA554 
 497      EB9A8FDD 
 497      BE
 498 11b6 CEE0442E 		.ascii	"\316\340D.\3164\334`9&:f8~\245\267%\307\327\010\307"
 498      CE34DC60 
 498      39263A66 
 498      387EA5B7 
 498      25C7D708 
 499 11cb 5AF50B5E 		.ascii	"Z\365\013^\302\361w\216\014'\256^:1lH\352\004\222]+"
 499      C2F1778E 
 499      0C27AE5E 
 499      3A316C48 
 499      EA04925D 
 500 11e0 4AE0CD8C 		.ascii	"J\340\315\214!jZ\206`S\221\305\006\233C\313\256\337"
 500      216A5A86 
 500      605391C5 
 500      069B43CB 
 500      AEDF
 501 11f2 650E36DA 		.ascii	"e\0166\3329\205Zk\006\327\261*\215g99e\364\031{\312"
ARM GAS  /var/folders/c6/c789hm653lg9vtl73krp73tm0000gn/T//ccHZucMX.s 			page 40


 501      39855A6B 
 501      06D7B12A 
 501      8D673939 
 501      65F4197B 
 502 1207 C8BE99F9 		.ascii	"\310\276\231\371\224\221\311\241H#\223AWf\231\004\301"
 502      9491C9A1 
 502      48239341 
 502      57669904 
 502      C1
 503 1218 798325A2 		.ascii	"y\203%\242|_\277~\205\332\277\262X\241\254\024\206J"
 503      7C5FBF7E 
 503      85DABFB2 
 503      58A1AC14 
 503      864A
 504 122a 83E1F222 		.ascii	"\203\341\362\"\2510X\022\033\033S\306F\245X\277\022"
 504      A9305812 
 504      1B1B53C6 
 504      46A558BF 
 504      12
 505 123b 2E472991 		.ascii	".G)\221%\261(\240d?\361\207g\012\006s\376`I@+*\260o"
 505      25B128A0 
 505      643FF187 
 505      670A0673 
 505      FE604940 
 506 1253 1E2C2982 		.ascii	"\036,)\202\246\331\321@\251\364\202\002\267\250,\215"
 506      A6D9D140 
 506      A9F48202 
 506      B7A82C8D 
 507 1263 7E98A91E 		.ascii	"~\230\251\036-\223\225X\341o\237~j\360S/\024\006\313"
 507      2D939558 
 507      E16F9F7E 
 507      6AF0532F 
 507      1406CB
 508 1276 22D15058 		.ascii	"\"\321PX\222c\205O\014\036\014\010z\357>%*\207\312\002"
 508      9263854F 
 508      0C1E0C08 
 508      7AEF3E25 
 508      2A87CA02 
 509 128a CA9385E5 		.ascii	"\312\223\205\3451\2710\\\026\024\303\205\203\245pX\224"
 509      31B9305C 
 509      1614C385 
 509      83A57058 
 509      94
 510 129b 0B8B83C1 		.ascii	"\013\213\203\301\007D9\362@iY\251\364\200$\216\010\025"
 510      074439F2 
 510      406959A9 
 510      F480248E 
 510      0815
 511 12ad 3ED4FFC1 		.ascii	">\324\377\301\207\373\017\354?\240\320\\\254\323\025"
 511      87FB0FEC 
 511      3FA0D05C 
 511      ACD315
 512 12bc 538A42A5 		.ascii	"S\212B\245\012a\251\034\356\277z(\240<\373#\240F\304"
 512      0A61A91C 
 512      EEBF7A28 
 512      A03CFB23 
 512      A046C4
ARM GAS  /var/folders/c6/c789hm653lg9vtl73krp73tm0000gn/T//ccHZucMX.s 			page 41


 513 12cf 6049A854 		.ascii	"`I\250T*\014\024I#\305\362\260\022\320I\357\026\010"
 513      2A0C1449 
 513      23C5F2B0 
 513      12D049EF 
 513      1608
 514 12e1 E8FDA004 		.ascii	"\350\375\240\004Be\276`Y\251\002\002\271?\243$J\202"
 514      4265BE60 
 514      59A90202 
 514      B93FA324 
 514      4A82
 515 12f3 65B204ED 		.ascii	"e\262\004\355sIq\000\020\202\312\013?\357\274E`\364"
 515      73497100 
 515      1082CA0B 
 515      3FEFBC45 
 515      60F4
 516 1305 A311C29B 		.ascii	"\243\021\302\233,\025\003\241\001E\220\037\026\344\001"
 516      2C1503A1 
 516      0145901F 
 516      16E401
 517 1314 82FC8820 		.ascii	"\202\374\210 ?*\310\003\005\3711\217\374`\177H\017\012"
 517      3F2AC803 
 517      05F9318F 
 517      FC607F48 
 517      0F0A
 518 1326 61196EBF 		.ascii	"a\031n\277\312\212\006\000\331Gt4F\222\341^\026.\222"
 518      CA8A0600 
 518      D9477434 
 518      4692E15E 
 518      162E92
 519 1339 64A23331 		.ascii	"d\24231\"u\213)\243\304p\250\2704\240\240\264\036y8"
 519      22758B29 
 519      A3C470A8 
 519      B834A0A0 
 519      B41E7938 
 520 134d A05086F0 		.ascii	"\240P\206\3601\032\200\012\341P$\244\344(1ET\244\200"
 520      311A800A 
 520      E15024A4 
 520      E4283145 
 520      54A480
 521 1360 E2232F07 		.ascii	"\342#/\007\006\024\277V\015\236|\244\026\274\363)\221"
 521      0614BF56 
 521      0D9E7CA4 
 521      16BCF329 
 521      91
 522 1371 B22209FF 		.ascii	"\262\"\011\377\036\031\026\213c>E\226F\306P,\344!+\022"
 522      1E19168B 
 522      633E4596 
 522      46C6502C 
 522      E4212B12 
 523 1385 2B869754 		.ascii	"+\206\227TV\320\\\227\232\\4\026^\345H/\204\224 \000"
 523      56D05C97 
 523      9A5C3416 
 523      5EE5482F 
 523      84942000 
 524 1399 648F51CA 		.ascii	"d\217Q\312F\374w\26475Hh*\311Ri\020\200\263\306(\212"
 524      46FC77B4 
 524      37354868 
ARM GAS  /var/folders/c6/c789hm653lg9vtl73krp73tm0000gn/T//ccHZucMX.s 			page 42


 524      2AC95269 
 524      1080B3C6 
 525 13af 1CCD03CB 		.ascii	"\034\315\003\313\214I\0211Z\002\342\270\307\3368%\""
 525      8C491131 
 525      5A02E2B8 
 525      C7DE3825 
 525      22
 526 13c0 A71E1A4A 		.ascii	"\247\036\032J,\360|\271T\016\020=\223fM\213|\364\236"
 526      2CF07CB9 
 526      540E103D 
 526      93664D8B 
 526      7CF49E
 527 13d3 152C059D 		.ascii	"\025,\005\235f\305\002p\007\012\240u4\007\352F\312A"
 527      66C50270 
 527      070AA075 
 527      3407EA46 
 527      CA41
 528 13e5 93F69D44 		.ascii	"\223\366\235D\224\027\210\365F(V$P6\246\024\204\214"
 528      941788F5 
 528      46285624 
 528      5036A614 
 528      848C
 529 13f7 AD80B388 		.ascii	"\255\200\263\210\346\030c\024\250\027\315\225FK\245"
 529      E6186314 
 529      A817CD95 
 529      464BA5
 530 1406 4A448C8D 		.ascii	"JD\214\215\2027\322\030\362\340\211\006\312\363ur\302"
 530      8237D218 
 530      F2E08906 
 530      CAF37572 
 530      C2
 531 1417 A11850D0 		.ascii	"\241\030P\320\303@ )\361G\003c\304\220\022*-\006e\200"
 531      C3402029 
 531      F1470363 
 531      C490122A 
 531      2D066580 
 532 142b 983462F1 		.ascii	"\2304b\361\021\012\244\250T\012\326^\014\265\240\013"
 532      110AA4A8 
 532      540AD65E 
 532      0CB5A00B 
 533 143b 52BF1B11 		.ascii	"R\277\033\021\266\030F;\204\302hYY\370n[\362\025\"\242"
 533      B618463B 
 533      84C26859 
 533      59F86E5B 
 533      F21522A2 
 534 144f DE4A2822 		.ascii	"\336J(\"\005\"\222\030+\227\245\210D\304\340\223\025"
 534      05229218 
 534      2B97A588 
 534      44C4E093 
 534      15
 535 1460 14877784 		.ascii	"\024\207w\204\024\003\251\227\3111\305\033\026cJv9\026"
 535      1403A997 
 535      C931C51B 
 535      16634A76 
 535      3916
 536 1472 F3A539B2 		.ascii	"\363\2459\262\202\255\224n\301\362HyXTB\243%j\006\261"
 536      82AD946E 
ARM GAS  /var/folders/c6/c789hm653lg9vtl73krp73tm0000gn/T//ccHZucMX.s 			page 43


 536      C1F24879 
 536      585442A3 
 536      256A06B1 
 537 1486 0C2A194B 		.ascii	"\014*\031K\034&7X2|l\354\231R\360\307Qw0ucr\220H5V\334"
 537      1C263758 
 537      327C6CEC 
 537      9952F0C7 
 537      51773075 
 538 14a1 2F4822D0 		.ascii	"/H\"\320S\261\342\341\300\240\240D=P\246\025\374\021"
 538      53B1E2E1 
 538      C0A0A044 
 538      3D50A615 
 538      FC11
 539 14b3 A491874F 		.ascii	"\244\221\207OOKa Z\362#\336\0201\254\334k\3373!\014"
 539      4F4B6120 
 539      5AF223DE 
 539      1031ACDC 
 539      6BDF3321 
 540 14c8 FABE5323 		.ascii	"\372\276S#\021\362\262\250\316r (\207\200\251\222\""
 540      11F2B2A8 
 540      CE722028 
 540      8780A992 
 540      22
 541 14d9 FBE645D2 		.ascii	"\373\346E\322\210\362bh\336+P4\2428\020,\221\202\243"
 541      88F26268 
 541      DE2B5034 
 541      A238102C 
 541      9182A3
 542 14ec 02E5C840 		.ascii	"\002\345\310@w\350<X\362D\331\360\260$E\207\347\342"
 542      77E83C58 
 542      F244D9F0 
 542      B0244587 
 542      E7E2
 543 14fe 5F4F83F2 		.ascii	"_O\203\362\306\016\355a\250Kj\336\225\354Z\004\177g"
 543      C60EED61 
 543      A84B6ADE 
 543      95EC5A04 
 543      7F67
 544 1510 FB06BBFC 		.ascii	"\373\006\273\374\375\210\342\301\244\366`\220tlh\036"
 544      FD88E2C1 
 544      A4F66090 
 544      746C681E 
 545 1520 42FD511C 		.ascii	"B\375Q\034%\225G\207\263o\207\347\004\002#\313K\203"
 545      25954787 
 545      B36F87E7 
 545      040223CB 
 545      4B83
 546 1532 814077FD 		.ascii	"\201@w\375\241\337\200\201\217<\224g\020-\227z\365\310"
 546      A1DF8081 
 546      8F3C9467 
 546      102D977A 
 546      F5C8
 547 1544 80018F75 		.ascii	"\200\001\217uKJ\323\364\342\221\201\335\215\262$\312"
 547      4B4AD3F4 
 547      E29181DD 
 547      8DB224CA 
 548 1554 09905141 		.ascii	"\011\220QA\202\320\342O>\347\021{\034K-\024\032\004"
ARM GAS  /var/folders/c6/c789hm653lg9vtl73krp73tm0000gn/T//ccHZucMX.s 			page 44


 548      82D0E24F 
 548      3EE7117B 
 548      1C4B2D14 
 548      1A04
 549 1566 527FFB64 		.ascii	"R\177\373d\315\366\263e\214}Y2F\033\231F\033Y\2136~"
 549      CDF6B365 
 549      8C7D5932 
 549      461B9946 
 549      1B598B36 
 550 157b 282D97C1 		.ascii	"(-\227\301\213\225,\2314\272utHV\312\305p\200\030\221"
 550      8B952C99 
 550      34BA7574 
 550      4856CAC5 
 550      70801891 
 551 158f AC9BFE6D 		.ascii	"\254\233\376m\000l\361\242\207\251LsaS\221o\264\202"
 551      006CF1A2 
 551      87A94C73 
 551      6153916F 
 551      B482
 552 15a1 7E46EE64 		.ascii	"~F\356d\004\362\023\242\321:s\240\244H\012+\"< \313"
 552      04F213A2 
 552      D13A73A0 
 552      A4480A2B 
 552      223C20CB 
 553 15b5 58873C65 		.ascii	"X\207<e\223\272\242\234\0137b\330\244:\024\221\356\362"
 553      93BAA29C 
 553      0B3762D8 
 553      A43A1491 
 553      EEF2
 554 15c7 29FBA873 		.ascii	")\373\250s\315\037\215%\376\250X\032\012\022\367\363"
 554      CD1F8D25 
 554      FEA8581A 
 554      0A12F7F3 
 555 15d7 85623289 		.ascii	"\205b2\211\0269D\332\344\241\027q]Y\204H5\242|\344H"
 555      163944DA 
 555      E4A11771 
 555      5D598448 
 555      35A27CE4 
 556 15ec 42AA4F19 		.ascii	"B\252O\031\021\210\205\376G\312' c\202\001\214\000P"
 556      118885FE 
 556      47CA2720 
 556      6382018C 
 556      0050
 557 15fe 1C9390F2 		.ascii	"\034\223\220\362,r\217\372!\327B^\016<a$\315\206vQE"
 557      2C728FFA 
 557      21D7425E 
 557      0E3C6124 
 557      CD867651 
 558 1613 F6C34D83 		.ascii	"\366\303M\203\3123\342z\300\260\272ED\010\237\030'z"
 558      CA33E27A 
 558      C0B0BA45 
 558      44089F18 
 558      277A
 559 1625 2A91008C 		.ascii	"*\221\000\214l\241\0212\270a\031D\362\354\262\221#c"
 559      6CA11132 
 559      B8611944 
 559      F2ECB291 
ARM GAS  /var/folders/c6/c789hm653lg9vtl73krp73tm0000gn/T//ccHZucMX.s 			page 45


 559      2363
 560 1637 92222891 		.ascii	"\222\"(\221\374Q\222\\*\205\251\345)Y\245\201\220\374"
 560      FC51925C 
 560      2A85A9E5 
 560      2959A581 
 560      90FC
 561 1649 7C4E2951 		.ascii	"|N)Q\021\220\323-\2224?\375\021X\3123\266\311\017\025"
 561      1190D32D 
 561      92343FFD 
 561      1158CA33 
 561      B6C90F15 
 562 165d 85251A8F 		.ascii	"\205%\032\217 \016\011\301\022m\270\322\214\377\227"
 562      200E09C1 
 562      126DB8D2 
 562      8CFF97
 563 166c 46870105 		.ascii	"F\207\001\005\024\016~j\370\320\341)\277!\303U0\362"
 563      140E7E6A 
 563      F8D0E129 
 563      BF21C355 
 563      30F2
 564 167e EF206EF0 		.ascii	"\357 n\360\035\260: *\360\273\337\016\377\267aO\017"
 564      1DB03A20 
 564      2AF0BBDF 
 564      0EFFB761 
 564      4F0F
 565 1690 ED2E86C7 		.ascii	"\355.\206\307\210cc0\006\204aT\315\032-\206\313\251"
 565      88636330 
 565      06846154 
 565      CD1A2D86 
 565      CBA9
 566 16a2 233F09C0 		.ascii	"#?\011\300~\354\204t\221\247\305\355PiL\222\025\217"
 566      7EEC8474 
 566      91A7C5ED 
 566      50694C92 
 566      158F
 567 16b4 F27C3443 		.ascii	"\362|4C,\216\021\027\315\012\374\016B^\0174\352\241"
 567      2C8E1117 
 567      CD0AFC0E 
 567      425E0F34 
 567      EAA1
 568 16c6 B1615A78 		.ascii	"\261aZx\034\332K\203\031\031\032Y\006\266\033)\033-"
 568      1CDA4B83 
 568      19191A59 
 568      06B61B29 
 568      1B2D
 569 16d8 99CC7EF8 		.ascii	"\231\314~\370\377\001\335\212\313\036"
 569      FF01DD8A 
 569      CB1E
 570              		.text
 571              		.section	.gnu.lto_.symtab.f6d3a332cad761bb,"",%progbits
 572 0000 63684D73 		.ascii	"chMsgSend\000\000\000\000\000\000\000\000\000\000\000"
 572      6753656E 
 572      64000000 
 572      00000000 
 572      00000000 
 573 0014 00860100 		.ascii	"\000\206\001\000\000chMsgWait\000\000\000\000\000\000"
 573      0063684D 
ARM GAS  /var/folders/c6/c789hm653lg9vtl73krp73tm0000gn/T//ccHZucMX.s 			page 46


 573      73675761 
 573      69740000 
 573      00000000 
 574 0028 00000000 		.ascii	"\000\000\000\000\000\000\220\001\000\000chMsgReleas"
 574      00009001 
 574      00006368 
 574      4D736752 
 574      656C6561 
 575 003d 65000000 		.ascii	"e\000\000\000\000\000\000\000\000\000\000\000\000\224"
 575      00000000 
 575      00000000 
 575      0094
 576 004b 01000063 		.ascii	"\001\000\000ch\000\000\002\000\000\000\000\000\000\000"
 576      68000002 
 576      00000000 
 576      000000
 577 005a 0000C001 		.ascii	"\000\000\300\001\000\000chSysHalt\000\000\002\000\000"
 577      00006368 
 577      53797348 
 577      616C7400 
 577      00020000 
 578 006e 00000000 		.ascii	"\000\000\000\000\000\000\000\234\001\000\000_stats_"
 578      0000009C 
 578      0100005F 
 578      73746174 
 578      735F
 579 0080 73746F70 		.ascii	"stop_measure_crit_thd\000\000\002\000\000\000\000\000"
 579      5F6D6561 
 579      73757265 
 579      5F637269 
 579      745F7468 
 580 009d 00000000 		.ascii	"\000\000\000\000\240\001\000\000_dbg_check_unlock\000"
 580      A0010000 
 580      5F646267 
 580      5F636865 
 580      636B5F75 
 581 00b7 00020000 		.ascii	"\000\002\000\000\000\000\000\000\000\000\000\242\001"
 581      00000000 
 581      000000A2 
 581      01
 582 00c4 00006368 		.ascii	"\000\000chSchGoSleepS\000\000\002\000\000\000\000\000"
 582      53636847 
 582      6F536C65 
 582      65705300 
 582      00020000 
 583 00db 00000000 		.ascii	"\000\000\000\000\244\001\000\000chSchReadyI\000\000"
 583      A4010000 
 583      63685363 
 583      68526561 
 583      64794900 
 584 00f0 02000000 		.ascii	"\002\000\000\000\000\000\000\000\000\000\250\001\000"
 584      00000000 
 584      0000A801 
 584      00
 585 00fd 005F6462 		.ascii	"\000_dbg_check_lock\000\000\002\000\000\000\000\000"
 585      675F6368 
 585      65636B5F 
ARM GAS  /var/folders/c6/c789hm653lg9vtl73krp73tm0000gn/T//ccHZucMX.s 			page 47


 585      6C6F636B 
 585      00000200 
 586 0115 00000000 		.ascii	"\000\000\000\000\254\001\000\000_stats_start_measur"
 586      AC010000 
 586      5F737461 
 586      74735F73 
 586      74617274 
 587 0130 655F6372 		.ascii	"e_crit_thd\000\000\002\000\000\000\000\000\000\000\000"
 587      69745F74 
 587      68640000 
 587      02000000 
 587      00000000 
 588 0145 00AE0100 		.ascii	"\000\256\001\000\000chDbgCheckClassI\000\000\002\000"
 588      00636844 
 588      62674368 
 588      65636B43 
 588      6C617373 
 589 015e 00000000 		.ascii	"\000\000\000\000\000\000\000\000\260\001\000\000chS"
 589      00000000 
 589      B0010000 
 589      636853
 590 016d 63685761 		.ascii	"chWakeupS\000\000\002\000\000\000\000\000\000\000\000"
 590      6B657570 
 590      53000002 
 590      00000000 
 590      00000000 
 591 0181 00B20100 		.ascii	"\000\262\001\000\000chDbgCheckClassS\000\000\002\000"
 591      00636844 
 591      62674368 
 591      65636B43 
 591      6C617373 
 592 019a 00000000 		.ascii	"\000\000\000\000\000\000\000\000\264\001\000\000"
 592      00000000 
 592      B4010000 
 593              		.text
 594              		.section	.gnu.lto_.opts,"",%progbits
 595 0000 272D6D63 		.ascii	"'-mcpu=cortex-m4' '-mno-thumb-interwork' '-mthumb' "
 595      70753D63 
 595      6F727465 
 595      782D6D34 
 595      2720272D 
 596 0033 272D6767 		.ascii	"'-ggdb' '-O2' '-fomit-frame-pointer' '-falign-funct"
 596      64622720 
 596      272D4F32 
 596      2720272D 
 596      666F6D69 
 597 0066 696F6E73 		.ascii	"ions=16' '-ffunction-sections' '-fdata-sections' '-"
 597      3D313627 
 597      20272D66 
 597      66756E63 
 597      74696F6E 
 598 0099 666E6F2D 		.ascii	"fno-common' '-flto'\000"
 598      636F6D6D 
 598      6F6E2720 
 598      272D666C 
 598      746F2700 
 599              		.text
ARM GAS  /var/folders/c6/c789hm653lg9vtl73krp73tm0000gn/T//ccHZucMX.s 			page 48


 600              		.cfi_sections	.debug_frame
 601              		.section	.text.chMsgSend,"ax",%progbits
 602              		.align	2
 603              		.p2align 4,,15
 604              		.global	chMsgSend
 605              		.thumb
 606              		.thumb_func
 607              		.type	chMsgSend, %function
 608              	chMsgSend:
 609              	.LFB229:
 610              		.file 1 "../../../os/rt/src/chmsg.c"
 611              		.loc 1 87 0
 612              		.cfi_startproc
 613              		@ args = 0, pretend = 0, frame = 0
 614              		@ frame_needed = 0, uses_anonymous_args = 0
 615              	.LVL0:
 616 0000 F8B5     		push	{r3, r4, r5, r6, r7, lr}
 617              		.cfi_def_cfa_offset 24
 618              		.cfi_offset 3, -24
 619              		.cfi_offset 4, -20
 620              		.cfi_offset 5, -16
 621              		.cfi_offset 6, -12
 622              		.cfi_offset 7, -8
 623              		.cfi_offset 14, -4
 624              		.loc 1 88 0
 625 0002 1D4E     		ldr	r6, .L8
 626              		.loc 1 90 0
 627 0004 0546     		mov	r5, r0
 628              		.loc 1 87 0
 629 0006 0F46     		mov	r7, r1
 630              		.loc 1 88 0
 631 0008 B469     		ldr	r4, [r6, #24]
 632              	.LVL1:
 633              		.loc 1 90 0
 634 000a 80B3     		cbz	r0, .L6
 635              	.LVL2:
 636              	.L2:
 637              	.LBB49:
 638              	.LBB50:
 639              	.LBB51:
 640              	.LBB52:
 641              	.LBB53:
 642              		.file 2 "../../../os/ext/CMSIS/include/core_cmFunc.h"
 643              		.loc 2 546 0
 644 000c 2023     		movs	r3, #32
 645              	@ 546 "../../../os/ext/CMSIS/include/core_cmFunc.h" 1
 646 000e 83F31188 		MSR basepri, r3
 647              	@ 0 "" 2
 648              		.thumb
 649              	.LBE53:
 650              	.LBE52:
 651              	.LBE51:
 652              		.file 3 "../../../os/rt/include/chsys.h"
 653              		.loc 3 349 0
 654 0012 FFF7FEFF 		bl	_stats_start_measure_crit_thd
 655              	.LVL3:
 656              		.loc 3 350 0
ARM GAS  /var/folders/c6/c789hm653lg9vtl73krp73tm0000gn/T//ccHZucMX.s 			page 49


 657 0016 FFF7FEFF 		bl	_dbg_check_lock
 658              	.LVL4:
 659              	.LBE50:
 660              	.LBE49:
 661              		.loc 1 94 0
 662 001a 05F12C02 		add	r2, r5, #44
 663              		.loc 1 96 0
 664 001e 95F82010 		ldrb	r1, [r5, #32]	@ zero_extendqisi2
 665              		.loc 1 94 0
 666 0022 6262     		str	r2, [r4, #36]
 667              	.LVL5:
 668              	.LBB54:
 669              	.LBB55:
 670              		.file 4 "../../../os/rt/include/chschd.h"
 671              		.loc 4 666 0
 672 0024 2B6B     		ldr	r3, [r5, #48]
 673              	.LBE55:
 674              	.LBE54:
 675              		.loc 1 93 0
 676 0026 6763     		str	r7, [r4, #52]
 677              		.loc 1 96 0
 678 0028 0E29     		cmp	r1, #14
 679              	.LBB57:
 680              	.LBB56:
 681              		.loc 4 666 0
 682 002a 84E80C00 		stmia	r4, {r2, r3}
 683              		.loc 4 667 0
 684 002e 1C60     		str	r4, [r3]
 685              		.loc 4 668 0
 686 0030 2C63     		str	r4, [r5, #48]
 687              	.LBE56:
 688              	.LBE57:
 689              		.loc 1 96 0
 690 0032 18D0     		beq	.L7
 691              	.LVL6:
 692              	.L3:
 693              		.loc 1 99 0
 694 0034 0C20     		movs	r0, #12
 695 0036 FFF7FEFF 		bl	chSchGoSleepS
 696              	.LVL7:
 697              		.loc 1 100 0
 698 003a 646A     		ldr	r4, [r4, #36]
 699              	.LVL8:
 700              	.LBB58:
 701              	.LBB59:
 702              		.loc 3 360 0
 703 003c FFF7FEFF 		bl	_dbg_check_unlock
 704              	.LVL9:
 705              		.loc 3 361 0
 706 0040 FFF7FEFF 		bl	_stats_stop_measure_crit_thd
 707              	.LVL10:
 708              		.loc 3 367 0
 709 0044 3368     		ldr	r3, [r6]
 710 0046 0C4A     		ldr	r2, .L8
 711 0048 B342     		cmp	r3, r6
 712 004a 07D0     		beq	.L4
 713 004c 9269     		ldr	r2, [r2, #24]
ARM GAS  /var/folders/c6/c789hm653lg9vtl73krp73tm0000gn/T//ccHZucMX.s 			page 50


 714 004e 9B68     		ldr	r3, [r3, #8]
 715 0050 9268     		ldr	r2, [r2, #8]
 716 0052 9A42     		cmp	r2, r3
 717 0054 02D2     		bcs	.L4
 718 0056 0948     		ldr	r0, .L8+4
 719 0058 FFF7FEFF 		bl	chSysHalt
 720              	.LVL11:
 721              	.L4:
 722              	.LBB60:
 723              	.LBB61:
 724              	.LBB62:
 725              		.loc 2 546 0
 726 005c 0023     		movs	r3, #0
 727              	@ 546 "../../../os/ext/CMSIS/include/core_cmFunc.h" 1
 728 005e 83F31188 		MSR basepri, r3
 729              	@ 0 "" 2
 730              		.thumb
 731              	.LBE62:
 732              	.LBE61:
 733              	.LBE60:
 734              	.LBE59:
 735              	.LBE58:
 736              		.loc 1 104 0
 737 0062 2046     		mov	r0, r4
 738 0064 F8BD     		pop	{r3, r4, r5, r6, r7, pc}
 739              	.LVL12:
 740              	.L7:
 741              		.loc 1 97 0
 742 0066 2846     		mov	r0, r5
 743 0068 FFF7FEFF 		bl	chSchReadyI
 744              	.LVL13:
 745 006c E2E7     		b	.L3
 746              	.LVL14:
 747              	.L6:
 748              		.loc 1 90 0 discriminator 1
 749 006e 0448     		ldr	r0, .L8+8
 750              	.LVL15:
 751 0070 FFF7FEFF 		bl	chSysHalt
 752              	.LVL16:
 753 0074 CAE7     		b	.L2
 754              	.L9:
 755 0076 00BF     		.align	2
 756              	.L8:
 757 0078 00000000 		.word	ch
 758 007c 00000000 		.word	.LANCHOR1
 759 0080 00000000 		.word	.LANCHOR0
 760              		.cfi_endproc
 761              	.LFE229:
 762              		.size	chMsgSend, .-chMsgSend
 763 0084 AFF30080 		.section	.text.chMsgWait,"ax",%progbits
 763      AFF30080 
 763      AFF30080 
 764              		.align	2
 765              		.p2align 4,,15
 766              		.global	chMsgWait
 767              		.thumb
 768              		.thumb_func
ARM GAS  /var/folders/c6/c789hm653lg9vtl73krp73tm0000gn/T//ccHZucMX.s 			page 51


 769              		.type	chMsgWait, %function
 770              	chMsgWait:
 771              	.LFB230:
 772              		.loc 1 120 0
 773              		.cfi_startproc
 774              		@ args = 0, pretend = 0, frame = 0
 775              		@ frame_needed = 0, uses_anonymous_args = 0
 776              	.LVL17:
 777 0000 70B5     		push	{r4, r5, r6, lr}
 778              		.cfi_def_cfa_offset 16
 779              		.cfi_offset 4, -16
 780              		.cfi_offset 5, -12
 781              		.cfi_offset 6, -8
 782              		.cfi_offset 14, -4
 783              	.LBB77:
 784              	.LBB78:
 785              	.LBB79:
 786              	.LBB80:
 787              	.LBB81:
 788              		.loc 2 546 0
 789 0002 2023     		movs	r3, #32
 790              	@ 546 "../../../os/ext/CMSIS/include/core_cmFunc.h" 1
 791 0004 83F31188 		MSR basepri, r3
 792              	@ 0 "" 2
 793              		.thumb
 794              	.LBE81:
 795              	.LBE80:
 796              	.LBE79:
 797              	.LBE78:
 798              	.LBE77:
 799              		.loc 1 124 0
 800 0008 164C     		ldr	r4, .L14
 801              	.LBB83:
 802              	.LBB82:
 803              		.loc 3 349 0
 804 000a FFF7FEFF 		bl	_stats_start_measure_crit_thd
 805              	.LVL18:
 806              		.loc 3 350 0
 807 000e FFF7FEFF 		bl	_dbg_check_lock
 808              	.LVL19:
 809              	.LBE82:
 810              	.LBE83:
 811              		.loc 1 124 0
 812 0012 A569     		ldr	r5, [r4, #24]
 813              	.LVL20:
 814              	.LBB84:
 815              	.LBB85:
 816              		.file 5 "../../../os/rt/include/chmsg.h"
 817              		.loc 5 81 0
 818 0014 FFF7FEFF 		bl	chDbgCheckClassI
 819              	.LVL21:
 820              	.LBE85:
 821              	.LBE84:
 822              		.loc 1 124 0
 823 0018 EB6A     		ldr	r3, [r5, #44]
 824              	.LBB87:
 825              	.LBB86:
ARM GAS  /var/folders/c6/c789hm653lg9vtl73krp73tm0000gn/T//ccHZucMX.s 			page 52


 826              		.loc 5 83 0
 827 001a 2C35     		adds	r5, r5, #44
 828              	.LVL22:
 829              	.LBE86:
 830              	.LBE87:
 831              		.loc 1 124 0
 832 001c AB42     		cmp	r3, r5
 833 001e 1DD0     		beq	.L13
 834              	.L11:
 835              		.loc 1 127 0
 836 0020 A369     		ldr	r3, [r4, #24]
 837              	.LVL23:
 838 0022 104E     		ldr	r6, .L14
 839              	.LBB88:
 840              	.LBB89:
 841              		.loc 4 672 0
 842 0024 DD6A     		ldr	r5, [r3, #44]
 843              	.LVL24:
 844              		.loc 4 674 0
 845 0026 2A68     		ldr	r2, [r5]
 846 0028 43F82C2F 		str	r2, [r3, #44]!
 847              	.LVL25:
 848              	.LBE89:
 849              	.LBE88:
 850              		.loc 1 128 0
 851 002c 0D21     		movs	r1, #13
 852              	.LBB91:
 853              	.LBB90:
 854              		.loc 4 675 0
 855 002e 5360     		str	r3, [r2, #4]
 856              	.LBE90:
 857              	.LBE91:
 858              		.loc 1 128 0
 859 0030 85F82010 		strb	r1, [r5, #32]
 860              	.LBB92:
 861              	.LBB93:
 862              		.loc 3 360 0
 863 0034 FFF7FEFF 		bl	_dbg_check_unlock
 864              	.LVL26:
 865              		.loc 3 361 0
 866 0038 FFF7FEFF 		bl	_stats_stop_measure_crit_thd
 867              	.LVL27:
 868              		.loc 3 367 0
 869 003c 2368     		ldr	r3, [r4]
 870 003e A342     		cmp	r3, r4
 871 0040 07D0     		beq	.L12
 872 0042 B269     		ldr	r2, [r6, #24]
 873 0044 9B68     		ldr	r3, [r3, #8]
 874 0046 9268     		ldr	r2, [r2, #8]
 875 0048 9A42     		cmp	r2, r3
 876 004a 02D2     		bcs	.L12
 877 004c 0648     		ldr	r0, .L14+4
 878 004e FFF7FEFF 		bl	chSysHalt
 879              	.LVL28:
 880              	.L12:
 881              	.LBB94:
 882              	.LBB95:
ARM GAS  /var/folders/c6/c789hm653lg9vtl73krp73tm0000gn/T//ccHZucMX.s 			page 53


 883              	.LBB96:
 884              		.loc 2 546 0
 885 0052 0023     		movs	r3, #0
 886              	@ 546 "../../../os/ext/CMSIS/include/core_cmFunc.h" 1
 887 0054 83F31188 		MSR basepri, r3
 888              	@ 0 "" 2
 889              		.thumb
 890              	.LBE96:
 891              	.LBE95:
 892              	.LBE94:
 893              	.LBE93:
 894              	.LBE92:
 895              		.loc 1 132 0
 896 0058 2846     		mov	r0, r5
 897 005a 70BD     		pop	{r4, r5, r6, pc}
 898              	.LVL29:
 899              	.L13:
 900              		.loc 1 125 0
 901 005c 0E20     		movs	r0, #14
 902 005e FFF7FEFF 		bl	chSchGoSleepS
 903              	.LVL30:
 904 0062 DDE7     		b	.L11
 905              	.L15:
 906              		.align	2
 907              	.L14:
 908 0064 00000000 		.word	ch
 909 0068 00000000 		.word	.LANCHOR1
 910              		.cfi_endproc
 911              	.LFE230:
 912              		.size	chMsgWait, .-chMsgWait
 913 006c AFF30080 		.section	.text.chMsgRelease,"ax",%progbits
 914              		.align	2
 915              		.p2align 4,,15
 916              		.global	chMsgRelease
 917              		.thumb
 918              		.thumb_func
 919              		.type	chMsgRelease, %function
 920              	chMsgRelease:
 921              	.LFB231:
 922              		.loc 1 144 0
 923              		.cfi_startproc
 924              		@ args = 0, pretend = 0, frame = 0
 925              		@ frame_needed = 0, uses_anonymous_args = 0
 926              	.LVL31:
 927 0000 38B5     		push	{r3, r4, r5, lr}
 928              		.cfi_def_cfa_offset 16
 929              		.cfi_offset 3, -16
 930              		.cfi_offset 4, -12
 931              		.cfi_offset 5, -8
 932              		.cfi_offset 14, -4
 933              		.loc 1 144 0
 934 0002 0446     		mov	r4, r0
 935 0004 0D46     		mov	r5, r1
 936              	.LBB109:
 937              	.LBB110:
 938              	.LBB111:
 939              	.LBB112:
ARM GAS  /var/folders/c6/c789hm653lg9vtl73krp73tm0000gn/T//ccHZucMX.s 			page 54


 940              	.LBB113:
 941              		.loc 2 546 0
 942 0006 2023     		movs	r3, #32
 943              	@ 546 "../../../os/ext/CMSIS/include/core_cmFunc.h" 1
 944 0008 83F31188 		MSR basepri, r3
 945              	@ 0 "" 2
 946              		.thumb
 947              	.LBE113:
 948              	.LBE112:
 949              	.LBE111:
 950              		.loc 3 349 0
 951 000c FFF7FEFF 		bl	_stats_start_measure_crit_thd
 952              	.LVL32:
 953              		.loc 3 350 0
 954 0010 FFF7FEFF 		bl	_dbg_check_lock
 955              	.LVL33:
 956              	.LBE110:
 957              	.LBE109:
 958              		.loc 1 147 0
 959 0014 94F82030 		ldrb	r3, [r4, #32]	@ zero_extendqisi2
 960 0018 0D2B     		cmp	r3, #13
 961 001a 02D0     		beq	.L17
 962              		.loc 1 147 0 is_stmt 0 discriminator 1
 963 001c 0E48     		ldr	r0, .L22
 964 001e FFF7FEFF 		bl	chSysHalt
 965              	.LVL34:
 966              	.L17:
 967              	.LBB114:
 968              	.LBB115:
 969              		.loc 5 113 0 is_stmt 1
 970 0022 FFF7FEFF 		bl	chDbgCheckClassS
 971              	.LVL35:
 972              		.loc 5 115 0
 973 0026 2046     		mov	r0, r4
 974 0028 2946     		mov	r1, r5
 975 002a FFF7FEFF 		bl	chSchWakeupS
 976              	.LVL36:
 977              	.LBE115:
 978              	.LBE114:
 979              	.LBB116:
 980              	.LBB117:
 981              		.loc 3 360 0
 982 002e FFF7FEFF 		bl	_dbg_check_unlock
 983              	.LVL37:
 984              		.loc 3 361 0
 985 0032 FFF7FEFF 		bl	_stats_stop_measure_crit_thd
 986              	.LVL38:
 987              		.loc 3 367 0
 988 0036 094B     		ldr	r3, .L22+4
 989 0038 1A68     		ldr	r2, [r3]
 990 003a 9A42     		cmp	r2, r3
 991 003c 07D0     		beq	.L18
 992 003e 9969     		ldr	r1, [r3, #24]
 993 0040 9368     		ldr	r3, [r2, #8]
 994 0042 8A68     		ldr	r2, [r1, #8]
 995 0044 9A42     		cmp	r2, r3
 996 0046 02D2     		bcs	.L18
ARM GAS  /var/folders/c6/c789hm653lg9vtl73krp73tm0000gn/T//ccHZucMX.s 			page 55


 997 0048 0548     		ldr	r0, .L22+8
 998 004a FFF7FEFF 		bl	chSysHalt
 999              	.LVL39:
 1000              	.L18:
 1001              	.LBB118:
 1002              	.LBB119:
 1003              	.LBB120:
 1004              		.loc 2 546 0
 1005 004e 0023     		movs	r3, #0
 1006              	@ 546 "../../../os/ext/CMSIS/include/core_cmFunc.h" 1
 1007 0050 83F31188 		MSR basepri, r3
 1008              	@ 0 "" 2
 1009              		.thumb
 1010 0054 38BD     		pop	{r3, r4, r5, pc}
 1011              	.LVL40:
 1012              	.L23:
 1013 0056 00BF     		.align	2
 1014              	.L22:
 1015 0058 00000000 		.word	.LANCHOR2
 1016 005c 00000000 		.word	ch
 1017 0060 00000000 		.word	.LANCHOR1
 1018              	.LBE120:
 1019              	.LBE119:
 1020              	.LBE118:
 1021              	.LBE117:
 1022              	.LBE116:
 1023              		.cfi_endproc
 1024              	.LFE231:
 1025              		.size	chMsgRelease, .-chMsgRelease
 1026 0064 AFF30080 		.section	.rodata.__func__.6559,"a",%progbits
 1026      AFF30080 
 1026      AFF30080 
 1027              		.align	2
 1028              		.set	.LANCHOR0,. + 0
 1029              		.type	__func__.6559, %object
 1030              		.size	__func__.6559, 10
 1031              	__func__.6559:
 1032 0000 63684D73 		.ascii	"chMsgSend\000"
 1032      6753656E 
 1032      6400
 1033 000a 0000     		.section	.rodata.__func__.6568,"a",%progbits
 1034              		.align	2
 1035              		.set	.LANCHOR2,. + 0
 1036              		.type	__func__.6568, %object
 1037              		.size	__func__.6568, 13
 1038              	__func__.6568:
 1039 0000 63684D73 		.ascii	"chMsgRelease\000"
 1039      6752656C 
 1039      65617365 
 1039      00
 1040 000d 000000   		.section	.rodata.__func__.5862,"a",%progbits
 1041              		.align	2
 1042              		.set	.LANCHOR1,. + 0
 1043              		.type	__func__.5862, %object
 1044              		.size	__func__.5862, 12
 1045              	__func__.5862:
 1046 0000 63685379 		.ascii	"chSysUnlock\000"
ARM GAS  /var/folders/c6/c789hm653lg9vtl73krp73tm0000gn/T//ccHZucMX.s 			page 56


 1046      73556E6C 
 1046      6F636B00 
 1047              		.text
 1048              	.Letext0:
 1049              		.file 6 "/usr/local/Cellar/gcc-arm-none-eabi/20140805/arm-none-eabi/include/machine/_default_types
 1050              		.file 7 "/usr/local/Cellar/gcc-arm-none-eabi/20140805/arm-none-eabi/include/stdint.h"
 1051              		.file 8 "../../../os/rt/ports/ARMCMx/compilers/GCC/chtypes.h"
 1052              		.file 9 "../../../os/rt/include/chsystypes.h"
 1053              		.file 10 "../../../os/rt/ports/ARMCMx/chcore.h"
 1054              		.file 11 "../../../os/rt/ports/ARMCMx/chcore_v7m.h"
 1055              		.file 12 "../../../os/rt/include/chdebug.h"
 1056              		.file 13 "../../../os/rt/include/chtm.h"
 1057              		.file 14 "../../../os/rt/include/chstats.h"
 1058              		.file 15 "../../../os/rt/include/chsem.h"
 1059              		.file 16 "../../../os/rt/include/chmtx.h"
 1060              		.file 17 "../../../os/ext/CMSIS/include/core_cm4.h"