ARM GAS  /var/folders/c6/c789hm653lg9vtl73krp73tm0000gn/T//ccGpAURF.s 			page 1


   1              		.syntax unified
   2              		.cpu cortex-m4
   3              		.fpu softvfp
   4              		.eabi_attribute 20, 1
   5              		.eabi_attribute 21, 1
   6              		.eabi_attribute 23, 3
   7              		.eabi_attribute 24, 1
   8              		.eabi_attribute 25, 1
   9              		.eabi_attribute 26, 1
  10              		.eabi_attribute 30, 2
  11              		.eabi_attribute 34, 1
  12              		.eabi_attribute 18, 4
  13              		.thumb
  14              		.file	"chstats.c"
  15              		.text
  16              	.Ltext0:
  17              		.section	.gnu.lto_.jmpfuncs.96cd3ef79ff6629e,"",%progbits
  18 0000 789C6362 		.ascii	"x\234cb`b\300\006\352\031!4;\003\003#S5\303\257\206"
  18      6062C006 
  18      EA192134 
  18      3B030323 
  18      5335C3AF 
  19 0015 8E06814C 		.ascii	"\216\006\201LF\006m\206U\015\015 \026#\234\305\224\313"
  19      46066D86 
  19      550D0D20 
  19      16239CC5 
  19      94CB
  20 0027 C8900455 		.ascii	"\310\220\004U\235\304\310\0107\201$mpG02>\370\017\005"
  20      9DC4C808 
  20      3781246D 
  20      70473032 
  20      3EF80F05 
  21 003b 8C118C99 		.ascii	"\214\021\214\231\214\314\014@\007233\261\034`\001\352"
  21      8CCC0C40 
  21      07323333 
  21      B11C6001 
  21      EA
  22 004c 06AA8730 		.ascii	"\006\252\2070\200*Y\310\264\201\201\225\\\215l\344\006"
  22      802A59C8 
  22      B4818195 
  22      5C8D6CE4 
  22      06
  23 005d 053BB91A 		.ascii	"\005;\271\032\031\000#\244J\227"
  23      190023A4 
  23      4A97
  24              		.text
  25              		.section	.gnu.lto_.inline.96cd3ef79ff6629e,"",%progbits
  26 0000 789C6362 		.ascii	"x\234cb`b\300\006vAiv\006\006N)F\006&\226\005\362\014"
  26      6062C006 
  26      76416976 
  26      06064E29 
  26      46062696 
  27 0017 6C0BE4C1 		.ascii	"l\013\344\301\212\231\270\031\030\030a$\003\033+\220"
  27      8A99B819 
  27      18186124 
  27      031B2B90 
  28 0027 64FBA007 		.ascii	"d\373\240\007\227ff\340\024ddbd\004\261A\004\252$\017"
ARM GAS  /var/folders/c6/c789hm653lg9vtl73krp73tm0000gn/T//ccGpAURF.s 			page 2


  28      976666E0 
  28      14646462 
  28      6404B141 
  28      04AA240F 
  29 003b 506082DF 		.ascii	"P`\202\337\004?\026\006V^F\260\345\250\306\262\342\020"
  29      043F1606 
  29      565E46B0 
  29      E5A8C6B2 
  29      E210
  30 004d 67C321CE 		.ascii	"g\303!\316\216C\234\001\000N<\014("
  30      8E439C01 
  30      004E3C0C 
  30      28
  31              		.text
  32              		.section	.gnu.lto_.pureconst.96cd3ef79ff6629e,"",%progbits
  33 0000 789C6362 		.ascii	"x\234cb`b\340g\200\000v\006\011&\011f\011\026\011V\011"
  33      6062E067 
  33      80007606 
  33      09260966 
  33      09160956 
  34 0015 36097609 		.ascii	"6\011v\011\000\007w\000\336"
  34      00077700 
  34      DE
  35              		.text
  36              		.section	.gnu.lto__stats_init.96cd3ef79ff6629e,"",%progbits
  37 0000 789C6362 		.ascii	"x\234cb`b@\007\222@|\225\221\201A\036H32302M8\307\300"
  37      60624007 
  37      92407C95 
  37      9181411E 
  37      48333233 
  38 001a D0C8C1C4 		.ascii	"\320\310\301\304\310\010b002\32431\326G2\202\325\256"
  38      C8086230 
  38      3032D433 
  38      31D64732 
  38      82D5AE
  39 002d 673AF0E0 		.ascii	"g:\360\340\377\377u\177\036>\354a\024d\003\012\2602"
  39      FFFF757F 
  39      1E3EEC61 
  39      1464030A 
  39      B032
  40 003f B434344C 		.ascii	"\26444LP``H\006+\010\001\222 ]\241\214L \232\371,C\323"
  40      50606048 
  40      062B0801 
  40      92205DA1 
  40      8C4C209A 
  41 0057 8E198F4E 		.ascii	"\216\031\217N0'2.dde\320fX\325\000\004\241\231\2140"
  41      3027322E 
  41      646465D0 
  41      6658D500 
  41      04A1998C 
  42 006c 26772623 		.ascii	"&w&#\343l\206Y\215\015\015\002\231\214L\325\014\277"
  42      E36C8659 
  42      8D0D0D02 
  42      998C4CD5 
  42      0CBF
  43 007e 1A3A402C 		.ascii	"\032:@,\346\\\260i\021\214@&\330\336$\210\365@\032\302"
  43      E65CB069 
ARM GAS  /var/folders/c6/c789hm653lg9vtl73krp73tm0000gn/T//ccGpAURF.s 			page 3


  43      118C4026 
  43      D8DE2488 
  43      F5401AC2 
  44 0092 00C9B080 		.ascii	"\000\311\260\200\030 \013v<z@E\013\230P-8\317\320\362"
  44      18200B76 
  44      3C7A4045 
  44      0B98502D 
  44      38CFD0F2 
  45 00a6 A06B3117 		.ascii	"\240k1\027\304|\006\006\270\011\254\311P\247\200D82"
  45      C47C0606 
  45      B809ACC9 
  45      50A78044 
  45      3832
  46 00b8 19D9A016 		.ascii	"\031\331\240\026N\005jd\207\262\243\201\226\003-B\230"
  46      4E056A64 
  46      87B2A381 
  46      96032D42 
  46      98
  47 00c9 0DB10B6A 		.ascii	"\015\261\013jV&#\007\304\370nj\031\317\202a\374E\206"
  47      56262307 
  47      C4F86E6A 
  47      19CF8261 
  47      FC4586
  48 00dc C6073DCA 		.ascii	"\306\007=\3120\323! \004h20n@\376\224\325\323\323\207"
  48      30D32120 
  48      04683230 
  48      6E40FE94 
  48      D5D3D387 
  49 00f0 A0FC62FD 		.ascii	"\240\374b\375\242\022\375\342\242d\375\344\214\342\222"
  49      A212FDE2 
  49      A264FDE4 
  49      8CE292
  50 00ff C49262BD 		.ascii	"\304\222b\275d\006\0002\313x\000"
  50      64060032 
  50      CB7800
  51              		.text
  52              		.section	.gnu.lto__stats_increase_irq.96cd3ef79ff6629e,"",%progbits
  53 0000 789C6362 		.ascii	"x\234cb`b@\007\222@\254\313\310\300 \017\244\031\231"
  53      60624007 
  53      9240ACCB 
  53      C8C0200F 
  53      A41999
  54 0013 19189926 		.ascii	"\031\030\231&\234c`h\344`bd\0041\030\030\031\352\231"
  54      9C636068 
  54      E4606264 
  54      04311818 
  54      19EA99
  55 0026 18EB2319 		.ascii	"\030\353#\031\301j\3273\035x\360\377\377\272MmK\316"
  55      C16AD733 
  55      1D78F0FF 
  55      FFBA4D6D 
  55      4BCE
  56 0038 30CE6462 		.ascii	"0\316dbeb\310dd`\006\021@\300\312\320\322\3200A\201"
  56      6562C864 
  56      64600611 
  56      40C0CAD0 
  56      D2D03041 
ARM GAS  /var/folders/c6/c789hm653lg9vtl73krp73tm0000gn/T//ccGpAURF.s 			page 4


  57 004d 812119CC 		.ascii	"\201!\031\314\015\001\222 \003B\031\231@4\363Y\206\246"
  57      0D019220 
  57      03421999 
  57      4034F359 
  57      86A6
  58 005f 5B3F9E5D 		.ascii	"[?\236]`Jd\\\310\310\312\220\316\310\244\315\240\225"
  58      604A645C 
  58      C8C8CA90 
  58      CEC8A4CD 
  58      A095
  59 0071 C9C8A8CD 		.ascii	"\311\310\250\315\260\252\001\010\2703\031\231f3\314"
  59      B0AA0108 
  59      B8331999 
  59      6633CC
  60 0080 6A6C6810 		.ascii	"jlh\020\310dd\256f\370\325\320\001b\261\344\202\315"
  60      C86464AE 
  60      66F8D5D0 
  60      0162B1E4 
  60      82CD
  61 0092 8A600432 		.ascii	"\212`\0042\301\016H\202\270\003HC\031\014g\031\232;"
  61      C10E4882 
  61      B8034843 
  61      190C6719 
  61      9A3B
  62 00a4 9A1F31C2 		.ascii	"\232\0371\302\214e\006\232\014R\016\226\007\332\351"
  62      8C65069A 
  62      0C520E96 
  62      07DAE9
  63 00b3 0991805A 		.ascii	"\011\221\200Z\023J\271\215@+\030\030.24>\230\243\014"
  63      134AB98D 
  63      402B1818 
  63      2E32343E 
  63      98A30C
  64 00c6 311A0642 		.ascii	"1\032\006B\200\012\200\036\005\005\260\254\236\236>"
  64      800A801E 
  64      0505B0AC 
  64      9E9E3E
  65 00d5 04E517EB 		.ascii	"\004\345\027\353\027\225\350\027\027%\353'g\024\227"
  65      1795E817 
  65      1725EB27 
  65      671497
  66 00e4 249614EB 		.ascii	"$\226\024\353%3\000\000\246\212NO"
  66      25330000 
  66      A68A4E4F 
  67              		.text
  68              		.section	.gnu.lto__stats_ctxswc.96cd3ef79ff6629e,"",%progbits
  69 0000 789CA591 		.ascii	"x\234\245\221?K\003A\020\305\337\333\363\376\030\033"
  69      3F4B0341 
  69      10C5DFDB 
  69      F3FE181B 
  70 0010 5B0B51B0 		.ascii	"[\013Q\260S\310\365~\003\373\004\264\214W\304+\202\220"
  70      53C8F57E 
  70      03FB04B4 
  70      8C57C42B 
  70      8290
  71 0022 4B658ABB 		.ascii	"Ke\212\273$*)\024R\233\312\326B+\301F\314\027H\324."
  71      242A2914 
ARM GAS  /var/folders/c6/c789hm653lg9vtl73krp73tm0000gn/T//ccGpAURF.s 			page 5


  71      529BCAD6 
  71      422BC146 
  71      CC1748D4 
  72 0037 58A55610 		.ascii	"X\245V\020l\323\304\331\275\273\020\005+\207\333\231"
  72      6CD3C4D9 
  72      BDBB1005 
  72      2B87DB99 
  73 0047 07FBEE37 		.ascii	"\007\373\3567\263\273\012\012\277cM\326\027\201\015"
  73      B3BB0A0A 
  73      BF634DD6 
  73      17810D
  74 0056 A9B440D5 		.ascii	"\251\264@\325\033\001-O\221Z\200\210\025\343\003\032"
  74      1B012D4F 
  74      915A8088 
  74      15E3031A 
  75 0066 EF9D1A4C 		.ascii	"\357\235\032Lf\263\333\361\371\375\005\373\252\240\020"
  75      66B3DBF1 
  75      F9FD05FB 
  75      AAA010
  76 0075 12964E36 		.ascii	"\022\226N6k\204#\212\256(zZ\211\337\306i\222\3646\201"
  76      6B84238A 
  76      AE287A5A 
  76      89DFC669 
  76      92F43681 
  77 0089 C0FC5F92 		.ascii	"\300\374_\222\254\241e*]\255!\332o\343\217\027U\341"
  77      ACA1652A 
  77      5DAD21DA 
  77      6FE38F17 
  77      55E1
  78 009b 356D54A9 		.ascii	"5mT\251v\260\035\352|\223H\254\204\264\372\270j%\311"
  78      76B01DEA 
  78      7C9348AC 
  78      84B4FAB8 
  78      6A25C9
  79 00ae 6AC8A526 		.ascii	"j\310\245&\246IW+\273F}\210}\2124C\035\246\263I\315"
  79      A649572B 
  79      BB467D88 
  79      7D8A3443 
  79      1DA6B349 
  80 00c3 0486E874 		.ascii	"\004\206\350t;\237\314\261\226\220\265]\321\354\265"
  80      3B9FCCB1 
  80      9690B55D 
  80      D1ECB5
  81 00d2 F7D28DAC 		.ascii	"\367\322\215\254M\371\377\035\245\205\001O;O\227\273"
  81      4DF9FF1D 
  81      A585014F 
  81      3B4F97BB 
  82 00e2 7957A789 		.ascii	"yW\247\211\023\271\205\014\035\207t\004-\010\267J[\243"
  82      13B9850C 
  82      1D877404 
  82      2D08B74A 
  82      5BA3
  83 00f4 BC0CB1F0 		.ascii	"\274\014\261\360\"\006\361>\237\333\373Ax\344\"\302"
  83      2206F13E 
  83      9FDBFB41 
  83      78E422C2 
  84 0104 FD03F18C 		.ascii	"\375\003\361\214\263A6\0020?\301r0\237\324\021n\310"
ARM GAS  /var/folders/c6/c789hm653lg9vtl73krp73tm0000gn/T//ccGpAURF.s 			page 6


  84      B3413602 
  84      303FC172 
  84      309FD411 
  84      6EC8
  85 0116 02F08AD6 		.ascii	"\002\360\212\326\344a+\267\246Q\022\233<\214\346\255"
  85      E4612BB7 
  85      A651129B 
  85      3C8CE6AD 
  86 0126 178B7EFA 		.ascii	"\027\213~\372\035G~\275\341G\365\300\017\216\242F\245"
  86      1D477EBD 
  86      E147F5C0 
  86      0F8EA246 
  86      A5
  87 0137 1115037C 		.ascii	"\021\025\003|\003\257\345u\224"
  87      03AFE575 
  87      94
  88              		.text
  89              		.section	.gnu.lto__stats_start_measure_crit_thd.96cd3ef79ff6629e,"",%progbits
  90 0000 789C6362 		.ascii	"x\234cb`b@\007\222@\274\025\210\345\201\230\221\231"
  90      60624007 
  90      9240BC15 
  90      88E58198 
  90      9199
  91 0012 819169C2 		.ascii	"\201\221i\3029\006\206F\016&FF\020\203\201\221\241\236"
  91      39068646 
  91      0E264646 
  91      10838191 
  91      A19E
  92 0024 89B13E92 		.ascii	"\211\261>\222\021\254v=\323\201\007\377\377\257\373"
  92      11AC763D 
  92      D38107FF 
  92      FFAFFB
  93 0033 D5B6B687 		.ascii	"\325\266\266\207q\016\0233P\204\225\241\245\241a\202"
  93      710E1333 
  93      508495A1 
  93      A5A16182 
  94 0043 02034332 		.ascii	"\002\003C2XE\010\220\004i\013ed\002\321\314\347\031"
  94      58450890 
  94      04690B65 
  94      6402D1CC 
  94      E719
  95 0055 5A1EEC6F 		.ascii	"Z\036\354o\346Kd\\\310\310\012\224\256f\370\325\320"
  95      E64B645C 
  95      C8C80A94 
  95      AE66F8D5 
  95      D0
  96 0066 D12090C9 		.ascii	"\321 \220\311\010T\0161\021$\302\221\311\310\250\315"
  96      08540E31 
  96      1124C291 
  96      C9C8A8CD 
  97 0076 B0AA0108 		.ascii	"\260\252\001\01063f22A\331\225\231\214\314\271\214\014"
  97      36336632 
  97      3241D995 
  97      998CCCB9 
  97      8C0C
  98 0088 49108540 		.ascii	"I\020\205@\032\302\200\232\225\311\310\302\300p\221"
  98      1AC2809A 
ARM GAS  /var/folders/c6/c789hm653lg9vtl73krp73tm0000gn/T//ccGpAURF.s 			page 7


  98      95C9C8C2 
  98      C07091
  99 0097 A1F1C109 		.ascii	"\241\361\301\011e\230\351\020\020\002T\007\264\032\344"
  99      6598E910 
  99      10025407 
  99      B41AE4
 100 00a6 51593D3D 		.ascii	"QY==}\010\312/\326/*\321/.J\326O\316(.I,)\326Kf\000"
 100      7D08CA2F 
 100      D62F2AD1 
 100      2F2E4AD6 
 100      4FCE282E 
 101 00c1 000D4837 		.ascii	"\000\015H7\355"
 101      ED
 102              		.text
 103              		.section	.gnu.lto__stats_stop_measure_crit_thd.96cd3ef79ff6629e,"",%progbits
 104 0000 789C6362 		.ascii	"x\234cb`b@\007\222@\274\025\210\345\201\230\221\231"
 104      60624007 
 104      9240BC15 
 104      88E58198 
 104      9199
 105 0012 819169C2 		.ascii	"\201\221i\3029\006\206F\016&FF\020\203\201\221\241\236"
 105      39068646 
 105      0E264646 
 105      10838191 
 105      A19E
 106 0024 89B13E92 		.ascii	"\211\261>\222\021\254v=\323\201\007\377\377\257\233"
 106      11AC763D 
 106      D38107FF 
 106      FFAF9B
 107 0033 757C4D0F 		.ascii	"u|M\017\343\\&f\240\010+CKC\303\004\005\006\206d\260"
 107      E35C2666 
 107      A0082B43 
 107      4B43C304 
 107      05068664 
 108 0048 8A102009 		.ascii	"\212\020 \011\322\026\312\310\004\242\231\3173\264<"
 108      D216CAC8 
 108      04A299CF 
 108      33B43C
 109 0057 38FF983B 		.ascii	"8\377\230;\221q!#+P\272\232\341WCG\203@&#P9\304D\220"
 109      91712123 
 109      2B50BA9A 
 109      E1574347 
 109      83402623 
 110 0070 08472623 		.ascii	"\010G&#\2436\303\252\006 \330\310\230\311\310\004e\227"
 110      A336C3AA 
 110      0620D8C8 
 110      98C9C804 
 110      6597
 111 0082 673232E7 		.ascii	"g22\34722$A\024\002i\010\003jV&#\013\003\303E\206\306"
 111      32322441 
 111      14026908 
 111      036A5626 
 111      230B03C3 
 112 0099 07379461 		.ascii	"\0077\224a\246C@\010P\035\320j\220Ge\365\364\364!(\277"
 112      A6434008 
 112      501DD06A 
 112      904765F5 
ARM GAS  /var/folders/c6/c789hm653lg9vtl73krp73tm0000gn/T//ccGpAURF.s 			page 8


 112      F4F42128 
 113 00ae 58BFA844 		.ascii	"X\277\250D\277\270(Y?9\243\270$\261\244X/\231\001\000"
 113      BFB82859 
 113      3F39A3B8 
 113      24B1A458 
 113      2F990100 
 114 00c2 37603847 		.ascii	"7`8G"
 115              		.text
 116              		.section	.gnu.lto__stats_start_measure_crit_isr.96cd3ef79ff6629e,"",%progbits
 117 0000 789C6362 		.ascii	"x\234cb`b@\007\222@\274\025\210\345\201\230\221\231"
 117      60624007 
 117      9240BC15 
 117      88E58198 
 117      9199
 118 0012 819169C2 		.ascii	"\201\221i\3029\006\206F\016&FF\020\203\201\221\241\236"
 118      39068646 
 118      0E264646 
 118      10838191 
 118      A19E
 119 0024 89B13E92 		.ascii	"\211\261>\222\021\254v=\323\201\007\377\377\257\333"
 119      11AC763D 
 119      D38107FF 
 119      FFAFDB
 120 0033 D5BEB687 		.ascii	"\325\276\266\207q\036\0233P\204\225\241\245\241a\202"
 120      711E1333 
 120      508495A1 
 120      A5A16182 
 121 0043 02034332 		.ascii	"\002\003C2XE\010\220\004i\013ed\002\321\314\347\031"
 121      58450890 
 121      04690B65 
 121      6402D1CC 
 121      E719
 122 0055 5A1EDC6F 		.ascii	"Z\036\334o\346Kd\\\310\310\012\224\256f\370\325\320"
 122      E64B645C 
 122      C8C80A94 
 122      AE66F8D5 
 122      D0
 123 0066 D12090C9 		.ascii	"\321 \220\311\010T\0161\021$\302\221\311\310\250\315"
 123      08540E31 
 123      1124C291 
 123      C9C8A8CD 
 124 0076 B0AA0108 		.ascii	"\260\252\001\01063f22A\331\225\231\214\314\271\214\014"
 124      36336632 
 124      3241D995 
 124      998CCCB9 
 124      8C0C
 125 0088 49108540 		.ascii	"I\020\205@\032\302\200\232\225\311\310\302\300p\221"
 125      1AC2809A 
 125      95C9C8C2 
 125      C07091
 126 0097 A1F1C10B 		.ascii	"\241\361\301\013e\230\351\020\020\002T\007\264\032\344"
 126      6598E910 
 126      10025407 
 126      B41AE4
 127 00a6 51593D3D 		.ascii	"QY==}\010\312/\326/*\321/.J\326O\316(.I,)\326Kf\000"
 127      7D08CA2F 
 127      D62F2AD1 
ARM GAS  /var/folders/c6/c789hm653lg9vtl73krp73tm0000gn/T//ccGpAURF.s 			page 9


 127      2F2E4AD6 
 127      4FCE282E 
 128 00c1 00F82037 		.ascii	"\000\370 7\360"
 128      F0
 129              		.text
 130              		.section	.gnu.lto__stats_stop_measure_crit_isr.96cd3ef79ff6629e,"",%progbits
 131 0000 789C6362 		.ascii	"x\234cb`b@\007\222@\274\025\210\345\201\230\221\231"
 131      60624007 
 131      9240BC15 
 131      88E58198 
 131      9199
 132 0012 819169C2 		.ascii	"\201\221i\3029\006\206F\016&FF\020\203\201\221\241\236"
 132      39068646 
 132      0E264646 
 132      10838191 
 132      A19E
 133 0024 89B13E92 		.ascii	"\211\261>\222\021\254v=\323\201\007\377\377\257\273"
 133      11AC763D 
 133      D38107FF 
 133      FFAFBB
 134 0033 757C4D0F 		.ascii	"u|M\017\343|&f\240\010+CKC\303\004\005\006\206d\260"
 134      E37C2666 
 134      A0082B43 
 134      4B43C304 
 134      05068664 
 135 0048 8A102009 		.ascii	"\212\020 \011\322\026\312\310\004\242\231\3173\264<"
 135      D216CAC8 
 135      04A299CF 
 135      33B43C
 136 0057 78FF983B 		.ascii	"x\377\230;\221q!#+P\272\232\341WCG\203@&#P9\304D\220"
 136      91712123 
 136      2B50BA9A 
 136      E1574347 
 136      83402623 
 137 0070 08472623 		.ascii	"\010G&#\2436\303\252\006 \330\310\230\311\310\004e\227"
 137      A336C3AA 
 137      0620D8C8 
 137      98C9C804 
 137      6597
 138 0082 673232E7 		.ascii	"g22\34722$A\024\002i\010\003jV&#\013\003\303E\206\306"
 138      32322441 
 138      14026908 
 138      036A5626 
 138      230B03C3 
 139 0099 073F9461 		.ascii	"\007?\224a\246C@\010P\035\320j\220Ge\365\364\364!(\277"
 139      A6434008 
 139      501DD06A 
 139      904765F5 
 139      F4F42128 
 140 00ae 58BFA844 		.ascii	"X\277\250D\277\270(Y?9\243\270$\261\244X/\231\001\000"
 140      BFB82859 
 140      3F39A3B8 
 140      24B1A458 
 140      2F990100 
 141 00c2 848238C9 		.ascii	"\204\2028\311"
 142              		.text
 143              		.section	.gnu.lto_.symbol_nodes.96cd3ef79ff6629e,"",%progbits
ARM GAS  /var/folders/c6/c789hm653lg9vtl73krp73tm0000gn/T//ccGpAURF.s 			page 10


 144 0000 789C4DC8 		.ascii	"x\234M\310I\016\3020\020D\321\252v\234\211CW$6,9\001"
 144      490EC230 
 144      1044D1AA 
 144      769C8943 
 144      5724362C 
 145 0016 1B8EC23E 		.ascii	"\033\216\302>gH@\314\343\011\020\011\216b\367\346\367"
 145      674840CC 
 145      E3091009 
 145      8E62F7E6 
 145      F7
 146 0027 2B83618F 		.ascii	"+\203a\217\351\354H\001\353\026\2206+\372\007\207\017"
 146      E9EC4801 
 146      EB169036 
 146      2BFA0787 
 146      0F
 147 0038 76A21857 		.ascii	"v\242\030W;S\226\360B\271\204W*Kx\243|\302;\225G\362"
 147      3B5396F0 
 147      42B98457 
 147      2A4B78A3 
 147      7CC23B95 
 148 004e 4915814D 		.ascii	"I\025\201MC\276\2502\352MUQ\037\252\236\345Pb\327}\377"
 148      43BEA832 
 148      EA4D5551 
 148      1FAA9EE5 
 148      5062D77D 
 149 0063 3D8C7515 		.ascii	"=\214u\025\266\375\320\254\306r\264_\204\346\223\213"
 149      B6FDD0AC 
 149      C672B45F 
 149      84E6938B 
 150 0073 60FC0046 		.ascii	"`\374\000F\300H "
 150      C04820
 151              		.text
 152              		.section	.gnu.lto_.refs.96cd3ef79ff6629e,"",%progbits
 153 0000 789C2588 		.ascii	"x\234%\210\201\015\000 \014\302\240N=\305\377?\224i"
 153      810D0020 
 153      0CC2A04E 
 153      3DC5FF3F 
 153      9469
 154 0012 49930684 		.ascii	"I\223\006\204\216>%\007zt2\336Q\3303\256\270\261.\014"
 154      8E3E2507 
 154      7A7432DE 
 154      51D833AE 
 154      B8B12E0C 
 155 0026 CE006F   		.ascii	"\316\000o"
 156              		.text
 157              		.section	.gnu.lto_.decls.96cd3ef79ff6629e,"",%progbits
 158 0000 789CBD5B 		.ascii	"x\234\275[{t\024U\232\257\252N\372A\002D\031\2310\023"
 158      7B741455 
 158      9AAFAA4E 
 158      FA410244 
 158      19993013 
 159 0014 B4D9A3BB 		.ascii	"\264\331\243\273;\356\321DeF\346\217\025\347\360\207"
 159      3BEED144 
 159      6546E68F 
 159      15E7F087 
 160 0024 CE39EBEE 		.ascii	"\3169\353\3569\2733\347x\316>z\212N\221\364\320\257"
 160      39BB33E7 
ARM GAS  /var/folders/c6/c789hm653lg9vtl73krp73tm0000gn/T//ccGpAURF.s 			page 11


 160      78CE3E7A 
 160      8A4E91F4 
 160      D0AF
 161 0036 A9AE10DC 		.ascii	"\251\256\020\334\177\246\010\030\320A\214\274\237!\021"
 161      7FA60818 
 161      D0418CBC 
 161      9F2111
 162 0045 C2808223 		.ascii	"\302\200\202# \240\201H\351J\022\031E\005\014\0210i"
 162      20A08148 
 162      E94A1219 
 162      45050C11 
 162      3069
 163 0057 90C86311 		.ascii	"\220\310c\021\210(\020\206\230\375\356W\217\256\252"
 163      88281086 
 163      98FDEE57 
 163      8FAEAA
 164 0066 AEEAAE6A 		.ascii	"\256\352\256j\334\251\223\272u\353\326\275\277\357y"
 164      DCA993BA 
 164      75EBD6BD 
 164      BFEF79
 165 0075 BFFBEA30 		.ascii	"\277\373\3520\024Cmd(j\004.~*<}\024\345\247(\3521\270"
 165      14436D64 
 165      286A042E 
 165      7E2A3C7D 
 165      14E5A728 
 166 008c 8BE06E85 		.ascii	"\213\340n\205\373e\270\273\340\206O\224\007\356\243"
 166      FB65B8BB 
 166      E0864F94 
 166      07EEA3
 167 009b 701F86FB 		.ascii	"p\037\206\373c\270K\340\036\241\241\0340\274p\227\301"
 167      63B84BE0 
 167      1EA1A11C 
 167      30BC7097 
 167      C1
 168 00ac 3D0EEEF1 		.ascii	"=\016\356\361pO\200\273\002\356 \334\177\007\367\375"
 168      704F80BB 
 168      02EE20DC 
 168      7F07F7FD 
 169 00bc 704355EA 		.ascii	"pCU\352\001x\352/\322>\000\3177\025:\017\302\367\207"
 169      0178EA2F 
 169      D23E00CF 
 169      37153A0F 
 169      C2F787
 170 00cf 1999DE23 		.ascii	"\031\231\336#L\206\207\211\220/V\350\177\000\367!\205"
 170      4C868789 
 170      902F56E8 
 170      7F00F721 
 170      85
 171 00e0 07C20BA3 		.ascii	"\007\302\013\243\340T\330\320\360(m}\026t\030\035&\255"
 171      E054D8D0 
 171      F0286D7D 
 171      1674181D 
 171      26AD
 172 00f2 D4B5C220 		.ascii	"\324\265\302 \362\225(\030\255\0268\204\307\363p\237"
 172      F2952818 
 172      AD163884 
 172      C7F3709F 
ARM GAS  /var/folders/c6/c789hm653lg9vtl73krp73tm0000gn/T//ccGpAURF.s 			page 12


 173 0102 837B32BC 		.ascii	"\203{2\274Ob2\372\"\274.\242eZ^E'\344\333h\202\311d"
 173      4F6232FA 
 173      22BC2EA2 
 173      655A5E45 
 173      27E4DB68 
 174 0119 D32A53F8 		.ascii	"\323*S\370\325\313\337\245\350@\345\367cE\3562E\277"
 174      D5CBDFA5 
 174      E840E5F7 
 174      6345EE32 
 174      45BF
 175 012b 563C8F73 		.ascii	"V<\217s\2013.\207\215\306;\300Q\3550>\007?\023\\\340"
 175      81332E87 
 175      8DC63BC0 
 175      51ED303E 
 175      073F135C 
 176 0140 4CC8C14F 		.ascii	"L\310\301O\011\365\274(6\210-\215\342\223\335c\356\244"
 176      09F5BC28 
 176      36882D8D 
 176      E293DD63 
 176      EEA4
 177 0152 5E12E10A 		.ascii	"^\022\341\012.\370\002\252>M\263\364\230\000%\321\230"
 177      2EF802AA 
 177      3E4DB3F4 
 177      980025D1 
 177      98
 178 0163 2B0D50E5 		.ascii	"+\015P\345P\375>j\243(6\245\017\234-\027\213X\372e\372"
 178      50FD3E6A 
 178      A32836A5 
 178      0F9C2D17 
 178      8B58FA65 
 179 0178 4E203089 		.ascii	"N 0\211\246\356\247\266@\273&@\3721\225}\345\207\245"
 179      A6EEA7B6 
 179      40BB2640 
 179      FA31957D 
 179      E587A5
 180 018b 2896DE04 		.ascii	"(\226\336\004`,\335F\337/\023\021\245\355\235\245\204"
 180      602CDD46 
 180      DF2F1311 
 180      A5ED9DA5 
 180      84
 181 019c 0829A794 		.ascii	"\010)\247\224/\026\327$\252\005\310J;;\327N\020[\336"
 181      2F16D724 
 181      AA05C84A 
 181      3B3BD74E 
 181      105BDE
 182 01af A503D482 		.ascii	"\245\003\324\202\214<\032\265\240J\254(#\303\365]\013"
 182      8C3C1AB5 
 182      A04AAC28 
 182      23C3F55D 
 182      0B
 183 01c0 FF5114FD 		.ascii	"\377Q\024\375,\275\005\0321T\2226\320p\21638\377\300"
 183      2CBD051A 
 183      31549236 
 183      D0708E33 
 183      38FFC0
 184 01d3 3B748328 		.ascii	";t\203(\302\207\255\210t\200.\024\252c\321\276\237#"
 184      C287AD88 
ARM GAS  /var/folders/c6/c789hm653lg9vtl73krp73tm0000gn/T//ccGpAURF.s 			page 13


 184      74802E14 
 184      AA63D1BE 
 184      9F23
 185 01e5 4B7F42A0 		.ascii	"K\177B\240W\031#\020K\373\002z\321\361]\255@\320\360"
 185      57192310 
 185      4BFB027A 
 185      D1F15DAD 
 185      40D0F0
 186 01f8 B3922181 		.ascii	"\263\222!\201h,\365\377\\\235\241v#\217\304FVr)Y\371"
 186      682CF5FF 
 186      5C9DA176 
 186      238FC446 
 186      56722959 
 187 020d 522A18EC 		.ascii	"R*\030\354\226~\357\313nZ\\\\\252Za\257k\270\240\301"
 187      967EEFCB 
 187      6E5A5C5C 
 187      AA5A61AF 
 187      6BB8A0C1 
 188 0221 0D767796 		.ascii	"\015vw\2266\261*\330;N\300\374\266\274Io\0220\027\016"
 188      36B12AD8 
 188      3B4EC0FC 
 188      B6BC496F 
 188      1230170E 
 189 0235 B5E505D9 		.ascii	"\265\345\005\331\241\336D\352\235Y\326#\356\341Z\301"
 189      A1DE44EA 
 189      9D59D623 
 189      EEE15AC1 
 190 0245 1FBA16C2 		.ascii	"\037\272\026\302\240\221t\333\331n\317jQZY\245\010\""
 190      A09174DB 
 190      D96ECF6A 
 190      515A59A5 
 190      0822
 191 0257 358A0BE8 		.ascii	"5\212\013\3509\333+\264\352\217\353ATQ\336R\372F\007"
 191      39DB2BB4 
 191      EA8FEB41 
 191      5451DE52 
 191      FA4607
 192 026a 8AF21163 		.ascii	"\212\362\021c\351\321\216\240\006\347\177\244v\017\011"
 192      E9D18EA0 
 192      06E77FA4 
 192      760F09
 193 0279 C17A0B07 		.ascii	"\301z\013\007k\3518TAB\302\377 \320\251,\005\007L\372"
 193      6BE93854 
 193      4142C2FF 
 193      20D0A92C 
 193      05074CFA 
 194 028d 0D18F51B 		.ascii	"\015\030\365\033\010d2#\352ES\177\2656\014u\321lL\203"
 194      08643223 
 194      EA45537F 
 194      B5360C75 
 194      D16C4C83 
 195 02a1 904AB6CC 		.ascii	"\220J\266\314\302#\255.}\310d\351?\322\367A\272\231"
 195      C223AD2E 
 195      7DC864E9 
 195      3FD2F741 
 195      BA99
 196 02b3 9E04E94E 		.ascii	"\236\004\351NLwa\272\007\323}\220j\227\225#\021\270"
ARM GAS  /var/folders/c6/c789hm653lg9vtl73krp73tm0000gn/T//ccGpAURF.s 			page 14


 196      4C7761BA 
 196      07D37D90 
 196      6A979523 
 196      11B8
 197 02c5 56BA44AD 		.ascii	"V\272D\255b\031\262=j\203)\031\363\366\037\333\357A"
 197      6219B23D 
 197      6A832919 
 197      F3F61FDB 
 197      EF41
 198 02d7 4FE9C2B1 		.ascii	"O\351\302\261`\225\307h\223\3748\204\360As\350\037\344"
 198      6095C768 
 198      93FC3884 
 198      F04173E8 
 198      1FE4
 199 02e9 827269FE 		.ascii	"\202ri\376\300\177u\340}9\200\310\275n32p\260\320x$"
 199      C07F75E0 
 199      7D3980C8 
 199      BD6E3332 
 199      70B0D078 
 200 02fe 7DC37557 		.ascii	"}\303uW\251X\257\271\306\012\352\260D\351Z\361\202\271"
 200      A958AFB9 
 200      C60AEAB0 
 200      44E95AF1 
 200      82B9
 201 0310 5E7594DC 		.ascii	"^u\224\334c\0063\216\200\371\242\221(\335\324\243\275"
 201      6306338E 
 201      80F9A291 
 201      28DDD4A3 
 201      BD
 202 0321 EB082DE8 		.ascii	"\353\010-\350\330\223\016\352<\351\317\350I\037\240"
 202      D8930EEA 
 202      3CE9CFE8 
 202      491FA0
 203 0330 DF1CC2F4 		.ascii	"\337\034\302\364cL\017\353}Hf*\335\336\327\347\233C"
 203      634C0FEB 
 203      7D48662A 
 203      DDDED7E7 
 203      9B43
 204 0342 A28BEA00 		.ascii	"\242\213\352\000\227\2001K\243\377\247\312T/q2\206\372"
 204      9780314B 
 204      A3FFA7CA 
 204      542F7132 
 204      86FA
 205 0354 0B4AD063 		.ascii	"\013J\320c\266\374\262f\034\364{\034\330^\224\326\365"
 205      B6FCB266 
 205      1CF47B1C 
 205      D85E94D6 
 205      F5
 206 0365 ADA5C9A0 		.ascii	"\255\245\311\240\257\022\324\005\350\264\246\217\212"
 206      AF12D405 
 206      E8B4A68F 
 206      8A
 207 0372 8CB3AE39 		.ascii	"\214\263\2569}\343Go\213b\031K\037Gf_)\262\366V[\034"
 207      7DE3476F 
 207      8B62194B 
 207      1F47665F 
 207      29B2F656 
ARM GAS  /var/folders/c6/c789hm653lg9vtl73krp73tm0000gn/T//ccGpAURF.s 			page 15


 208 0388 302336F9 		.ascii	"0#6\371\334\304vzo\363\321Fz\016F\271\317\035\261~\344"
 208      DCC4767A 
 208      6FF3D146 
 208      7A0E46B9 
 208      CF1DB17E 
 209 039d B82DEB56 		.ascii	"\270-\353VQt\315i\351G\357#\347\247\220\363\003\326"
 209      5174CD69 
 209      E947EF23 
 209      E7A790F3 
 209      03D6
 210 03af 9CB73C6E 		.ascii	"\234\267<n\207\303P\237b\2233Y\234\367]oP8?\343\250"
 210      87C3509F 
 210      62933359 
 210      9CF75D6F 
 210      50383FE3 
 211 03c4 C30DFE61 		.ascii	"\303\015\376a\035\316\264\362\316\034E\257\312\300o"
 211      1DCEB4F2 
 211      CE1C45AF 
 211      CAC06F
 212 03d3 3282AC3E 		.ascii	"2\202\254>}\303\207\361\342<\312\361\245\215\005\354"
 212      7DC387F1 
 212      E23CCAF1 
 212      A58D05EC 
 213 03e3 7118EA32 		.ascii	"q\030\3522\266\271\230m\202\003s\025A.:\022d\305\"Y"
 213      B6B9986D 
 213      82037315 
 213      412E3A12 
 213      64C52259 
 214 03f7 10963E07 		.ascii	"\020\226>\007\3020\324\220\206[X\350X}\010\347\0362"
 214      C230D490 
 214      865B58E8 
 214      587D08E7 
 214      1E32
 215 0409 9858EC16 		.ascii	"\230X\354\026,h\000[\177\310\365|vP\031\263\277\301"
 215      2C68005B 
 215      7FC8F57C 
 215      765019B3 
 215      BFC1
 216 041b E035BFF8 		.ascii	"\3405\277\370{\231~\274\350D\016\373\250\005V\371`\011"
 216      7B997EBC 
 216      E8440EFB 
 216      A80556F9 
 216      6009
 217 042d BD64AED8 		.ascii	"\275d\256\330]\245\272\250\327N\016\206Z\216\304\206"
 217      5DA5BAA8 
 217      D74E0E86 
 217      5A8EC486 
 218 043d CC961DBE 		.ascii	"\314\226\035\276\320\375\223\225\350\374C\216\014\273"
 218      D0FD9395 
 218      E8FC438E 
 218      0CBB
 219 044b EBE00A7B 		.ascii	"\353\340\012{\017\325QoaT\362\367\"\371\367\220\374"
 219      0FD5516F 
 219      6154F2F7 
 219      22F9F790 
 219      FC
 220 045c 7766F29F 		.ascii	"wf\362\237\\J?&\223\377\316\021\371\365\207\227f\223"
ARM GAS  /var/folders/c6/c789hm653lg9vtl73krp73tm0000gn/T//ccGpAURF.s 			page 16


 220      5C4A3F26 
 220      93FFCE11 
 220      F9F58797 
 220      6693
 221 046e 67E9C7EE 		.ascii	"g\351\307\356\312e\275\341\013\347*\326#\221\006\206"
 221      CA65BDE1 
 221      0BE72AD6 
 221      23910686 
 222 047e F8CFCD2C 		.ascii	"\370\317\315,\363M-\321\323\302w]\005\206\232\353U\271"
 222      F34D2DD1 
 222      D3C2775D 
 222      05869AEB 
 222      55B9
 223 0490 2F6C26FE 		.ascii	"/l&\376\311%\351\227[v\210\342s^\225\207F\327\210F\037"
 223      C925E997 
 223      5B7688E2 
 223      735E9587 
 223      46D78846 
 224 04a5 DE71183B 		.ascii	"\336q\030;\204\014\366\234\023\260\034\223\3617\364"
 224      840CF69C 
 224      13B01C93 
 224      F137F4
 225 04b4 600B5D83 		.ascii	"`\013]\203\0319\333\255\007{\321\011\230\325\244L]&"
 225      1939DBAD 
 225      077BD109 
 225      98D5A44C 
 225      5D26
 226 04c6 E8C116BB 		.ascii	"\350\301\026\273\0063r\326\256\007[\346\004\254\334"
 226      063372D6 
 226      AE075BE6 
 226      04ACDC
 227 04d5 9EB37D7A 		.ascii	"\236\263}z\260U\256\301\214\234\275\255\007[\347\004"
 227      B055AEC1 
 227      8C9CBDAD 
 227      075BE704 
 228 04e5 2C68C199 		.ascii	",h\301\231v\331MB\2073\223P\206j\361\252\001\301\245"
 228      76D94D42 
 228      87339350 
 228      866AF1AA 
 228      01C1A5
 229 04f8 4F53198C 		.ascii	"OS\031\214\215^\267\021\314 7D\260\0177\310\021L\215"
 229      8D5EB711 
 229      CC203744 
 229      B00F37C8 
 229      114C8D
 230 050b EDAF3841 		.ascii	"\355\2578A\314\3410\273\365\003\305\016\327`F\263\034"
 230      CCE130BB 
 230      F503C50E 
 230      D76046B3 
 230      1C
 231 051c 25608650 		.ascii	"%`\206P\243\014\031\3516\251|e&\330\371U,\262x\221#"
 231      A30C19E9 
 231      36A97C65 
 231      26D8F955 
 231      2CB27891 
 232 0531 5B932832 		.ascii	"[\223(2Ze\261\274\334\272.K\257g\310\204\260\205\011"
 232      5A65B1BC 
ARM GAS  /var/folders/c6/c789hm653lg9vtl73krp73tm0000gn/T//ccGpAURF.s 			page 17


 232      DCBA2E4B 
 232      AF67C884 
 232      B08509
 233 0544 685CC879 		.ascii	"h\\\310y5'\257m\332\275\306e\221v\345kj\347\011\353"
 233      3527AF6D 
 233      DABDC665 
 233      9176E56B 
 233      6AE709EB 
 234 0558 189D27EC 		.ascii	"\030\235'\354w\242\246\034]\341\212\235\232\034-b!:"
 234      77A2A61C 
 234      5DE18A9D 
 234      9A1C2D62 
 234      213A
 235 056a 4F7C05A3 		.ascii	"O|\005\243s\033\203k{\2579:K\346\301\325\341\232\320"
 235      731B836B 
 235      7BAF393A 
 235      4BE6C1D5 
 235      E19AD0
 236 057d 4EF88D7A 		.ascii	"N\370\215z\341?q-\274\311\205\373\372\226\320W\033D"
 236      E13F712D 
 236      BCC985FB 
 236      FA96D057 
 236      1B44
 237 058f 6D138098 		.ascii	"m\023\200\230;\247o\300tb@\231N\274\202\022\2374I\354"
 237      3BA76FC0 
 237      74624099 
 237      4EBC8212 
 237      9F3449EC 
 238 05a3 1C6870FE 		.ascii	"\034hp\376\266\177@\240m\0104P0P\307\242\346)\010\364"
 238      B67F40A0 
 238      6D083450 
 238      3050C7A2 
 238      E62908F4 
 239 05b7 3A027D95 		.ascii	":\002}\225e\003\263\011h\243\011\350@&\223\265\204\377"
 239      6503B309 
 239      68A309E8 
 239      402693B5 
 239      84FF
 240 05c9 1EEB32D4 		.ascii	"\036\3532\324u\263\275\014\342\344\210\216\232\275\316"
 240      75B3BD0C 
 240      E2E4888E 
 240      9ABDCE
 241 05d8 B8B7D729 		.ascii	"\270\267\327)\305^\273P;#Y\332\331\306\270S\017L!}n"
 241      C55EBB50 
 241      3B2359DA 
 241      D9C6B853 
 241      0F4C217D 
 242 05ed C5F01BC5 		.ascii	"\305\360\033\305h>\353^\214\363\212\030\355(\306\213"
 242      683EEB5E 
 242      8CF38A18 
 242      ED28C68B 
 243 05fd BEDB1763 		.ascii	"\276\333\027c\205k1\312tb\220\025\3227K\345\001`\034"
 243      856B31CA 
 243      74629015 
 243      D2374BE5 
 243      01601C
 244 0610 B538F714 		.ascii	"\2658\367\024\226\360\263\237\031g\\\322~\373\021\035"
ARM GAS  /var/folders/c6/c789hm653lg9vtl73krp73tm0000gn/T//ccGpAURF.s 			page 18


 244      96F0B39F 
 244      19675CD2 
 244      7EFB111D 
 245 0620 948BF32F 		.ascii	"\224\213\363/\013\227\034\326M\373EG\323\376o\025\205"
 245      0B971CD6 
 245      4DFB4547 
 245      D3FE6F15 
 245      85
 246 0631 BD8B0A6B 		.ascii	"\275\213\012k\366Yt/G@\203]\357mW6\352\016 \324\306"
 246      F659742F 
 246      4740835D 
 246      EF6D5736 
 246      EA0E20D4 
 247 0646 82A13A0E 		.ascii	"\202\241:\016\355\221{j7\002m\3152\242\327dC\257\321"
 247      ED917B6A 
 247      37026DCD 
 247      32A2D764 
 247      43AFD1
 248 0659 86F04A28 		.ascii	"\206\360J(\335\300\030\371{\245\204\274\370\250\277"
 248      DDC018F9 
 248      7BA584BC 
 248      F8A8BF
 249 0668 7A3B86DA 		.ascii	"z;\206\332\215\354\023\373\0252\261\306%\320Ru\002!"
 249      8DEC13FB 
 249      1532B1C6 
 249      25D05275 
 249      0221
 250 067a 1BA9E3B6 		.ascii	"\033\251\343\266\020\033\244\375\213\325\225\353T2\205"
 250      101BA4FD 
 250      8BD595EB 
 250      543285
 251 0689 E8BC4DB8 		.ascii	"\350\274M\270\223\207\315c\243i\351r\336f\344\3216'"
 251      9387CD63 
 251      A369E972 
 251      DE66E4D1 
 251      3627
 252 069b D2E55B71 		.ascii	"\322\345[qt<\214\223\303\017\263\354}\2166-^H\201\256"
 252      743C8C93 
 252      C30FB3EC 
 252      7D8E362D 
 252      5E4881AE 
 253 06af 8A5D5FFA 		.ascii	"\212]_\372D?\012\246oOL\260C\377F\331\016\371\026\206"
 253      443F0AA6 
 253      6F4F4CB0 
 253      43FF46D9 
 253      0EF91686 
 254 06c3 BF51D14A 		.ascii	"\277Q\321J\221\360\227H\270\2271\255\013\217\215\244"
 254      91F09748 
 254      B89731AD 
 254      0B8F8DA4 
 255 06d3 1B950E43 		.ascii	"\033\225\016C\276\345\357\334'\006\002\270S)o\341,\361"
 255      BEE5EFDC 
 255      270602B8 
 255      53296FE1 
 255      2CF1
 256 06e5 ABA85613 		.ascii	"\253\250V\023\217\274n%\365q\335U.\302D\233r8\321\207"
 256      8FBC6E25 
ARM GAS  /var/folders/c6/c789hm653lg9vtl73krp73tm0000gn/T//ccGpAURF.s 			page 19


 256      F571DD55 
 256      2EC2449B 
 256      7238D187 
 257 06f9 1EB8C66F 		.ascii	"\036\270\306o6\321\001s\\u\325GZ\315\3028]\335i\227"
 257      36D10173 
 257      5C75D547 
 257      5ACDC238 
 257      5DDD6997 
 258 070d 9D0B1CD3 		.ascii	"\235\013\034\323\273\300\037\375\267\351\002}g\035\272"
 258      BBC01FFD 
 258      B7E9027D 
 258      671DBA
 259 071c 80A8EDFB 		.ascii	"\200\250\355\373\225!\345\327\220\362\200\331\007\372"
 259      9521E5D7 
 259      90F280D9 
 259      07FA
 260 072a 37BC3F5F 		.ascii	"7\274?_\331t\032p\344\003\337\032|\340\230\206Z\210"
 260      D9741A70 
 260      E403DF1A 
 260      7CE09886 
 260      5A88
 261 073c 0F344843 		.ascii	"\0174HC\347\225\315oy-\321o\206s\271\306\276\305\271"
 261      E795CD6F 
 261      792DD16F 
 261      8673B9C6 
 261      BEC5B9
 262 074f 558CEC5D 		.ascii	"U\214\354]\322g\003d\210\273\304\020\231\316f\271\226"
 262      D2670364 
 262      88BBC410 
 262      99CE66B9 
 262      96
 263 0760 AC199D6B 		.ascii	"\254\031\235ke\324\310\322gqqq\216!;\314\0270\275\310"
 263      65D4C8D2 
 263      67717171 
 263      8E213BCC 
 263      1730BDC8 
 264 0774 3838ABF8 		.ascii	"88\253\370J\357\026\227]\313\035t\350}g\364d\256\335"
 264      4AEF1697 
 264      5DCB1D74 
 264      E87D67F4 
 264      64AEDD
 265 0787 A6F7B5F7 		.ascii	"\246\367\265\367].Z%J\363<.6\365\206\325M=\354\266\303"
 265      5D2E5A25 
 265      4AF33C2E 
 265      36F586D5 
 265      4D3DECB6 
 266 079c 59BA2D68 		.ascii	"Y\272-hS\357\271@\201\202h\027C5\005\034\254I\202\026"
 266      53EFB940 
 266      81826817 
 266      4335051C 
 266      AC498216 
 267 07b0 3AD746C5 		.ascii	":\327F\305\353K\035n\014j\303L\367\204n\034fn\242\243"
 267      EB4B1D6E 
 267      0C6AC34C 
 267      F7846E1C 
 267      666EA2A3 
 268 07c4 2D0D58EF 		.ascii	"-\015X\357\201\347\330`\334\200M\206"
ARM GAS  /var/folders/c6/c789hm653lg9vtl73krp73tm0000gn/T//ccGpAURF.s 			page 20


 268      81E7D860 
 268      DC804D86 
 269 07d0 CDBD786F 		.ascii	"\315\275xo\3637\352\036\370\260\203^\334 \035\371\203"
 269      F337EA1E 
 269      F8B0835E 
 269      DC201DF9 
 269      83
 270 07e1 7EEB98A5 		.ascii	"~\353\230\245\257\320\214\202[\250B\0156\034\326\365"
 270      AFD08C82 
 270      5BA8420D 
 270      361CD6F5 
 271 07f1 8F11EC1F 		.ascii	"\217\021\354\037\242G\327'\030j\247\023\345\377\275"
 271      A247D727 
 271      186AA713 
 271      E5FFBD
 272 0800 9D278AD2 		.ascii	"\235'\212\322\320\021\371\364A\215C\035f<\2538d\300"
 272      D011F9F4 
 272      418D431D 
 272      663CAB38 
 272      64C0
 273 0812 3318536A 		.ascii	"3\030Sj\352\301\035\015yv\323\355\204\271*;\260\006"
 273      EAC11D0D 
 273      7976D3ED 
 273      84B92A3B 
 273      B006
 274 0824 69AD0C26 		.ascii	"i\255\014&{\374!'`S\354$m\220\366.W-u\006\347&\237\271"
 274      7BFC2127 
 274      6053EC24 
 274      6D90F62E 
 274      572D7506 
 275 083c C6333277 		.ascii	"\30632w\244g\255\202'o\263\177\341\004\357q{\376\006"
 275      A467AD82 
 275      276FB37F 
 275      E104EF71 
 275      7BFE06
 276 084f 971BA672 		.ascii	"\227\033\246r\227\\\303\031\0151\334C\014\273\260\\"
 276      975CC319 
 276      0D31DC43 
 276      0CBBB05C 
 277 085f 3D27BC66 		.ascii	"='\274f\306\263<'|\322\261gfN] \334\3439\341e<\033\034"
 277      C6B33C27 
 277      7CD2B167 
 277      664E5D20 
 277      DCE339E1 
 278 0877 C4F42AA6 		.ascii	"\304\364*\24670]\211\261|5\246k1\335\200\351\026L\337"
 278      37305D89 
 278      B17C35A6 
 278      6B31DD80 
 278      E9164CDF 
 279 088b C0F42D4C 		.ascii	"\300\364-L\337\306t\010\323\006\017I\347a\332\210\351"
 279      DFC67408 
 279      D3060F49 
 279      E761DA88 
 279      E9
 280 089c 024C9FC7 		.ascii	"\002L\237\307t!\246\213<\016\306\007\323\004S\355\242"
 280      7421A68B 
 280      3C0EC607 
ARM GAS  /var/folders/c6/c789hm653lg9vtl73krp73tm0000gn/T//ccGpAURF.s 			page 21


 280      D30453ED 
 280      A2
 281 08ad 670A3EDD 		.ascii	"g\012>\335\271j\352\362_\273\306\013\346R\354\031\235"
 281      B96AEAF2 
 281      5FBBC60B 
 281      E652EC19 
 281      9D
 282 08be 62BF44C5 		.ascii	"b\277D\305\236E56\031;\376w\001\365\370\261\260\011"
 282      9E453536 
 282      193BFE77 
 282      01F5F8B1 
 282      B009
 283 08d0 C3A7C78D 		.ascii	"\303\247\307\215\356\3338\312\204\347j\306 J\275\307"
 283      EEDB38CA 
 283      84E76AC6 
 283      204ABDC7 
 284 08e0 B1AF0EA1 		.ascii	"\261\257\016\241\263\275\340\032,h`\256\177\265\361"
 284      B3BDE01A 
 284      2C6860AE 
 284      7FB5F1
 285 08ef 406E8913 		.ascii	"@n\211\023\274\034\373\254W\216\353\366Y\327\270\006"
 285      BC1CFBAC 
 285      578EEBF6 
 285      59D7B806 
 286 08ff 3332774D 		.ascii	"32wM\017\266\301\011\230\325n\244\265\361?\327\031\277"
 286      0FB6C109 
 286      98D56EA4 
 286      B5F13FD7 
 286      19BF
 287 0911 1F8D9F46 		.ascii	"\037\215\237F\343/F\177_\212\351rLWb\272\332\350\024"
 287      E32F467F 
 287      5F8AE972 
 287      4C5762BA 
 287      DAE814
 288 0924 DB46A947 		.ascii	"\333F\251G\351\0121\343\241u>\257\020\245]\366\347\350"
 288      E90A31E3 
 288      A1753EAF 
 288      10A55DF6 
 288      E7E8
 289 0936 56D33D18 		.ascii	"V\323=\030\211\257T\364\342H\334\354!\206\3379*\357"
 289      89AF54F4 
 289      E248DCEC 
 289      2186DF39 
 289      2AEF
 290 0948 39BA793E 		.ascii	"9\272y>\375>6i\365d\235F\017?\253\214\304\344[\376\221"
 290      FD3E3669 
 290      F5649D46 
 290      0F3FAB8C 
 290      C4E45BFE 
 291 095d 7868458E 		.ascii	"xhE\216\323h\375Y\237F\377\007z9\272+\344S\365M(G:\277"
 291      D368FD59 
 291      9F46FF07 
 291      7A39BA2B 
 291      E453F54D 
 292 0975 1C461C86 		.ascii	"\034F\034\206\272\202M\266d\313\361\225*\307\026Gr\274"
 292      BA824DB6 
 292      64CBF195 
ARM GAS  /var/folders/c6/c789hm653lg9vtl73krp73tm0000gn/T//ccGpAURF.s 			page 22


 292      2AC71647 
 292      72BC
 293 0987 B542F5FD 		.ascii	"\265B\365\3756\017\361\2609%*na\341\252\375\030\272"
 293      360FF1B0 
 293      39252A6E 
 293      61E1AAFD 
 293      18BA
 294 0999 AB0CF69C 		.ascii	"\253\014\366\234k0\243\357w\034s{\030\275\346t\357&"
 294      6B30A3EF 
 294      771C737B 
 294      18BDE674 
 294      EF26
 295 09ab 656DBCDD 		.ascii	"em\274\335C\002\315K%\337\313\314u\215\023I\354W8`\227"
 295      4302CD4B 
 295      25DFCBCC 
 295      758D1349 
 295      EC573860 
 296 09c0 CBCB2C16 		.ascii	"\313\313,\026\200\343\251e\312:Z\244\005\333\243Z\302"
 296      80E3A965 
 296      CA3A5AA4 
 296      05DBA35A 
 296      C2
 297 09d1 E41ECF78 		.ascii	"\344\036\317x\314y\360\227\265\224r\014\373k\217&GN"
 297      CC79F097 
 297      B594720C 
 297      FB6B8F26 
 297      474E
 298 09e3 A5A47FBC 		.ascii	"\245\244\177\274\031\335m7\232e\243I'\246]\027B\312"
 298      19DD6D37 
 298      9A65A349 
 298      27A65D17 
 298      42CA
 299 09f5 8E8DBD9E 		.ascii	"\216\215\275\236\022\033\227\312\372\006\361\301\265"
 299      121B97CA 
 299      FA06F1C1 
 299      B5
 300 0a02 D20CE627 		.ascii	"\322\014\346'\033\240m\352\006\026\316Rv9\001t\3763"
 300      1BA06DEA 
 300      0616CE52 
 300      76390174 
 300      FE33
 301 0a14 B64CEF61 		.ascii	"\266L\357a\351W=$\374m\3050\367\032\246\257c\272\013"
 301      E9573D24 
 301      FC6DC530 
 301      F71AA6AF 
 301      63BA0B
 302 0a27 D30E2743 		.ascii	"\323\016'C?\361y\015{\233\207Q\342La\375\350V\246\037"
 302      3FF1790D 
 302      7B9B8751 
 302      E24C61FD 
 302      E856A61F 
 303 0a3b B1F49F5C 		.ascii	"\261\364\237\\\203\031\024)\275\244\215\276\244S\300"
 303      83191429 
 303      BDA48DBE 
 303      A453C0
 304 0a4a 2CC8095E 		.ascii	",\310\011^\216\365\372\353\362\230$\367\260}%\264K\260"
 304      8EF5FAEB 
ARM GAS  /var/folders/c6/c789hm653lg9vtl73krp73tm0000gn/T//ccGpAURF.s 			page 23


 304      F29824F7 
 304      B07D25B4 
 304      4BB0
 305 0a5c 602EA3B4 		.ascii	"`.\243\264\352\214\262\001\215\262\021M\260\037S\011"
 305      EA8CB201 
 305      8DB2114D 
 305      B01F5309 
 306 0a6c D3778CE3 		.ascii	"\323w\214\343Pw\211i\0342\006}\253aQ\257\037Q\332\367"
 306      50778969 
 306      1C32067D 
 306      AB6151AF 
 306      1F51DAF7 
 307 0a80 5F4DAC55 		.ascii	"_M\254U\314\375\205\332v\251\341'Q\275\023\345\345\340"
 307      CCFD85DA 
 307      76A9E127 
 307      51BD13E5 
 307      E5E0
 308 0a92 010CDE1F 		.ascii	"\001\014\336\037\225\344\017\336F \206\352\3036\335"
 308      95E40FDE 
 308      462086EA 
 308      C336DD
 309 0aa1 59D1BB79 		.ascii	"Y\321\273y@\3755Ww\376\350=o\256\264k\315\246\314(4"
 309      40FD3557 
 309      77FEE83D 
 309      6FAEB46B 
 309      CDA6CC28 
 310 0ab6 57EBC1CD 		.ascii	"W\353\301\315\260\204\261\363R\303\351\346%\215\217"
 310      B084B1F3 
 310      52C3E9E6 
 310      258D8F
 311 0ac5 42BC5494 		.ascii	"B\274T\224\366\237P\035K\336\336\273\341\032\317h\210"
 311      F69F501D 
 311      4BDEDEBB 
 311      E11ACF68 
 311      88
 312 0ad6 9E13E858 		.ascii	"\236\023\350X2\230X\352\000,\307\034\361\353\177\267"
 312      329858EA 
 312      002CC71C 
 312      F1EB7FB7 
 313 0ae6 B4AAA44D 		.ascii	"\264\252\244M]\027\350\254\272\363\364\251\273\347\242"
 313      5D17E8AC 
 313      BAF3F4A9 
 313      BBE7A2
 314 0af5 E68FA055 		.ascii	"\346\217\240U_-\315kU\023\020Qn\217\311\242\322\372"
 314      5F2DCD6B 
 314      55131051 
 314      6E8FC9A2 
 314      D2FA
 315 0b07 2EF96785 		.ascii	".\371g\205\216\306\342=]\2526\213q\267\036Y\350)8\204"
 315      8EC6E23D 
 315      5DAA368B 
 315      71B71E59 
 315      E8293884 
 316 0b1b EC9FEF6C 		.ascii	"\354\237\357l\212b\271\263\266\254\213\354\254\235D"
 316      8A62B9B3 
 316      B6AC8BEC 
 316      AC9D44
ARM GAS  /var/folders/c6/c789hm653lg9vtl73krp73tm0000gn/T//ccGpAURF.s 			page 24


 317 0b2a 5D1CC8AF 		.ascii	"]\034\310\257\013#\006\021\265\337\254\212#\362\277"
 317      0B230611 
 317      B5DFAC8A 
 317      23F2BF
 318 0b39 55F43B52 		.ascii	"U\364;R\305\211N}\304b\250\243\310B\177\301\272\270"
 318      C5894E7D 
 318      C462A8A3 
 318      C8427FC1 
 318      BAB8
 319 0b4b DA689CE2 		.ascii	"\332h\234\342\237t\215\0274\340\335\224\177\357\217"
 319      9F748D17 
 319      34E0DD94 
 319      7FEF8F
 320 0b5a A3D26927 		.ascii	"\243\322i'X9\242\351\222\256\265?\024\323\022\255\236"
 320      5839A2E9 
 320      92AEB53F 
 320      14D312AD 
 320      9E
 321 0b6b 545F34E3 		.ascii	"T_4\343Y\235\033:\017\250\375\272\200\232\306\200z\012"
 321      599D1B3A 
 321      0FA8FDBA 
 321      809AC680 
 321      7A0A
 322 0b7d 83E81798 		.ascii	"\203\350\027\230\016`z\326\311\370v\302\243\213\034"
 322      0E607AD6 
 322      C9F876C2 
 322      A38B1C
 323 0b8c DFBA764E 		.ascii	"\337\272vN\275\002\241\247?\321\304\336A5)~${\232\352"
 323      BD02A1A7 
 323      3FD1C4DE 
 323      4135297E 
 323      247B9AEA 
 324 0ba0 4B5ABF12 		.ascii	"KZ\277\022\325~\365\277\236;0g8w\300*v\314^\364d~\372"
 324      D57EF5BF 
 324      9E3B3067 
 324      3877C02A 
 324      76CC5EF4 
 325 0bb7 511AC864 		.ascii	"Q\032\310d\246j\022\3342K`\242\233\303p\326\212\356"
 325      A66A12DC 
 325      324B60A2 
 325      9BC370D6 
 325      8AEE
 326 0bc9 D129FA18 		.ascii	"\321)\372\030*\272\027\225{\034\323\013\3061\253q\264"
 326      2ABA1795 
 326      7B1CD30B 
 326      C631AB71 
 326      B4
 327 0bda 29B899A2 		.ascii	")\270\231\242\211k3w\353\250\037D\352\177F\272\2070"
 327      896B3377 
 327      EBA81F44 
 327      EA7F46BA 
 327      8730
 328 0bec FD18D3C3 		.ascii	"\375\030\323\303F\036\226\2146\215\233\246qJ\311\333"
 328      461E968C 
 328      368D9BA6 
 328      714AC9DB 
 329 0bfc EFBFA5DB 		.ascii	"\357\277\245\333\233?U\177\206-\377\256v\205\031\322"
ARM GAS  /var/folders/c6/c789hm653lg9vtl73krp73tm0000gn/T//ccGpAURF.s 			page 25


 329      9B3F557F 
 329      862DFFAE 
 329      768519D2 
 330 0c0c F8235A25 		.ascii	"\370#Z%+\345\210\332}}\245Z\330\316\2735\333\326O\242"
 330      2BE588DA 
 330      7D7DA55A 
 330      D8CEBB35 
 330      DBD64FA2 
 331 0c20 D4558C52 		.ascii	"\324U\214R/\217v\271-K\264v\315\034\245\360?\000\256"
 331      2F8F76B9 
 331      2D4BB476 
 331      CD1CA5F0 
 331      3F00AE
 332 0c33 395B02AA 		.ascii	"9[\002\252\377\001 \377\327\317N\244\177\315}\210\262"
 332      FF0120FF 
 332      D7CF4EA4 
 332      7FCD7D88 
 332      B2
 333 0c44 B6E7359D 		.ascii	"\266\3475\235=\257\243=o\030\255\327nV\265\025\275\226"
 333      3DAFA33D 
 333      6F18ADD7 
 333      6E56B515 
 333      BD96
 334 0c56 4C2FC810 		.ascii	"L/\310\020d\351\243\260\314\327~e0\360(\232P\355\215"
 334      64E9A3B0 
 334      CCD77E65 
 334      30F0289A 
 334      50ED8D
 335 0c69 0BBEA0E5 		.ascii	"\013\276\240\345\237\033\251\2169V\005\273A+\315o\271"
 335      9F1BA98E 
 335      395605BB 
 335      412BCD6F 
 335      B9
 336 0c7a EE8EC336 		.ascii	"\356\216\3036\335\361nM\234\016\2638&\272J>m%\220v\251"
 336      DDF16E4D 
 336      9C0EB338 
 336      26BA4A3E 
 336      6D259076 
 337 0c8f 4D0DFFE9 		.ascii	"M\015\377\351\241d7[\265\274\207j\026[\322\351\267."
 337      A164375B 
 337      B5BC876A 
 337      165BD2E9 
 337      B72E
 338 0ca1 0DD69013 		.ascii	"\015\326\220\023\022qd\344\367\224\363E\231X4^\311\251"
 338      127164E4 
 338      F794F345 
 338      9958345E 
 338      C9A9
 339 0cb3 0B3186BA 		.ascii	"\0131\206\272`rC\212\372[\252\215\340\211\233E\017\242"
 339      6072438A 
 339      FA5BAA8D 
 339      E0899B45 
 339      0FA2
 340 0cc5 91FA239E 		.ascii	"\221\372#\236{\214\346\236Sd\370\007I\231/i\007\014"
 340      7B8CE69E 
 340      5364F807 
 340      49992F69 
ARM GAS  /var/folders/c6/c789hm653lg9vtl73krp73tm0000gn/T//ccGpAURF.s 			page 26


 340      070C
 341 0cd7 3373D223 		.ascii	"3s\322##\367\310\264\030\352\232#\364\271E&\364y\226"
 341      23F7C8B4 
 341      18EA9A23 
 341      F4B94526 
 341      F47996
 342 0cea E8BD2ABA 		.ascii	"\350\275*\272s\211\347\027\231\226\241d85\274\030\324"
 342      7389E717 
 342      9996A164 
 342      3835BC18 
 342      D4
 343 0cfb 811A797E 		.ascii	"\201\032y~\214\221\347{\251\015\242\270X\034\256~R\035"
 343      8C91E77B 
 343      A90DA2B8 
 343      581CAE7E 
 343      521D
 344 0d0d 8D57628D 		.ascii	"\215Wb\215F\340\332\212\256\202\2534\333\313i\315\326"
 344      46E0DA8A 
 344      AE82AB34 
 344      DBCB69CD 
 344      D6
 345 0d1e 3A69A669 		.ascii	":i\246i\350\005\361\3312ZSQ\243YE\317g\253(}\005\307"
 345      E805F1D9 
 345      325A5351 
 345      A35945CF 
 345      67AB287D 
 346 0d34 7983015A 		.ascii	"y\203\001Z\30681@\223\031\375%K\364\325]&\364\267\035"
 346      C6383140 
 346      9319FD25 
 346      4BF4D55D 
 346      26F4B71D 
 347 0d48 A12F31A3 		.ascii	"\241/1\243/\265Do7\243\237p\204\276\334\214\276\302"
 347      2FB5446F 
 347      37A39F70 
 347      84BEDC8C 
 347      BEC2
 348 0d5a 12FDB819 		.ascii	"\022\375\270\031}\310\021\372*3\372j\013\364\246\364"
 348      7DC811FA 
 348      2A33FA6A 
 348      0BF4A6F4 
 349 0d6a B397257A 		.ascii	"\263\227%z\225\370\256\333\016\271\316\354\236\255t"
 349      95F8AEDB 
 349      0EB9CEEC 
 349      9EAD74
 350 0d79 89D91D97 		.ascii	"\211\331\035\227\2175\363)W]o\305\2104\322\271t\202"
 350      8F35F329 
 350      575D6FC5 
 350      8834D2B9 
 350      7482
 351 0d8b D8DA208D 		.ascii	"\330\332 \215\214\354\177\334\005#\255V\214\030^\250"
 351      8CEC7FDC 
 351      0523AD56 
 351      8C185EA8 
 352 0d9b AC7ED266 		.ascii	"\254~\322f`\014+CX\034k\370\025 \254\206-\331\274\331"
 352      600C2B43 
 352      581C6BF8 
 352      1520AC86 
ARM GAS  /var/folders/c6/c789hm653lg9vtl73krp73tm0000gn/T//ccGpAURF.s 			page 27


 352      2DD9BCD9 
 353 0daf B950A4D1 		.ascii	"\271P\244\321\036\353\203\262\032\030\2523\033\217\245"
 353      1EEB83B2 
 353      1A18AA33 
 353      1B8FA5
 354 0dbe 37199BB3 		.ascii	"7\031\233\263\364fK\274[\026x'\035\341\275j,\370\033"
 354      F4664BBC 
 354      5B167827 
 354      1DE1BD6A 
 354      2CF81B
 355 0dd1 AA95D873 		.ascii	"\252\225\330so\337\007\345[\033\304y\333A}#\364\310"
 355      6FDF07E5 
 355      5B1BC479 
 355      DB417D23 
 355      F4C8
 356 0de3 5407FFAA 		.ascii	"T\007\377\252\225\371\017\244\273\333q\271\375Z\021"
 356      95F90FA4 
 356      BBDB71B9 
 356      FD5A11
 357 0df2 19E6074D 		.ascii	"\031\346\007M\346S\377gK\307B\217n[\273\027\267\265"
 357      E653FF67 
 357      4BC7428F 
 357      6E5BBB17 
 357      B7B5
 358 0e04 3FC36DED 		.ascii	"?\303m\355u8\011z\017\323+\230~\215\351Q\374\372\027"
 358      7538097A 
 358      0FD32B98 
 358      7E8DE951 
 358      FCFA17
 359 0e17 E3F03AAC 		.ascii	"\343\360:\254\321\261f\217\020\332\236\221\325\264\207"
 359      D1B1668F 
 359      10DA9E91 
 359      D5B487
 360 0e26 4678B5F3 		.ascii	"Fx\265\363\215\035E%6\255\210\236\355Z\355\264m\325"
 360      8D1D4525 
 360      36AD889E 
 360      ED5AEDB4 
 360      6DD5
 361 0e38 9AA3D51B 		.ascii	"\232\243\325\033\231V\324\335\017>X)\377%R\225\274P"
 361      9956D4DD 
 361      0F3E5829 
 361      FF255295 
 361      BC50
 362 0e4a 198987A3 		.ascii	"\031\211\207\243u\325\\e\270V\210=XK\335)Db\\(\306\261"
 362      75D55C65 
 362      B856883D 
 362      584BDD29 
 362      44625C28 
 363 0e60 A93A9E8B 		.ascii	"\251:\236\213qq!$x\237\370\347_\007\247Q\223M\015\223"
 363      71712124 
 363      789FF8E7 
 363      5F07A751 
 363      934D0D93 
 364 0e74 095E4855 		.ascii	"\011^HU\376\342_\237\232\366\324\354\312p\"\226\214"
 364      FEE25F9F 
 364      9AF6D4EC 
 364      CA702296 
ARM GAS  /var/folders/c6/c789hm653lg9vtl73krp73tm0000gn/T//ccGpAURF.s 			page 28


 364      8C
 365 0e85 44393E55 		.ascii	"D9>U\371\304\264i\004\353\231$\227\0028\037/\204\011"
 365      F9C4B469 
 365      04EB9924 
 365      9702381F 
 365      2F8409
 366 0e98 C63F55D6 		.ascii	"\306?U\326\245\370\312h\"\314F+\247q\321(\313W\326\204"
 366      A5F8CA68 
 366      22CC462B 
 366      A771D128 
 366      CB57D684 
 367 0eac C30FB07C 		.ascii	"\303\017\260|\354\201x\"\316=\300\261\323#\225\017W"
 367      EC817822 
 367      CE3DC0B1 
 367      D323950F 
 367      57
 368 0ebd 3D34B96A 		.ascii	"=4\271jJ\325O+\215\305*\207)\241:\022\027\000\324_\007"
 368      4AD54F2B 
 368      8DC52A87 
 368      29A13A12 
 368      1700D45F 
 369 0ed2 CF471E0E 		.ascii	"\317G\036\016\011\377\361=\240\306\330pm$\316U\206\252"
 369      09FFF13D 
 369      A0C6D870 
 369      6D24CE55 
 369      86AA
 370 0ee4 B9196C5D 		.ascii	"\271\031l]\024xUX\037\025\012\251t\212\246s)\241\270"
 370      14785558 
 370      1F150AA9 
 370      748AA673 
 370      29A1B8
 371 0ef7 3EC1A784 		.ascii	">\301\247\204\242(\233\022\274u(\024\035\367\363\002"
 371      A2289B12 
 371      BC752814 
 371      1DF7F302 
 372 0f07 EA4B4096 		.ascii	"\352K@\226~69$(\2550\033\256\213\325EY!2\213\233d\253"
 372      7E363924 
 372      28AD301B 
 372      AE8BD545 
 372      5921328B 
 373 0f1e F494C00A 		.ascii	"\364\224\300\012\204\332\230\231\034\037\347\242!|\017"
 373      84DA9899 
 373      1C1FE7A2 
 373      217C0F
 374 0f2d 09C5F150 		.ascii	"\011\305\361P\204\377\235?\036\012\013\263S\365\341"
 374      84FF9D3F 
 374      1E0A0BB3 
 374      53F5E1
 375 0f3c 51B15098 		.ascii	"Q\261P\230\217\000\311\332j5\033I\361A{\324pm5\200\226"
 375      8F00C9DA 
 375      6A351B49 
 375      F1417BD4 
 375      706D3580 
 376 0f51 EA4103E1 		.ascii	"\352A\003\341\332P\352\231\224\300\305\356\265o\007"
 376      DA50EA99 
 376      94C0C5EE 
 376      B56F07
ARM GAS  /var/folders/c6/c789hm653lg9vtl73krp73tm0000gn/T//ccGpAURF.s 			page 29


 377 0f60 DF15F14B 		.ascii	"\337\025\361Ky\216\255~&\024\215\244\200\354hh\233y"
 377      798EAD7E 
 377      26148DA4 
 377      80EC6868 
 377      9B79
 378 0f72 1F2BD492 		.ascii	"\037+\324\222\227T\350wu\\\035\010_\006_\015E~\371-"
 378      9754E877 
 378      755C1D08 
 378      5F065F0D 
 378      457EF92D 
 379 0f86 2404B42F 		.ascii	"$\004\264/\336d(\316\315\026\340\221\344\271Y>!\311"
 379      DE6428CE 
 379      CD16E091 
 379      E4B9593E 
 379      21C9
 380 0f98 471221F9 		.ascii	"G\022!\3715\222\360\205"
 380      3592F085 
 381 0fa0 137101BE 		.ascii	"\023q\001\276\336\227\323\305j\303\011\236\003\316J"
 381      DE97D3C5 
 381      6AC3099E 
 381      03CE4A
 382 0faf 48710894 		.ascii	"Hq\010\224\014\272\371I\376\026\241Y\217\022\307\366"
 382      0CBAF949 
 382      FE16A159 
 382      8F12C7F6 
 383 0fbf F35C0D78 		.ascii	"\363\\\015x@H`\370\311\014\377S\206\377\031\303?\312"
 383      404860F8 
 383      C90CFF53 
 383      86FF19C3 
 383      3FCA
 384 0fd1 F05318FE 		.ascii	"\360S\030\376\347\036\376\241*\270\037b\242<<\036)N"
 384      E71EFEA1 
 384      2AB81F62 
 384      A23C3C1E 
 384      294E
 385 0fe3 12ADFB08 		.ascii	"\022\255\373\010\303\365\034\017\317D\264\232\343\213"
 385      C3F51C0F 
 385      CF44B49A 
 385      E38B
 386 0ff1 C2B52C4F 		.ascii	"\302\265,O\244`c\334\250\2240\223\215Fj"
 386      A46063DC 
 386      A8943093 
 386      8D466A
 387 1000 E260E424 		.ascii	"\342`\344$hwf4\022\213\010~\201\350\031\364\341#\036"
 387      68776634 
 387      128B087E 
 387      81E819F4 
 387      E1231E
 388 1013 3005A497 		.ascii	"0\005\244\227}\001r\276$\332\200\363\011\261D5\207\357"
 388      7D0172BE 
 388      24DA80F3 
 388      09B14435 
 388      87EF
 389 1025 33A26C4D 		.ascii	"3\242lM\312'\360\334\214\024\352\201d\212c\251\032\370"
 389      CA27F0DC 
 389      8C14EA81 
 389      648A63A9 
ARM GAS  /var/folders/c6/c789hm653lg9vtl73krp73tm0000gn/T//ccGpAURF.s 			page 30


 389      1AF8
 390 1037 A8781D34 		.ascii	"\250x\0354Wr^\276\372\031\370\344\347fG\2040\000x\353"
 390      57725EBE 
 390      FA19F8E4 
 390      E7664784 
 390      300078EB 
 391 104b 85C4F4DF 		.ascii	"\205\304\364\337&\357T\324\014M9\236\213\207\001\270"
 391      26EF54D4 
 391      0C4D399E 
 391      8B8701B8 
 392 105b B85E10F8 		.ascii	"\270^\020\370d)15\027c\223\265 \377=\366\326\346\210"
 392      64293135 
 392      176393B5 
 392      20FF3DF6 
 392      D6E688
 393 106e 627C8AD1 		.ascii	"b|\212\321\212\321\247\213S!x\002\001\370\230\364\003"
 393      8AD1A78B 
 393      53217802 
 393      01F898F4 
 393      03
 394 107f 4EAC0E2C 		.ascii	"N\254\016,c\217\021\023f\023\214\230\214\001\317D}\034"
 394      638F1113 
 394      66138C98 
 394      8C01CF44 
 394      7D1C
 395 1091 9486AD80 		.ascii	"\224\206\255\200\361\230l\365z\001\352%K\270Y\020Pb"
 395      F1986CF5 
 395      7A01EA25 
 395      4BB85910 
 395      5062
 396 10a3 6C6A267C 		.ascii	"lj&|\341\352I\306\223\014\325\215Q}G\366\265\261:o\""
 396      E1EA49C6 
 396      930CD58D 
 396      517D47F6 
 396      B5B13A6F 
 397 10b8 258164A8 		.ascii	"%\201d\250\236\215\010\221x\015\350\032\264 3\213Y("
 397      9E8D0891 
 397      780DE81A 
 397      B420338B 
 397      5928
 398 10ca E0925C1C 		.ascii	"\340\222\\\034\302B\015\324\002\022\244\376(\242K6\212"
 398      C2420DD4 
 398      0212A4FE 
 398      28A24B36 
 398      8A
 399 10db 7E0585C9 		.ascii	"~\005\205\311D\"\252\250?\345\343e6\275<\272]1\217\206"
 399      4422AAA8 
 399      3FE5E365 
 399      36BD3CBA 
 399      5D318F86 
 400 10ef E61543F3 		.ascii	"\346\025C\363\262\241\003PZ\307\203>\205b\236\340\335"
 400      B2A10350 
 400      5AC7833E 
 400      85629EE0 
 400      DD
 401 1100 352BC20B 		.ascii	"5+\302\013ul4Dz:\257r9\036\270\264\3700\326P&w\015C"
 401      756C3444 
ARM GAS  /var/folders/c6/c789hm653lg9vtl73krp73tm0000gn/T//ccGpAURF.s 			page 31


 401      7A3AAF72 
 401      391EB8B4 
 401      F830D650 
 402 1118 916F9680 		.ascii	"\221o\226\200*!O\322\023\002\244\313\311!\004J\252\271"
 402      2A214FD2 
 402      1302A4CB 
 402      C921044A 
 402      AAB9
 403 112a A8C04266 		.ascii	"\250\300BfF]<\034\302:$\347%uY\276\004\036$\372\220"
 403      465D3C1C 
 403      C23A24E7 
 403      257559BE 
 403      041E24FA 
 404 113f EA5044C8 		.ascii	"\352PD\310\215\221;4\264\233^W#\253N_\022H\262\361H"
 404      8D913B34 
 404      B49B5E57 
 404      23AB4E5F 
 404      1248B2F1 
 405 1154 9868CA07 		.ascii	"\230h\312\007\341\202\030\326\017\301r&\311\330G$l\011"
 405      E18218D6 
 405      0FC17226 
 405      C9D84724 
 405      6C09
 406 1166 36BD83D8 		.ascii	"6\275\203\330\201g\301\253\246\327\315\230A\204\361"
 406      8167C1AB 
 406      A6D7CD98 
 406      4184F1
 407 1175 09D343A9 		.ascii	"\011\323C\251\310\177sc\010\231\372p\010\315\011\305"
 407      C87F7363 
 407      0899FA70 
 407      08CD09C5 
 408 1185 290E652B 		.ascii	")\016e+&\317d\000R\331=\375\220C\257\367B\273\244\300"
 408      26CF6400 
 408      52D93DFD 
 408      9043AFF7 
 408      42BBA4C0 
 409 1199 07E02143 		.ascii	"\007\340!C\225\352q=\325\323kF\305Xpu4z\231\000\001"
 409      95EA713D 
 409      D5D36B46 
 409      C5587075 
 409      347A9900 
 410 11ae 0E3AD774 		.ascii	"\016:\327t\036\"g\002z\23071cF\212\023\030!6&R\035\345"
 410      1E226702 
 410      7A983731 
 410      63468A13 
 410      18213626 
 411 11c5 14DF009F 		.ascii	"\024\337\000\237\230h\022!\305\207\265\200\032\246J"
 411      98681221 
 411      C587B580 
 411      1AA64A
 412 11d4 94501A89 		.ascii	"\224P\032\211G\204qZ>\014m\201-\210\255\243\22529\300"
 412      4784715A 
 412      3E0C6D81 
 412      2D88ADA3 
 412      953239C0 
 413 11e8 7AE242D2 		.ascii	"z\342B\322\223\020\222\023\225RH!\306(\303\240\026{"
 413      93109213 
ARM GAS  /var/folders/c6/c789hm653lg9vtl73krp73tm0000gn/T//ccGpAURF.s 			page 32


 413      95524821 
 413      C628C3A0 
 413      167B
 414 11fa 2BB4AF89 		.ascii	"+\264\257\211d\326\307\034MA\371\366M\341#(\364WO\375"
 414      64D6C71C 
 414      4D41F9F6 
 414      4DE12328 
 414      F4574FFD 
 415 120e CBF4DF72 		.ascii	"\313\364\337ra\341\227\300\356\017\311\353\264ZP\311"
 415      61E197C0 
 415      EE0FC9EB 
 415      B45A50C9 
 416 121e 539971F8 		.ascii	"S\231q\370W\211\247\375\361D$\036\205\301\352.R\341"
 416      5789A7FD 
 416      F144241E 
 416      85C1EA2E 
 416      52E1
 417 1230 DF081D5D 		.ascii	"\337\010\035]\205\247\177 \227&\222\372\302\222\214"
 417      85A77F20 
 417      972692FA 
 417      C2928C
 418 123f 4B084CB8 		.ascii	"K\010L\270\366\377\000J\025\261\302"
 418      F6FF004A 
 418      15B1C2
 419              		.text
 420              		.section	.gnu.lto_.symtab.96cd3ef79ff6629e,"",%progbits
 421 0000 5F737461 		.ascii	"_stats_init\000\000\000\000\000\000\000\000\000\000"
 421      74735F69 
 421      6E697400 
 421      00000000 
 421      00000000 
 422 0015 0000FF01 		.ascii	"\000\000\377\001\000\000_stats_increase_irq\000\000"
 422      00005F73 
 422      74617473 
 422      5F696E63 
 422      72656173 
 423 0030 00000000 		.ascii	"\000\000\000\000\000\000\000\000\000\000\003\002\000"
 423      00000000 
 423      00000302 
 423      00
 424 003d 005F7374 		.ascii	"\000_stats_ctxswc\000\000\000\000\000\000\000\000\000"
 424      6174735F 
 424      63747873 
 424      77630000 
 424      00000000 
 425 0054 00000006 		.ascii	"\000\000\000\006\002\000\000_stats_start_measure_cr"
 425      0200005F 
 425      73746174 
 425      735F7374 
 425      6172745F 
 426 0072 69745F74 		.ascii	"it_thd\000\000\000\000\000\000\000\000\000\000\000\000"
 426      68640000 
 426      00000000 
 426      00000000 
 426      0000
 427 0084 10020000 		.ascii	"\020\002\000\000_stats_stop_measure_crit_thd\000\000"
 427      5F737461 
ARM GAS  /var/folders/c6/c789hm653lg9vtl73krp73tm0000gn/T//ccGpAURF.s 			page 33


 427      74735F73 
 427      746F705F 
 427      6D656173 
 428 00a6 00000000 		.ascii	"\000\000\000\000\000\000\000\000\000\000\023\002\000"
 428      00000000 
 428      00001302 
 428      00
 429 00b3 005F7374 		.ascii	"\000_stats_start_measure_crit_isr\000\000\000\000\000"
 429      6174735F 
 429      73746172 
 429      745F6D65 
 429      61737572 
 430 00d6 00000000 		.ascii	"\000\000\000\000\000\000\000\026\002\000\000_stats_"
 430      00000016 
 430      0200005F 
 430      73746174 
 430      735F
 431 00e8 73746F70 		.ascii	"stop_measure_crit_isr\000\000\000\000\000\000\000\000"
 431      5F6D6561 
 431      73757265 
 431      5F637269 
 431      745F6973 
 432 0105 00000000 		.ascii	"\000\000\000\000\031\002\000\000ch\000\000\002\000\000"
 432      19020000 
 432      63680000 
 432      020000
 433 0114 00000000 		.ascii	"\000\000\000\000\000\000\000-\002\000\000chTMObject"
 433      0000002D 
 433      02000063 
 433      68544D4F 
 433      626A6563 
 434 0129 496E6974 		.ascii	"Init\000\000\002\000\000\000\000\000\000\000\000\000"
 434      00000200 
 434      00000000 
 434      00000000 
 435 0139 1C020000 		.ascii	"\034\002\000\000chTMChainMeasurementToX\000\000\002"
 435      6368544D 
 435      43686169 
 435      6E4D6561 
 435      73757265 
 436 0157 00000000 		.ascii	"\000\000\000\000\000\000\000\000\000 \002\000\000ch"
 436      00000000 
 436      00200200 
 436      006368
 437 0166 544D5374 		.ascii	"TMStartMeasurementX\000\000\002\000\000\000\000\000"
 437      6172744D 
 437      65617375 
 437      72656D65 
 437      6E745800 
 438 0181 00000000 		.ascii	"\000\000\000\000'\002\000\000chTMStopMeasurementX\000"
 438      27020000 
 438      6368544D 
 438      53746F70 
 438      4D656173 
 439 019e 00020000 		.ascii	"\000\002\000\000\000\000\000\000\000\000\000*\002\000"
 439      00000000 
 439      0000002A 
ARM GAS  /var/folders/c6/c789hm653lg9vtl73krp73tm0000gn/T//ccGpAURF.s 			page 34


 439      0200
 440 01ac 00       		.ascii	"\000"
 441              		.text
 442              		.section	.gnu.lto_.opts,"",%progbits
 443 0000 272D6D63 		.ascii	"'-mcpu=cortex-m4' '-mno-thumb-interwork' '-mthumb' "
 443      70753D63 
 443      6F727465 
 443      782D6D34 
 443      2720272D 
 444 0033 272D6767 		.ascii	"'-ggdb' '-O2' '-fomit-frame-pointer' '-falign-funct"
 444      64622720 
 444      272D4F32 
 444      2720272D 
 444      666F6D69 
 445 0066 696F6E73 		.ascii	"ions=16' '-ffunction-sections' '-fdata-sections' '-"
 445      3D313627 
 445      20272D66 
 445      66756E63 
 445      74696F6E 
 446 0099 666E6F2D 		.ascii	"fno-common' '-flto'\000"
 446      636F6D6D 
 446      6F6E2720 
 446      272D666C 
 446      746F2700 
 447              		.text
 448              		.cfi_sections	.debug_frame
 449              		.section	.text._stats_init,"ax",%progbits
 450              		.align	2
 451              		.p2align 4,,15
 452              		.global	_stats_init
 453              		.thumb
 454              		.thumb_func
 455              		.type	_stats_init, %function
 456              	_stats_init:
 457              	.LFB229:
 458              		.file 1 "../../../os/rt/src/chstats.c"
 459              		.loc 1 62 0
 460              		.cfi_startproc
 461              		@ args = 0, pretend = 0, frame = 0
 462              		@ frame_needed = 0, uses_anonymous_args = 0
 463 0000 10B5     		push	{r4, lr}
 464              		.cfi_def_cfa_offset 8
 465              		.cfi_offset 4, -8
 466              		.cfi_offset 14, -4
 467              		.loc 1 64 0
 468 0002 084C     		ldr	r4, .L2
 469 0004 0023     		movs	r3, #0
 470              		.loc 1 66 0
 471 0006 04F59660 		add	r0, r4, #1200
 472              		.loc 1 64 0
 473 000a C4F8A834 		str	r3, [r4, #1192]
 474              		.loc 1 65 0
 475 000e C4F8AC34 		str	r3, [r4, #1196]
 476              		.loc 1 66 0
 477 0012 FFF7FEFF 		bl	chTMObjectInit
 478              	.LVL0:
 479              		.loc 1 67 0
ARM GAS  /var/folders/c6/c789hm653lg9vtl73krp73tm0000gn/T//ccGpAURF.s 			page 35


 480 0016 04F59960 		add	r0, r4, #1224
 481              		.loc 1 68 0
 482 001a BDE81040 		pop	{r4, lr}
 483              		.loc 1 67 0
 484 001e FFF7FEBF 		b	chTMObjectInit
 485              	.LVL1:
 486              	.L3:
 487 0022 00BF     		.align	2
 488              	.L2:
 489 0024 00000000 		.word	ch
 490              		.cfi_endproc
 491              	.LFE229:
 492              		.size	_stats_init, .-_stats_init
 493 0028 AFF30080 		.section	.text._stats_increase_irq,"ax",%progbits
 493      AFF30080 
 494              		.align	2
 495              		.p2align 4,,15
 496              		.global	_stats_increase_irq
 497              		.thumb
 498              		.thumb_func
 499              		.type	_stats_increase_irq, %function
 500              	_stats_increase_irq:
 501              	.LFB230:
 502              		.loc 1 73 0
 503              		.cfi_startproc
 504              		@ args = 0, pretend = 0, frame = 0
 505              		@ frame_needed = 0, uses_anonymous_args = 0
 506              		@ link register save eliminated.
 507              		.loc 1 75 0
 508 0000 034B     		ldr	r3, .L5
 509 0002 D3F8A824 		ldr	r2, [r3, #1192]
 510 0006 0132     		adds	r2, r2, #1
 511 0008 C3F8A824 		str	r2, [r3, #1192]
 512 000c 7047     		bx	lr
 513              	.L6:
 514 000e 00BF     		.align	2
 515              	.L5:
 516 0010 00000000 		.word	ch
 517              		.cfi_endproc
 518              	.LFE230:
 519              		.size	_stats_increase_irq, .-_stats_increase_irq
 520 0014 AFF30080 		.section	.text._stats_ctxswc,"ax",%progbits
 520      AFF30080 
 520      AFF30080 
 521              		.align	2
 522              		.p2align 4,,15
 523              		.global	_stats_ctxswc
 524              		.thumb
 525              		.thumb_func
 526              		.type	_stats_ctxswc, %function
 527              	_stats_ctxswc:
 528              	.LFB231:
 529              		.loc 1 84 0
 530              		.cfi_startproc
 531              		@ args = 0, pretend = 0, frame = 0
 532              		@ frame_needed = 0, uses_anonymous_args = 0
 533              		@ link register save eliminated.
ARM GAS  /var/folders/c6/c789hm653lg9vtl73krp73tm0000gn/T//ccGpAURF.s 			page 36


 534              	.LVL2:
 535              		.loc 1 86 0
 536 0000 074B     		ldr	r3, .L8
 537 0002 D3F8AC24 		ldr	r2, [r3, #1196]
 538              		.loc 1 84 0
 539 0006 10B4     		push	{r4}
 540              		.cfi_def_cfa_offset 4
 541              		.cfi_offset 4, -4
 542              		.loc 1 87 0
 543 0008 00F14804 		add	r4, r0, #72
 544              		.loc 1 86 0
 545 000c 0132     		adds	r2, r2, #1
 546              		.loc 1 87 0
 547 000e 01F14800 		add	r0, r1, #72
 548              	.LVL3:
 549 0012 2146     		mov	r1, r4
 550              	.LVL4:
 551              		.loc 1 88 0
 552 0014 5DF8044B 		ldr	r4, [sp], #4
 553              	.LVL5:
 554              		.loc 1 86 0
 555 0018 C3F8AC24 		str	r2, [r3, #1196]
 556              		.loc 1 87 0
 557 001c FFF7FEBF 		b	chTMChainMeasurementToX
 558              	.LVL6:
 559              	.L9:
 560              		.align	2
 561              	.L8:
 562 0020 00000000 		.word	ch
 563              		.cfi_endproc
 564              	.LFE231:
 565              		.size	_stats_ctxswc, .-_stats_ctxswc
 566 0024 AFF30080 		.section	.text._stats_start_measure_crit_thd,"ax",%progbits
 566      AFF30080 
 566      AFF30080 
 567              		.align	2
 568              		.p2align 4,,15
 569              		.global	_stats_start_measure_crit_thd
 570              		.thumb
 571              		.thumb_func
 572              		.type	_stats_start_measure_crit_thd, %function
 573              	_stats_start_measure_crit_thd:
 574              	.LFB232:
 575              		.loc 1 93 0
 576              		.cfi_startproc
 577              		@ args = 0, pretend = 0, frame = 0
 578              		@ frame_needed = 0, uses_anonymous_args = 0
 579              		@ link register save eliminated.
 580              		.loc 1 95 0
 581 0000 0148     		ldr	r0, .L11
 582 0002 FFF7FEBF 		b	chTMStartMeasurementX
 583              	.LVL7:
 584              	.L12:
 585 0006 00BF     		.align	2
 586              	.L11:
 587 0008 B0040000 		.word	ch+1200
 588              		.cfi_endproc
ARM GAS  /var/folders/c6/c789hm653lg9vtl73krp73tm0000gn/T//ccGpAURF.s 			page 37


 589              	.LFE232:
 590              		.size	_stats_start_measure_crit_thd, .-_stats_start_measure_crit_thd
 591 000c AFF30080 		.section	.text._stats_stop_measure_crit_thd,"ax",%progbits
 592              		.align	2
 593              		.p2align 4,,15
 594              		.global	_stats_stop_measure_crit_thd
 595              		.thumb
 596              		.thumb_func
 597              		.type	_stats_stop_measure_crit_thd, %function
 598              	_stats_stop_measure_crit_thd:
 599              	.LFB233:
 600              		.loc 1 101 0
 601              		.cfi_startproc
 602              		@ args = 0, pretend = 0, frame = 0
 603              		@ frame_needed = 0, uses_anonymous_args = 0
 604              		@ link register save eliminated.
 605              		.loc 1 103 0
 606 0000 0148     		ldr	r0, .L14
 607 0002 FFF7FEBF 		b	chTMStopMeasurementX
 608              	.LVL8:
 609              	.L15:
 610 0006 00BF     		.align	2
 611              	.L14:
 612 0008 B0040000 		.word	ch+1200
 613              		.cfi_endproc
 614              	.LFE233:
 615              		.size	_stats_stop_measure_crit_thd, .-_stats_stop_measure_crit_thd
 616 000c AFF30080 		.section	.text._stats_start_measure_crit_isr,"ax",%progbits
 617              		.align	2
 618              		.p2align 4,,15
 619              		.global	_stats_start_measure_crit_isr
 620              		.thumb
 621              		.thumb_func
 622              		.type	_stats_start_measure_crit_isr, %function
 623              	_stats_start_measure_crit_isr:
 624              	.LFB234:
 625              		.loc 1 109 0
 626              		.cfi_startproc
 627              		@ args = 0, pretend = 0, frame = 0
 628              		@ frame_needed = 0, uses_anonymous_args = 0
 629              		@ link register save eliminated.
 630              		.loc 1 111 0
 631 0000 0148     		ldr	r0, .L17
 632 0002 FFF7FEBF 		b	chTMStartMeasurementX
 633              	.LVL9:
 634              	.L18:
 635 0006 00BF     		.align	2
 636              	.L17:
 637 0008 C8040000 		.word	ch+1224
 638              		.cfi_endproc
 639              	.LFE234:
 640              		.size	_stats_start_measure_crit_isr, .-_stats_start_measure_crit_isr
 641 000c AFF30080 		.section	.text._stats_stop_measure_crit_isr,"ax",%progbits
 642              		.align	2
 643              		.p2align 4,,15
 644              		.global	_stats_stop_measure_crit_isr
 645              		.thumb
ARM GAS  /var/folders/c6/c789hm653lg9vtl73krp73tm0000gn/T//ccGpAURF.s 			page 38


 646              		.thumb_func
 647              		.type	_stats_stop_measure_crit_isr, %function
 648              	_stats_stop_measure_crit_isr:
 649              	.LFB235:
 650              		.loc 1 117 0
 651              		.cfi_startproc
 652              		@ args = 0, pretend = 0, frame = 0
 653              		@ frame_needed = 0, uses_anonymous_args = 0
 654              		@ link register save eliminated.
 655              		.loc 1 119 0
 656 0000 0148     		ldr	r0, .L20
 657 0002 FFF7FEBF 		b	chTMStopMeasurementX
 658              	.LVL10:
 659              	.L21:
 660 0006 00BF     		.align	2
 661              	.L20:
 662 0008 C8040000 		.word	ch+1224
 663              		.cfi_endproc
 664              	.LFE235:
 665              		.size	_stats_stop_measure_crit_isr, .-_stats_stop_measure_crit_isr
 666 000c AFF30080 		.text
 667              	.Letext0:
 668              		.file 2 "/usr/local/Cellar/gcc-arm-none-eabi/20140805/arm-none-eabi/include/machine/_default_types
 669              		.file 3 "/usr/local/Cellar/gcc-arm-none-eabi/20140805/arm-none-eabi/include/stdint.h"
 670              		.file 4 "../../../os/rt/ports/ARMCMx/compilers/GCC/chtypes.h"
 671              		.file 5 "../../../os/rt/include/chsystypes.h"
 672              		.file 6 "../../../os/rt/include/chschd.h"
 673              		.file 7 "../../../os/rt/ports/ARMCMx/chcore.h"
 674              		.file 8 "../../../os/rt/ports/ARMCMx/chcore_v7m.h"
 675              		.file 9 "../../../os/rt/include/chdebug.h"
 676              		.file 10 "../../../os/rt/include/chtm.h"
 677              		.file 11 "../../../os/rt/include/chstats.h"
 678              		.file 12 "../../../os/rt/include/chsem.h"
 679              		.file 13 "../../../os/rt/include/chmtx.h"
 680              		.file 14 "../../../os/ext/CMSIS/include/core_cm4.h"
 681              		.section	.debug_info,"",%progbits
 682              	.Ldebug_info0:
 683 0000 1E090000 		.4byte	0x91e
 684 0004 0400     		.2byte	0x4
 685 0006 00000000 		.4byte	.Ldebug_abbrev0
 686 000a 04       		.byte	0x4
 687 000b 01       		.uleb128 0x1
 688 000c 00000000 		.4byte	.LASF138
 689 0010 01       		.byte	0x1
 690 0011 6F060000 		.4byte	.LASF139
 691 0015 20030000 		.4byte	.LASF140
 692 0019 00000000 		.4byte	.Ldebug_ranges0+0
 693 001d 00000000 		.4byte	0
 694 0021 00000000 		.4byte	.Ldebug_line0
 695 0025 02       		.uleb128 0x2
 696 0026 04       		.byte	0x4
 697 0027 05       		.byte	0x5
 698 0028 696E7400 		.ascii	"int\000"
 699 002c 03       		.uleb128 0x3
 700 002d 04       		.byte	0x4
 701 002e 07       		.byte	0x7
 702 002f ED020000 		.4byte	.LASF0
ARM GAS  /var/folders/c6/c789hm653lg9vtl73krp73tm0000gn/T//ccGpAURF.s 			page 39


 703 0033 03       		.uleb128 0x3
 704 0034 01       		.byte	0x1
 705 0035 06       		.byte	0x6
 706 0036 15020000 		.4byte	.LASF1
 707 003a 04       		.uleb128 0x4
 708 003b 1F010000 		.4byte	.LASF5
 709 003f 02       		.byte	0x2
 710 0040 1C       		.byte	0x1c
 711 0041 45000000 		.4byte	0x45
 712 0045 03       		.uleb128 0x3
 713 0046 01       		.byte	0x1
 714 0047 08       		.byte	0x8
 715 0048 32050000 		.4byte	.LASF2
 716 004c 03       		.uleb128 0x3
 717 004d 02       		.byte	0x2
 718 004e 05       		.byte	0x5
 719 004f 57050000 		.4byte	.LASF3
 720 0053 03       		.uleb128 0x3
 721 0054 02       		.byte	0x2
 722 0055 07       		.byte	0x7
 723 0056 7C030000 		.4byte	.LASF4
 724 005a 04       		.uleb128 0x4
 725 005b 16060000 		.4byte	.LASF6
 726 005f 02       		.byte	0x2
 727 0060 37       		.byte	0x37
 728 0061 65000000 		.4byte	0x65
 729 0065 03       		.uleb128 0x3
 730 0066 04       		.byte	0x4
 731 0067 05       		.byte	0x5
 732 0068 63020000 		.4byte	.LASF7
 733 006c 04       		.uleb128 0x4
 734 006d 5A060000 		.4byte	.LASF8
 735 0071 02       		.byte	0x2
 736 0072 38       		.byte	0x38
 737 0073 77000000 		.4byte	0x77
 738 0077 03       		.uleb128 0x3
 739 0078 04       		.byte	0x4
 740 0079 07       		.byte	0x7
 741 007a FF050000 		.4byte	.LASF9
 742 007e 03       		.uleb128 0x3
 743 007f 08       		.byte	0x8
 744 0080 05       		.byte	0x5
 745 0081 07020000 		.4byte	.LASF10
 746 0085 04       		.uleb128 0x4
 747 0086 DA040000 		.4byte	.LASF11
 748 008a 02       		.byte	0x2
 749 008b 4E       		.byte	0x4e
 750 008c 90000000 		.4byte	0x90
 751 0090 03       		.uleb128 0x3
 752 0091 08       		.byte	0x8
 753 0092 07       		.byte	0x7
 754 0093 6E010000 		.4byte	.LASF12
 755 0097 04       		.uleb128 0x4
 756 0098 D8060000 		.4byte	.LASF13
 757 009c 03       		.byte	0x3
 758 009d 2A       		.byte	0x2a
 759 009e 3A000000 		.4byte	0x3a
ARM GAS  /var/folders/c6/c789hm653lg9vtl73krp73tm0000gn/T//ccGpAURF.s 			page 40


 760 00a2 04       		.uleb128 0x4
 761 00a3 2A050000 		.4byte	.LASF14
 762 00a7 03       		.byte	0x3
 763 00a8 41       		.byte	0x41
 764 00a9 5A000000 		.4byte	0x5a
 765 00ad 04       		.uleb128 0x4
 766 00ae C1050000 		.4byte	.LASF15
 767 00b2 03       		.byte	0x3
 768 00b3 42       		.byte	0x42
 769 00b4 6C000000 		.4byte	0x6c
 770 00b8 04       		.uleb128 0x4
 771 00b9 09010000 		.4byte	.LASF16
 772 00bd 03       		.byte	0x3
 773 00be 4E       		.byte	0x4e
 774 00bf 85000000 		.4byte	0x85
 775 00c3 05       		.uleb128 0x5
 776 00c4 A2000000 		.4byte	0xa2
 777 00c8 04       		.uleb128 0x4
 778 00c9 9B060000 		.4byte	.LASF17
 779 00cd 04       		.byte	0x4
 780 00ce 45       		.byte	0x45
 781 00cf AD000000 		.4byte	0xad
 782 00d3 04       		.uleb128 0x4
 783 00d4 F7010000 		.4byte	.LASF18
 784 00d8 04       		.byte	0x4
 785 00d9 46       		.byte	0x46
 786 00da B8000000 		.4byte	0xb8
 787 00de 04       		.uleb128 0x4
 788 00df C6030000 		.4byte	.LASF19
 789 00e3 04       		.byte	0x4
 790 00e4 48       		.byte	0x48
 791 00e5 97000000 		.4byte	0x97
 792 00e9 04       		.uleb128 0x4
 793 00ea 6C020000 		.4byte	.LASF20
 794 00ee 04       		.byte	0x4
 795 00ef 49       		.byte	0x49
 796 00f0 97000000 		.4byte	0x97
 797 00f4 04       		.uleb128 0x4
 798 00f5 F0040000 		.4byte	.LASF21
 799 00f9 04       		.byte	0x4
 800 00fa 4A       		.byte	0x4a
 801 00fb 97000000 		.4byte	0x97
 802 00ff 04       		.uleb128 0x4
 803 0100 19050000 		.4byte	.LASF22
 804 0104 04       		.byte	0x4
 805 0105 4C       		.byte	0x4c
 806 0106 AD000000 		.4byte	0xad
 807 010a 04       		.uleb128 0x4
 808 010b A8030000 		.4byte	.LASF23
 809 010f 04       		.byte	0x4
 810 0110 4D       		.byte	0x4d
 811 0111 A2000000 		.4byte	0xa2
 812 0115 04       		.uleb128 0x4
 813 0116 E7030000 		.4byte	.LASF24
 814 011a 04       		.byte	0x4
 815 011b 4F       		.byte	0x4f
 816 011c AD000000 		.4byte	0xad
ARM GAS  /var/folders/c6/c789hm653lg9vtl73krp73tm0000gn/T//ccGpAURF.s 			page 41


 817 0120 04       		.uleb128 0x4
 818 0121 DC020000 		.4byte	.LASF25
 819 0125 04       		.byte	0x4
 820 0126 51       		.byte	0x51
 821 0127 A2000000 		.4byte	0xa2
 822 012b 04       		.uleb128 0x4
 823 012c B3030000 		.4byte	.LASF26
 824 0130 04       		.byte	0x4
 825 0131 52       		.byte	0x52
 826 0132 AD000000 		.4byte	0xad
 827 0136 04       		.uleb128 0x4
 828 0137 3C060000 		.4byte	.LASF27
 829 013b 05       		.byte	0x5
 830 013c 33       		.byte	0x33
 831 013d AD000000 		.4byte	0xad
 832 0141 04       		.uleb128 0x4
 833 0142 27060000 		.4byte	.LASF28
 834 0146 05       		.byte	0x5
 835 0147 3F       		.byte	0x3f
 836 0148 4C010000 		.4byte	0x14c
 837 014c 06       		.uleb128 0x6
 838 014d 9E030000 		.4byte	.LASF50
 839 0151 60       		.byte	0x60
 840 0152 06       		.byte	0x6
 841 0153 C2       		.byte	0xc2
 842 0154 52020000 		.4byte	0x252
 843 0158 07       		.uleb128 0x7
 844 0159 77050000 		.4byte	.LASF29
 845 015d 06       		.byte	0x6
 846 015e C3       		.byte	0xc3
 847 015f 5D020000 		.4byte	0x25d
 848 0163 00       		.byte	0
 849 0164 07       		.uleb128 0x7
 850 0165 12050000 		.4byte	.LASF30
 851 0169 06       		.byte	0x6
 852 016a C5       		.byte	0xc5
 853 016b 5D020000 		.4byte	0x25d
 854 016f 04       		.byte	0x4
 855 0170 07       		.uleb128 0x7
 856 0171 00020000 		.4byte	.LASF31
 857 0175 06       		.byte	0x6
 858 0176 C7       		.byte	0xc7
 859 0177 FF000000 		.4byte	0xff
 860 017b 08       		.byte	0x8
 861 017c 07       		.uleb128 0x7
 862 017d 64070000 		.4byte	.LASF32
 863 0181 06       		.byte	0x6
 864 0182 C8       		.byte	0xc8
 865 0183 C6040000 		.4byte	0x4c6
 866 0187 0C       		.byte	0xc
 867 0188 07       		.uleb128 0x7
 868 0189 7B020000 		.4byte	.LASF33
 869 018d 06       		.byte	0x6
 870 018e CA       		.byte	0xca
 871 018f 5D020000 		.4byte	0x25d
 872 0193 10       		.byte	0x10
 873 0194 07       		.uleb128 0x7
ARM GAS  /var/folders/c6/c789hm653lg9vtl73krp73tm0000gn/T//ccGpAURF.s 			page 42


 874 0195 A9040000 		.4byte	.LASF34
 875 0199 06       		.byte	0x6
 876 019a CB       		.byte	0xcb
 877 019b 5D020000 		.4byte	0x25d
 878 019f 14       		.byte	0x14
 879 01a0 07       		.uleb128 0x7
 880 01a1 F5060000 		.4byte	.LASF35
 881 01a5 06       		.byte	0x6
 882 01a6 D2       		.byte	0xd2
 883 01a7 6A070000 		.4byte	0x76a
 884 01ab 18       		.byte	0x18
 885 01ac 07       		.uleb128 0x7
 886 01ad E2020000 		.4byte	.LASF36
 887 01b1 06       		.byte	0x6
 888 01b2 D8       		.byte	0xd8
 889 01b3 7C070000 		.4byte	0x77c
 890 01b7 1C       		.byte	0x1c
 891 01b8 07       		.uleb128 0x7
 892 01b9 61050000 		.4byte	.LASF37
 893 01bd 06       		.byte	0x6
 894 01be DD       		.byte	0xdd
 895 01bf E9000000 		.4byte	0xe9
 896 01c3 20       		.byte	0x20
 897 01c4 07       		.uleb128 0x7
 898 01c5 7E050000 		.4byte	.LASF38
 899 01c9 06       		.byte	0x6
 900 01ca E1       		.byte	0xe1
 901 01cb DE000000 		.4byte	0xde
 902 01cf 21       		.byte	0x21
 903 01d0 07       		.uleb128 0x7
 904 01d1 C3060000 		.4byte	.LASF39
 905 01d5 06       		.byte	0x6
 906 01d6 E6       		.byte	0xe6
 907 01d7 F4000000 		.4byte	0xf4
 908 01db 22       		.byte	0x22
 909 01dc 08       		.uleb128 0x8
 910 01dd 705F7500 		.ascii	"p_u\000"
 911 01e1 06       		.byte	0x6
 912 01e2 3101     		.2byte	0x131
 913 01e4 A5060000 		.4byte	0x6a5
 914 01e8 24       		.byte	0x24
 915 01e9 09       		.uleb128 0x9
 916 01ea 34040000 		.4byte	.LASF40
 917 01ee 06       		.byte	0x6
 918 01ef 3601     		.2byte	0x136
 919 01f1 63020000 		.4byte	0x263
 920 01f5 28       		.byte	0x28
 921 01f6 09       		.uleb128 0x9
 922 01f7 09030000 		.4byte	.LASF41
 923 01fb 06       		.byte	0x6
 924 01fc 3C01     		.2byte	0x13c
 925 01fe 87020000 		.4byte	0x287
 926 0202 2C       		.byte	0x2c
 927 0203 09       		.uleb128 0x9
 928 0204 18070000 		.4byte	.LASF42
 929 0208 06       		.byte	0x6
 930 0209 4001     		.2byte	0x140
ARM GAS  /var/folders/c6/c789hm653lg9vtl73krp73tm0000gn/T//ccGpAURF.s 			page 43


 931 020b 0A010000 		.4byte	0x10a
 932 020f 34       		.byte	0x34
 933 0210 09       		.uleb128 0x9
 934 0211 B6050000 		.4byte	.LASF43
 935 0215 06       		.byte	0x6
 936 0216 4601     		.2byte	0x146
 937 0218 15010000 		.4byte	0x115
 938 021c 38       		.byte	0x38
 939 021d 09       		.uleb128 0x9
 940 021e 4D050000 		.4byte	.LASF44
 941 0222 06       		.byte	0x6
 942 0223 4D01     		.2byte	0x14d
 943 0225 64070000 		.4byte	0x764
 944 0229 3C       		.byte	0x3c
 945 022a 09       		.uleb128 0x9
 946 022b 46060000 		.4byte	.LASF45
 947 022f 06       		.byte	0x6
 948 0230 5101     		.2byte	0x151
 949 0232 FF000000 		.4byte	0xff
 950 0236 40       		.byte	0x40
 951 0237 09       		.uleb128 0x9
 952 0238 21020000 		.4byte	.LASF46
 953 023c 06       		.byte	0x6
 954 023d 5801     		.2byte	0x158
 955 023f 3A030000 		.4byte	0x33a
 956 0243 44       		.byte	0x44
 957 0244 09       		.uleb128 0x9
 958 0245 86050000 		.4byte	.LASF47
 959 0249 06       		.byte	0x6
 960 024a 5E01     		.2byte	0x15e
 961 024c 56060000 		.4byte	0x656
 962 0250 48       		.byte	0x48
 963 0251 00       		.byte	0
 964 0252 04       		.uleb128 0x4
 965 0253 64040000 		.4byte	.LASF48
 966 0257 05       		.byte	0x5
 967 0258 44       		.byte	0x44
 968 0259 5D020000 		.4byte	0x25d
 969 025d 0A       		.uleb128 0xa
 970 025e 04       		.byte	0x4
 971 025f 41010000 		.4byte	0x141
 972 0263 04       		.uleb128 0x4
 973 0264 FC060000 		.4byte	.LASF49
 974 0268 05       		.byte	0x5
 975 0269 49       		.byte	0x49
 976 026a 6E020000 		.4byte	0x26e
 977 026e 06       		.uleb128 0x6
 978 026f EF050000 		.4byte	.LASF51
 979 0273 04       		.byte	0x4
 980 0274 06       		.byte	0x6
 981 0275 B0       		.byte	0xb0
 982 0276 87020000 		.4byte	0x287
 983 027a 07       		.uleb128 0x7
 984 027b 77050000 		.4byte	.LASF29
 985 027f 06       		.byte	0x6
 986 0280 B1       		.byte	0xb1
 987 0281 5D020000 		.4byte	0x25d
ARM GAS  /var/folders/c6/c789hm653lg9vtl73krp73tm0000gn/T//ccGpAURF.s 			page 44


 988 0285 00       		.byte	0
 989 0286 00       		.byte	0
 990 0287 04       		.uleb128 0x4
 991 0288 AA060000 		.4byte	.LASF52
 992 028c 05       		.byte	0x5
 993 028d 50       		.byte	0x50
 994 028e 92020000 		.4byte	0x292
 995 0292 06       		.uleb128 0x6
 996 0293 35010000 		.4byte	.LASF53
 997 0297 08       		.byte	0x8
 998 0298 06       		.byte	0x6
 999 0299 B7       		.byte	0xb7
 1000 029a B7020000 		.4byte	0x2b7
 1001 029e 07       		.uleb128 0x7
 1002 029f 77050000 		.4byte	.LASF29
 1003 02a3 06       		.byte	0x6
 1004 02a4 B8       		.byte	0xb8
 1005 02a5 5D020000 		.4byte	0x25d
 1006 02a9 00       		.byte	0
 1007 02aa 07       		.uleb128 0x7
 1008 02ab 12050000 		.4byte	.LASF30
 1009 02af 06       		.byte	0x6
 1010 02b0 B9       		.byte	0xb9
 1011 02b1 5D020000 		.4byte	0x25d
 1012 02b5 04       		.byte	0x4
 1013 02b6 00       		.byte	0
 1014 02b7 04       		.uleb128 0x4
 1015 02b8 E7000000 		.4byte	.LASF54
 1016 02bc 05       		.byte	0x5
 1017 02bd 57       		.byte	0x57
 1018 02be C2020000 		.4byte	0x2c2
 1019 02c2 0B       		.uleb128 0xb
 1020 02c3 D9030000 		.4byte	.LASF55
 1021 02c7 1C       		.byte	0x1c
 1022 02c8 06       		.byte	0x6
 1023 02c9 9001     		.2byte	0x190
 1024 02cb 1E030000 		.4byte	0x31e
 1025 02cf 09       		.uleb128 0x9
 1026 02d0 DE050000 		.4byte	.LASF56
 1027 02d4 06       		.byte	0x6
 1028 02d5 9101     		.2byte	0x191
 1029 02d7 87020000 		.4byte	0x287
 1030 02db 00       		.byte	0
 1031 02dc 09       		.uleb128 0x9
 1032 02dd 69050000 		.4byte	.LASF57
 1033 02e1 06       		.byte	0x6
 1034 02e2 9201     		.2byte	0x192
 1035 02e4 FF000000 		.4byte	0xff
 1036 02e8 08       		.byte	0x8
 1037 02e9 09       		.uleb128 0x9
 1038 02ea B1040000 		.4byte	.LASF58
 1039 02ee 06       		.byte	0x6
 1040 02ef 9401     		.2byte	0x194
 1041 02f1 C6040000 		.4byte	0x4c6
 1042 02f5 0C       		.byte	0xc
 1043 02f6 09       		.uleb128 0x9
 1044 02f7 93020000 		.4byte	.LASF59
ARM GAS  /var/folders/c6/c789hm653lg9vtl73krp73tm0000gn/T//ccGpAURF.s 			page 45


 1045 02fb 06       		.byte	0x6
 1046 02fc 9701     		.2byte	0x197
 1047 02fe 5D020000 		.4byte	0x25d
 1048 0302 10       		.byte	0x10
 1049 0303 09       		.uleb128 0x9
 1050 0304 D2040000 		.4byte	.LASF60
 1051 0308 06       		.byte	0x6
 1052 0309 9801     		.2byte	0x198
 1053 030b 5D020000 		.4byte	0x25d
 1054 030f 14       		.byte	0x14
 1055 0310 09       		.uleb128 0x9
 1056 0311 C8040000 		.4byte	.LASF61
 1057 0315 06       		.byte	0x6
 1058 0316 9B01     		.2byte	0x19b
 1059 0318 5D020000 		.4byte	0x25d
 1060 031c 18       		.byte	0x18
 1061 031d 00       		.byte	0
 1062 031e 04       		.uleb128 0x4
 1063 031f 51060000 		.4byte	.LASF62
 1064 0323 05       		.byte	0x5
 1065 0324 5C       		.byte	0x5c
 1066 0325 29030000 		.4byte	0x329
 1067 0329 0A       		.uleb128 0xa
 1068 032a 04       		.byte	0x4
 1069 032b 2F030000 		.4byte	0x32f
 1070 032f 0C       		.uleb128 0xc
 1071 0330 3A030000 		.4byte	0x33a
 1072 0334 0D       		.uleb128 0xd
 1073 0335 3A030000 		.4byte	0x33a
 1074 0339 00       		.byte	0
 1075 033a 0E       		.uleb128 0xe
 1076 033b 04       		.byte	0x4
 1077 033c 04       		.uleb128 0x4
 1078 033d 02050000 		.4byte	.LASF63
 1079 0341 05       		.byte	0x5
 1080 0342 61       		.byte	0x61
 1081 0343 47030000 		.4byte	0x347
 1082 0347 0B       		.uleb128 0xb
 1083 0348 98050000 		.4byte	.LASF64
 1084 034c 14       		.byte	0x14
 1085 034d 06       		.byte	0x6
 1086 034e 6B01     		.2byte	0x16b
 1087 0350 96030000 		.4byte	0x396
 1088 0354 09       		.uleb128 0x9
 1089 0355 FA020000 		.4byte	.LASF65
 1090 0359 06       		.byte	0x6
 1091 035a 6C01     		.2byte	0x16c
 1092 035c 82070000 		.4byte	0x782
 1093 0360 00       		.byte	0
 1094 0361 09       		.uleb128 0x9
 1095 0362 A4020000 		.4byte	.LASF66
 1096 0366 06       		.byte	0x6
 1097 0367 6D01     		.2byte	0x16d
 1098 0369 82070000 		.4byte	0x782
 1099 036d 04       		.byte	0x4
 1100 036e 09       		.uleb128 0x9
 1101 036f E6050000 		.4byte	.LASF67
ARM GAS  /var/folders/c6/c789hm653lg9vtl73krp73tm0000gn/T//ccGpAURF.s 			page 46


 1102 0373 06       		.byte	0x6
 1103 0374 6E01     		.2byte	0x16e
 1104 0376 36010000 		.4byte	0x136
 1105 037a 08       		.byte	0x8
 1106 037b 09       		.uleb128 0x9
 1107 037c 6A070000 		.4byte	.LASF68
 1108 0380 06       		.byte	0x6
 1109 0381 6F01     		.2byte	0x16f
 1110 0383 1E030000 		.4byte	0x31e
 1111 0387 0C       		.byte	0xc
 1112 0388 09       		.uleb128 0x9
 1113 0389 A3060000 		.4byte	.LASF69
 1114 038d 06       		.byte	0x6
 1115 038e 7101     		.2byte	0x171
 1116 0390 3A030000 		.4byte	0x33a
 1117 0394 10       		.byte	0x10
 1118 0395 00       		.byte	0
 1119 0396 04       		.uleb128 0x4
 1120 0397 D2010000 		.4byte	.LASF70
 1121 039b 05       		.byte	0x5
 1122 039c 66       		.byte	0x66
 1123 039d A1030000 		.4byte	0x3a1
 1124 03a1 0B       		.uleb128 0xb
 1125 03a2 77040000 		.4byte	.LASF71
 1126 03a6 10       		.byte	0x10
 1127 03a7 06       		.byte	0x6
 1128 03a8 7B01     		.2byte	0x17b
 1129 03aa E3030000 		.4byte	0x3e3
 1130 03ae 09       		.uleb128 0x9
 1131 03af FA020000 		.4byte	.LASF65
 1132 03b3 06       		.byte	0x6
 1133 03b4 7C01     		.2byte	0x17c
 1134 03b6 82070000 		.4byte	0x782
 1135 03ba 00       		.byte	0
 1136 03bb 09       		.uleb128 0x9
 1137 03bc A4020000 		.4byte	.LASF66
 1138 03c0 06       		.byte	0x6
 1139 03c1 7E01     		.2byte	0x17e
 1140 03c3 82070000 		.4byte	0x782
 1141 03c7 04       		.byte	0x4
 1142 03c8 09       		.uleb128 0x9
 1143 03c9 E6050000 		.4byte	.LASF67
 1144 03cd 06       		.byte	0x6
 1145 03ce 8001     		.2byte	0x180
 1146 03d0 36010000 		.4byte	0x136
 1147 03d4 08       		.byte	0x8
 1148 03d5 09       		.uleb128 0x9
 1149 03d6 9D040000 		.4byte	.LASF72
 1150 03da 06       		.byte	0x6
 1151 03db 8801     		.2byte	0x188
 1152 03dd 36010000 		.4byte	0x136
 1153 03e1 0C       		.byte	0xc
 1154 03e2 00       		.byte	0
 1155 03e3 04       		.uleb128 0x4
 1156 03e4 46010000 		.4byte	.LASF73
 1157 03e8 05       		.byte	0x5
 1158 03e9 6B       		.byte	0x6b
ARM GAS  /var/folders/c6/c789hm653lg9vtl73krp73tm0000gn/T//ccGpAURF.s 			page 47


 1159 03ea EE030000 		.4byte	0x3ee
 1160 03ee 0F       		.uleb128 0xf
 1161 03ef AC020000 		.4byte	.LASF74
 1162 03f3 1404     		.2byte	0x414
 1163 03f5 06       		.byte	0x6
 1164 03f6 A201     		.2byte	0x1a2
 1165 03f8 31040000 		.4byte	0x431
 1166 03fc 09       		.uleb128 0x9
 1167 03fd 65060000 		.4byte	.LASF75
 1168 0401 06       		.byte	0x6
 1169 0402 AA01     		.2byte	0x1aa
 1170 0404 88070000 		.4byte	0x788
 1171 0408 00       		.byte	0
 1172 0409 09       		.uleb128 0x9
 1173 040a CA060000 		.4byte	.LASF76
 1174 040e 06       		.byte	0x6
 1175 040f AF01     		.2byte	0x1af
 1176 0411 20010000 		.4byte	0x120
 1177 0415 04       		.byte	0x4
 1178 0416 09       		.uleb128 0x9
 1179 0417 C4020000 		.4byte	.LASF77
 1180 041b 06       		.byte	0x6
 1181 041c B301     		.2byte	0x1b3
 1182 041e 20010000 		.4byte	0x120
 1183 0422 08       		.byte	0x8
 1184 0423 09       		.uleb128 0x9
 1185 0424 0B070000 		.4byte	.LASF78
 1186 0428 06       		.byte	0x6
 1187 0429 B901     		.2byte	0x1b9
 1188 042b E8050000 		.4byte	0x5e8
 1189 042f 0C       		.byte	0xc
 1190 0430 00       		.byte	0
 1191 0431 04       		.uleb128 0x4
 1192 0432 BA030000 		.4byte	.LASF79
 1193 0436 05       		.byte	0x5
 1194 0437 70       		.byte	0x70
 1195 0438 3C040000 		.4byte	0x43c
 1196 043c 0F       		.uleb128 0xf
 1197 043d 8E050000 		.4byte	.LASF80
 1198 0441 D805     		.2byte	0x5d8
 1199 0443 06       		.byte	0x6
 1200 0444 C201     		.2byte	0x1c2
 1201 0446 A9040000 		.4byte	0x4a9
 1202 044a 09       		.uleb128 0x9
 1203 044b D2060000 		.4byte	.LASF81
 1204 044f 06       		.byte	0x6
 1205 0450 C601     		.2byte	0x1c6
 1206 0452 B7020000 		.4byte	0x2b7
 1207 0456 00       		.byte	0
 1208 0457 09       		.uleb128 0x9
 1209 0458 31020000 		.4byte	.LASF82
 1210 045c 06       		.byte	0x6
 1211 045d CA01     		.2byte	0x1ca
 1212 045f 96030000 		.4byte	0x396
 1213 0463 1C       		.byte	0x1c
 1214 0464 08       		.uleb128 0x8
 1215 0465 64626700 		.ascii	"dbg\000"
ARM GAS  /var/folders/c6/c789hm653lg9vtl73krp73tm0000gn/T//ccGpAURF.s 			page 48


 1216 0469 06       		.byte	0x6
 1217 046a CE01     		.2byte	0x1ce
 1218 046c E3030000 		.4byte	0x3e3
 1219 0470 2C       		.byte	0x2c
 1220 0471 10       		.uleb128 0x10
 1221 0472 A9010000 		.4byte	.LASF83
 1222 0476 06       		.byte	0x6
 1223 0477 D201     		.2byte	0x1d2
 1224 0479 41010000 		.4byte	0x141
 1225 047d 4004     		.2byte	0x440
 1226 047f 11       		.uleb128 0x11
 1227 0480 746D00   		.ascii	"tm\000"
 1228 0483 06       		.byte	0x6
 1229 0484 D701     		.2byte	0x1d7
 1230 0486 08060000 		.4byte	0x608
 1231 048a A004     		.2byte	0x4a0
 1232 048c 10       		.uleb128 0x10
 1233 048d 12010000 		.4byte	.LASF84
 1234 0491 06       		.byte	0x6
 1235 0492 DD01     		.2byte	0x1dd
 1236 0494 9A060000 		.4byte	0x69a
 1237 0498 A804     		.2byte	0x4a8
 1238 049a 10       		.uleb128 0x10
 1239 049b CD020000 		.4byte	.LASF85
 1240 049f 06       		.byte	0x6
 1241 04a0 E301     		.2byte	0x1e3
 1242 04a2 8D070000 		.4byte	0x78d
 1243 04a6 E004     		.2byte	0x4e0
 1244 04a8 00       		.byte	0
 1245 04a9 03       		.uleb128 0x3
 1246 04aa 04       		.byte	0x4
 1247 04ab 07       		.byte	0x7
 1248 04ac 5B040000 		.4byte	.LASF86
 1249 04b0 04       		.uleb128 0x4
 1250 04b1 9B020000 		.4byte	.LASF87
 1251 04b5 07       		.byte	0x7
 1252 04b6 65       		.byte	0x65
 1253 04b7 3A030000 		.4byte	0x33a
 1254 04bb 04       		.uleb128 0x4
 1255 04bc 29040000 		.4byte	.LASF88
 1256 04c0 07       		.byte	0x7
 1257 04c1 6D       		.byte	0x6d
 1258 04c2 B8000000 		.4byte	0xb8
 1259 04c6 06       		.uleb128 0x6
 1260 04c7 93060000 		.4byte	.LASF89
 1261 04cb 04       		.byte	0x4
 1262 04cc 07       		.byte	0x7
 1263 04cd 89       		.byte	0x89
 1264 04ce DF040000 		.4byte	0x4df
 1265 04d2 12       		.uleb128 0x12
 1266 04d3 72313300 		.ascii	"r13\000"
 1267 04d7 07       		.byte	0x7
 1268 04d8 8A       		.byte	0x8a
 1269 04d9 5A050000 		.4byte	0x55a
 1270 04dd 00       		.byte	0
 1271 04de 00       		.byte	0
 1272 04df 06       		.uleb128 0x6
ARM GAS  /var/folders/c6/c789hm653lg9vtl73krp73tm0000gn/T//ccGpAURF.s 			page 49


 1273 04e0 29010000 		.4byte	.LASF90
 1274 04e4 24       		.byte	0x24
 1275 04e5 08       		.byte	0x8
 1276 04e6 F4       		.byte	0xf4
 1277 04e7 5A050000 		.4byte	0x55a
 1278 04eb 08       		.uleb128 0x8
 1279 04ec 723400   		.ascii	"r4\000"
 1280 04ef 08       		.byte	0x8
 1281 04f0 0701     		.2byte	0x107
 1282 04f2 B0040000 		.4byte	0x4b0
 1283 04f6 00       		.byte	0
 1284 04f7 08       		.uleb128 0x8
 1285 04f8 723500   		.ascii	"r5\000"
 1286 04fb 08       		.byte	0x8
 1287 04fc 0801     		.2byte	0x108
 1288 04fe B0040000 		.4byte	0x4b0
 1289 0502 04       		.byte	0x4
 1290 0503 08       		.uleb128 0x8
 1291 0504 723600   		.ascii	"r6\000"
 1292 0507 08       		.byte	0x8
 1293 0508 0901     		.2byte	0x109
 1294 050a B0040000 		.4byte	0x4b0
 1295 050e 08       		.byte	0x8
 1296 050f 08       		.uleb128 0x8
 1297 0510 723700   		.ascii	"r7\000"
 1298 0513 08       		.byte	0x8
 1299 0514 0A01     		.2byte	0x10a
 1300 0516 B0040000 		.4byte	0x4b0
 1301 051a 0C       		.byte	0xc
 1302 051b 08       		.uleb128 0x8
 1303 051c 723800   		.ascii	"r8\000"
 1304 051f 08       		.byte	0x8
 1305 0520 0B01     		.2byte	0x10b
 1306 0522 B0040000 		.4byte	0x4b0
 1307 0526 10       		.byte	0x10
 1308 0527 08       		.uleb128 0x8
 1309 0528 723900   		.ascii	"r9\000"
 1310 052b 08       		.byte	0x8
 1311 052c 0C01     		.2byte	0x10c
 1312 052e B0040000 		.4byte	0x4b0
 1313 0532 14       		.byte	0x14
 1314 0533 08       		.uleb128 0x8
 1315 0534 72313000 		.ascii	"r10\000"
 1316 0538 08       		.byte	0x8
 1317 0539 0D01     		.2byte	0x10d
 1318 053b B0040000 		.4byte	0x4b0
 1319 053f 18       		.byte	0x18
 1320 0540 08       		.uleb128 0x8
 1321 0541 72313100 		.ascii	"r11\000"
 1322 0545 08       		.byte	0x8
 1323 0546 0E01     		.2byte	0x10e
 1324 0548 B0040000 		.4byte	0x4b0
 1325 054c 1C       		.byte	0x1c
 1326 054d 08       		.uleb128 0x8
 1327 054e 6C7200   		.ascii	"lr\000"
 1328 0551 08       		.byte	0x8
 1329 0552 0F01     		.2byte	0x10f
ARM GAS  /var/folders/c6/c789hm653lg9vtl73krp73tm0000gn/T//ccGpAURF.s 			page 50


 1330 0554 B0040000 		.4byte	0x4b0
 1331 0558 20       		.byte	0x20
 1332 0559 00       		.byte	0
 1333 055a 0A       		.uleb128 0xa
 1334 055b 04       		.byte	0x4
 1335 055c DF040000 		.4byte	0x4df
 1336 0560 13       		.uleb128 0x13
 1337 0561 10       		.byte	0x10
 1338 0562 09       		.byte	0x9
 1339 0563 51       		.byte	0x51
 1340 0564 99050000 		.4byte	0x599
 1341 0568 07       		.uleb128 0x7
 1342 0569 F4000000 		.4byte	.LASF91
 1343 056d 09       		.byte	0x9
 1344 056e 55       		.byte	0x55
 1345 056f 36010000 		.4byte	0x136
 1346 0573 00       		.byte	0
 1347 0574 07       		.uleb128 0x7
 1348 0575 75020000 		.4byte	.LASF92
 1349 0579 09       		.byte	0x9
 1350 057a 59       		.byte	0x59
 1351 057b 5D020000 		.4byte	0x25d
 1352 057f 04       		.byte	0x4
 1353 0580 07       		.uleb128 0x7
 1354 0581 5A070000 		.4byte	.LASF93
 1355 0585 09       		.byte	0x9
 1356 0586 5D       		.byte	0x5d
 1357 0587 3A030000 		.4byte	0x33a
 1358 058b 08       		.byte	0x8
 1359 058c 07       		.uleb128 0x7
 1360 058d 97010000 		.4byte	.LASF94
 1361 0591 09       		.byte	0x9
 1362 0592 61       		.byte	0x61
 1363 0593 97000000 		.4byte	0x97
 1364 0597 0C       		.byte	0xc
 1365 0598 00       		.byte	0
 1366 0599 04       		.uleb128 0x4
 1367 059a 8E040000 		.4byte	.LASF95
 1368 059e 09       		.byte	0x9
 1369 059f 62       		.byte	0x62
 1370 05a0 60050000 		.4byte	0x560
 1371 05a4 14       		.uleb128 0x14
 1372 05a5 0804     		.2byte	0x408
 1373 05a7 09       		.byte	0x9
 1374 05a8 67       		.byte	0x67
 1375 05a9 D2050000 		.4byte	0x5d2
 1376 05ad 07       		.uleb128 0x7
 1377 05ae 8B020000 		.4byte	.LASF96
 1378 05b2 09       		.byte	0x9
 1379 05b3 6B       		.byte	0x6b
 1380 05b4 2C000000 		.4byte	0x2c
 1381 05b8 00       		.byte	0
 1382 05b9 07       		.uleb128 0x7
 1383 05ba E0000000 		.4byte	.LASF97
 1384 05be 09       		.byte	0x9
 1385 05bf 6F       		.byte	0x6f
 1386 05c0 D2050000 		.4byte	0x5d2
ARM GAS  /var/folders/c6/c789hm653lg9vtl73krp73tm0000gn/T//ccGpAURF.s 			page 51


 1387 05c4 04       		.byte	0x4
 1388 05c5 07       		.uleb128 0x7
 1389 05c6 F8040000 		.4byte	.LASF98
 1390 05ca 09       		.byte	0x9
 1391 05cb 73       		.byte	0x73
 1392 05cc D8050000 		.4byte	0x5d8
 1393 05d0 08       		.byte	0x8
 1394 05d1 00       		.byte	0
 1395 05d2 0A       		.uleb128 0xa
 1396 05d3 04       		.byte	0x4
 1397 05d4 99050000 		.4byte	0x599
 1398 05d8 15       		.uleb128 0x15
 1399 05d9 99050000 		.4byte	0x599
 1400 05dd E8050000 		.4byte	0x5e8
 1401 05e1 16       		.uleb128 0x16
 1402 05e2 A9040000 		.4byte	0x4a9
 1403 05e6 3F       		.byte	0x3f
 1404 05e7 00       		.byte	0
 1405 05e8 04       		.uleb128 0x4
 1406 05e9 85010000 		.4byte	.LASF99
 1407 05ed 09       		.byte	0x9
 1408 05ee 74       		.byte	0x74
 1409 05ef A4050000 		.4byte	0x5a4
 1410 05f3 13       		.uleb128 0x13
 1411 05f4 04       		.byte	0x4
 1412 05f5 0A       		.byte	0xa
 1413 05f6 38       		.byte	0x38
 1414 05f7 08060000 		.4byte	0x608
 1415 05fb 07       		.uleb128 0x7
 1416 05fc 8C060000 		.4byte	.LASF100
 1417 0600 0A       		.byte	0xa
 1418 0601 3C       		.byte	0x3c
 1419 0602 C8000000 		.4byte	0xc8
 1420 0606 00       		.byte	0
 1421 0607 00       		.byte	0
 1422 0608 04       		.uleb128 0x4
 1423 0609 B7040000 		.4byte	.LASF101
 1424 060d 0A       		.byte	0xa
 1425 060e 3D       		.byte	0x3d
 1426 060f F3050000 		.4byte	0x5f3
 1427 0613 13       		.uleb128 0x13
 1428 0614 18       		.byte	0x18
 1429 0615 0A       		.byte	0xa
 1430 0616 48       		.byte	0x48
 1431 0617 56060000 		.4byte	0x656
 1432 061b 07       		.uleb128 0x7
 1433 061c 30060000 		.4byte	.LASF102
 1434 0620 0A       		.byte	0xa
 1435 0621 49       		.byte	0x49
 1436 0622 C8000000 		.4byte	0xc8
 1437 0626 00       		.byte	0
 1438 0627 07       		.uleb128 0x7
 1439 0628 55010000 		.4byte	.LASF103
 1440 062c 0A       		.byte	0xa
 1441 062d 4A       		.byte	0x4a
 1442 062e C8000000 		.4byte	0xc8
 1443 0632 04       		.byte	0x4
ARM GAS  /var/folders/c6/c789hm653lg9vtl73krp73tm0000gn/T//ccGpAURF.s 			page 52


 1444 0633 07       		.uleb128 0x7
 1445 0634 AE030000 		.4byte	.LASF104
 1446 0638 0A       		.byte	0xa
 1447 0639 4B       		.byte	0x4b
 1448 063a C8000000 		.4byte	0xc8
 1449 063e 08       		.byte	0x8
 1450 063f 12       		.uleb128 0x12
 1451 0640 6E00     		.ascii	"n\000"
 1452 0642 0A       		.byte	0xa
 1453 0643 4C       		.byte	0x4c
 1454 0644 2B010000 		.4byte	0x12b
 1455 0648 0C       		.byte	0xc
 1456 0649 07       		.uleb128 0x7
 1457 064a E5040000 		.4byte	.LASF105
 1458 064e 0A       		.byte	0xa
 1459 064f 4D       		.byte	0x4d
 1460 0650 D3000000 		.4byte	0xd3
 1461 0654 10       		.byte	0x10
 1462 0655 00       		.byte	0
 1463 0656 04       		.uleb128 0x4
 1464 0657 5B010000 		.4byte	.LASF106
 1465 065b 0A       		.byte	0xa
 1466 065c 4E       		.byte	0x4e
 1467 065d 13060000 		.4byte	0x613
 1468 0661 13       		.uleb128 0x13
 1469 0662 38       		.byte	0x38
 1470 0663 0B       		.byte	0xb
 1471 0664 38       		.byte	0x38
 1472 0665 9A060000 		.4byte	0x69a
 1473 0669 07       		.uleb128 0x7
 1474 066a 14030000 		.4byte	.LASF107
 1475 066e 0B       		.byte	0xb
 1476 066f 39       		.byte	0x39
 1477 0670 2B010000 		.4byte	0x12b
 1478 0674 00       		.byte	0
 1479 0675 07       		.uleb128 0x7
 1480 0676 21050000 		.4byte	.LASF108
 1481 067a 0B       		.byte	0xb
 1482 067b 3A       		.byte	0x3a
 1483 067c 2B010000 		.4byte	0x12b
 1484 0680 04       		.byte	0x4
 1485 0681 07       		.uleb128 0x7
 1486 0682 47070000 		.4byte	.LASF109
 1487 0686 0B       		.byte	0xb
 1488 0687 3B       		.byte	0x3b
 1489 0688 56060000 		.4byte	0x656
 1490 068c 08       		.byte	0x8
 1491 068d 07       		.uleb128 0x7
 1492 068e CE030000 		.4byte	.LASF110
 1493 0692 0B       		.byte	0xb
 1494 0693 3D       		.byte	0x3d
 1495 0694 56060000 		.4byte	0x656
 1496 0698 20       		.byte	0x20
 1497 0699 00       		.byte	0
 1498 069a 04       		.uleb128 0x4
 1499 069b 8F030000 		.4byte	.LASF111
 1500 069f 0B       		.byte	0xb
ARM GAS  /var/folders/c6/c789hm653lg9vtl73krp73tm0000gn/T//ccGpAURF.s 			page 53


 1501 06a0 3F       		.byte	0x3f
 1502 06a1 61060000 		.4byte	0x661
 1503 06a5 17       		.uleb128 0x17
 1504 06a6 04       		.byte	0x4
 1505 06a7 06       		.byte	0x6
 1506 06a8 FA       		.byte	0xfa
 1507 06a9 02070000 		.4byte	0x702
 1508 06ad 18       		.uleb128 0x18
 1509 06ae 02010000 		.4byte	.LASF112
 1510 06b2 06       		.byte	0x6
 1511 06b3 0101     		.2byte	0x101
 1512 06b5 0A010000 		.4byte	0x10a
 1513 06b9 18       		.uleb128 0x18
 1514 06ba A0010000 		.4byte	.LASF113
 1515 06be 06       		.byte	0x6
 1516 06bf 0801     		.2byte	0x108
 1517 06c1 0A010000 		.4byte	0x10a
 1518 06c5 18       		.uleb128 0x18
 1519 06c6 EE060000 		.4byte	.LASF114
 1520 06ca 06       		.byte	0x6
 1521 06cb 0F01     		.2byte	0x10f
 1522 06cd 3A030000 		.4byte	0x33a
 1523 06d1 18       		.uleb128 0x18
 1524 06d2 FC000000 		.4byte	.LASF115
 1525 06d6 06       		.byte	0x6
 1526 06d7 1601     		.2byte	0x116
 1527 06d9 02070000 		.4byte	0x702
 1528 06dd 18       		.uleb128 0x18
 1529 06de 02030000 		.4byte	.LASF116
 1530 06e2 06       		.byte	0x6
 1531 06e3 1E01     		.2byte	0x11e
 1532 06e5 2D070000 		.4byte	0x72d
 1533 06e9 18       		.uleb128 0x18
 1534 06ea 20060000 		.4byte	.LASF117
 1535 06ee 06       		.byte	0x6
 1536 06ef 2701     		.2byte	0x127
 1537 06f1 64070000 		.4byte	0x764
 1538 06f5 18       		.uleb128 0x18
 1539 06f6 70050000 		.4byte	.LASF118
 1540 06fa 06       		.byte	0x6
 1541 06fb 2F01     		.2byte	0x12f
 1542 06fd 15010000 		.4byte	0x115
 1543 0701 00       		.byte	0
 1544 0702 0A       		.uleb128 0xa
 1545 0703 04       		.byte	0x4
 1546 0704 52020000 		.4byte	0x252
 1547 0708 06       		.uleb128 0x6
 1548 0709 A9050000 		.4byte	.LASF119
 1549 070d 0C       		.byte	0xc
 1550 070e 0C       		.byte	0xc
 1551 070f 34       		.byte	0x34
 1552 0710 2D070000 		.4byte	0x72d
 1553 0714 07       		.uleb128 0x7
 1554 0715 83020000 		.4byte	.LASF120
 1555 0719 0C       		.byte	0xc
 1556 071a 35       		.byte	0x35
 1557 071b 87020000 		.4byte	0x287
ARM GAS  /var/folders/c6/c789hm653lg9vtl73krp73tm0000gn/T//ccGpAURF.s 			page 54


 1558 071f 00       		.byte	0
 1559 0720 07       		.uleb128 0x7
 1560 0721 1A030000 		.4byte	.LASF121
 1561 0725 0C       		.byte	0xc
 1562 0726 37       		.byte	0x37
 1563 0727 20010000 		.4byte	0x120
 1564 072b 08       		.byte	0x8
 1565 072c 00       		.byte	0
 1566 072d 0A       		.uleb128 0xa
 1567 072e 04       		.byte	0x4
 1568 072f 08070000 		.4byte	0x708
 1569 0733 06       		.uleb128 0x6
 1570 0734 BA060000 		.4byte	.LASF122
 1571 0738 10       		.byte	0x10
 1572 0739 0D       		.byte	0xd
 1573 073a 39       		.byte	0x39
 1574 073b 64070000 		.4byte	0x764
 1575 073f 07       		.uleb128 0x7
 1576 0740 29020000 		.4byte	.LASF123
 1577 0744 0D       		.byte	0xd
 1578 0745 3A       		.byte	0x3a
 1579 0746 87020000 		.4byte	0x287
 1580 074a 00       		.byte	0
 1581 074b 07       		.uleb128 0x7
 1582 074c 52070000 		.4byte	.LASF124
 1583 0750 0D       		.byte	0xd
 1584 0751 3C       		.byte	0x3c
 1585 0752 5D020000 		.4byte	0x25d
 1586 0756 08       		.byte	0x8
 1587 0757 07       		.uleb128 0x7
 1588 0758 35060000 		.4byte	.LASF125
 1589 075c 0D       		.byte	0xd
 1590 075d 3E       		.byte	0x3e
 1591 075e A8070000 		.4byte	0x7a8
 1592 0762 0C       		.byte	0xc
 1593 0763 00       		.byte	0
 1594 0764 0A       		.uleb128 0xa
 1595 0765 04       		.byte	0x4
 1596 0766 33070000 		.4byte	0x733
 1597 076a 0A       		.uleb128 0xa
 1598 076b 04       		.byte	0x4
 1599 076c 70070000 		.4byte	0x770
 1600 0770 19       		.uleb128 0x19
 1601 0771 75070000 		.4byte	0x775
 1602 0775 03       		.uleb128 0x3
 1603 0776 01       		.byte	0x1
 1604 0777 08       		.byte	0x8
 1605 0778 11060000 		.4byte	.LASF126
 1606 077c 0A       		.uleb128 0xa
 1607 077d 04       		.byte	0x4
 1608 077e BB040000 		.4byte	0x4bb
 1609 0782 0A       		.uleb128 0xa
 1610 0783 04       		.byte	0x4
 1611 0784 3C030000 		.4byte	0x33c
 1612 0788 05       		.uleb128 0x5
 1613 0789 6A070000 		.4byte	0x76a
 1614 078d 15       		.uleb128 0x15
ARM GAS  /var/folders/c6/c789hm653lg9vtl73krp73tm0000gn/T//ccGpAURF.s 			page 55


 1615 078e BB040000 		.4byte	0x4bb
 1616 0792 9D070000 		.4byte	0x79d
 1617 0796 16       		.uleb128 0x16
 1618 0797 A9040000 		.4byte	0x4a9
 1619 079b 1E       		.byte	0x1e
 1620 079c 00       		.byte	0
 1621 079d 04       		.uleb128 0x4
 1622 079e BC020000 		.4byte	.LASF127
 1623 07a2 0D       		.byte	0xd
 1624 07a3 34       		.byte	0x34
 1625 07a4 33070000 		.4byte	0x733
 1626 07a8 0A       		.uleb128 0xa
 1627 07a9 04       		.byte	0x4
 1628 07aa 9D070000 		.4byte	0x79d
 1629 07ae 1A       		.uleb128 0x1a
 1630 07af 1E070000 		.4byte	.LASF128
 1631 07b3 01       		.byte	0x1
 1632 07b4 3E       		.byte	0x3e
 1633 07b5 00000000 		.4byte	.LFB229
 1634 07b9 28000000 		.4byte	.LFE229-.LFB229
 1635 07bd 01       		.uleb128 0x1
 1636 07be 9C       		.byte	0x9c
 1637 07bf E2070000 		.4byte	0x7e2
 1638 07c3 1B       		.uleb128 0x1b
 1639 07c4 16000000 		.4byte	.LVL0
 1640 07c8 D6080000 		.4byte	0x8d6
 1641 07cc D8070000 		.4byte	0x7d8
 1642 07d0 1C       		.uleb128 0x1c
 1643 07d1 01       		.uleb128 0x1
 1644 07d2 50       		.byte	0x50
 1645 07d3 03       		.uleb128 0x3
 1646 07d4 74       		.byte	0x74
 1647 07d5 B009     		.sleb128 1200
 1648 07d7 00       		.byte	0
 1649 07d8 1D       		.uleb128 0x1d
 1650 07d9 22000000 		.4byte	.LVL1
 1651 07dd D6080000 		.4byte	0x8d6
 1652 07e1 00       		.byte	0
 1653 07e2 1E       		.uleb128 0x1e
 1654 07e3 CA050000 		.4byte	.LASF141
 1655 07e7 01       		.byte	0x1
 1656 07e8 49       		.byte	0x49
 1657 07e9 00000000 		.4byte	.LFB230
 1658 07ed 14000000 		.4byte	.LFE230-.LFB230
 1659 07f1 01       		.uleb128 0x1
 1660 07f2 9C       		.byte	0x9c
 1661 07f3 1A       		.uleb128 0x1a
 1662 07f4 E0060000 		.4byte	.LASF129
 1663 07f8 01       		.byte	0x1
 1664 07f9 54       		.byte	0x54
 1665 07fa 00000000 		.4byte	.LFB231
 1666 07fe 24000000 		.4byte	.LFE231-.LFB231
 1667 0802 01       		.uleb128 0x1
 1668 0803 9C       		.byte	0x9c
 1669 0804 43080000 		.4byte	0x843
 1670 0808 1F       		.uleb128 0x1f
 1671 0809 6E747000 		.ascii	"ntp\000"
ARM GAS  /var/folders/c6/c789hm653lg9vtl73krp73tm0000gn/T//ccGpAURF.s 			page 56


 1672 080d 01       		.byte	0x1
 1673 080e 54       		.byte	0x54
 1674 080f 5D020000 		.4byte	0x25d
 1675 0813 00000000 		.4byte	.LLST0
 1676 0817 1F       		.uleb128 0x1f
 1677 0818 6F747000 		.ascii	"otp\000"
 1678 081c 01       		.byte	0x1
 1679 081d 54       		.byte	0x54
 1680 081e 5D020000 		.4byte	0x25d
 1681 0822 3D000000 		.4byte	.LLST1
 1682 0826 20       		.uleb128 0x20
 1683 0827 20000000 		.4byte	.LVL6
 1684 082b ED080000 		.4byte	0x8ed
 1685 082f 1C       		.uleb128 0x1c
 1686 0830 01       		.uleb128 0x1
 1687 0831 51       		.byte	0x51
 1688 0832 05       		.uleb128 0x5
 1689 0833 F3       		.byte	0xf3
 1690 0834 01       		.uleb128 0x1
 1691 0835 50       		.byte	0x50
 1692 0836 23       		.byte	0x23
 1693 0837 48       		.uleb128 0x48
 1694 0838 1C       		.uleb128 0x1c
 1695 0839 01       		.uleb128 0x1
 1696 083a 50       		.byte	0x50
 1697 083b 05       		.uleb128 0x5
 1698 083c F3       		.byte	0xf3
 1699 083d 01       		.uleb128 0x1
 1700 083e 51       		.byte	0x51
 1701 083f 23       		.byte	0x23
 1702 0840 48       		.uleb128 0x48
 1703 0841 00       		.byte	0
 1704 0842 00       		.byte	0
 1705 0843 1A       		.uleb128 0x1a
 1706 0844 B4010000 		.4byte	.LASF130
 1707 0848 01       		.byte	0x1
 1708 0849 5D       		.byte	0x5d
 1709 084a 00000000 		.4byte	.LFB232
 1710 084e 0C000000 		.4byte	.LFE232-.LFB232
 1711 0852 01       		.uleb128 0x1
 1712 0853 9C       		.byte	0x9c
 1713 0854 62080000 		.4byte	0x862
 1714 0858 1D       		.uleb128 0x1d
 1715 0859 06000000 		.4byte	.LVL7
 1716 085d 03090000 		.4byte	0x903
 1717 0861 00       		.byte	0
 1718 0862 1A       		.uleb128 0x1a
 1719 0863 3E040000 		.4byte	.LASF131
 1720 0867 01       		.byte	0x1
 1721 0868 65       		.byte	0x65
 1722 0869 00000000 		.4byte	.LFB233
 1723 086d 0C000000 		.4byte	.LFE233-.LFB233
 1724 0871 01       		.uleb128 0x1
 1725 0872 9C       		.byte	0x9c
 1726 0873 81080000 		.4byte	0x881
 1727 0877 1D       		.uleb128 0x1d
 1728 0878 06000000 		.4byte	.LVL8
ARM GAS  /var/folders/c6/c789hm653lg9vtl73krp73tm0000gn/T//ccGpAURF.s 			page 57


 1729 087c 14090000 		.4byte	0x914
 1730 0880 00       		.byte	0
 1731 0881 1A       		.uleb128 0x1a
 1732 0882 0B040000 		.4byte	.LASF132
 1733 0886 01       		.byte	0x1
 1734 0887 6D       		.byte	0x6d
 1735 0888 00000000 		.4byte	.LFB234
 1736 088c 0C000000 		.4byte	.LFE234-.LFB234
 1737 0890 01       		.uleb128 0x1
 1738 0891 9C       		.byte	0x9c
 1739 0892 A0080000 		.4byte	0x8a0
 1740 0896 1D       		.uleb128 0x1d
 1741 0897 06000000 		.4byte	.LVL9
 1742 089b 03090000 		.4byte	0x903
 1743 089f 00       		.byte	0
 1744 08a0 1A       		.uleb128 0x1a
 1745 08a1 2A070000 		.4byte	.LASF133
 1746 08a5 01       		.byte	0x1
 1747 08a6 75       		.byte	0x75
 1748 08a7 00000000 		.4byte	.LFB235
 1749 08ab 0C000000 		.4byte	.LFE235-.LFB235
 1750 08af 01       		.uleb128 0x1
 1751 08b0 9C       		.byte	0x9c
 1752 08b1 BF080000 		.4byte	0x8bf
 1753 08b5 1D       		.uleb128 0x1d
 1754 08b6 06000000 		.4byte	.LVL10
 1755 08ba 14090000 		.4byte	0x914
 1756 08be 00       		.byte	0
 1757 08bf 21       		.uleb128 0x21
 1758 08c0 40050000 		.4byte	.LASF134
 1759 08c4 0E       		.byte	0xe
 1760 08c5 A706     		.2byte	0x6a7
 1761 08c7 C3000000 		.4byte	0xc3
 1762 08cb 22       		.uleb128 0x22
 1763 08cc 636800   		.ascii	"ch\000"
 1764 08cf 06       		.byte	0x6
 1765 08d0 0902     		.2byte	0x209
 1766 08d2 31040000 		.4byte	0x431
 1767 08d6 23       		.uleb128 0x23
 1768 08d7 E8010000 		.4byte	.LASF135
 1769 08db 0A       		.byte	0xa
 1770 08dc 5C       		.byte	0x5c
 1771 08dd E7080000 		.4byte	0x8e7
 1772 08e1 0D       		.uleb128 0xd
 1773 08e2 E7080000 		.4byte	0x8e7
 1774 08e6 00       		.byte	0
 1775 08e7 0A       		.uleb128 0xa
 1776 08e8 04       		.byte	0x4
 1777 08e9 56060000 		.4byte	0x656
 1778 08ed 23       		.uleb128 0x23
 1779 08ee F3030000 		.4byte	.LASF136
 1780 08f2 0A       		.byte	0xa
 1781 08f3 5F       		.byte	0x5f
 1782 08f4 03090000 		.4byte	0x903
 1783 08f8 0D       		.uleb128 0xd
 1784 08f9 E7080000 		.4byte	0x8e7
 1785 08fd 0D       		.uleb128 0xd
ARM GAS  /var/folders/c6/c789hm653lg9vtl73krp73tm0000gn/T//ccGpAURF.s 			page 58


 1786 08fe E7080000 		.4byte	0x8e7
 1787 0902 00       		.byte	0
 1788 0903 23       		.uleb128 0x23
 1789 0904 38020000 		.4byte	.LASF137
 1790 0908 0A       		.byte	0xa
 1791 0909 5D       		.byte	0x5d
 1792 090a 14090000 		.4byte	0x914
 1793 090e 0D       		.uleb128 0xd
 1794 090f E7080000 		.4byte	0x8e7
 1795 0913 00       		.byte	0
 1796 0914 24       		.uleb128 0x24
 1797 0915 4E020000 		.4byte	.LASF142
 1798 0919 0A       		.byte	0xa
 1799 091a 5E       		.byte	0x5e
 1800 091b 0D       		.uleb128 0xd
 1801 091c E7080000 		.4byte	0x8e7
 1802 0920 00       		.byte	0
 1803 0921 00       		.byte	0
 1804              		.section	.debug_abbrev,"",%progbits
 1805              	.Ldebug_abbrev0:
 1806 0000 01       		.uleb128 0x1
 1807 0001 11       		.uleb128 0x11
 1808 0002 01       		.byte	0x1
 1809 0003 25       		.uleb128 0x25
 1810 0004 0E       		.uleb128 0xe
 1811 0005 13       		.uleb128 0x13
 1812 0006 0B       		.uleb128 0xb
 1813 0007 03       		.uleb128 0x3
 1814 0008 0E       		.uleb128 0xe
 1815 0009 1B       		.uleb128 0x1b
 1816 000a 0E       		.uleb128 0xe
 1817 000b 55       		.uleb128 0x55
 1818 000c 17       		.uleb128 0x17
 1819 000d 11       		.uleb128 0x11
 1820 000e 01       		.uleb128 0x1
 1821 000f 10       		.uleb128 0x10
 1822 0010 17       		.uleb128 0x17
 1823 0011 00       		.byte	0
 1824 0012 00       		.byte	0
 1825 0013 02       		.uleb128 0x2
 1826 0014 24       		.uleb128 0x24
 1827 0015 00       		.byte	0
 1828 0016 0B       		.uleb128 0xb
 1829 0017 0B       		.uleb128 0xb
 1830 0018 3E       		.uleb128 0x3e
 1831 0019 0B       		.uleb128 0xb
 1832 001a 03       		.uleb128 0x3
 1833 001b 08       		.uleb128 0x8
 1834 001c 00       		.byte	0
 1835 001d 00       		.byte	0
 1836 001e 03       		.uleb128 0x3
 1837 001f 24       		.uleb128 0x24
 1838 0020 00       		.byte	0
 1839 0021 0B       		.uleb128 0xb
 1840 0022 0B       		.uleb128 0xb
 1841 0023 3E       		.uleb128 0x3e
 1842 0024 0B       		.uleb128 0xb
ARM GAS  /var/folders/c6/c789hm653lg9vtl73krp73tm0000gn/T//ccGpAURF.s 			page 59


 1843 0025 03       		.uleb128 0x3
 1844 0026 0E       		.uleb128 0xe
 1845 0027 00       		.byte	0
 1846 0028 00       		.byte	0
 1847 0029 04       		.uleb128 0x4
 1848 002a 16       		.uleb128 0x16
 1849 002b 00       		.byte	0
 1850 002c 03       		.uleb128 0x3
 1851 002d 0E       		.uleb128 0xe
 1852 002e 3A       		.uleb128 0x3a
 1853 002f 0B       		.uleb128 0xb
 1854 0030 3B       		.uleb128 0x3b
 1855 0031 0B       		.uleb128 0xb
 1856 0032 49       		.uleb128 0x49
 1857 0033 13       		.uleb128 0x13
 1858 0034 00       		.byte	0
 1859 0035 00       		.byte	0
 1860 0036 05       		.uleb128 0x5
 1861 0037 35       		.uleb128 0x35
 1862 0038 00       		.byte	0
 1863 0039 49       		.uleb128 0x49
 1864 003a 13       		.uleb128 0x13
 1865 003b 00       		.byte	0
 1866 003c 00       		.byte	0
 1867 003d 06       		.uleb128 0x6
 1868 003e 13       		.uleb128 0x13
 1869 003f 01       		.byte	0x1
 1870 0040 03       		.uleb128 0x3
 1871 0041 0E       		.uleb128 0xe
 1872 0042 0B       		.uleb128 0xb
 1873 0043 0B       		.uleb128 0xb
 1874 0044 3A       		.uleb128 0x3a
 1875 0045 0B       		.uleb128 0xb
 1876 0046 3B       		.uleb128 0x3b
 1877 0047 0B       		.uleb128 0xb
 1878 0048 01       		.uleb128 0x1
 1879 0049 13       		.uleb128 0x13
 1880 004a 00       		.byte	0
 1881 004b 00       		.byte	0
 1882 004c 07       		.uleb128 0x7
 1883 004d 0D       		.uleb128 0xd
 1884 004e 00       		.byte	0
 1885 004f 03       		.uleb128 0x3
 1886 0050 0E       		.uleb128 0xe
 1887 0051 3A       		.uleb128 0x3a
 1888 0052 0B       		.uleb128 0xb
 1889 0053 3B       		.uleb128 0x3b
 1890 0054 0B       		.uleb128 0xb
 1891 0055 49       		.uleb128 0x49
 1892 0056 13       		.uleb128 0x13
 1893 0057 38       		.uleb128 0x38
 1894 0058 0B       		.uleb128 0xb
 1895 0059 00       		.byte	0
 1896 005a 00       		.byte	0
 1897 005b 08       		.uleb128 0x8
 1898 005c 0D       		.uleb128 0xd
 1899 005d 00       		.byte	0
ARM GAS  /var/folders/c6/c789hm653lg9vtl73krp73tm0000gn/T//ccGpAURF.s 			page 60


 1900 005e 03       		.uleb128 0x3
 1901 005f 08       		.uleb128 0x8
 1902 0060 3A       		.uleb128 0x3a
 1903 0061 0B       		.uleb128 0xb
 1904 0062 3B       		.uleb128 0x3b
 1905 0063 05       		.uleb128 0x5
 1906 0064 49       		.uleb128 0x49
 1907 0065 13       		.uleb128 0x13
 1908 0066 38       		.uleb128 0x38
 1909 0067 0B       		.uleb128 0xb
 1910 0068 00       		.byte	0
 1911 0069 00       		.byte	0
 1912 006a 09       		.uleb128 0x9
 1913 006b 0D       		.uleb128 0xd
 1914 006c 00       		.byte	0
 1915 006d 03       		.uleb128 0x3
 1916 006e 0E       		.uleb128 0xe
 1917 006f 3A       		.uleb128 0x3a
 1918 0070 0B       		.uleb128 0xb
 1919 0071 3B       		.uleb128 0x3b
 1920 0072 05       		.uleb128 0x5
 1921 0073 49       		.uleb128 0x49
 1922 0074 13       		.uleb128 0x13
 1923 0075 38       		.uleb128 0x38
 1924 0076 0B       		.uleb128 0xb
 1925 0077 00       		.byte	0
 1926 0078 00       		.byte	0
 1927 0079 0A       		.uleb128 0xa
 1928 007a 0F       		.uleb128 0xf
 1929 007b 00       		.byte	0
 1930 007c 0B       		.uleb128 0xb
 1931 007d 0B       		.uleb128 0xb
 1932 007e 49       		.uleb128 0x49
 1933 007f 13       		.uleb128 0x13
 1934 0080 00       		.byte	0
 1935 0081 00       		.byte	0
 1936 0082 0B       		.uleb128 0xb
 1937 0083 13       		.uleb128 0x13
 1938 0084 01       		.byte	0x1
 1939 0085 03       		.uleb128 0x3
 1940 0086 0E       		.uleb128 0xe
 1941 0087 0B       		.uleb128 0xb
 1942 0088 0B       		.uleb128 0xb
 1943 0089 3A       		.uleb128 0x3a
 1944 008a 0B       		.uleb128 0xb
 1945 008b 3B       		.uleb128 0x3b
 1946 008c 05       		.uleb128 0x5
 1947 008d 01       		.uleb128 0x1
 1948 008e 13       		.uleb128 0x13
 1949 008f 00       		.byte	0
 1950 0090 00       		.byte	0
 1951 0091 0C       		.uleb128 0xc
 1952 0092 15       		.uleb128 0x15
 1953 0093 01       		.byte	0x1
 1954 0094 27       		.uleb128 0x27
 1955 0095 19       		.uleb128 0x19
 1956 0096 01       		.uleb128 0x1
ARM GAS  /var/folders/c6/c789hm653lg9vtl73krp73tm0000gn/T//ccGpAURF.s 			page 61


 1957 0097 13       		.uleb128 0x13
 1958 0098 00       		.byte	0
 1959 0099 00       		.byte	0
 1960 009a 0D       		.uleb128 0xd
 1961 009b 05       		.uleb128 0x5
 1962 009c 00       		.byte	0
 1963 009d 49       		.uleb128 0x49
 1964 009e 13       		.uleb128 0x13
 1965 009f 00       		.byte	0
 1966 00a0 00       		.byte	0
 1967 00a1 0E       		.uleb128 0xe
 1968 00a2 0F       		.uleb128 0xf
 1969 00a3 00       		.byte	0
 1970 00a4 0B       		.uleb128 0xb
 1971 00a5 0B       		.uleb128 0xb
 1972 00a6 00       		.byte	0
 1973 00a7 00       		.byte	0
 1974 00a8 0F       		.uleb128 0xf
 1975 00a9 13       		.uleb128 0x13
 1976 00aa 01       		.byte	0x1
 1977 00ab 03       		.uleb128 0x3
 1978 00ac 0E       		.uleb128 0xe
 1979 00ad 0B       		.uleb128 0xb
 1980 00ae 05       		.uleb128 0x5
 1981 00af 3A       		.uleb128 0x3a
 1982 00b0 0B       		.uleb128 0xb
 1983 00b1 3B       		.uleb128 0x3b
 1984 00b2 05       		.uleb128 0x5
 1985 00b3 01       		.uleb128 0x1
 1986 00b4 13       		.uleb128 0x13
 1987 00b5 00       		.byte	0
 1988 00b6 00       		.byte	0
 1989 00b7 10       		.uleb128 0x10
 1990 00b8 0D       		.uleb128 0xd
 1991 00b9 00       		.byte	0
 1992 00ba 03       		.uleb128 0x3
 1993 00bb 0E       		.uleb128 0xe
 1994 00bc 3A       		.uleb128 0x3a
 1995 00bd 0B       		.uleb128 0xb
 1996 00be 3B       		.uleb128 0x3b
 1997 00bf 05       		.uleb128 0x5
 1998 00c0 49       		.uleb128 0x49
 1999 00c1 13       		.uleb128 0x13
 2000 00c2 38       		.uleb128 0x38
 2001 00c3 05       		.uleb128 0x5
 2002 00c4 00       		.byte	0
 2003 00c5 00       		.byte	0
 2004 00c6 11       		.uleb128 0x11
 2005 00c7 0D       		.uleb128 0xd
 2006 00c8 00       		.byte	0
 2007 00c9 03       		.uleb128 0x3
 2008 00ca 08       		.uleb128 0x8
 2009 00cb 3A       		.uleb128 0x3a
 2010 00cc 0B       		.uleb128 0xb
 2011 00cd 3B       		.uleb128 0x3b
 2012 00ce 05       		.uleb128 0x5
 2013 00cf 49       		.uleb128 0x49
ARM GAS  /var/folders/c6/c789hm653lg9vtl73krp73tm0000gn/T//ccGpAURF.s 			page 62


 2014 00d0 13       		.uleb128 0x13
 2015 00d1 38       		.uleb128 0x38
 2016 00d2 05       		.uleb128 0x5
 2017 00d3 00       		.byte	0
 2018 00d4 00       		.byte	0
 2019 00d5 12       		.uleb128 0x12
 2020 00d6 0D       		.uleb128 0xd
 2021 00d7 00       		.byte	0
 2022 00d8 03       		.uleb128 0x3
 2023 00d9 08       		.uleb128 0x8
 2024 00da 3A       		.uleb128 0x3a
 2025 00db 0B       		.uleb128 0xb
 2026 00dc 3B       		.uleb128 0x3b
 2027 00dd 0B       		.uleb128 0xb
 2028 00de 49       		.uleb128 0x49
 2029 00df 13       		.uleb128 0x13
 2030 00e0 38       		.uleb128 0x38
 2031 00e1 0B       		.uleb128 0xb
 2032 00e2 00       		.byte	0
 2033 00e3 00       		.byte	0
 2034 00e4 13       		.uleb128 0x13
 2035 00e5 13       		.uleb128 0x13
 2036 00e6 01       		.byte	0x1
 2037 00e7 0B       		.uleb128 0xb
 2038 00e8 0B       		.uleb128 0xb
 2039 00e9 3A       		.uleb128 0x3a
 2040 00ea 0B       		.uleb128 0xb
 2041 00eb 3B       		.uleb128 0x3b
 2042 00ec 0B       		.uleb128 0xb
 2043 00ed 01       		.uleb128 0x1
 2044 00ee 13       		.uleb128 0x13
 2045 00ef 00       		.byte	0
 2046 00f0 00       		.byte	0
 2047 00f1 14       		.uleb128 0x14
 2048 00f2 13       		.uleb128 0x13
 2049 00f3 01       		.byte	0x1
 2050 00f4 0B       		.uleb128 0xb
 2051 00f5 05       		.uleb128 0x5
 2052 00f6 3A       		.uleb128 0x3a
 2053 00f7 0B       		.uleb128 0xb
 2054 00f8 3B       		.uleb128 0x3b
 2055 00f9 0B       		.uleb128 0xb
 2056 00fa 01       		.uleb128 0x1
 2057 00fb 13       		.uleb128 0x13
 2058 00fc 00       		.byte	0
 2059 00fd 00       		.byte	0
 2060 00fe 15       		.uleb128 0x15
 2061 00ff 01       		.uleb128 0x1
 2062 0100 01       		.byte	0x1
 2063 0101 49       		.uleb128 0x49
 2064 0102 13       		.uleb128 0x13
 2065 0103 01       		.uleb128 0x1
 2066 0104 13       		.uleb128 0x13
 2067 0105 00       		.byte	0
 2068 0106 00       		.byte	0
 2069 0107 16       		.uleb128 0x16
 2070 0108 21       		.uleb128 0x21
ARM GAS  /var/folders/c6/c789hm653lg9vtl73krp73tm0000gn/T//ccGpAURF.s 			page 63


 2071 0109 00       		.byte	0
 2072 010a 49       		.uleb128 0x49
 2073 010b 13       		.uleb128 0x13
 2074 010c 2F       		.uleb128 0x2f
 2075 010d 0B       		.uleb128 0xb
 2076 010e 00       		.byte	0
 2077 010f 00       		.byte	0
 2078 0110 17       		.uleb128 0x17
 2079 0111 17       		.uleb128 0x17
 2080 0112 01       		.byte	0x1
 2081 0113 0B       		.uleb128 0xb
 2082 0114 0B       		.uleb128 0xb
 2083 0115 3A       		.uleb128 0x3a
 2084 0116 0B       		.uleb128 0xb
 2085 0117 3B       		.uleb128 0x3b
 2086 0118 0B       		.uleb128 0xb
 2087 0119 01       		.uleb128 0x1
 2088 011a 13       		.uleb128 0x13
 2089 011b 00       		.byte	0
 2090 011c 00       		.byte	0
 2091 011d 18       		.uleb128 0x18
 2092 011e 0D       		.uleb128 0xd
 2093 011f 00       		.byte	0
 2094 0120 03       		.uleb128 0x3
 2095 0121 0E       		.uleb128 0xe
 2096 0122 3A       		.uleb128 0x3a
 2097 0123 0B       		.uleb128 0xb
 2098 0124 3B       		.uleb128 0x3b
 2099 0125 05       		.uleb128 0x5
 2100 0126 49       		.uleb128 0x49
 2101 0127 13       		.uleb128 0x13
 2102 0128 00       		.byte	0
 2103 0129 00       		.byte	0
 2104 012a 19       		.uleb128 0x19
 2105 012b 26       		.uleb128 0x26
 2106 012c 00       		.byte	0
 2107 012d 49       		.uleb128 0x49
 2108 012e 13       		.uleb128 0x13
 2109 012f 00       		.byte	0
 2110 0130 00       		.byte	0
 2111 0131 1A       		.uleb128 0x1a
 2112 0132 2E       		.uleb128 0x2e
 2113 0133 01       		.byte	0x1
 2114 0134 3F       		.uleb128 0x3f
 2115 0135 19       		.uleb128 0x19
 2116 0136 03       		.uleb128 0x3
 2117 0137 0E       		.uleb128 0xe
 2118 0138 3A       		.uleb128 0x3a
 2119 0139 0B       		.uleb128 0xb
 2120 013a 3B       		.uleb128 0x3b
 2121 013b 0B       		.uleb128 0xb
 2122 013c 27       		.uleb128 0x27
 2123 013d 19       		.uleb128 0x19
 2124 013e 11       		.uleb128 0x11
 2125 013f 01       		.uleb128 0x1
 2126 0140 12       		.uleb128 0x12
 2127 0141 06       		.uleb128 0x6
ARM GAS  /var/folders/c6/c789hm653lg9vtl73krp73tm0000gn/T//ccGpAURF.s 			page 64


 2128 0142 40       		.uleb128 0x40
 2129 0143 18       		.uleb128 0x18
 2130 0144 9742     		.uleb128 0x2117
 2131 0146 19       		.uleb128 0x19
 2132 0147 01       		.uleb128 0x1
 2133 0148 13       		.uleb128 0x13
 2134 0149 00       		.byte	0
 2135 014a 00       		.byte	0
 2136 014b 1B       		.uleb128 0x1b
 2137 014c 898201   		.uleb128 0x4109
 2138 014f 01       		.byte	0x1
 2139 0150 11       		.uleb128 0x11
 2140 0151 01       		.uleb128 0x1
 2141 0152 31       		.uleb128 0x31
 2142 0153 13       		.uleb128 0x13
 2143 0154 01       		.uleb128 0x1
 2144 0155 13       		.uleb128 0x13
 2145 0156 00       		.byte	0
 2146 0157 00       		.byte	0
 2147 0158 1C       		.uleb128 0x1c
 2148 0159 8A8201   		.uleb128 0x410a
 2149 015c 00       		.byte	0
 2150 015d 02       		.uleb128 0x2
 2151 015e 18       		.uleb128 0x18
 2152 015f 9142     		.uleb128 0x2111
 2153 0161 18       		.uleb128 0x18
 2154 0162 00       		.byte	0
 2155 0163 00       		.byte	0
 2156 0164 1D       		.uleb128 0x1d
 2157 0165 898201   		.uleb128 0x4109
 2158 0168 00       		.byte	0
 2159 0169 11       		.uleb128 0x11
 2160 016a 01       		.uleb128 0x1
 2161 016b 9542     		.uleb128 0x2115
 2162 016d 19       		.uleb128 0x19
 2163 016e 31       		.uleb128 0x31
 2164 016f 13       		.uleb128 0x13
 2165 0170 00       		.byte	0
 2166 0171 00       		.byte	0
 2167 0172 1E       		.uleb128 0x1e
 2168 0173 2E       		.uleb128 0x2e
 2169 0174 00       		.byte	0
 2170 0175 3F       		.uleb128 0x3f
 2171 0176 19       		.uleb128 0x19
 2172 0177 03       		.uleb128 0x3
 2173 0178 0E       		.uleb128 0xe
 2174 0179 3A       		.uleb128 0x3a
 2175 017a 0B       		.uleb128 0xb
 2176 017b 3B       		.uleb128 0x3b
 2177 017c 0B       		.uleb128 0xb
 2178 017d 27       		.uleb128 0x27
 2179 017e 19       		.uleb128 0x19
 2180 017f 11       		.uleb128 0x11
 2181 0180 01       		.uleb128 0x1
 2182 0181 12       		.uleb128 0x12
 2183 0182 06       		.uleb128 0x6
 2184 0183 40       		.uleb128 0x40
ARM GAS  /var/folders/c6/c789hm653lg9vtl73krp73tm0000gn/T//ccGpAURF.s 			page 65


 2185 0184 18       		.uleb128 0x18
 2186 0185 9742     		.uleb128 0x2117
 2187 0187 19       		.uleb128 0x19
 2188 0188 00       		.byte	0
 2189 0189 00       		.byte	0
 2190 018a 1F       		.uleb128 0x1f
 2191 018b 05       		.uleb128 0x5
 2192 018c 00       		.byte	0
 2193 018d 03       		.uleb128 0x3
 2194 018e 08       		.uleb128 0x8
 2195 018f 3A       		.uleb128 0x3a
 2196 0190 0B       		.uleb128 0xb
 2197 0191 3B       		.uleb128 0x3b
 2198 0192 0B       		.uleb128 0xb
 2199 0193 49       		.uleb128 0x49
 2200 0194 13       		.uleb128 0x13
 2201 0195 02       		.uleb128 0x2
 2202 0196 17       		.uleb128 0x17
 2203 0197 00       		.byte	0
 2204 0198 00       		.byte	0
 2205 0199 20       		.uleb128 0x20
 2206 019a 898201   		.uleb128 0x4109
 2207 019d 01       		.byte	0x1
 2208 019e 11       		.uleb128 0x11
 2209 019f 01       		.uleb128 0x1
 2210 01a0 9542     		.uleb128 0x2115
 2211 01a2 19       		.uleb128 0x19
 2212 01a3 31       		.uleb128 0x31
 2213 01a4 13       		.uleb128 0x13
 2214 01a5 00       		.byte	0
 2215 01a6 00       		.byte	0
 2216 01a7 21       		.uleb128 0x21
 2217 01a8 34       		.uleb128 0x34
 2218 01a9 00       		.byte	0
 2219 01aa 03       		.uleb128 0x3
 2220 01ab 0E       		.uleb128 0xe
 2221 01ac 3A       		.uleb128 0x3a
 2222 01ad 0B       		.uleb128 0xb
 2223 01ae 3B       		.uleb128 0x3b
 2224 01af 05       		.uleb128 0x5
 2225 01b0 49       		.uleb128 0x49
 2226 01b1 13       		.uleb128 0x13
 2227 01b2 3F       		.uleb128 0x3f
 2228 01b3 19       		.uleb128 0x19
 2229 01b4 3C       		.uleb128 0x3c
 2230 01b5 19       		.uleb128 0x19
 2231 01b6 00       		.byte	0
 2232 01b7 00       		.byte	0
 2233 01b8 22       		.uleb128 0x22
 2234 01b9 34       		.uleb128 0x34
 2235 01ba 00       		.byte	0
 2236 01bb 03       		.uleb128 0x3
 2237 01bc 08       		.uleb128 0x8
 2238 01bd 3A       		.uleb128 0x3a
 2239 01be 0B       		.uleb128 0xb
 2240 01bf 3B       		.uleb128 0x3b
 2241 01c0 05       		.uleb128 0x5
ARM GAS  /var/folders/c6/c789hm653lg9vtl73krp73tm0000gn/T//ccGpAURF.s 			page 66


 2242 01c1 49       		.uleb128 0x49
 2243 01c2 13       		.uleb128 0x13
 2244 01c3 3F       		.uleb128 0x3f
 2245 01c4 19       		.uleb128 0x19
 2246 01c5 3C       		.uleb128 0x3c
 2247 01c6 19       		.uleb128 0x19
 2248 01c7 00       		.byte	0
 2249 01c8 00       		.byte	0
 2250 01c9 23       		.uleb128 0x23
 2251 01ca 2E       		.uleb128 0x2e
 2252 01cb 01       		.byte	0x1
 2253 01cc 3F       		.uleb128 0x3f
 2254 01cd 19       		.uleb128 0x19
 2255 01ce 03       		.uleb128 0x3
 2256 01cf 0E       		.uleb128 0xe
 2257 01d0 3A       		.uleb128 0x3a
 2258 01d1 0B       		.uleb128 0xb
 2259 01d2 3B       		.uleb128 0x3b
 2260 01d3 0B       		.uleb128 0xb
 2261 01d4 27       		.uleb128 0x27
 2262 01d5 19       		.uleb128 0x19
 2263 01d6 3C       		.uleb128 0x3c
 2264 01d7 19       		.uleb128 0x19
 2265 01d8 01       		.uleb128 0x1
 2266 01d9 13       		.uleb128 0x13
 2267 01da 00       		.byte	0
 2268 01db 00       		.byte	0
 2269 01dc 24       		.uleb128 0x24
 2270 01dd 2E       		.uleb128 0x2e
 2271 01de 01       		.byte	0x1
 2272 01df 3F       		.uleb128 0x3f
 2273 01e0 19       		.uleb128 0x19
 2274 01e1 03       		.uleb128 0x3
 2275 01e2 0E       		.uleb128 0xe
 2276 01e3 3A       		.uleb128 0x3a
 2277 01e4 0B       		.uleb128 0xb
 2278 01e5 3B       		.uleb128 0x3b
 2279 01e6 0B       		.uleb128 0xb
 2280 01e7 27       		.uleb128 0x27
 2281 01e8 19       		.uleb128 0x19
 2282 01e9 3C       		.uleb128 0x3c
 2283 01ea 19       		.uleb128 0x19
 2284 01eb 00       		.byte	0
 2285 01ec 00       		.byte	0
 2286 01ed 00       		.byte	0
 2287              		.section	.debug_loc,"",%progbits
 2288              	.Ldebug_loc0:
 2289              	.LLST0:
 2290 0000 00000000 		.4byte	.LVL2
 2291 0004 12000000 		.4byte	.LVL3
 2292 0008 0100     		.2byte	0x1
 2293 000a 50       		.byte	0x50
 2294 000b 12000000 		.4byte	.LVL3
 2295 000f 18000000 		.4byte	.LVL5
 2296 0013 0400     		.2byte	0x4
 2297 0015 74       		.byte	0x74
 2298 0016 B87F     		.sleb128 -72
ARM GAS  /var/folders/c6/c789hm653lg9vtl73krp73tm0000gn/T//ccGpAURF.s 			page 67


 2299 0018 9F       		.byte	0x9f
 2300 0019 18000000 		.4byte	.LVL5
 2301 001d 1F000000 		.4byte	.LVL6-1
 2302 0021 0400     		.2byte	0x4
 2303 0023 71       		.byte	0x71
 2304 0024 B87F     		.sleb128 -72
 2305 0026 9F       		.byte	0x9f
 2306 0027 1F000000 		.4byte	.LVL6-1
 2307 002b 24000000 		.4byte	.LFE231
 2308 002f 0400     		.2byte	0x4
 2309 0031 F3       		.byte	0xf3
 2310 0032 01       		.uleb128 0x1
 2311 0033 50       		.byte	0x50
 2312 0034 9F       		.byte	0x9f
 2313 0035 00000000 		.4byte	0
 2314 0039 00000000 		.4byte	0
 2315              	.LLST1:
 2316 003d 00000000 		.4byte	.LVL2
 2317 0041 14000000 		.4byte	.LVL4
 2318 0045 0100     		.2byte	0x1
 2319 0047 51       		.byte	0x51
 2320 0048 14000000 		.4byte	.LVL4
 2321 004c 1F000000 		.4byte	.LVL6-1
 2322 0050 0400     		.2byte	0x4
 2323 0052 70       		.byte	0x70
 2324 0053 B87F     		.sleb128 -72
 2325 0055 9F       		.byte	0x9f
 2326 0056 1F000000 		.4byte	.LVL6-1
 2327 005a 24000000 		.4byte	.LFE231
 2328 005e 0400     		.2byte	0x4
 2329 0060 F3       		.byte	0xf3
 2330 0061 01       		.uleb128 0x1
 2331 0062 51       		.byte	0x51
 2332 0063 9F       		.byte	0x9f
 2333 0064 00000000 		.4byte	0
 2334 0068 00000000 		.4byte	0
 2335              		.section	.debug_aranges,"",%progbits
 2336 0000 4C000000 		.4byte	0x4c
 2337 0004 0200     		.2byte	0x2
 2338 0006 00000000 		.4byte	.Ldebug_info0
 2339 000a 04       		.byte	0x4
 2340 000b 00       		.byte	0
 2341 000c 0000     		.2byte	0
 2342 000e 0000     		.2byte	0
 2343 0010 00000000 		.4byte	.LFB229
 2344 0014 28000000 		.4byte	.LFE229-.LFB229
 2345 0018 00000000 		.4byte	.LFB230
 2346 001c 14000000 		.4byte	.LFE230-.LFB230
 2347 0020 00000000 		.4byte	.LFB231
 2348 0024 24000000 		.4byte	.LFE231-.LFB231
 2349 0028 00000000 		.4byte	.LFB232
 2350 002c 0C000000 		.4byte	.LFE232-.LFB232
 2351 0030 00000000 		.4byte	.LFB233
 2352 0034 0C000000 		.4byte	.LFE233-.LFB233
 2353 0038 00000000 		.4byte	.LFB234
 2354 003c 0C000000 		.4byte	.LFE234-.LFB234
 2355 0040 00000000 		.4byte	.LFB235
ARM GAS  /var/folders/c6/c789hm653lg9vtl73krp73tm0000gn/T//ccGpAURF.s 			page 68


 2356 0044 0C000000 		.4byte	.LFE235-.LFB235
 2357 0048 00000000 		.4byte	0
 2358 004c 00000000 		.4byte	0
 2359              		.section	.debug_ranges,"",%progbits
 2360              	.Ldebug_ranges0:
 2361 0000 00000000 		.4byte	.LFB229
 2362 0004 28000000 		.4byte	.LFE229
 2363 0008 00000000 		.4byte	.LFB230
 2364 000c 14000000 		.4byte	.LFE230
 2365 0010 00000000 		.4byte	.LFB231
 2366 0014 24000000 		.4byte	.LFE231
 2367 0018 00000000 		.4byte	.LFB232
 2368 001c 0C000000 		.4byte	.LFE232
 2369 0020 00000000 		.4byte	.LFB233
 2370 0024 0C000000 		.4byte	.LFE233
 2371 0028 00000000 		.4byte	.LFB234
 2372 002c 0C000000 		.4byte	.LFE234
 2373 0030 00000000 		.4byte	.LFB235
 2374 0034 0C000000 		.4byte	.LFE235
 2375 0038 00000000 		.4byte	0
 2376 003c 00000000 		.4byte	0
 2377              		.section	.debug_line,"",%progbits
 2378              	.Ldebug_line0:
 2379 0000 73020000 		.section	.debug_str,"MS",%progbits,1
 2379      0200E901 
 2379      00000201 
 2379      FB0E0D00 
 2379      01010101 
 2380              	.LASF138:
 2381 0000 474E5520 		.ascii	"GNU C 4.8.4 20140725 (release) [ARM/embedded-4_8-br"
 2381      4320342E 
 2381      382E3420 
 2381      32303134 
 2381      30373235 
 2382 0033 616E6368 		.ascii	"anch revision 213147] -mcpu=cortex-m4 -mno-thumb-in"
 2382      20726576 
 2382      6973696F 
 2382      6E203231 
 2382      33313437 
 2383 0066 74657277 		.ascii	"terwork -mthumb -ggdb -O2 -fomit-frame-pointer -fal"
 2383      6F726B20 
 2383      2D6D7468 
 2383      756D6220 
 2383      2D676764 
 2384 0099 69676E2D 		.ascii	"ign-functions=16 -ffunction-sections -fdata-section"
 2384      66756E63 
 2384      74696F6E 
 2384      733D3136 
 2384      202D6666 
 2385 00cc 73202D66 		.ascii	"s -fno-common -flto\000"
 2385      6E6F2D63 
 2385      6F6D6D6F 
 2385      6E202D66 
 2385      6C746F00 
 2386              	.LASF97:
 2387 00e0 74625F70 		.ascii	"tb_ptr\000"
 2387      747200
ARM GAS  /var/folders/c6/c789hm653lg9vtl73krp73tm0000gn/T//ccGpAURF.s 			page 69


 2388              	.LASF54:
 2389 00e7 72656164 		.ascii	"ready_list_t\000"
 2389      795F6C69 
 2389      73745F74 
 2389      00
 2390              	.LASF91:
 2391 00f4 73655F74 		.ascii	"se_time\000"
 2391      696D6500 
 2392              	.LASF115:
 2393 00fc 77747472 		.ascii	"wttrp\000"
 2393      7000
 2394              	.LASF112:
 2395 0102 7264796D 		.ascii	"rdymsg\000"
 2395      736700
 2396              	.LASF16:
 2397 0109 75696E74 		.ascii	"uint64_t\000"
 2397      36345F74 
 2397      00
 2398              	.LASF84:
 2399 0112 6B65726E 		.ascii	"kernel_stats\000"
 2399      656C5F73 
 2399      74617473 
 2399      00
 2400              	.LASF5:
 2401 011f 5F5F7569 		.ascii	"__uint8_t\000"
 2401      6E74385F 
 2401      7400
 2402              	.LASF90:
 2403 0129 706F7274 		.ascii	"port_intctx\000"
 2403      5F696E74 
 2403      63747800 
 2404              	.LASF53:
 2405 0135 63685F74 		.ascii	"ch_threads_queue\000"
 2405      68726561 
 2405      64735F71 
 2405      75657565 
 2405      00
 2406              	.LASF73:
 2407 0146 73797374 		.ascii	"system_debug_t\000"
 2407      656D5F64 
 2407      65627567 
 2407      5F7400
 2408              	.LASF103:
 2409 0155 776F7273 		.ascii	"worst\000"
 2409      7400
 2410              	.LASF106:
 2411 015b 74696D65 		.ascii	"time_measurement_t\000"
 2411      5F6D6561 
 2411      73757265 
 2411      6D656E74 
 2411      5F7400
 2412              	.LASF12:
 2413 016e 6C6F6E67 		.ascii	"long long unsigned int\000"
 2413      206C6F6E 
 2413      6720756E 
 2413      7369676E 
 2413      65642069 
ARM GAS  /var/folders/c6/c789hm653lg9vtl73krp73tm0000gn/T//ccGpAURF.s 			page 70


 2414              	.LASF99:
 2415 0185 63685F74 		.ascii	"ch_trace_buffer_t\000"
 2415      72616365 
 2415      5F627566 
 2415      6665725F 
 2415      7400
 2416              	.LASF94:
 2417 0197 73655F73 		.ascii	"se_state\000"
 2417      74617465 
 2417      00
 2418              	.LASF113:
 2419 01a0 65786974 		.ascii	"exitcode\000"
 2419      636F6465 
 2419      00
 2420              	.LASF83:
 2421 01a9 6D61696E 		.ascii	"mainthread\000"
 2421      74687265 
 2421      616400
 2422              	.LASF130:
 2423 01b4 5F737461 		.ascii	"_stats_start_measure_crit_thd\000"
 2423      74735F73 
 2423      74617274 
 2423      5F6D6561 
 2423      73757265 
 2424              	.LASF70:
 2425 01d2 76697274 		.ascii	"virtual_timers_list_t\000"
 2425      75616C5F 
 2425      74696D65 
 2425      72735F6C 
 2425      6973745F 
 2426              	.LASF135:
 2427 01e8 6368544D 		.ascii	"chTMObjectInit\000"
 2427      4F626A65 
 2427      6374496E 
 2427      697400
 2428              	.LASF18:
 2429 01f7 72747469 		.ascii	"rttime_t\000"
 2429      6D655F74 
 2429      00
 2430              	.LASF31:
 2431 0200 705F7072 		.ascii	"p_prio\000"
 2431      696F00
 2432              	.LASF10:
 2433 0207 6C6F6E67 		.ascii	"long long int\000"
 2433      206C6F6E 
 2433      6720696E 
 2433      7400
 2434              	.LASF1:
 2435 0215 7369676E 		.ascii	"signed char\000"
 2435      65642063 
 2435      68617200 
 2436              	.LASF46:
 2437 0221 705F6D70 		.ascii	"p_mpool\000"
 2437      6F6F6C00 
 2438              	.LASF123:
 2439 0229 6D5F7175 		.ascii	"m_queue\000"
 2439      65756500 
ARM GAS  /var/folders/c6/c789hm653lg9vtl73krp73tm0000gn/T//ccGpAURF.s 			page 71


 2440              	.LASF82:
 2441 0231 76746C69 		.ascii	"vtlist\000"
 2441      737400
 2442              	.LASF137:
 2443 0238 6368544D 		.ascii	"chTMStartMeasurementX\000"
 2443      53746172 
 2443      744D6561 
 2443      73757265 
 2443      6D656E74 
 2444              	.LASF142:
 2445 024e 6368544D 		.ascii	"chTMStopMeasurementX\000"
 2445      53746F70 
 2445      4D656173 
 2445      7572656D 
 2445      656E7458 
 2446              	.LASF7:
 2447 0263 6C6F6E67 		.ascii	"long int\000"
 2447      20696E74 
 2447      00
 2448              	.LASF20:
 2449 026c 74737461 		.ascii	"tstate_t\000"
 2449      74655F74 
 2449      00
 2450              	.LASF92:
 2451 0275 73655F74 		.ascii	"se_tp\000"
 2451      7000
 2452              	.LASF33:
 2453 027b 705F6E65 		.ascii	"p_newer\000"
 2453      77657200 
 2454              	.LASF120:
 2455 0283 735F7175 		.ascii	"s_queue\000"
 2455      65756500 
 2456              	.LASF96:
 2457 028b 74625F73 		.ascii	"tb_size\000"
 2457      697A6500 
 2458              	.LASF59:
 2459 0293 725F6E65 		.ascii	"r_newer\000"
 2459      77657200 
 2460              	.LASF87:
 2461 029b 72656761 		.ascii	"regarm_t\000"
 2461      726D5F74 
 2461      00
 2462              	.LASF66:
 2463 02a4 76745F70 		.ascii	"vt_prev\000"
 2463      72657600 
 2464              	.LASF74:
 2465 02ac 63685F73 		.ascii	"ch_system_debug\000"
 2465      79737465 
 2465      6D5F6465 
 2465      62756700 
 2466              	.LASF127:
 2467 02bc 6D757465 		.ascii	"mutex_t\000"
 2467      785F7400 
 2468              	.LASF77:
 2469 02c4 6C6F636B 		.ascii	"lock_cnt\000"
 2469      5F636E74 
 2469      00
ARM GAS  /var/folders/c6/c789hm653lg9vtl73krp73tm0000gn/T//ccGpAURF.s 			page 72


 2470              	.LASF85:
 2471 02cd 69646C65 		.ascii	"idle_thread_wa\000"
 2471      5F746872 
 2471      6561645F 
 2471      776100
 2472              	.LASF25:
 2473 02dc 636E745F 		.ascii	"cnt_t\000"
 2473      7400
 2474              	.LASF36:
 2475 02e2 705F7374 		.ascii	"p_stklimit\000"
 2475      6B6C696D 
 2475      697400
 2476              	.LASF0:
 2477 02ed 756E7369 		.ascii	"unsigned int\000"
 2477      676E6564 
 2477      20696E74 
 2477      00
 2478              	.LASF65:
 2479 02fa 76745F6E 		.ascii	"vt_next\000"
 2479      65787400 
 2480              	.LASF116:
 2481 0302 77747365 		.ascii	"wtsemp\000"
 2481      6D7000
 2482              	.LASF41:
 2483 0309 705F6D73 		.ascii	"p_msgqueue\000"
 2483      67717565 
 2483      756500
 2484              	.LASF107:
 2485 0314 6E5F6972 		.ascii	"n_irq\000"
 2485      7100
 2486              	.LASF121:
 2487 031a 735F636E 		.ascii	"s_cnt\000"
 2487      7400
 2488              	.LASF140:
 2489 0320 2F557365 		.ascii	"/Users/savonetj/Downloads/ChibiOS_3.0.2/demos/STM32"
 2489      72732F73 
 2489      61766F6E 
 2489      65746A2F 
 2489      446F776E 
 2490 0353 2F52542D 		.ascii	"/RT-STM32F407-OLIMEX_E407-LWIP-FATFS-USB\000"
 2490      53544D33 
 2490      32463430 
 2490      372D4F4C 
 2490      494D4558 
 2491              	.LASF4:
 2492 037c 73686F72 		.ascii	"short unsigned int\000"
 2492      7420756E 
 2492      7369676E 
 2492      65642069 
 2492      6E7400
 2493              	.LASF111:
 2494 038f 6B65726E 		.ascii	"kernel_stats_t\000"
 2494      656C5F73 
 2494      74617473 
 2494      5F7400
 2495              	.LASF50:
 2496 039e 63685F74 		.ascii	"ch_thread\000"
ARM GAS  /var/folders/c6/c789hm653lg9vtl73krp73tm0000gn/T//ccGpAURF.s 			page 73


 2496      68726561 
 2496      6400
 2497              	.LASF23:
 2498 03a8 6D73675F 		.ascii	"msg_t\000"
 2498      7400
 2499              	.LASF104:
 2500 03ae 6C617374 		.ascii	"last\000"
 2500      00
 2501              	.LASF26:
 2502 03b3 75636E74 		.ascii	"ucnt_t\000"
 2502      5F7400
 2503              	.LASF79:
 2504 03ba 63685F73 		.ascii	"ch_system_t\000"
 2504      79737465 
 2504      6D5F7400 
 2505              	.LASF19:
 2506 03c6 746D6F64 		.ascii	"tmode_t\000"
 2506      655F7400 
 2507              	.LASF110:
 2508 03ce 6D5F6372 		.ascii	"m_crit_isr\000"
 2508      69745F69 
 2508      737200
 2509              	.LASF55:
 2510 03d9 63685F72 		.ascii	"ch_ready_list\000"
 2510      65616479 
 2510      5F6C6973 
 2510      7400
 2511              	.LASF24:
 2512 03e7 6576656E 		.ascii	"eventmask_t\000"
 2512      746D6173 
 2512      6B5F7400 
 2513              	.LASF136:
 2514 03f3 6368544D 		.ascii	"chTMChainMeasurementToX\000"
 2514      43686169 
 2514      6E4D6561 
 2514      73757265 
 2514      6D656E74 
 2515              	.LASF132:
 2516 040b 5F737461 		.ascii	"_stats_start_measure_crit_isr\000"
 2516      74735F73 
 2516      74617274 
 2516      5F6D6561 
 2516      73757265 
 2517              	.LASF88:
 2518 0429 73746B61 		.ascii	"stkalign_t\000"
 2518      6C69676E 
 2518      5F7400
 2519              	.LASF40:
 2520 0434 705F7761 		.ascii	"p_waiting\000"
 2520      6974696E 
 2520      6700
 2521              	.LASF131:
 2522 043e 5F737461 		.ascii	"_stats_stop_measure_crit_thd\000"
 2522      74735F73 
 2522      746F705F 
 2522      6D656173 
 2522      7572655F 
ARM GAS  /var/folders/c6/c789hm653lg9vtl73krp73tm0000gn/T//ccGpAURF.s 			page 74


 2523              	.LASF86:
 2524 045b 73697A65 		.ascii	"sizetype\000"
 2524      74797065 
 2524      00
 2525              	.LASF48:
 2526 0464 74687265 		.ascii	"thread_reference_t\000"
 2526      61645F72 
 2526      65666572 
 2526      656E6365 
 2526      5F7400
 2527              	.LASF71:
 2528 0477 63685F76 		.ascii	"ch_virtual_timers_list\000"
 2528      69727475 
 2528      616C5F74 
 2528      696D6572 
 2528      735F6C69 
 2529              	.LASF95:
 2530 048e 63685F73 		.ascii	"ch_swc_event_t\000"
 2530      77635F65 
 2530      76656E74 
 2530      5F7400
 2531              	.LASF72:
 2532 049d 76745F6C 		.ascii	"vt_lasttime\000"
 2532      61737474 
 2532      696D6500 
 2533              	.LASF34:
 2534 04a9 705F6F6C 		.ascii	"p_older\000"
 2534      64657200 
 2535              	.LASF58:
 2536 04b1 725F6374 		.ascii	"r_ctx\000"
 2536      7800
 2537              	.LASF101:
 2538 04b7 746D5F63 		.ascii	"tm_calibration_t\000"
 2538      616C6962 
 2538      72617469 
 2538      6F6E5F74 
 2538      00
 2539              	.LASF61:
 2540 04c8 725F6375 		.ascii	"r_current\000"
 2540      7272656E 
 2540      7400
 2541              	.LASF60:
 2542 04d2 725F6F6C 		.ascii	"r_older\000"
 2542      64657200 
 2543              	.LASF11:
 2544 04da 5F5F7569 		.ascii	"__uint64_t\000"
 2544      6E743634 
 2544      5F7400
 2545              	.LASF105:
 2546 04e5 63756D75 		.ascii	"cumulative\000"
 2546      6C617469 
 2546      766500
 2547              	.LASF21:
 2548 04f0 74726566 		.ascii	"trefs_t\000"
 2548      735F7400 
 2549              	.LASF98:
 2550 04f8 74625F62 		.ascii	"tb_buffer\000"
ARM GAS  /var/folders/c6/c789hm653lg9vtl73krp73tm0000gn/T//ccGpAURF.s 			page 75


 2550      75666665 
 2550      7200
 2551              	.LASF63:
 2552 0502 76697274 		.ascii	"virtual_timer_t\000"
 2552      75616C5F 
 2552      74696D65 
 2552      725F7400 
 2553              	.LASF30:
 2554 0512 705F7072 		.ascii	"p_prev\000"
 2554      657600
 2555              	.LASF22:
 2556 0519 74707269 		.ascii	"tprio_t\000"
 2556      6F5F7400 
 2557              	.LASF108:
 2558 0521 6E5F6374 		.ascii	"n_ctxswc\000"
 2558      78737763 
 2558      00
 2559              	.LASF14:
 2560 052a 696E7433 		.ascii	"int32_t\000"
 2560      325F7400 
 2561              	.LASF2:
 2562 0532 756E7369 		.ascii	"unsigned char\000"
 2562      676E6564 
 2562      20636861 
 2562      7200
 2563              	.LASF134:
 2564 0540 49544D5F 		.ascii	"ITM_RxBuffer\000"
 2564      52784275 
 2564      66666572 
 2564      00
 2565              	.LASF44:
 2566 054d 705F6D74 		.ascii	"p_mtxlist\000"
 2566      786C6973 
 2566      7400
 2567              	.LASF3:
 2568 0557 73686F72 		.ascii	"short int\000"
 2568      7420696E 
 2568      7400
 2569              	.LASF37:
 2570 0561 705F7374 		.ascii	"p_state\000"
 2570      61746500 
 2571              	.LASF57:
 2572 0569 725F7072 		.ascii	"r_prio\000"
 2572      696F00
 2573              	.LASF118:
 2574 0570 65776D61 		.ascii	"ewmask\000"
 2574      736B00
 2575              	.LASF29:
 2576 0577 705F6E65 		.ascii	"p_next\000"
 2576      787400
 2577              	.LASF38:
 2578 057e 705F666C 		.ascii	"p_flags\000"
 2578      61677300 
 2579              	.LASF47:
 2580 0586 705F7374 		.ascii	"p_stats\000"
 2580      61747300 
 2581              	.LASF80:
ARM GAS  /var/folders/c6/c789hm653lg9vtl73krp73tm0000gn/T//ccGpAURF.s 			page 76


 2582 058e 63685F73 		.ascii	"ch_system\000"
 2582      79737465 
 2582      6D00
 2583              	.LASF64:
 2584 0598 63685F76 		.ascii	"ch_virtual_timer\000"
 2584      69727475 
 2584      616C5F74 
 2584      696D6572 
 2584      00
 2585              	.LASF119:
 2586 05a9 63685F73 		.ascii	"ch_semaphore\000"
 2586      656D6170 
 2586      686F7265 
 2586      00
 2587              	.LASF43:
 2588 05b6 705F6570 		.ascii	"p_epending\000"
 2588      656E6469 
 2588      6E6700
 2589              	.LASF15:
 2590 05c1 75696E74 		.ascii	"uint32_t\000"
 2590      33325F74 
 2590      00
 2591              	.LASF141:
 2592 05ca 5F737461 		.ascii	"_stats_increase_irq\000"
 2592      74735F69 
 2592      6E637265 
 2592      6173655F 
 2592      69727100 
 2593              	.LASF56:
 2594 05de 725F7175 		.ascii	"r_queue\000"
 2594      65756500 
 2595              	.LASF67:
 2596 05e6 76745F64 		.ascii	"vt_delta\000"
 2596      656C7461 
 2596      00
 2597              	.LASF51:
 2598 05ef 63685F74 		.ascii	"ch_threads_list\000"
 2598      68726561 
 2598      64735F6C 
 2598      69737400 
 2599              	.LASF9:
 2600 05ff 6C6F6E67 		.ascii	"long unsigned int\000"
 2600      20756E73 
 2600      69676E65 
 2600      6420696E 
 2600      7400
 2601              	.LASF126:
 2602 0611 63686172 		.ascii	"char\000"
 2602      00
 2603              	.LASF6:
 2604 0616 5F5F696E 		.ascii	"__int32_t\000"
 2604      7433325F 
 2604      7400
 2605              	.LASF117:
 2606 0620 77746D74 		.ascii	"wtmtxp\000"
 2606      787000
 2607              	.LASF28:
ARM GAS  /var/folders/c6/c789hm653lg9vtl73krp73tm0000gn/T//ccGpAURF.s 			page 77


 2608 0627 74687265 		.ascii	"thread_t\000"
 2608      61645F74 
 2608      00
 2609              	.LASF102:
 2610 0630 62657374 		.ascii	"best\000"
 2610      00
 2611              	.LASF125:
 2612 0635 6D5F6E65 		.ascii	"m_next\000"
 2612      787400
 2613              	.LASF27:
 2614 063c 73797374 		.ascii	"systime_t\000"
 2614      696D655F 
 2614      7400
 2615              	.LASF45:
 2616 0646 705F7265 		.ascii	"p_realprio\000"
 2616      616C7072 
 2616      696F00
 2617              	.LASF62:
 2618 0651 76746675 		.ascii	"vtfunc_t\000"
 2618      6E635F74 
 2618      00
 2619              	.LASF8:
 2620 065a 5F5F7569 		.ascii	"__uint32_t\000"
 2620      6E743332 
 2620      5F7400
 2621              	.LASF75:
 2622 0665 70616E69 		.ascii	"panic_msg\000"
 2622      635F6D73 
 2622      6700
 2623              	.LASF139:
 2624 066f 2E2E2F2E 		.ascii	"../../../os/rt/src/chstats.c\000"
 2624      2E2F2E2E 
 2624      2F6F732F 
 2624      72742F73 
 2624      72632F63 
 2625              	.LASF100:
 2626 068c 6F666673 		.ascii	"offset\000"
 2626      657400
 2627              	.LASF89:
 2628 0693 636F6E74 		.ascii	"context\000"
 2628      65787400 
 2629              	.LASF17:
 2630 069b 7274636E 		.ascii	"rtcnt_t\000"
 2630      745F7400 
 2631              	.LASF69:
 2632 06a3 76745F70 		.ascii	"vt_par\000"
 2632      617200
 2633              	.LASF52:
 2634 06aa 74687265 		.ascii	"threads_queue_t\000"
 2634      6164735F 
 2634      71756575 
 2634      655F7400 
 2635              	.LASF122:
 2636 06ba 63685F6D 		.ascii	"ch_mutex\000"
 2636      75746578 
 2636      00
 2637              	.LASF39:
ARM GAS  /var/folders/c6/c789hm653lg9vtl73krp73tm0000gn/T//ccGpAURF.s 			page 78


 2638 06c3 705F7265 		.ascii	"p_refs\000"
 2638      667300
 2639              	.LASF76:
 2640 06ca 6973725F 		.ascii	"isr_cnt\000"
 2640      636E7400 
 2641              	.LASF81:
 2642 06d2 726C6973 		.ascii	"rlist\000"
 2642      7400
 2643              	.LASF13:
 2644 06d8 75696E74 		.ascii	"uint8_t\000"
 2644      385F7400 
 2645              	.LASF129:
 2646 06e0 5F737461 		.ascii	"_stats_ctxswc\000"
 2646      74735F63 
 2646      74787377 
 2646      6300
 2647              	.LASF114:
 2648 06ee 77746F62 		.ascii	"wtobjp\000"
 2648      6A7000
 2649              	.LASF35:
 2650 06f5 705F6E61 		.ascii	"p_name\000"
 2650      6D6500
 2651              	.LASF49:
 2652 06fc 74687265 		.ascii	"threads_list_t\000"
 2652      6164735F 
 2652      6C697374 
 2652      5F7400
 2653              	.LASF78:
 2654 070b 74726163 		.ascii	"trace_buffer\000"
 2654      655F6275 
 2654      66666572 
 2654      00
 2655              	.LASF42:
 2656 0718 705F6D73 		.ascii	"p_msg\000"
 2656      6700
 2657              	.LASF128:
 2658 071e 5F737461 		.ascii	"_stats_init\000"
 2658      74735F69 
 2658      6E697400 
 2659              	.LASF133:
 2660 072a 5F737461 		.ascii	"_stats_stop_measure_crit_isr\000"
 2660      74735F73 
 2660      746F705F 
 2660      6D656173 
 2660      7572655F 
 2661              	.LASF109:
 2662 0747 6D5F6372 		.ascii	"m_crit_thd\000"
 2662      69745F74 
 2662      686400
 2663              	.LASF124:
 2664 0752 6D5F6F77 		.ascii	"m_owner\000"
 2664      6E657200 
 2665              	.LASF93:
 2666 075a 73655F77 		.ascii	"se_wtobjp\000"
 2666      746F626A 
 2666      7000
 2667              	.LASF32:
ARM GAS  /var/folders/c6/c789hm653lg9vtl73krp73tm0000gn/T//ccGpAURF.s 			page 79


 2668 0764 705F6374 		.ascii	"p_ctx\000"
 2668      7800
 2669              	.LASF68:
 2670 076a 76745F66 		.ascii	"vt_func\000"
 2670      756E6300 
 2671              		.comm	__gnu_lto_v1,1,1
 2672              		.ident	"GCC: (GNU Tools for ARM Embedded Processors) 4.8.4 20140725 (release) [ARM/embedded-4_8-br
ARM GAS  /var/folders/c6/c789hm653lg9vtl73krp73tm0000gn/T//ccGpAURF.s 			page 80


DEFINED SYMBOLS
                            *ABS*:0000000000000000 chstats.c
/var/folders/c6/c789hm653lg9vtl73krp73tm0000gn/T//ccGpAURF.s:450    .text._stats_init:0000000000000000 $t
/var/folders/c6/c789hm653lg9vtl73krp73tm0000gn/T//ccGpAURF.s:456    .text._stats_init:0000000000000000 _stats_init
/var/folders/c6/c789hm653lg9vtl73krp73tm0000gn/T//ccGpAURF.s:489    .text._stats_init:0000000000000024 $d
/var/folders/c6/c789hm653lg9vtl73krp73tm0000gn/T//ccGpAURF.s:494    .text._stats_increase_irq:0000000000000000 $t
/var/folders/c6/c789hm653lg9vtl73krp73tm0000gn/T//ccGpAURF.s:500    .text._stats_increase_irq:0000000000000000 _stats_increase_irq
/var/folders/c6/c789hm653lg9vtl73krp73tm0000gn/T//ccGpAURF.s:516    .text._stats_increase_irq:0000000000000010 $d
/var/folders/c6/c789hm653lg9vtl73krp73tm0000gn/T//ccGpAURF.s:521    .text._stats_ctxswc:0000000000000000 $t
/var/folders/c6/c789hm653lg9vtl73krp73tm0000gn/T//ccGpAURF.s:527    .text._stats_ctxswc:0000000000000000 _stats_ctxswc
/var/folders/c6/c789hm653lg9vtl73krp73tm0000gn/T//ccGpAURF.s:562    .text._stats_ctxswc:0000000000000020 $d
/var/folders/c6/c789hm653lg9vtl73krp73tm0000gn/T//ccGpAURF.s:567    .text._stats_start_measure_crit_thd:0000000000000000 $t
/var/folders/c6/c789hm653lg9vtl73krp73tm0000gn/T//ccGpAURF.s:573    .text._stats_start_measure_crit_thd:0000000000000000 _stats_start_measure_crit_thd
/var/folders/c6/c789hm653lg9vtl73krp73tm0000gn/T//ccGpAURF.s:587    .text._stats_start_measure_crit_thd:0000000000000008 $d
/var/folders/c6/c789hm653lg9vtl73krp73tm0000gn/T//ccGpAURF.s:592    .text._stats_stop_measure_crit_thd:0000000000000000 $t
/var/folders/c6/c789hm653lg9vtl73krp73tm0000gn/T//ccGpAURF.s:598    .text._stats_stop_measure_crit_thd:0000000000000000 _stats_stop_measure_crit_thd
/var/folders/c6/c789hm653lg9vtl73krp73tm0000gn/T//ccGpAURF.s:612    .text._stats_stop_measure_crit_thd:0000000000000008 $d
/var/folders/c6/c789hm653lg9vtl73krp73tm0000gn/T//ccGpAURF.s:617    .text._stats_start_measure_crit_isr:0000000000000000 $t
/var/folders/c6/c789hm653lg9vtl73krp73tm0000gn/T//ccGpAURF.s:623    .text._stats_start_measure_crit_isr:0000000000000000 _stats_start_measure_crit_isr
/var/folders/c6/c789hm653lg9vtl73krp73tm0000gn/T//ccGpAURF.s:637    .text._stats_start_measure_crit_isr:0000000000000008 $d
/var/folders/c6/c789hm653lg9vtl73krp73tm0000gn/T//ccGpAURF.s:642    .text._stats_stop_measure_crit_isr:0000000000000000 $t
/var/folders/c6/c789hm653lg9vtl73krp73tm0000gn/T//ccGpAURF.s:648    .text._stats_stop_measure_crit_isr:0000000000000000 _stats_stop_measure_crit_isr
/var/folders/c6/c789hm653lg9vtl73krp73tm0000gn/T//ccGpAURF.s:662    .text._stats_stop_measure_crit_isr:0000000000000008 $d
                            *COM*:0000000000000001 __gnu_lto_v1
                     .debug_frame:0000000000000010 $d
/var/folders/c6/c789hm653lg9vtl73krp73tm0000gn/T//ccGpAURF.s:493    .text._stats_init:0000000000000028 $t
/var/folders/c6/c789hm653lg9vtl73krp73tm0000gn/T//ccGpAURF.s:520    .text._stats_increase_irq:0000000000000014 $t
/var/folders/c6/c789hm653lg9vtl73krp73tm0000gn/T//ccGpAURF.s:566    .text._stats_ctxswc:0000000000000024 $t
/var/folders/c6/c789hm653lg9vtl73krp73tm0000gn/T//ccGpAURF.s:591    .text._stats_start_measure_crit_thd:000000000000000c $t
/var/folders/c6/c789hm653lg9vtl73krp73tm0000gn/T//ccGpAURF.s:616    .text._stats_stop_measure_crit_thd:000000000000000c $t
/var/folders/c6/c789hm653lg9vtl73krp73tm0000gn/T//ccGpAURF.s:641    .text._stats_start_measure_crit_isr:000000000000000c $t
/var/folders/c6/c789hm653lg9vtl73krp73tm0000gn/T//ccGpAURF.s:666    .text._stats_stop_measure_crit_isr:000000000000000c $t

UNDEFINED SYMBOLS
chTMObjectInit
ch
chTMChainMeasurementToX
chTMStartMeasurementX
chTMStopMeasurementX
