ARM GAS  /var/folders/c6/c789hm653lg9vtl73krp73tm0000gn/T//ccxnP4td.s 			page 1


   1              		.syntax unified
   2              		.cpu cortex-m4
   3              		.fpu softvfp
   4              		.eabi_attribute 20, 1
   5              		.eabi_attribute 21, 1
   6              		.eabi_attribute 23, 3
   7              		.eabi_attribute 24, 1
   8              		.eabi_attribute 25, 1
   9              		.eabi_attribute 26, 1
  10              		.eabi_attribute 30, 2
  11              		.eabi_attribute 34, 1
  12              		.eabi_attribute 18, 4
  13              		.thumb
  14              		.file	"chtm.c"
  15              		.text
  16              	.Ltext0:
  17              		.section	.gnu.lto_.jmpfuncs.6392fcadba5778a1,"",%progbits
  18 0000 789C6362 		.ascii	"x\234cb`b\300\006\034\2404+\003###\023#\013\003#\003"
  18      6062C006 
  18      1CA0342B 
  18      03232323 
  18      13230B03 
  19 0016 10B13232 		.ascii	"\020\26122D0f22\374\007\002~\006\0050\033\250\026J'"
  19      44306632 
  19      32FC0702 
  19      7E060530 
  19      1BA8164A 
  20 002b 40E90646 		.ascii	"@\351\006F\020\003\310bef\000\000:\272\011\200"
  20      1003C862 
  20      65660000 
  20      3ABA0980 
  21              		.text
  22              		.section	.gnu.lto_.inline.6392fcadba5778a1,"",%progbits
  23 0000 789C6D90 		.ascii	"x\234m\220\261\015\3020\020E\377]\234\304\220\010\""
  23      B10DC230 
  23      1045FF5D 
  23      9CC49008 
  23      22
  24 0011 2442A830 		.ascii	"$B\2500\025\0353\244\240\246b\000FAT\010QPQ\323\260"
  24      151D33A4 
  24      A0A66200 
  24      46415408 
  24      515051D3 
  25 0026 03628A88 		.ascii	"\003b\212\210\021\250(\031\001\373\247!\022.\376\331"
  25      11A82819 
  25      01FBA721 
  25      122EFED9 
  26 0036 DF777E5F 		.ascii	"\337w~_V(\376\255L\332\032\003=+\320\344\263D~^\263"
  26      5628FEAD 
  26      4CDA1A03 
  26      3D2BD0E4 
  26      B3447E5E 
  27 004b 59101B40 		.ascii	"Y\020\033@\243\373\004\351aAK1-}\257\037\212\266\324"
  27      A3FB04E9 
  27      61414B31 
  27      2D7DAF1F 
  27      8AB6D4
ARM GAS  /var/folders/c6/c789hm653lg9vtl73krp73tm0000gn/T//ccxnP4td.s 			page 2


  28 005e 9ABA1316 		.ascii	"\232\272\023\026GE^=o\202\374\261R\310;5\012\377\202"
  28      47455E3D 
  28      6F82FCB1 
  28      52C83B35 
  28      0AFF82
  29 0071 095B4BC3 		.ascii	"\011[K\303B\233a\241\324pvt\375\354\313\324J\015$S\025"
  29      429B61A1 
  29      D4707674 
  29      FDECCBD4 
  29      4A0D2453 
  30 0086 739F67D4 		.ascii	"s\237g\324\234\004\311u\326\322\263\020\252\325\030"
  30      9C04C975 
  30      D6D2B310 
  30      AAD518
  31 0095 D518E627 		.ascii	"\325\030\346'I7C\277\334_\004\203\343\246\223\301#-"
  31      493743BF 
  31      DC5F0483 
  31      E3A693C1 
  31      232D
  32 00a7 C136B805 		.ascii	"\3016\270\005\357\212\200t\004;~\305\027\270:\037\331"
  32      EF8A8074 
  32      043B7EC5 
  32      17B83A1F 
  32      D9
  33              		.text
  34              		.section	.gnu.lto_.pureconst.6392fcadba5778a1,"",%progbits
  35 0000 789C6362 		.ascii	"x\234cb`b\340f\200\000V\006)F)&)\026\011V)\000\004)"
  35      6062E066 
  35      80005606 
  35      29462926 
  35      29160956 
  36 0018 00A1     		.ascii	"\000\241"
  37              		.text
  38              		.section	.gnu.lto_chTMObjectInit.6392fcadba5778a1,"",%progbits
  39 0000 789C6362 		.ascii	"x\234cb`b@\007\222@<\225\221\201A\006H32302M8\307\300"
  39      60624007 
  39      92403C95 
  39      91814106 
  39      48333233 
  40 001a D0C8C1C4 		.ascii	"\320\310\301\304\310\010b002\32431\326G2\202\325\256"
  40      C8086230 
  40      3032D433 
  40      31D64732 
  40      82D5AE
  41 002d 673AF0E0 		.ascii	"g:\360\340\377\377u\323\332\327\257a\234\313\004T\223"
  41      FFFF75D3 
  41      DAD7AF61 
  41      9CCB0454 
  41      93
  42 003e 0B166765 		.ascii	"\013\026gehih\230\240\300\300\220\014\346\206\000I\220"
  42      68696898 
  42      A0C0C090 
  42      0CE68600 
  42      4990
  43 0050 DE504626 		.ascii	"\336PF&\020\315|\226\241i\307\216\3177\230\022\031\027"
  43      10CD7C96 
  43      A169C78E 
ARM GAS  /var/folders/c6/c789hm653lg9vtl73krp73tm0000gn/T//ccxnP4td.s 			page 3


  43      CF379812 
  43      1917
  44 0062 32B23268 		.ascii	"2\2622h3\254j\000\002\336LF\206\331\014\263\0303\031"
  44      33AC6A00 
  44      02DE4C46 
  44      86D90CB3 
  44      183319
  45 0075 19D31999 		.ascii	"\031\323\031\231\"\2004\304iI\020\233\030@\"\314\377"
  45      228034C4 
  45      6949109B 
  45      184022CC 
  45      FF
  46 0086 81801FC8 		.ascii	"\201\200\037\310\001\231p\203x\023\030\021&0@u\377 "
  46      01997083 
  46      78131811 
  46      26304075 
  46      FF20
  47 0098 5E3713A6 		.ascii	"^7\023\246\356\031\3370u\263`\327\315\214\251{\007\026"
  47      EE19DF30 
  47      75B360D7 
  47      CD8CA97B 
  47      0716
  48 00aa DDACD875 		.ascii	"\335\254\330u\263\300u\263\201\030\027\031\032\037\334"
  48      B3C075B3 
  48      81181719 
  48      1A1FDC
  49 00b9 5286E885 		.ascii	"R\206\350\205\201\020\240\367\200\241\012\322!\245\247"
  49      8110A0F7 
  49      80A10AD2 
  49      21A5A7
  50 00c8 A70F41F9 		.ascii	"\247\017A\371\305\372E%\372\305E\311\372\311\031%\271"
  50      C5FA4525 
  50      FAC545C9 
  50      FAC91925 
  50      B9
  51 00d9 7AC90C00 		.ascii	"z\311\014\000\207\033f?"
  51      871B663F 
  52              		.text
  53              		.section	.gnu.lto_chTMStartMeasurementX.6392fcadba5778a1,"",%progbits
  54 0000 789C6362 		.ascii	"x\234cb`b@\007\222@\314\312\310\300\340\006\244\031"
  54      60624007 
  54      9240CCCA 
  54      C8C0E006 
  54      A419
  55 0012 99191899 		.ascii	"\231\031\030\231&\234c`h\344`bd\0041\030\030\031\352"
  55      269C6360 
  55      68E46062 
  55      64043118 
  55      1819EA
  56 0025 9918EB23 		.ascii	"\231\030\353#\031\301j\3273\035x\360\377\377\272\033"
  56      19C16AD7 
  56      331D78F0 
  56      FFFFBA1B 
  57 0035 EDFBFF30 		.ascii	"\355\373\3770\316cbcf\314ed`e\310\004K\2622\26444LP"
  57      CE636263 
  57      66CC6564 
  57      6065C804 
ARM GAS  /var/folders/c6/c789hm653lg9vtl73krp73tm0000gn/T//ccxnP4td.s 			page 4


  57      4BB232B4 
  58 004d 60604806 		.ascii	"``H\006sC\200$\310\200PF&\020\315|\226\341\320\255="
  58      73438024 
  58      C8805046 
  58      2610CD7C 
  58      96E1D0AD 
  59 0062 FDCF66B0 		.ascii	"\375\317f\260\301\325A\030\007\272\277\177df`Hd\\\310"
  59      C1D54118 
  59      07BABF7F 
  59      64666048 
  59      645CC8
  60 0075 C80AD40A 		.ascii	"\310\012\324\012\326\233\316\310\252\315\260\252\241"
  60      D69BCEC8 
  60      AACDB0AA 
  60      A1
  61 0082 A5F1C1EF 		.ascii	"\245\361\301\357\015\307.22f22\316f\230\3258\241A \223"
  61      0DC72E32 
  61      32663232 
  61      CE6698D5 
  61      38A14120 
  62 0097 912902C8 		.ascii	"\221)\002\310enX\320\320\300\307\000f\202\035\226\004"
  62      656E58D0 
  62      D0C0C700 
  62      66821D96 
  62      04
  63 00a8 D297C8B8 		.ascii	"\322\227\310\270\030h\006\020\234eh:yf\007?\304L\220"
  63      18680610 
  63      9C65683A 
  63      7966073F 
  63      C44C90
  64 00bb 4940C00B 		.ascii	"I@\300\013t%\320\020\240\016\226tFf\220NV\250N\210\327"
  64      7425D010 
  64      A00E9674 
  64      4666904E 
  64      56A84E88 
  65 00d0 D241FC8B 		.ascii	"\322A\374\213\014\215\017\336+C\364\301@\010P\001\320"
  65      0C8D0FDE 
  65      2B43F4C1 
  65      40085001 
  65      D0
  66 00e1 03A08093 		.ascii	"\003\240\200\223\322\323\323\207\240\374b\375\242\022"
  66      D2D3D387 
  66      A0FC62FD 
  66      A212
  67 00ef FDE2A264 		.ascii	"\375\342\242d\375\344\214\222\\\275d\006M4\251\202\374"
  67      FDE48C92 
  67      5CBD6406 
  67      4D34A982 
  67      FC
  68 0100 A292627D 		.ascii	"\242\222b}\307 _g\337\012\240\232\344\374\242\324\370"
  68      C7205F67 
  68      DF0AA09A 
  68      E4FCA2D4 
  68      F8
  69 0111 32F35CBD 		.ascii	"2\363\\\275\014\006\000\214\314X\335"
  69      0C06008C 
  69      CC58DD
ARM GAS  /var/folders/c6/c789hm653lg9vtl73krp73tm0000gn/T//ccxnP4td.s 			page 5


  70              		.text
  71              		.section	.gnu.lto_chTMStopMeasurementX.6392fcadba5778a1,"",%progbits
  72 0000 789C8D94 		.ascii	"x\234\215\224_H\323Q\024\307\317\371\375\333\037\267"
  72      5F48D351 
  72      14C7CFF9 
  72      FDDB1FB7 
  73 0010 B9874294 		.ascii	"\271\207B\224\022\021z(a?z\3629z\210\020\011B\241\236"
  73      12117A28 
  73      613F7AF2 
  73      397A8810 
  73      0942A19E 
  74 0024 C286CE3D 		.ascii	"\302\206\316=\254\3116*\350\301\273\315\007\245\300"
  74      ACC9362A 
  74      E8C1BBCD 
  74      07A5C0
  75 0033 613D4841 		.ascii	"a=HAjA\204\210ZO\022\026#2\3222\020|\020\011\031B>\366"
  75      6A418488 
  75      5A4F1216 
  75      2332D232 
  75      107C1009 
  76 004b D28B14B4 		.ascii	"\322\213\024\264\316\271w\277\271\255?\333e;\367\336"
  76      CEB977BF 
  76      B9AD3FDB 
  76      653BF7DE 
  77 005b 73EFF9DC 		.ascii	"s\357\371\334s\277\347\367\373i\240Am\353\241\377\202"
  77      73BFE7F7 
  77      FB69A041 
  77      6DEBA1FF 
  77      82
  78 006c 09D04F3D 		.ascii	"\011\320O=\272\000\265\334g\200\264[\323\364\325v\020"
  78      BA00B5DC 
  78      6780B45B 
  78      D3F4D576 
  78      10
  79 007d 5E63DB06 		.ascii	"^c\333\006\341\323\321RnC3\331\341\265x\321g:n\013\221"
  79      E1D3D152 
  79      6E4333D9 
  79      E1B578D1 
  79      673A6E0B 
  80 0092 078030AA 		.ascii	"\007\2000\252\351\206i\341\350U\224\364%-_(\026\027"
  80      E98669E1 
  80      E85594F4 
  80      252D5F28 
  80      1617
  81 00a4 A736DE7C 		.ascii	"\2476\336|\302\347Z\213\016Q\004\003c\010\026\215\350"
  81      C2E75A8B 
  81      0E510403 
  81      6308168D 
  81      E8
  82 00b5 389ABAD9 		.ascii	"8\232\272\331x\330x\3314\261\361\221\321\374l\002l\232"
  82      78D878D9 
  82      34B1F191 
  82      D1FC6C02 
  82      6C9A
  83 00c7 D9176443 		.ascii	"\331\027dC\315\2041!r\035\000a9\355#\313g\367\243\306"
  83      CD843121 
  83      721D0061 
ARM GAS  /var/folders/c6/c789hm653lg9vtl73krp73tm0000gn/T//ccxnP4td.s 			page 6


  83      39ED23CB 
  83      67F7A3C6 
  84 00db BDBE096F 		.ascii	"\275\276\011owW'\017\246\255\362>5\310\177\\{\242\003"
  84      7757270F 
  84      A6ADF23E 
  84      35C87F5C 
  84      7BA203
  85 00ee 0CE01C9A 		.ascii	"\014\340\034\232\024*c#hu\301\274\030K\027~.\277\337"
  85      142A6323 
  85      6875C1BC 
  85      184B177E 
  85      2EBFDF
  86 0101 428CA2FE 		.ascii	"B\214\242\376\010\036\246s\"\030E\343\012MM1+D\000\344"
  86      081EA673 
  86      221845E3 
  86      0A4D4D31 
  86      2B4400E4 
  87 0115 50DEE73A 		.ascii	"P\336\347:\307\015\340S5\335\204\314\356\227\205\007"
  87      C70DE053 
  87      35DD84CC 
  87      EE978507 
  88 0125 6D0A1A41 		.ascii	"m\012\032A\275\013\316\320\265\230I\3555EY\314\023\314"
  88      BD0BCED0 
  88      B59849ED 
  88      354559CC 
  88      13CC
  89 0137 73DD811F 		.ascii	"s\335\201\037b\234G\356\230<\235\241\356\022\024K\275"
  89      629C47EE 
  89      983C9DA1 
  89      EE12144B 
  89      BD
  90 0148 539E75C8 		.ascii	"S\236u\310\344K\324N\230\023b*\177\177c\262U\314fr\342"
  90      E44BD44E 
  90      9813622A 
  90      7F7F63B2 
  90      55CC6672 
  91 015d 57B14881 		.ascii	"W\261H\201\036\015. +\300\024o\207\354\232\214\352\312"
  91      1E0D2E20 
  91      2BC0146F 
  91      87EC9A8C 
  91      EACA
  92 016f 46D090A4 		.ascii	"F\320\220\244\302\3355\353\177,:\265\247>\313j\224u"
  92      C2DD35EB 
  92      7F2C3AB5 
  92      A73ECB6A 
  92      9475
  93 0181 A93E4B57 		.ascii	"\251>KW\322\255<\326k\212$\226X\314E\354$\215\027\244"
  93      D2AD3CD6 
  93      6B8A2496 
  93      58CC45EC 
  93      248D17A4 
  94 0195 9D277B54 		.ascii	"\235'{T5M\305\273\224\302\371\357\255Q\364\225\025\366"
  94      354DC5BB 
  94      94C2F9EF 
  94      AD51F495 
  94      15F6
  95 01a7 4754D13C 		.ascii	"GT\321<%1e\265_8\225\312\216g\207\006pY\326\311M\010"
ARM GAS  /var/folders/c6/c789hm653lg9vtl73krp73tm0000gn/T//ccxnP4td.s 			page 7


  95      253165B5 
  95      5F3895CA 
  95      8E678706 
  95      7059D6C9 
  96 01bd DEE94355 		.ascii	"\336\351CU\304\213j\241T7\177c\320\010W\217\257\261"
  96      C48B6AA1 
  96      54377F63 
  96      D008578F 
  96      AFB1
  97 01cf B377C201 		.ascii	"\263w\302\001{\324\003\360\317h\243:\245\211\354KtB"
  97      7BD403F0 
  97      CF68A33A 
  97      A589EC4B 
  97      7442
  98 01e1 BD247184 		.ascii	"\275$q\2047J\3773\315\3617\311%\245\330\372\262\253"
  98      374AFF33 
  98      CDF137C9 
  98      25A5D8FA 
  98      B2AB
  99 01f3 36D346CE 		.ascii	"6\323F\316\"\210\312\364p\357\270\203\365)\004\305\005"
  99      2288CAF4 
  99      70EFB883 
  99      F52904C5 
  99      05
 100 0204 FE4930AB 		.ascii	"\376I0\253\262\315|\313\276*g\353/1I\325\305\2623@X"
 100      B2CD7CCB 
 100      BE2A67EB 
 100      2F3149D5 
 100      C5B23340 
 101 0219 5AFA53D2 		.ascii	"Z\372S\322\006O!B\351\301\230iq\230\315u\024\265*r\374"
 101      064F2142 
 101      E9C19869 
 101      7198CD75 
 101      14B52A72 
 102 022e 00EF0ED2 		.ascii	"\000\357\016\322\376\012\341\232\217\036\272~\222p\265"
 102      FE0AE19A 
 102      8F1EBA7E 
 102      9270B5
 103 023d 5D671177 		.ascii	"]g\021wf\216U\251x\2661\276\274\261B\031\260m3jwz\177"
 103      668E55A9 
 103      78B631BE 
 103      BCB14219 
 103      B06D336A 
 104 0254 4777CE0B 		.ascii	"Gw\316\013\326\311\324U\235\351\327twE\246\301\312L"
 104      D6C9D455 
 104      9DE9D774 
 104      7745A6C1 
 104      CA4C
 105 0266 4D983829 		.ascii	"M\2308)3]\331?\304\306Su\375-UK~\024\267 ]\270wJ\275"
 105      335DD93F 
 105      C4C65375 
 105      FD2D554B 
 105      7E14B720 
 106 027f 454EEBA3 		.ascii	"EN\353\243\257\016\255\361+\325\026\012\331\352\027"
 106      AF0EADF1 
 106      2BD5160A 
 106      D9EA17
ARM GAS  /var/folders/c6/c789hm653lg9vtl73krp73tm0000gn/T//ccxnP4td.s 			page 8


 107 028e 4FDA8994 		.ascii	"O\332\211\224\235L\204\355\360p*\026\012\303\351\232"
 107      9D4C84ED 
 107      F0702A16 
 107      0AC3E99A 
 108 029e A5917822 		.ascii	"\245\221x\"\225\264\317]\356=\337{\233\366\204\343\211"
 108      95B4CF5D 
 108      EE3DDF7B 
 108      9BF684E3 
 108      89
 109 02af C16B37BB 		.ascii	"\301k7\273c\241a\320S\261\021\375F\374\226\025\037\032"
 109      63A161D0 
 109      53B111FD 
 109      46FC9615 
 109      1F1A
 110 02c1 4A0EA67E 		.ascii	"J\016\246~\003\3739g\257"
 110      03FB3967 
 110      AF
 111              		.text
 112              		.section	.gnu.lto__tm_init.6392fcadba5778a1,"",%progbits
 113 0000 789CAD53 		.ascii	"x\234\255S\277K\034Q\020\376\346\355\335\371\343\374"
 113      BF4B1C51 
 113      10FEE6ED 
 113      DDF9E3FC 
 114 0010 11218509 		.ascii	"\021!\205\011\004\217\330$\021\356\010\344OI\300\224"
 114      048FD824 
 114      11EE08E4 
 114      4F49C094 
 115 0020 E716BAC5 		.ascii	"\347\026\272\305\221\240W\231\302\267\346Ll\002\207"
 115      91A05799 
 115      C2B7E64C 
 115      6C0287
 116 002f 95E42A49 		.ascii	"\225\344*I\023\222\200\205)\026S\370\260\020$\250\244"
 116      13928085 
 116      291653F8 
 116      B01024A8 
 116      A4
 117 0040 134158B1 		.ascii	"\023AX\261\213 \202 !\010\353\314\276]\315\352a\225"
 117      8B208220 
 117      2108EBCC 
 117      BE5DCDEA 
 117      6195
 118 0052 61776760 		.ascii	"awg`\347\373f\276o\337*(\\\217{|\267\034`\23039 \325"
 118      E7FB66BE 
 118      6FDF2A28 
 118      5C8F7B7C 
 118      B71C6098 
 119 006a DC06FC4E 		.ascii	"\334\006\374NE$\005\0103\212f^\222\264\322C,i\323\014"
 119      45240508 
 119      338A665E 
 119      92B4D243 
 119      2C69D30C 
 120 007e E77E9F28 		.ascii	"\347~\237(_\233E\3350QDC\0361\355\003\202K\030%\217"
 120      5F9B45DD 
 120      30514443 
 120      1E31ED03 
 120      824B1825 
 121 0093 C8D8AC06 		.ascii	"\310\330\254\006\263\203\226\225\011\243\350|\345\373"
ARM GAS  /var/folders/c6/c789hm653lg9vtl73krp73tm0000gn/T//ccxnP4td.s 			page 9


 121      B3839695 
 121      09A3E87C 
 121      E5FB
 122 00a1 C12A0DF4 		.ascii	"\301*\015\364\025\340\3614 \217\206\326\315R\225\226"
 122      15E0F134 
 122      208F86D6 
 122      CD529596 
 123 00b1 981DC2C1 		.ascii	"\230\035\302\301\361\234\2372\375\005)\311\316\026f"
 123      F19C9F32 
 123      FD0529C9 
 123      CE1666
 124 00c0 83E0C8A8 		.ascii	"\203\340\310\250*}\242<F\360Es<\365(\227\224E\217\362"
 124      2A7DA23C 
 124      46F04573 
 124      3CF52897 
 124      94458FF2 
 125 00d4 2D7CF4B5 		.ascii	"-|\364\265\276\343Q\341\015\376\352y\251:j1\233,\323"
 125      BEE351E1 
 125      0DFEEA79 
 125      A93A6A31 
 125      9B2CD3
 126 00e7 11AF3046 		.ascii	"\021\2570FH\262-\344\215,\201M\314\232G\226]4\352\005"
 126      48B22DE4 
 126      8D2C814D 
 126      CC9A4796 
 126      5D34EA05 
 127 00fb B3F6EE27 		.ascii	"\263\366\356'\351\005\355\237DQ\277G\235\012\245+\201"
 127      E905ED9F 
 127      4451BF47 
 127      9D0AA52B 
 127      81
 128 010c 25AB2F97 		.ascii	"%\253/\227\325'c\2656\373\033w\271\337\352\261\214\034"
 128      D52763B5 
 128      36FB1B77 
 128      B9DFEAB1 
 128      8C1C
 129 011e B180D35D 		.ascii	"\261\200\323]\225\250Me\353\037\037\036W\351s\254\334"
 129      95A84D65 
 129      EB1F1F1E 
 129      57E973AC 
 129      DC
 130 012f F6BA7633 		.ascii	"\366\272v3\253\313\264\336;,\322r\215\261\027\334\364"
 130      ABCBB4DE 
 130      3B2CD272 
 130      8DB117DC 
 130      F4
 131 0140 4D08E3BD 		.ascii	"M\010\343\275#\216\376\204{\227\271\253\364\365\312"
 131      238EFE84 
 131      7B97B9AB 
 131      F4F5CA
 132 014f 9CDE7F70 		.ascii	"\234\336\177pN\026\227\356\363\3476L\256=f\361\354&"
 132      4E1697EE 
 132      F3E7364C 
 132      AE3D66F1 
 132      EC26
 133 0161 A62BC5E4 		.ascii	"\246+\305\344\333c\2026\230\356\024S\310`\212\202\331"
 133      DB638236 
ARM GAS  /var/folders/c6/c789hm653lg9vtl73krp73tm0000gn/T//ccxnP4td.s 			page 10


 133      98EE1453 
 133      C8608A82 
 133      D9
 134 0172 41235C7E 		.ascii	"A#\\~\333\227zw\3715{\\R\211\321\323\327\035\366\250"
 134      DB977A77 
 134      F9357B5C 
 134      5289D1D3 
 134      D71DF6A8 
 135 0186 D70283C3 		.ascii	"\327\002\203\303b;\240s+\220\267\334\013\216\303\344"
 135      623BA073 
 135      2B90B7DC 
 135      0B8EC3E4 
 136 0196 788D5361 		.ascii	"x\215Sa\004O\262^ \021\263\331\354\376\337gp\\<\330"
 136      044FB25E 
 136      2011B3D9 
 136      ECFEDF67 
 136      705C3CD8 
 137 01aa C2FA5132 		.ascii	"\302\372Q2\336N}\206\025=\317\030\351\370\005?\\\035"
 137      DE4E7D86 
 137      153DCF18 
 137      E9F8053F 
 137      5C1D
 138 01bc BE3C4BB0 		.ascii	"\276<K\260\177\010\311\237!\206\334/\227+\366z5U\231"
 138      7F08C99F 
 138      2186DC2F 
 138      972BF67A 
 138      355599
 139 01cf AC57A626 		.ascii	"\254W\246&\335\212;Q\257\225]\250z\315\251\327^_\000"
 139      DD8A3B51 
 139      AF955DA8 
 139      7ACDA9D7 
 139      5E5F00
 140 01e2 E9D5EA1E 		.ascii	"\351\325\352\036"
 141              		.text
 142              		.section	.gnu.lto_chTMChainMeasurementToX.6392fcadba5778a1,"",%progbits
 143 0000 789C8D94 		.ascii	"x\234\215\224QHSQ\030\307\277\357\236{\357\346\334\334"
 143      51485351 
 143      18C7BFEF 
 143      9E7BEFE6 
 143      DCDC
 144 0012 1E0A514A 		.ascii	"\036\012QJD\360\241\204]z\3629z\210\020\011B\241\236"
 144      44F0A184 
 144      5D7AF239 
 144      7A881009 
 144      42A19E
 145 0025 620D9D7B 		.ascii	"b\015\235{X\223mXo\236m>$=8\002A\012R\351%$Tz2\361a"
 145      58936D58 
 145      6F9E6D3E 
 145      243D3802 
 145      410A52E9 
 146 0040 85450A06 		.ascii	"\205E\012\006\202\225H\310\020\262\267^z\021\202\326"
 146      829548C8 
 146      10B2B75E 
 146      7A1182D6 
 147 0050 F7DDB33B 		.ascii	"\367\335\263;\267e\354^\266\357\334s\316\375~\347\177"
 147      B765EC5E 
 147      B6EFDC73 
ARM GAS  /var/folders/c6/c789hm653lg9vtl73krp73tm0000gn/T//ccxnP4td.s 			page 11


 147      CEFD7EE7 
 147      7F
 148 0061 FEDFB957 		.ascii	"\376\337\271W\003\015\032\257\001\372O\030\000\303\324"
 148      030D1AAF 
 148      01FA4F18 
 148      00C3D4
 149 0070 A207502B 		.ascii	"\242\007P+|\002\310z5Mlt\201\364\351{\026H\277@S\015"
 149      7C02C87A 
 149      354D6C74 
 149      81F4E97B 
 149      1648BF40 
 150 0086 EB9AC103 		.ascii	"\353\232\301\003>\223'\375\2063l\"\362\015 LjB7L\234"
 150      3E9327FD 
 150      86336C22 
 150      F20D204C 
 150      6A42374C 
 151 009b BC83367D 		.ascii	"\274\2036}E+\226\312\345\345/\333\233oq\275\267]`\002"
 151      452B96CA 
 151      E5E52FDB 
 151      9B6F71BD 
 151      B75D6002 
 152 00af C1A0402B 		.ascii	"\301\240@+\305\021\274\024\260\205\203\217C+\007?\005"
 152      C511BC14 
 152      B085838F 
 152      432B073F 
 152      05
 153 00c0 2DC0A18D 		.ascii	"-\300\241\215C\220\307B\034\210f\300\224\224\205n\200"
 153      4390C742 
 153      1C8866C0 
 153      9494856E 
 153      80
 154 00d1 A84D1FA2 		.ascii	"\250M\037\242\310\313\016\243\306\255\330\201w\007\033"
 154      C8CB0EA3 
 154      C6ADD881 
 154      77071B
 155 00e0 33C77366 		.ascii	"3\307sf\3659uS|\3745G;\214\340\"\032\224j\347\306\320"
 155      F5397553 
 155      7CFC3547 
 155      3B8CE022 
 155      1A946AE7 
 156 00f6 D3074B72 		.ascii	"\323\007Kr*[\372\275\372a\0271\216\342\031<\315\026"
 156      2A5BFABD 
 156      FA611731 
 156      8EE2193C 
 156      CD16
 157 0108 64288EFA 		.ascii	"d(\216\372m\352\032rA\3126\260o\355\255\334\343\274"
 157      6DEA1A72 
 157      41CA36B0 
 157      6FEDADDC 
 157      E3BC
 158 011a 08BE50DD 		.ascii	"\010\276P\335\035\310m}[\233\355RPF\321\025\244=\021"
 158      1DC86D7D 
 158      5B9BED52 
 158      5046D115 
 158      A43D11
 159 012d 8552CC18 		.ascii	"\205R\314\030\012N\365TR\225\0331\356oA\256\364\346"
 159      0A4EF554 
ARM GAS  /var/folders/c6/c789hm653lg9vtl73krp73tm0000gn/T//ccxnP4td.s 			page 12


 159      52951B31 
 159      EE6F41AE 
 159      F4E6
 160 013f BDA9127B 		.ascii	"\275\251\022{`Q\312'\305\317\3333\035r!W\220\177\312"
 160      6051CA27 
 160      C5CFDB33 
 160      1D722157 
 160      907FCA
 161 0152 65CED2E0 		.ascii	"e\316\322\340:\362&\031\341\355\266\233\026\275\276"
 161      3AF22619 
 161      E1EDB69B 
 161      16BDBE
 162 0161 6E31D6E1 		.ascii	"n1\326\341\202E%\037h\316r\247\213X7\233\261x\014+\016"
 162      8245251F 
 162      68CE72A7 
 162      8B58379B 
 162      B1780C2B 
 163 0176 1DAC3D17 		.ascii	"\035\254=\027\015\265\220?f;#\370\012{\310\312%;\276"
 163      0DB5903F 
 163      663B23F8 
 163      0A7BC8CA 
 163      253BBE
 164 0189 A4785A1C 		.ascii	"\244xZ\034M\351\361*G\213\277:\342\350\343\302H.\014"
 164      4DE9F12A 
 164      478BBF3A 
 164      E2E8E3C2 
 164      482E0C
 165 019c B96AD4BA 		.ascii	"\271j\324\272\252q\336\212S\220\374\243\374h\004\227"
 165      AA71DE8A 
 165      5390FCA3 
 165      FC680497 
 166 01ac A91BC316 		.ascii	"\251\033\303\026B\360\223>TJn\250\211J\235\002\356\240"
 166      42F0933E 
 166      544A6EA8 
 166      894A9D02 
 166      EEA0
 167 01be 8451DBD8 		.ascii	"\204Q\333\330?\274\340\200}}pYU\371\354l\254\2274\235"
 167      3FBCE080 
 167      7D7D7059 
 167      55F9EC6C 
 167      AC97349D 
 168 01d2 7F8D4E6A 		.ascii	"\177\215Nj+\331L\000uvV=\215\212\3340\011\242\024\235"
 168      2BD94C00 
 168      7576563D 
 168      8D8ADC30 
 168      09A2149D 
 169 01e6 1C9E77B0 		.ascii	"\034\236w\260~\205\240\274\326\377\022D\235\252\334"
 169      7E85A0BC 
 169      D6FF1244 
 169      9DAADC
 170 01f5 CFFC7A55 		.ascii	"\317\374zUU\240\302$\367\226\253\203m\204\245\251\177"
 170      55A0C224 
 170      F796AB83 
 170      6D84A5A9 
 170      7F
 171 0206 AD73B90A 		.ascii	"\255s\271\012\021*\007`\276\335a\006\2338\247\327h\374"
 171      112A0760 
ARM GAS  /var/folders/c6/c789hm653lg9vtl73krp73tm0000gn/T//ccxnP4td.s 			page 13


 171      BEDD6106 
 171      9B38A7D7 
 171      68FC
 172 0218 089BC7D9 		.ascii	"\010\233\307\331@\215q\301\323\0036L\353lt\0116q\177"
 172      408D71C1 
 172      D303364C 
 172      EB6C7409 
 172      36717F
 173 022b FE5C9D8B 		.ascii	"\376\\\235\213W\334\361\355\035+\224\016{\026\243\016"
 173      57DCF1ED 
 173      1D2B940E 
 173      7B16A30E 
 174 023b E68EF685 		.ascii	"\346\216\366\205\263^\250\211R\243^\351\367l\177\215"
 174      B35EA889 
 174      52A35EE9 
 174      F76C7F8D 
 175 024b D250AD52 		.ascii	"\322P\255R\003\246/\332J\327\216N\320\275T\343,\251"
 175      03A62FDA 
 175      4AD78E4E 
 175      D0BD54E3 
 175      2CA9
 176 025d A6FD8DDB 		.ascii	"\246\375\215\333\205li\275W\275-\3165D'\204\346\370"
 176      856C69BD 
 176      57BD2DCE 
 176      35442784 
 176      E6F8
 177 026f D5E90C87 		.ascii	"\325\351\014\207-\365K\246\255T\306J\247\242Vt,\223"
 177      2DF54BA6 
 177      AD54C64A 
 177      A7A25674 
 177      2C93
 178 0281 0847E152 		.ascii	"\010G\341R\303\324x2\225I[Wo\015^\033|H\317D\223\251"
 178      C3D47832 
 178      95495B57 
 178      6F0D5E1B 
 178      7C48CF44 
 179 0297 91BB13FD 		.ascii	"\221\273\023\375\211\360\030\210Lb\\\334O>0\223\243"
 179      89F01888 
 179      4C625CDC 
 179      4F3E3093 
 179      A3
 180 02a8 A3E991CC 		.ascii	"\243\351\221\314_\3268]\237"
 180      5FD6385D 
 180      9F
 181              		.text
 182              		.section	.gnu.lto_.symbol_nodes.6392fcadba5778a1,"",%progbits
 183 0000 789C6362 		.ascii	"x\234cb`bHa\200\002\246\347\214\365\014\014\023\316"
 183      60624861 
 183      8002A6E7 
 183      8CF50C0C 
 183      13CE
 184 0012 3130D4D7 		.ascii	"10\324\327\317\353`dz\301X\317\210\304}\311X\317\204"
 184      CFEB6064 
 184      7AC158CF 
 184      88C47DC9 
 184      58CF84
 185 0025 E0B2BE66 		.ascii	"\340\262\276f\004\262\030\230\2361\3263#)z\305X\317"
ARM GAS  /var/folders/c6/c789hm653lg9vtl73krp73tm0000gn/T//ccxnP4td.s 			page 14


 185      04B21898 
 185      9E31D633 
 185      23297AC5 
 185      58CF
 186 0037 82E032B3 		.ascii	"\202\3402\26302<z\370\017H314\265\275\221g\000\000K"
 186      30323C7A 
 186      F80F4833 
 186      3134B5BD 
 186      91670000 
 187 004c 531F6A   		.ascii	"S\037j"
 188              		.text
 189              		.section	.gnu.lto_.refs.6392fcadba5778a1,"",%progbits
 190 0000 789C6362 		.ascii	"x\234cb`b\340f\200\000F&\006f&\026FfFf\006\000\001\267"
 190      6062E066 
 190      80004626 
 190      06662616 
 190      46664666 
 191 0018 0024     		.ascii	"\000$"
 192              		.text
 193              		.section	.gnu.lto_.decls.6392fcadba5778a1,"",%progbits
 194 0000 789CBD5C 		.ascii	"x\234\275\\\015t\024\325\275\237\231\335\354\007\204"
 194      0D7414D5 
 194      BD9F99DD 
 194      EC0784
 195 000f 80B45AB4 		.ascii	"\200\264Z\264T\343;\332\327\366\035M@[\361\274\036?"
 195      54E33BDA 
 195      D7F61D4D 
 195      405BF1BC 
 195      1E3F
 196 0021 4EA4CA29 		.ascii	"N\244\312) \007\360\225w\236v\0356\003Y\335\257\316"
 196      2007F095 
 196      779E761D 
 196      360359DD 
 196      AFCE
 197 0033 4E00FB7A 		.ascii	"N\000\373zN\207\240\021\021%F@\020\220\200\204\002\242"
 197      4E87A011 
 197      11254640 
 197      10908084 
 197      02A2
 198 0045 02916F4A 		.ascii	"\002\221oJF\221\020@\371\026B\220t\201\362\012}HC\020"
 198      46911040 
 198      F9164290 
 198      7481F20A 
 198      7D484310 
 199 0059 8580E4DD 		.ascii	"\205\200\344\335\373\2773\263sgg63\253}s2\377\235\257"
 199      FBBF33B3 
 199      73676736 
 199      33AB7D73 
 199      32FF9DAF 
 200 006d FBBBFFAF 		.ascii	"\373\273\377\257\373\277\377{\357L8\206c\376\3001L\027"
 200      FBBFFF7B 
 200      EF4C3886 
 200      63FEC031 
 200      4C17
 201 007f DA360F61 		.ascii	"\3326\017a\230X\200a|\014\303<\200vt\231\361\243=\310"
 201      98588061 
 201      7C0CC33C 
ARM GAS  /var/folders/c6/c789hm653lg9vtl73krp73tm0000gn/T//ccxnP4td.s 			page 15


 201      80767499 
 201      F1A33DC8 
 202 0093 90AD00ED 		.ascii	"\220\255\000\355\213\320\276\007\355\207\320~\024\355"
 202      8BD0BE07 
 202      ED87D07E 
 202      14ED
 203 00a1 C7D1CEA2 		.ascii	"\307\321\316\242\375\014Co\213\324\262+\321^\217\366"
 203      FD0C436F 
 203      8BD4B22B 
 203      D15E8FF6 
 204 00b1 25EAF966 		.ascii	"%\352\371f\264+*&\306{\007\355\353\320\276\001\355\233"
 204      B42B2A26 
 204      C67B07ED 
 204      EBD0BE01 
 204      ED9B
 205 00c3 D0DEA8E2 		.ascii	"\320\336\250\342-R\177w\233pq\335>\025\367N\304\340"
 205      2D527F77 
 205      9B7071DD 
 205      3E15F74E 
 205      C4E0
 206 00d5 8FD1FE24 		.ascii	"\217\321\376$\227\251\003\363|\027G\3608\365\371\247"
 206      97A903F3 
 206      7C1747F0 
 206      38F5F9A7 
 207 00e5 388275C0 		.ascii	"8\202u\300\204\205e\350m\3403h\302\014\242\375,\272"
 207      848565E8 
 207      6DE03368 
 207      C20CA2FD 
 207      2CBA
 208 00f7 C67304BB 		.ascii	"\306s\004\273\010\355\205\252\014\365\252\034\001\265"
 208      08ED85AA 
 208      0CF5AA1C 
 208      01B5
 209 0105 BE00DA8B 		.ascii	"\276\000\332\2138\"\303\006U\216u\252|\036\265.\314"
 209      3822C306 
 209      558E75AA 
 209      7C1EB52E 
 209      CC
 210 0116 C7588EF0 		.ascii	"\307X\216\360u\304BgG\325:\352\015u\351\274\231x1\352"
 210      75C44267 
 210      47D53AEA 
 210      0D75E9BC 
 210      997831EA 
 211 012a 3186AE2D 		.ascii	"1\206\256-V\237\325\370\260\322\253W\255\303hC+\333"
 211      569FD5F8 
 211      B0D2AB57 
 211      ADC36843 
 211      2BDB
 212 013c 1D57EB5E 		.ascii	"\035W\353^\311d\354o\245k\243>\024\325.\232\356\265"
 212      C964EC6F 
 212      A56BA33E 
 212      14D52E9A 
 212      EEB5
 213 014e 3A8D3A38 		.ascii	":\215:8n\322\301i\264\2372\325}\033\363\226\234nO\237"
 213      6ED2C169 
 213      B49F32D5 
 213      7D1BF396 
ARM GAS  /var/folders/c6/c789hm653lg9vtl73krp73tm0000gn/T//ccxnP4td.s 			page 16


 213      9C6E4F9F 
 214 0162 EE5875B3 		.ascii	"\356Xu\263\\W\245tu5\312,s\0233KF[]\265,\263\022\317"
 214      5C57A574 
 214      7535CA2C 
 214      7313334B 
 214      465B5DB5 
 215 017a 3E702333 		.ascii	">p#3\206\345\331\242 S\014\007\205A\020\015)\207]\314"
 215      86E5D9A2 
 215      20530C07 
 215      8541100D 
 215      29875DCC 
 216 018e DE04471E 		.ascii	"\336\004G\036\250\200\351\311L\223\345*\\\360\261\346"
 216      A880E9C9 
 216      4C93E52A 
 216      5CF0B1E6 
 217 019e A2BECC6B 		.ascii	"\242\276\314k\030\245x\352)$\264\012\240\260\032B?,"
 217      18A578EA 
 217      2924B40A 
 217      A0B01A42 
 217      3F2C
 218 01b0 24B34496 		.ascii	"$\263D\226k\322W/O\367\310r\200g\353\331\276\010\347"
 218      6BD2572F 
 218      4FF7C872 
 218      8067EBD9 
 218      BE08E7
 219 01c3 972CF333 		.ascii	"\227,\3633f9*Y#\313'\377\225e\262\267\356\2211o\313"
 219      66392A59 
 219      23CB27FF 
 219      9565B2B7 
 219      EE91316F 
 220 01d8 111ACF2E 		.ascii	"\021\032\317.c\177F\352\221\225\325M\205\262\227\\g"
 220      637F46EA 
 220      9195D54D 
 220      85B2975C 
 220      67
 221 01e9 D43B16DB 		.ascii	"\324;\026\333\355L\035\222Aih\232\2174\362\021\033d"
 221      ED4C1D92 
 221      4169689A 
 221      8F34F211 
 221      1B64
 222 01fb A6664462 		.ascii	"\246fDb,\025\241\212q\274\251i?;\005\251\214gW\242b"
 222      2C15A18A 
 222      71BCA969 
 222      3F3B05A9 
 222      8C6757A2 
 223 0210 1CF332CB 		.ascii	"\034\3632\313R\3258\207:2m\373\207l\025@\275\017P\351"
 223      52D53887 
 223      3A326DFB 
 223      876C1540 
 223      BD0F50E9 
 224 0224 BCA11A66 		.ascii	"\274\241\032fl\271\037\224\273\006\200\2328\032\210"
 224      6CB91F94 
 224      BB06809A 
 224      381A88
 225 0233 67FD41A3 		.ascii	"g\375A\243\364p\256=\200\321\340\266z\200\203Vo\346"
 225      F470AE3D 
 225      80D1E0B6 
ARM GAS  /var/folders/c6/c789hm653lg9vtl73krp73tm0000gn/T//ccxnP4td.s 			page 17


 225      7A808356 
 225      6FE6
 226 0245 9FFC38C7 		.ascii	"\237\3748\307\354\007\036\261\231\254\344R\017\311\246"
 226      EC071EB1 
 226      99ACE452 
 226      0FC9A6
 227 0254 3E40992E 		.ascii	">@\231.\335yf:\230N\263\303a\327x\305\224+\254k*\254"
 227      DD79663A 
 227      984EB3C3 
 227      61D778C5 
 227      942BAC6B 
 228 026a E135B0CF 		.ascii	"\3415\260\317\235\200\005l\231S6`0\027NU\375\231\346"
 228      9D80056C 
 228      99533660 
 228      30174E55 
 228      FD99E6
 229 027d 549BA1FE 		.ascii	"T\233\241\376\023Y\006\304\036\342Z\307g\\\213A\351"
 229      135906C4 
 229      1EE25AC7 
 229      675C8B41 
 229      E9
 230 028e 247DF5CB 		.ascii	"$}\365\313\351\367\277)+sJUQ\224jy*;yu\177\375\361\207"
 230      E9F7BF29 
 230      2B734A55 
 230      51946A79 
 230      2A3B7975 
 231 02a6 8C20BA30 		.ascii	"\214 \2720;4a\024\020\346\357\234\245[;\002;2m\257\326"
 231      3B346114 
 231      10E6EF9C 
 231      A55B3B02 
 231      3B326DAF 
 232 02bb 46B601D8 		.ascii	"F\266\001\330\305\374\301\352\032\366\366\307\241\241"
 232      C5FCC1EA 
 232      1AF6F6C7 
 232      A1A1
 233 02c9 0980AE65 		.ascii	"\011\200\256e\2518h\322p\220\326p0\2309\350\3226:p\375"
 233      A93868D2 
 233      7090D670 
 233      309839E8 
 233      D2363A70 
 234 02de 53CB70CC 		.ascii	"S\313p\314\213\036\2239)!\325\303>\026^i\265\031C'\317"
 234      8B1E9339 
 234      2921D5C3 
 234      3E165E69 
 234      B5194327 
 235 02f3 AE60EF44 		.ascii	"\256`\357D\364\035\366vD\327\001\335\000t\023\320FD"
 235      F41DF676 
 235      44D701DD 
 235      007413D0 
 235      4644
 236 0305 F5CDAE97 		.ascii	"\365\315\256\227X\302\366\314`?\341\321\237\347\230"
 236      58C2F6CC 
 236      603FE1D1 
 236      9FE798
 237 0314 5A0FADEA 		.ascii	"Z\017\255\352;\230\267e\271\026uG\315\005se\305K\212"
 237      3B98B765 
 237      B9167547 
ARM GAS  /var/folders/c6/c789hm653lg9vtl73krp73tm0000gn/T//ccxnP4td.s 			page 18


 237      CD057365 
 237      C54B8A
 238 0327 72CC2278 		.ascii	"r\314\"xl\021{\233e\025z\005?f\352q\277\360\212\374"
 238      6C117B9B 
 238      65157A05 
 238      3F66EA71 
 238      BFF08AFC 
 239 033b 421F16BA 		.ascii	"B\037\026\272-F-E\011\267\213\345\214\027H\017\250\034"
 239      2D462D45 
 239      09B78BE5 
 239      8C17480F 
 239      A81C
 240 034d DD3143EB 		.ascii	"\3351C\353\001\037R;6\216\251\247\330\203N\216c6{X#"
 240      011F523B 
 240      368EA9A7 
 240      D8834E8E 
 240      63367B58 
 241 0362 B3F245E1 		.ascii	"\263\362E\3411\302\001\317~\202\240yv\217C>\033\345"
 241      31C201CF 
 241      7E82A079 
 241      768F433E 
 241      1BE5
 242 0374 11FD7436 		.ascii	"\021\375t6\367\230\331\334k\311f\355\256\302\232\311"
 242      F798D9DC 
 242      6BC966ED 
 242      AEC29AC9 
 243 0384 E9AEAE85 		.ascii	"\351\256\256\205\305\032\217\037g\363\310\263\373\265"
 243      C51A8F1F 
 243      67F3C8B3 
 243      FBB5
 244 0392 C22A8F17 		.ascii	"\302*\217\027\314<\036\312\207\307Cf\036?\313\346\261"
 244      CC3C1ECA 
 244      87C74366 
 244      1E3FCBE6 
 244      B1
 245 03a3 2EAD3456 		.ascii	".\2554V\357fQ\235\327\272\272<.R\211V5\225\310x\010"
 245      EF66519D 
 245      D7BABA3C 
 245      2E528956 
 245      3595C878 
 246 03b8 C71C35B9 		.ascii	"\307\0345\271\207\316\226\274L\366\350l\0355\263u\314"
 246      87CE96BC 
 246      4CF6E86C 
 246      1D35B375 
 246      CC
 247 03c9 92ADCF76 		.ascii	"\222\255\317v\031,\354\234\2576:\305!\012\242N\230,"
 247      192CEC9C 
 247      AF363AC5 
 247      210AA24E 
 247      982C
 248 03db B73EE9C4 		.ascii	"\267>\351\304&_k6\341\230Nx\376xn\233\220b\312a\344"
 248      265F6B36 
 248      E1984E78 
 248      FE786E9B 
 248      9062CA61 
 249 03f0 01AC56B0 		.ascii	"\001\254V\260\313IAMkH\003\275\247=\255\253\355\270"
 249      CB49414D 
ARM GAS  /var/folders/c6/c789hm653lg9vtl73krp73tm0000gn/T//ccxnP4td.s 			page 19


 249      6B4803BD 
 249      A73DADAB 
 249      EDB8
 250 0402 596D2768 		.ascii	"Ym'h\265\375\013\263HN\327\244\347\236l~\211\375\260"
 250      B5FD0BB3 
 250      484ED7A4 
 250      E79E6C7E 
 250      89FDB0
 251 0415 5E566A90 		.ascii	"^Vj\220\256\332\331\256.\277e\372\365\224Vq\013\256"
 251      AEDAD9AE 
 251      2EBF65FA 
 251      F5945671 
 251      0BAE
 252 0427 518DD1F3 		.ascii	"Q\215\321\363N)\267n\222\345><{\026R\273]^\332\236\016"
 252      4E29B76E 
 252      92E53E3C 
 252      7B1652BB 
 252      5D5EDA9E 
 253 043c 9050F70D 		.ascii	"\220P\367\015\205\316\231\2629\304\327\276Is\000\373"
 253      85CE99B2 
 253      39C4D7BE 
 253      497300FB 
 254 044c 9C83844E 		.ascii	"\234\203\204NV\026\264\315gqV\240\325i\350x\323z\356"
 254      5616B4CD 
 254      677156A0 
 254      D569E878 
 254      D37AEE
 255 045f D8DFC8FB 		.ascii	"\330\337\310\373\345[\266\002~;\360\236\266\341\335"
 255      E55BB602 
 255      7E3BF09E 
 255      B6E1DD
 256 046e 168763BE 		.ascii	"\026\207c\276\200\"\027\2639W\236!\234_t\304\371\301"
 256      802217B3 
 256      39579E21 
 256      9C5F74C4 
 256      F9C1
 257 0480 565BCEAD 		.ascii	"V[\316\255:F\244\364[v\002\374\327\300\370Uk\306\353"
 257      3A46A4F4 
 257      5B7602FC 
 257      D7C0F855 
 257      6BC6EB
 258 0493 1EB2C341 		.ascii	"\036\262\303A\231k\001.\322\231\315\370\345\273\011"
 258      996B012E 
 258      D299CDF8 
 258      E5BB09
 259 04a2 E39D8E72 		.ascii	"\343\235\216r\350\013//\200D\254\333a\201\354\323\352"
 259      E80B2F2F 
 259      8044ACDB 
 259      6181ECD3 
 259      EA
 260 04b3 7F3A23C7 		.ascii	"\177:#\307\233\247.\373!s\355\0021\346\027t\357;4\016"
 260      9BA72EFB 
 260      2173ED02 
 260      31E61774 
 260      EF3B340E 
 261 04c7 8ADF50A6 		.ascii	"\212\337P\246\212\313v\235AD\016|\253{9\336xu\201\232"
 261      8ACB769D 
ARM GAS  /var/folders/c6/c789hm653lg9vtl73krp73tm0000gn/T//ccxnP4td.s 			page 20


 261      41440E7C 
 261      AB7B39DE 
 261      7875819A 
 262 04db 505E8756 		.ascii	"P^\207V\367\276\016\233W\202\252\274\271\007\022J\002"
 262      F7BE0E9B 
 262      5782AABC 
 262      B907124A 
 262      02
 263 04ec B6CE3558 		.ascii	"\266\3165X1\005\266p\217\353\201J\365\036-\015\233\306"
 263      3105B670 
 263      8FEB814A 
 263      F51E2D0D 
 263      9BC6
 264 04fe E184E7CF 		.ascii	"\341\204\347\317\005\337IN\271\335\211$\266\2511\264"
 264      05DF494E 
 264      B9DD8924 
 264      B6A931B4 
 265 050e 8BFB37AE 		.ascii	"\213\3737\256\221\345\227|\232\213\372\354$\341\230"
 265      91E5977C 
 265      9A8BFAEC 
 265      24E198
 266 051d 4FA0B219 		.ascii	"O\240\262\031f\323\036=\337\374Sb\332\031\216L\273v"
 266      66D31E3D 
 266      DFFC5362 
 266      DA198E4C 
 266      BB76
 267 052f D71BF62E 		.ascii	"\327\033\366.j\250\275\216\323\252\277\003\252\357\204"
 267      6AA8BD8E 
 267      D3AABF03 
 267      AAEF84
 268 053e EA679AAB 		.ascii	"\352g\232\253_\320\221~\200T?\323Q\365\013\017\314\314"
 268      5FD0917E 
 268      80543FD3 
 268      51F50B0F 
 268      CCCC
 269 0550 AEDEB63B 		.ascii	"\256\336\266;R\355w\364\374\231\376\013\241\2229\034"
 269      52ED77F4 
 269      FC99FE0B 
 269      A192391C 
 270 0560 F6A0553E 		.ascii	"\366\240U>\263\371\036\354i\254\013\316\015\017p\314"
 270      B3F91EEC 
 270      69AC0BCE 
 270      0D0F70CC 
 271 0570 469FC67D 		.ascii	"F\237\306}~#\254\005\035\312\220\345`)\215\207-\256"
 271      7E23AC05 
 271      1DCA90E5 
 271      60298D87 
 271      2DAE
 272 0582 11692F5E 		.ascii	"\021i/^s\000\232\004\001kt\002\226c\214\365\201\021"
 272      73009A04 
 272      016B7402 
 272      96638CF5 
 272      8111
 273 0594 EC23D760 		.ascii	"\354#\327`4g\353\214`\333\235\200Y\345\331\332\350\317"
 273      3467EB8C 
 273      60DB9D80 
 273      59E5D9DA 
ARM GAS  /var/folders/c6/c789hm653lg9vtl73krp73tm0000gn/T//ccxnP4td.s 			page 21


 273      E8CF
 274 05a6 08D6EC1A 		.ascii	"\010\326\354\032\214\346l\223\021l\267\023\260~\366"
 274      8CE66C93 
 274      116CB713 
 274      B07EF6
 275 05b5 9C6D3182 		.ascii	"\234m1\202\355u\015Fs\266\325\010v\320\011X\261\005"
 275      ED750D46 
 275      73B6D508 
 275      76D00958 
 275      B105
 276 05c7 67FA6697 		.ascii	"g\372f\227\232\275\316\351~\216\322\004\237\026\020"
 276      9ABDCEE9 
 276      7E8ED204 
 276      9F1610
 277 05d6 5CFA3493 		.ascii	"\\\3724\223\301h\365\271\215`\224\334\270c\271\177\223"
 277      C168F5B9 
 277      8D6094DC 
 277      B863B97F 
 277      93
 278 05e7 DA2E4874 		.ascii	"\332.HtO;A\314\3410\353\214]\305\031\327`\264Y\016a"
 278      4F3B41CC 
 278      E130EB8C 
 278      5DC519D7 
 278      60B4590E 
 279 05fc 302AD4A8 		.ascii	"0*\324\250\235F\272^\3517'\023\354\002\032\026\036\350"
 279      9D46BA5E 
 279      E9372713 
 279      EC021A16 
 279      1EE8
 280 060e 90C85623 		.ascii	"\220\310V#\313\234\376\260\334\257\237\365\263<\273"
 280      CB9CFEB0 
 280      DCAF9FF5 
 280      B33CBB
 281 061d 96C3A3C5 		.ascii	"\226\303\243\305u\\P\347\202\034kGd\270\332\356\263"
 281      755C50E7 
 281      821C6B47 
 281      64B8DAEE 
 281      B3
 282 062e 9AD60380 		.ascii	"\232\326\003\200\334E\355<\241\301\350\011\227\234\250"
 282      DC45ED3C 
 282      A1C1E809 
 282      979CA8
 283 063d 29475368 		.ascii	")GSh\267S\223\243y\011\024\235\177\264\002\242\363f"
 283      B75393A3 
 283      7909149D 
 283      7FB402A2 
 283      F366
 284 064f E85CAF65 		.ascii	"\350\\\257eE\347m\346\316\325\3410\337N\370MF\341_\364"
 284      45E76DE6 
 284      CED5E130 
 284      DF4EF84D 
 284      46E15FF4 
 285 0663 BB15DEEC 		.ascii	"\273\025\336\354\302g\376}\343{\262<\305g0wN\337\300"
 285      C267FE7D 
 285      E37BB23C 
 285      C5673077 
 285      4EDFC0
ARM GAS  /var/folders/c6/c789hm653lg9vtl73krp73tm0000gn/T//ccxnP4td.s 			page 22


 286 0676 339F9FE8 		.ascii	"3\237\237\350\363: s\255\337r*\306\001\324\221i\357"
 286      F33A2073 
 286      ADDF722A 
 286      C601D491 
 286      69EF
 287 0688 FE1B247D 		.ascii	"\376\033$}\333\000h^\336@\0153\336\032\004@M\000\364"
 287      DB00685E 
 287      DE400D33 
 287      DE1A0440 
 287      4D00F4
 288 069b B6DF6C05 		.ascii	"\266\337l\005\263\021X\332\010l0s\2205/\363\035>\313"
 288      B31158DA 
 288      086C3073 
 288      90352FF3 
 288      1D3ECB
 289 06ae 31EF9A2D 		.ascii	"1\357\232-F\211\223#>\352\026k\376\245k\213U\353\026"
 289      46899323 
 289      3EEA166B 
 289      FEA56B8B 
 289      55EB16
 290 06c1 DB0DFA59 		.ascii	"\333\015\372Y\233\245\237m\234;\005\2414\322\265 \001"
 290      9BA59F6D 
 290      9C3B05A1 
 290      34D2B520 
 290      01
 291 06d2 9320ED79 		.ascii	"\223 \355y\010\362\251&\310>\020d\373w \310\247\256"
 291      08F2A926 
 291      C83E1064 
 291      FB7720C8 
 291      A7AE
 292 06e4 05E96310 		.ascii	"\005\351c\020\004'\262\315\303I\"\373=\2466w\"\013\263"
 292      0427B2CD 
 292      C34922FB 
 292      3DA63677 
 292      220BB3
 293 06f7 28DCF7A8 		.ascii	"(\334\367\250,R\271\264\227-&\227\273\037\034\276~\300"
 293      2C52B9B4 
 293      972D2697 
 293      BB1F1CBE 
 293      7EC0
 294 0709 90FECBCE 		.ascii	"\220\376\313\316\326)\364\364\277\005Tv\310\252\221"
 294      D629F4F4 
 294      BF055476 
 294      C8AA91
 295 0718 39823AB2 		.ascii	"9\202:\262\353\343\325\352\034\3541\200j\315\033\252"
 295      EBE3D5EA 
 295      1CEC3180 
 295      6ACD1BAA 
 296 0728 61EF7AD2 		.ascii	"a\357z\322^\333\000\350d\226\031}&+\372h+\242S\\\323"
 296      5EDB00E8 
 296      6496197D 
 296      262BFA68 
 296      2BA2535C 
 297 073d 6588957F 		.ascii	"e\210\225\177T\257\340\023?\363\377^\216c\316\001\373"
 297      54AFE013 
 297      3FF3FF5E 
 297      8E63CE01 
ARM GAS  /var/folders/c6/c789hm653lg9vtl73krp73tm0000gn/T//ccxnP4td.s 			page 23


 297      FB
 298 074e D882F924 		.ascii	"\330\202\371$\3300\024\032\262QM$\210\221.~+\304*\245"
 298      D830141A 
 298      B2514D24 
 298      88912E7E 
 298      2BC42AA5 
 299 0762 B1561BC3 		.ascii	"\261V\033\303>\210S\211k\337\022\356\363\003\346>\322"
 299      3E885389 
 299      6BDF12EE 
 299      F303E63E 
 299      D2
 300 0773 3484E9B2 		.ascii	"4\204\351\262YZ\320')\322\375VB/y\006\222\304)\001\263"
 300      595AD027 
 300      29D2FD56 
 300      422F7906 
 300      92C42901 
 301 0788 BDAFB3A6 		.ascii	"\275\257\263\246A\314u\226\032\305\330\265\246\277\031"
 301      41CC7596 
 301      1AC5D8B5 
 301      A6BF19
 302 0797 7BC3D981 		.ascii	"{\303\331\201o%&\016I\277&\011]w\003\304\2475\264B\250"
 302      6F25260E 
 302      49BF2609 
 302      5D7703C4 
 302      A735B442 
 303 07ac 783E547C 		.ascii	"x>T|\336<>lx\373D\265\332`\316;\030 \312\312\261\323"
 303      DE3C3E6C 
 303      78FB44B5 
 303      DA60CE3B 
 303      1820CACA 
 304 07c2 41B9B650 		.ascii	"A\271\266P\233\312\331\251\243Z% \335\272"
 304      9BCAD9A9 
 304      A35A2520 
 304      DDBA
 305 07d0 95D22634 		.ascii	"\225\322&4\227\272\011\024\207\264@\361%\370\340\376"
 305      97BA0914 
 305      87B440F1 
 305      25F8E0FE 
 306 07e0 2C231D33 		.ascii	",#\0353\307VW\255\344\210Y\034\247\343<}\263s\202/\214"
 306      C75657AD 
 306      E488591C 
 306      A7E33C7D 
 306      B373822F 
 307 07f5 4E70FC5B 		.ascii	"Np\374[;\301\345\241\316\234@\326'\000\373@\315\177"
 307      3BC1E5A1 
 307      CE9C40D6 
 307      2700FB40 
 307      CD7F
 308 0807 859AAF9A 		.ascii	"\205\232\257\232\275`\363\237v\276\310N\006\305^u\344"
 308      BD60F39F 
 308      76BEC84E 
 308      06C55E75 
 308      E4
 309 0818 0597282F 		.ascii	"\005\227(/x%\250\241\346\343\005U\312\225\263;Y\200"
 309      7825A8A1 
 309      E6E30555 
 309      CA95B33B 
ARM GAS  /var/folders/c6/c789hm653lg9vtl73krp73tm0000gn/T//ccxnP4td.s 			page 24


 309      5980
 310 082a 23A38A59 		.ascii	"#\243\212Yf8\227\243\355k\310\251\334)\206\370\227r"
 310      663897A3 
 310      ED6BC8A9 
 310      DC2986F8 
 310      9772
 311 083c F434EEE6 		.ascii	"\3644\356\346\236\367`\231\026\004\315\256E4cp\255\214"
 311      9EF76099 
 311      1604CDAE 
 311      45346370 
 311      AD8C
 312 084e 1A79F61B 		.ascii	"\032y\366\033\030f\\\347\360\022\224\354\301\264\312"
 312      18665CE7 
 312      F01294EC 
 312      C1B4CA
 313 085d E360216A 		.ascii	"\343`!j\212\307\340\026\365\256\345.v\350}\235F\357"
 313      8AC7E016 
 313      F5AEE52E 
 313      76E87D9D 
 313      46EF
 314 086f 5B19FC76 		.ascii	"[\031\374v\3367\347\344\345ase\345y\217\2337\021\366"
 314      DE37E7E4 
 314      E5617365 
 314      E5798F9B 
 314      3711F6
 315 0882 EA137C1E 		.ascii	"\352\023|\036\334p\033\262\264\233\327\004_c\276\242"
 315      DC701BB2 
 315      B49BD704 
 315      5F63BEA2 
 316 0892 E81BC734 		.ascii	"\350\033\3074\005\035\214O\212-\264\256\367\214\355"
 316      051D8C4F 
 316      8A2DB4AE 
 316      F78CED
 317 08a1 C31D4E12 		.ascii	"\303\035N\022\352]M\363\315\315\320\325\324\200\253"
 317      EA5D4DF3 
 317      CDCDD0D5 
 317      D480AB
 318 08b0 ED3229C3 		.ascii	"\3552)\303\301d\343Q(\362\272'{\"_\235\017\307\267\272"
 318      C164E351 
 318      28F2BA27 
 318      7B225F9D 
 318      0FC7B7BA 
 319 08c4 9FED3BF8 		.ascii	"\237\355;\370\262q\036\231g\2539N\205\315W\237\224\011"
 319      B2711E99 
 319      67AB394E 
 319      85CD579F 
 319      9409
 320 08d6 33FCF1EC 		.ascii	"3\374\361\354,\017n \263\215\215\202c\316:\321\375O"
 320      2C0F6E20 
 320      B38D8D82 
 320      63CE3AD1 
 320      FD4F
 321 08e8 EC5C5156 		.ascii	"\354\\QV\256\034$\013\021Z \272h\306\263\012D\024\036"
 321      AE1C240B 
 321      115A20BA 
 321      68C6B30A 
 321      44141E
ARM GAS  /var/folders/c6/c789hm653lg9vtl73krp73tm0000gn/T//ccxnP4td.s 			page 25


 322 08fb 654BA5E6 		.ascii	"eK\245\3460Ln\220\004\347\272\023\346J\355\300\252\224"
 322      304C6E90 
 322      04E7BA13 
 322      E64AEDC0 
 322      AA94
 323 090d F9048C38 		.ascii	"\371\004\2148\374\363=\034\200\015\262\223\264J\331"
 323      FCF33D1C 
 323      800DB293 
 323      B44AD9
 324 091c 3C5BB354 		.ascii	"<[\263T'\244'3\\\343\321\314\035<<_\305#3\356s\235\340"
 324      27A42733 
 324      5CE3D1CC 
 324      1D3C3C5F 
 324      C52333EE 
 325 0933 3D64CFDF 		.ascii	"=d\317\337\205\331T6\267\3045\034m\210o\016c\303N\357"
 325      85D95436 
 325      B7C4351C 
 325      6D886F0E 
 325      63C34EEF 
 326 0947 A7BD82B5 		.ascii	"\247\275\202\265\322\214G\277]\245\036>\346\3303\253"
 326      D28C47BF 
 326      5DA51E3E 
 326      E6D833AB 
 327 0957 0CA1FB79 		.ascii	"\014\241\373y\010\335/@\350~\021\350K@_\005\372\036"
 327      08DD2F40 
 327      E87E11E8 
 327      4B405F05 
 327      FA1E
 328 0969 D05540D7 		.ascii	"\320U@\327\000\335\010\264\021\350.\240{\201\036\002"
 328      00DD08B4 
 328      11E82EA0 
 328      7B811E02 
 329 0979 3A0382FF 		.ascii	":\003\202\377\034\240o\002\235\017\364-\240u@\027\003"
 329      1CA06F02 
 329      9D0FF42D 
 329      A0754017 
 329      03
 330 098a 5DE2A483 		.ascii	"]\342\244\2030\345\230Z\023\355\314\367]$\345\242\251"
 330      30E5985A 
 330      13EDCCF7 
 330      5D24E5A2 
 330      A9
 331 099b C94F758D 		.ascii	"\311Ou\215W\234K\261\235\206\0275\256\301\213\032\337"
 331      579C4BB1 
 331      9D861735 
 331      AEC18B1A 
 331      DF
 332 09ac C06B194B 		.ascii	"\300k\031K\351\206\377A\017m!2\277\214\341\263V\332"
 332      E986FF41 
 332      0F6D2132 
 332      BF8CE1B3 
 332      56DA
 333 09be 7DB798F1 		.ascii	"}\267\230\361\\\245\014\262\322\322\012m\025O\326r\314"
 333      5CA50CB2 
 333      D2D20A6D 
 333      154FD672 
 333      CC
ARM GAS  /var/folders/c6/c789hm653lg9vtl73krp73tm0000gn/T//ccxnP4td.s 			page 26


 334 09cf 36D760C5 		.ascii	"6\327`\305\024s\177y\223^\235\333\351\004/\307\224k"
 334      14737F79 
 334      935E9DDB 
 334      E9042FC7 
 334      946B
 335 09e1 7BAB61CA 		.ascii	"{\253a\312u\277k0\232\271\257\214`G\235\200YMLZ\033"
 335      75BF6B30 
 335      9AB9AF8C 
 335      60479D80 
 335      594D4C5A 
 336 09f6 FFA2C1F8 		.ascii	"\377\242\301\370\227\300\370_\201\361\227\201\277\257"
 336      97C0F85F 
 336      81F19781 
 336      BFAF
 337 0a04 00BA12E8 		.ascii	"\000\272\022\350{@W\321Nq\252\207\266\256\256VF/_w\347"
 337      7B4057D1 
 337      4E71AA87 
 337      B6AEAE56 
 337      462F5F77 
 338 0a19 15B2B2D6 		.ascii	"\025\262\262\326~E\335*\337C\035q{\377\026\350.?\200"
 338      7E45DD2A 
 338      DF431D71 
 338      7BFF16E8 
 338      2E3F80
 339 0a2c 8EF86C8F 		.ascii	"\216\370l\217nW\324\315\011u\027\024Y\237\335\021\267"
 339      6E57D4CD 
 339      09751714 
 339      599FDD11 
 339      B7
 340 0a3d 844847BC 		.ascii	"\204HG\274\336QG|\345\215\034\013\323\306U?\275\372"
 340      DE51477C 
 340      E58D1C0B 
 340      D3C6553F 
 340      BDFA
 341 0a4f EF1BC568 		.ascii	"\357\033\305h\356O\326\327\267\200\030\263{v+\006\215"
 341      EE4FD6D7 
 341      B78018B3 
 341      7B762B06 
 341      8D
 342 0a60 C3314BA1 		.ascii	"\3031K\241H\243\205\030O\0211\032\035\211\261\361\015"
 342      48A38518 
 342      4F11311A 
 342      1D89B1F1 
 342      0D
 343 0a71 CDF3377B 		.ascii	"\315\3637{\260\177\255\327a\363\013V\233\216\200\263"
 343      B07FADD7 
 343      61F30B56 
 343      9B8E80B3 
 344 0a81 12B046D7 		.ascii	"\022\260F\327`\264\347\377\371\210\333u\351y\247Z\226"
 344      60B4E7FF 
 344      F988DB75 
 344      E979A75A 
 344      96
 345 0a92 AA83E31D 		.ascii	"\252\203\343\035\320\213\3570i6\317\264u\277\023I\354"
 345      D08BEF30 
 345      6936CFB4 
 345      75BF1349 
ARM GAS  /var/folders/c6/c789hm653lg9vtl73krp73tm0000gn/T//ccxnP4td.s 			page 27


 345      EC
 346 0aa3 073878FC 		.ascii	"\0078x\374\367\324\306\354\361\237\363W\210>\365\230"
 346      F7D4C6EC 
 346      F19FF357 
 346      883EF598 
 347 0ab3 5E2182F5 		.ascii	"^!\202\365X\303\033C9\225\222\376\3412\360\211O\300"
 347      58C31B43 
 347      399592FE 
 347      E132F089 
 347      4FC0
 348 0ac5 2CAD269D 		.ascii	",\255&\235\230\246]pUvl\354\367\364\264q\251\254{(:"
 348      98A65D70 
 348      55766CEC 
 348      F7F4B471 
 348      A9AC7B28 
 349 0ada B8561A65 		.ascii	"\270V\032e~<\007\372[m)\014r\224\377u\002\350\374\025"
 349      7E3C07FA 
 349      5B6D290C 
 349      7294FF75 
 349      02E8FC15 
 350 0aee C54643B2 		.ascii	"\305FC\262\373!$\273\037A\220\373\030h\023\320\335@"
 350      FB2124BB 
 350      1F4190FB 
 350      186813D0 
 350      DD40
 351 0b00 0F3AE9F8 		.ascii	"\017:\351\3707{\014\257(n\363pj\224\311\257\035]\313"
 351      377B0CAF 
 351      286EF370 
 351      6A94C9AF 
 351      1D5DCB
 352 0b13 B4239EDD 		.ascii	"\264#\236\335\356\032\214R\244\362\232\336\367\342F"
 352      EE1A8C52 
 352      A4F29ADE 
 352      F7E246
 353 0b22 81722027 		.ascii	"\201r 'x9\206\353\253H\217DZXGO\326%Xq.\243\2547\030"
 353      783986EB 
 353      AB488F44 
 353      5A58474F 
 353      D6255871 
 354 0b3b 65231865 		.ascii	"e#\030e\023\230\3403\240\207\201\036\241{\241\353=M"
 354      1398E033 
 354      A087811E 
 354      A17BA1EB 
 354      3D4D
 355 0b4d BD101DF2 		.ascii	"\275\020\035\362\255:E\243~de\313okx\253\220\373\260"
 355      AD3A45A3 
 355      7E6465CB 
 355      6F6B78AB 
 355      90FBB0
 356 0b60 567626F5 		.ascii	"Vv&\365nT\313\217\310X\360\030\304\356\027\012\273\217"
 356      6E54CB8F 
 356      C858F018 
 356      C4EE170A 
 356      BB8F
 357 0b72 DD3410C7 		.ascii	"\3354\020\307\314\2042m\331\301{_\224\004\357\266\356"
 357      CC84326D 
 357      D9C17B5F 
ARM GAS  /var/folders/c6/c789hm653lg9vtl73krp73tm0000gn/T//ccxnP4td.s 			page 28


 357      9404EFB6 
 357      EE
 358 0b83 83F7F353 		.ascii	"\203\367\363S\224\265\363\226f\372\240)z\003\376\000"
 358      94B5F396 
 358      66FAA029 
 358      7A03FE00 
 359 0b93 2558764E 		.ascii	"%XvNJ\255r.\321\331\310\307Ie\245\361\230\346Wdr\357"
 359      4AAD722E 
 359      D1D9C8C7 
 359      4965A5F1 
 359      98E65764 
 360 0ba9 3DD778B4 		.ascii	"=\327x\264\035\016\037\003\277\"`\353\234\200\345H\020"
 360      1D0E1F03 
 360      BF2260EB 
 360      9C80E548 
 360      10
 361 0bba 3BFECBD2 		.ascii	";\376\313\322\250\212\236\267N5\030\265\353\324\211"
 361      A88A9EB7 
 361      4E3518B5 
 361      EBD489
 362 0bc9 5BC96CC7 		.ascii	"[\311l\307Y0\352\211\356\215j\002\302\312=g2\250\262"
 362      5930EA89 
 362      EE8D6A02 
 362      C2CA3D67 
 362      32A8B2
 363 0bdc 70077C2E 		.ascii	"p\007|.r\316QW\274~\207\246\315\002\230\255\007\026"
 363      72CE5157 
 363      BC7E87A6 
 363      CD0298AD 
 363      0716
 364 0bee CEE51D41 		.ascii	"\316\345\035A\032_t\226\240X\316\253\315\332\201\347"
 364      1A5F7496 
 364      A058CEAB 
 364      CDDA81E7 
 365 0bfe D53A4017 		.ascii	"\325:@\027W\273\327\005\215\201E\275dV\305A\362\345"
 365      57BBD705 
 365      8D8145BD 
 365      6456C541 
 365      F2E5
 366 0c10 CC2547AA 		.ascii	"\314%G\2528\326d\014X\0343\255\027\253b\3469\204\252"
 366      38D6640C 
 366      581C33AD 
 366      17AB62E6 
 366      3984AA
 367 0c23 A6F3FB5A 		.ascii	"\246\363\373Z\327x\305\024^'\371\234\003:\2459N\260"
 367      D778C514 
 367      5E27F99C 
 367      033AA539 
 367      4EB0
 368 0c35 7204D3D7 		.ascii	"r\004\323\327w\314\377\201\234VXm\275z\261\031\317j"
 368      77CCFF81 
 368      9C56586D 
 368      BD7AB119 
 368      CF6A
 369 0c47 E5D0793C 		.ascii	"\345\320y<\275d\210\247_A<\375\032b\350\025\240W\201"
 369      BD6488A7 
 369      5F413CFD 
ARM GAS  /var/folders/c6/c789hm653lg9vtl73krp73tm0000gn/T//ccxnP4td.s 			page 29


 369      1A62E815 
 369      A05781
 370 0c5a 7EE3A47B 		.ascii	"~\343\244{\273`\234\370|\247\227[\3474*\020\265\364"
 370      BB609CF8 
 370      7CA7975B 
 370      E7342A10 
 370      B5F4
 371 0c6c 476BF81B 		.ascii	"Gk\370\033\230\032\325\217\210\247i\276\244\267+YkW"
 371      981AD58F 
 371      88A769BE 
 371      A4B72B59 
 371      6B57
 372 0c7e 93BD37C0 		.ascii	"\223\2757\300\021\265\356\000\217\3301[\345\315\274"
 372      11B5EE00 
 372      8FD8315B 
 372      E5CDBC
 373 0c8d 025218CC 		.ascii	"\002R\030\314\034<\250K\260\306,\201\251\336\034\206"
 373      1C3CA84B 
 373      B0C62C81 
 373      A9DE1C86 
 374 0c9d B356F439 		.ascii	"\263V\3649\203\242\277\000E\237\007\345\266\003\225"
 374      83A2BF00 
 374      459F07E5 
 374      B60395
 375 0cac BD5497B5 		.ascii	"\275T\227\265\245\227)\270\231\242\211k3\267\031jOC"
 375      A59729B8 
 375      99A2896B 
 375      33B7196A 
 375      4F43
 376 0cbe ED27A0DE 		.ascii	"\355'\240\336\277\002\375\037\240g\350nsg/S\267i\352"
 376      BF02FD1F 
 376      A067E86E 
 376      73672F53 
 376      B769EA
 377 0cd1 A6D463FB 		.ascii	"\246\324c\373\311\267\364\234\223\373~?\031\177\301"
 377      C9B7F49C 
 377      93FB7E3F 
 377      197FC1
 378 0ce0 A3BD60FB 		.ascii	"\243\275`\373\251\031\222~\233V=TrD\355\266\266B=lw"
 378      A919927E 
 378      9B563D54 
 378      7244EDB6 
 378      B6423D6C 
 379 0cf5 3B2D7BF5 		.ascii	";-{\365\313\037\342\230\362\222\027\327\335\322\313"
 379      CB1FE298 
 379      F29217D7 
 379      DDD2CB
 380 0d04 E59C2C56 		.ascii	"\345\234,V\333t\257)L]\020\212\311U\007#\300\323\352"
 380      DB74AF29 
 380      4C5D108A 
 380      C9550723 
 380      C0D3EA
 381 0d17 1A08F9AA 		.ascii	"\032\010\371\252\353,\324\217\213\272\214Q\326\006\315"
 381      EB2CD48F 
 381      8BBA8C51 
 381      D606CD
 382 0d26 70C6B3AF 		.ascii	"p\306\263\257x\261A_\245]\250\335\254k\253\372\3522"
ARM GAS  /var/folders/c6/c789hm653lg9vtl73krp73tm0000gn/T//ccxnP4td.s 			page 30


 382      78B1415F 
 382      A55DA8DD 
 382      AC6BABFA 
 382      EA32
 383 0d38 CDC0AC6A 		.ascii	"\315\300\254jd\2753\377\015\326\263|\205\336\243A\014"
 383      64BD33FF 
 383      0DD6B37C 
 383      85DEA341 
 383      0C
 384 0d49 CAE8FBC8 		.ascii	"\312\350\373\310?\256\334\007\013\354\265\240\361YE"
 384      3FAEDC07 
 384      0BECB5A0 
 384      F15945
 385 0d58 D61D833D 		.ascii	"\326\035\203=\016\026l\226\245\312g9R\371EM\345\344"
 385      0E166C96 
 385      A5CA6739 
 385      52F9454D 
 385      E5E4
 386 0d6a 43B625C0 		.ascii	"C\266%\300\300,\367*W\341\276\024\232K5\254\025\256"
 386      C02CF72A 
 386      57E1BE14 
 386      9A4B35AC 
 386      15AE
 387 0d7c B18A8DDA 		.ascii	"\261\212\215\332T\276*\230:\305\247M~6\230\301,'?s4"
 387      54BE2A98 
 387      3AC5A74D 
 387      7E3698C1 
 387      2C273F73 
 388 0d91 834E23DA 		.ascii	"\203N#\332VGh\305\216]k\226\301\265f\203k\275\341\305"
 388      564768C5 
 388      8E5D6B96 
 388      C1B56683 
 388      6BBDE1C5 
 389 0da5 F1612ED0 		.ascii	"\361a.\320y@\027\320\316\266\263\310\344l\264]\325\303"
 389      794017D0 
 389      CEB6B3C8 
 389      E46CB45D 
 389      D5C3
 390 0db7 6539BC6D 		.ascii	"e9\274m\356\311\226?\274.\313H,-\356#7!/\270i\220\275"
 390      EEC9963F 
 390      BC2ECB48 
 390      2C2DEE23 
 390      37212FB8 
 391 0dce 359CCBAC 		.ascii	"5\234\313\254\312\351\"\327\201\177\261M\340\277U\027"
 391      CAE922D7 
 391      817FB14D 
 391      E0BF5517 
 392 0dde E5709628 		.ascii	"\345p\226(t\275\352q\332J\026k}\2363L\242\235\207I\264"
 392      74BDEA71 
 392      DA4A166B 
 392      7D9E334C 
 392      A29D8749 
 393 0df3 7FC0245A 		.ascii	"\177\300$Z\003D\335V\240\325\240\325\251@_\003ZGk\370"
 393      0344DD56 
 393      A0D5A0D5 
 393      A9405F03 
 393      5A476BF8 
ARM GAS  /var/folders/c6/c789hm653lg9vtl73krp73tm0000gn/T//ccxnP4td.s 			page 31


 394 0e07 B4DE9834 		.ascii	"\264\336\2304\266\350\217X\340S\034\257\376u\015hdJ"
 394      B6E88F58 
 394      E0531CAF 
 394      FE750D68 
 394      644A
 395 0e19 CE29119E 		.ascii	"\316)\021\236]\005\314t?\277a\365\035J\201\006\365$"
 395      5D05CC74 
 395      3FBF61F5 
 395      1D4A8106 
 395      F524
 396 0e2b A3B7FF55 		.ascii	"\243\267\377U__\331\255.:/\205\010P\333\273\333\324"
 396      5F5FD9AD 
 396      2E3A2F85 
 396      0850DBBB 
 396      DBD4
 397 0e3d 9006822F 		.ascii	"\220\006\202/\003\315\001`AG3\013aey\367A\000\215zV"
 397      03CD0160 
 397      4147330B 
 397      616579F7 
 397      41008D7A 
 398 0e52 773473B0 		.ascii	"w4s\260\232\211\332\207\027\336\360\003.\226\347\027"
 398      9A89DA87 
 398      17DEF003 
 398      2E96E717 
 399 0e62 0610E01A 		.ascii	"\006\020\340\032\\?\216*\004\256\3165\\1\005\367\001"
 399      5C3F8E2A 
 399      04AECE35 
 399      5C3105F7 
 399      01
 400 0e73 0DF72727 		.ascii	"\015\367''pv\241\000\301\255\243\341\336s\015Gs\267"
 400      7076A100 
 400      C1ADA3E1 
 400      DE730D47 
 400      73B7
 401 0e85 81865BEB 		.ascii	"\201\206[\353\004\316n\246\033\301m\242\341\266\272"
 401      04CE6EA6 
 401      1BC16DA2 
 401      E1B6BA
 402 0e94 86A3B9DB 		.ascii	"\206\243\271\333B\303mw\002g\367\032\356\314)\312V\002"
 402      42C36D77 
 402      0267F71A 
 402      EECC29CA 
 402      5602
 403 0ea6 A73716E5 		.ascii	"\2477\026\345;h,(\313q\315\025-\344>Z\310\003N\340\212"
 403      3B682C28 
 403      CB71CD15 
 403      2DE43E5A 
 403      C8034EE0 
 404 0ebb ED4D7080 		.ascii	"\355Mp\200\206kq\015Gsw\210\206ks\002\227c\301\3670"
 404      866B710D 
 404      47737788 
 404      866B7302 
 404      9763C1F7 
 405 0ed0 8153833E 		.ascii	"\201S\203>\316\306\310\024\254]\000\337\346:\344\177"
 405      CEC6C814 
 405      AC5D00DF 
 405      E63AE47F 
ARM GAS  /var/folders/c6/c789hm653lg9vtl73krp73tm0000gn/T//ccxnP4td.s 			page 32


 406 0ee0 6C13F2B5 		.ascii	"l\023\362\265\215c\316\270\226\201VI\013\255\222\016"
 406      8D63CEB8 
 406      96815649 
 406      0BAD920E 
 407 0ef0 2770D432 		.ascii	"'p\32423m\260V\032\356\262k8\232\273\317i\270\353N\340"
 407      336DB056 
 407      1AEEB26B 
 407      389ABBCF 
 407      69B8EB4E 
 408 0f05 6CD7AD51 		.ascii	"l\327\255Q\006\256\301aKp\314\324>n\341h\356\332i\356"
 408      06AEC161 
 408      4B70CCD4 
 408      3E6EE168 
 408      EEDA69EE 
 409 0f19 6A9DC03D 		.ascii	"j\235\300=d\257\273\016\032n\216k8\232\273/i\270\267"
 409      64AFBB0E 
 409      1A6E8E6B 
 409      389ABB2F 
 409      69B8B7
 410 0f2c 9CC059AD 		.ascii	"\234\300Y\255YkI \255\273e\256\341h\356.\323\334\255"
 410      596B4920 
 410      ADBB65AE 
 410      E168EE2E 
 410      D3DCAD
 411 0f3f 710237C2 		.ascii	"q\0027\302^w\2354\334\006\327p4w\327L\241\337\011\334"
 411      5E779D34 
 411      DC06D770 
 411      3477D74C 
 411      A1DF09DC 
 412 0f53 180BEEAC 		.ascii	"\030\013\356\2546c\226\300\263+ I}\007\322\246w\201"
 412      366396C0 
 412      B32B2049 
 412      7D07D2A6 
 412      7781
 413 0f65 BE0F7435 		.ascii	"\276\017t5\320\006\240k\201\256\007\272\021\350\026"
 413      D006A06B 
 413      81AE07BA 
 413      11E816
 414 0f74 A05B812A 		.ascii	"\240[\201*@?\002\332\004\264\031\350.\240\237\000\335"
 414      403F02DA 
 414      04B419E8 
 414      2EA09F00 
 414      DD
 415 0f85 03741FD0 		.ascii	"\003t\037\320\003@\017\001=\014\264\005h\2531i3\255"
 415      03400F01 
 415      3D0CB405 
 415      68AB3169 
 415      33AD
 416 0f97 9B2CB511 		.ascii	"\233,\265\021\035K\363\271W"
 416      1D4BF3B9 
 416      57
 417 0fa0 9F3CC19F 		.ascii	"\237<\301\237\222+\355\351\005\035\373\246\263\027\352"
 417      922BEDE9 
 417      051DFBA6 
 417      B317EA
 418 0faf AB65FC2D 		.ascii	"\253e\374-\376\037\027*}LkA+s\304\3106o\366w\356\315"
 418      FE1F172A 
ARM GAS  /var/folders/c6/c789hm653lg9vtl73krp73tm0000gn/T//ccxnP4td.s 			page 33


 418      7D4C6B41 
 418      2B73C4C8 
 418      366FF677 
 419 0fc5 7DE8544C 		.ascii	"}\350TL\375b\273J^\263L\016\0228\370b\333k\375\235\267"
 419      FD62BB4A 
 419      5EB34C0E 
 419      1238F862 
 419      DB6BFD9D 
 420 0fda 8AF7172F 		.ascii	"\212\367\027/\365\375\266I\302\2636\203M\370\362;K\302"
 420      F5FDB649 
 420      C2B33683 
 420      4DF8F23B 
 420      4BC2
 421 0fec FA79B3F5 		.ascii	"\372y\263\365\177\010t\273\213\257\345Oys}-O\004\311"
 421      7F0874BB 
 421      8BAFE54F 
 421      79737D2D 
 421      4F04C9
 422 0fff 3A       		.ascii	":"
 423 1000 377F3D6F 		.ascii	"7\177=o\322\206\372\275\374~\363\37708i\243\016\372"
 423      D286FABD 
 423      FC7EF3FF 
 423      303869A3 
 423      0EFA
 424 1012 7BF9E3AB 		.ascii	"{\371\343\253w\261r_m\240\377w\300\266/\011\034\251"
 424      77B1725F 
 424      6DA0FF77 
 424      C0B62F09 
 424      1CA9
 425 1024 25DB7085 		.ascii	"%\333p\205+\341k\201\031\336\334\025\252\202\250\337"
 425      2BE16B81 
 425      19DEDC15 
 425      AA82A8DF 
 426 1034 D91F5B3D 		.ascii	"\331\037[=\271\216\225}\372\227\366\270\034\325>\376"
 426      B98E957D 
 426      FA97F6B8 
 426      1CD53EFE 
 427 1044 96D352F8 		.ascii	"\226\323R\370\377:\330\351\367\213\214\245\230[\356"
 427      FF3AD8E9 
 427      F78B8CA5 
 427      985BEE
 428 1053 BEBB84FC 		.ascii	"\276\273\204\374%R%\242T\222\022\303%\341\012)vw\230"
 428      255225A2 
 428      549212C3 
 428      25E10A29 
 428      767798
 429 1066 B9D5742B 		.ascii	"\271\325t+\022\017G+\313\005r\273\202\351+EbB(&\360"
 429      120F472B 
 429      CB0572BB 
 429      82E92B45 
 429      62422826 
 430 107b A94A5188 		.ascii	"\251JQ\210\011q)$\371\036\035\376Dq\031s\257\251`2!"
 430      09712924 
 430      F91E1DFE 
 430      44711973 
 430      AFA96032 
 431 1090 4AA99287 		.ascii	"J\251\222\207G\016+\0336\251$\234\210%#QAL\225<ZV\206"
ARM GAS  /var/folders/c6/c789hm653lg9vtl73krp73tm0000gn/T//ccxnP4td.s 			page 34


 431      470E2B1B 
 431      36A9249C 
 431      88252351 
 431      414C953C 
 432 10a7 B19E4B0A 		.ascii	"\261\236K\012)\004\347\027\2450\306\030ZR\231\022K\242"
 432      2904E717 
 432      A530C618 
 432      5A529912 
 432      4BA2
 433 10b9 89301F2D 		.ascii	"\2110\037-)\023\242Q^,\031\037\016\337\305\213\261\273"
 433      2913A251 
 433      5E2C191F 
 433      0EDFC58B 
 433      B1BB
 434 10cb E289B870 		.ascii	"\342\211\270p\227\300\217\215\224\014,\035po\351\240"
 434      97C08F8D 
 434      940C2C1D 
 434      706FE9A0 
 435 10db D29F97D0 		.ascii	"\322\237\227\320\2275\016SRy$.!\320@%\372\275g`Hz\362"
 435      97350E53 
 435      5279242E 
 435      21D04025 
 435      FABD6760 
 436 10f2 3B408DF1 		.ascii	";@\215\361\341\212H\\(\011\225\013\343\370\312(\342"
 436      E18A485C 
 436      2809950B 
 436      E3F8CA28 
 436      E2
 437 1103 5565BD47 		.ascii	"Ue\275G(\244\325\343\035+\244\244\202\211\0111%y\243"
 437      28A4D5E3 
 437      1D2BA4A4 
 437      82890931 
 437      2579A3
 438 1116 7C4AF255 		.ascii	"|J\362U\202Pl< J\240/\011X\372\305\275!I-\005\207\341"
 438      82506C3C 
 438      204AA02F 
 438      0958FAC5 
 438      BD21492D 
 439 112d CA586594 		.ascii	"\312Xe\224\227\"\023\204\242p\305\350a\217\217}F\010"
 439      97221384 
 439      A270C5E8 
 439      618F8F7D 
 439      4608
 440 113f 4B43E211 		.ascii	"KC\342\021\311#\305\2227\342K\243$^\224\206e\224=&\020"
 440      C923C592 
 440      37E24BA3 
 440      245E9486 
 440      65943D26 
 441 1154 4F44E251 		.ascii	"OD\342Q\304\317\367\311\355D\222\272\033\222b\241\010"
 441      C4CFF7C9 
 441      ED4492BA 
 441      1B9262A1 
 441      08
 442 1165 02F801BE 		.ascii	"\002\370\001\276[V\301G\342\206\333\243\023c\274\010"
 442      5B56C147 
 442      E286DBA3 
 442      1363BC08 
ARM GAS  /var/folders/c6/c789hm653lg9vtl73krp73tm0000gn/T//ccxnP4td.s 			page 35


 443 1175 78002603 		.ascii	"x\000&\003\213m\315\234\012W\224#\361\356\260\177\340"
 443      8B6DCD9C 
 443      0A579423 
 443      F1EEB07F 
 443      E0
 444 1186 B994A683 		.ascii	"\271\224\246\203\236\341\212\020>\025b!)\250\037\027"
 444      9EE18A10 
 444      3E156221 
 444      29A81F17 
 445 1196 8A025FFE 		.ascii	"\212\002_\376\\(\032I!%\364B\2273\347\275\245\012|\222"
 445      5C281A49 
 445      2125F442 
 445      9733E7BD 
 445      A50A7C92 
 446 11aa 0AFDAE52 		.ascii	"\012\375\256R\250Dz\351\203\356R\227\002\344\214\300"
 446      A8447AE9 
 446      83EE5297 
 446      02E48CC0 
 447 11ba 91635F32 		.ascii	"\221c_2\024\027&I\350')\012\023\374RR\214$B\3444\222"
 447      14172649 
 447      E827290A 
 447      13FC5252 
 447      8C2442E4 
 448 11d0 F0871371 		.ascii	"\360\207\023q\011\335\2753\247\367U\204\023\242\200"
 448      09DDBD33 
 448      A7F75584 
 448      13A280
 449 11df F9C59791 		.ascii	"\371\305\227\221\206\244\2604\351\247\335\227\010M\270"
 449      86A4B034 
 449      E9A7DD97 
 449      084DB8
 450 11ee 0FFB7C40 		.ascii	"\017\373|@\024\306#\347\010I\234x/'\376\234\023\177"
 450      14C623E7 
 450      08499C78 
 450      2F27FE9C 
 450      137F
 451 1200 C189F771 		.ascii	"\301\211\367q\342 N\274\337#\016(E\373\000.*\242\237"
 451      E2204EBC 
 451      DF230E28 
 451      45FB002E 
 451      2AA29F
 452 1213 7B0A9221 		.ascii	"{\012\222!\204\354\307\014O\024D\364\233\210\226\013"
 452      84ECC70C 
 452      4F1444F4 
 452      9B88960B 
 453 1223 A2375CC1 		.ascii	"\2427\\\301\213X\012>&\364HI\317\362\321\310\3708\262"
 453      8B580A3E 
 453      26F44849 
 453      CFF2D1C8 
 453      F838B2
 454 1236 7F32844E 		.ascii	"\1772\204N\242\221XD\012H)\211\227\220>\374\3309\006"
 454      A2915844 
 454      0A482989 
 454      97903EFC 
 454      D83906
 455 1249 21E9899B 		.ascii	"!\351\211\233\240#?~\012\335\363K\261D\271\000\347\343"
 455      A0233F7E 
ARM GAS  /var/folders/c6/c789hm653lg9vtl73krp73tm0000gn/T//ccxnP4td.s 			page 36


 455      0ADDF34B 
 455      B144B900 
 455      E7E3
 456 125b A2FCF894 		.ascii	"\242\374\370\224_\022\205q)\320\003>(\210\245\306\243"
 456      5F128571 
 456      29D0033E 
 456      2888A5C6 
 456      A3
 457 126c 9BAA43A2 		.ascii	"\233\252C\242\342\352\221O,\177\016\335\012\010\223"
 457      E2EA914F 
 457      2C7F0EDD 
 457      0A0893
 458 127b 22521801 		.ascii	"\"R\030\001\370&J\211\261\317$\373\252jFE\005Q\210\207"
 458      F8264A89 
 458      B1CF24FB 
 458      AA6A4645 
 458      05518887 
 459 128f 1170C144 		.ascii	"\021p\301DI\022\223\205\330\212B\214OV \371o\263\367"
 459      49129385 
 459      D88A428C 
 459      4F5620F9 
 459      6FB3F7
 460 12a2 01012BC6 		.ascii	"\001\001+\306\257\032\255\000\334\275 \025B\277\250"
 460      AF1AAD00 
 460      DCBD2015 
 460      42BFA8
 461 12b1 02743319 		.ascii	"\002t3\031@8\261Jd\031{\214\2304\011c\304\010\006\372"
 461      4038B14A 
 461      64197B8C 
 461      98340963 
 461      C40806FA 
 462 12c5 4D4C8C23 		.ascii	"ML\214#\245A)\304x\214X}\242\204\236K\366\024& \017"
 462      A54129C4 
 462      788C587D 
 462      A2849E4B 
 462      F6142620 
 463 12da 8EF1A967 		.ascii	"\216\361\251g\321\035a\">\360$C\225E\232\357\020_\353"
 463      D11D6122 
 463      3EF02443 
 463      95459AEF 
 463      105FEB
 464 12ed 6DF0267C 		.ascii	"m\360&|%\230\014M\344#R$>\036\351\032i\2010\013\207"
 464      25980C4D 
 464      E4235224 
 464      3E1EE91A 
 464      6981300B 
 465 1302 E8829014 		.ascii	"\350\202\220\024\342(b\214GO\241*\360\363=\260.\371"
 465      E228628C 
 465      474FA12A 
 465      F0F33DB0 
 465      2EF9
 466 1314 28F815BA 		.ascii	"(\370\025\272\230L$\242\252\372S~\221\260\351\023\301"
 466      984C24A2 
 466      AAFA537E 
 466      91B0E913 
 466      C1
 467 1325 ED0A4430 		.ascii	"\355\012D0\264\250\032Z$\206\016\242\253\225\"\322\247"
ARM GAS  /var/folders/c6/c789hm653lg9vtl73krp73tm0000gn/T//ccxnP4td.s 			page 37


 467      B4A81A5A 
 467      24860EA2 
 467      AB9522D2 
 467      A7
 468 1336 542062BC 		.ascii	"T b\274\033'DD\251\222\217\206p\020\0205.oB\\Z\334\350"
 468      1B274444 
 468      A9928F86 
 468      70101035 
 468      2E6F425C 
 469 134d 4D5D234D 		.ascii	"M]#M\203\272\344\237 \201J\360/n\011A\334\332HtAW\312"
 469      83BAE49F 
 469      20814AF0 
 469      2F6E0941 
 469      DCDA4874 
 470 1364 85A8C4A3 		.ascii	"\205\250\304\243\203q\225\361p\010\236\301G>\374,/\366"
 470      837195F1 
 470      70089EC1 
 470      473EFC2C 
 470      2FF6
 471 1376 443F3830 		.ascii	"D?80\341\307\321%\\]\221\332n\313\205\261\225\343\211"
 471      E1C7D125 
 471      5C5D91DA 
 471      6ECB85B1 
 471      95E389
 472 1389 EA8C5782 		.ascii	"\352\214W\202I>\036\011cM\371#)\021\0336\200\342\350"
 472      493E1E09 
 472      634DF923 
 472      29111B36 
 472      80E2E8
 473 139c B3F8E076 		.ascii	"\263\370\340v[\213BId\323\033\260\035D\036y\325\330"
 473      5B8B4249 
 473      64D31BB0 
 473      1D441E79 
 473      D5D8
 474 13ae CA71E3B0 		.ascii	"\312q\343\2600~il(\025\371=\016t\241\324\304p\010\314"
 474      307E696C 
 474      2815F93D 
 474      0E74A1D4 
 474      C47008CC 
 475 13c2 892EA704 		.ascii	"\211.\247\004\220\255\000\377&\203\210\022\367\014\240"
 475      90AD00FF 
 475      26838812 
 475      F70CA0
 476 13d1 23F07A1F 		.ascii	"#\360z\037*\227\224\304 \372!P\205F\\O\371\330\361="
 476      2A9794C4 
 476      20FA2150 
 476      85465C4F 
 476      F9D8F13D 
 477 13e5 6228CA11 		.ascii	"b(\312\021\243\367A\321\017\205\372\310X\021\005\325"
 477      A3F741D1 
 477      0F85FAC8 
 477      581105D5 
 478 13f5 046A61BE 		.ascii	"\004ja\276\304\270q)A\342\244\230=\317`]\304s\321\263"
 478      C4B87129 
 478      41E2A498 
 478      3DCF605D 
 478      C473D1B3 
ARM GAS  /var/folders/c6/c789hm653lg9vtl73krp73tm0000gn/T//ccxnP4td.s 			page 38


 479 1409 821817A2 		.ascii	"\202\030\027\242\304\332\310\231\343\241\210\370\273"
 479      C4DAC899 
 479      E3A188F8 
 479      BB
 480 1416 401C9B19 		.ascii	"@\034\233\0311\334\003!\213\021\304qE\271v\210\324R"
 480      31DC0321 
 480      8B11C471 
 480      45B97688 
 480      D452
 481 1428 682C5314 		.ascii	"h,S\024)\217\012\252\373!\267\343\302\025T\204A\206"
 481      298F0AAA 
 481      FB21B7E3 
 481      C2155484 
 481      4186
 482 143a 2B291B36 		.ascii	"+)\0336j\310\250L\3358\302\204c\367\342\010\363\310"
 482      6AC8A84C 
 482      DD38C284 
 482      63F7E208 
 482      F3C8
 483 144c 6F468746 		.ascii	"oF\207F\243\240\352-\033=r\250\257\354?\313\312\206"
 483      A3A0EA2D 
 483      1B3D72A8 
 483      AFEC3FCB 
 483      CA86
 484 145e 8FF6958D 		.ascii	"\217\366\225\215\030\202\177\006\217\301g\201QC\007"
 484      18827F06 
 484      8FC16781 
 484      514307
 485 146d 0F1E81CF 		.ascii	"\017\036\201\317\207\216z\002\375\370\177\365\370\320"
 485      878E7A02 
 485      FDF87FF5 
 485      F8D0
 486 147b 47D0AF77 		.ascii	"G\320\257wD\331\250\221\005e\217\017\033QZ0\354\341"
 486      44D9A891 
 486      05658F0F 
 486      1B515A30 
 486      ECE1
 487 148d 51BF2E0D 		.ascii	"Q\277.\015\376\352\211\341e\243\207<>\27448r\360\250"
 487      FEEA89E1 
 487      65A3873C 
 487      3EBC3438 
 487      72F0A8
 488 14a0 C123FF63 		.ascii	"\301#\377c\360#\245p\177\000\334\037\240\337\037\240"
 488      F023A570 
 488      7F00DC1F 
 488      A0DF1FA0 
 489 14b0 DF1F00F7 		.ascii	"\337\037\000\367\007\302\375\201\372\375\201\372\375"
 489      07C2FD81 
 489      FAFD81FA 
 489      FD
 490 14bd 8170FF1E 		.ascii	"\201p\377\036\270\177\217~\377\236\233!\232\242\277"
 490      B87F8F7E 
 490      FF9E9B21 
 490      9AA2BF
 491 14cc F182140A 		.ascii	"\361\202\024\012'*Q \026C\023\370h%\016VH)\211\244'"
 491      272A5120 
 491      164313F8 
ARM GAS  /var/folders/c6/c789hm653lg9vtl73krp73tm0000gn/T//ccxnP4td.s 			page 39


 491      68250E56 
 491      482989A4 
 492 14e1 9E98F87F 		.ascii	"\236\230\370\177\316\257\245\253"
 492      CEAFA5AB 
 493              		.text
 494              		.section	.gnu.lto_.symtab.6392fcadba5778a1,"",%progbits
 495 0000 6368544D 		.ascii	"chTMObjectInit\000\000\000\000\000\000\000\000\000\000"
 495      4F626A65 
 495      6374496E 
 495      69740000 
 495      00000000 
 496 0018 0000A100 		.ascii	"\000\000\241\000\000\000chTMStartMeasurementX\000\000"
 496      00006368 
 496      544D5374 
 496      6172744D 
 496      65617375 
 497 0035 00000000 		.ascii	"\000\000\000\000\000\000\000\000\000\000\316\000\000"
 497      00000000 
 497      0000CE00 
 497      00
 498 0042 00636854 		.ascii	"\000chTMStopMeasurementX\000\000\000\000\000\000\000"
 498      4D53746F 
 498      704D6561 
 498      73757265 
 498      6D656E74 
 499 005e 00000000 		.ascii	"\000\000\000\000\000\324\000\000\000_tm_init\000\000"
 499      00D40000 
 499      005F746D 
 499      5F696E69 
 499      740000
 500 0071 00000000 		.ascii	"\000\000\000\000\000\000\000\000\000\000\331\000\000"
 500      00000000 
 500      0000D900 
 500      00
 501 007e 00636854 		.ascii	"\000chTMChainMeasurementToX\000\000\000\000\000\000"
 501      4D436861 
 501      696E4D65 
 501      61737572 
 501      656D656E 
 502 009c 00000000 		.ascii	"\000\000\000\000\000\000\335\000\000\000ch\000\000\002"
 502      0000DD00 
 502      00006368 
 502      000002
 503 00ab 00000000 		.ascii	"\000\000\000\000\000\000\000\000\000\350\000\000\000"
 503      00000000 
 503      00E80000 
 503      00
 504              		.text
 505              		.section	.gnu.lto_.opts,"",%progbits
 506 0000 272D6D63 		.ascii	"'-mcpu=cortex-m4' '-mno-thumb-interwork' '-mthumb' "
 506      70753D63 
 506      6F727465 
 506      782D6D34 
 506      2720272D 
 507 0033 272D6767 		.ascii	"'-ggdb' '-O2' '-fomit-frame-pointer' '-falign-funct"
 507      64622720 
 507      272D4F32 
ARM GAS  /var/folders/c6/c789hm653lg9vtl73krp73tm0000gn/T//ccxnP4td.s 			page 40


 507      2720272D 
 507      666F6D69 
 508 0066 696F6E73 		.ascii	"ions=16' '-ffunction-sections' '-fdata-sections' '-"
 508      3D313627 
 508      20272D66 
 508      66756E63 
 508      74696F6E 
 509 0099 666E6F2D 		.ascii	"fno-common' '-flto'\000"
 509      636F6D6D 
 509      6F6E2720 
 509      272D666C 
 509      746F2700 
 510              		.text
 511              		.cfi_sections	.debug_frame
 512              		.section	.text.chTMObjectInit,"ax",%progbits
 513              		.align	2
 514              		.p2align 4,,15
 515              		.global	chTMObjectInit
 516              		.thumb
 517              		.thumb_func
 518              		.type	chTMObjectInit, %function
 519              	chTMObjectInit:
 520              	.LFB231:
 521              		.file 1 "../../../os/rt/src/chtm.c"
 522              		.loc 1 99 0
 523              		.cfi_startproc
 524              		@ args = 0, pretend = 0, frame = 0
 525              		@ frame_needed = 0, uses_anonymous_args = 0
 526              		@ link register save eliminated.
 527              	.LVL0:
 528              		.loc 1 105 0
 529 0000 0022     		movs	r2, #0
 530 0002 0023     		movs	r3, #0
 531 0004 C0E90423 		strd	r2, [r0, #16]
 532              		.loc 1 102 0
 533 0008 0023     		movs	r3, #0
 534 000a 4FF0FF32 		mov	r2, #-1
 535 000e 80E80C00 		stmia	r0, {r2, r3}
 536              		.loc 1 103 0
 537 0012 8360     		str	r3, [r0, #8]
 538              		.loc 1 104 0
 539 0014 C360     		str	r3, [r0, #12]
 540 0016 7047     		bx	lr
 541              		.cfi_endproc
 542              	.LFE231:
 543              		.size	chTMObjectInit, .-chTMObjectInit
 544 0018 AFF30080 		.section	.text.chTMStartMeasurementX,"ax",%progbits
 544      AFF30080 
 545              		.align	2
 546              		.p2align 4,,15
 547              		.global	chTMStartMeasurementX
 548              		.thumb
 549              		.thumb_func
 550              		.type	chTMStartMeasurementX, %function
 551              	chTMStartMeasurementX:
 552              	.LFB232:
 553              		.loc 1 116 0
ARM GAS  /var/folders/c6/c789hm653lg9vtl73krp73tm0000gn/T//ccxnP4td.s 			page 41


 554              		.cfi_startproc
 555              		@ args = 0, pretend = 0, frame = 0
 556              		@ frame_needed = 0, uses_anonymous_args = 0
 557              		@ link register save eliminated.
 558              	.LVL1:
 559              	.LBB14:
 560              	.LBB15:
 561              		.file 2 "../../../os/rt/ports/ARMCMx/chcore_v7m.h"
 562              		.loc 2 548 0
 563 0000 014B     		ldr	r3, .L3
 564 0002 5B68     		ldr	r3, [r3, #4]
 565              	.LBE15:
 566              	.LBE14:
 567              		.loc 1 118 0
 568 0004 8360     		str	r3, [r0, #8]
 569 0006 7047     		bx	lr
 570              	.L4:
 571              		.align	2
 572              	.L3:
 573 0008 001000E0 		.word	-536866816
 574              		.cfi_endproc
 575              	.LFE232:
 576              		.size	chTMStartMeasurementX, .-chTMStartMeasurementX
 577 000c AFF30080 		.section	.text.chTMStopMeasurementX,"ax",%progbits
 578              		.align	2
 579              		.p2align 4,,15
 580              		.global	chTMStopMeasurementX
 581              		.thumb
 582              		.thumb_func
 583              		.type	chTMStopMeasurementX, %function
 584              	chTMStopMeasurementX:
 585              	.LFB233:
 586              		.loc 1 129 0
 587              		.cfi_startproc
 588              		@ args = 0, pretend = 0, frame = 0
 589              		@ frame_needed = 0, uses_anonymous_args = 0
 590              		@ link register save eliminated.
 591              	.LVL2:
 592              	.LBB16:
 593              	.LBB17:
 594              		.loc 2 548 0
 595 0000 0F4A     		ldr	r2, .L10
 596              	.LBE17:
 597              	.LBE16:
 598              		.loc 1 131 0
 599 0002 104B     		ldr	r3, .L10+4
 600              	.LBB19:
 601              	.LBB18:
 602              		.loc 2 548 0
 603 0004 5168     		ldr	r1, [r2, #4]
 604              	.LBE18:
 605              	.LBE19:
 606              		.loc 1 129 0
 607 0006 F0B4     		push	{r4, r5, r6, r7}
 608              		.cfi_def_cfa_offset 16
 609              		.cfi_offset 4, -16
 610              		.cfi_offset 5, -12
ARM GAS  /var/folders/c6/c789hm653lg9vtl73krp73tm0000gn/T//ccxnP4td.s 			page 42


 611              		.cfi_offset 6, -8
 612              		.cfi_offset 7, -4
 613              	.LBB20:
 614              	.LBB21:
 615              		.loc 1 58 0
 616 0008 8668     		ldr	r6, [r0, #8]
 617              	.LBE21:
 618              	.LBE20:
 619              		.loc 1 131 0
 620 000a D3F8A074 		ldr	r7, [r3, #1184]
 621              	.LVL3:
 622              	.LBB24:
 623              	.LBB22:
 624              		.loc 1 57 0
 625 000e C568     		ldr	r5, [r0, #12]
 626              		.loc 1 61 0
 627 0010 4468     		ldr	r4, [r0, #4]
 628              		.loc 1 59 0
 629 0012 D0E90423 		ldrd	r2, [r0, #16]
 630              		.loc 1 58 0
 631 0016 891B     		subs	r1, r1, r6
 632              	.LVL4:
 633 0018 C91B     		subs	r1, r1, r7
 634              		.loc 1 59 0
 635 001a 5218     		adds	r2, r2, r1
 636 001c 43F10003 		adc	r3, r3, #0
 637              		.loc 1 57 0
 638 0020 0135     		adds	r5, r5, #1
 639              		.loc 1 61 0
 640 0022 A142     		cmp	r1, r4
 641              		.loc 1 57 0
 642 0024 C560     		str	r5, [r0, #12]
 643              		.loc 1 58 0
 644 0026 8160     		str	r1, [r0, #8]
 645              		.loc 1 59 0
 646 0028 C0E90423 		strd	r2, [r0, #16]
 647              		.loc 1 61 0
 648 002c 05D8     		bhi	.L9
 649              		.loc 1 64 0
 650 002e 0368     		ldr	r3, [r0]
 651 0030 9942     		cmp	r1, r3
 652              		.loc 1 65 0
 653 0032 38BF     		it	cc
 654 0034 0160     		strcc	r1, [r0]
 655              	.LBE22:
 656              	.LBE24:
 657              		.loc 1 132 0
 658 0036 F0BC     		pop	{r4, r5, r6, r7}
 659              	.LVL5:
 660 0038 7047     		bx	lr
 661              	.LVL6:
 662              	.L9:
 663              	.LBB25:
 664              	.LBB23:
 665              		.loc 1 62 0
 666 003a 4160     		str	r1, [r0, #4]
 667              	.LBE23:
ARM GAS  /var/folders/c6/c789hm653lg9vtl73krp73tm0000gn/T//ccxnP4td.s 			page 43


 668              	.LBE25:
 669              		.loc 1 132 0
 670 003c F0BC     		pop	{r4, r5, r6, r7}
 671              	.LVL7:
 672 003e 7047     		bx	lr
 673              	.L11:
 674              		.align	2
 675              	.L10:
 676 0040 001000E0 		.word	-536866816
 677 0044 00000000 		.word	ch
 678              		.cfi_endproc
 679              	.LFE233:
 680              		.size	chTMStopMeasurementX, .-chTMStopMeasurementX
 681 0048 AFF30080 		.section	.text._tm_init,"ax",%progbits
 681      AFF30080 
 682              		.align	2
 683              		.p2align 4,,15
 684              		.global	_tm_init
 685              		.thumb
 686              		.thumb_func
 687              		.type	_tm_init, %function
 688              	_tm_init:
 689              	.LFB230:
 690              		.loc 1 79 0
 691              		.cfi_startproc
 692              		@ args = 0, pretend = 0, frame = 24
 693              		@ frame_needed = 0, uses_anonymous_args = 0
 694 0000 30B5     		push	{r4, r5, lr}
 695              		.cfi_def_cfa_offset 12
 696              		.cfi_offset 4, -12
 697              		.cfi_offset 5, -8
 698              		.cfi_offset 14, -4
 699              		.loc 1 85 0
 700 0002 0D4C     		ldr	r4, .L13
 701              		.loc 1 79 0
 702 0004 87B0     		sub	sp, sp, #28
 703              		.cfi_def_cfa_offset 40
 704              		.loc 1 85 0
 705 0006 0021     		movs	r1, #0
 706              	.LBB26:
 707              	.LBB27:
 708              		.loc 1 105 0
 709 0008 0022     		movs	r2, #0
 710 000a 0023     		movs	r3, #0
 711              	.LBE27:
 712              	.LBE26:
 713              		.loc 1 87 0
 714 000c 6846     		mov	r0, sp
 715              	.LBB30:
 716              	.LBB28:
 717              		.loc 1 101 0
 718 000e 4FF0FF35 		mov	r5, #-1
 719              		.loc 1 105 0
 720 0012 CDE90423 		strd	r2, [sp, #16]
 721              	.LBE28:
 722              	.LBE30:
 723              		.loc 1 85 0
ARM GAS  /var/folders/c6/c789hm653lg9vtl73krp73tm0000gn/T//ccxnP4td.s 			page 44


 724 0016 C4F8A014 		str	r1, [r4, #1184]
 725              	.LVL8:
 726              	.LBB31:
 727              	.LBB29:
 728              		.loc 1 102 0
 729 001a 0191     		str	r1, [sp, #4]
 730              		.loc 1 103 0
 731 001c 0291     		str	r1, [sp, #8]
 732              		.loc 1 104 0
 733 001e 0391     		str	r1, [sp, #12]
 734              		.loc 1 101 0
 735 0020 0095     		str	r5, [sp]
 736              	.LBE29:
 737              	.LBE31:
 738              		.loc 1 87 0
 739 0022 FFF7FEFF 		bl	chTMStartMeasurementX
 740              	.LVL9:
 741              		.loc 1 88 0
 742 0026 6846     		mov	r0, sp
 743 0028 FFF7FEFF 		bl	chTMStopMeasurementX
 744              	.LVL10:
 745              		.loc 1 89 0
 746 002c 029B     		ldr	r3, [sp, #8]
 747 002e C4F8A034 		str	r3, [r4, #1184]
 748              		.loc 1 90 0
 749 0032 07B0     		add	sp, sp, #28
 750              	.LVL11:
 751              		@ sp needed
 752 0034 30BD     		pop	{r4, r5, pc}
 753              	.LVL12:
 754              	.L14:
 755 0036 00BF     		.align	2
 756              	.L13:
 757 0038 00000000 		.word	ch
 758              		.cfi_endproc
 759              	.LFE230:
 760              		.size	_tm_init, .-_tm_init
 761 003c AFF30080 		.section	.text.chTMChainMeasurementToX,"ax",%progbits
 762              		.align	2
 763              		.p2align 4,,15
 764              		.global	chTMChainMeasurementToX
 765              		.thumb
 766              		.thumb_func
 767              		.type	chTMChainMeasurementToX, %function
 768              	chTMChainMeasurementToX:
 769              	.LFB234:
 770              		.loc 1 147 0
 771              		.cfi_startproc
 772              		@ args = 0, pretend = 0, frame = 0
 773              		@ frame_needed = 0, uses_anonymous_args = 0
 774              		@ link register save eliminated.
 775              	.LVL13:
 776              	.LBB32:
 777              	.LBB33:
 778              		.loc 2 548 0
 779 0000 0E4B     		ldr	r3, .L19
 780              	.LBE33:
ARM GAS  /var/folders/c6/c789hm653lg9vtl73krp73tm0000gn/T//ccxnP4td.s 			page 45


 781              	.LBE32:
 782              		.loc 1 147 0
 783 0002 70B4     		push	{r4, r5, r6}
 784              		.cfi_def_cfa_offset 12
 785              		.cfi_offset 4, -12
 786              		.cfi_offset 5, -8
 787              		.cfi_offset 6, -4
 788              	.LBB35:
 789              	.LBB34:
 790              		.loc 2 548 0
 791 0004 5C68     		ldr	r4, [r3, #4]
 792              	.LBE34:
 793              	.LBE35:
 794              		.loc 1 150 0
 795 0006 8C60     		str	r4, [r1, #8]
 796              	.LVL14:
 797              	.LBB36:
 798              	.LBB37:
 799              		.loc 1 59 0
 800 0008 D0E90423 		ldrd	r2, [r0, #16]
 801              		.loc 1 58 0
 802 000c 8168     		ldr	r1, [r0, #8]
 803              	.LVL15:
 804              		.loc 1 57 0
 805 000e C668     		ldr	r6, [r0, #12]
 806              		.loc 1 61 0
 807 0010 4568     		ldr	r5, [r0, #4]
 808              		.loc 1 58 0
 809 0012 611A     		subs	r1, r4, r1
 810              		.loc 1 59 0
 811 0014 5218     		adds	r2, r2, r1
 812 0016 43F10003 		adc	r3, r3, #0
 813              		.loc 1 57 0
 814 001a 0136     		adds	r6, r6, #1
 815              		.loc 1 61 0
 816 001c A942     		cmp	r1, r5
 817              		.loc 1 57 0
 818 001e C660     		str	r6, [r0, #12]
 819              		.loc 1 58 0
 820 0020 8160     		str	r1, [r0, #8]
 821              		.loc 1 59 0
 822 0022 C0E90423 		strd	r2, [r0, #16]
 823              		.loc 1 61 0
 824 0026 05D8     		bhi	.L18
 825              		.loc 1 64 0
 826 0028 0368     		ldr	r3, [r0]
 827 002a 9942     		cmp	r1, r3
 828              		.loc 1 65 0
 829 002c 38BF     		it	cc
 830 002e 0160     		strcc	r1, [r0]
 831              	.LBE37:
 832              	.LBE36:
 833              		.loc 1 154 0
 834 0030 70BC     		pop	{r4, r5, r6}
 835              	.LVL16:
 836 0032 7047     		bx	lr
 837              	.LVL17:
ARM GAS  /var/folders/c6/c789hm653lg9vtl73krp73tm0000gn/T//ccxnP4td.s 			page 46


 838              	.L18:
 839              	.LBB39:
 840              	.LBB38:
 841              		.loc 1 62 0
 842 0034 4160     		str	r1, [r0, #4]
 843              	.LBE38:
 844              	.LBE39:
 845              		.loc 1 154 0
 846 0036 70BC     		pop	{r4, r5, r6}
 847              	.LVL18:
 848 0038 7047     		bx	lr
 849              	.L20:
 850 003a 00BF     		.align	2
 851              	.L19:
 852 003c 001000E0 		.word	-536866816
 853              		.cfi_endproc
 854              	.LFE234:
 855              		.size	chTMChainMeasurementToX, .-chTMChainMeasurementToX
 856              		.text
 857              	.Letext0:
 858              		.file 3 "/usr/local/Cellar/gcc-arm-none-eabi/20140805/arm-none-eabi/include/machine/_default_types
 859              		.file 4 "/usr/local/Cellar/gcc-arm-none-eabi/20140805/arm-none-eabi/include/stdint.h"
 860              		.file 5 "../../../os/rt/ports/ARMCMx/compilers/GCC/chtypes.h"
 861              		.file 6 "../../../os/rt/include/chsystypes.h"
 862              		.file 7 "../../../os/rt/include/chschd.h"
 863              		.file 8 "../../../os/ext/CMSIS/include/core_cm4.h"
 864              		.file 9 "../../../os/rt/ports/ARMCMx/chcore.h"
 865              		.file 10 "../../../os/rt/include/chdebug.h"
 866              		.file 11 "../../../os/rt/include/chtm.h"
 867              		.file 12 "../../../os/rt/include/chstats.h"
 868              		.file 13 "../../../os/rt/include/chsem.h"
 869              		.file 14 "../../../os/rt/include/chmtx.h"