ARM GAS  /var/folders/c6/c789hm653lg9vtl73krp73tm0000gn/T//ccxnP4td.s 			page 1


   1              		.syntax unified
   2              		.cpu cortex-m4
   3              		.fpu softvfp
   4              		.eabi_attribute 20, 1
   5              		.eabi_attribute 21, 1
   6              		.eabi_attribute 23, 3
   7              		.eabi_attribute 24, 1
   8              		.eabi_attribute 25, 1
   9              		.eabi_attribute 26, 1
  10              		.eabi_attribute 30, 2
  11              		.eabi_attribute 34, 1
  12              		.eabi_attribute 18, 4
  13              		.thumb
  14              		.file	"chtm.c"
  15              		.text
  16              	.Ltext0:
  17              		.section	.gnu.lto_.jmpfuncs.6392fcadba5778a1,"",%progbits
  18 0000 789C6362 		.ascii	"x\234cb`b\300\006\034\2404+\003###\023#\013\003#\003"
  18      6062C006 
  18      1CA0342B 
  18      03232323 
  18      13230B03 
  19 0016 10B13232 		.ascii	"\020\26122D0f22\374\007\002~\006\0050\033\250\026J'"
  19      44306632 
  19      32FC0702 
  19      7E060530 
  19      1BA8164A 
  20 002b 40E90646 		.ascii	"@\351\006F\020\003\310bef\000\000:\272\011\200"
  20      1003C862 
  20      65660000 
  20      3ABA0980 
  21              		.text
  22              		.section	.gnu.lto_.inline.6392fcadba5778a1,"",%progbits
  23 0000 789C6D90 		.ascii	"x\234m\220\261\015\3020\020E\377]\234\304\220\010\""
  23      B10DC230 
  23      1045FF5D 
  23      9CC49008 
  23      22
  24 0011 2442A830 		.ascii	"$B\2500\025\0353\244\240\246b\000FAT\010QPQ\323\260"
  24      151D33A4 
  24      A0A66200 
  24      46415408 
  24      515051D3 
  25 0026 03628A88 		.ascii	"\003b\212\210\021\250(\031\001\373\247!\022.\376\331"
  25      11A82819 
  25      01FBA721 
  25      122EFED9 
  26 0036 DF777E5F 		.ascii	"\337w~_V(\376\255L\332\032\003=+\320\344\263D~^\263"
  26      5628FEAD 
  26      4CDA1A03 
  26      3D2BD0E4 
  26      B3447E5E 
  27 004b 59101B40 		.ascii	"Y\020\033@\243\373\004\351aAK1-}\257\037\212\266\324"
  27      A3FB04E9 
  27      61414B31 
  27      2D7DAF1F 
  27      8AB6D4
ARM GAS  /var/folders/c6/c789hm653lg9vtl73krp73tm0000gn/T//ccxnP4td.s 			page 2


  28 005e 9ABA1316 		.ascii	"\232\272\023\026GE^=o\202\374\261R\310;5\012\377\202"
  28      47455E3D 
  28      6F82FCB1 
  28      52C83B35 
  28      0AFF82
  29 0071 095B4BC3 		.ascii	"\011[K\303B\233a\241\324pvt\375\354\313\324J\015$S\025"
  29      429B61A1 
  29      D4707674 
  29      FDECCBD4 
  29      4A0D2453 
  30 0086 739F67D4 		.ascii	"s\237g\324\234\004\311u\326\322\263\020\252\325\030"
  30      9C04C975 
  30      D6D2B310 
  30      AAD518
  31 0095 D518E627 		.ascii	"\325\030\346'I7C\277\334_\004\203\343\246\223\301#-"
  31      493743BF 
  31      DC5F0483 
  31      E3A693C1 
  31      232D
  32 00a7 C136B805 		.ascii	"\3016\270\005\357\212\200t\004;~\305\027\270:\037\331"
  32      EF8A8074 
  32      043B7EC5 
  32      17B83A1F 
  32      D9
  33              		.text
  34              		.section	.gnu.lto_.pureconst.6392fcadba5778a1,"",%progbits
  35 0000 789C6362 		.ascii	"x\234cb`b\340f\200\000V\006)F)&)\026\011V)\000\004)"
  35      6062E066 
  35      80005606 
  35      29462926 
  35      29160956 
  36 0018 00A1     		.ascii	"\000\241"
  37              		.text
  38              		.section	.gnu.lto_chTMObjectInit.6392fcadba5778a1,"",%progbits
  39 0000 789C6362 		.ascii	"x\234cb`b@\007\222@<\225\221\201A\006H32302M8\307\300"
  39      60624007 
  39      92403C95 
  39      91814106 
  39      48333233 
  40 001a D0C8C1C4 		.ascii	"\320\310\301\304\310\010b002\32431\326G2\202\325\256"
  40      C8086230 
  40      3032D433 
  40      31D64732 
  40      82D5AE
  41 002d 673AF0E0 		.ascii	"g:\360\340\377\377u\323\332\327\257a\234\313\004T\223"
  41      FFFF75D3 
  41      DAD7AF61 
  41      9CCB0454 
  41      93
  42 003e 0B166765 		.ascii	"\013\026gehih\230\240\300\300\220\014\346\206\000I\220"
  42      68696898 
  42      A0C0C090 
  42      0CE68600 
  42      4990
  43 0050 DE504626 		.ascii	"\336PF&\020\315|\226\241i\307\216\3177\230\022\031\027"
  43      10CD7C96 
  43      A169C78E 
ARM GAS  /var/folders/c6/c789hm653lg9vtl73krp73tm0000gn/T//ccxnP4td.s 			page 3


  43      CF379812 
  43      1917
  44 0062 32B23268 		.ascii	"2\2622h3\254j\000\002\336LF\206\331\014\263\0303\031"
  44      33AC6A00 
  44      02DE4C46 
  44      86D90CB3 
  44      183319
  45 0075 19D31999 		.ascii	"\031\323\031\231\"\2004\304iI\020\233\030@\"\314\377"
  45      228034C4 
  45      6949109B 
  45      184022CC 
  45      FF
  46 0086 81801FC8 		.ascii	"\201\200\037\310\001\231p\203x\023\030\021&0@u\377 "
  46      01997083 
  46      78131811 
  46      26304075 
  46      FF20
  47 0098 5E3713A6 		.ascii	"^7\023\246\356\031\3370u\263`\327\315\214\251{\007\026"
  47      EE19DF30 
  47      75B360D7 
  47      CD8CA97B 
  47      0716
  48 00aa DDACD875 		.ascii	"\335\254\330u\263\300u\263\201\030\027\031\032\037\334"
  48      B3C075B3 
  48      81181719 
  48      1A1FDC
  49 00b9 5286E885 		.ascii	"R\206\350\205\201\020\240\367\200\241\012\322!\245\247"
  49      8110A0F7 
  49      80A10AD2 
  49      21A5A7
  50 00c8 A70F41F9 		.ascii	"\247\017A\371\305\372E%\372\305E\311\372\311\031%\271"
  50      C5FA4525 
  50      FAC545C9 
  50      FAC91925 
  50      B9
  51 00d9 7AC90C00 		.ascii	"z\311\014\000\207\033f?"
  51      871B663F 
  52              		.text
  53              		.section	.gnu.lto_chTMStartMeasurementX.6392fcadba5778a1,"",%progbits
  54 0000 789C6362 		.ascii	"x\234cb`b@\007\222@\314\312\310\300\340\006\244\031"
  54      60624007 
  54      9240CCCA 
  54      C8C0E006 
  54      A419
  55 0012 99191899 		.ascii	"\231\031\030\231&\234c`h\344`bd\0041\030\030\031\352"
  55      269C6360 
  55      68E46062 
  55      64043118 
  55      1819EA
  56 0025 9918EB23 		.ascii	"\231\030\353#\031\301j\3273\035x\360\377\377\272\033"
  56      19C16AD7 
  56      331D78F0 
  56      FFFFBA1B 
  57 0035 EDFBFF30 		.ascii	"\355\373\3770\316cbcf\314ed`e\310\004K\2622\26444LP"
  57      CE636263 
  57      66CC6564 
  57      6065C804 
ARM GAS  /var/folders/c6/c789hm653lg9vtl73krp73tm0000gn/T//ccxnP4td.s 			page 4


  57      4BB232B4 
  58 004d 60604806 		.ascii	"``H\006sC\200$\310\200PF&\020\315|\226\341\320\255="
  58      73438024 
  58      C8805046 
  58      2610CD7C 
  58      96E1D0AD 
  59 0062 FDCF66B0 		.ascii	"\375\317f\260\301\325A\030\007\272\277\177df`Hd\\\310"
  59      C1D54118 
  59      07BABF7F 
  59      64666048 
  59      645CC8
  60 0075 C80AD40A 		.ascii	"\310\012\324\012\326\233\316\310\252\315\260\252\241"
  60      D69BCEC8 
  60      AACDB0AA 
  60      A1
  61 0082 A5F1C1EF 		.ascii	"\245\361\301\357\015\307.22f22\316f\230\3258\241A \223"
  61      0DC72E32 
  61      32663232 
  61      CE6698D5 
  61      38A14120 
  62 0097 912902C8 		.ascii	"\221)\002\310enX\320\320\300\307\000f\202\035\226\004"
  62      656E58D0 
  62      D0C0C700 
  62      66821D96 
  62      04
  63 00a8 D297C8B8 		.ascii	"\322\227\310\270\030h\006\020\234eh:yf\007?\304L\220"
  63      18680610 
  63      9C65683A 
  63      7966073F 
  63      C44C90
  64 00bb 4940C00B 		.ascii	"I@\300\013t%\320\020\240\016\226tFf\220NV\250N\210\327"
  64      7425D010 
  64      A00E9674 
  64      4666904E 
  64      56A84E88 
  65 00d0 D241FC8B 		.ascii	"\322A\374\213\014\215\017\336+C\364\301@\010P\001\320"
  65      0C8D0FDE 
  65      2B43F4C1 
  65      40085001 
  65      D0
  66 00e1 03A08093 		.ascii	"\003\240\200\223\322\323\323\207\240\374b\375\242\022"
  66      D2D3D387 
  66      A0FC62FD 
  66      A212
  67 00ef FDE2A264 		.ascii	"\375\342\242d\375\344\214\222\\\275d\006M4\251\202\374"
  67      FDE48C92 
  67      5CBD6406 
  67      4D34A982 
  67      FC
  68 0100 A292627D 		.ascii	"\242\222b}\307 _g\337\012\240\232\344\374\242\324\370"
  68      C7205F67 
  68      DF0AA09A 
  68      E4FCA2D4 
  68      F8
  69 0111 32F35CBD 		.ascii	"2\363\\\275\014\006\000\214\314X\335"
  69      0C06008C 
  69      CC58DD
ARM GAS  /var/folders/c6/c789hm653lg9vtl73krp73tm0000gn/T//ccxnP4td.s 			page 5


  70              		.text
  71              		.section	.gnu.lto_chTMStopMeasurementX.6392fcadba5778a1,"",%progbits
  72 0000 789C8D94 		.ascii	"x\234\215\224_H\323Q\024\307\317\371\375\333\037\267"
  72      5F48D351 
  72      14C7CFF9 
  72      FDDB1FB7 
  73 0010 B9874294 		.ascii	"\271\207B\224\022\021z(a?z\3629z\210\020\011B\241\236"
  73      12117A28 
  73      613F7AF2 
  73      397A8810 
  73      0942A19E 
  74 0024 C286CE3D 		.ascii	"\302\206\316=\254\3116*\350\301\273\315\007\245\300"
  74      ACC9362A 
  74      E8C1BBCD 
  74      07A5C0
  75 0033 613D4841 		.ascii	"a=HAjA\204\210ZO\022\026#2\3222\020|\020\011\031B>\366"
  75      6A418488 
  75      5A4F1216 
  75      2332D232 
  75      107C1009 
  76 004b D28B14B4 		.ascii	"\322\213\024\264\316\271w\277\271\255?\333e;\367\336"
  76      CEB977BF 
  76      B9AD3FDB 
  76      653BF7DE 
  77 005b 73EFF9DC 		.ascii	"s\357\371\334s\277\347\367\373i\240Am\353\241\377\202"
  77      73BFE7F7 
  77      FB69A041 
  77      6DEBA1FF 
  77      82
  78 006c 09D04F3D 		.ascii	"\011\320O=\272\000\265\334g\200\264[\323\364\325v\020"
  78      BA00B5DC 
  78      6780B45B 
  78      D3F4D576 
  78      10
  79 007d 5E63DB06 		.ascii	"^c\333\006\341\323\321RnC3\331\341\265x\321g:n\013\221"
  79      E1D3D152 
  79      6E4333D9 
  79      E1B578D1 
  79      673A6E0B 
  80 0092 078030AA 		.ascii	"\007\2000\252\351\206i\341\350U\224\364%-_(\026\027"
  80      E98669E1 
  80      E85594F4 
  80      252D5F28 
  80      1617
  81 00a4 A736DE7C 		.ascii	"\2476\336|\302\347Z\213\016Q\004\003c\010\026\215\350"
  81      C2E75A8B 
  81      0E510403 
  81      6308168D 
  81      E8
  82 00b5 389ABAD9 		.ascii	"8\232\272\331x\330x\3314\261\361\221\321\374l\002l\232"
  82      78D878D9 
  82      34B1F191 
  82      D1FC6C02 
  82      6C9A
  83 00c7 D9176443 		.ascii	"\331\027dC\315\2041!r\035\000a9\355#\313g\367\243\306"
  83      CD843121 
  83      721D0061 
ARM GAS  /var/folders/c6/c789hm653lg9vtl73krp73tm0000gn/T//ccxnP4td.s 			page 6


  83      39ED23CB 
  83      67F7A3C6 
  84 00db BDBE096F 		.ascii	"\275\276\011owW'\017\246\255\362>5\310\177\\{\242\003"
  84      7757270F 
  84      A6ADF23E 
  84      35C87F5C 
  84      7BA203
  85 00ee 0CE01C9A 		.ascii	"\014\340\034\232\024*c#hu\301\274\030K\027~.\277\337"
  85      142A6323 
  85      6875C1BC 
  85      184B177E 
  85      2EBFDF
  86 0101 428CA2FE 		.ascii	"B\214\242\376\010\036\246s\"\030E\343\012MM1+D\000\344"
  86      081EA673 
  86      221845E3 
  86      0A4D4D31 
  86      2B4400E4 
  87 0115 50DEE73A 		.ascii	"P\336\347:\307\015\340S5\335\204\314\356\227\205\007"
  87      C70DE053 
  87      35DD84CC 
  87      EE978507 
  88 0125 6D0A1A41 		.ascii	"m\012\032A\275\013\316\320\265\230I\3555EY\314\023\314"
  88      BD0BCED0 
  88      B59849ED 
  88      354559CC 
  88      13CC
  89 0137 73DD811F 		.ascii	"s\335\201\037b\234G\356\230<\235\241\356\022\024K\275"
  89      629C47EE 
  89      983C9DA1 
  89      EE12144B 
  89      BD
  90 0148 539E75C8 		.ascii	"S\236u\310\344K\324N\230\023b*\177\177c\262U\314fr\342"
  90      E44BD44E 
  90      9813622A 
  90      7F7F63B2 
  90      55CC6672 
  91 015d 57B14881 		.ascii	"W\261H\201\036\015. +\300\024o\207\354\232\214\352\312"
  91      1E0D2E20 
  91      2BC0146F 
  91      87EC9A8C 
  91      EACA
  92 016f 46D090A4 		.ascii	"F\320\220\244\302\3355\353\177,:\265\247>\313j\224u"
  92      C2DD35EB 
  92      7F2C3AB5 
  92      A73ECB6A 
  92      9475
  93 0181 A93E4B57 		.ascii	"\251>KW\322\255<\326k\212$\226X\314E\354$\215\027\244"
  93      D2AD3CD6 
  93      6B8A2496 
  93      58CC45EC 
  93      248D17A4 
  94 0195 9D277B54 		.ascii	"\235'{T5M\305\273\224\302\371\357\255Q\364\225\025\366"
  94      354DC5BB 
  94      94C2F9EF 
  94      AD51F495 
  94      15F6
  95 01a7 4754D13C 		.ascii	"GT\321<%1e\265_8\225\312\216g\207\006pY\326\311M\010"
ARM GAS  /var/folders/c6/c789hm653lg9vtl73krp73tm0000gn/T//ccxnP4td.s 			page 7


  95      253165B5 
  95      5F3895CA 
  95      8E678706 
  95      7059D6C9 
  96 01bd DEE94355 		.ascii	"\336\351CU\304\213j\241T7\177c\320\010W\217\257\261"
  96      C48B6AA1 
  96      54377F63 
  96      D008578F 
  96      AFB1
  97 01cf B377C201 		.ascii	"\263w\302\001{\324\003\360\317h\243:\245\211\354KtB"
  97      7BD403F0 
  97      CF68A33A 
  97      A589EC4B 
  97      7442
  98 01e1 BD247184 		.ascii	"\275$q\2047J\3773\315\3617\311%\245\330\372\262\253"
  98      374AFF33 
  98      CDF137C9 
  98      25A5D8FA 
  98      B2AB
  99 01f3 36D346CE 		.ascii	"6\323F\316\"\210\312\364p\357\270\203\365)\004\305\005"
  99      2288CAF4 
  99      70EFB883 
  99      F52904C5 
  99      05
 100 0204 FE4930AB 		.ascii	"\376I0\253\262\315|\313\276*g\353/1I\325\305\2623@X"
 100      B2CD7CCB 
 100      BE2A67EB 
 100      2F3149D5 
 100      C5B23340 
 101 0219 5AFA53D2 		.ascii	"Z\372S\322\006O!B\351\301\230iq\230\315u\024\265*r\374"
 101      064F2142 
 101      E9C19869 
 101      7198CD75 
 101      14B52A72 
 102 022e 00EF0ED2 		.ascii	"\000\357\016\322\376\012\341\232\217\036\272~\222p\265"
 102      FE0AE19A 
 102      8F1EBA7E 
 102      9270B5
 103 023d 5D671177 		.ascii	"]g\021wf\216U\251x\2661\276\274\261B\031\260m3jwz\177"
 103      668E55A9 
 103      78B631BE 
 103      BCB14219 
 103      B06D336A 
 104 0254 4777CE0B 		.ascii	"Gw\316\013\326\311\324U\235\351\327twE\246\301\312L"
 104      D6C9D455 
 104      9DE9D774 
 104      7745A6C1 
 104      CA4C
 105 0266 4D983829 		.ascii	"M\2308)3]\331?\304\306Su\375-UK~\024\267 ]\270wJ\275"
 105      335DD93F 
 105      C4C65375 
 105      FD2D554B 
 105      7E14B720 
 106 027f 454EEBA3 		.ascii	"EN\353\243\257\016\255\361+\325\026\012\331\352\027"
 106      AF0EADF1 
 106      2BD5160A 
 106      D9EA17
ARM GAS  /var/folders/c6/c789hm653lg9vtl73krp73tm0000gn/T//ccxnP4td.s 			page 8


 107 028e 4FDA8994 		.ascii	"O\332\211\224\235L\204\355\360p*\026\012\303\351\232"
 107      9D4C84ED 
 107      F0702A16 
 107      0AC3E99A 
 108 029e A5917822 		.ascii	"\245\221x\"\225\264\317]\356=\337{\233\366\204\343\211"
 108      95B4CF5D 
 108      EE3DDF7B 
 108      9BF684E3 
 108      89
 109 02af C16B37BB 		.ascii	"\301k7\273c\241a\320S\261\021\375F\374\226\025\037\032"
 109      63A161D0 
 109      53B111FD 
 109      46FC9615 
 109      1F1A
 110 02c1 4A0EA67E 		.ascii	"J\016\246~\003\3739g\257"
 110      03FB3967 
 110      AF
 111              		.text
 112              		.section	.gnu.lto__tm_init.6392fcadba5778a1,"",%progbits
 113 0000 789CAD53 		.ascii	"x\234\255S\277K\034Q\020\376\346\355\335\371\343\374"
 113      BF4B1C51 
 113      10FEE6ED 
 113      DDF9E3FC 
 114 0010 11218509 		.ascii	"\021!\205\011\004\217\330$\021\356\010\344OI\300\224"
 114      048FD824 
 114      11EE08E4 
 114      4F49C094 
 115 0020 E716BAC5 		.ascii	"\347\026\272\305\221\240W\231\302\267\346Ll\002\207"
 115      91A05799 
 115      C2B7E64C 
 115      6C0287
 116 002f 95E42A49 		.ascii	"\225\344*I\023\222\200\205)\026S\370\260\020$\250\244"
 116      13928085 
 116      291653F8 
 116      B01024A8 
 116      A4
 117 0040 134158B1 		.ascii	"\023AX\261\213 \202 !\010\353\314\276]\315\352a\225"
 117      8B208220 
 117      2108EBCC 
 117      BE5DCDEA 
 117      6195
 118 0052 61776760 		.ascii	"awg`\347\373f\276o\337*(\\\217{|\267\034`\23039 \325"
 118      E7FB66BE 
 118      6FDF2A28 
 118      5C8F7B7C 
 118      B71C6098 
 119 006a DC06FC4E 		.ascii	"\334\006\374NE$\005\0103\212f^\222\264\322C,i\323\014"
 119      45240508 
 119      338A665E 
 119      92B4D243 
 119      2C69D30C 
 120 007e E77E9F28 		.ascii	"\347~\237(_\233E\3350QDC\0361\355\003\202K\030%\217"
 120      5F9B45DD 
 120      30514443 
 120      1E31ED03 
 120      824B1825 
 121 0093 C8D8AC06 		.ascii	"\310\330\254\006\263\203\226\225\011\243\350|\345\373"
ARM GAS  /var/folders/c6/c789hm653lg9vtl73krp73tm0000gn/T//ccxnP4td.s 			page 9


 121      B3839695 
 121      09A3E87C 
 121      E5FB
 122 00a1 C12A0DF4 		.ascii	"\301*\015\364\025\340\3614 \217\206\326\315R\225\226"
 122      15E0F134 
 122      208F86D6 
 122      CD529596 
 123 00b1 981DC2C1 		.ascii	"\230\035\302\301\361\234\2372\375\005)\311\316\026f"
 123      F19C9F32 
 123      FD0529C9 
 123      CE1666
 124 00c0 83E0C8A8 		.ascii	"\203\340\310\250*}\242<F\360Es<\365(\227\224E\217\362"
 124      2A7DA23C 
 124      46F04573 
 124      3CF52897 
 124      94458FF2 
 125 00d4 2D7CF4B5 		.ascii	"-|\364\265\276\343Q\341\015\376\352y\251:j1\233,\323"
 125      BEE351E1 
 125      0DFEEA79 
 125      A93A6A31 
 125      9B2CD3
 126 00e7 11AF3046 		.ascii	"\021\2570FH\262-\344\215,\201M\314\232G\226]4\352\005"
 126      48B22DE4 
 126      8D2C814D 
 126      CC9A4796 
 126      5D34EA05 
 127 00fb B3F6EE27 		.ascii	"\263\366\356'\351\005\355\237DQ\277G\235\012\245+\201"
 127      E905ED9F 
 127      4451BF47 
 127      9D0AA52B 
 127      81
 128 010c 25AB2F97 		.ascii	"%\253/\227\325'c\2656\373\033w\271\337\352\261\214\034"
 128      D52763B5 
 128      36FB1B77 
 128      B9DFEAB1 
 128      8C1C
 129 011e B180D35D 		.ascii	"\261\200\323]\225\250Me\353\037\037\036W\351s\254\334"
 129      95A84D65 
 129      EB1F1F1E 
 129      57E973AC 
 129      DC
 130 012f F6BA7633 		.ascii	"\366\272v3\253\313\264\336;,\322r\215\261\027\334\364"
 130      ABCBB4DE 
 130      3B2CD272 
 130      8DB117DC 
 130      F4
 131 0140 4D08E3BD 		.ascii	"M\010\343\275#\216\376\204{\227\271\253\364\365\312"
 131      238EFE84 
 131      7B97B9AB 
 131      F4F5CA
 132 014f 9CDE7F70 		.ascii	"\234\336\177pN\026\227\356\363\3476L\256=f\361\354&"
 132      4E1697EE 
 132      F3E7364C 
 132      AE3D66F1 
 132      EC26
 133 0161 A62BC5E4 		.ascii	"\246+\305\344\333c\2026\230\356\024S\310`\212\202\331"
 133      DB638236 
ARM GAS  /var/folders/c6/c789hm653lg9vtl73krp73tm0000gn/T//ccxnP4td.s 			page 10


 133      98EE1453 
 133      C8608A82 
 133      D9
 134 0172 41235C7E 		.ascii	"A#\\~\333\227zw\3715{\\R\211\321\323\327\035\366\250"
 134      DB977A77 
 134      F9357B5C 
 134      5289D1D3 
 134      D71DF6A8 
 135 0186 D70283C3 		.ascii	"\327\002\203\303b;\240s+\220\267\334\013\216\303\344"
 135      623BA073 
 135      2B90B7DC 
 135      0B8EC3E4 
 136 0196 788D5361 		.ascii	"x\215Sa\004O\262^ \021\263\331\354\376\337gp\\<\330"
 136      044FB25E 
 136      2011B3D9 
 136      ECFEDF67 
 136      705C3CD8 
 137 01aa C2FA5132 		.ascii	"\302\372Q2\336N}\206\025=\317\030\351\370\005?\\\035"
 137      DE4E7D86 
 137      153DCF18 
 137      E9F8053F 
 137      5C1D
 138 01bc BE3C4BB0 		.ascii	"\276<K\260\177\010\311\237!\206\334/\227+\366z5U\231"
 138      7F08C99F 
 138      2186DC2F 
 138      972BF67A 
 138      355599
 139 01cf AC57A626 		.ascii	"\254W\246&\335\212;Q\257\225]\250z\315\251\327^_\000"
 139      DD8A3B51 
 139      AF955DA8 
 139      7ACDA9D7 
 139      5E5F00
 140 01e2 E9D5EA1E 		.ascii	"\351\325\352\036"
 141              		.text
 142              		.section	.gnu.lto_chTMChainMeasurementToX.6392fcadba5778a1,"",%progbits
 143 0000 789C8D94 		.ascii	"x\234\215\224QHSQ\030\307\277\357\236{\357\346\334\334"
 143      51485351 
 143      18C7BFEF 
 143      9E7BEFE6 
 143      DCDC
 144 0012 1E0A514A 		.ascii	"\036\012QJD\360\241\204]z\3629z\210\020\011B\241\236"
 144      44F0A184 
 144      5D7AF239 
 144      7A881009 
 144      42A19E
 145 0025 620D9D7B 		.ascii	"b\015\235{X\223mXo\236m>$=8\002A\012R\351%$Tz2\361a"
 145      58936D58 
 145      6F9E6D3E 
 145      243D3802 
 145      410A52E9 
 146 0040 85450A06 		.ascii	"\205E\012\006\202\225H\310\020\262\267^z\021\202\326"
 146      829548C8 
 146      10B2B75E 
 146      7A1182D6 
 147 0050 F7DDB33B 		.ascii	"\367\335\263;\267e\354^\266\357\334s\316\375~\347\177"
 147      B765EC5E 
 147      B6EFDC73 
ARM GAS  /var/folders/c6/c789hm653lg9vtl73krp73tm0000gn/T//ccxnP4td.s 			page 11


 147      CEFD7EE7 
 147      7F
 148 0061 FEDFB957 		.ascii	"\376\337\271W\003\015\032\257\001\372O\030\000\303\324"
 148      030D1AAF 
 148      01FA4F18 
 148      00C3D4
 149 0070 A207502B 		.ascii	"\242\007P+|\002\310z5Mlt\201\364\351{\026H\277@S\015"
 149      7C02C87A 
 149      354D6C74 
 149      81F4E97B 
 149      1648BF40 
 150 0086 EB9AC103 		.ascii	"\353\232\301\003>\223'\375\2063l\"\362\015 LjB7L\234"
 150      3E9327FD 
 150      86336C22 
 150      F20D204C 
 150      6A42374C 
 151 009b BC83367D 		.ascii	"\274\2036}E+\226\312\345\345/\333\233oq\275\267]`\002"
 151      452B96CA 
 151      E5E52FDB 
 151      9B6F71BD 
 151      B75D6002 
 152 00af C1A0402B 		.ascii	"\301\240@+\305\021\274\024\260\205\203\217C+\007?\005"
 152      C511BC14 
 152      B085838F 
 152      432B073F 
 152      05
 153 00c0 2DC0A18D 		.ascii	"-\300\241\215C\220\307B\034\210f\300\224\224\205n\200"
 153      4390C742 
 153      1C8866C0 
 153      9494856E 
 153      80
 154 00d1 A84D1FA2 		.ascii	"\250M\037\242\310\313\016\243\306\255\330\201w\007\033"
 154      C8CB0EA3 
 154      C6ADD881 
 154      77071B
 155 00e0 33C77366 		.ascii	"3\307sf\3659uS|\3745G;\214\340\"\032\224j\347\306\320"
 155      F5397553 
 155      7CFC3547 
 155      3B8CE022 
 155      1A946AE7 
 156 00f6 D3074B72 		.ascii	"\323\007Kr*[\372\275\372a\0271\216\342\031<\315\026"
 156      2A5BFABD 
 156      FA611731 
 156      8EE2193C 
 156      CD16
 157 0108 64288EFA 		.ascii	"d(\216\372m\352\032rA\3126\260o\355\255\334\343\274"
 157      6DEA1A72 
 157      41CA36B0 
 157      6FEDADDC 
 157      E3BC
 158 011a 08BE50DD 		.ascii	"\010\276P\335\035\310m}[\233\355RPF\321\025\244=\021"
 158      1DC86D7D 
 158      5B9BED52 
 158      5046D115 
 158      A43D11
 159 012d 8552CC18 		.ascii	"\205R\314\030\012N\365TR\225\0331\356oA\256\364\346"
 159      0A4EF554 
ARM GAS  /var/folders/c6/c789hm653lg9vtl73krp73tm0000gn/T//ccxnP4td.s 			page 12


 159      52951B31 
 159      EE6F41AE 
 159      F4E6
 160 013f BDA9127B 		.ascii	"\275\251\022{`Q\312'\305\317\3333\035r!W\220\177\312"
 160      6051CA27 
 160      C5CFDB33 
 160      1D722157 
 160      907FCA
 161 0152 65CED2E0 		.ascii	"e\316\322\340:\362&\031\341\355\266\233\026\275\276"
 161      3AF22619 
 161      E1EDB69B 
 161      16BDBE
 162 0161 6E31D6E1 		.ascii	"n1\326\341\202E%\037h\316r\247\213X7\233\261x\014+\016"
 162      8245251F 
 162      68CE72A7 
 162      8B58379B 
 162      B1780C2B 
 163 0176 1DAC3D17 		.ascii	"\035\254=\027\015\265\220?f;#\370\012{\310\312%;\276"
 163      0DB5903F 
 163      663B23F8 
 163      0A7BC8CA 
 163      253BBE
 164 0189 A4785A1C 		.ascii	"\244xZ\034M\351\361*G\213\277:\342\350\343\302H.\014"
 164      4DE9F12A 
 164      478BBF3A 
 164      E2E8E3C2 
 164      482E0C
 165 019c B96AD4BA 		.ascii	"\271j\324\272\252q\336\212S\220\374\243\374h\004\227"
 165      AA71DE8A 
 165      5390FCA3 
 165      FC680497 
 166 01ac A91BC316 		.ascii	"\251\033\303\026B\360\223>TJn\250\211J\235\002\356\240"
 166      42F0933E 
 166      544A6EA8 
 166      894A9D02 
 166      EEA0
 167 01be 8451DBD8 		.ascii	"\204Q\333\330?\274\340\200}}pYU\371\354l\254\2274\235"
 167      3FBCE080 
 167      7D7D7059 
 167      55F9EC6C 
 167      AC97349D 
 168 01d2 7F8D4E6A 		.ascii	"\177\215Nj+\331L\000uvV=\215\212\3340\011\242\024\235"
 168      2BD94C00 
 168      7576563D 
 168      8D8ADC30 
 168      09A2149D 
 169 01e6 1C9E77B0 		.ascii	"\034\236w\260~\205\240\274\326\377\022D\235\252\334"
 169      7E85A0BC 
 169      D6FF1244 
 169      9DAADC
 170 01f5 CFFC7A55 		.ascii	"\317\374zUU\240\302$\367\226\253\203m\204\245\251\177"
 170      55A0C224 
 170      F796AB83 
 170      6D84A5A9 
 170      7F
 171 0206 AD73B90A 		.ascii	"\255s\271\012\021*\007`\276\335a\006\2338\247\327h\374"
 171      112A0760 
ARM GAS  /var/folders/c6/c789hm653lg9vtl73krp73tm0000gn/T//ccxnP4td.s 			page 13


 171      BEDD6106 
 171      9B38A7D7 
 171      68FC
 172 0218 089BC7D9 		.ascii	"\010\233\307\331@\215q\301\323\0036L\353lt\0116q\177"
 172      408D71C1 
 172      D303364C 
 172      EB6C7409 
 172      36717F
 173 022b FE5C9D8B 		.ascii	"\376\\\235\213W\334\361\355\035+\224\016{\026\243\016"
 173      57DCF1ED 
 173      1D2B940E 
 173      7B16A30E 
 174 023b E68EF685 		.ascii	"\346\216\366\205\263^\250\211R\243^\351\367l\177\215"
 174      B35EA889 
 174      52A35EE9 
 174      F76C7F8D 
 175 024b D250AD52 		.ascii	"\322P\255R\003\246/\332J\327\216N\320\275T\343,\251"
 175      03A62FDA 
 175      4AD78E4E 
 175      D0BD54E3 
 175      2CA9
 176 025d A6FD8DDB 		.ascii	"\246\375\215\333\205li\275W\275-\3165D'\204\346\370"
 176      856C69BD 
 176      57BD2DCE 
 176      35442784 
 176      E6F8
 177 026f D5E90C87 		.ascii	"\325\351\014\207-\365K\246\255T\306J\247\242Vt,\223"
 177      2DF54BA6 
 177      AD54C64A 
 177      A7A25674 
 177      2C93
 178 0281 0847E152 		.ascii	"\010G\341R\303\324x2\225I[Wo\015^\033|H\317D\223\251"
 178      C3D47832 
 178      95495B57 
 178      6F0D5E1B 
 178      7C48CF44 
 179 0297 91BB13FD 		.ascii	"\221\273\023\375\211\360\030\210Lb\\\334O>0\223\243"
 179      89F01888 
 179      4C625CDC 
 179      4F3E3093 
 179      A3
 180 02a8 A3E991CC 		.ascii	"\243\351\221\314_\3268]\237"
 180      5FD6385D 
 180      9F
 181              		.text
 182              		.section	.gnu.lto_.symbol_nodes.6392fcadba5778a1,"",%progbits
 183 0000 789C6362 		.ascii	"x\234cb`bHa\200\002\246\347\214\365\014\014\023\316"
 183      60624861 
 183      8002A6E7 
 183      8CF50C0C 
 183      13CE
 184 0012 3130D4D7 		.ascii	"10\324\327\317\353`dz\301X\317\210\304}\311X\317\204"
 184      CFEB6064 
 184      7AC158CF 
 184      88C47DC9 
 184      58CF84
 185 0025 E0B2BE66 		.ascii	"\340\262\276f\004\262\030\230\2361\3263#)z\305X\317"
ARM GAS  /var/folders/c6/c789hm653lg9vtl73krp73tm0000gn/T//ccxnP4td.s 			page 14


 185      04B21898 
 185      9E31D633 
 185      23297AC5 
 185      58CF
 186 0037 82E032B3 		.ascii	"\202\3402\26302<z\370\017H314\265\275\221g\000\000K"
 186      30323C7A 
 186      F80F4833 
 186      3134B5BD 
 186      91670000 
 187 004c 531F6A   		.ascii	"S\037j"
 188              		.text
 189              		.section	.gnu.lto_.refs.6392fcadba5778a1,"",%progbits
 190 0000 789C6362 		.ascii	"x\234cb`b\340f\200\000F&\006f&\026FfFf\006\000\001\267"
 190      6062E066 
 190      80004626 
 190      06662616 
 190      46664666 
 191 0018 0024     		.ascii	"\000$"
 192              		.text
 193              		.section	.gnu.lto_.decls.6392fcadba5778a1,"",%progbits
 194 0000 789CBD5C 		.ascii	"x\234\275\\\015t\024\325\275\237\231\335\354\007\204"
 194      0D7414D5 
 194      BD9F99DD 
 194      EC0784
 195 000f 80B45AB4 		.ascii	"\200\264Z\264T\343;\332\327\366\035M@[\361\274\036?"
 195      54E33BDA 
 195      D7F61D4D 
 195      405BF1BC 
 195      1E3F
 196 0021 4EA4CA29 		.ascii	"N\244\312) \007\360\225w\236v\0356\003Y\335\257\316"
 196      2007F095 
 196      779E761D 
 196      360359DD 
 196      AFCE
 197 0033 4E00FB7A 		.ascii	"N\000\373zN\207\240\021\021%F@\020\220\200\204\002\242"
 197      4E87A011 
 197      11254640 
 197      10908084 
 197      02A2
 198 0045 02916F4A 		.ascii	"\002\221oJF\221\020@\371\026B\220t\201\362\012}HC\020"
 198      46911040 
 198      F9164290 
 198      7481F20A 
 198      7D484310 
 199 0059 8580E4DD 		.ascii	"\205\200\344\335\373\2773\263sgg63\253}s2\377\235\257"
 199      FBBF33B3 
 199      73676736 
 199      33AB7D73 
 199      32FF9DAF 
 200 006d FBBBFFAF 		.ascii	"\373\273\377\257\373\277\377{\357L8\206c\376\3001L\027"
 200      FBBFFF7B 
 200      EF4C3886 
 200      63FEC031 
 200      4C17
 201 007f DA360F61 		.ascii	"\3326\017a\230X\200a|\014\303<\200vt\231\361\243=\310"
 201      98588061 
 201      7C0CC33C 
ARM GAS  /var/folders/c6/c789hm653lg9vtl73krp73tm0000gn/T//ccxnP4td.s 			page 15


 201      80767499 
 201      F1A33DC8 
 202 0093 90AD00ED 		.ascii	"\220\255\000\355\213\320\276\007\355\207\320~\024\355"
 202      8BD0BE07 
 202      ED87D07E 
 202      14ED
 203 00a1 C7D1CEA2 		.ascii	"\307\321\316\242\375\014Co\213\324\262+\321^\217\366"
 203      FD0C436F 
 203      8BD4B22B 
 203      D15E8FF6 
 204 00b1 25EAF966 		.ascii	"%\352\371f\264+*&\306{\007\355\353\320\276\001\355\233"
 204      B42B2A26 
 204      C67B07ED 
 204      EBD0BE01 
 204      ED9B
 205 00c3 D0DEA8E2 		.ascii	"\320\336\250\342-R\177w\233pq\335>\025\367N\304\340"
 205      2D527F77 
 205      9B7071DD 
 205      3E15F74E 
 205      C4E0
 206 00d5 8FD1FE24 		.ascii	"\217\321\376$\227\251\003\363|\027G\3608\365\371\247"
 206      97A903F3 
 206      7C1747F0 
 206      38F5F9A7 
 207 00e5 388275C0 		.ascii	"8\202u\300\204\205e\350m\3403h\302\014\242\375,\272"
 207      848565E8 
 207      6DE03368 
 207      C20CA2FD 
 207      2CBA
 208 00f7 C67304BB 		.ascii	"\306s\004\273\010\355\205\252\014\365\252\034\001\265"
 208      08ED85AA 
 208      0CF5AA1C 
 208      01B5
 209 0105 BE00DA8B 		.ascii	"\276\000\332\2138\"\303\006U\216u\252|\036\265.\314"
 209      3822C306 
 209      558E75AA 
 209      7C1EB52E 
 209      CC
 210 0116 C7588EF0 		.ascii	"\307X\216\360u\304BgG\325:\352\015u\351\274\231x1\352"
 210      75C44267 
 210      47D53AEA 
 210      0D75E9BC 
 210      997831EA 
 211 012a 3186AE2D 		.ascii	"1\206\256-V\237\325\370\260\322\253W\255\303hC+\333"
 211      569FD5F8 
 211      B0D2AB57 
 211      ADC36843 
 211      2BDB
 212 013c 1D57EB5E 		.ascii	"\035W\353^\311d\354o\245k\243>\024\325.\232\356\265"
 212      C964EC6F 
 212      A56BA33E 
 212      14D52E9A 
 212      EEB5
 213 014e 3A8D3A38 		.ascii	":\215:8n\322\301i\264\2372\325}\033\363\226\234nO\237"
 213      6ED2C169 
 213      B49F32D5 
 213      7D1BF396 
ARM GAS  /var/folders/c6/c789hm653lg9vtl73krp73tm0000gn/T//ccxnP4td.s 			page 16


 213      9C6E4F9F 
 214 0162 EE5875B3 		.ascii	"\356Xu\263\\W\245tu5\312,s\0233KF[]\265,\263\022\317"
 214      5C57A574 
 214      7535CA2C 
 214      7313334B 
 214      465B5DB5 
 215 017a 3E702333 		.ascii	">p#3\206\345\331\242 S\014\007\205A\020\015)\207]\314"
 215      86E5D9A2 
 215      20530C07 
 215      8541100D 
 215      29875DCC 
 216 018e DE04471E 		.ascii	"\336\004G\036\250\200\351\311L\223\345*\\\360\261\346"
 216      A880E9C9 
 216      4C93E52A 
 216      5CF0B1E6 
 217 019e A2BECC6B 		.ascii	"\242\276\314k\030\245x\352)$\264\012\240\260\032B?,"
 217      18A578EA 
 217      2924B40A 
 217      A0B01A42 
 217      3F2C
 218 01b0 24B34496 		.ascii	"$\263D\226k\322W/O\367\310r\200g\353\331\276\010\347"
 218      6BD2572F 
 218      4FF7C872 
 218      8067EBD9 
 218      BE08E7
 219 01c3 972CF333 		.ascii	"\227,\3633f9*Y#\313'\377\225e\262\267\356\2211o\313"
 219      66392A59 
 219      23CB27FF 
 219      9565B2B7 
 219      EE91316F 
 220 01d8 111ACF2E 		.ascii	"\021\032\317.c\177F\352\221\225\325M\205\262\227\\g"
 220      637F46EA 
 220      9195D54D 
 220      85B2975C 
 220      67
 221 01e9 D43B16DB 		.ascii	"\324;\026\333\355L\035\222Aih\232\2174\362\021\033d"
 221      ED4C1D92 
 221      4169689A 
 221      8F34F211 
 221      1B64
 222 01fb A6664462 		.ascii	"\246fDb,\025\241\212q\274\251i?;\005\251\214gW\242b"
 222      2C15A18A 
 222      71BCA969 
 222      3F3B05A9 
 222      8C6757A2 
 223 0210 1CF332CB 		.ascii	"\034\3632\313R\3258\207:2m\373\207l\025@\275\017P\351"
 223      52D53887 
 223      3A326DFB 
 223      876C1540 
 223      BD0F50E9 
 224 0224 BCA11A66 		.ascii	"\274\241\032fl\271\037\224\273\006\200\2328\032\210"
 224      6CB91F94 
 224      BB06809A 
 224      381A88
 225 0233 67FD41A3 		.ascii	"g\375A\243\364p\256=\200\321\340\266z\200\203Vo\346"
 225      F470AE3D 
 225      80D1E0B6 
ARM GAS  /var/folders/c6/c789hm653lg9vtl73krp73tm0000gn/T//ccxnP4td.s 			page 17


 225      7A808356 
 225      6FE6
 226 0245 9FFC38C7 		.ascii	"\237\3748\307\354\007\036\261\231\254\344R\017\311\246"
 226      EC071EB1 
 226      99ACE452 
 226      0FC9A6
 227 0254 3E40992E 		.ascii	">@\231.\335yf:\230N\263\303a\327x\305\224+\254k*\254"
 227      DD79663A 
 227      984EB3C3 
 227      61D778C5 
 227      942BAC6B 
 228 026a E135B0CF 		.ascii	"\3415\260\317\235\200\005l\231S6`0\027NU\375\231\346"
 228      9D80056C 
 228      99533660 
 228      30174E55 
 228      FD99E6
 229 027d 549BA1FE 		.ascii	"T\233\241\376\023Y\006\304\036\342Z\307g\\\213A\351"
 229      135906C4 
 229      1EE25AC7 
 229      675C8B41 
 229      E9
 230 028e 247DF5CB 		.ascii	"$}\365\313\351\367\277)+sJUQ\224jy*;yu\177\375\361\207"
 230      E9F7BF29 
 230      2B734A55 
 230      51946A79 
 230      2A3B7975 
 231 02a6 8C20BA30 		.ascii	"\214 \2720;4a\024\020\346\357\234\245[;\002;2m\257\326"
 231      3B346114 
 231      10E6EF9C 
 231      A55B3B02 
 231      3B326DAF 
 232 02bb 46B601D8 		.ascii	"F\266\001\330\305\374\301\352\032\366\366\307\241\241"
 232      C5FCC1EA 
 232      1AF6F6C7 
 232      A1A1
 233 02c9 0980AE65 		.ascii	"\011\200\256e\2518h\322p\220\326p0\2309\350\3226:p\375"
 233      A93868D2 
 233      7090D670 
 233      309839E8 
 233      D2363A70 
 234 02de 53CB70CC 		.ascii	"S\313p\314\213\036\2239)!\325\303>\026^i\265\031C'\317"
 234      8B1E9339 
 234      2921D5C3 
 234      3E165E69 
 234      B5194327 
 235 02f3 AE60EF44 		.ascii	"\256`\357D\364\035\366vD\327\001\335\000t\023\320FD"
 235      F41DF676 
 235      44D701DD 
 235      007413D0 
 235      4644
 236 0305 F5CDAE97 		.ascii	"\365\315\256\227X\302\366\314`?\341\321\237\347\230"
 236      58C2F6CC 
 236      603FE1D1 
 236      9FE798
 237 0314 5A0FADEA 		.ascii	"Z\017\255\352;\230\267e\271\026uG\315\005se\305K\212"
 237      3B98B765 
 237      B9167547 
ARM GAS  /var/folders/c6/c789hm653lg9vtl73krp73tm0000gn/T//ccxnP4td.s 			page 18


 237      CD057365 
 237      C54B8A
 238 0327 72CC2278 		.ascii	"r\314\"xl\021{\233e\025z\005?f\352q\277\360\212\374"
 238      6C117B9B 
 238      65157A05 
 238      3F66EA71 
 238      BFF08AFC 
 239 033b 421F16BA 		.ascii	"B\037\026\272-F-E\011\267\213\345\214\027H\017\250\034"
 239      2D462D45 
 239      09B78BE5 
 239      8C17480F 
 239      A81C
 240 034d DD3143EB 		.ascii	"\3351C\353\001\037R;6\216\251\247\330\203N\216c6{X#"
 240      011F523B 
 240      368EA9A7 
 240      D8834E8E 
 240      63367B58 
 241 0362 B3F245E1 		.ascii	"\263\362E\3411\302\001\317~\202\240yv\217C>\033\345"
 241      31C201CF 
 241      7E82A079 
 241      768F433E 
 241      1BE5
 242 0374 11FD7436 		.ascii	"\021\375t6\367\230\331\334k\311f\355\256\302\232\311"
 242      F798D9DC 
 242      6BC966ED 
 242      AEC29AC9 
 243 0384 E9AEAE85 		.ascii	"\351\256\256\205\305\032\217\037g\363\310\263\373\265"
 243      C51A8F1F 
 243      67F3C8B3 
 243      FBB5
 244 0392 C22A8F17 		.ascii	"\302*\217\027\314<\036\312\207\307Cf\036?\313\346\261"
 244      CC3C1ECA 
 244      87C74366 
 244      1E3FCBE6 
 244      B1
 245 03a3 2EAD3456 		.ascii	".\2554V\357fQ\235\327\272\272<.R\211V5\225\310x\010"
 245      EF66519D 
 245      D7BABA3C 
 245      2E528956 
 245      3595C878 
 246 03b8 C71C35B9 		.ascii	"\307\0345\271\207\316\226\274L\366\350l\0355\263u\314"
 246      87CE96BC 
 246      4CF6E86C 
 246      1D35B375 
 246      CC
 247 03c9 92ADCF76 		.ascii	"\222\255\317v\031,\354\234\2576:\305!\012\242N\230,"
 247      192CEC9C 
 247      AF363AC5 
 247      210AA24E 
 247      982C
 248 03db B73EE9C4 		.ascii	"\267>\351\304&_k6\341\230Nx\376xn\233\220b\312a\344"
 248      265F6B36 
 248      E1984E78 
 248      FE786E9B 
 248      9062CA61 
 249 03f0 01AC56B0 		.ascii	"\001\254V\260\313IAMkH\003\275\247=\255\253\355\270"
 249      CB49414D 
ARM GAS  /var/folders/c6/c789hm653lg9vtl73krp73tm0000gn/T//ccxnP4td.s 			page 19


 249      6B4803BD 
 249      A73DADAB 
 249      EDB8
 250 0402 596D2768 		.ascii	"Ym'h\265\375\013\263HN\327\244\347\236l~\211\375\260"
 250      B5FD0BB3 
 250      484ED7A4 
 250      E79E6C7E 
 250      89FDB0
 251 0415 5E566A90 		.ascii	"^Vj\220\256\332\331\256.\277e\372\365\224Vq\013\256"
 251      AEDAD9AE 
 251      2EBF65FA 
 251      F5945671 
 251      0BAE
 252 0427 518DD1F3 		.ascii	"Q\215\321\363N)\267n\222\345><{\026R\273]^\332\236\016"
 252      4E29B76E 
 252      92E53E3C 
 252      7B1652BB 
 252      5D5EDA9E 
 253 043c 9050F70D 		.ascii	"\220P\367\015\205\316\231\2629\304\327\276Is\000\373"
 253      85CE99B2 
 253      39C4D7BE 
 253      497300FB 
 254 044c 9C83844E 		.ascii	"\234\203\204NV\026\264\315gqV\240\325i\350x\323z\356"
 254      5616B4CD 
 254      677156A0 
 254      D569E878 
 254      D37AEE
 255 045f D8DFC8FB 		.ascii	"\330\337\310\373\345[\266\002~;\360\236\266\341\335"
 255      E55BB602 
 255      7E3BF09E 
 255      B6E1DD
 256 046e 168763BE 		.ascii	"\026\207c\276\200\"\027\2639W\236!\234_t\304\371\301"
 256      802217B3 
 256      39579E21 
 256      9C5F74C4 
 256      F9C1
 257 0480 565BCEAD 		.ascii	"V[\316\255:F\244\364[v\002\374\327\300\370Uk\306\353"
 257      3A46A4F4 
 257      5B7602FC 
 257      D7C0F855 
 257      6BC6EB
 258 0493 1EB2C341 		.ascii	"\036\262\303A\231k\001.\322\231\315\370\345\273\011"
 258      996B012E 
 258      D299CDF8 
 258      E5BB09
 259 04a2 E39D8E72 		.ascii	"\343\235\216r\350\013//\200D\254\333a\201\354\323\352"
 259      E80B2F2F 
 259      8044ACDB 
 259      6181ECD3 
 259      EA
 260 04b3 7F3A23C7 		.ascii	"\177:#\307\233\247.\373!s\355\0021\346\027t\357;4\016"
 260      9BA72EFB 
 260      2173ED02 
 260      31E61774 
 260      EF3B340E 
 261 04c7 8ADF50A6 		.ascii	"\212\337P\246\212\313v\235AD\016|\253{9\336xu\201\232"
 261      8ACB769D 
ARM GAS  /var/folders/c6/c789hm653lg9vtl73krp73tm0000gn/T//ccxnP4td.s 			page 20


 261      41440E7C 
 261      AB7B39DE 
 261      7875819A 
 262 04db 505E8756 		.ascii	"P^\207V\367\276\016\233W\202\252\274\271\007\022J\002"
 262      F7BE0E9B 
 262      5782AABC 
 262      B907124A 
 262      02
 263 04ec B6CE3558 		.ascii	"\266\3165X1\005\266p\217\353\201J\365\036-\015\233\306"
 263      3105B670 
 263      8FEB814A 
 263      F51E2D0D 
 263      9BC6
 264 04fe E184E7CF 		.ascii	"\341\204\347\317\005\337IN\271\335\211$\266\2511\264"
 264      05DF494E 
 264      B9DD8924 
 264      B6A931B4 
 265 050e 8BFB37AE 		.ascii	"\213\3737\256\221\345\227|\232\213\372\354$\341\230"
 265      91E5977C 
 265      9A8BFAEC 
 265      24E198
 266 051d 4FA0B219 		.ascii	"O\240\262\031f\323\036=\337\374Sb\332\031\216L\273v"
 266      66D31E3D 
 266      DFFC5362 
 266      DA198E4C 
 266      BB76
 267 052f D71BF62E 		.ascii	"\327\033\366.j\250\275\216\323\252\277\003\252\357\204"
 267      6AA8BD8E 
 267      D3AABF03 
 267      AAEF84
 268 053e EA679AAB 		.ascii	"\352g\232\253_\320\221~\200T?\323Q\365\013\017\314\314"
 268      5FD0917E 
 268      80543FD3 
 268      51F50B0F 
 268      CCCC
 269 0550 AEDEB63B 		.ascii	"\256\336\266;R\355w\364\374\231\376\013\241\2229\034"
 269      52ED77F4 
 269      FC99FE0B 
 269      A192391C 
 270 0560 F6A0553E 		.ascii	"\366\240U>\263\371\036\354i\254\013\316\015\017p\314"
 270      B3F91EEC 
 270      69AC0BCE 
 270      0D0F70CC 
 271 0570 469FC67D 		.ascii	"F\237\306}~#\254\005\035\312\220\345`)\215\207-\256"
 271      7E23AC05 
 271      1DCA90E5 
 271      60298D87 
 271      2DAE
 272 0582 11692F5E 		.ascii	"\021i/^s\000\232\004\001kt\002\226c\214\365\201\021"
 272      73009A04 
 272      016B7402 
 272      96638CF5 
 272      8111
 273 0594 EC23D760 		.ascii	"\354#\327`4g\353\214`\333\235\200Y\345\331\332\350\317"
 273      3467EB8C 
 273      60DB9D80 
 273      59E5D9DA 
ARM GAS  /var/folders/c6/c789hm653lg9vtl73krp73tm0000gn/T//ccxnP4td.s 			page 21


 273      E8CF
 274 05a6 08D6EC1A 		.ascii	"\010\326\354\032\214\346l\223\021l\267\023\260~\366"
 274      8CE66C93 
 274      116CB713 
 274      B07EF6
 275 05b5 9C6D3182 		.ascii	"\234m1\202\355u\015Fs\266\325\010v\320\011X\261\005"
 275      ED750D46 
 275      73B6D508 
 275      76D00958 
 275      B105
 276 05c7 67FA6697 		.ascii	"g\372f\227\232\275\316\351~\216\322\004\237\026\020"
 276      9ABDCEE9 
 276      7E8ED204 
 276      9F1610
 277 05d6 5CFA3493 		.ascii	"\\\3724\223\301h\365\271\215`\224\334\270c\271\177\223"
 277      C168F5B9 
 277      8D6094DC 
 277      B863B97F 
 277      93
 278 05e7 DA2E4874 		.ascii	"\332.HtO;A\314\3410\353\214]\305\031\327`\264Y\016a"
 278      4F3B41CC 
 278      E130EB8C 
 278      5DC519D7 
 278      60B4590E 
 279 05fc 302AD4A8 		.ascii	"0*\324\250\235F\272^\3517'\023\354\002\032\026\036\350"
 279      9D46BA5E 
 279      E9372713 
 279      EC021A16 
 279      1EE8
 280 060e 90C85623 		.ascii	"\220\310V#\313\234\376\260\334\257\237\365\263<\273"
 280      CB9CFEB0 
 280      DCAF9FF5 
 280      B33CBB
 281 061d 96C3A3C5 		.ascii	"\226\303\243\305u\\P\347\202\034kGd\270\332\356\263"
 281      755C50E7 
 281      821C6B47 
 281      64B8DAEE 
 281      B3
 282 062e 9AD60380 		.ascii	"\232\326\003\200\334E\355<\241\301\350\011\227\234\250"
 282      DC45ED3C 
 282      A1C1E809 
 282      979CA8
 283 063d 29475368 		.ascii	")GSh\267S\223\243y\011\024\235\177\264\002\242\363f"
 283      B75393A3 
 283      7909149D 
 283      7FB402A2 
 283      F366
 284 064f E85CAF65 		.ascii	"\350\\\257eE\347m\346\316\325\3410\337N\370MF\341_\364"
 284      45E76DE6 
 284      CED5E130 
 284      DF4EF84D 
 284      46E15FF4 
 285 0663 BB15DEEC 		.ascii	"\273\025\336\354\302g\376}\343{\262<\305g0wN\337\300"
 285      C267FE7D 
 285      E37BB23C 
 285      C5673077 
 285      4EDFC0
ARM GAS  /var/folders/c6/c789hm653lg9vtl73krp73tm0000gn/T//ccxnP4td.s 			page 22


 286 0676 339F9FE8 		.ascii	"3\237\237\350\363: s\255\337r*\306\001\324\221i\357"
 286      F33A2073 
 286      ADDF722A 
 286      C601D491 
 286      69EF
 287 0688 FE1B247D 		.ascii	"\376\033$}\333\000h^\336@\0153\336\032\004@M\000\364"
 287      DB00685E 
 287      DE400D33 
 287      DE1A0440 
 287      4D00F4
 288 069b B6DF6C05 		.ascii	"\266\337l\005\263\021X\332\010l0s\2205/\363\035>\313"
 288      B31158DA 
 288      086C3073 
 288      90352FF3 
 288      1D3ECB
 289 06ae 31EF9A2D 		.ascii	"1\357\232-F\211\223#>\352\026k\376\245k\213U\353\026"
 289      46899323 
 289      3EEA166B 
 289      FEA56B8B 
 289      55EB16
 290 06c1 DB0DFA59 		.ascii	"\333\015\372Y\233\245\237m\234;\005\2414\322\265 \001"
 290      9BA59F6D 
 290      9C3B05A1 
 290      34D2B520 
 290      01
 291 06d2 9320ED79 		.ascii	"\223 \355y\010\362\251&\310>\020d\373w \310\247\256"
 291      08F2A926 
 291      C83E1064 
 291      FB7720C8 
 291      A7AE
 292 06e4 05E96310 		.ascii	"\005\351c\020\004'\262\315\303I\"\373=\2466w\"\013\263"
 292      0427B2CD 
 292      C34922FB 
 292      3DA63677 
 292      220BB3
 293 06f7 28DCF7A8 		.ascii	"(\334\367\250,R\271\264\227-&\227\273\037\034\276~\300"
 293      2C52B9B4 
 293      972D2697 
 293      BB1F1CBE 
 293      7EC0
 294 0709 90FECBCE 		.ascii	"\220\376\313\316\326)\364\364\277\005Tv\310\252\221"
 294      D629F4F4 
 294      BF055476 
 294      C8AA91
 295 0718 39823AB2 		.ascii	"9\202:\262\353\343\325\352\034\3541\200j\315\033\252"
 295      EBE3D5EA 
 295      1CEC3180 
 295      6ACD1BAA 
 296 0728 61EF7AD2 		.ascii	"a\357z\322^\333\000\350d\226\031}&+\372h+\242S\\\323"
 296      5EDB00E8 
 296      6496197D 
 296      262BFA68 
 296      2BA2535C 
 297 073d 6588957F 		.ascii	"e\210\225\177T\257\340\023?\363\377^\216c\316\001\373"
 297      54AFE013 
 297      3FF3FF5E 
 297      8E63CE01 
ARM GAS  /var/folders/c6/c789hm653lg9vtl73krp73tm0000gn/T//ccxnP4td.s 			page 23


 297      FB
 298 074e D882F924 		.ascii	"\330\202\371$\3300\024\032\262QM$\210\221.~+\304*\245"
 298      D830141A 
 298      B2514D24 
 298      88912E7E 
 298      2BC42AA5 
 299 0762 B1561BC3 		.ascii	"\261V\033\303>\210S\211k\337\022\356\363\003\346>\322"
 299      3E885389 
 299      6BDF12EE 
 299      F303E63E 
 299      D2
 300 0773 3484E9B2 		.ascii	"4\204\351\262YZ\320')\322\375VB/y\006\222\304)\001\263"
 300      595AD027 
 300      29D2FD56 
 300      422F7906 
 300      92C42901 
 301 0788 BDAFB3A6 		.ascii	"\275\257\263\246A\314u\226\032\305\330\265\246\277\031"
 301      41CC7596 
 301      1AC5D8B5 
 301      A6BF19
 302 0797 7BC3D981 		.ascii	"{\303\331\201o%&\016I\277&\011]w\003\304\2475\264B\250"
 302      6F25260E 
 302      49BF2609 
 302      5D7703C4 
 302      A735B442 
 303 07ac 783E547C 		.ascii	"x>T|\336<>lx\373D\265\332`\316;\030 \312\312\261\323"
 303      DE3C3E6C 
 303      78FB44B5 
 303      DA60CE3B 
 303      1820CACA 
 304 07c2 41B9B650 		.ascii	"A\271\266P\233\312\331\251\243Z% \335\272"
 304      9BCAD9A9 
 304      A35A2520 
 304      DDBA
 305 07d0 95D22634 		.ascii	"\225\322&4\227\272\011\024\207\264@\361%\370\340\376"
 305      97BA0914 
 305      87B440F1 
 305      25F8E0FE 
 306 07e0 2C231D33 		.ascii	",#\0353\307VW\255\344\210Y\034\247\343<}\263s\202/\214"
 306      C75657AD 
 306      E488591C 
 306      A7E33C7D 
 306      B373822F 
 307 07f5 4E70FC5B 		.ascii	"Np\374[;\301\345\241\316\234@\326'\000\373@\315\177"
 307      3BC1E5A1 
 307      CE9C40D6 
 307      2700FB40 
 307      CD7F
 308 0807 859AAF9A 		.ascii	"\205\232\257\232\275`\363\237v\276\310N\006\305^u\344"
 308      BD60F39F 
 308      76BEC84E 
 308      06C55E75 
 308      E4
 309 0818 0597282F 		.ascii	"\005\227(/x%\250\241\346\343\005U\312\225\263;Y\200"
 309      7825A8A1 
 309      E6E30555 
 309      CA95B33B 
ARM GAS  /var/folders/c6/c789hm653lg9vtl73krp73tm0000gn/T//ccxnP4td.s 			page 24


 309      5980
 310 082a 23A38A59 		.ascii	"#\243\212Yf8\227\243\355k\310\251\334)\206\370\227r"
 310      663897A3 
 310      ED6BC8A9 
 310      DC2986F8 
 310      9772
 311 083c F434EEE6 		.ascii	"\3644\356\346\236\367`\231\026\004\315\256E4cp\255\214"
 311      9EF76099 
 311      1604CDAE 
 311      45346370 
 311      AD8C
 312 084e 1A79F61B 		.ascii	"\032y\366\033\030f\\\347\360\022\224\354\301\264\312"
 312      18665CE7 
 312      F01294EC 
 312      C1B4CA
 313 085d E360216A 		.ascii	"\343`!j\212\307\340\026\365\256\345.v\350}\235F\357"
 313      8AC7E016 
 313      F5AEE52E 
 313      76E87D9D 
 313      46EF
 314 086f 5B19FC76 		.ascii	"[\031\374v\3367\347\344\345ase\345y\217\2337\021\366"
 314      DE37E7E4 
 314      E5617365 
 314      E5798F9B 
 314      3711F6
 315 0882 EA137C1E 		.ascii	"\352\023|\036\334p\033\262\264\233\327\004_c\276\242"
 315      DC701BB2 
 315      B49BD704 
 315      5F63BEA2 
 316 0892 E81BC734 		.ascii	"\350\033\3074\005\035\214O\212-\264\256\367\214\355"
 316      051D8C4F 
 316      8A2DB4AE 
 316      F78CED
 317 08a1 C31D4E12 		.ascii	"\303\035N\022\352]M\363\315\315\320\325\324\200\253"
 317      EA5D4DF3 
 317      CDCDD0D5 
 317      D480AB
 318 08b0 ED3229C3 		.ascii	"\3552)\303\301d\343Q(\362\272'{\"_\235\017\307\267\272"
 318      C164E351 
 318      28F2BA27 
 318      7B225F9D 
 318      0FC7B7BA 
 319 08c4 9FED3BF8 		.ascii	"\237\355;\370\262q\036\231g\2539N\205\315W\237\224\011"
 319      B2711E99 
 319      67AB394E 
 319      85CD579F 
 319      9409
 320 08d6 33FCF1EC 		.ascii	"3\374\361\354,\017n \263\215\215\202c\316:\321\375O"
 320      2C0F6E20 
 320      B38D8D82 
 320      63CE3AD1 
 320      FD4F
 321 08e8 EC5C5156 		.ascii	"\354\\QV\256\034$\013\021Z \272h\306\263\012D\024\036"
 321      AE1C240B 
 321      115A20BA 
 321      68C6B30A 
 321      44141E
ARM GAS  /var/folders/c6/c789hm653lg9vtl73krp73tm0000gn/T//ccxnP4td.s 			page 25


 322 08fb 654BA5E6 		.ascii	"eK\245\3460Ln\220\004\347\272\023\346J\355\300\252\224"
 322      304C6E90 
 322      04E7BA13 
 322      E64AEDC0 
 322      AA94
 323 090d F9048C38 		.ascii	"\371\004\2148\374\363=\034\200\015\262\223\264J\331"
 323      FCF33D1C 
 323      800DB293 
 323      B44AD9
 324 091c 3C5BB354 		.ascii	"<[\263T'\244'3\\\343\321\314\035<<_\305#3\356s\235\340"
 324      27A42733 
 324      5CE3D1CC 
 324      1D3C3C5F 
 324      C52333EE 
 325 0933 3D64CFDF 		.ascii	"=d\317\337\205\331T6\267\3045\034m\210o\016c\303N\357"
 325      85D95436 
 325      B7C4351C 
 325      6D886F0E 
 325      63C34EEF 
 326 0947 A7BD82B5 		.ascii	"\247\275\202\265\322\214G\277]\245\036>\346\3303\253"
 326      D28C47BF 
 326      5DA51E3E 
 326      E6D833AB 
 327 0957 0CA1FB79 		.ascii	"\014\241\373y\010\335/@\350~\021\350K@_\005\372\036"
 327      08DD2F40 
 327      E87E11E8 
 327      4B405F05 
 327      FA1E
 328 0969 D05540D7 		.ascii	"\320U@\327\000\335\010\264\021\350.\240{\201\036\002"
 328      00DD08B4 
 328      11E82EA0 
 328      7B811E02 
 329 0979 3A0382FF 		.ascii	":\003\202\377\034\240o\002\235\017\364-\240u@\027\003"
 329      1CA06F02 
 329      9D0FF42D 
 329      A0754017 
 329      03
 330 098a 5DE2A483 		.ascii	"]\342\244\2030\345\230Z\023\355\314\367]$\345\242\251"
 330      30E5985A 
 330      13EDCCF7 
 330      5D24E5A2 
 330      A9
 331 099b C94F758D 		.ascii	"\311Ou\215W\234K\261\235\206\0275\256\301\213\032\337"
 331      579C4BB1 
 331      9D861735 
 331      AEC18B1A 
 331      DF
 332 09ac C06B194B 		.ascii	"\300k\031K\351\206\377A\017m!2\277\214\341\263V\332"
 332      E986FF41 
 332      0F6D2132 
 332      BF8CE1B3 
 332      56DA
 333 09be 7DB798F1 		.ascii	"}\267\230\361\\\245\014\262\322\322\012m\025O\326r\314"
 333      5CA50CB2 
 333      D2D20A6D 
 333      154FD672 
 333      CC
ARM GAS  /var/folders/c6/c789hm653lg9vtl73krp73tm0000gn/T//ccxnP4td.s 			page 26


 334 09cf 36D760C5 		.ascii	"6\327`\305\024s\177y\223^\235\333\351\004/\307\224k"
 334      14737F79 
 334      935E9DDB 
 334      E9042FC7 
 334      946B
 335 09e1 7BAB61CA 		.ascii	"{\253a\312u\277k0\232\271\257\214`G\235\200YMLZ\033"
 335      75BF6B30 
 335      9AB9AF8C 
 335      60479D80 
 335      594D4C5A 
 336 09f6 FFA2C1F8 		.ascii	"\377\242\301\370\227\300\370_\201\361\227\201\277\257"
 336      97C0F85F 
 336      81F19781 
 336      BFAF
 337 0a04 00BA12E8 		.ascii	"\000\272\022\350{@W\321Nq\252\207\266\256\256VF/_w\347"
 337      7B4057D1 
 337      4E71AA87 
 337      B6AEAE56 
 337      462F5F77 
 338 0a19 15B2B2D6 		.ascii	"\025\262\262\326~E\335*\337C\035q{\377\026\350.?\200"
 338      7E45DD2A 
 338      DF431D71 
 338      7BFF16E8 
 338      2E3F80
 339 0a2c 8EF86C8F 		.ascii	"\216\370l\217nW\324\315\011u\027\024Y\237\335\021\267"
 339      6E57D4CD 
 339      09751714 
 339      599FDD11 
 339      B7
 340 0a3d 844847BC 		.ascii	"\204HG\274\336QG|\345\215\034\013\323\306U?\275\372"
 340      DE51477C 
 340      E58D1C0B 
 340      D3C6553F 
 340      BDFA
 341 0a4f EF1BC568 		.ascii	"\357\033\305h\356O\326\327\267\200\030\263{v+\006\215"
 341      EE4FD6D7 
 341      B78018B3 
 341      7B762B06 
 341      8D
 342 0a60 C3314BA1 		.ascii	"\3031K\241H\243\205\030O\0211\032\035\211\261\361\015"
 342      48A38518 
 342      4F11311A 
 342      1D89B1F1 
 342      0D
 343 0a71 CDF3377B 		.ascii	"\315\3637{\260\177\255\327a\363\013V\233\216\200\263"
 343      B07FADD7 
 343      61F30B56 
 343      9B8E80B3 
 344 0a81 12B046D7 		.ascii	"\022\260F\327`\264\347\377\371\210\333u\351y\247Z\226"
 344      60B4E7FF 
 344      F988DB75 
 344      E979A75A 
 344      96
 345 0a92 AA83E31D 		.ascii	"\252\203\343\035\320\213\3570i6\317\264u\277\023I\354"
 345      D08BEF30 
 345      6936CFB4 
 345      75BF1349 
ARM GAS  /var/folders/c6/c789hm653lg9vtl73krp73tm0000gn/T//ccxnP4td.s 			page 27


 345      EC
 346 0aa3 073878FC 		.ascii	"\0078x\374\367\324\306\354\361\237\363W\210>\365\230"
 346      F7D4C6EC 
 346      F19FF357 
 346      883EF598 
 347 0ab3 5E2182F5 		.ascii	"^!\202\365X\303\033C9\225\222\376\3412\360\211O\300"
 347      58C31B43 
 347      399592FE 
 347      E132F089 
 347      4FC0
 348 0ac5 2CAD269D 		.ascii	",\255&\235\230\246]pUvl\354\367\364\264q\251\254{(:"
 348      98A65D70 
 348      55766CEC 
 348      F7F4B471 
 348      A9AC7B28 
 349 0ada B8561A65 		.ascii	"\270V\032e~<\007\372[m)\014r\224\377u\002\350\374\025"
 349      7E3C07FA 
 349      5B6D290C 
 349      7294FF75 
 349      02E8FC15 
 350 0aee C54643B2 		.ascii	"\305FC\262\373!$\273\037A\220\373\030h\023\320\335@"
 350      FB2124BB 
 350      1F4190FB 
 350      186813D0 
 350      DD40
 351 0b00 0F3AE9F8 		.ascii	"\017:\351\3707{\014\257(n\363pj\224\311\257\035]\313"
 351      377B0CAF 
 351      286EF370 
 351      6A94C9AF 
 351      1D5DCB
 352 0b13 B4239EDD 		.ascii	"\264#\236\335\356\032\214R\244\362\232\336\367\342F"
 352      EE1A8C52 
 352      A4F29ADE 
 352      F7E246
 353 0b22 81722027 		.ascii	"\201r 'x9\206\353\253H\217DZXGO\326%Xq.\243\2547\030"
 353      783986EB 
 353      AB488F44 
 353      5A58474F 
 353      D6255871 
 354 0b3b 65231865 		.ascii	"e#\030e\023\230\3403\240\207\201\036\241{\241\353=M"
 354      1398E033 
 354      A087811E 
 354      A17BA1EB 
 354      3D4D
 355 0b4d BD101DF2 		.ascii	"\275\020\035\362\255:E\243~de\313okx\253\220\373\260"
 355      AD3A45A3 
 355      7E6465CB 
 355      6F6B78AB 
 355      90FBB0
 356 0b60 567626F5 		.ascii	"Vv&\365nT\313\217\310X\360\030\304\356\027\012\273\217"
 356      6E54CB8F 
 356      C858F018 
 356      C4EE170A 
 356      BB8F
 357 0b72 DD3410C7 		.ascii	"\3354\020\307\314\2042m\331\301{_\224\004\357\266\356"
 357      CC84326D 
 357      D9C17B5F 
ARM GAS  /var/folders/c6/c789hm653lg9vtl73krp73tm0000gn/T//ccxnP4td.s 			page 28


 357      9404EFB6 
 357      EE
 358 0b83 83F7F353 		.ascii	"\203\367\363S\224\265\363\226f\372\240)z\003\376\000"
 358      94B5F396 
 358      66FAA029 
 358      7A03FE00 
 359 0b93 2558764E 		.ascii	"%XvNJ\255r.\321\331\310\307Ie\245\361\230\346Wdr\357"
 359      4AAD722E 
 359      D1D9C8C7 
 359      4965A5F1 
 359      98E65764 
 360 0ba9 3DD778B4 		.ascii	"=\327x\264\035\016\037\003\277\"`\353\234\200\345H\020"
 360      1D0E1F03 
 360      BF2260EB 
 360      9C80E548 
 360      10
 361 0bba 3BFECBD2 		.ascii	";\376\313\322\250\212\236\267N5\030\265\353\324\211"
 361      A88A9EB7 
 361      4E3518B5 
 361      EBD489
 362 0bc9 5BC96CC7 		.ascii	"[\311l\307Y0\352\211\356\215j\002\302\312=g2\250\262"
 362      5930EA89 
 362      EE8D6A02 
 362      C2CA3D67 
 362      32A8B2
 363 0bdc 70077C2E 		.ascii	"p\007|.r\316QW\274~\207\246\315\002\230\255\007\026"
 363      72CE5157 
 363      BC7E87A6 
 363      CD0298AD 
 363      0716
 364 0bee CEE51D41 		.ascii	"\316\345\035A\032_t\226\240X\316\253\315\332\201\347"
 364      1A5F7496 
 364      A058CEAB 
 364      CDDA81E7 
 365 0bfe D53A4017 		.ascii	"\325:@\027W\273\327\005\215\201E\275dV\305A\362\345"
 365      57BBD705 
 365      8D8145BD 
 365      6456C541 
 365      F2E5
 366 0c10 CC2547AA 		.ascii	"\314%G\2528\326d\014X\0343\255\027\253b\3469\204\252"
 366      38D6640C 
 366      581C33AD 
 366      17AB62E6 
 366      3984AA
 367 0c23 A6F3FB5A 		.ascii	"\246\363\373Z\327x\305\024^'\371\234\003:\2459N\260"
 367      D778C514 
 367      5E27F99C 
 367      033AA539 
 367      4EB0
 368 0c35 7204D3D7 		.ascii	"r\004\323\327w\314\377\201\234VXm\275z\261\031\317j"
 368      77CCFF81 
 368      9C56586D 
 368      BD7AB119 
 368      CF6A
 369 0c47 E5D0793C 		.ascii	"\345\320y<\275d\210\247_A<\375\032b\350\025\240W\201"
 369      BD6488A7 
 369      5F413CFD 
ARM GAS  /var/folders/c6/c789hm653lg9vtl73krp73tm0000gn/T//ccxnP4td.s 			page 29


 369      1A62E815 
 369      A05781
 370 0c5a 7EE3A47B 		.ascii	"~\343\244{\273`\234\370|\247\227[\3474*\020\265\364"
 370      BB609CF8 
 370      7CA7975B 
 370      E7342A10 
 370      B5F4
 371 0c6c 476BF81B 		.ascii	"Gk\370\033\230\032\325\217\210\247i\276\244\267+YkW"
 371      981AD58F 
 371      88A769BE 
 371      A4B72B59 
 371      6B57
 372 0c7e 93BD37C0 		.ascii	"\223\2757\300\021\265\356\000\217\3301[\345\315\274"
 372      11B5EE00 
 372      8FD8315B 
 372      E5CDBC
 373 0c8d 025218CC 		.ascii	"\002R\030\314\034<\250K\260\306,\201\251\336\034\206"
 373      1C3CA84B 
 373      B0C62C81 
 373      A9DE1C86 
 374 0c9d B356F439 		.ascii	"\263V\3649\203\242\277\000E\237\007\345\266\003\225"
 374      83A2BF00 
 374      459F07E5 
 374      B60395
 375 0cac BD5497B5 		.ascii	"\275T\227\265\245\227)\270\231\242\211k3\267\031jOC"
 375      A59729B8 
 375      99A2896B 
 375      33B7196A 
 375      4F43
 376 0cbe ED27A0DE 		.ascii	"\355'\240\336\277\002\375\037\240g\350nsg/S\267i\352"
 376      BF02FD1F 
 376      A067E86E 
 376      73672F53 
 376      B769EA
 377 0cd1 A6D463FB 		.ascii	"\246\324c\373\311\267\364\234\223\373~?\031\177\301"
 377      C9B7F49C 
 377      93FB7E3F 
 377      197FC1
 378 0ce0 A3BD60FB 		.ascii	"\243\275`\373\251\031\222~\233V=TrD\355\266\266B=lw"
 378      A919927E 
 378      9B563D54 
 378      7244EDB6 
 378      B6423D6C 
 379 0cf5 3B2D7BF5 		.ascii	";-{\365\313\037\342\230\362\222\027\327\335\322\313"
 379      CB1FE298 
 379      F29217D7 
 379      DDD2CB
 380 0d04 E59C2C56 		.ascii	"\345\234,V\333t\257)L]\020\212\311U\007#\300\323\352"
 380      DB74AF29 
 380      4C5D108A 
 380      C9550723 
 380      C0D3EA
 381 0d17 1A08F9AA 		.ascii	"\032\010\371\252\353,\324\217\213\272\214Q\326\006\315"
 381      EB2CD48F 
 381      8BBA8C51 
 381      D606CD
 382 0d26 70C6B3AF 		.ascii	"p\306\263\257x\261A_\245]\250\335\254k\253\372\3522"
ARM GAS  /var/folders/c6/c789hm653lg9vtl73krp73tm0000gn/T//ccxnP4td.s 			page 30


 382      78B1415F 
 382      A55DA8DD 
 382      AC6BABFA 
 382      EA32
 383 0d38 CDC0AC6A 		.ascii	"\315\300\254jd\2753\377\015\326\263|\205\336\243A\014"
 383      64BD33FF 
 383      0DD6B37C 
 383      85DEA341 
 383      0C
 384 0d49 CAE8FBC8 		.ascii	"\312\350\373\310?\256\334\007\013\354\265\240\361YE"
 384      3FAEDC07 
 384      0BECB5A0 
 384      F15945
 385 0d58 D61D833D 		.ascii	"\326\035\203=\016\026l\226\245\312g9R\371EM\345\344"
 385      0E166C96 
 385      A5CA6739 
 385      52F9454D 
 385      E5E4
 386 0d6a 43B625C0 		.ascii	"C\266%\300\300,\367*W\341\276\024\232K5\254\025\256"
 386      C02CF72A 
 386      57E1BE14 
 386      9A4B35AC 
 386      15AE
 387 0d7c B18A8DDA 		.ascii	"\261\212\215\332T\276*\230:\305\247M~6\230\301,'?s4"
 387      54BE2A98 
 387      3AC5A74D 
 387      7E3698C1 
 387      2C273F73 
 388 0d91 834E23DA 		.ascii	"\203N#\332VGh\305\216]k\226\301\265f\203k\275\341\305"
 388      564768C5 
 388      8E5D6B96 
 388      C1B56683 
 388      6BBDE1C5 
 389 0da5 F1612ED0 		.ascii	"\361a.\320y@\027\320\316\266\263\310\344l\264]\325\303"
 389      794017D0 
 389      CEB6B3C8 
 389      E46CB45D 
 389      D5C3
 390 0db7 6539BC6D 		.ascii	"e9\274m\356\311\226?\274.\313H,-\356#7!/\270i\220\275"
 390      EEC9963F 
 390      BC2ECB48 
 390      2C2DEE23 
 390      37212FB8 
 391 0dce 359CCBAC 		.ascii	"5\234\313\254\312\351\"\327\201\177\261M\340\277U\027"
 391      CAE922D7 
 391      817FB14D 
 391      E0BF5517 
 392 0dde E5709628 		.ascii	"\345p\226(t\275\352q\332J\026k}\2363L\242\235\207I\264"
 392      74BDEA71 
 392      DA4A166B 
 392      7D9E334C 
 392      A29D8749 
 393 0df3 7FC0245A 		.ascii	"\177\300$Z\003D\335V\240\325\240\325\251@_\003ZGk\370"
 393      0344DD56 
 393      A0D5A0D5 
 393      A9405F03 
 393      5A476BF8 
ARM GAS  /var/folders/c6/c789hm653lg9vtl73krp73tm0000gn/T//ccxnP4td.s 			page 31


 394 0e07 B4DE9834 		.ascii	"\264\336\2304\266\350\217X\340S\034\257\376u\015hdJ"
 394      B6E88F58 
 394      E0531CAF 
 394      FE750D68 
 394      644A
 395 0e19 CE29119E 		.ascii	"\316)\021\236]\005\314t?\277a\365\035J\201\006\365$"
 395      5D05CC74 
 395      3FBF61F5 
 395      1D4A8106 
 395      F524
 396 0e2b A3B7FF55 		.ascii	"\243\267\377U__\331\255.:/\205\010P\333\273\333\324"
 396      5F5FD9AD 
 396      2E3A2F85 
 396      0850DBBB 
 396      DBD4
 397 0e3d 9006822F 		.ascii	"\220\006\202/\003\315\001`AG3\013aey\367A\000\215zV"
 397      03CD0160 
 397      4147330B 
 397      616579F7 
 397      41008D7A 
 398 0e52 773473B0 		.ascii	"w4s\260\232\211\332\207\027\336\360\003.\226\347\027"
 398      9A89DA87 
 398      17DEF003 
 398      2E96E717 
 399 0e62 0610E01A 		.ascii	"\006\020\340\032\\?\216*\004\256\3165\\1\005\367\001"
 399      5C3F8E2A 
 399      04AECE35 
 399      5C3105F7 
 399      01
 400 0e73 0DF72727 		.ascii	"\015\367''pv\241\000\301\255\243\341\336s\015Gs\267"
 400      7076A100 
 400      C1ADA3E1 
 400      DE730D47 
 400      73B7
 401 0e85 81865BEB 		.ascii	"\201\206[\353\004\316n\246\033\301m\242\341\266\272"
 401      04CE6EA6 
 401      1BC16DA2 
 401      E1B6BA
 402 0e94 86A3B9DB 		.ascii	"\206\243\271\333B\303mw\002g\367\032\356\314)\312V\002"
 402      42C36D77 
 402      0267F71A 
 402      EECC29CA 
 402      5602
 403 0ea6 A73716E5 		.ascii	"\2477\026\345;h,(\313q\315\025-\344>Z\310\003N\340\212"
 403      3B682C28 
 403      CB71CD15 
 403      2DE43E5A 
 403      C8034EE0 
 404 0ebb ED4D7080 		.ascii	"\355Mp\200\206kq\015Gsw\210\206ks\002\227c\301\3670"
 404      866B710D 
 404      47737788 
 404      866B7302 
 404      9763C1F7 
 405 0ed0 8153833E 		.ascii	"\201S\203>\316\306\310\024\254]\000\337\346:\344\177"
 405      CEC6C814 
 405      AC5D00DF 
 405      E63AE47F 
ARM GAS  /var/folders/c6/c789hm653lg9vtl73krp73tm0000gn/T//ccxnP4td.s 			page 32


 406 0ee0 6C13F2B5 		.ascii	"l\023\362\265\215c\316\270\226\201VI\013\255\222\016"
 406      8D63CEB8 
 406      96815649 
 406      0BAD920E 
 407 0ef0 2770D432 		.ascii	"'p\32423m\260V\032\356\262k8\232\273\317i\270\353N\340"
 407      336DB056 
 407      1AEEB26B 
 407      389ABBCF 
 407      69B8EB4E 
 408 0f05 6CD7AD51 		.ascii	"l\327\255Q\006\256\301aKp\314\324>n\341h\356\332i\356"
 408      06AEC161 
 408      4B70CCD4 
 408      3E6EE168 
 408      EEDA69EE 
 409 0f19 6A9DC03D 		.ascii	"j\235\300=d\257\273\016\032n\216k8\232\273/i\270\267"
 409      64AFBB0E 
 409      1A6E8E6B 
 409      389ABB2F 
 409      69B8B7
 410 0f2c 9CC059AD 		.ascii	"\234\300Y\255YkI \255\273e\256\341h\356.\323\334\255"
 410      596B4920 
 410      ADBB65AE 
 410      E168EE2E 
 410      D3DCAD
 411 0f3f 710237C2 		.ascii	"q\0027\302^w\2354\334\006\327p4w\327L\241\337\011\334"
 411      5E779D34 
 411      DC06D770 
 411      3477D74C 
 411      A1DF09DC 
 412 0f53 180BEEAC 		.ascii	"\030\013\356\2546c\226\300\263+ I}\007\322\246w\201"
 412      366396C0 
 412      B32B2049 
 412      7D07D2A6 
 412      7781
 413 0f65 BE0F7435 		.ascii	"\276\017t5\320\006\240k\201\256\007\272\021\350\026"
 413      D006A06B 
 413      81AE07BA 
 413      11E816
 414 0f74 A05B812A 		.ascii	"\240[\201*@?\002\332\004\264\031\350.\240\237\000\335"
 414      403F02DA 
 414      04B419E8 
 414      2EA09F00 
 414      DD
 415 0f85 03741FD0 		.ascii	"\003t\037\320\003@\017\001=\014\264\005h\2531i3\255"
 415      03400F01 
 415      3D0CB405 
 415      68AB3169 
 415      33AD
 416 0f97 9B2CB511 		.ascii	"\233,\265\021\035K\363\271W"
 416      1D4BF3B9 
 416      57
 417 0fa0 9F3CC19F 		.ascii	"\237<\301\237\222+\355\351\005\035\373\246\263\027\352"
 417      922BEDE9 
 417      051DFBA6 
 417      B317EA
 418 0faf AB65FC2D 		.ascii	"\253e\374-\376\037\027*}LkA+s\304\3106o\366w\356\315"
 418      FE1F172A 
ARM GAS  /var/folders/c6/c789hm653lg9vtl73krp73tm0000gn/T//ccxnP4td.s 			page 33


 418      7D4C6B41 
 418      2B73C4C8 
 418      366FF677 
 419 0fc5 7DE8544C 		.ascii	"}\350TL\375b\273J^\263L\016\0228\370b\333k\375\235\267"
 419      FD62BB4A 
 419      5EB34C0E 
 419      1238F862 
 419      DB6BFD9D 
 420 0fda 8AF7172F 		.ascii	"\212\367\027/\365\375\266I\302\2636\203M\370\362;K\302"
 420      F5FDB649 
 420      C2B33683 
 420      4DF8F23B 
 420      4BC2
 421 0fec FA79B3F5 		.ascii	"\372y\263\365\177\010t\273\213\257\345Oys}-O\004\311"
 421      7F0874BB 
 421      8BAFE54F 
 421      79737D2D 
 421      4F04C9
 422 0fff 3A       		.ascii	":"
 423 1000 377F3D6F 		.ascii	"7\177=o\322\206\372\275\374~\363\37708i\243\016\372"
 423      D286FABD 
 423      FC7EF3FF 
 423      303869A3 
 423      0EFA
 424 1012 7BF9E3AB 		.ascii	"{\371\343\253w\261r_m\240\377w\300\266/\011\034\251"
 424      77B1725F 
 424      6DA0FF77 
 424      C0B62F09 
 424      1CA9
 425 1024 25DB7085 		.ascii	"%\333p\205+\341k\201\031\336\334\025\252\202\250\337"
 425      2BE16B81 
 425      19DEDC15 
 425      AA82A8DF 
 426 1034 D91F5B3D 		.ascii	"\331\037[=\271\216\225}\372\227\366\270\034\325>\376"
 426      B98E957D 
 426      FA97F6B8 
 426      1CD53EFE 
 427 1044 96D352F8 		.ascii	"\226\323R\370\377:\330\351\367\213\214\245\230[\356"
 427      FF3AD8E9 
 427      F78B8CA5 
 427      985BEE
 428 1053 BEBB84FC 		.ascii	"\276\273\204\374%R%\242T\222\022\303%\341\012)vw\230"
 428      255225A2 
 428      549212C3 
 428      25E10A29 
 428      767798
 429 1066 B9D5742B 		.ascii	"\271\325t+\022\017G+\313\005r\273\202\351+EbB(&\360"
 429      120F472B 
 429      CB0572BB 
 429      82E92B45 
 429      62422826 
 430 107b A94A5188 		.ascii	"\251JQ\210\011q)$\371\036\035\376Dq\031s\257\251`2!"
 430      09712924 
 430      F91E1DFE 
 430      44711973 
 430      AFA96032 
 431 1090 4AA99287 		.ascii	"J\251\222\207G\016+\0336\251$\234\210%#QAL\225<ZV\206"
ARM GAS  /var/folders/c6/c789hm653lg9vtl73krp73tm0000gn/T//ccxnP4td.s 			page 34


 431      470E2B1B 
 431      36A9249C 
 431      88252351 
 431      414C953C 
 432 10a7 B19E4B0A 		.ascii	"\261\236K\012)\004\347\027\2450\306\030ZR\231\022K\242"
 432      2904E717 
 432      A530C618 
 432      5A529912 
 432      4BA2
 433 10b9 89301F2D 		.ascii	"\2110\037-)\023\242Q^,\031\037\016\337\305\213\261\273"
 433      2913A251 
 433      5E2C191F 
 433      0EDFC58B 
 433      B1BB
 434 10cb E289B870 		.ascii	"\342\211\270p\227\300\217\215\224\014,\035po\351\240"
 434      97C08F8D 
 434      940C2C1D 
 434      706FE9A0 
 435 10db D29F97D0 		.ascii	"\322\237\227\320\2275\016SRy$.!\320@%\372\275g`Hz\362"
 435      97350E53 
 435      5279242E 
 435      21D04025 
 435      FABD6760 
 436 10f2 3B408DF1 		.ascii	";@\215\361\341\212H\\(\011\225\013\343\370\312(\342"
 436      E18A485C 
 436      2809950B 
 436      E3F8CA28 
 436      E2
 437 1103 5565BD47 		.ascii	"Ue\275G(\244\325\343\035+\244\244\202\211\0111%y\243"
 437      28A4D5E3 
 437      1D2BA4A4 
 437      82890931 
 437      2579A3
 438 1116 7C4AF255 		.ascii	"|J\362U\202Pl< J\240/\011X\372\305\275!I-\005\207\341"
 438      82506C3C 
 438      204AA02F 
 438      0958FAC5 
 438      BD21492D 
 439 112d CA586594 		.ascii	"\312Xe\224\227\"\023\204\242p\305\350a\217\217}F\010"
 439      97221384 
 439      A270C5E8 
 439      618F8F7D 
 439      4608
 440 113f 4B43E211 		.ascii	"KC\342\021\311#\305\2227\342K\243$^\224\206e\224=&\020"
 440      C923C592 
 440      37E24BA3 
 440      245E9486 
 440      65943D26 
 441 1154 4F44E251 		.ascii	"OD\342Q\304\317\367\311\355D\222\272\033\222b\241\010"
 441      C4CFF7C9 
 441      ED4492BA 
 441      1B9262A1 
 441      08
 442 1165 02F801BE 		.ascii	"\002\370\001\276[V\301G\342\206\333\243\023c\274\010"
 442      5B56C147 
 442      E286DBA3 
 442      1363BC08 
ARM GAS  /var/folders/c6/c789hm653lg9vtl73krp73tm0000gn/T//ccxnP4td.s 			page 35


 443 1175 78002603 		.ascii	"x\000&\003\213m\315\234\012W\224#\361\356\260\177\340"
 443      8B6DCD9C 
 443      0A579423 
 443      F1EEB07F 
 443      E0
 444 1186 B994A683 		.ascii	"\271\224\246\203\236\341\212\020>\025b!)\250\037\027"
 444      9EE18A10 
 444      3E156221 
 444      29A81F17 
 445 1196 8A025FFE 		.ascii	"\212\002_\376\\(\032I!%\364B\2273\347\275\245\012|\222"
 445      5C281A49 
 445      2125F442 
 445      9733E7BD 
 445      A50A7C92 
 446 11aa 0AFDAE52 		.ascii	"\012\375\256R\250Dz\351\203\356R\227\002\344\214\300"
 446      A8447AE9 
 446      83EE5297 
 446      02E48CC0 
 447 11ba 91635F32 		.ascii	"\221c_2\024\027&I\350')\012\023\374RR\214$B\3444\222"
 447      14172649 
 447      E827290A 
 447      13FC5252 
 447      8C2442E4 
 448 11d0 F0871371 		.ascii	"\360\207\023q\011\335\2753\247\367U\204\023\242\200"
 448      09DDBD33 
 448      A7F75584 
 448      13A280
 449 11df F9C59791 		.ascii	"\371\305\227\221\206\244\2604\351\247\335\227\010M\270"
 449      86A4B034 
 449      E9A7DD97 
 449      084DB8
 450 11ee 0FFB7C40 		.ascii	"\017\373|@\024\306#\347\010I\234x/'\376\234\023\177"
 450      14C623E7 
 450      08499C78 
 450      2F27FE9C 
 450      137F
 451 1200 C189F771 		.ascii	"\301\211\367q\342 N\274\337#\016(E\373\000.*\242\237"
 451      E2204EBC 
 451      DF230E28 
 451      45FB002E 
 451      2AA29F
 452 1213 7B0A9221 		.ascii	"{\012\222!\204\354\307\014O\024D\364\233\210\226\013"
 452      84ECC70C 
 452      4F1444F4 
 452      9B88960B 
 453 1223 A2375CC1 		.ascii	"\2427\\\301\213X\012>&\364HI\317\362\321\310\3708\262"
 453      8B580A3E 
 453      26F44849 
 453      CFF2D1C8 
 453      F838B2
 454 1236 7F32844E 		.ascii	"\1772\204N\242\221XD\012H)\211\227\220>\374\3309\006"
 454      A2915844 
 454      0A482989 
 454      97903EFC 
 454      D83906
 455 1249 21E9899B 		.ascii	"!\351\211\233\240#?~\012\335\363K\261D\271\000\347\343"
 455      A0233F7E 
ARM GAS  /var/folders/c6/c789hm653lg9vtl73krp73tm0000gn/T//ccxnP4td.s 			page 36


 455      0ADDF34B 
 455      B144B900 
 455      E7E3
 456 125b A2FCF894 		.ascii	"\242\374\370\224_\022\205q)\320\003>(\210\245\306\243"
 456      5F128571 
 456      29D0033E 
 456      2888A5C6 
 456      A3
 457 126c 9BAA43A2 		.ascii	"\233\252C\242\342\352\221O,\177\016\335\012\010\223"
 457      E2EA914F 
 457      2C7F0EDD 
 457      0A0893
 458 127b 22521801 		.ascii	"\"R\030\001\370&J\211\261\317$\373\252jFE\005Q\210\207"
 458      F8264A89 
 458      B1CF24FB 
 458      AA6A4645 
 458      05518887 
 459 128f 1170C144 		.ascii	"\021p\301DI\022\223\205\330\212B\214OV \371o\263\367"
 459      49129385 
 459      D88A428C 
 459      4F5620F9 
 459      6FB3F7
 460 12a2 01012BC6 		.ascii	"\001\001+\306\257\032\255\000\334\275 \025B\277\250"
 460      AF1AAD00 
 460      DCBD2015 
 460      42BFA8
 461 12b1 02743319 		.ascii	"\002t3\031@8\261Jd\031{\214\2304\011c\304\010\006\372"
 461      4038B14A 
 461      64197B8C 
 461      98340963 
 461      C40806FA 
 462 12c5 4D4C8C23 		.ascii	"ML\214#\245A)\304x\214X}\242\204\236K\366\024& \017"
 462      A54129C4 
 462      788C587D 
 462      A2849E4B 
 462      F6142620 
 463 12da 8EF1A967 		.ascii	"\216\361\251g\321\035a\">\360$C\225E\232\357\020_\353"
 463      D11D6122 
 463      3EF02443 
 463      95459AEF 
 463      105FEB
 464 12ed 6DF0267C 		.ascii	"m\360&|%\230\014M\344#R$>\036\351\032i\2010\013\207"
 464      25980C4D 
 464      E4235224 
 464      3E1EE91A 
 464      6981300B 
 465 1302 E8829014 		.ascii	"\350\202\220\024\342(b\214GO\241*\360\363=\260.\371"
 465      E228628C 
 465      474FA12A 
 465      F0F33DB0 
 465      2EF9
 466 1314 28F815BA 		.ascii	"(\370\025\272\230L$\242\252\372S~\221\260\351\023\301"
 466      984C24A2 
 466      AAFA537E 
 466      91B0E913 
 466      C1
 467 1325 ED0A4430 		.ascii	"\355\012D0\264\250\032Z$\206\016\242\253\225\"\322\247"
ARM GAS  /var/folders/c6/c789hm653lg9vtl73krp73tm0000gn/T//ccxnP4td.s 			page 37


 467      B4A81A5A 
 467      24860EA2 
 467      AB9522D2 
 467      A7
 468 1336 542062BC 		.ascii	"T b\274\033'DD\251\222\217\206p\020\0205.oB\\Z\334\350"
 468      1B274444 
 468      A9928F86 
 468      70101035 
 468      2E6F425C 
 469 134d 4D5D234D 		.ascii	"M]#M\203\272\344\237 \201J\360/n\011A\334\332HtAW\312"
 469      83BAE49F 
 469      20814AF0 
 469      2F6E0941 
 469      DCDA4874 
 470 1364 85A8C4A3 		.ascii	"\205\250\304\243\203q\225\361p\010\236\301G>\374,/\366"
 470      837195F1 
 470      70089EC1 
 470      473EFC2C 
 470      2FF6
 471 1376 443F3830 		.ascii	"D?80\341\307\321%\\]\221\332n\313\205\261\225\343\211"
 471      E1C7D125 
 471      5C5D91DA 
 471      6ECB85B1 
 471      95E389
 472 1389 EA8C5782 		.ascii	"\352\214W\202I>\036\011cM\371#)\021\0336\200\342\350"
 472      493E1E09 
 472      634DF923 
 472      29111B36 
 472      80E2E8
 473 139c B3F8E076 		.ascii	"\263\370\340v[\213BId\323\033\260\035D\036y\325\330"
 473      5B8B4249 
 473      64D31BB0 
 473      1D441E79 
 473      D5D8
 474 13ae CA71E3B0 		.ascii	"\312q\343\2600~il(\025\371=\016t\241\324\304p\010\314"
 474      307E696C 
 474      2815F93D 
 474      0E74A1D4 
 474      C47008CC 
 475 13c2 892EA704 		.ascii	"\211.\247\004\220\255\000\377&\203\210\022\367\014\240"
 475      90AD00FF 
 475      26838812 
 475      F70CA0
 476 13d1 23F07A1F 		.ascii	"#\360z\037*\227\224\304 \372!P\205F\\O\371\330\361="
 476      2A9794C4 
 476      20FA2150 
 476      85465C4F 
 476      F9D8F13D 
 477 13e5 6228CA11 		.ascii	"b(\312\021\243\367A\321\017\205\372\310X\021\005\325"
 477      A3F741D1 
 477      0F85FAC8 
 477      581105D5 
 478 13f5 046A61BE 		.ascii	"\004ja\276\304\270q)A\342\244\230=\317`]\304s\321\263"
 478      C4B87129 
 478      41E2A498 
 478      3DCF605D 
 478      C473D1B3 
ARM GAS  /var/folders/c6/c789hm653lg9vtl73krp73tm0000gn/T//ccxnP4td.s 			page 38


 479 1409 821817A2 		.ascii	"\202\030\027\242\304\332\310\231\343\241\210\370\273"
 479      C4DAC899 
 479      E3A188F8 
 479      BB
 480 1416 401C9B19 		.ascii	"@\034\233\0311\334\003!\213\021\304qE\271v\210\324R"
 480      31DC0321 
 480      8B11C471 
 480      45B97688 
 480      D452
 481 1428 682C5314 		.ascii	"h,S\024)\217\012\252\373!\267\343\302\025T\204A\206"
 481      298F0AAA 
 481      FB21B7E3 
 481      C2155484 
 481      4186
 482 143a 2B291B36 		.ascii	"+)\0336j\310\250L\3358\302\204c\367\342\010\363\310"
 482      6AC8A84C 
 482      DD38C284 
 482      63F7E208 
 482      F3C8
 483 144c 6F468746 		.ascii	"oF\207F\243\240\352-\033=r\250\257\354?\313\312\206"
 483      A3A0EA2D 
 483      1B3D72A8 
 483      AFEC3FCB 
 483      CA86
 484 145e 8FF6958D 		.ascii	"\217\366\225\215\030\202\177\006\217\301g\201QC\007"
 484      18827F06 
 484      8FC16781 
 484      514307
 485 146d 0F1E81CF 		.ascii	"\017\036\201\317\207\216z\002\375\370\177\365\370\320"
 485      878E7A02 
 485      FDF87FF5 
 485      F8D0
 486 147b 47D0AF77 		.ascii	"G\320\257wD\331\250\221\005e\217\017\033QZ0\354\341"
 486      44D9A891 
 486      05658F0F 
 486      1B515A30 
 486      ECE1
 487 148d 51BF2E0D 		.ascii	"Q\277.\015\376\352\211\341e\243\207<>\27448r\360\250"
 487      FEEA89E1 
 487      65A3873C 
 487      3EBC3438 
 487      72F0A8
 488 14a0 C123FF63 		.ascii	"\301#\377c\360#\245p\177\000\334\037\240\337\037\240"
 488      F023A570 
 488      7F00DC1F 
 488      A0DF1FA0 
 489 14b0 DF1F00F7 		.ascii	"\337\037\000\367\007\302\375\201\372\375\201\372\375"
 489      07C2FD81 
 489      FAFD81FA 
 489      FD
 490 14bd 8170FF1E 		.ascii	"\201p\377\036\270\177\217~\377\236\233!\232\242\277"
 490      B87F8F7E 
 490      FF9E9B21 
 490      9AA2BF
 491 14cc F182140A 		.ascii	"\361\202\024\012'*Q \026C\023\370h%\016VH)\211\244'"
 491      272A5120 
 491      164313F8 
ARM GAS  /var/folders/c6/c789hm653lg9vtl73krp73tm0000gn/T//ccxnP4td.s 			page 39


 491      68250E56 
 491      482989A4 
 492 14e1 9E98F87F 		.ascii	"\236\230\370\177\316\257\245\253"
 492      CEAFA5AB 
 493              		.text
 494              		.section	.gnu.lto_.symtab.6392fcadba5778a1,"",%progbits
 495 0000 6368544D 		.ascii	"chTMObjectInit\000\000\000\000\000\000\000\000\000\000"
 495      4F626A65 
 495      6374496E 
 495      69740000 
 495      00000000 
 496 0018 0000A100 		.ascii	"\000\000\241\000\000\000chTMStartMeasurementX\000\000"
 496      00006368 
 496      544D5374 
 496      6172744D 
 496      65617375 
 497 0035 00000000 		.ascii	"\000\000\000\000\000\000\000\000\000\000\316\000\000"
 497      00000000 
 497      0000CE00 
 497      00
 498 0042 00636854 		.ascii	"\000chTMStopMeasurementX\000\000\000\000\000\000\000"
 498      4D53746F 
 498      704D6561 
 498      73757265 
 498      6D656E74 
 499 005e 00000000 		.ascii	"\000\000\000\000\000\324\000\000\000_tm_init\000\000"
 499      00D40000 
 499      005F746D 
 499      5F696E69 
 499      740000
 500 0071 00000000 		.ascii	"\000\000\000\000\000\000\000\000\000\000\331\000\000"
 500      00000000 
 500      0000D900 
 500      00
 501 007e 00636854 		.ascii	"\000chTMChainMeasurementToX\000\000\000\000\000\000"
 501      4D436861 
 501      696E4D65 
 501      61737572 
 501      656D656E 
 502 009c 00000000 		.ascii	"\000\000\000\000\000\000\335\000\000\000ch\000\000\002"
 502      0000DD00 
 502      00006368 
 502      000002
 503 00ab 00000000 		.ascii	"\000\000\000\000\000\000\000\000\000\350\000\000\000"
 503      00000000 
 503      00E80000 
 503      00
 504              		.text
 505              		.section	.gnu.lto_.opts,"",%progbits
 506 0000 272D6D63 		.ascii	"'-mcpu=cortex-m4' '-mno-thumb-interwork' '-mthumb' "
 506      70753D63 
 506      6F727465 
 506      782D6D34 
 506      2720272D 
 507 0033 272D6767 		.ascii	"'-ggdb' '-O2' '-fomit-frame-pointer' '-falign-funct"
 507      64622720 
 507      272D4F32 
ARM GAS  /var/folders/c6/c789hm653lg9vtl73krp73tm0000gn/T//ccxnP4td.s 			page 40


 507      2720272D 
 507      666F6D69 
 508 0066 696F6E73 		.ascii	"ions=16' '-ffunction-sections' '-fdata-sections' '-"
 508      3D313627 
 508      20272D66 
 508      66756E63 
 508      74696F6E 
 509 0099 666E6F2D 		.ascii	"fno-common' '-flto'\000"
 509      636F6D6D 
 509      6F6E2720 
 509      272D666C 
 509      746F2700 
 510              		.text
 511              		.cfi_sections	.debug_frame
 512              		.section	.text.chTMObjectInit,"ax",%progbits
 513              		.align	2
 514              		.p2align 4,,15
 515              		.global	chTMObjectInit
 516              		.thumb
 517              		.thumb_func
 518              		.type	chTMObjectInit, %function
 519              	chTMObjectInit:
 520              	.LFB231:
 521              		.file 1 "../../../os/rt/src/chtm.c"
 522              		.loc 1 99 0
 523              		.cfi_startproc
 524              		@ args = 0, pretend = 0, frame = 0
 525              		@ frame_needed = 0, uses_anonymous_args = 0
 526              		@ link register save eliminated.
 527              	.LVL0:
 528              		.loc 1 105 0
 529 0000 0022     		movs	r2, #0
 530 0002 0023     		movs	r3, #0
 531 0004 C0E90423 		strd	r2, [r0, #16]
 532              		.loc 1 102 0
 533 0008 0023     		movs	r3, #0
 534 000a 4FF0FF32 		mov	r2, #-1
 535 000e 80E80C00 		stmia	r0, {r2, r3}
 536              		.loc 1 103 0
 537 0012 8360     		str	r3, [r0, #8]
 538              		.loc 1 104 0
 539 0014 C360     		str	r3, [r0, #12]
 540 0016 7047     		bx	lr
 541              		.cfi_endproc
 542              	.LFE231:
 543              		.size	chTMObjectInit, .-chTMObjectInit
 544 0018 AFF30080 		.section	.text.chTMStartMeasurementX,"ax",%progbits
 544      AFF30080 
 545              		.align	2
 546              		.p2align 4,,15
 547              		.global	chTMStartMeasurementX
 548              		.thumb
 549              		.thumb_func
 550              		.type	chTMStartMeasurementX, %function
 551              	chTMStartMeasurementX:
 552              	.LFB232:
 553              		.loc 1 116 0
ARM GAS  /var/folders/c6/c789hm653lg9vtl73krp73tm0000gn/T//ccxnP4td.s 			page 41


 554              		.cfi_startproc
 555              		@ args = 0, pretend = 0, frame = 0
 556              		@ frame_needed = 0, uses_anonymous_args = 0
 557              		@ link register save eliminated.
 558              	.LVL1:
 559              	.LBB14:
 560              	.LBB15:
 561              		.file 2 "../../../os/rt/ports/ARMCMx/chcore_v7m.h"
 562              		.loc 2 548 0
 563 0000 014B     		ldr	r3, .L3
 564 0002 5B68     		ldr	r3, [r3, #4]
 565              	.LBE15:
 566              	.LBE14:
 567              		.loc 1 118 0
 568 0004 8360     		str	r3, [r0, #8]
 569 0006 7047     		bx	lr
 570              	.L4:
 571              		.align	2
 572              	.L3:
 573 0008 001000E0 		.word	-536866816
 574              		.cfi_endproc
 575              	.LFE232:
 576              		.size	chTMStartMeasurementX, .-chTMStartMeasurementX
 577 000c AFF30080 		.section	.text.chTMStopMeasurementX,"ax",%progbits
 578              		.align	2
 579              		.p2align 4,,15
 580              		.global	chTMStopMeasurementX
 581              		.thumb
 582              		.thumb_func
 583              		.type	chTMStopMeasurementX, %function
 584              	chTMStopMeasurementX:
 585              	.LFB233:
 586              		.loc 1 129 0
 587              		.cfi_startproc
 588              		@ args = 0, pretend = 0, frame = 0
 589              		@ frame_needed = 0, uses_anonymous_args = 0
 590              		@ link register save eliminated.
 591              	.LVL2:
 592              	.LBB16:
 593              	.LBB17:
 594              		.loc 2 548 0
 595 0000 0F4A     		ldr	r2, .L10
 596              	.LBE17:
 597              	.LBE16:
 598              		.loc 1 131 0
 599 0002 104B     		ldr	r3, .L10+4
 600              	.LBB19:
 601              	.LBB18:
 602              		.loc 2 548 0
 603 0004 5168     		ldr	r1, [r2, #4]
 604              	.LBE18:
 605              	.LBE19:
 606              		.loc 1 129 0
 607 0006 F0B4     		push	{r4, r5, r6, r7}
 608              		.cfi_def_cfa_offset 16
 609              		.cfi_offset 4, -16
 610              		.cfi_offset 5, -12
ARM GAS  /var/folders/c6/c789hm653lg9vtl73krp73tm0000gn/T//ccxnP4td.s 			page 42


 611              		.cfi_offset 6, -8
 612              		.cfi_offset 7, -4
 613              	.LBB20:
 614              	.LBB21:
 615              		.loc 1 58 0
 616 0008 8668     		ldr	r6, [r0, #8]
 617              	.LBE21:
 618              	.LBE20:
 619              		.loc 1 131 0
 620 000a D3F8A074 		ldr	r7, [r3, #1184]
 621              	.LVL3:
 622              	.LBB24:
 623              	.LBB22:
 624              		.loc 1 57 0
 625 000e C568     		ldr	r5, [r0, #12]
 626              		.loc 1 61 0
 627 0010 4468     		ldr	r4, [r0, #4]
 628              		.loc 1 59 0
 629 0012 D0E90423 		ldrd	r2, [r0, #16]
 630              		.loc 1 58 0
 631 0016 891B     		subs	r1, r1, r6
 632              	.LVL4:
 633 0018 C91B     		subs	r1, r1, r7
 634              		.loc 1 59 0
 635 001a 5218     		adds	r2, r2, r1
 636 001c 43F10003 		adc	r3, r3, #0
 637              		.loc 1 57 0
 638 0020 0135     		adds	r5, r5, #1
 639              		.loc 1 61 0
 640 0022 A142     		cmp	r1, r4
 641              		.loc 1 57 0
 642 0024 C560     		str	r5, [r0, #12]
 643              		.loc 1 58 0
 644 0026 8160     		str	r1, [r0, #8]
 645              		.loc 1 59 0
 646 0028 C0E90423 		strd	r2, [r0, #16]
 647              		.loc 1 61 0
 648 002c 05D8     		bhi	.L9
 649              		.loc 1 64 0
 650 002e 0368     		ldr	r3, [r0]
 651 0030 9942     		cmp	r1, r3
 652              		.loc 1 65 0
 653 0032 38BF     		it	cc
 654 0034 0160     		strcc	r1, [r0]
 655              	.LBE22:
 656              	.LBE24:
 657              		.loc 1 132 0
 658 0036 F0BC     		pop	{r4, r5, r6, r7}
 659              	.LVL5:
 660 0038 7047     		bx	lr
 661              	.LVL6:
 662              	.L9:
 663              	.LBB25:
 664              	.LBB23:
 665              		.loc 1 62 0
 666 003a 4160     		str	r1, [r0, #4]
 667              	.LBE23:
ARM GAS  /var/folders/c6/c789hm653lg9vtl73krp73tm0000gn/T//ccxnP4td.s 			page 43


 668              	.LBE25:
 669              		.loc 1 132 0
 670 003c F0BC     		pop	{r4, r5, r6, r7}
 671              	.LVL7:
 672 003e 7047     		bx	lr
 673              	.L11:
 674              		.align	2
 675              	.L10:
 676 0040 001000E0 		.word	-536866816
 677 0044 00000000 		.word	ch
 678              		.cfi_endproc
 679              	.LFE233:
 680              		.size	chTMStopMeasurementX, .-chTMStopMeasurementX
 681 0048 AFF30080 		.section	.text._tm_init,"ax",%progbits
 681      AFF30080 
 682              		.align	2
 683              		.p2align 4,,15
 684              		.global	_tm_init
 685              		.thumb
 686              		.thumb_func
 687              		.type	_tm_init, %function
 688              	_tm_init:
 689              	.LFB230:
 690              		.loc 1 79 0
 691              		.cfi_startproc
 692              		@ args = 0, pretend = 0, frame = 24
 693              		@ frame_needed = 0, uses_anonymous_args = 0
 694 0000 30B5     		push	{r4, r5, lr}
 695              		.cfi_def_cfa_offset 12
 696              		.cfi_offset 4, -12
 697              		.cfi_offset 5, -8
 698              		.cfi_offset 14, -4
 699              		.loc 1 85 0
 700 0002 0D4C     		ldr	r4, .L13
 701              		.loc 1 79 0
 702 0004 87B0     		sub	sp, sp, #28
 703              		.cfi_def_cfa_offset 40
 704              		.loc 1 85 0
 705 0006 0021     		movs	r1, #0
 706              	.LBB26:
 707              	.LBB27:
 708              		.loc 1 105 0
 709 0008 0022     		movs	r2, #0
 710 000a 0023     		movs	r3, #0
 711              	.LBE27:
 712              	.LBE26:
 713              		.loc 1 87 0
 714 000c 6846     		mov	r0, sp
 715              	.LBB30:
 716              	.LBB28:
 717              		.loc 1 101 0
 718 000e 4FF0FF35 		mov	r5, #-1
 719              		.loc 1 105 0
 720 0012 CDE90423 		strd	r2, [sp, #16]
 721              	.LBE28:
 722              	.LBE30:
 723              		.loc 1 85 0
ARM GAS  /var/folders/c6/c789hm653lg9vtl73krp73tm0000gn/T//ccxnP4td.s 			page 44


 724 0016 C4F8A014 		str	r1, [r4, #1184]
 725              	.LVL8:
 726              	.LBB31:
 727              	.LBB29:
 728              		.loc 1 102 0
 729 001a 0191     		str	r1, [sp, #4]
 730              		.loc 1 103 0
 731 001c 0291     		str	r1, [sp, #8]
 732              		.loc 1 104 0
 733 001e 0391     		str	r1, [sp, #12]
 734              		.loc 1 101 0
 735 0020 0095     		str	r5, [sp]
 736              	.LBE29:
 737              	.LBE31:
 738              		.loc 1 87 0
 739 0022 FFF7FEFF 		bl	chTMStartMeasurementX
 740              	.LVL9:
 741              		.loc 1 88 0
 742 0026 6846     		mov	r0, sp
 743 0028 FFF7FEFF 		bl	chTMStopMeasurementX
 744              	.LVL10:
 745              		.loc 1 89 0
 746 002c 029B     		ldr	r3, [sp, #8]
 747 002e C4F8A034 		str	r3, [r4, #1184]
 748              		.loc 1 90 0
 749 0032 07B0     		add	sp, sp, #28
 750              	.LVL11:
 751              		@ sp needed
 752 0034 30BD     		pop	{r4, r5, pc}
 753              	.LVL12:
 754              	.L14:
 755 0036 00BF     		.align	2
 756              	.L13:
 757 0038 00000000 		.word	ch
 758              		.cfi_endproc
 759              	.LFE230:
 760              		.size	_tm_init, .-_tm_init
 761 003c AFF30080 		.section	.text.chTMChainMeasurementToX,"ax",%progbits
 762              		.align	2
 763              		.p2align 4,,15
 764              		.global	chTMChainMeasurementToX
 765              		.thumb
 766              		.thumb_func
 767              		.type	chTMChainMeasurementToX, %function
 768              	chTMChainMeasurementToX:
 769              	.LFB234:
 770              		.loc 1 147 0
 771              		.cfi_startproc
 772              		@ args = 0, pretend = 0, frame = 0
 773              		@ frame_needed = 0, uses_anonymous_args = 0
 774              		@ link register save eliminated.
 775              	.LVL13:
 776              	.LBB32:
 777              	.LBB33:
 778              		.loc 2 548 0
 779 0000 0E4B     		ldr	r3, .L19
 780              	.LBE33:
ARM GAS  /var/folders/c6/c789hm653lg9vtl73krp73tm0000gn/T//ccxnP4td.s 			page 45


 781              	.LBE32:
 782              		.loc 1 147 0
 783 0002 70B4     		push	{r4, r5, r6}
 784              		.cfi_def_cfa_offset 12
 785              		.cfi_offset 4, -12
 786              		.cfi_offset 5, -8
 787              		.cfi_offset 6, -4
 788              	.LBB35:
 789              	.LBB34:
 790              		.loc 2 548 0
 791 0004 5C68     		ldr	r4, [r3, #4]
 792              	.LBE34:
 793              	.LBE35:
 794              		.loc 1 150 0
 795 0006 8C60     		str	r4, [r1, #8]
 796              	.LVL14:
 797              	.LBB36:
 798              	.LBB37:
 799              		.loc 1 59 0
 800 0008 D0E90423 		ldrd	r2, [r0, #16]
 801              		.loc 1 58 0
 802 000c 8168     		ldr	r1, [r0, #8]
 803              	.LVL15:
 804              		.loc 1 57 0
 805 000e C668     		ldr	r6, [r0, #12]
 806              		.loc 1 61 0
 807 0010 4568     		ldr	r5, [r0, #4]
 808              		.loc 1 58 0
 809 0012 611A     		subs	r1, r4, r1
 810              		.loc 1 59 0
 811 0014 5218     		adds	r2, r2, r1
 812 0016 43F10003 		adc	r3, r3, #0
 813              		.loc 1 57 0
 814 001a 0136     		adds	r6, r6, #1
 815              		.loc 1 61 0
 816 001c A942     		cmp	r1, r5
 817              		.loc 1 57 0
 818 001e C660     		str	r6, [r0, #12]
 819              		.loc 1 58 0
 820 0020 8160     		str	r1, [r0, #8]
 821              		.loc 1 59 0
 822 0022 C0E90423 		strd	r2, [r0, #16]
 823              		.loc 1 61 0
 824 0026 05D8     		bhi	.L18
 825              		.loc 1 64 0
 826 0028 0368     		ldr	r3, [r0]
 827 002a 9942     		cmp	r1, r3
 828              		.loc 1 65 0
 829 002c 38BF     		it	cc
 830 002e 0160     		strcc	r1, [r0]
 831              	.LBE37:
 832              	.LBE36:
 833              		.loc 1 154 0
 834 0030 70BC     		pop	{r4, r5, r6}
 835              	.LVL16:
 836 0032 7047     		bx	lr
 837              	.LVL17:
ARM GAS  /var/folders/c6/c789hm653lg9vtl73krp73tm0000gn/T//ccxnP4td.s 			page 46


 838              	.L18:
 839              	.LBB39:
 840              	.LBB38:
 841              		.loc 1 62 0
 842 0034 4160     		str	r1, [r0, #4]
 843              	.LBE38:
 844              	.LBE39:
 845              		.loc 1 154 0
 846 0036 70BC     		pop	{r4, r5, r6}
 847              	.LVL18:
 848 0038 7047     		bx	lr
 849              	.L20:
 850 003a 00BF     		.align	2
 851              	.L19:
 852 003c 001000E0 		.word	-536866816
 853              		.cfi_endproc
 854              	.LFE234:
 855              		.size	chTMChainMeasurementToX, .-chTMChainMeasurementToX
 856              		.text
 857              	.Letext0:
 858              		.file 3 "/usr/local/Cellar/gcc-arm-none-eabi/20140805/arm-none-eabi/include/machine/_default_types
 859              		.file 4 "/usr/local/Cellar/gcc-arm-none-eabi/20140805/arm-none-eabi/include/stdint.h"
 860              		.file 5 "../../../os/rt/ports/ARMCMx/compilers/GCC/chtypes.h"
 861              		.file 6 "../../../os/rt/include/chsystypes.h"
 862              		.file 7 "../../../os/rt/include/chschd.h"
 863              		.file 8 "../../../os/ext/CMSIS/include/core_cm4.h"
 864              		.file 9 "../../../os/rt/ports/ARMCMx/chcore.h"
 865              		.file 10 "../../../os/rt/include/chdebug.h"
 866              		.file 11 "../../../os/rt/include/chtm.h"
 867              		.file 12 "../../../os/rt/include/chstats.h"
 868              		.file 13 "../../../os/rt/include/chsem.h"
 869              		.file 14 "../../../os/rt/include/chmtx.h"
 870              		.section	.debug_info,"",%progbits
 871              	.Ldebug_info0:
 872 0000 E90A0000 		.4byte	0xae9
 873 0004 0400     		.2byte	0x4
 874 0006 00000000 		.4byte	.Ldebug_abbrev0
 875 000a 04       		.byte	0x4
 876 000b 01       		.uleb128 0x1
 877 000c 00000000 		.4byte	.LASF159
 878 0010 01       		.byte	0x1
 879 0011 1F030000 		.4byte	.LASF160
 880 0015 53030000 		.4byte	.LASF161
 881 0019 88000000 		.4byte	.Ldebug_ranges0+0x88
 882 001d 00000000 		.4byte	0
 883 0021 00000000 		.4byte	.Ldebug_line0
 884 0025 02       		.uleb128 0x2
 885 0026 04       		.byte	0x4
 886 0027 05       		.byte	0x5
 887 0028 696E7400 		.ascii	"int\000"
 888 002c 03       		.uleb128 0x3
 889 002d 04       		.byte	0x4
 890 002e 07       		.byte	0x7
 891 002f EC020000 		.4byte	.LASF0
 892 0033 03       		.uleb128 0x3
 893 0034 01       		.byte	0x1
 894 0035 06       		.byte	0x6
ARM GAS  /var/folders/c6/c789hm653lg9vtl73krp73tm0000gn/T//ccxnP4td.s 			page 47


 895 0036 09020000 		.4byte	.LASF1
 896 003a 04       		.uleb128 0x4
 897 003b 1F010000 		.4byte	.LASF5
 898 003f 03       		.byte	0x3
 899 0040 1C       		.byte	0x1c
 900 0041 45000000 		.4byte	0x45
 901 0045 03       		.uleb128 0x3
 902 0046 01       		.byte	0x1
 903 0047 08       		.byte	0x8
 904 0048 87050000 		.4byte	.LASF2
 905 004c 03       		.uleb128 0x3
 906 004d 02       		.byte	0x2
 907 004e 05       		.byte	0x5
 908 004f CA050000 		.4byte	.LASF3
 909 0053 03       		.uleb128 0x3
 910 0054 02       		.byte	0x2
 911 0055 07       		.byte	0x7
 912 0056 AF030000 		.4byte	.LASF4
 913 005a 04       		.uleb128 0x4
 914 005b 2B040000 		.4byte	.LASF6
 915 005f 03       		.byte	0x3
 916 0060 37       		.byte	0x37
 917 0061 65000000 		.4byte	0x65
 918 0065 03       		.uleb128 0x3
 919 0066 04       		.byte	0x4
 920 0067 05       		.byte	0x5
 921 0068 5E020000 		.4byte	.LASF7
 922 006c 04       		.uleb128 0x4
 923 006d D3060000 		.4byte	.LASF8
 924 0071 03       		.byte	0x3
 925 0072 38       		.byte	0x38
 926 0073 77000000 		.4byte	0x77
 927 0077 03       		.uleb128 0x3
 928 0078 04       		.byte	0x4
 929 0079 07       		.byte	0x7
 930 007a 74060000 		.4byte	.LASF9
 931 007e 03       		.uleb128 0x3
 932 007f 08       		.byte	0x8
 933 0080 05       		.byte	0x5
 934 0081 FB010000 		.4byte	.LASF10
 935 0085 04       		.uleb128 0x4
 936 0086 10050000 		.4byte	.LASF11
 937 008a 03       		.byte	0x3
 938 008b 4E       		.byte	0x4e
 939 008c 90000000 		.4byte	0x90
 940 0090 03       		.uleb128 0x3
 941 0091 08       		.byte	0x8
 942 0092 07       		.byte	0x7
 943 0093 6E010000 		.4byte	.LASF12
 944 0097 04       		.uleb128 0x4
 945 0098 48070000 		.4byte	.LASF13
 946 009c 04       		.byte	0x4
 947 009d 2A       		.byte	0x2a
 948 009e 3A000000 		.4byte	0x3a
 949 00a2 04       		.uleb128 0x4
 950 00a3 7F050000 		.4byte	.LASF14
 951 00a7 04       		.byte	0x4
ARM GAS  /var/folders/c6/c789hm653lg9vtl73krp73tm0000gn/T//ccxnP4td.s 			page 48


 952 00a8 41       		.byte	0x41
 953 00a9 5A000000 		.4byte	0x5a
 954 00ad 04       		.uleb128 0x4
 955 00ae 43060000 		.4byte	.LASF15
 956 00b2 04       		.byte	0x4
 957 00b3 42       		.byte	0x42
 958 00b4 6C000000 		.4byte	0x6c
 959 00b8 04       		.uleb128 0x4
 960 00b9 09010000 		.4byte	.LASF16
 961 00bd 04       		.byte	0x4
 962 00be 4E       		.byte	0x4e
 963 00bf 85000000 		.4byte	0x85
 964 00c3 05       		.uleb128 0x5
 965 00c4 A2000000 		.4byte	0xa2
 966 00c8 05       		.uleb128 0x5
 967 00c9 AD000000 		.4byte	0xad
 968 00cd 04       		.uleb128 0x4
 969 00ce 00070000 		.4byte	.LASF17
 970 00d2 05       		.byte	0x5
 971 00d3 45       		.byte	0x45
 972 00d4 AD000000 		.4byte	0xad
 973 00d8 04       		.uleb128 0x4
 974 00d9 E1010000 		.4byte	.LASF18
 975 00dd 05       		.byte	0x5
 976 00de 46       		.byte	0x46
 977 00df B8000000 		.4byte	0xb8
 978 00e3 04       		.uleb128 0x4
 979 00e4 F1050000 		.4byte	.LASF19
 980 00e8 05       		.byte	0x5
 981 00e9 48       		.byte	0x48
 982 00ea 97000000 		.4byte	0x97
 983 00ee 04       		.uleb128 0x4
 984 00ef 67020000 		.4byte	.LASF20
 985 00f3 05       		.byte	0x5
 986 00f4 49       		.byte	0x49
 987 00f5 97000000 		.4byte	0x97
 988 00f9 04       		.uleb128 0x4
 989 00fa 26050000 		.4byte	.LASF21
 990 00fe 05       		.byte	0x5
 991 00ff 4A       		.byte	0x4a
 992 0100 97000000 		.4byte	0x97
 993 0104 04       		.uleb128 0x4
 994 0105 63050000 		.4byte	.LASF22
 995 0109 05       		.byte	0x5
 996 010a 4C       		.byte	0x4c
 997 010b AD000000 		.4byte	0xad
 998 010f 04       		.uleb128 0x4
 999 0110 E2030000 		.4byte	.LASF23
 1000 0114 05       		.byte	0x5
 1001 0115 4D       		.byte	0x4d
 1002 0116 A2000000 		.4byte	0xa2
 1003 011a 04       		.uleb128 0x4
 1004 011b 1F040000 		.4byte	.LASF24
 1005 011f 05       		.byte	0x5
 1006 0120 4F       		.byte	0x4f
 1007 0121 AD000000 		.4byte	0xad
 1008 0125 04       		.uleb128 0x4
ARM GAS  /var/folders/c6/c789hm653lg9vtl73krp73tm0000gn/T//ccxnP4td.s 			page 49


 1009 0126 E0020000 		.4byte	.LASF25
 1010 012a 05       		.byte	0x5
 1011 012b 51       		.byte	0x51
 1012 012c A2000000 		.4byte	0xa2
 1013 0130 04       		.uleb128 0x4
 1014 0131 ED030000 		.4byte	.LASF26
 1015 0135 05       		.byte	0x5
 1016 0136 52       		.byte	0x52
 1017 0137 AD000000 		.4byte	0xad
 1018 013b 04       		.uleb128 0x4
 1019 013c B5060000 		.4byte	.LASF27
 1020 0140 06       		.byte	0x6
 1021 0141 33       		.byte	0x33
 1022 0142 AD000000 		.4byte	0xad
 1023 0146 04       		.uleb128 0x4
 1024 0147 8B060000 		.4byte	.LASF28
 1025 014b 06       		.byte	0x6
 1026 014c 3F       		.byte	0x3f
 1027 014d 51010000 		.4byte	0x151
 1028 0151 06       		.uleb128 0x6
 1029 0152 D1030000 		.4byte	.LASF50
 1030 0156 60       		.byte	0x60
 1031 0157 07       		.byte	0x7
 1032 0158 C2       		.byte	0xc2
 1033 0159 57020000 		.4byte	0x257
 1034 015d 07       		.uleb128 0x7
 1035 015e EA050000 		.4byte	.LASF29
 1036 0162 07       		.byte	0x7
 1037 0163 C3       		.byte	0xc3
 1038 0164 62020000 		.4byte	0x262
 1039 0168 00       		.byte	0
 1040 0169 07       		.uleb128 0x7
 1041 016a 5C050000 		.4byte	.LASF30
 1042 016e 07       		.byte	0x7
 1043 016f C5       		.byte	0xc5
 1044 0170 62020000 		.4byte	0x262
 1045 0174 04       		.byte	0x4
 1046 0175 07       		.uleb128 0x7
 1047 0176 EA010000 		.4byte	.LASF31
 1048 017a 07       		.byte	0x7
 1049 017b C7       		.byte	0xc7
 1050 017c 04010000 		.4byte	0x104
 1051 0180 08       		.byte	0x8
 1052 0181 07       		.uleb128 0x7
 1053 0182 D6040000 		.4byte	.LASF32
 1054 0186 07       		.byte	0x7
 1055 0187 C8       		.byte	0xc8
 1056 0188 21060000 		.4byte	0x621
 1057 018c 0C       		.byte	0xc
 1058 018d 07       		.uleb128 0x7
 1059 018e 7F020000 		.4byte	.LASF33
 1060 0192 07       		.byte	0x7
 1061 0193 CA       		.byte	0xca
 1062 0194 62020000 		.4byte	0x262
 1063 0198 10       		.byte	0x10
 1064 0199 07       		.uleb128 0x7
 1065 019a C8040000 		.4byte	.LASF34
ARM GAS  /var/folders/c6/c789hm653lg9vtl73krp73tm0000gn/T//ccxnP4td.s 			page 50


 1066 019e 07       		.byte	0x7
 1067 019f CB       		.byte	0xcb
 1068 01a0 62020000 		.4byte	0x262
 1069 01a4 14       		.byte	0x14
 1070 01a5 07       		.uleb128 0x7
 1071 01a6 5F070000 		.4byte	.LASF35
 1072 01aa 07       		.byte	0x7
 1073 01ab D2       		.byte	0xd2
 1074 01ac C5080000 		.4byte	0x8c5
 1075 01b0 18       		.byte	0x18
 1076 01b1 07       		.uleb128 0x7
 1077 01b2 EE040000 		.4byte	.LASF36
 1078 01b6 07       		.byte	0x7
 1079 01b7 D8       		.byte	0xd8
 1080 01b8 D7080000 		.4byte	0x8d7
 1081 01bc 1C       		.byte	0x1c
 1082 01bd 07       		.uleb128 0x7
 1083 01be D4050000 		.4byte	.LASF37
 1084 01c2 07       		.byte	0x7
 1085 01c3 DD       		.byte	0xdd
 1086 01c4 EE000000 		.4byte	0xee
 1087 01c8 20       		.byte	0x20
 1088 01c9 07       		.uleb128 0x7
 1089 01ca F9050000 		.4byte	.LASF38
 1090 01ce 07       		.byte	0x7
 1091 01cf E1       		.byte	0xe1
 1092 01d0 E3000000 		.4byte	0xe3
 1093 01d4 21       		.byte	0x21
 1094 01d5 07       		.uleb128 0x7
 1095 01d6 33070000 		.4byte	.LASF39
 1096 01da 07       		.byte	0x7
 1097 01db E6       		.byte	0xe6
 1098 01dc F9000000 		.4byte	0xf9
 1099 01e0 22       		.byte	0x22
 1100 01e1 08       		.uleb128 0x8
 1101 01e2 705F7500 		.ascii	"p_u\000"
 1102 01e6 07       		.byte	0x7
 1103 01e7 3101     		.2byte	0x131
 1104 01e9 00080000 		.4byte	0x800
 1105 01ed 24       		.byte	0x24
 1106 01ee 09       		.uleb128 0x9
 1107 01ef 5F040000 		.4byte	.LASF40
 1108 01f3 07       		.byte	0x7
 1109 01f4 3601     		.2byte	0x136
 1110 01f6 68020000 		.4byte	0x268
 1111 01fa 28       		.byte	0x28
 1112 01fb 09       		.uleb128 0x9
 1113 01fc 14030000 		.4byte	.LASF41
 1114 0200 07       		.byte	0x7
 1115 0201 3C01     		.2byte	0x13c
 1116 0203 8C020000 		.4byte	0x28c
 1117 0207 2C       		.byte	0x2c
 1118 0208 09       		.uleb128 0x9
 1119 0209 82070000 		.4byte	.LASF42
 1120 020d 07       		.byte	0x7
 1121 020e 4001     		.2byte	0x140
 1122 0210 0F010000 		.4byte	0x10f
ARM GAS  /var/folders/c6/c789hm653lg9vtl73krp73tm0000gn/T//ccxnP4td.s 			page 51


 1123 0214 34       		.byte	0x34
 1124 0215 09       		.uleb128 0x9
 1125 0216 31060000 		.4byte	.LASF43
 1126 021a 07       		.byte	0x7
 1127 021b 4601     		.2byte	0x146
 1128 021d 1A010000 		.4byte	0x11a
 1129 0221 38       		.byte	0x38
 1130 0222 09       		.uleb128 0x9
 1131 0223 15040000 		.4byte	.LASF44
 1132 0227 07       		.byte	0x7
 1133 0228 4D01     		.2byte	0x14d
 1134 022a BF080000 		.4byte	0x8bf
 1135 022e 3C       		.byte	0x3c
 1136 022f 09       		.uleb128 0x9
 1137 0230 BF060000 		.4byte	.LASF45
 1138 0234 07       		.byte	0x7
 1139 0235 5101     		.2byte	0x151
 1140 0237 04010000 		.4byte	0x104
 1141 023b 40       		.byte	0x40
 1142 023c 09       		.uleb128 0x9
 1143 023d 15020000 		.4byte	.LASF46
 1144 0241 07       		.byte	0x7
 1145 0242 5801     		.2byte	0x158
 1146 0244 3F030000 		.4byte	0x33f
 1147 0248 44       		.byte	0x44
 1148 0249 09       		.uleb128 0x9
 1149 024a 01060000 		.4byte	.LASF47
 1150 024e 07       		.byte	0x7
 1151 024f 5E01     		.2byte	0x15e
 1152 0251 B1070000 		.4byte	0x7b1
 1153 0255 48       		.byte	0x48
 1154 0256 00       		.byte	0
 1155 0257 04       		.uleb128 0x4
 1156 0258 72040000 		.4byte	.LASF48
 1157 025c 06       		.byte	0x6
 1158 025d 44       		.byte	0x44
 1159 025e 62020000 		.4byte	0x262
 1160 0262 0A       		.uleb128 0xa
 1161 0263 04       		.byte	0x4
 1162 0264 46010000 		.4byte	0x146
 1163 0268 04       		.uleb128 0x4
 1164 0269 66070000 		.4byte	.LASF49
 1165 026d 06       		.byte	0x6
 1166 026e 49       		.byte	0x49
 1167 026f 73020000 		.4byte	0x273
 1168 0273 06       		.uleb128 0x6
 1169 0274 64060000 		.4byte	.LASF51
 1170 0278 04       		.byte	0x4
 1171 0279 07       		.byte	0x7
 1172 027a B0       		.byte	0xb0
 1173 027b 8C020000 		.4byte	0x28c
 1174 027f 07       		.uleb128 0x7
 1175 0280 EA050000 		.4byte	.LASF29
 1176 0284 07       		.byte	0x7
 1177 0285 B1       		.byte	0xb1
 1178 0286 62020000 		.4byte	0x262
 1179 028a 00       		.byte	0
ARM GAS  /var/folders/c6/c789hm653lg9vtl73krp73tm0000gn/T//ccxnP4td.s 			page 52


 1180 028b 00       		.byte	0
 1181 028c 04       		.uleb128 0x4
 1182 028d 1A070000 		.4byte	.LASF52
 1183 0291 06       		.byte	0x6
 1184 0292 50       		.byte	0x50
 1185 0293 97020000 		.4byte	0x297
 1186 0297 06       		.uleb128 0x6
 1187 0298 35010000 		.4byte	.LASF53
 1188 029c 08       		.byte	0x8
 1189 029d 07       		.byte	0x7
 1190 029e B7       		.byte	0xb7
 1191 029f BC020000 		.4byte	0x2bc
 1192 02a3 07       		.uleb128 0x7
 1193 02a4 EA050000 		.4byte	.LASF29
 1194 02a8 07       		.byte	0x7
 1195 02a9 B8       		.byte	0xb8
 1196 02aa 62020000 		.4byte	0x262
 1197 02ae 00       		.byte	0
 1198 02af 07       		.uleb128 0x7
 1199 02b0 5C050000 		.4byte	.LASF30
 1200 02b4 07       		.byte	0x7
 1201 02b5 B9       		.byte	0xb9
 1202 02b6 62020000 		.4byte	0x262
 1203 02ba 04       		.byte	0x4
 1204 02bb 00       		.byte	0
 1205 02bc 04       		.uleb128 0x4
 1206 02bd E7000000 		.4byte	.LASF54
 1207 02c1 06       		.byte	0x6
 1208 02c2 57       		.byte	0x57
 1209 02c3 C7020000 		.4byte	0x2c7
 1210 02c7 0B       		.uleb128 0xb
 1211 02c8 39030000 		.4byte	.LASF55
 1212 02cc 1C       		.byte	0x1c
 1213 02cd 07       		.byte	0x7
 1214 02ce 9001     		.2byte	0x190
 1215 02d0 23030000 		.4byte	0x323
 1216 02d4 09       		.uleb128 0x9
 1217 02d5 53060000 		.4byte	.LASF56
 1218 02d9 07       		.byte	0x7
 1219 02da 9101     		.2byte	0x191
 1220 02dc 8C020000 		.4byte	0x28c
 1221 02e0 00       		.byte	0
 1222 02e1 09       		.uleb128 0x9
 1223 02e2 DC050000 		.4byte	.LASF57
 1224 02e6 07       		.byte	0x7
 1225 02e7 9201     		.2byte	0x192
 1226 02e9 04010000 		.4byte	0x104
 1227 02ed 08       		.byte	0x8
 1228 02ee 09       		.uleb128 0x9
 1229 02ef D0040000 		.4byte	.LASF58
 1230 02f3 07       		.byte	0x7
 1231 02f4 9401     		.2byte	0x194
 1232 02f6 21060000 		.4byte	0x621
 1233 02fa 0C       		.byte	0xc
 1234 02fb 09       		.uleb128 0x9
 1235 02fc 97020000 		.4byte	.LASF59
 1236 0300 07       		.byte	0x7
ARM GAS  /var/folders/c6/c789hm653lg9vtl73krp73tm0000gn/T//ccxnP4td.s 			page 53


 1237 0301 9701     		.2byte	0x197
 1238 0303 62020000 		.4byte	0x262
 1239 0307 10       		.byte	0x10
 1240 0308 09       		.uleb128 0x9
 1241 0309 03050000 		.4byte	.LASF60
 1242 030d 07       		.byte	0x7
 1243 030e 9801     		.2byte	0x198
 1244 0310 62020000 		.4byte	0x262
 1245 0314 14       		.byte	0x14
 1246 0315 09       		.uleb128 0x9
 1247 0316 F9040000 		.4byte	.LASF61
 1248 031a 07       		.byte	0x7
 1249 031b 9B01     		.2byte	0x19b
 1250 031d 62020000 		.4byte	0x262
 1251 0321 18       		.byte	0x18
 1252 0322 00       		.byte	0
 1253 0323 04       		.uleb128 0x4
 1254 0324 CA060000 		.4byte	.LASF62
 1255 0328 06       		.byte	0x6
 1256 0329 5C       		.byte	0x5c
 1257 032a 2E030000 		.4byte	0x32e
 1258 032e 0A       		.uleb128 0xa
 1259 032f 04       		.byte	0x4
 1260 0330 34030000 		.4byte	0x334
 1261 0334 0C       		.uleb128 0xc
 1262 0335 3F030000 		.4byte	0x33f
 1263 0339 0D       		.uleb128 0xd
 1264 033a 3F030000 		.4byte	0x33f
 1265 033e 00       		.byte	0
 1266 033f 0E       		.uleb128 0xe
 1267 0340 04       		.byte	0x4
 1268 0341 04       		.uleb128 0x4
 1269 0342 4C050000 		.4byte	.LASF63
 1270 0346 06       		.byte	0x6
 1271 0347 61       		.byte	0x61
 1272 0348 4C030000 		.4byte	0x34c
 1273 034c 0B       		.uleb128 0xb
 1274 034d 13060000 		.4byte	.LASF64
 1275 0351 14       		.byte	0x14
 1276 0352 07       		.byte	0x7
 1277 0353 6B01     		.2byte	0x16b
 1278 0355 9B030000 		.4byte	0x39b
 1279 0359 09       		.uleb128 0x9
 1280 035a F9020000 		.4byte	.LASF65
 1281 035e 07       		.byte	0x7
 1282 035f 6C01     		.2byte	0x16c
 1283 0361 DD080000 		.4byte	0x8dd
 1284 0365 00       		.byte	0
 1285 0366 09       		.uleb128 0x9
 1286 0367 A8020000 		.4byte	.LASF66
 1287 036b 07       		.byte	0x7
 1288 036c 6D01     		.2byte	0x16d
 1289 036e DD080000 		.4byte	0x8dd
 1290 0372 04       		.byte	0x4
 1291 0373 09       		.uleb128 0x9
 1292 0374 5B060000 		.4byte	.LASF67
 1293 0378 07       		.byte	0x7
ARM GAS  /var/folders/c6/c789hm653lg9vtl73krp73tm0000gn/T//ccxnP4td.s 			page 54


 1294 0379 6E01     		.2byte	0x16e
 1295 037b 3B010000 		.4byte	0x13b
 1296 037f 08       		.byte	0x8
 1297 0380 09       		.uleb128 0x9
 1298 0381 A5070000 		.4byte	.LASF68
 1299 0385 07       		.byte	0x7
 1300 0386 6F01     		.2byte	0x16f
 1301 0388 23030000 		.4byte	0x323
 1302 038c 0C       		.byte	0xc
 1303 038d 09       		.uleb128 0x9
 1304 038e 0D070000 		.4byte	.LASF69
 1305 0392 07       		.byte	0x7
 1306 0393 7101     		.2byte	0x171
 1307 0395 3F030000 		.4byte	0x33f
 1308 0399 10       		.byte	0x10
 1309 039a 00       		.byte	0
 1310 039b 04       		.uleb128 0x4
 1311 039c BC010000 		.4byte	.LASF70
 1312 03a0 06       		.byte	0x6
 1313 03a1 66       		.byte	0x66
 1314 03a2 A6030000 		.4byte	0x3a6
 1315 03a6 0B       		.uleb128 0xb
 1316 03a7 96040000 		.4byte	.LASF71
 1317 03ab 10       		.byte	0x10
 1318 03ac 07       		.byte	0x7
 1319 03ad 7B01     		.2byte	0x17b
 1320 03af E8030000 		.4byte	0x3e8
 1321 03b3 09       		.uleb128 0x9
 1322 03b4 F9020000 		.4byte	.LASF65
 1323 03b8 07       		.byte	0x7
 1324 03b9 7C01     		.2byte	0x17c
 1325 03bb DD080000 		.4byte	0x8dd
 1326 03bf 00       		.byte	0
 1327 03c0 09       		.uleb128 0x9
 1328 03c1 A8020000 		.4byte	.LASF66
 1329 03c5 07       		.byte	0x7
 1330 03c6 7E01     		.2byte	0x17e
 1331 03c8 DD080000 		.4byte	0x8dd
 1332 03cc 04       		.byte	0x4
 1333 03cd 09       		.uleb128 0x9
 1334 03ce 5B060000 		.4byte	.LASF67
 1335 03d2 07       		.byte	0x7
 1336 03d3 8001     		.2byte	0x180
 1337 03d5 3B010000 		.4byte	0x13b
 1338 03d9 08       		.byte	0x8
 1339 03da 09       		.uleb128 0x9
 1340 03db BC040000 		.4byte	.LASF72
 1341 03df 07       		.byte	0x7
 1342 03e0 8801     		.2byte	0x188
 1343 03e2 3B010000 		.4byte	0x13b
 1344 03e6 0C       		.byte	0xc
 1345 03e7 00       		.byte	0
 1346 03e8 04       		.uleb128 0x4
 1347 03e9 46010000 		.4byte	.LASF73
 1348 03ed 06       		.byte	0x6
 1349 03ee 6B       		.byte	0x6b
 1350 03ef F3030000 		.4byte	0x3f3
ARM GAS  /var/folders/c6/c789hm653lg9vtl73krp73tm0000gn/T//ccxnP4td.s 			page 55


 1351 03f3 0F       		.uleb128 0xf
 1352 03f4 B0020000 		.4byte	.LASF74
 1353 03f8 1404     		.2byte	0x414
 1354 03fa 07       		.byte	0x7
 1355 03fb A201     		.2byte	0x1a2
 1356 03fd 36040000 		.4byte	0x436
 1357 0401 09       		.uleb128 0x9
 1358 0402 DE060000 		.4byte	.LASF75
 1359 0406 07       		.byte	0x7
 1360 0407 AA01     		.2byte	0x1aa
 1361 0409 E3080000 		.4byte	0x8e3
 1362 040d 00       		.byte	0
 1363 040e 09       		.uleb128 0x9
 1364 040f 3A070000 		.4byte	.LASF76
 1365 0413 07       		.byte	0x7
 1366 0414 AF01     		.2byte	0x1af
 1367 0416 25010000 		.4byte	0x125
 1368 041a 04       		.byte	0x4
 1369 041b 09       		.uleb128 0x9
 1370 041c C8020000 		.4byte	.LASF77
 1371 0420 07       		.byte	0x7
 1372 0421 B301     		.2byte	0x1b3
 1373 0423 25010000 		.4byte	0x125
 1374 0427 08       		.byte	0x8
 1375 0428 09       		.uleb128 0x9
 1376 0429 75070000 		.4byte	.LASF78
 1377 042d 07       		.byte	0x7
 1378 042e B901     		.2byte	0x1b9
 1379 0430 43070000 		.4byte	0x743
 1380 0434 0C       		.byte	0xc
 1381 0435 00       		.byte	0
 1382 0436 04       		.uleb128 0x4
 1383 0437 F4030000 		.4byte	.LASF79
 1384 043b 06       		.byte	0x6
 1385 043c 70       		.byte	0x70
 1386 043d 41040000 		.4byte	0x441
 1387 0441 0F       		.uleb128 0xf
 1388 0442 09060000 		.4byte	.LASF80
 1389 0446 D805     		.2byte	0x5d8
 1390 0448 07       		.byte	0x7
 1391 0449 C201     		.2byte	0x1c2
 1392 044b AE040000 		.4byte	0x4ae
 1393 044f 09       		.uleb128 0x9
 1394 0450 42070000 		.4byte	.LASF81
 1395 0454 07       		.byte	0x7
 1396 0455 C601     		.2byte	0x1c6
 1397 0457 BC020000 		.4byte	0x2bc
 1398 045b 00       		.byte	0
 1399 045c 09       		.uleb128 0x9
 1400 045d 2C020000 		.4byte	.LASF82
 1401 0461 07       		.byte	0x7
 1402 0462 CA01     		.2byte	0x1ca
 1403 0464 9B030000 		.4byte	0x39b
 1404 0468 1C       		.byte	0x1c
 1405 0469 08       		.uleb128 0x8
 1406 046a 64626700 		.ascii	"dbg\000"
 1407 046e 07       		.byte	0x7
ARM GAS  /var/folders/c6/c789hm653lg9vtl73krp73tm0000gn/T//ccxnP4td.s 			page 56


 1408 046f CE01     		.2byte	0x1ce
 1409 0471 E8030000 		.4byte	0x3e8
 1410 0475 2C       		.byte	0x2c
 1411 0476 10       		.uleb128 0x10
 1412 0477 A9010000 		.4byte	.LASF83
 1413 047b 07       		.byte	0x7
 1414 047c D201     		.2byte	0x1d2
 1415 047e 46010000 		.4byte	0x146
 1416 0482 4004     		.2byte	0x440
 1417 0484 11       		.uleb128 0x11
 1418 0485 746D00   		.ascii	"tm\000"
 1419 0488 07       		.byte	0x7
 1420 0489 D701     		.2byte	0x1d7
 1421 048b 63070000 		.4byte	0x763
 1422 048f A004     		.2byte	0x4a0
 1423 0491 10       		.uleb128 0x10
 1424 0492 12010000 		.4byte	.LASF84
 1425 0496 07       		.byte	0x7
 1426 0497 DD01     		.2byte	0x1dd
 1427 0499 F5070000 		.4byte	0x7f5
 1428 049d A804     		.2byte	0x4a8
 1429 049f 10       		.uleb128 0x10
 1430 04a0 D1020000 		.4byte	.LASF85
 1431 04a4 07       		.byte	0x7
 1432 04a5 E301     		.2byte	0x1e3
 1433 04a7 E8080000 		.4byte	0x8e8
 1434 04ab E004     		.2byte	0x4e0
 1435 04ad 00       		.byte	0
 1436 04ae 03       		.uleb128 0x3
 1437 04af 04       		.byte	0x4
 1438 04b0 07       		.byte	0x7
 1439 04b1 69040000 		.4byte	.LASF86
 1440 04b5 12       		.uleb128 0x12
 1441 04b6 C8000000 		.4byte	0xc8
 1442 04ba 13       		.uleb128 0x13
 1443 04bb AD000000 		.4byte	0xad
 1444 04bf CA040000 		.4byte	0x4ca
 1445 04c3 14       		.uleb128 0x14
 1446 04c4 AE040000 		.4byte	0x4ae
 1447 04c8 00       		.byte	0
 1448 04c9 00       		.byte	0
 1449 04ca 15       		.uleb128 0x15
 1450 04cb 5C       		.byte	0x5c
 1451 04cc 08       		.byte	0x8
 1452 04cd 0603     		.2byte	0x306
 1453 04cf FF050000 		.4byte	0x5ff
 1454 04d3 09       		.uleb128 0x9
 1455 04d4 08070000 		.4byte	.LASF87
 1456 04d8 08       		.byte	0x8
 1457 04d9 0803     		.2byte	0x308
 1458 04db C8000000 		.4byte	0xc8
 1459 04df 00       		.byte	0
 1460 04e0 09       		.uleb128 0x9
 1461 04e1 58040000 		.4byte	.LASF88
 1462 04e5 08       		.byte	0x8
 1463 04e6 0903     		.2byte	0x309
 1464 04e8 C8000000 		.4byte	0xc8
ARM GAS  /var/folders/c6/c789hm653lg9vtl73krp73tm0000gn/T//ccxnP4td.s 			page 57


 1465 04ec 04       		.byte	0x4
 1466 04ed 09       		.uleb128 0x9
 1467 04ee 1D020000 		.4byte	.LASF89
 1468 04f2 08       		.byte	0x8
 1469 04f3 0A03     		.2byte	0x30a
 1470 04f5 C8000000 		.4byte	0xc8
 1471 04f9 08       		.byte	0x8
 1472 04fa 09       		.uleb128 0x9
 1473 04fb DB030000 		.4byte	.LASF90
 1474 04ff 08       		.byte	0x8
 1475 0500 0B03     		.2byte	0x30b
 1476 0502 C8000000 		.4byte	0xc8
 1477 0506 0C       		.byte	0xc
 1478 0507 09       		.uleb128 0x9
 1479 0508 76020000 		.4byte	.LASF91
 1480 050c 08       		.byte	0x8
 1481 050d 0C03     		.2byte	0x30c
 1482 050f C8000000 		.4byte	0xc8
 1483 0513 10       		.byte	0x10
 1484 0514 09       		.uleb128 0x9
 1485 0515 3C060000 		.4byte	.LASF92
 1486 0519 08       		.byte	0x8
 1487 051a 0D03     		.2byte	0x30d
 1488 051c C8000000 		.4byte	0xc8
 1489 0520 14       		.byte	0x14
 1490 0521 09       		.uleb128 0x9
 1491 0522 50070000 		.4byte	.LASF93
 1492 0526 08       		.byte	0x8
 1493 0527 0E03     		.2byte	0x30e
 1494 0529 C8000000 		.4byte	0xc8
 1495 052d 18       		.byte	0x18
 1496 052e 09       		.uleb128 0x9
 1497 052f 6B050000 		.4byte	.LASF94
 1498 0533 08       		.byte	0x8
 1499 0534 0F03     		.2byte	0x30f
 1500 0536 B5040000 		.4byte	0x4b5
 1501 053a 1C       		.byte	0x1c
 1502 053b 09       		.uleb128 0x9
 1503 053c 14070000 		.4byte	.LASF95
 1504 0540 08       		.byte	0x8
 1505 0541 1003     		.2byte	0x310
 1506 0543 C8000000 		.4byte	0xc8
 1507 0547 20       		.byte	0x20
 1508 0548 09       		.uleb128 0x9
 1509 0549 E6020000 		.4byte	.LASF96
 1510 054d 08       		.byte	0x8
 1511 054e 1103     		.2byte	0x311
 1512 0550 C8000000 		.4byte	0xc8
 1513 0554 24       		.byte	0x24
 1514 0555 09       		.uleb128 0x9
 1515 0556 A2050000 		.4byte	.LASF97
 1516 055a 08       		.byte	0x8
 1517 055b 1203     		.2byte	0x312
 1518 055d C8000000 		.4byte	0xc8
 1519 0561 28       		.byte	0x28
 1520 0562 09       		.uleb128 0x9
 1521 0563 2E050000 		.4byte	.LASF98
ARM GAS  /var/folders/c6/c789hm653lg9vtl73krp73tm0000gn/T//ccxnP4td.s 			page 58


 1522 0567 08       		.byte	0x8
 1523 0568 1303     		.2byte	0x313
 1524 056a BA040000 		.4byte	0x4ba
 1525 056e 2C       		.byte	0x2c
 1526 056f 09       		.uleb128 0x9
 1527 0570 DC040000 		.4byte	.LASF99
 1528 0574 08       		.byte	0x8
 1529 0575 1403     		.2byte	0x314
 1530 0577 C8000000 		.4byte	0xc8
 1531 057b 30       		.byte	0x30
 1532 057c 09       		.uleb128 0x9
 1533 057d 79050000 		.4byte	.LASF100
 1534 0581 08       		.byte	0x8
 1535 0582 1503     		.2byte	0x315
 1536 0584 C8000000 		.4byte	0xc8
 1537 0588 34       		.byte	0x34
 1538 0589 09       		.uleb128 0x9
 1539 058a AC050000 		.4byte	.LASF101
 1540 058e 08       		.byte	0x8
 1541 058f 1603     		.2byte	0x316
 1542 0591 C8000000 		.4byte	0xc8
 1543 0595 38       		.byte	0x38
 1544 0596 09       		.uleb128 0x9
 1545 0597 38050000 		.4byte	.LASF102
 1546 059b 08       		.byte	0x8
 1547 059c 1703     		.2byte	0x317
 1548 059e BA040000 		.4byte	0x4ba
 1549 05a2 3C       		.byte	0x3c
 1550 05a3 09       		.uleb128 0x9
 1551 05a4 E2040000 		.4byte	.LASF103
 1552 05a8 08       		.byte	0x8
 1553 05a9 1803     		.2byte	0x318
 1554 05ab C8000000 		.4byte	0xc8
 1555 05af 40       		.byte	0x40
 1556 05b0 09       		.uleb128 0x9
 1557 05b1 01030000 		.4byte	.LASF104
 1558 05b5 08       		.byte	0x8
 1559 05b6 1903     		.2byte	0x319
 1560 05b8 C8000000 		.4byte	0xc8
 1561 05bc 44       		.byte	0x44
 1562 05bd 09       		.uleb128 0x9
 1563 05be B6050000 		.4byte	.LASF105
 1564 05c2 08       		.byte	0x8
 1565 05c3 1A03     		.2byte	0x31a
 1566 05c5 C8000000 		.4byte	0xc8
 1567 05c9 48       		.byte	0x48
 1568 05ca 09       		.uleb128 0x9
 1569 05cb 42050000 		.4byte	.LASF106
 1570 05cf 08       		.byte	0x8
 1571 05d0 1B03     		.2byte	0x31b
 1572 05d2 BA040000 		.4byte	0x4ba
 1573 05d6 4C       		.byte	0x4c
 1574 05d7 09       		.uleb128 0x9
 1575 05d8 E8040000 		.4byte	.LASF107
 1576 05dc 08       		.byte	0x8
 1577 05dd 1C03     		.2byte	0x31c
 1578 05df C8000000 		.4byte	0xc8
ARM GAS  /var/folders/c6/c789hm653lg9vtl73krp73tm0000gn/T//ccxnP4td.s 			page 59


 1579 05e3 50       		.byte	0x50
 1580 05e4 09       		.uleb128 0x9
 1581 05e5 07030000 		.4byte	.LASF108
 1582 05e9 08       		.byte	0x8
 1583 05ea 1D03     		.2byte	0x31d
 1584 05ec C8000000 		.4byte	0xc8
 1585 05f0 54       		.byte	0x54
 1586 05f1 09       		.uleb128 0x9
 1587 05f2 C0050000 		.4byte	.LASF109
 1588 05f6 08       		.byte	0x8
 1589 05f7 1E03     		.2byte	0x31e
 1590 05f9 C8000000 		.4byte	0xc8
 1591 05fd 58       		.byte	0x58
 1592 05fe 00       		.byte	0
 1593 05ff 16       		.uleb128 0x16
 1594 0600 F7060000 		.4byte	.LASF110
 1595 0604 08       		.byte	0x8
 1596 0605 1F03     		.2byte	0x31f
 1597 0607 CA040000 		.4byte	0x4ca
 1598 060b 04       		.uleb128 0x4
 1599 060c 9F020000 		.4byte	.LASF111
 1600 0610 09       		.byte	0x9
 1601 0611 65       		.byte	0x65
 1602 0612 3F030000 		.4byte	0x33f
 1603 0616 04       		.uleb128 0x4
 1604 0617 4D040000 		.4byte	.LASF112
 1605 061b 09       		.byte	0x9
 1606 061c 6D       		.byte	0x6d
 1607 061d B8000000 		.4byte	0xb8
 1608 0621 06       		.uleb128 0x6
 1609 0622 EF060000 		.4byte	.LASF113
 1610 0626 04       		.byte	0x4
 1611 0627 09       		.byte	0x9
 1612 0628 89       		.byte	0x89
 1613 0629 3A060000 		.4byte	0x63a
 1614 062d 17       		.uleb128 0x17
 1615 062e 72313300 		.ascii	"r13\000"
 1616 0632 09       		.byte	0x9
 1617 0633 8A       		.byte	0x8a
 1618 0634 B5060000 		.4byte	0x6b5
 1619 0638 00       		.byte	0
 1620 0639 00       		.byte	0
 1621 063a 06       		.uleb128 0x6
 1622 063b 29010000 		.4byte	.LASF114
 1623 063f 24       		.byte	0x24
 1624 0640 02       		.byte	0x2
 1625 0641 F4       		.byte	0xf4
 1626 0642 B5060000 		.4byte	0x6b5
 1627 0646 08       		.uleb128 0x8
 1628 0647 723400   		.ascii	"r4\000"
 1629 064a 02       		.byte	0x2
 1630 064b 0701     		.2byte	0x107
 1631 064d 0B060000 		.4byte	0x60b
 1632 0651 00       		.byte	0
 1633 0652 08       		.uleb128 0x8
 1634 0653 723500   		.ascii	"r5\000"
 1635 0656 02       		.byte	0x2
ARM GAS  /var/folders/c6/c789hm653lg9vtl73krp73tm0000gn/T//ccxnP4td.s 			page 60


 1636 0657 0801     		.2byte	0x108
 1637 0659 0B060000 		.4byte	0x60b
 1638 065d 04       		.byte	0x4
 1639 065e 08       		.uleb128 0x8
 1640 065f 723600   		.ascii	"r6\000"
 1641 0662 02       		.byte	0x2
 1642 0663 0901     		.2byte	0x109
 1643 0665 0B060000 		.4byte	0x60b
 1644 0669 08       		.byte	0x8
 1645 066a 08       		.uleb128 0x8
 1646 066b 723700   		.ascii	"r7\000"
 1647 066e 02       		.byte	0x2
 1648 066f 0A01     		.2byte	0x10a
 1649 0671 0B060000 		.4byte	0x60b
 1650 0675 0C       		.byte	0xc
 1651 0676 08       		.uleb128 0x8
 1652 0677 723800   		.ascii	"r8\000"
 1653 067a 02       		.byte	0x2
 1654 067b 0B01     		.2byte	0x10b
 1655 067d 0B060000 		.4byte	0x60b
 1656 0681 10       		.byte	0x10
 1657 0682 08       		.uleb128 0x8
 1658 0683 723900   		.ascii	"r9\000"
 1659 0686 02       		.byte	0x2
 1660 0687 0C01     		.2byte	0x10c
 1661 0689 0B060000 		.4byte	0x60b
 1662 068d 14       		.byte	0x14
 1663 068e 08       		.uleb128 0x8
 1664 068f 72313000 		.ascii	"r10\000"
 1665 0693 02       		.byte	0x2
 1666 0694 0D01     		.2byte	0x10d
 1667 0696 0B060000 		.4byte	0x60b
 1668 069a 18       		.byte	0x18
 1669 069b 08       		.uleb128 0x8
 1670 069c 72313100 		.ascii	"r11\000"
 1671 06a0 02       		.byte	0x2
 1672 06a1 0E01     		.2byte	0x10e
 1673 06a3 0B060000 		.4byte	0x60b
 1674 06a7 1C       		.byte	0x1c
 1675 06a8 08       		.uleb128 0x8
 1676 06a9 6C7200   		.ascii	"lr\000"
 1677 06ac 02       		.byte	0x2
 1678 06ad 0F01     		.2byte	0x10f
 1679 06af 0B060000 		.4byte	0x60b
 1680 06b3 20       		.byte	0x20
 1681 06b4 00       		.byte	0
 1682 06b5 0A       		.uleb128 0xa
 1683 06b6 04       		.byte	0x4
 1684 06b7 3A060000 		.4byte	0x63a
 1685 06bb 18       		.uleb128 0x18
 1686 06bc 10       		.byte	0x10
 1687 06bd 0A       		.byte	0xa
 1688 06be 51       		.byte	0x51
 1689 06bf F4060000 		.4byte	0x6f4
 1690 06c3 07       		.uleb128 0x7
 1691 06c4 F4000000 		.4byte	.LASF115
 1692 06c8 0A       		.byte	0xa
ARM GAS  /var/folders/c6/c789hm653lg9vtl73krp73tm0000gn/T//ccxnP4td.s 			page 61


 1693 06c9 55       		.byte	0x55
 1694 06ca 3B010000 		.4byte	0x13b
 1695 06ce 00       		.byte	0
 1696 06cf 07       		.uleb128 0x7
 1697 06d0 70020000 		.4byte	.LASF116
 1698 06d4 0A       		.byte	0xa
 1699 06d5 59       		.byte	0x59
 1700 06d6 62020000 		.4byte	0x262
 1701 06da 04       		.byte	0x4
 1702 06db 07       		.uleb128 0x7
 1703 06dc 9B070000 		.4byte	.LASF117
 1704 06e0 0A       		.byte	0xa
 1705 06e1 5D       		.byte	0x5d
 1706 06e2 3F030000 		.4byte	0x33f
 1707 06e6 08       		.byte	0x8
 1708 06e7 07       		.uleb128 0x7
 1709 06e8 97010000 		.4byte	.LASF118
 1710 06ec 0A       		.byte	0xa
 1711 06ed 61       		.byte	0x61
 1712 06ee 97000000 		.4byte	0x97
 1713 06f2 0C       		.byte	0xc
 1714 06f3 00       		.byte	0
 1715 06f4 04       		.uleb128 0x4
 1716 06f5 AD040000 		.4byte	.LASF119
 1717 06f9 0A       		.byte	0xa
 1718 06fa 62       		.byte	0x62
 1719 06fb BB060000 		.4byte	0x6bb
 1720 06ff 19       		.uleb128 0x19
 1721 0700 0804     		.2byte	0x408
 1722 0702 0A       		.byte	0xa
 1723 0703 67       		.byte	0x67
 1724 0704 2D070000 		.4byte	0x72d
 1725 0708 07       		.uleb128 0x7
 1726 0709 8F020000 		.4byte	.LASF120
 1727 070d 0A       		.byte	0xa
 1728 070e 6B       		.byte	0x6b
 1729 070f 2C000000 		.4byte	0x2c
 1730 0713 00       		.byte	0
 1731 0714 07       		.uleb128 0x7
 1732 0715 E0000000 		.4byte	.LASF121
 1733 0719 0A       		.byte	0xa
 1734 071a 6F       		.byte	0x6f
 1735 071b 2D070000 		.4byte	0x72d
 1736 071f 04       		.byte	0x4
 1737 0720 07       		.uleb128 0x7
 1738 0721 00040000 		.4byte	.LASF122
 1739 0725 0A       		.byte	0xa
 1740 0726 73       		.byte	0x73
 1741 0727 33070000 		.4byte	0x733
 1742 072b 08       		.byte	0x8
 1743 072c 00       		.byte	0
 1744 072d 0A       		.uleb128 0xa
 1745 072e 04       		.byte	0x4
 1746 072f F4060000 		.4byte	0x6f4
 1747 0733 13       		.uleb128 0x13
 1748 0734 F4060000 		.4byte	0x6f4
 1749 0738 43070000 		.4byte	0x743
ARM GAS  /var/folders/c6/c789hm653lg9vtl73krp73tm0000gn/T//ccxnP4td.s 			page 62


 1750 073c 14       		.uleb128 0x14
 1751 073d AE040000 		.4byte	0x4ae
 1752 0741 3F       		.byte	0x3f
 1753 0742 00       		.byte	0
 1754 0743 04       		.uleb128 0x4
 1755 0744 85010000 		.4byte	.LASF123
 1756 0748 0A       		.byte	0xa
 1757 0749 74       		.byte	0x74
 1758 074a FF060000 		.4byte	0x6ff
 1759 074e 18       		.uleb128 0x18
 1760 074f 04       		.byte	0x4
 1761 0750 0B       		.byte	0xb
 1762 0751 38       		.byte	0x38
 1763 0752 63070000 		.4byte	0x763
 1764 0756 07       		.uleb128 0x7
 1765 0757 E8060000 		.4byte	.LASF124
 1766 075b 0B       		.byte	0xb
 1767 075c 3C       		.byte	0x3c
 1768 075d CD000000 		.4byte	0xcd
 1769 0761 00       		.byte	0
 1770 0762 00       		.byte	0
 1771 0763 04       		.uleb128 0x4
 1772 0764 85040000 		.4byte	.LASF125
 1773 0768 0B       		.byte	0xb
 1774 0769 3D       		.byte	0x3d
 1775 076a 4E070000 		.4byte	0x74e
 1776 076e 18       		.uleb128 0x18
 1777 076f 18       		.byte	0x18
 1778 0770 0B       		.byte	0xb
 1779 0771 48       		.byte	0x48
 1780 0772 B1070000 		.4byte	0x7b1
 1781 0776 07       		.uleb128 0x7
 1782 0777 0B050000 		.4byte	.LASF126
 1783 077b 0B       		.byte	0xb
 1784 077c 49       		.byte	0x49
 1785 077d CD000000 		.4byte	0xcd
 1786 0781 00       		.byte	0
 1787 0782 07       		.uleb128 0x7
 1788 0783 55010000 		.4byte	.LASF127
 1789 0787 0B       		.byte	0xb
 1790 0788 4A       		.byte	0x4a
 1791 0789 CD000000 		.4byte	0xcd
 1792 078d 04       		.byte	0x4
 1793 078e 07       		.uleb128 0x7
 1794 078f E8030000 		.4byte	.LASF128
 1795 0793 0B       		.byte	0xb
 1796 0794 4B       		.byte	0x4b
 1797 0795 CD000000 		.4byte	0xcd
 1798 0799 08       		.byte	0x8
 1799 079a 17       		.uleb128 0x17
 1800 079b 6E00     		.ascii	"n\000"
 1801 079d 0B       		.byte	0xb
 1802 079e 4C       		.byte	0x4c
 1803 079f 30010000 		.4byte	0x130
 1804 07a3 0C       		.byte	0xc
 1805 07a4 07       		.uleb128 0x7
 1806 07a5 1B050000 		.4byte	.LASF129
ARM GAS  /var/folders/c6/c789hm653lg9vtl73krp73tm0000gn/T//ccxnP4td.s 			page 63


 1807 07a9 0B       		.byte	0xb
 1808 07aa 4D       		.byte	0x4d
 1809 07ab D8000000 		.4byte	0xd8
 1810 07af 10       		.byte	0x10
 1811 07b0 00       		.byte	0
 1812 07b1 04       		.uleb128 0x4
 1813 07b2 5B010000 		.4byte	.LASF130
 1814 07b6 0B       		.byte	0xb
 1815 07b7 4E       		.byte	0x4e
 1816 07b8 6E070000 		.4byte	0x76e
 1817 07bc 18       		.uleb128 0x18
 1818 07bd 38       		.byte	0x38
 1819 07be 0C       		.byte	0xc
 1820 07bf 38       		.byte	0x38
 1821 07c0 F5070000 		.4byte	0x7f5
 1822 07c4 07       		.uleb128 0x7
 1823 07c5 47030000 		.4byte	.LASF131
 1824 07c9 0C       		.byte	0xc
 1825 07ca 39       		.byte	0x39
 1826 07cb 30010000 		.4byte	0x130
 1827 07cf 00       		.byte	0
 1828 07d0 07       		.uleb128 0x7
 1829 07d1 70050000 		.4byte	.LASF132
 1830 07d5 0C       		.byte	0xc
 1831 07d6 3A       		.byte	0x3a
 1832 07d7 30010000 		.4byte	0x130
 1833 07db 04       		.byte	0x4
 1834 07dc 07       		.uleb128 0x7
 1835 07dd 88070000 		.4byte	.LASF133
 1836 07e1 0C       		.byte	0xc
 1837 07e2 3B       		.byte	0x3b
 1838 07e3 B1070000 		.4byte	0x7b1
 1839 07e7 08       		.byte	0x8
 1840 07e8 07       		.uleb128 0x7
 1841 07e9 0A040000 		.4byte	.LASF134
 1842 07ed 0C       		.byte	0xc
 1843 07ee 3D       		.byte	0x3d
 1844 07ef B1070000 		.4byte	0x7b1
 1845 07f3 20       		.byte	0x20
 1846 07f4 00       		.byte	0
 1847 07f5 04       		.uleb128 0x4
 1848 07f6 C2030000 		.4byte	.LASF135
 1849 07fa 0C       		.byte	0xc
 1850 07fb 3F       		.byte	0x3f
 1851 07fc BC070000 		.4byte	0x7bc
 1852 0800 1A       		.uleb128 0x1a
 1853 0801 04       		.byte	0x4
 1854 0802 07       		.byte	0x7
 1855 0803 FA       		.byte	0xfa
 1856 0804 5D080000 		.4byte	0x85d
 1857 0808 1B       		.uleb128 0x1b
 1858 0809 02010000 		.4byte	.LASF136
 1859 080d 07       		.byte	0x7
 1860 080e 0101     		.2byte	0x101
 1861 0810 0F010000 		.4byte	0x10f
 1862 0814 1B       		.uleb128 0x1b
 1863 0815 A0010000 		.4byte	.LASF137
ARM GAS  /var/folders/c6/c789hm653lg9vtl73krp73tm0000gn/T//ccxnP4td.s 			page 64


 1864 0819 07       		.byte	0x7
 1865 081a 0801     		.2byte	0x108
 1866 081c 0F010000 		.4byte	0x10f
 1867 0820 1B       		.uleb128 0x1b
 1868 0821 58070000 		.4byte	.LASF138
 1869 0825 07       		.byte	0x7
 1870 0826 0F01     		.2byte	0x10f
 1871 0828 3F030000 		.4byte	0x33f
 1872 082c 1B       		.uleb128 0x1b
 1873 082d FC000000 		.4byte	.LASF139
 1874 0831 07       		.byte	0x7
 1875 0832 1601     		.2byte	0x116
 1876 0834 5D080000 		.4byte	0x85d
 1877 0838 1B       		.uleb128 0x1b
 1878 0839 0D030000 		.4byte	.LASF140
 1879 083d 07       		.byte	0x7
 1880 083e 1E01     		.2byte	0x11e
 1881 0840 88080000 		.4byte	0x888
 1882 0844 1B       		.uleb128 0x1b
 1883 0845 4C060000 		.4byte	.LASF141
 1884 0849 07       		.byte	0x7
 1885 084a 2701     		.2byte	0x127
 1886 084c BF080000 		.4byte	0x8bf
 1887 0850 1B       		.uleb128 0x1b
 1888 0851 E3050000 		.4byte	.LASF142
 1889 0855 07       		.byte	0x7
 1890 0856 2F01     		.2byte	0x12f
 1891 0858 1A010000 		.4byte	0x11a
 1892 085c 00       		.byte	0
 1893 085d 0A       		.uleb128 0xa
 1894 085e 04       		.byte	0x4
 1895 085f 57020000 		.4byte	0x257
 1896 0863 06       		.uleb128 0x6
 1897 0864 24060000 		.4byte	.LASF143
 1898 0868 0C       		.byte	0xc
 1899 0869 0D       		.byte	0xd
 1900 086a 34       		.byte	0x34
 1901 086b 88080000 		.4byte	0x888
 1902 086f 07       		.uleb128 0x7
 1903 0870 87020000 		.4byte	.LASF144
 1904 0874 0D       		.byte	0xd
 1905 0875 35       		.byte	0x35
 1906 0876 8C020000 		.4byte	0x28c
 1907 087a 00       		.byte	0
 1908 087b 07       		.uleb128 0x7
 1909 087c 4D030000 		.4byte	.LASF145
 1910 0880 0D       		.byte	0xd
 1911 0881 37       		.byte	0x37
 1912 0882 25010000 		.4byte	0x125
 1913 0886 08       		.byte	0x8
 1914 0887 00       		.byte	0
 1915 0888 0A       		.uleb128 0xa
 1916 0889 04       		.byte	0x4
 1917 088a 63080000 		.4byte	0x863
 1918 088e 06       		.uleb128 0x6
 1919 088f 2A070000 		.4byte	.LASF146
 1920 0893 10       		.byte	0x10
ARM GAS  /var/folders/c6/c789hm653lg9vtl73krp73tm0000gn/T//ccxnP4td.s 			page 65


 1921 0894 0E       		.byte	0xe
 1922 0895 39       		.byte	0x39
 1923 0896 BF080000 		.4byte	0x8bf
 1924 089a 07       		.uleb128 0x7
 1925 089b 24020000 		.4byte	.LASF147
 1926 089f 0E       		.byte	0xe
 1927 08a0 3A       		.byte	0x3a
 1928 08a1 8C020000 		.4byte	0x28c
 1929 08a5 00       		.byte	0
 1930 08a6 07       		.uleb128 0x7
 1931 08a7 93070000 		.4byte	.LASF148
 1932 08ab 0E       		.byte	0xe
 1933 08ac 3C       		.byte	0x3c
 1934 08ad 62020000 		.4byte	0x262
 1935 08b1 08       		.byte	0x8
 1936 08b2 07       		.uleb128 0x7
 1937 08b3 AE060000 		.4byte	.LASF149
 1938 08b7 0E       		.byte	0xe
 1939 08b8 3E       		.byte	0x3e
 1940 08b9 03090000 		.4byte	0x903
 1941 08bd 0C       		.byte	0xc
 1942 08be 00       		.byte	0
 1943 08bf 0A       		.uleb128 0xa
 1944 08c0 04       		.byte	0x4
 1945 08c1 8E080000 		.4byte	0x88e
 1946 08c5 0A       		.uleb128 0xa
 1947 08c6 04       		.byte	0x4
 1948 08c7 CB080000 		.4byte	0x8cb
 1949 08cb 12       		.uleb128 0x12
 1950 08cc D0080000 		.4byte	0x8d0
 1951 08d0 03       		.uleb128 0x3
 1952 08d1 01       		.byte	0x1
 1953 08d2 08       		.byte	0x8
 1954 08d3 86060000 		.4byte	.LASF150
 1955 08d7 0A       		.uleb128 0xa
 1956 08d8 04       		.byte	0x4
 1957 08d9 16060000 		.4byte	0x616
 1958 08dd 0A       		.uleb128 0xa
 1959 08de 04       		.byte	0x4
 1960 08df 41030000 		.4byte	0x341
 1961 08e3 05       		.uleb128 0x5
 1962 08e4 C5080000 		.4byte	0x8c5
 1963 08e8 13       		.uleb128 0x13
 1964 08e9 16060000 		.4byte	0x616
 1965 08ed F8080000 		.4byte	0x8f8
 1966 08f1 14       		.uleb128 0x14
 1967 08f2 AE040000 		.4byte	0x4ae
 1968 08f6 1E       		.byte	0x1e
 1969 08f7 00       		.byte	0
 1970 08f8 04       		.uleb128 0x4
 1971 08f9 C0020000 		.4byte	.LASF151
 1972 08fd 0E       		.byte	0xe
 1973 08fe 34       		.byte	0x34
 1974 08ff 8E080000 		.4byte	0x88e
 1975 0903 0A       		.uleb128 0xa
 1976 0904 04       		.byte	0x4
 1977 0905 F8080000 		.4byte	0x8f8
ARM GAS  /var/folders/c6/c789hm653lg9vtl73krp73tm0000gn/T//ccxnP4td.s 			page 66


 1978 0909 1C       		.uleb128 0x1c
 1979 090a 94060000 		.4byte	.LASF162
 1980 090e 02       		.byte	0x2
 1981 090f 2202     		.2byte	0x222
 1982 0911 CD000000 		.4byte	0xcd
 1983 0915 03       		.byte	0x3
 1984 0916 1D       		.uleb128 0x1d
 1985 0917 B4010000 		.4byte	.LASF163
 1986 091b 01       		.byte	0x1
 1987 091c 35       		.byte	0x35
 1988 091d 03       		.byte	0x3
 1989 091e 44090000 		.4byte	0x944
 1990 0922 1E       		.uleb128 0x1e
 1991 0923 746D7000 		.ascii	"tmp\000"
 1992 0927 01       		.byte	0x1
 1993 0928 35       		.byte	0x35
 1994 0929 44090000 		.4byte	0x944
 1995 092d 1E       		.uleb128 0x1e
 1996 092e 6E6F7700 		.ascii	"now\000"
 1997 0932 01       		.byte	0x1
 1998 0933 36       		.byte	0x36
 1999 0934 CD000000 		.4byte	0xcd
 2000 0938 1F       		.uleb128 0x1f
 2001 0939 E8060000 		.4byte	.LASF124
 2002 093d 01       		.byte	0x1
 2003 093e 37       		.byte	0x37
 2004 093f CD000000 		.4byte	0xcd
 2005 0943 00       		.byte	0
 2006 0944 0A       		.uleb128 0xa
 2007 0945 04       		.byte	0x4
 2008 0946 B1070000 		.4byte	0x7b1
 2009 094a 20       		.uleb128 0x20
 2010 094b D2010000 		.4byte	.LASF164
 2011 094f 01       		.byte	0x1
 2012 0950 63       		.byte	0x63
 2013 0951 01       		.byte	0x1
 2014 0952 62090000 		.4byte	0x962
 2015 0956 1E       		.uleb128 0x1e
 2016 0957 746D7000 		.ascii	"tmp\000"
 2017 095b 01       		.byte	0x1
 2018 095c 63       		.byte	0x63
 2019 095d 44090000 		.4byte	0x944
 2020 0961 00       		.byte	0
 2021 0962 21       		.uleb128 0x21
 2022 0963 4A090000 		.4byte	0x94a
 2023 0967 00000000 		.4byte	.LFB231
 2024 096b 18000000 		.4byte	.LFE231-.LFB231
 2025 096f 01       		.uleb128 0x1
 2026 0970 9C       		.byte	0x9c
 2027 0971 7D090000 		.4byte	0x97d
 2028 0975 22       		.uleb128 0x22
 2029 0976 56090000 		.4byte	0x956
 2030 097a 01       		.uleb128 0x1
 2031 097b 50       		.byte	0x50
 2032 097c 00       		.byte	0
 2033 097d 23       		.uleb128 0x23
 2034 097e 33020000 		.4byte	.LASF152
ARM GAS  /var/folders/c6/c789hm653lg9vtl73krp73tm0000gn/T//ccxnP4td.s 			page 67


 2035 0982 01       		.byte	0x1
 2036 0983 74       		.byte	0x74
 2037 0984 00000000 		.4byte	.LFB232
 2038 0988 0C000000 		.4byte	.LFE232-.LFB232
 2039 098c 01       		.uleb128 0x1
 2040 098d 9C       		.byte	0x9c
 2041 098e AF090000 		.4byte	0x9af
 2042 0992 24       		.uleb128 0x24
 2043 0993 746D7000 		.ascii	"tmp\000"
 2044 0997 01       		.byte	0x1
 2045 0998 74       		.byte	0x74
 2046 0999 44090000 		.4byte	0x944
 2047 099d 01       		.uleb128 0x1
 2048 099e 50       		.byte	0x50
 2049 099f 25       		.uleb128 0x25
 2050 09a0 09090000 		.4byte	0x909
 2051 09a4 00000000 		.4byte	.LBB14
 2052 09a8 04000000 		.4byte	.LBE14-.LBB14
 2053 09ac 01       		.byte	0x1
 2054 09ad 76       		.byte	0x76
 2055 09ae 00       		.byte	0
 2056 09af 23       		.uleb128 0x23
 2057 09b0 49020000 		.4byte	.LASF153
 2058 09b4 01       		.byte	0x1
 2059 09b5 81       		.byte	0x81
 2060 09b6 00000000 		.4byte	.LFB233
 2061 09ba 48000000 		.4byte	.LFE233-.LFB233
 2062 09be 01       		.uleb128 0x1
 2063 09bf 9C       		.byte	0x9c
 2064 09c0 0A0A0000 		.4byte	0xa0a
 2065 09c4 24       		.uleb128 0x24
 2066 09c5 746D7000 		.ascii	"tmp\000"
 2067 09c9 01       		.byte	0x1
 2068 09ca 81       		.byte	0x81
 2069 09cb 44090000 		.4byte	0x944
 2070 09cf 01       		.uleb128 0x1
 2071 09d0 50       		.byte	0x50
 2072 09d1 26       		.uleb128 0x26
 2073 09d2 09090000 		.4byte	0x909
 2074 09d6 00000000 		.4byte	.LBB16
 2075 09da 00000000 		.4byte	.Ldebug_ranges0+0
 2076 09de 01       		.byte	0x1
 2077 09df 83       		.byte	0x83
 2078 09e0 27       		.uleb128 0x27
 2079 09e1 16090000 		.4byte	0x916
 2080 09e5 08000000 		.4byte	.LBB20
 2081 09e9 18000000 		.4byte	.Ldebug_ranges0+0x18
 2082 09ed 01       		.byte	0x1
 2083 09ee 83       		.byte	0x83
 2084 09ef 28       		.uleb128 0x28
 2085 09f0 38090000 		.4byte	0x938
 2086 09f4 00000000 		.4byte	.LLST0
 2087 09f8 28       		.uleb128 0x28
 2088 09f9 2D090000 		.4byte	0x92d
 2089 09fd 1E000000 		.4byte	.LLST1
 2090 0a01 22       		.uleb128 0x22
 2091 0a02 22090000 		.4byte	0x922
ARM GAS  /var/folders/c6/c789hm653lg9vtl73krp73tm0000gn/T//ccxnP4td.s 			page 68


 2092 0a06 01       		.uleb128 0x1
 2093 0a07 50       		.byte	0x50
 2094 0a08 00       		.byte	0
 2095 0a09 00       		.byte	0
 2096 0a0a 23       		.uleb128 0x23
 2097 0a0b AD070000 		.4byte	.LASF154
 2098 0a0f 01       		.byte	0x1
 2099 0a10 4F       		.byte	0x4f
 2100 0a11 00000000 		.4byte	.LFB230
 2101 0a15 3C000000 		.4byte	.LFE230-.LFB230
 2102 0a19 01       		.uleb128 0x1
 2103 0a1a 9C       		.byte	0x9c
 2104 0a1b 6E0A0000 		.4byte	0xa6e
 2105 0a1f 29       		.uleb128 0x29
 2106 0a20 746D00   		.ascii	"tm\000"
 2107 0a23 01       		.byte	0x1
 2108 0a24 50       		.byte	0x50
 2109 0a25 B1070000 		.4byte	0x7b1
 2110 0a29 02       		.uleb128 0x2
 2111 0a2a 91       		.byte	0x91
 2112 0a2b 58       		.sleb128 -40
 2113 0a2c 2A       		.uleb128 0x2a
 2114 0a2d 4A090000 		.4byte	0x94a
 2115 0a31 08000000 		.4byte	.LBB26
 2116 0a35 38000000 		.4byte	.Ldebug_ranges0+0x38
 2117 0a39 01       		.byte	0x1
 2118 0a3a 56       		.byte	0x56
 2119 0a3b 490A0000 		.4byte	0xa49
 2120 0a3f 28       		.uleb128 0x28
 2121 0a40 56090000 		.4byte	0x956
 2122 0a44 31000000 		.4byte	.LLST2
 2123 0a48 00       		.byte	0
 2124 0a49 2B       		.uleb128 0x2b
 2125 0a4a 26000000 		.4byte	.LVL9
 2126 0a4e 7D090000 		.4byte	0x97d
 2127 0a52 5D0A0000 		.4byte	0xa5d
 2128 0a56 2C       		.uleb128 0x2c
 2129 0a57 01       		.uleb128 0x1
 2130 0a58 50       		.byte	0x50
 2131 0a59 02       		.uleb128 0x2
 2132 0a5a 7D       		.byte	0x7d
 2133 0a5b 00       		.sleb128 0
 2134 0a5c 00       		.byte	0
 2135 0a5d 2D       		.uleb128 0x2d
 2136 0a5e 2C000000 		.4byte	.LVL10
 2137 0a62 AF090000 		.4byte	0x9af
 2138 0a66 2C       		.uleb128 0x2c
 2139 0a67 01       		.uleb128 0x1
 2140 0a68 50       		.byte	0x50
 2141 0a69 02       		.uleb128 0x2
 2142 0a6a 7D       		.byte	0x7d
 2143 0a6b 00       		.sleb128 0
 2144 0a6c 00       		.byte	0
 2145 0a6d 00       		.byte	0
 2146 0a6e 23       		.uleb128 0x23
 2147 0a6f 35040000 		.4byte	.LASF155
 2148 0a73 01       		.byte	0x1
ARM GAS  /var/folders/c6/c789hm653lg9vtl73krp73tm0000gn/T//ccxnP4td.s 			page 69


 2149 0a74 92       		.byte	0x92
 2150 0a75 00000000 		.4byte	.LFB234
 2151 0a79 40000000 		.4byte	.LFE234-.LFB234
 2152 0a7d 01       		.uleb128 0x1
 2153 0a7e 9C       		.byte	0x9c
 2154 0a7f D50A0000 		.4byte	0xad5
 2155 0a83 2E       		.uleb128 0x2e
 2156 0a84 F1010000 		.4byte	.LASF156
 2157 0a88 01       		.byte	0x1
 2158 0a89 92       		.byte	0x92
 2159 0a8a 44090000 		.4byte	0x944
 2160 0a8e 01       		.uleb128 0x1
 2161 0a8f 50       		.byte	0x50
 2162 0a90 2F       		.uleb128 0x2f
 2163 0a91 F6010000 		.4byte	.LASF157
 2164 0a95 01       		.byte	0x1
 2165 0a96 93       		.byte	0x93
 2166 0a97 44090000 		.4byte	0x944
 2167 0a9b 69000000 		.4byte	.LLST3
 2168 0a9f 26       		.uleb128 0x26
 2169 0aa0 09090000 		.4byte	0x909
 2170 0aa4 00000000 		.4byte	.LBB32
 2171 0aa8 58000000 		.4byte	.Ldebug_ranges0+0x58
 2172 0aac 01       		.byte	0x1
 2173 0aad 96       		.byte	0x96
 2174 0aae 27       		.uleb128 0x27
 2175 0aaf 16090000 		.4byte	0x916
 2176 0ab3 08000000 		.4byte	.LBB36
 2177 0ab7 70000000 		.4byte	.Ldebug_ranges0+0x70
 2178 0abb 01       		.byte	0x1
 2179 0abc 99       		.byte	0x99
 2180 0abd 30       		.uleb128 0x30
 2181 0abe 38090000 		.4byte	0x938
 2182 0ac2 00       		.byte	0
 2183 0ac3 28       		.uleb128 0x28
 2184 0ac4 2D090000 		.4byte	0x92d
 2185 0ac8 8A000000 		.4byte	.LLST4
 2186 0acc 22       		.uleb128 0x22
 2187 0acd 22090000 		.4byte	0x922
 2188 0ad1 01       		.uleb128 0x1
 2189 0ad2 50       		.byte	0x50
 2190 0ad3 00       		.byte	0
 2191 0ad4 00       		.byte	0
 2192 0ad5 31       		.uleb128 0x31
 2193 0ad6 95050000 		.4byte	.LASF158
 2194 0ada 08       		.byte	0x8
 2195 0adb A706     		.2byte	0x6a7
 2196 0add C3000000 		.4byte	0xc3
 2197 0ae1 32       		.uleb128 0x32
 2198 0ae2 636800   		.ascii	"ch\000"
 2199 0ae5 07       		.byte	0x7
 2200 0ae6 0902     		.2byte	0x209
 2201 0ae8 36040000 		.4byte	0x436
 2202 0aec 00       		.byte	0
 2203              		.section	.debug_abbrev,"",%progbits
 2204              	.Ldebug_abbrev0:
 2205 0000 01       		.uleb128 0x1
ARM GAS  /var/folders/c6/c789hm653lg9vtl73krp73tm0000gn/T//ccxnP4td.s 			page 70


 2206 0001 11       		.uleb128 0x11
 2207 0002 01       		.byte	0x1
 2208 0003 25       		.uleb128 0x25
 2209 0004 0E       		.uleb128 0xe
 2210 0005 13       		.uleb128 0x13
 2211 0006 0B       		.uleb128 0xb
 2212 0007 03       		.uleb128 0x3
 2213 0008 0E       		.uleb128 0xe
 2214 0009 1B       		.uleb128 0x1b
 2215 000a 0E       		.uleb128 0xe
 2216 000b 55       		.uleb128 0x55
 2217 000c 17       		.uleb128 0x17
 2218 000d 11       		.uleb128 0x11
 2219 000e 01       		.uleb128 0x1
 2220 000f 10       		.uleb128 0x10
 2221 0010 17       		.uleb128 0x17
 2222 0011 00       		.byte	0
 2223 0012 00       		.byte	0
 2224 0013 02       		.uleb128 0x2
 2225 0014 24       		.uleb128 0x24
 2226 0015 00       		.byte	0
 2227 0016 0B       		.uleb128 0xb
 2228 0017 0B       		.uleb128 0xb
 2229 0018 3E       		.uleb128 0x3e
 2230 0019 0B       		.uleb128 0xb
 2231 001a 03       		.uleb128 0x3
 2232 001b 08       		.uleb128 0x8
 2233 001c 00       		.byte	0
 2234 001d 00       		.byte	0
 2235 001e 03       		.uleb128 0x3
 2236 001f 24       		.uleb128 0x24
 2237 0020 00       		.byte	0
 2238 0021 0B       		.uleb128 0xb
 2239 0022 0B       		.uleb128 0xb
 2240 0023 3E       		.uleb128 0x3e
 2241 0024 0B       		.uleb128 0xb
 2242 0025 03       		.uleb128 0x3
 2243 0026 0E       		.uleb128 0xe
 2244 0027 00       		.byte	0
 2245 0028 00       		.byte	0
 2246 0029 04       		.uleb128 0x4
 2247 002a 16       		.uleb128 0x16
 2248 002b 00       		.byte	0
 2249 002c 03       		.uleb128 0x3
 2250 002d 0E       		.uleb128 0xe
 2251 002e 3A       		.uleb128 0x3a
 2252 002f 0B       		.uleb128 0xb
 2253 0030 3B       		.uleb128 0x3b
 2254 0031 0B       		.uleb128 0xb
 2255 0032 49       		.uleb128 0x49
 2256 0033 13       		.uleb128 0x13
 2257 0034 00       		.byte	0
 2258 0035 00       		.byte	0
 2259 0036 05       		.uleb128 0x5
 2260 0037 35       		.uleb128 0x35
 2261 0038 00       		.byte	0
 2262 0039 49       		.uleb128 0x49
ARM GAS  /var/folders/c6/c789hm653lg9vtl73krp73tm0000gn/T//ccxnP4td.s 			page 71


 2263 003a 13       		.uleb128 0x13
 2264 003b 00       		.byte	0
 2265 003c 00       		.byte	0
 2266 003d 06       		.uleb128 0x6
 2267 003e 13       		.uleb128 0x13
 2268 003f 01       		.byte	0x1
 2269 0040 03       		.uleb128 0x3
 2270 0041 0E       		.uleb128 0xe
 2271 0042 0B       		.uleb128 0xb
 2272 0043 0B       		.uleb128 0xb
 2273 0044 3A       		.uleb128 0x3a
 2274 0045 0B       		.uleb128 0xb
 2275 0046 3B       		.uleb128 0x3b
 2276 0047 0B       		.uleb128 0xb
 2277 0048 01       		.uleb128 0x1
 2278 0049 13       		.uleb128 0x13
 2279 004a 00       		.byte	0
 2280 004b 00       		.byte	0
 2281 004c 07       		.uleb128 0x7
 2282 004d 0D       		.uleb128 0xd
 2283 004e 00       		.byte	0
 2284 004f 03       		.uleb128 0x3
 2285 0050 0E       		.uleb128 0xe
 2286 0051 3A       		.uleb128 0x3a
 2287 0052 0B       		.uleb128 0xb
 2288 0053 3B       		.uleb128 0x3b
 2289 0054 0B       		.uleb128 0xb
 2290 0055 49       		.uleb128 0x49
 2291 0056 13       		.uleb128 0x13
 2292 0057 38       		.uleb128 0x38
 2293 0058 0B       		.uleb128 0xb
 2294 0059 00       		.byte	0
 2295 005a 00       		.byte	0
 2296 005b 08       		.uleb128 0x8
 2297 005c 0D       		.uleb128 0xd
 2298 005d 00       		.byte	0
 2299 005e 03       		.uleb128 0x3
 2300 005f 08       		.uleb128 0x8
 2301 0060 3A       		.uleb128 0x3a
 2302 0061 0B       		.uleb128 0xb
 2303 0062 3B       		.uleb128 0x3b
 2304 0063 05       		.uleb128 0x5
 2305 0064 49       		.uleb128 0x49
 2306 0065 13       		.uleb128 0x13
 2307 0066 38       		.uleb128 0x38
 2308 0067 0B       		.uleb128 0xb
 2309 0068 00       		.byte	0
 2310 0069 00       		.byte	0
 2311 006a 09       		.uleb128 0x9
 2312 006b 0D       		.uleb128 0xd
 2313 006c 00       		.byte	0
 2314 006d 03       		.uleb128 0x3
 2315 006e 0E       		.uleb128 0xe
 2316 006f 3A       		.uleb128 0x3a
 2317 0070 0B       		.uleb128 0xb
 2318 0071 3B       		.uleb128 0x3b
 2319 0072 05       		.uleb128 0x5
ARM GAS  /var/folders/c6/c789hm653lg9vtl73krp73tm0000gn/T//ccxnP4td.s 			page 72


 2320 0073 49       		.uleb128 0x49
 2321 0074 13       		.uleb128 0x13
 2322 0075 38       		.uleb128 0x38
 2323 0076 0B       		.uleb128 0xb
 2324 0077 00       		.byte	0
 2325 0078 00       		.byte	0
 2326 0079 0A       		.uleb128 0xa
 2327 007a 0F       		.uleb128 0xf
 2328 007b 00       		.byte	0
 2329 007c 0B       		.uleb128 0xb
 2330 007d 0B       		.uleb128 0xb
 2331 007e 49       		.uleb128 0x49
 2332 007f 13       		.uleb128 0x13
 2333 0080 00       		.byte	0
 2334 0081 00       		.byte	0
 2335 0082 0B       		.uleb128 0xb
 2336 0083 13       		.uleb128 0x13
 2337 0084 01       		.byte	0x1
 2338 0085 03       		.uleb128 0x3
 2339 0086 0E       		.uleb128 0xe
 2340 0087 0B       		.uleb128 0xb
 2341 0088 0B       		.uleb128 0xb
 2342 0089 3A       		.uleb128 0x3a
 2343 008a 0B       		.uleb128 0xb
 2344 008b 3B       		.uleb128 0x3b
 2345 008c 05       		.uleb128 0x5
 2346 008d 01       		.uleb128 0x1
 2347 008e 13       		.uleb128 0x13
 2348 008f 00       		.byte	0
 2349 0090 00       		.byte	0
 2350 0091 0C       		.uleb128 0xc
 2351 0092 15       		.uleb128 0x15
 2352 0093 01       		.byte	0x1
 2353 0094 27       		.uleb128 0x27
 2354 0095 19       		.uleb128 0x19
 2355 0096 01       		.uleb128 0x1
 2356 0097 13       		.uleb128 0x13
 2357 0098 00       		.byte	0
 2358 0099 00       		.byte	0
 2359 009a 0D       		.uleb128 0xd
 2360 009b 05       		.uleb128 0x5
 2361 009c 00       		.byte	0
 2362 009d 49       		.uleb128 0x49
 2363 009e 13       		.uleb128 0x13
 2364 009f 00       		.byte	0
 2365 00a0 00       		.byte	0
 2366 00a1 0E       		.uleb128 0xe
 2367 00a2 0F       		.uleb128 0xf
 2368 00a3 00       		.byte	0
 2369 00a4 0B       		.uleb128 0xb
 2370 00a5 0B       		.uleb128 0xb
 2371 00a6 00       		.byte	0
 2372 00a7 00       		.byte	0
 2373 00a8 0F       		.uleb128 0xf
 2374 00a9 13       		.uleb128 0x13
 2375 00aa 01       		.byte	0x1
 2376 00ab 03       		.uleb128 0x3
ARM GAS  /var/folders/c6/c789hm653lg9vtl73krp73tm0000gn/T//ccxnP4td.s 			page 73


 2377 00ac 0E       		.uleb128 0xe
 2378 00ad 0B       		.uleb128 0xb
 2379 00ae 05       		.uleb128 0x5
 2380 00af 3A       		.uleb128 0x3a
 2381 00b0 0B       		.uleb128 0xb
 2382 00b1 3B       		.uleb128 0x3b
 2383 00b2 05       		.uleb128 0x5
 2384 00b3 01       		.uleb128 0x1
 2385 00b4 13       		.uleb128 0x13
 2386 00b5 00       		.byte	0
 2387 00b6 00       		.byte	0
 2388 00b7 10       		.uleb128 0x10
 2389 00b8 0D       		.uleb128 0xd
 2390 00b9 00       		.byte	0
 2391 00ba 03       		.uleb128 0x3
 2392 00bb 0E       		.uleb128 0xe
 2393 00bc 3A       		.uleb128 0x3a
 2394 00bd 0B       		.uleb128 0xb
 2395 00be 3B       		.uleb128 0x3b
 2396 00bf 05       		.uleb128 0x5
 2397 00c0 49       		.uleb128 0x49
 2398 00c1 13       		.uleb128 0x13
 2399 00c2 38       		.uleb128 0x38
 2400 00c3 05       		.uleb128 0x5
 2401 00c4 00       		.byte	0
 2402 00c5 00       		.byte	0
 2403 00c6 11       		.uleb128 0x11
 2404 00c7 0D       		.uleb128 0xd
 2405 00c8 00       		.byte	0
 2406 00c9 03       		.uleb128 0x3
 2407 00ca 08       		.uleb128 0x8
 2408 00cb 3A       		.uleb128 0x3a
 2409 00cc 0B       		.uleb128 0xb
 2410 00cd 3B       		.uleb128 0x3b
 2411 00ce 05       		.uleb128 0x5
 2412 00cf 49       		.uleb128 0x49
 2413 00d0 13       		.uleb128 0x13
 2414 00d1 38       		.uleb128 0x38
 2415 00d2 05       		.uleb128 0x5
 2416 00d3 00       		.byte	0
 2417 00d4 00       		.byte	0
 2418 00d5 12       		.uleb128 0x12
 2419 00d6 26       		.uleb128 0x26
 2420 00d7 00       		.byte	0
 2421 00d8 49       		.uleb128 0x49
 2422 00d9 13       		.uleb128 0x13
 2423 00da 00       		.byte	0
 2424 00db 00       		.byte	0
 2425 00dc 13       		.uleb128 0x13
 2426 00dd 01       		.uleb128 0x1
 2427 00de 01       		.byte	0x1
 2428 00df 49       		.uleb128 0x49
 2429 00e0 13       		.uleb128 0x13
 2430 00e1 01       		.uleb128 0x1
 2431 00e2 13       		.uleb128 0x13
 2432 00e3 00       		.byte	0
 2433 00e4 00       		.byte	0
ARM GAS  /var/folders/c6/c789hm653lg9vtl73krp73tm0000gn/T//ccxnP4td.s 			page 74


 2434 00e5 14       		.uleb128 0x14
 2435 00e6 21       		.uleb128 0x21
 2436 00e7 00       		.byte	0
 2437 00e8 49       		.uleb128 0x49
 2438 00e9 13       		.uleb128 0x13
 2439 00ea 2F       		.uleb128 0x2f
 2440 00eb 0B       		.uleb128 0xb
 2441 00ec 00       		.byte	0
 2442 00ed 00       		.byte	0
 2443 00ee 15       		.uleb128 0x15
 2444 00ef 13       		.uleb128 0x13
 2445 00f0 01       		.byte	0x1
 2446 00f1 0B       		.uleb128 0xb
 2447 00f2 0B       		.uleb128 0xb
 2448 00f3 3A       		.uleb128 0x3a
 2449 00f4 0B       		.uleb128 0xb
 2450 00f5 3B       		.uleb128 0x3b
 2451 00f6 05       		.uleb128 0x5
 2452 00f7 01       		.uleb128 0x1
 2453 00f8 13       		.uleb128 0x13
 2454 00f9 00       		.byte	0
 2455 00fa 00       		.byte	0
 2456 00fb 16       		.uleb128 0x16
 2457 00fc 16       		.uleb128 0x16
 2458 00fd 00       		.byte	0
 2459 00fe 03       		.uleb128 0x3
 2460 00ff 0E       		.uleb128 0xe
 2461 0100 3A       		.uleb128 0x3a
 2462 0101 0B       		.uleb128 0xb
 2463 0102 3B       		.uleb128 0x3b
 2464 0103 05       		.uleb128 0x5
 2465 0104 49       		.uleb128 0x49
 2466 0105 13       		.uleb128 0x13
 2467 0106 00       		.byte	0
 2468 0107 00       		.byte	0
 2469 0108 17       		.uleb128 0x17
 2470 0109 0D       		.uleb128 0xd
 2471 010a 00       		.byte	0
 2472 010b 03       		.uleb128 0x3
 2473 010c 08       		.uleb128 0x8
 2474 010d 3A       		.uleb128 0x3a
 2475 010e 0B       		.uleb128 0xb
 2476 010f 3B       		.uleb128 0x3b
 2477 0110 0B       		.uleb128 0xb
 2478 0111 49       		.uleb128 0x49
 2479 0112 13       		.uleb128 0x13
 2480 0113 38       		.uleb128 0x38
 2481 0114 0B       		.uleb128 0xb
 2482 0115 00       		.byte	0
 2483 0116 00       		.byte	0
 2484 0117 18       		.uleb128 0x18
 2485 0118 13       		.uleb128 0x13
 2486 0119 01       		.byte	0x1
 2487 011a 0B       		.uleb128 0xb
 2488 011b 0B       		.uleb128 0xb
 2489 011c 3A       		.uleb128 0x3a
 2490 011d 0B       		.uleb128 0xb
ARM GAS  /var/folders/c6/c789hm653lg9vtl73krp73tm0000gn/T//ccxnP4td.s 			page 75


 2491 011e 3B       		.uleb128 0x3b
 2492 011f 0B       		.uleb128 0xb
 2493 0120 01       		.uleb128 0x1
 2494 0121 13       		.uleb128 0x13
 2495 0122 00       		.byte	0
 2496 0123 00       		.byte	0
 2497 0124 19       		.uleb128 0x19
 2498 0125 13       		.uleb128 0x13
 2499 0126 01       		.byte	0x1
 2500 0127 0B       		.uleb128 0xb
 2501 0128 05       		.uleb128 0x5
 2502 0129 3A       		.uleb128 0x3a
 2503 012a 0B       		.uleb128 0xb
 2504 012b 3B       		.uleb128 0x3b
 2505 012c 0B       		.uleb128 0xb
 2506 012d 01       		.uleb128 0x1
 2507 012e 13       		.uleb128 0x13
 2508 012f 00       		.byte	0
 2509 0130 00       		.byte	0
 2510 0131 1A       		.uleb128 0x1a
 2511 0132 17       		.uleb128 0x17
 2512 0133 01       		.byte	0x1
 2513 0134 0B       		.uleb128 0xb
 2514 0135 0B       		.uleb128 0xb
 2515 0136 3A       		.uleb128 0x3a
 2516 0137 0B       		.uleb128 0xb
 2517 0138 3B       		.uleb128 0x3b
 2518 0139 0B       		.uleb128 0xb
 2519 013a 01       		.uleb128 0x1
 2520 013b 13       		.uleb128 0x13
 2521 013c 00       		.byte	0
 2522 013d 00       		.byte	0
 2523 013e 1B       		.uleb128 0x1b
 2524 013f 0D       		.uleb128 0xd
 2525 0140 00       		.byte	0
 2526 0141 03       		.uleb128 0x3
 2527 0142 0E       		.uleb128 0xe
 2528 0143 3A       		.uleb128 0x3a
 2529 0144 0B       		.uleb128 0xb
 2530 0145 3B       		.uleb128 0x3b
 2531 0146 05       		.uleb128 0x5
 2532 0147 49       		.uleb128 0x49
 2533 0148 13       		.uleb128 0x13
 2534 0149 00       		.byte	0
 2535 014a 00       		.byte	0
 2536 014b 1C       		.uleb128 0x1c
 2537 014c 2E       		.uleb128 0x2e
 2538 014d 00       		.byte	0
 2539 014e 03       		.uleb128 0x3
 2540 014f 0E       		.uleb128 0xe
 2541 0150 3A       		.uleb128 0x3a
 2542 0151 0B       		.uleb128 0xb
 2543 0152 3B       		.uleb128 0x3b
 2544 0153 05       		.uleb128 0x5
 2545 0154 27       		.uleb128 0x27
 2546 0155 19       		.uleb128 0x19
 2547 0156 49       		.uleb128 0x49
ARM GAS  /var/folders/c6/c789hm653lg9vtl73krp73tm0000gn/T//ccxnP4td.s 			page 76


 2548 0157 13       		.uleb128 0x13
 2549 0158 20       		.uleb128 0x20
 2550 0159 0B       		.uleb128 0xb
 2551 015a 00       		.byte	0
 2552 015b 00       		.byte	0
 2553 015c 1D       		.uleb128 0x1d
 2554 015d 2E       		.uleb128 0x2e
 2555 015e 01       		.byte	0x1
 2556 015f 03       		.uleb128 0x3
 2557 0160 0E       		.uleb128 0xe
 2558 0161 3A       		.uleb128 0x3a
 2559 0162 0B       		.uleb128 0xb
 2560 0163 3B       		.uleb128 0x3b
 2561 0164 0B       		.uleb128 0xb
 2562 0165 27       		.uleb128 0x27
 2563 0166 19       		.uleb128 0x19
 2564 0167 20       		.uleb128 0x20
 2565 0168 0B       		.uleb128 0xb
 2566 0169 01       		.uleb128 0x1
 2567 016a 13       		.uleb128 0x13
 2568 016b 00       		.byte	0
 2569 016c 00       		.byte	0
 2570 016d 1E       		.uleb128 0x1e
 2571 016e 05       		.uleb128 0x5
 2572 016f 00       		.byte	0
 2573 0170 03       		.uleb128 0x3
 2574 0171 08       		.uleb128 0x8
 2575 0172 3A       		.uleb128 0x3a
 2576 0173 0B       		.uleb128 0xb
 2577 0174 3B       		.uleb128 0x3b
 2578 0175 0B       		.uleb128 0xb
 2579 0176 49       		.uleb128 0x49
 2580 0177 13       		.uleb128 0x13
 2581 0178 00       		.byte	0
 2582 0179 00       		.byte	0
 2583 017a 1F       		.uleb128 0x1f
 2584 017b 05       		.uleb128 0x5
 2585 017c 00       		.byte	0
 2586 017d 03       		.uleb128 0x3
 2587 017e 0E       		.uleb128 0xe
 2588 017f 3A       		.uleb128 0x3a
 2589 0180 0B       		.uleb128 0xb
 2590 0181 3B       		.uleb128 0x3b
 2591 0182 0B       		.uleb128 0xb
 2592 0183 49       		.uleb128 0x49
 2593 0184 13       		.uleb128 0x13
 2594 0185 00       		.byte	0
 2595 0186 00       		.byte	0
 2596 0187 20       		.uleb128 0x20
 2597 0188 2E       		.uleb128 0x2e
 2598 0189 01       		.byte	0x1
 2599 018a 3F       		.uleb128 0x3f
 2600 018b 19       		.uleb128 0x19
 2601 018c 03       		.uleb128 0x3
 2602 018d 0E       		.uleb128 0xe
 2603 018e 3A       		.uleb128 0x3a
 2604 018f 0B       		.uleb128 0xb
ARM GAS  /var/folders/c6/c789hm653lg9vtl73krp73tm0000gn/T//ccxnP4td.s 			page 77


 2605 0190 3B       		.uleb128 0x3b
 2606 0191 0B       		.uleb128 0xb
 2607 0192 27       		.uleb128 0x27
 2608 0193 19       		.uleb128 0x19
 2609 0194 20       		.uleb128 0x20
 2610 0195 0B       		.uleb128 0xb
 2611 0196 01       		.uleb128 0x1
 2612 0197 13       		.uleb128 0x13
 2613 0198 00       		.byte	0
 2614 0199 00       		.byte	0
 2615 019a 21       		.uleb128 0x21
 2616 019b 2E       		.uleb128 0x2e
 2617 019c 01       		.byte	0x1
 2618 019d 31       		.uleb128 0x31
 2619 019e 13       		.uleb128 0x13
 2620 019f 11       		.uleb128 0x11
 2621 01a0 01       		.uleb128 0x1
 2622 01a1 12       		.uleb128 0x12
 2623 01a2 06       		.uleb128 0x6
 2624 01a3 40       		.uleb128 0x40
 2625 01a4 18       		.uleb128 0x18
 2626 01a5 9742     		.uleb128 0x2117
 2627 01a7 19       		.uleb128 0x19
 2628 01a8 01       		.uleb128 0x1
 2629 01a9 13       		.uleb128 0x13
 2630 01aa 00       		.byte	0
 2631 01ab 00       		.byte	0
 2632 01ac 22       		.uleb128 0x22
 2633 01ad 05       		.uleb128 0x5
 2634 01ae 00       		.byte	0
 2635 01af 31       		.uleb128 0x31
 2636 01b0 13       		.uleb128 0x13
 2637 01b1 02       		.uleb128 0x2
 2638 01b2 18       		.uleb128 0x18
 2639 01b3 00       		.byte	0
 2640 01b4 00       		.byte	0
 2641 01b5 23       		.uleb128 0x23
 2642 01b6 2E       		.uleb128 0x2e
 2643 01b7 01       		.byte	0x1
 2644 01b8 3F       		.uleb128 0x3f
 2645 01b9 19       		.uleb128 0x19
 2646 01ba 03       		.uleb128 0x3
 2647 01bb 0E       		.uleb128 0xe
 2648 01bc 3A       		.uleb128 0x3a
 2649 01bd 0B       		.uleb128 0xb
 2650 01be 3B       		.uleb128 0x3b
 2651 01bf 0B       		.uleb128 0xb
 2652 01c0 27       		.uleb128 0x27
 2653 01c1 19       		.uleb128 0x19
 2654 01c2 11       		.uleb128 0x11
 2655 01c3 01       		.uleb128 0x1
 2656 01c4 12       		.uleb128 0x12
 2657 01c5 06       		.uleb128 0x6
 2658 01c6 40       		.uleb128 0x40
 2659 01c7 18       		.uleb128 0x18
 2660 01c8 9742     		.uleb128 0x2117
 2661 01ca 19       		.uleb128 0x19
ARM GAS  /var/folders/c6/c789hm653lg9vtl73krp73tm0000gn/T//ccxnP4td.s 			page 78


 2662 01cb 01       		.uleb128 0x1
 2663 01cc 13       		.uleb128 0x13
 2664 01cd 00       		.byte	0
 2665 01ce 00       		.byte	0
 2666 01cf 24       		.uleb128 0x24
 2667 01d0 05       		.uleb128 0x5
 2668 01d1 00       		.byte	0
 2669 01d2 03       		.uleb128 0x3
 2670 01d3 08       		.uleb128 0x8
 2671 01d4 3A       		.uleb128 0x3a
 2672 01d5 0B       		.uleb128 0xb
 2673 01d6 3B       		.uleb128 0x3b
 2674 01d7 0B       		.uleb128 0xb
 2675 01d8 49       		.uleb128 0x49
 2676 01d9 13       		.uleb128 0x13
 2677 01da 02       		.uleb128 0x2
 2678 01db 18       		.uleb128 0x18
 2679 01dc 00       		.byte	0
 2680 01dd 00       		.byte	0
 2681 01de 25       		.uleb128 0x25
 2682 01df 1D       		.uleb128 0x1d
 2683 01e0 00       		.byte	0
 2684 01e1 31       		.uleb128 0x31
 2685 01e2 13       		.uleb128 0x13
 2686 01e3 11       		.uleb128 0x11
 2687 01e4 01       		.uleb128 0x1
 2688 01e5 12       		.uleb128 0x12
 2689 01e6 06       		.uleb128 0x6
 2690 01e7 58       		.uleb128 0x58
 2691 01e8 0B       		.uleb128 0xb
 2692 01e9 59       		.uleb128 0x59
 2693 01ea 0B       		.uleb128 0xb
 2694 01eb 00       		.byte	0
 2695 01ec 00       		.byte	0
 2696 01ed 26       		.uleb128 0x26
 2697 01ee 1D       		.uleb128 0x1d
 2698 01ef 00       		.byte	0
 2699 01f0 31       		.uleb128 0x31
 2700 01f1 13       		.uleb128 0x13
 2701 01f2 52       		.uleb128 0x52
 2702 01f3 01       		.uleb128 0x1
 2703 01f4 55       		.uleb128 0x55
 2704 01f5 17       		.uleb128 0x17
 2705 01f6 58       		.uleb128 0x58
 2706 01f7 0B       		.uleb128 0xb
 2707 01f8 59       		.uleb128 0x59
 2708 01f9 0B       		.uleb128 0xb
 2709 01fa 00       		.byte	0
 2710 01fb 00       		.byte	0
 2711 01fc 27       		.uleb128 0x27
 2712 01fd 1D       		.uleb128 0x1d
 2713 01fe 01       		.byte	0x1
 2714 01ff 31       		.uleb128 0x31
 2715 0200 13       		.uleb128 0x13
 2716 0201 52       		.uleb128 0x52
 2717 0202 01       		.uleb128 0x1
 2718 0203 55       		.uleb128 0x55
ARM GAS  /var/folders/c6/c789hm653lg9vtl73krp73tm0000gn/T//ccxnP4td.s 			page 79


 2719 0204 17       		.uleb128 0x17
 2720 0205 58       		.uleb128 0x58
 2721 0206 0B       		.uleb128 0xb
 2722 0207 59       		.uleb128 0x59
 2723 0208 0B       		.uleb128 0xb
 2724 0209 00       		.byte	0
 2725 020a 00       		.byte	0
 2726 020b 28       		.uleb128 0x28
 2727 020c 05       		.uleb128 0x5
 2728 020d 00       		.byte	0
 2729 020e 31       		.uleb128 0x31
 2730 020f 13       		.uleb128 0x13
 2731 0210 02       		.uleb128 0x2
 2732 0211 17       		.uleb128 0x17
 2733 0212 00       		.byte	0
 2734 0213 00       		.byte	0
 2735 0214 29       		.uleb128 0x29
 2736 0215 34       		.uleb128 0x34
 2737 0216 00       		.byte	0
 2738 0217 03       		.uleb128 0x3
 2739 0218 08       		.uleb128 0x8
 2740 0219 3A       		.uleb128 0x3a
 2741 021a 0B       		.uleb128 0xb
 2742 021b 3B       		.uleb128 0x3b
 2743 021c 0B       		.uleb128 0xb
 2744 021d 49       		.uleb128 0x49
 2745 021e 13       		.uleb128 0x13
 2746 021f 02       		.uleb128 0x2
 2747 0220 18       		.uleb128 0x18
 2748 0221 00       		.byte	0
 2749 0222 00       		.byte	0
 2750 0223 2A       		.uleb128 0x2a
 2751 0224 1D       		.uleb128 0x1d
 2752 0225 01       		.byte	0x1
 2753 0226 31       		.uleb128 0x31
 2754 0227 13       		.uleb128 0x13
 2755 0228 52       		.uleb128 0x52
 2756 0229 01       		.uleb128 0x1
 2757 022a 55       		.uleb128 0x55
 2758 022b 17       		.uleb128 0x17
 2759 022c 58       		.uleb128 0x58
 2760 022d 0B       		.uleb128 0xb
 2761 022e 59       		.uleb128 0x59
 2762 022f 0B       		.uleb128 0xb
 2763 0230 01       		.uleb128 0x1
 2764 0231 13       		.uleb128 0x13
 2765 0232 00       		.byte	0
 2766 0233 00       		.byte	0
 2767 0234 2B       		.uleb128 0x2b
 2768 0235 898201   		.uleb128 0x4109
 2769 0238 01       		.byte	0x1
 2770 0239 11       		.uleb128 0x11
 2771 023a 01       		.uleb128 0x1
 2772 023b 31       		.uleb128 0x31
 2773 023c 13       		.uleb128 0x13
 2774 023d 01       		.uleb128 0x1
 2775 023e 13       		.uleb128 0x13
ARM GAS  /var/folders/c6/c789hm653lg9vtl73krp73tm0000gn/T//ccxnP4td.s 			page 80


 2776 023f 00       		.byte	0
 2777 0240 00       		.byte	0
 2778 0241 2C       		.uleb128 0x2c
 2779 0242 8A8201   		.uleb128 0x410a
 2780 0245 00       		.byte	0
 2781 0246 02       		.uleb128 0x2
 2782 0247 18       		.uleb128 0x18
 2783 0248 9142     		.uleb128 0x2111
 2784 024a 18       		.uleb128 0x18
 2785 024b 00       		.byte	0
 2786 024c 00       		.byte	0
 2787 024d 2D       		.uleb128 0x2d
 2788 024e 898201   		.uleb128 0x4109
 2789 0251 01       		.byte	0x1
 2790 0252 11       		.uleb128 0x11
 2791 0253 01       		.uleb128 0x1
 2792 0254 31       		.uleb128 0x31
 2793 0255 13       		.uleb128 0x13
 2794 0256 00       		.byte	0
 2795 0257 00       		.byte	0
 2796 0258 2E       		.uleb128 0x2e
 2797 0259 05       		.uleb128 0x5
 2798 025a 00       		.byte	0
 2799 025b 03       		.uleb128 0x3
 2800 025c 0E       		.uleb128 0xe
 2801 025d 3A       		.uleb128 0x3a
 2802 025e 0B       		.uleb128 0xb
 2803 025f 3B       		.uleb128 0x3b
 2804 0260 0B       		.uleb128 0xb
 2805 0261 49       		.uleb128 0x49
 2806 0262 13       		.uleb128 0x13
 2807 0263 02       		.uleb128 0x2
 2808 0264 18       		.uleb128 0x18
 2809 0265 00       		.byte	0
 2810 0266 00       		.byte	0
 2811 0267 2F       		.uleb128 0x2f
 2812 0268 05       		.uleb128 0x5
 2813 0269 00       		.byte	0
 2814 026a 03       		.uleb128 0x3
 2815 026b 0E       		.uleb128 0xe
 2816 026c 3A       		.uleb128 0x3a
 2817 026d 0B       		.uleb128 0xb
 2818 026e 3B       		.uleb128 0x3b
 2819 026f 0B       		.uleb128 0xb
 2820 0270 49       		.uleb128 0x49
 2821 0271 13       		.uleb128 0x13
 2822 0272 02       		.uleb128 0x2
 2823 0273 17       		.uleb128 0x17
 2824 0274 00       		.byte	0
 2825 0275 00       		.byte	0
 2826 0276 30       		.uleb128 0x30
 2827 0277 05       		.uleb128 0x5
 2828 0278 00       		.byte	0
 2829 0279 31       		.uleb128 0x31
 2830 027a 13       		.uleb128 0x13
 2831 027b 1C       		.uleb128 0x1c
 2832 027c 0B       		.uleb128 0xb
ARM GAS  /var/folders/c6/c789hm653lg9vtl73krp73tm0000gn/T//ccxnP4td.s 			page 81


 2833 027d 00       		.byte	0
 2834 027e 00       		.byte	0
 2835 027f 31       		.uleb128 0x31
 2836 0280 34       		.uleb128 0x34
 2837 0281 00       		.byte	0
 2838 0282 03       		.uleb128 0x3
 2839 0283 0E       		.uleb128 0xe
 2840 0284 3A       		.uleb128 0x3a
 2841 0285 0B       		.uleb128 0xb
 2842 0286 3B       		.uleb128 0x3b
 2843 0287 05       		.uleb128 0x5
 2844 0288 49       		.uleb128 0x49
 2845 0289 13       		.uleb128 0x13
 2846 028a 3F       		.uleb128 0x3f
 2847 028b 19       		.uleb128 0x19
 2848 028c 3C       		.uleb128 0x3c
 2849 028d 19       		.uleb128 0x19
 2850 028e 00       		.byte	0
 2851 028f 00       		.byte	0
 2852 0290 32       		.uleb128 0x32
 2853 0291 34       		.uleb128 0x34
 2854 0292 00       		.byte	0
 2855 0293 03       		.uleb128 0x3
 2856 0294 08       		.uleb128 0x8
 2857 0295 3A       		.uleb128 0x3a
 2858 0296 0B       		.uleb128 0xb
 2859 0297 3B       		.uleb128 0x3b
 2860 0298 05       		.uleb128 0x5
 2861 0299 49       		.uleb128 0x49
 2862 029a 13       		.uleb128 0x13
 2863 029b 3F       		.uleb128 0x3f
 2864 029c 19       		.uleb128 0x19
 2865 029d 3C       		.uleb128 0x3c
 2866 029e 19       		.uleb128 0x19
 2867 029f 00       		.byte	0
 2868 02a0 00       		.byte	0
 2869 02a1 00       		.byte	0
 2870              		.section	.debug_loc,"",%progbits
 2871              	.Ldebug_loc0:
 2872              	.LLST0:
 2873 0000 0E000000 		.4byte	.LVL3
 2874 0004 38000000 		.4byte	.LVL5
 2875 0008 0100     		.2byte	0x1
 2876 000a 57       		.byte	0x57
 2877 000b 3A000000 		.4byte	.LVL6
 2878 000f 3E000000 		.4byte	.LVL7
 2879 0013 0100     		.2byte	0x1
 2880 0015 57       		.byte	0x57
 2881 0016 00000000 		.4byte	0
 2882 001a 00000000 		.4byte	0
 2883              	.LLST1:
 2884 001e 0E000000 		.4byte	.LVL3
 2885 0022 18000000 		.4byte	.LVL4
 2886 0026 0100     		.2byte	0x1
 2887 0028 51       		.byte	0x51
 2888 0029 00000000 		.4byte	0
 2889 002d 00000000 		.4byte	0
ARM GAS  /var/folders/c6/c789hm653lg9vtl73krp73tm0000gn/T//ccxnP4td.s 			page 82


 2890              	.LLST2:
 2891 0031 1A000000 		.4byte	.LVL8
 2892 0035 25000000 		.4byte	.LVL9-1
 2893 0039 0100     		.2byte	0x1
 2894 003b 50       		.byte	0x50
 2895 003c 25000000 		.4byte	.LVL9-1
 2896 0040 34000000 		.4byte	.LVL11
 2897 0044 0100     		.2byte	0x1
 2898 0046 5D       		.byte	0x5d
 2899 0047 34000000 		.4byte	.LVL11
 2900 004b 36000000 		.4byte	.LVL12
 2901 004f 0300     		.2byte	0x3
 2902 0051 91       		.byte	0x91
 2903 0052 58       		.sleb128 -40
 2904 0053 9F       		.byte	0x9f
 2905 0054 36000000 		.4byte	.LVL12
 2906 0058 3C000000 		.4byte	.LFE230
 2907 005c 0300     		.2byte	0x3
 2908 005e 7D       		.byte	0x7d
 2909 005f 58       		.sleb128 -40
 2910 0060 9F       		.byte	0x9f
 2911 0061 00000000 		.4byte	0
 2912 0065 00000000 		.4byte	0
 2913              	.LLST3:
 2914 0069 00000000 		.4byte	.LVL13
 2915 006d 0E000000 		.4byte	.LVL15
 2916 0071 0100     		.2byte	0x1
 2917 0073 51       		.byte	0x51
 2918 0074 0E000000 		.4byte	.LVL15
 2919 0078 40000000 		.4byte	.LFE234
 2920 007c 0400     		.2byte	0x4
 2921 007e F3       		.byte	0xf3
 2922 007f 01       		.uleb128 0x1
 2923 0080 51       		.byte	0x51
 2924 0081 9F       		.byte	0x9f
 2925 0082 00000000 		.4byte	0
 2926 0086 00000000 		.4byte	0
 2927              	.LLST4:
 2928 008a 08000000 		.4byte	.LVL14
 2929 008e 32000000 		.4byte	.LVL16
 2930 0092 0100     		.2byte	0x1
 2931 0094 54       		.byte	0x54
 2932 0095 34000000 		.4byte	.LVL17
 2933 0099 38000000 		.4byte	.LVL18
 2934 009d 0100     		.2byte	0x1
 2935 009f 54       		.byte	0x54
 2936 00a0 00000000 		.4byte	0
 2937 00a4 00000000 		.4byte	0
 2938              		.section	.debug_aranges,"",%progbits
 2939 0000 3C000000 		.4byte	0x3c
 2940 0004 0200     		.2byte	0x2
 2941 0006 00000000 		.4byte	.Ldebug_info0
 2942 000a 04       		.byte	0x4
 2943 000b 00       		.byte	0
 2944 000c 0000     		.2byte	0
 2945 000e 0000     		.2byte	0
 2946 0010 00000000 		.4byte	.LFB231
ARM GAS  /var/folders/c6/c789hm653lg9vtl73krp73tm0000gn/T//ccxnP4td.s 			page 83


 2947 0014 18000000 		.4byte	.LFE231-.LFB231
 2948 0018 00000000 		.4byte	.LFB232
 2949 001c 0C000000 		.4byte	.LFE232-.LFB232
 2950 0020 00000000 		.4byte	.LFB233
 2951 0024 48000000 		.4byte	.LFE233-.LFB233
 2952 0028 00000000 		.4byte	.LFB230
 2953 002c 3C000000 		.4byte	.LFE230-.LFB230
 2954 0030 00000000 		.4byte	.LFB234
 2955 0034 40000000 		.4byte	.LFE234-.LFB234
 2956 0038 00000000 		.4byte	0
 2957 003c 00000000 		.4byte	0
 2958              		.section	.debug_ranges,"",%progbits
 2959              	.Ldebug_ranges0:
 2960 0000 00000000 		.4byte	.LBB16
 2961 0004 02000000 		.4byte	.LBE16
 2962 0008 04000000 		.4byte	.LBB19
 2963 000c 06000000 		.4byte	.LBE19
 2964 0010 00000000 		.4byte	0
 2965 0014 00000000 		.4byte	0
 2966 0018 08000000 		.4byte	.LBB20
 2967 001c 0A000000 		.4byte	.LBE20
 2968 0020 0E000000 		.4byte	.LBB24
 2969 0024 36000000 		.4byte	.LBE24
 2970 0028 3A000000 		.4byte	.LBB25
 2971 002c 3C000000 		.4byte	.LBE25
 2972 0030 00000000 		.4byte	0
 2973 0034 00000000 		.4byte	0
 2974 0038 08000000 		.4byte	.LBB26
 2975 003c 0C000000 		.4byte	.LBE26
 2976 0040 0E000000 		.4byte	.LBB30
 2977 0044 16000000 		.4byte	.LBE30
 2978 0048 1A000000 		.4byte	.LBB31
 2979 004c 22000000 		.4byte	.LBE31
 2980 0050 00000000 		.4byte	0
 2981 0054 00000000 		.4byte	0
 2982 0058 00000000 		.4byte	.LBB32
 2983 005c 02000000 		.4byte	.LBE32
 2984 0060 04000000 		.4byte	.LBB35
 2985 0064 06000000 		.4byte	.LBE35
 2986 0068 00000000 		.4byte	0
 2987 006c 00000000 		.4byte	0
 2988 0070 08000000 		.4byte	.LBB36
 2989 0074 30000000 		.4byte	.LBE36
 2990 0078 34000000 		.4byte	.LBB39
 2991 007c 36000000 		.4byte	.LBE39
 2992 0080 00000000 		.4byte	0
 2993 0084 00000000 		.4byte	0
 2994 0088 00000000 		.4byte	.LFB231
 2995 008c 18000000 		.4byte	.LFE231
 2996 0090 00000000 		.4byte	.LFB232
 2997 0094 0C000000 		.4byte	.LFE232
 2998 0098 00000000 		.4byte	.LFB233
 2999 009c 48000000 		.4byte	.LFE233
 3000 00a0 00000000 		.4byte	.LFB230
 3001 00a4 3C000000 		.4byte	.LFE230
 3002 00a8 00000000 		.4byte	.LFB234
 3003 00ac 40000000 		.4byte	.LFE234
ARM GAS  /var/folders/c6/c789hm653lg9vtl73krp73tm0000gn/T//ccxnP4td.s 			page 84


 3004 00b0 00000000 		.4byte	0
 3005 00b4 00000000 		.4byte	0
 3006              		.section	.debug_line,"",%progbits
 3007              	.Ldebug_line0:
 3008 0000 DB020000 		.section	.debug_str,"MS",%progbits,1
 3008      0200E601 
 3008      00000201 
 3008      FB0E0D00 
 3008      01010101 
 3009              	.LASF159:
 3010 0000 474E5520 		.ascii	"GNU C 4.8.4 20140725 (release) [ARM/embedded-4_8-br"
 3010      4320342E 
 3010      382E3420 
 3010      32303134 
 3010      30373235 
 3011 0033 616E6368 		.ascii	"anch revision 213147] -mcpu=cortex-m4 -mno-thumb-in"
 3011      20726576 
 3011      6973696F 
 3011      6E203231 
 3011      33313437 
 3012 0066 74657277 		.ascii	"terwork -mthumb -ggdb -O2 -fomit-frame-pointer -fal"
 3012      6F726B20 
 3012      2D6D7468 
 3012      756D6220 
 3012      2D676764 
 3013 0099 69676E2D 		.ascii	"ign-functions=16 -ffunction-sections -fdata-section"
 3013      66756E63 
 3013      74696F6E 
 3013      733D3136 
 3013      202D6666 
 3014 00cc 73202D66 		.ascii	"s -fno-common -flto\000"
 3014      6E6F2D63 
 3014      6F6D6D6F 
 3014      6E202D66 
 3014      6C746F00 
 3015              	.LASF121:
 3016 00e0 74625F70 		.ascii	"tb_ptr\000"
 3016      747200
 3017              	.LASF54:
 3018 00e7 72656164 		.ascii	"ready_list_t\000"
 3018      795F6C69 
 3018      73745F74 
 3018      00
 3019              	.LASF115:
 3020 00f4 73655F74 		.ascii	"se_time\000"
 3020      696D6500 
 3021              	.LASF139:
 3022 00fc 77747472 		.ascii	"wttrp\000"
 3022      7000
 3023              	.LASF136:
 3024 0102 7264796D 		.ascii	"rdymsg\000"
 3024      736700
 3025              	.LASF16:
 3026 0109 75696E74 		.ascii	"uint64_t\000"
 3026      36345F74 
 3026      00
 3027              	.LASF84:
ARM GAS  /var/folders/c6/c789hm653lg9vtl73krp73tm0000gn/T//ccxnP4td.s 			page 85


 3028 0112 6B65726E 		.ascii	"kernel_stats\000"
 3028      656C5F73 
 3028      74617473 
 3028      00
 3029              	.LASF5:
 3030 011f 5F5F7569 		.ascii	"__uint8_t\000"
 3030      6E74385F 
 3030      7400
 3031              	.LASF114:
 3032 0129 706F7274 		.ascii	"port_intctx\000"
 3032      5F696E74 
 3032      63747800 
 3033              	.LASF53:
 3034 0135 63685F74 		.ascii	"ch_threads_queue\000"
 3034      68726561 
 3034      64735F71 
 3034      75657565 
 3034      00
 3035              	.LASF73:
 3036 0146 73797374 		.ascii	"system_debug_t\000"
 3036      656D5F64 
 3036      65627567 
 3036      5F7400
 3037              	.LASF127:
 3038 0155 776F7273 		.ascii	"worst\000"
 3038      7400
 3039              	.LASF130:
 3040 015b 74696D65 		.ascii	"time_measurement_t\000"
 3040      5F6D6561 
 3040      73757265 
 3040      6D656E74 
 3040      5F7400
 3041              	.LASF12:
 3042 016e 6C6F6E67 		.ascii	"long long unsigned int\000"
 3042      206C6F6E 
 3042      6720756E 
 3042      7369676E 
 3042      65642069 
 3043              	.LASF123:
 3044 0185 63685F74 		.ascii	"ch_trace_buffer_t\000"
 3044      72616365 
 3044      5F627566 
 3044      6665725F 
 3044      7400
 3045              	.LASF118:
 3046 0197 73655F73 		.ascii	"se_state\000"
 3046      74617465 
 3046      00
 3047              	.LASF137:
 3048 01a0 65786974 		.ascii	"exitcode\000"
 3048      636F6465 
 3048      00
 3049              	.LASF83:
 3050 01a9 6D61696E 		.ascii	"mainthread\000"
 3050      74687265 
 3050      616400
 3051              	.LASF163:
ARM GAS  /var/folders/c6/c789hm653lg9vtl73krp73tm0000gn/T//ccxnP4td.s 			page 86


 3052 01b4 746D5F73 		.ascii	"tm_stop\000"
 3052      746F7000 
 3053              	.LASF70:
 3054 01bc 76697274 		.ascii	"virtual_timers_list_t\000"
 3054      75616C5F 
 3054      74696D65 
 3054      72735F6C 
 3054      6973745F 
 3055              	.LASF164:
 3056 01d2 6368544D 		.ascii	"chTMObjectInit\000"
 3056      4F626A65 
 3056      6374496E 
 3056      697400
 3057              	.LASF18:
 3058 01e1 72747469 		.ascii	"rttime_t\000"
 3058      6D655F74 
 3058      00
 3059              	.LASF31:
 3060 01ea 705F7072 		.ascii	"p_prio\000"
 3060      696F00
 3061              	.LASF156:
 3062 01f1 746D7031 		.ascii	"tmp1\000"
 3062      00
 3063              	.LASF157:
 3064 01f6 746D7032 		.ascii	"tmp2\000"
 3064      00
 3065              	.LASF10:
 3066 01fb 6C6F6E67 		.ascii	"long long int\000"
 3066      206C6F6E 
 3066      6720696E 
 3066      7400
 3067              	.LASF1:
 3068 0209 7369676E 		.ascii	"signed char\000"
 3068      65642063 
 3068      68617200 
 3069              	.LASF46:
 3070 0215 705F6D70 		.ascii	"p_mpool\000"
 3070      6F6F6C00 
 3071              	.LASF89:
 3072 021d 43504943 		.ascii	"CPICNT\000"
 3072      4E5400
 3073              	.LASF147:
 3074 0224 6D5F7175 		.ascii	"m_queue\000"
 3074      65756500 
 3075              	.LASF82:
 3076 022c 76746C69 		.ascii	"vtlist\000"
 3076      737400
 3077              	.LASF152:
 3078 0233 6368544D 		.ascii	"chTMStartMeasurementX\000"
 3078      53746172 
 3078      744D6561 
 3078      73757265 
 3078      6D656E74 
 3079              	.LASF153:
 3080 0249 6368544D 		.ascii	"chTMStopMeasurementX\000"
 3080      53746F70 
 3080      4D656173 
ARM GAS  /var/folders/c6/c789hm653lg9vtl73krp73tm0000gn/T//ccxnP4td.s 			page 87


 3080      7572656D 
 3080      656E7458 
 3081              	.LASF7:
 3082 025e 6C6F6E67 		.ascii	"long int\000"
 3082      20696E74 
 3082      00
 3083              	.LASF20:
 3084 0267 74737461 		.ascii	"tstate_t\000"
 3084      74655F74 
 3084      00
 3085              	.LASF116:
 3086 0270 73655F74 		.ascii	"se_tp\000"
 3086      7000
 3087              	.LASF91:
 3088 0276 534C4545 		.ascii	"SLEEPCNT\000"
 3088      50434E54 
 3088      00
 3089              	.LASF33:
 3090 027f 705F6E65 		.ascii	"p_newer\000"
 3090      77657200 
 3091              	.LASF144:
 3092 0287 735F7175 		.ascii	"s_queue\000"
 3092      65756500 
 3093              	.LASF120:
 3094 028f 74625F73 		.ascii	"tb_size\000"
 3094      697A6500 
 3095              	.LASF59:
 3096 0297 725F6E65 		.ascii	"r_newer\000"
 3096      77657200 
 3097              	.LASF111:
 3098 029f 72656761 		.ascii	"regarm_t\000"
 3098      726D5F74 
 3098      00
 3099              	.LASF66:
 3100 02a8 76745F70 		.ascii	"vt_prev\000"
 3100      72657600 
 3101              	.LASF74:
 3102 02b0 63685F73 		.ascii	"ch_system_debug\000"
 3102      79737465 
 3102      6D5F6465 
 3102      62756700 
 3103              	.LASF151:
 3104 02c0 6D757465 		.ascii	"mutex_t\000"
 3104      785F7400 
 3105              	.LASF77:
 3106 02c8 6C6F636B 		.ascii	"lock_cnt\000"
 3106      5F636E74 
 3106      00
 3107              	.LASF85:
 3108 02d1 69646C65 		.ascii	"idle_thread_wa\000"
 3108      5F746872 
 3108      6561645F 
 3108      776100
 3109              	.LASF25:
 3110 02e0 636E745F 		.ascii	"cnt_t\000"
 3110      7400
 3111              	.LASF96:
ARM GAS  /var/folders/c6/c789hm653lg9vtl73krp73tm0000gn/T//ccxnP4td.s 			page 88


 3112 02e6 4D41534B 		.ascii	"MASK0\000"
 3112      3000
 3113              	.LASF0:
 3114 02ec 756E7369 		.ascii	"unsigned int\000"
 3114      676E6564 
 3114      20696E74 
 3114      00
 3115              	.LASF65:
 3116 02f9 76745F6E 		.ascii	"vt_next\000"
 3116      65787400 
 3117              	.LASF104:
 3118 0301 4D41534B 		.ascii	"MASK2\000"
 3118      3200
 3119              	.LASF108:
 3120 0307 4D41534B 		.ascii	"MASK3\000"
 3120      3300
 3121              	.LASF140:
 3122 030d 77747365 		.ascii	"wtsemp\000"
 3122      6D7000
 3123              	.LASF41:
 3124 0314 705F6D73 		.ascii	"p_msgqueue\000"
 3124      67717565 
 3124      756500
 3125              	.LASF160:
 3126 031f 2E2E2F2E 		.ascii	"../../../os/rt/src/chtm.c\000"
 3126      2E2F2E2E 
 3126      2F6F732F 
 3126      72742F73 
 3126      72632F63 
 3127              	.LASF55:
 3128 0339 63685F72 		.ascii	"ch_ready_list\000"
 3128      65616479 
 3128      5F6C6973 
 3128      7400
 3129              	.LASF131:
 3130 0347 6E5F6972 		.ascii	"n_irq\000"
 3130      7100
 3131              	.LASF145:
 3132 034d 735F636E 		.ascii	"s_cnt\000"
 3132      7400
 3133              	.LASF161:
 3134 0353 2F557365 		.ascii	"/Users/savonetj/Downloads/ChibiOS_3.0.2/demos/STM32"
 3134      72732F73 
 3134      61766F6E 
 3134      65746A2F 
 3134      446F776E 
 3135 0386 2F52542D 		.ascii	"/RT-STM32F407-OLIMEX_E407-LWIP-FATFS-USB\000"
 3135      53544D33 
 3135      32463430 
 3135      372D4F4C 
 3135      494D4558 
 3136              	.LASF4:
 3137 03af 73686F72 		.ascii	"short unsigned int\000"
 3137      7420756E 
 3137      7369676E 
 3137      65642069 
 3137      6E7400
ARM GAS  /var/folders/c6/c789hm653lg9vtl73krp73tm0000gn/T//ccxnP4td.s 			page 89


 3138              	.LASF135:
 3139 03c2 6B65726E 		.ascii	"kernel_stats_t\000"
 3139      656C5F73 
 3139      74617473 
 3139      5F7400
 3140              	.LASF50:
 3141 03d1 63685F74 		.ascii	"ch_thread\000"
 3141      68726561 
 3141      6400
 3142              	.LASF90:
 3143 03db 45584343 		.ascii	"EXCCNT\000"
 3143      4E5400
 3144              	.LASF23:
 3145 03e2 6D73675F 		.ascii	"msg_t\000"
 3145      7400
 3146              	.LASF128:
 3147 03e8 6C617374 		.ascii	"last\000"
 3147      00
 3148              	.LASF26:
 3149 03ed 75636E74 		.ascii	"ucnt_t\000"
 3149      5F7400
 3150              	.LASF79:
 3151 03f4 63685F73 		.ascii	"ch_system_t\000"
 3151      79737465 
 3151      6D5F7400 
 3152              	.LASF122:
 3153 0400 74625F62 		.ascii	"tb_buffer\000"
 3153      75666665 
 3153      7200
 3154              	.LASF134:
 3155 040a 6D5F6372 		.ascii	"m_crit_isr\000"
 3155      69745F69 
 3155      737200
 3156              	.LASF44:
 3157 0415 705F6D74 		.ascii	"p_mtxlist\000"
 3157      786C6973 
 3157      7400
 3158              	.LASF24:
 3159 041f 6576656E 		.ascii	"eventmask_t\000"
 3159      746D6173 
 3159      6B5F7400 
 3160              	.LASF6:
 3161 042b 5F5F696E 		.ascii	"__int32_t\000"
 3161      7433325F 
 3161      7400
 3162              	.LASF155:
 3163 0435 6368544D 		.ascii	"chTMChainMeasurementToX\000"
 3163      43686169 
 3163      6E4D6561 
 3163      73757265 
 3163      6D656E74 
 3164              	.LASF112:
 3165 044d 73746B61 		.ascii	"stkalign_t\000"
 3165      6C69676E 
 3165      5F7400
 3166              	.LASF88:
 3167 0458 43594343 		.ascii	"CYCCNT\000"
ARM GAS  /var/folders/c6/c789hm653lg9vtl73krp73tm0000gn/T//ccxnP4td.s 			page 90


 3167      4E5400
 3168              	.LASF40:
 3169 045f 705F7761 		.ascii	"p_waiting\000"
 3169      6974696E 
 3169      6700
 3170              	.LASF86:
 3171 0469 73697A65 		.ascii	"sizetype\000"
 3171      74797065 
 3171      00
 3172              	.LASF48:
 3173 0472 74687265 		.ascii	"thread_reference_t\000"
 3173      61645F72 
 3173      65666572 
 3173      656E6365 
 3173      5F7400
 3174              	.LASF125:
 3175 0485 746D5F63 		.ascii	"tm_calibration_t\000"
 3175      616C6962 
 3175      72617469 
 3175      6F6E5F74 
 3175      00
 3176              	.LASF71:
 3177 0496 63685F76 		.ascii	"ch_virtual_timers_list\000"
 3177      69727475 
 3177      616C5F74 
 3177      696D6572 
 3177      735F6C69 
 3178              	.LASF119:
 3179 04ad 63685F73 		.ascii	"ch_swc_event_t\000"
 3179      77635F65 
 3179      76656E74 
 3179      5F7400
 3180              	.LASF72:
 3181 04bc 76745F6C 		.ascii	"vt_lasttime\000"
 3181      61737474 
 3181      696D6500 
 3182              	.LASF34:
 3183 04c8 705F6F6C 		.ascii	"p_older\000"
 3183      64657200 
 3184              	.LASF58:
 3185 04d0 725F6374 		.ascii	"r_ctx\000"
 3185      7800
 3186              	.LASF32:
 3187 04d6 705F6374 		.ascii	"p_ctx\000"
 3187      7800
 3188              	.LASF99:
 3189 04dc 434F4D50 		.ascii	"COMP1\000"
 3189      3100
 3190              	.LASF103:
 3191 04e2 434F4D50 		.ascii	"COMP2\000"
 3191      3200
 3192              	.LASF107:
 3193 04e8 434F4D50 		.ascii	"COMP3\000"
 3193      3300
 3194              	.LASF36:
 3195 04ee 705F7374 		.ascii	"p_stklimit\000"
 3195      6B6C696D 
ARM GAS  /var/folders/c6/c789hm653lg9vtl73krp73tm0000gn/T//ccxnP4td.s 			page 91


 3195      697400
 3196              	.LASF61:
 3197 04f9 725F6375 		.ascii	"r_current\000"
 3197      7272656E 
 3197      7400
 3198              	.LASF60:
 3199 0503 725F6F6C 		.ascii	"r_older\000"
 3199      64657200 
 3200              	.LASF126:
 3201 050b 62657374 		.ascii	"best\000"
 3201      00
 3202              	.LASF11:
 3203 0510 5F5F7569 		.ascii	"__uint64_t\000"
 3203      6E743634 
 3203      5F7400
 3204              	.LASF129:
 3205 051b 63756D75 		.ascii	"cumulative\000"
 3205      6C617469 
 3205      766500
 3206              	.LASF21:
 3207 0526 74726566 		.ascii	"trefs_t\000"
 3207      735F7400 
 3208              	.LASF98:
 3209 052e 52455345 		.ascii	"RESERVED0\000"
 3209      52564544 
 3209      3000
 3210              	.LASF102:
 3211 0538 52455345 		.ascii	"RESERVED1\000"
 3211      52564544 
 3211      3100
 3212              	.LASF106:
 3213 0542 52455345 		.ascii	"RESERVED2\000"
 3213      52564544 
 3213      3200
 3214              	.LASF63:
 3215 054c 76697274 		.ascii	"virtual_timer_t\000"
 3215      75616C5F 
 3215      74696D65 
 3215      725F7400 
 3216              	.LASF30:
 3217 055c 705F7072 		.ascii	"p_prev\000"
 3217      657600
 3218              	.LASF22:
 3219 0563 74707269 		.ascii	"tprio_t\000"
 3219      6F5F7400 
 3220              	.LASF94:
 3221 056b 50435352 		.ascii	"PCSR\000"
 3221      00
 3222              	.LASF132:
 3223 0570 6E5F6374 		.ascii	"n_ctxswc\000"
 3223      78737763 
 3223      00
 3224              	.LASF100:
 3225 0579 4D41534B 		.ascii	"MASK1\000"
 3225      3100
 3226              	.LASF14:
 3227 057f 696E7433 		.ascii	"int32_t\000"
ARM GAS  /var/folders/c6/c789hm653lg9vtl73krp73tm0000gn/T//ccxnP4td.s 			page 92


 3227      325F7400 
 3228              	.LASF2:
 3229 0587 756E7369 		.ascii	"unsigned char\000"
 3229      676E6564 
 3229      20636861 
 3229      7200
 3230              	.LASF158:
 3231 0595 49544D5F 		.ascii	"ITM_RxBuffer\000"
 3231      52784275 
 3231      66666572 
 3231      00
 3232              	.LASF97:
 3233 05a2 46554E43 		.ascii	"FUNCTION0\000"
 3233      54494F4E 
 3233      3000
 3234              	.LASF101:
 3235 05ac 46554E43 		.ascii	"FUNCTION1\000"
 3235      54494F4E 
 3235      3100
 3236              	.LASF105:
 3237 05b6 46554E43 		.ascii	"FUNCTION2\000"
 3237      54494F4E 
 3237      3200
 3238              	.LASF109:
 3239 05c0 46554E43 		.ascii	"FUNCTION3\000"
 3239      54494F4E 
 3239      3300
 3240              	.LASF3:
 3241 05ca 73686F72 		.ascii	"short int\000"
 3241      7420696E 
 3241      7400
 3242              	.LASF37:
 3243 05d4 705F7374 		.ascii	"p_state\000"
 3243      61746500 
 3244              	.LASF57:
 3245 05dc 725F7072 		.ascii	"r_prio\000"
 3245      696F00
 3246              	.LASF142:
 3247 05e3 65776D61 		.ascii	"ewmask\000"
 3247      736B00
 3248              	.LASF29:
 3249 05ea 705F6E65 		.ascii	"p_next\000"
 3249      787400
 3250              	.LASF19:
 3251 05f1 746D6F64 		.ascii	"tmode_t\000"
 3251      655F7400 
 3252              	.LASF38:
 3253 05f9 705F666C 		.ascii	"p_flags\000"
 3253      61677300 
 3254              	.LASF47:
 3255 0601 705F7374 		.ascii	"p_stats\000"
 3255      61747300 
 3256              	.LASF80:
 3257 0609 63685F73 		.ascii	"ch_system\000"
 3257      79737465 
 3257      6D00
 3258              	.LASF64:
ARM GAS  /var/folders/c6/c789hm653lg9vtl73krp73tm0000gn/T//ccxnP4td.s 			page 93


 3259 0613 63685F76 		.ascii	"ch_virtual_timer\000"
 3259      69727475 
 3259      616C5F74 
 3259      696D6572 
 3259      00
 3260              	.LASF143:
 3261 0624 63685F73 		.ascii	"ch_semaphore\000"
 3261      656D6170 
 3261      686F7265 
 3261      00
 3262              	.LASF43:
 3263 0631 705F6570 		.ascii	"p_epending\000"
 3263      656E6469 
 3263      6E6700
 3264              	.LASF92:
 3265 063c 4C535543 		.ascii	"LSUCNT\000"
 3265      4E5400
 3266              	.LASF15:
 3267 0643 75696E74 		.ascii	"uint32_t\000"
 3267      33325F74 
 3267      00
 3268              	.LASF141:
 3269 064c 77746D74 		.ascii	"wtmtxp\000"
 3269      787000
 3270              	.LASF56:
 3271 0653 725F7175 		.ascii	"r_queue\000"
 3271      65756500 
 3272              	.LASF67:
 3273 065b 76745F64 		.ascii	"vt_delta\000"
 3273      656C7461 
 3273      00
 3274              	.LASF51:
 3275 0664 63685F74 		.ascii	"ch_threads_list\000"
 3275      68726561 
 3275      64735F6C 
 3275      69737400 
 3276              	.LASF9:
 3277 0674 6C6F6E67 		.ascii	"long unsigned int\000"
 3277      20756E73 
 3277      69676E65 
 3277      6420696E 
 3277      7400
 3278              	.LASF150:
 3279 0686 63686172 		.ascii	"char\000"
 3279      00
 3280              	.LASF28:
 3281 068b 74687265 		.ascii	"thread_t\000"
 3281      61645F74 
 3281      00
 3282              	.LASF162:
 3283 0694 706F7274 		.ascii	"port_rt_get_counter_value\000"
 3283      5F72745F 
 3283      6765745F 
 3283      636F756E 
 3283      7465725F 
 3284              	.LASF149:
 3285 06ae 6D5F6E65 		.ascii	"m_next\000"
ARM GAS  /var/folders/c6/c789hm653lg9vtl73krp73tm0000gn/T//ccxnP4td.s 			page 94


 3285      787400
 3286              	.LASF27:
 3287 06b5 73797374 		.ascii	"systime_t\000"
 3287      696D655F 
 3287      7400
 3288              	.LASF45:
 3289 06bf 705F7265 		.ascii	"p_realprio\000"
 3289      616C7072 
 3289      696F00
 3290              	.LASF62:
 3291 06ca 76746675 		.ascii	"vtfunc_t\000"
 3291      6E635F74 
 3291      00
 3292              	.LASF8:
 3293 06d3 5F5F7569 		.ascii	"__uint32_t\000"
 3293      6E743332 
 3293      5F7400
 3294              	.LASF75:
 3295 06de 70616E69 		.ascii	"panic_msg\000"
 3295      635F6D73 
 3295      6700
 3296              	.LASF124:
 3297 06e8 6F666673 		.ascii	"offset\000"
 3297      657400
 3298              	.LASF113:
 3299 06ef 636F6E74 		.ascii	"context\000"
 3299      65787400 
 3300              	.LASF110:
 3301 06f7 4457545F 		.ascii	"DWT_Type\000"
 3301      54797065 
 3301      00
 3302              	.LASF17:
 3303 0700 7274636E 		.ascii	"rtcnt_t\000"
 3303      745F7400 
 3304              	.LASF87:
 3305 0708 4354524C 		.ascii	"CTRL\000"
 3305      00
 3306              	.LASF69:
 3307 070d 76745F70 		.ascii	"vt_par\000"
 3307      617200
 3308              	.LASF95:
 3309 0714 434F4D50 		.ascii	"COMP0\000"
 3309      3000
 3310              	.LASF52:
 3311 071a 74687265 		.ascii	"threads_queue_t\000"
 3311      6164735F 
 3311      71756575 
 3311      655F7400 
 3312              	.LASF146:
 3313 072a 63685F6D 		.ascii	"ch_mutex\000"
 3313      75746578 
 3313      00
 3314              	.LASF39:
 3315 0733 705F7265 		.ascii	"p_refs\000"
 3315      667300
 3316              	.LASF76:
 3317 073a 6973725F 		.ascii	"isr_cnt\000"
ARM GAS  /var/folders/c6/c789hm653lg9vtl73krp73tm0000gn/T//ccxnP4td.s 			page 95


 3317      636E7400 
 3318              	.LASF81:
 3319 0742 726C6973 		.ascii	"rlist\000"
 3319      7400
 3320              	.LASF13:
 3321 0748 75696E74 		.ascii	"uint8_t\000"
 3321      385F7400 
 3322              	.LASF93:
 3323 0750 464F4C44 		.ascii	"FOLDCNT\000"
 3323      434E5400 
 3324              	.LASF138:
 3325 0758 77746F62 		.ascii	"wtobjp\000"
 3325      6A7000
 3326              	.LASF35:
 3327 075f 705F6E61 		.ascii	"p_name\000"
 3327      6D6500
 3328              	.LASF49:
 3329 0766 74687265 		.ascii	"threads_list_t\000"
 3329      6164735F 
 3329      6C697374 
 3329      5F7400
 3330              	.LASF78:
 3331 0775 74726163 		.ascii	"trace_buffer\000"
 3331      655F6275 
 3331      66666572 
 3331      00
 3332              	.LASF42:
 3333 0782 705F6D73 		.ascii	"p_msg\000"
 3333      6700
 3334              	.LASF133:
 3335 0788 6D5F6372 		.ascii	"m_crit_thd\000"
 3335      69745F74 
 3335      686400
 3336              	.LASF148:
 3337 0793 6D5F6F77 		.ascii	"m_owner\000"
 3337      6E657200 
 3338              	.LASF117:
 3339 079b 73655F77 		.ascii	"se_wtobjp\000"
 3339      746F626A 
 3339      7000
 3340              	.LASF68:
 3341 07a5 76745F66 		.ascii	"vt_func\000"
 3341      756E6300 
 3342              	.LASF154:
 3343 07ad 5F746D5F 		.ascii	"_tm_init\000"
 3343      696E6974 
 3343      00
 3344              		.comm	__gnu_lto_v1,1,1
 3345              		.ident	"GCC: (GNU Tools for ARM Embedded Processors) 4.8.4 20140725 (release) [ARM/embedded-4_8-br
ARM GAS  /var/folders/c6/c789hm653lg9vtl73krp73tm0000gn/T//ccxnP4td.s 			page 96


DEFINED SYMBOLS
                            *ABS*:0000000000000000 chtm.c
/var/folders/c6/c789hm653lg9vtl73krp73tm0000gn/T//ccxnP4td.s:513    .text.chTMObjectInit:0000000000000000 $t
/var/folders/c6/c789hm653lg9vtl73krp73tm0000gn/T//ccxnP4td.s:519    .text.chTMObjectInit:0000000000000000 chTMObjectInit
/var/folders/c6/c789hm653lg9vtl73krp73tm0000gn/T//ccxnP4td.s:545    .text.chTMStartMeasurementX:0000000000000000 $t
/var/folders/c6/c789hm653lg9vtl73krp73tm0000gn/T//ccxnP4td.s:551    .text.chTMStartMeasurementX:0000000000000000 chTMStartMeasurementX
/var/folders/c6/c789hm653lg9vtl73krp73tm0000gn/T//ccxnP4td.s:573    .text.chTMStartMeasurementX:0000000000000008 $d
/var/folders/c6/c789hm653lg9vtl73krp73tm0000gn/T//ccxnP4td.s:578    .text.chTMStopMeasurementX:0000000000000000 $t
/var/folders/c6/c789hm653lg9vtl73krp73tm0000gn/T//ccxnP4td.s:584    .text.chTMStopMeasurementX:0000000000000000 chTMStopMeasurementX
/var/folders/c6/c789hm653lg9vtl73krp73tm0000gn/T//ccxnP4td.s:676    .text.chTMStopMeasurementX:0000000000000040 $d
/var/folders/c6/c789hm653lg9vtl73krp73tm0000gn/T//ccxnP4td.s:682    .text._tm_init:0000000000000000 $t
/var/folders/c6/c789hm653lg9vtl73krp73tm0000gn/T//ccxnP4td.s:688    .text._tm_init:0000000000000000 _tm_init
/var/folders/c6/c789hm653lg9vtl73krp73tm0000gn/T//ccxnP4td.s:757    .text._tm_init:0000000000000038 $d
/var/folders/c6/c789hm653lg9vtl73krp73tm0000gn/T//ccxnP4td.s:762    .text.chTMChainMeasurementToX:0000000000000000 $t
/var/folders/c6/c789hm653lg9vtl73krp73tm0000gn/T//ccxnP4td.s:768    .text.chTMChainMeasurementToX:0000000000000000 chTMChainMeasurementToX
/var/folders/c6/c789hm653lg9vtl73krp73tm0000gn/T//ccxnP4td.s:852    .text.chTMChainMeasurementToX:000000000000003c $d
                            *COM*:0000000000000001 __gnu_lto_v1
                     .debug_frame:0000000000000010 $d
/var/folders/c6/c789hm653lg9vtl73krp73tm0000gn/T//ccxnP4td.s:577    .text.chTMStartMeasurementX:000000000000000c $t
/var/folders/c6/c789hm653lg9vtl73krp73tm0000gn/T//ccxnP4td.s:681    .text.chTMStopMeasurementX:0000000000000048 $t
/var/folders/c6/c789hm653lg9vtl73krp73tm0000gn/T//ccxnP4td.s:761    .text._tm_init:000000000000003c $t

UNDEFINED SYMBOLS
ch
