ARM GAS  /var/folders/c6/c789hm653lg9vtl73krp73tm0000gn/T//ccNxYKov.s 			page 1


   1              		.syntax unified
   2              		.cpu cortex-m4
   3              		.fpu softvfp
   4              		.eabi_attribute 20, 1
   5              		.eabi_attribute 21, 1
   6              		.eabi_attribute 23, 3
   7              		.eabi_attribute 24, 1
   8              		.eabi_attribute 25, 1
   9              		.eabi_attribute 26, 1
  10              		.eabi_attribute 30, 2
  11              		.eabi_attribute 34, 1
  12              		.eabi_attribute 18, 4
  13              		.thumb
  14              		.file	"chvt.c"
  15              		.text
  16              	.Ltext0:
  17              		.section	.gnu.lto_.jmpfuncs.69f6f76ab6f04acf,"",%progbits
  18 0000 789C6362 		.ascii	"x\234cb`b\300\006\302\2414\013\003#\020\002\0251\363"
  18      6062C006 
  18      C2A1340B 
  18      03231002 
  18      1531F3
  19 0013 03291062 		.ascii	"\003)\020b\252f\370\3250\243A \223\221!\227\021\242"
  19      AA66F8D5 
  19      30A34120 
  19      93912197 
  19      11A2
  20 0025 88959191 		.ascii	"\210\225\221\221\031H\225\241\3102\3462\202\245\261"
  20      194895A1 
  20      C832E632 
  20      82A5B1
  21 0034 08313000 		.ascii	"\01010\000\000\001\312\014\344"
  21      0001CA0C 
  21      E4
  22              		.text
  23              		.section	.gnu.lto_.inline.69f6f76ab6f04acf,"",%progbits
  24 0000 789C6D8F 		.ascii	"x\234m\217\261J\304@\020\206\377\231l\262\301\023I)"
  24      B14AC440 
  24      1086FF99 
  24      6CB2C113 
  24      4929
  25 0012 11EF6275 		.ascii	"\021\357bu\205\220T\0126r\325\331YY\330j\224K\012\021"
  25      8590540A 
  25      3672D5D9 
  25      5959D86A 
  25      944B0A11 
  26 0026 EE0E9B6B 		.ascii	"\356\016\233k\026lR\311=\302)\332\370\0126\276\200o"
  26      166C52C9 
  26      3DC229DA 
  26      F80A36BE 
  26      806F
  27 0038 6071E575 		.ascii	"`q\345uv\026\202\340\354\206\244\220\033\226\231of\331"
  27      761682E0 
  27      EC86A490 
  27      1B96996F 
  27      66D9
  28 004a F9FF6530 		.ascii	"\371\377e0\326EE\300\216T\005\3041)\214f\3701\225Y\336"
ARM GAS  /var/folders/c6/c789hm653lg9vtl73krp73tm0000gn/T//ccNxYKov.s 			page 2


  28      D64545C0 
  28      8E5405C4 
  28      31298C66 
  28      F8319559 
  29 005f 7F1D95C4 		.ascii	"\177\035\225\304\373x5\022\007%y7\304\227\324>\363\200"
  29      FB783512 
  29      07257937 
  29      C497D43E 
  29      F380
  30 0071 E2821E69 		.ascii	"\342\202\036if\211\320\344\201\366\253>t\325g\320JG"
  30      6689D0E4 
  30      81F6AB3E 
  30      74D567D0 
  30      4A47
  31 0083 0C6923C4 		.ascii	"\014i#\304\337\317\024\202\336t\022r]\354\012\332\260"
  31      DFCF1482 
  31      DE741272 
  31      5DEC0ADA 
  31      B0
  32 0094 A2DC815C 		.ascii	"\242\334\201\\\315O\031: p\370~\214`\321\343Z\343p\005"
  32      CD4F193A 
  32      2070F87E 
  32      8C60D1E3 
  32      5AE37005 
  33 00a8 EA60744E 		.ascii	"\352`tN\2458\223(\032b7\363-\025\015\221\233\005\226"
  33      A5389328 
  33      1A6237F3 
  33      2D150D91 
  33      9B0596
  34 00bb 8A96AE2C 		.ascii	"\212\226\256,i\261F\327\015Y\243`\0076\005\203\337\317"
  34      69B146D7 
  34      0D59A360 
  34      07360583 
  34      DFCF
  35 00cd 105B2F43 		.ascii	"\020[/C\206Z\364L\0105\3375\221\224\345\266I\304\251"
  35      865AF44C 
  35      0835DF35 
  35      9194E5B6 
  35      49C4A9
  36 00e0 1D26565C 		.ascii	"\035&V\\\234:\243m9\223M\362\011\300Gw\217\274u>\235"
  36      9C3AA36D 
  36      39934DF2 
  36      09C04777 
  36      8FBC753E 
  37 00f5 96D77DF8 		.ascii	"\226\327}\370 l>\2358\205\350\377.\333\250f\025\342"
  37      206C3E9D 
  37      3885E8FF 
  37      2EDBA866 
  37      15E2
  38 0107 34CDEA73 		.ascii	"4\315\352s;\311\306\323l2\316\263\274\270\233\2469\376"
  38      3BC9C6D3 
  38      6C32CEB3 
  38      BCB89BA6 
  38      39FE
  39 0119 00A4963B 		.ascii	"\000\244\226;\353"
  39      EB
  40              		.text
ARM GAS  /var/folders/c6/c789hm653lg9vtl73krp73tm0000gn/T//ccNxYKov.s 			page 3


  41              		.section	.gnu.lto_.pureconst.69f6f76ab6f04acf,"",%progbits
  42 0000 789C6362 		.ascii	"x\234cb`b\340d\200\000\026\006)&\011f)V)\000\002\332"
  42      6062E064 
  42      80001606 
  42      29260966 
  42      29562900 
  43 0016 0082     		.ascii	"\000\202"
  44              		.text
  45              		.section	.gnu.lto_chVTDoResetI.part.0.69f6f76ab6f04acf,"",%progbits
  46 0000 789C9555 		.ascii	"x\234\225UMhTW\024>\347\375\277\2311c\021\027)(\242"
  46      4D685457 
  46      143EE7FD 
  46      BF993163 
  46      11172928 
  47 0015 3B43F350 		.ascii	";C\363Pq\341F\021\335\010f\323N\240n\224\351\2330y0"
  47      71E14611 
  47      DD0866D3 
  47      4EA06E94 
  47      E99B3079 
  48 002a 6364328D 		.ascii	"cd2\215B\027\276d\006\361\017\014\"\024\264m\332\324"
  48      4217BE64 
  48      06F10F0C 
  48      2214B46D 
  48      DAD4
  49 003c 3F6CA1BA 		.ascii	"?l\241\272i\375\243M\212\350\304\240\022Z\224\204T\""
  49      69FDA34D 
  49      8AE8C4A0 
  49      125A9484 
  49      5422
  50 004e 822E0A21 		.ascii	"\202.\012!\326\205\0320\257\347\334\3673/\243A\275\314"
  50      D6851A30 
  50      AFE7DCF7 
  50      332FA341 
  50      BDCC
  51 0060 BBE7DC7B 		.ascii	"\273\347\334{\317\371\316w\317=\367\216\004\0224\266"
  51      CFF9CE77 
  51      CF3DF78E 
  51      041234B6 
  52 0070 227D4735 		.ascii	"\"}G5\200\237Hb\002\320\354\277K\212\211\222\220\222"
  52      809F4862 
  52      02D0ECBF 
  52      4B8A8992 
  52      9092
  53 0082 245F91C1 		.ascii	"$_\221\301M(\017n\003\270)\031\015\236\3565\024\311"
  53      4D280F6E 
  53      03B82919 
  53      0D9EEE35 
  53      14C9
  54 0094 B8BE9CE6 		.ascii	"\270\276\234\346\325\277-\232V%\355\350R\032\351\325"
  54      D5BF2D9A 
  54      5625EDE8 
  54      521AE9D5 
  55 00a4 0D34D250 		.ascii	"\0154\322P\367\215\364\320\332@d\005\020\366\233\222"
  55      F78DF4D0 
  55      DA406405 
  55      10F69B92 
  56 00b4 ACA89A6E 		.ascii	"\254\250\232n\340\376\035\310\341\225\"\302J\370\301"
ARM GAS  /var/folders/c6/c789hm653lg9vtl73krp73tm0000gn/T//ccNxYKov.s 			page 4


  56      E0FE1DC8 
  56      E19522C2 
  56      4AF8C1
  57 00c3 754F4E9D 		.ascii	"uON\235\271z\251\371\360\367}\375\356\234\347\241\303"
  57      B97AA9F9 
  57      F0F77DFD 
  57      EE9CE7A1 
  57      C3
  58 00d4 AB36C2E7 		.ascii	"\2536\302\347\244\341\012!$e>s\341v|\350\324\335\257"
  58      A4E10A21 
  58      24653E73 
  58      E1767CE8 
  58      D4DDAF
  59 00e7 9BDD989B 		.ascii	"\233\335\230\233\004\313\360\275<\335k\271\232[\035"
  59      04CBF0BD 
  59      3CDD6BB9 
  59      9A5B1D
  60 00f6 F2BC4DC2 		.ascii	"\362\274M\302k\325\273\274~\221\334)\317{\345\231K\021"
  60      6BD5BBBC 
  60      7E91DC29 
  60      CF7BE599 
  60      4B11
  61 0108 8B881238 		.ascii	"\213\210\0228(\313\324)\012w*w\032u\240\263f@\026O\343"
  61      28CBD429 
  61      0A772A77 
  61      1A75A0B3 
  61      6640164F 
  62 011d 4A30490E 		.ascii	"J0I\016\222L\360d2\030\244x@\210*T]\267\177\205o\351"
  62      924CF064 
  62      3218A478 
  62      40882A54 
  62      5DB77F85 
  63 0133 2F894D53 		.ascii	"/\211MS\313P\3179\313\240\311Rn\247x,\357@\337\304\313"
  63      CB50CF39 
  63      CBA0C952 
  63      6EA7782C 
  63      EF40DFC4 
  64 0148 7FC7E42C 		.ascii	"\177\307\344,\236E\025\362(\265\300j\342q\012N\366\272"
  64      9E4515F2 
  64      28B5C06A 
  64      E2710A4E 
  64      F6BA
  65 015a EE6207D5 		.ascii	"\356b\007\325<\"\223\227\005\345/0$O~#\027\223\276W"
  65      3C229397 
  65      05E52F30 
  65      244F7E23 
  65      1793BE57 
  66 016e 0B5C70A9 		.ascii	"\013\\p\251m \253@M:\250E\020\372W0\353\036d\315(\""
  66      6D20AB40 
  66      4D3AA845 
  66      10FA5730 
  66      EB1E64CD 
  67 0184 170CE319 		.ascii	"\027\014\343\031\001\036\006\322/\244<K\202\236\255"
  67      011E06D2 
  67      2FA43C4B 
  67      829EAD
  68 0193 3CFE76E3 		.ascii	"<\376v\343<\360\035\015\244\2448)_\372a\334\007\264"
ARM GAS  /var/folders/c6/c789hm653lg9vtl73krp73tm0000gn/T//ccNxYKov.s 			page 5


  68      3CF01D0D 
  68      A4A43829 
  68      5FFA61DC 
  68      07B4
  69 01a5 60065EFF 		.ascii	"`\006^\377\220\256Q\3200NH\375\362\345\351ai\036\376"
  69      90AE51D0 
  69      304E48FD 
  69      F2E5E961 
  69      691EFE
  70 01b8 2207130B 		.ascii	"\"\007\023\013n\332?8\236I\260R\203\033O\207_6E)\013"
  70      6EDA3F38 
  70      9E49B052 
  70      831B4F87 
  70      5F364529 
  71 01cd 02A7EB71 		.ascii	"\002\247\353q\327\277%l\330\332\011\366\212,\337\203"
  71      D7BF256C 
  71      D8DA09F6 
  71      8A2CDF83 
  72 01dd CACCE4FD 		.ascii	"\312\314\344\375\003\351\340\314\302\303\033\032}\370"
  72      03E9E0CC 
  72      C2C31B1A 
  72      7DF8
  73 01eb A30EE063 		.ascii	"\243\016\340c\333\241\177\224\301\244\215\304\373WZ"
  73      DBA17F94 
  73      C1A48DC4 
  73      FB575A
  74 01fa A3E6602A 		.ascii	"\243\346`*\204T\200.\224\177\230\377\275\212\01638\016"
  74      8454802E 
  74      947F98FF 
  74      BD8A0E33 
  74      380E
  75 020c F2830573 		.ascii	"\362\203\005s\247\326\2632qqI\350\251\2102\200\0053"
  75      A7D6B332 
  75      717149E8 
  75      A9883280 
  75      0533
  76 021e 52F7AA1C 		.ascii	"R\367\252\034\254\314a\350Ffr\236\323Eh\333\342\371"
  76      ACCC61E8 
  76      4666729E 
  76      D34568DB 
  76      E2F9
  77 0230 7D0F0A79 		.ascii	"}\017\012y\226w\340\317\211o\246k\347\265\306\264<\233"
  77      9677E0CF 
  77      896FA66B 
  77      E7B5C6B4 
  77      3C9B
  78 0242 5816E98F 		.ascii	"X\026\351\217N\214\353\321\340\310t\305\254\347K\246"
  78      4E8CEBD1 
  78      E0C874C5 
  78      ACE74BA6 
  79 0252 4FA14FF5 		.ascii	"O\241O\365\0215\216^\355\235zv\363\306 R\304E\314\241"
  79      11358E5E 
  79      ED9D7A76 
  79      F3C62052 
  79      C445CCA1 
  80 0266 9F393431 		.ascii	"\237941\2014\237\225\"\0166\035p\321\030\353\017\337"
  80      81349F95 
ARM GAS  /var/folders/c6/c789hm653lg9vtl73krp73tm0000gn/T//ccNxYKov.s 			page 6


  80      220E361D 
  80      70D118EB 
  80      0FDF
  81 0278 9F533239 		.ascii	"\237S29\363\335\316pw\272\237\224\340\214\007\360\203"
  81      F3DDCE70 
  81      77BA9F94 
  81      E08C07F0 
  81      83
  82 0289 8B5CAF67 		.ascii	"\213\\\257g\355P\245\024\302\032\3043\317k#\020\324"
  82      ED50A514 
  82      C21AC433 
  82      CF6B2310 
  82      D4
  83 029a A47F81F3 		.ascii	"\244\177\201\363\354_\203\352\223\341\261cr,\303F\274"
  83      EC5F83EA 
  83      93E1B163 
  83      722CC346 
  83      BC
  84 02ab 9654B8F5 		.ascii	"\226T\270\365\211,\360~\033h\016\215\314\320.\2068("
  84      892CF07E 
  84      1B680E8D 
  84      CCD02E86 
  84      3828
  85 02bd 10CD00F1 		.ascii	"\020\315\000\361y\035\321d\246\020/\324v\312\302\331"
  85      791DD164 
  85      A6102FD4 
  85      76CAC2D9 
  86 02cd 943C027D 		.ascii	"\224<\002}S\263O\2658\000\233*Rd\246sp23 \012\220\014"
  86      53B34FB5 
  86      38009B2A 
  86      5264A673 
  86      70323320 
  87 02e4 6AE2C540 		.ascii	"j\342\305@\224\266\004mN\260\021\013\277G\305\222\022"
  87      94B6046D 
  87      4EB0110B 
  87      BF47C592 
  87      12
  88 02f5 4BC918CB 		.ascii	"K\311\030\313\340\005\376\353\310(\322s\332;\343yi\361"
  88      E005FEEB 
  88      C828D273 
  88      DA3BE379 
  88      69F1
  89 0307 949EC377 		.ascii	"\224\236\303w\275\245y\276\012\367\240:39w\263\351\215"
  89      BDA579BE 
  89      0AF7A03A 
  89      333977B3 
  89      E98D
  90 0319 2B35F75C 		.ascii	"+5\367\\\315bM\274\206a\241h\015\027k\261\215z\026G"
  90      CD624DBC 
  90      8661A168 
  90      0D176BB1 
  90      8D7A1647 
  91 032d C3C24939 		.ascii	"\303\302I9\370\021k\343\220\244\014\251\223\257s\301"
  91      F8116BE3 
  91      90A40CA9 
  91      93AF73C1 
  92 033d D6B59FBD 		.ascii	"\326\265\237\275\002o\335\020\257\347\030\375\031\325"
ARM GAS  /var/folders/c6/c789hm653lg9vtl73krp73tm0000gn/T//ccNxYKov.s 			page 7


  92      026FDD10 
  92      AFE718FD 
  92      19D5
  93 034b 49648826 		.ascii	"Id\210&\315r~>nm\265\374_W\267U*[\335%\333\262;{\312"
  93      CD727E3E 
  93      6E6DB5FC 
  93      5F57B755 
  93      2A5BDD25 
  94 0364 AD36A8B9 		.ascii	"\2556\250\271\216B9k\354\356\332+\224\226\006\313=]"
  94      8E42396B 
  94      ECEEDA2B 
  94      949606CB 
  94      3D5D
  95 0376 A572B7B5 		.ascii	"\245r\267\265\371\323\266-m\373\310\305\356*u\354*;"
  95      F9D3B62D 
  95      6DFBC8C5 
  95      EE2A75EC 
  95      2A3B
  96 0388 C58E526B 		.ascii	"\305\216Rk'Xq\333\316l!0\376,\323\266n\255\265}\373"
  96      275871DB 
  96      CE6C2130 
  96      FE2CD3B6 
  96      6EADB57D 
  97 039d 562BB3AD 		.ascii	"V+\263\255\255g\215\325]\336U(\344\310~y\003\266\263"
  97      AD678DD5 
  97      5DDE5528 
  97      E4C87E79 
  97      03B6B3
  98 03b0 DB2E7C99 		.ascii	"\333.|\231\353\360\231t\202\302\270\377\003q\251\301"
  98      EBF09974 
  98      82C2B8FF 
  98      0371A9C1 
  99 03c0 92       		.ascii	"\222"
 100              		.text
 101              		.section	.gnu.lto__vt_init.69f6f76ab6f04acf,"",%progbits
 102 0000 789C6362 		.ascii	"x\234cb`b@\007\222@,\015\024\226\001\322\214\314\014"
 102      60624007 
 102      92402C0D 
 102      149601D2 
 102      8CCC0C
 103 0013 8C4C13CE 		.ascii	"\214L\023\316104r012\202\030\014\214\014\365L\214\365"
 103      31303472 
 103      30313282 
 103      180C8C0C 
 103      F54C8CF5 
 104 0027 918C60B5 		.ascii	"\221\214`\265\353\231\016<\370\377\177\335\257\255\017"
 104      EB990E3C 
 104      F8FF7FDD 
 104      AFAD0F
 105 0036 FB1905D9 		.ascii	"\373\031\005\331\200\002\254\014-\015\015\023\024\030"
 105      8002AC0C 
 105      2D0D0D13 
 105      1418
 106 0044 1892C10A 		.ascii	"\030\222\301\012B\200$HW(#\023\210f>\313\320\364\253"
 106      42802448 
 106      57282313 
 106      88663ECB 
ARM GAS  /var/folders/c6/c789hm653lg9vtl73krp73tm0000gn/T//ccNxYKov.s 			page 8


 106      D0F4AB
 107 0057 F9FF6BA6 		.ascii	"\371\377k\246D\306\205\214\254\014\332\014\253\032\200"
 107      44C6858C 
 107      AC0CDA0C 
 107      AB1A80
 108 0066 C0329311 		.ascii	"\3002\223\021\306\344\316dd\234\3150\253\261\241A \223"
 108      C6E4CE64 
 108      649CCD30 
 108      ABB1A141 
 108      2093
 109 0078 91A99AE1 		.ascii	"\221\251\232\341WC\007\210\305\234\0136-\202\021\310"
 109      57430788 
 109      C59C0B36 
 109      2D8211C8 
 110 0088 04DB9B04 		.ascii	"\004\333\233\004\261\036HC\030\020\225\015[\201\012"
 110      B11E4843 
 110      1810950D 
 110      5B810A
 111 0097 58A046ED 		.ascii	"X\240F\355\006\262\031\201\372`J\301\000l\377\342\036"
 111      06B21981 
 111      FA604AC1 
 111      006CFFE2 
 111      1E
 112 00a8 5DEAD9CF 		.ascii	"]\352\331\317D\252\375;v<\372\200\341\177V\262\355\207"
 112      44AAFD3B 
 112      763CFA80 
 112      E17F56B2 
 112      ED87
 113 00ba F041326C 		.ascii	"\360A2l\377\201\200\037f\311\343\023\314\324\263\204"
 113      FF81801F 
 113      66C9E313 
 113      CCD4B384 
 114 00ca 05610988 		.ascii	"\005a\011\210q\221\241\361A\2772\304x\030\010\001\306"
 114      7191A1F1 
 114      41BF32C4 
 114      78180801 
 114      C6
 115 00db 04308641 		.ascii	"\0040\206A\301!\245\247\247\017A\371\305\372E%\372\305"
 115      C121A5A7 
 115      A70F41F9 
 115      C5FA4525 
 115      FAC5
 116 00ed 45C9FAC9 		.ascii	"E\311\372\311\031e%z\311\014\000W\330\214\266"
 116      1965257A 
 116      C90C0057 
 116      D88CB6
 117              		.text
 118              		.section	.gnu.lto_chVTDoSetI.69f6f76ab6f04acf,"",%progbits
 119 0000 789CAD56 		.ascii	"x\234\255Vkh\\E\024>\347>\366\3563\273\351Cj^\246)A"
 119      6B685C45 
 119      143EE73E 
 119      F6EE33BB 
 119      E9436A5E 
 120 0017 9AC82E6D 		.ascii	"\232\310.m\020\011\"\"\372\247\320\374P\023\324_e\335"
 120      10092222 
 120      FAA7D0FC 
 120      5013D45F 
ARM GAS  /var/folders/c6/c789hm653lg9vtl73krp73tm0000gn/T//ccNxYKov.s 			page 9


 120      65DD
 121 0029 86CD42D2 		.ascii	"\206\315B\322\224d\255B\205\336MV\2554j\220\024\252"
 121      9464AD42 
 121      85DE4D56 
 121      AD346A90 
 121      14AA
 122 003b ED8F9418 		.ascii	"\355\217\224\030\025K\023\232*\244X!)\205fMmmkiR\025"
 122      154B139A 
 122      2AA45821 
 122      2985664D 
 122      6D6D6B69 
 123 0051 174B6B45 		.ascii	"\027KkE)\211\025\215U\262\236\2713s\263\217\350\266"
 123      2989158D 
 123      55B29EB9 
 123      3373B38F 
 123      E8B6
 124 0063 A5C3EEDC 		.ascii	"\245\303\356\334;s\317\371\346\314\371\31693\012(\220"
 124      3B73CFF9 
 124      E6CCF9CE 
 124      39330A28 
 124      90
 125 0074 DF4ED3FF 		.ascii	"\337N\323\377\226\027\340czb)\240\322\177\006 \341T"
 125      9617E063 
 125      7A6229A0 
 125      D27F0620 
 125      E154
 126 0086 147D5007 		.ascii	"\024}P\007\323\255\316M\001\230^U\321\277\363\320P\373"
 126      D3ADCE4D 
 126      01985E55 
 126      D1BFF3D0 
 126      50FB
 127 0098 F4041B6A 		.ascii	"\364\004\033j\212\276\373A\032:X\357\325\321\301\225"
 127      8ABEFB41 
 127      1A3A58EF 
 127      D5D1C195 
 128 00a8 1C8AD1B7 		.ascii	"\034\212\321\267\232\246\235\311F\2326\320\311\247\235"
 128      9AA69DC9 
 128      469A36D0 
 128      C9A79D
 129 00b7 8AEB984A 		.ascii	"\212\353\230J\323\356K_2e\027\006\370\274[\361|s\037"
 129      D3EE4B5F 
 129      32651706 
 129      F8BC5BF1 
 129      7C731F
 130 00ca CD7B8F3F 		.ascii	"\315{\217?B\323\036\364\362i/\226\360\027\037\177\231"
 130      42D31EF4 
 130      F2692F96 
 130      F0171F7F 
 130      99
 131 00db 749628BE 		.ascii	"t\226(\276\276S\244\352\366'\015\222\364K\200\000\""
 131      BE53A4EA 
 131      F6270D92 
 131      F44B8000 
 131      22
 132 00ec 7B01845D 		.ascii	"{\001\204]\212\252\351\016\303\351r{\274\276\022\177"
 132      8AAAE90E 
 132      C3E9727B 
ARM GAS  /var/folders/c6/c789hm653lg9vtl73krp73tm0000gn/T//ccNxYKov.s 			page 10


 132      BCBE127F 
 133 00fc 0077BD80 		.ascii	"\000w\275\200lwj\015\0344\315w\323\303\277\245\225\367"
 133      6C776A0D 
 133      1C34CD77 
 133      D3C3BFA5 
 133      95F7
 134 010e CC89E4A0 		.ascii	"\314\211\344\240\371O&\203\030C\362D%B\004\341y\032"
 134      F94F2683 
 134      1843F244 
 134      254204E1 
 134      791A
 135 0120 60B5F550 		.ascii	"`\265\365P\264\\\327p\335\211\275\247\336\276\337\034"
 135      B45CD770 
 135      DD89BDA7 
 135      DEBEDF1C 
 136 0130 ECE93717 		.ascii	"\354\3517\027I5\206\252\002\017\024\323\354@\030U&\322"
 136      493586AA 
 136      020F14D3 
 136      EC401855 
 136      26D2
 137 0142 994CDFB1 		.ascii	"\231L\337\261\337\177<\213+6 M\241\002a<\2105\240\322"
 137      DF7F3C8B 
 137      2B36204D 
 137      A102613C 
 137      8835A0D2 
 138 0156 73889E2E 		.ascii	"s\210\236.\354@\305M\235\352\241\016}\324i\245@\266"
 138      EC40C54D 
 138      9DEAA10E 
 138      7DD469A5 
 138      40B6
 139 0168 ADA14E2B 		.ascii	"\255\241N+c]9\353*\204|%\033T\261\256Z \255e\203\032"
 139      635D39EB 
 139      2A847C25 
 139      1B54B1AE 
 139      5A20AD65 
 140 017e F1799D98 		.ascii	"\361y\235\230\254e\020u\354K=\353\202\324\251d\223\016"
 140      AC651075 
 140      EC4B3DEB 
 140      82D4A964 
 140      930E
 141 0190 49D3ECAF 		.ascii	"I\323\354\257\3462\\\243\203\371(b9\252\231\372\021"
 141      E6325CA3 
 141      83F92862 
 141      39AA99FA 
 141      11
 142 01a1 035AC8C8 		.ascii	"\003Z\310\310\021C=\013\275\351\323W\334a\034F\235>"
 142      11433D0B 
 142      BDE9D357 
 142      DC611C46 
 142      9D3E
 143 01b3 EE845BE6 		.ascii	"\356\204[\346n3\020C=\202\2264A:\000\246\340\344O\223"
 143      6E331043 
 143      3D829634 
 143      413A00A6 
 143      E0E44F93 
 144 01c7 FB4F2117 		.ascii	"\373O!\027\213\242\213\271\"\307\017-\264\362\015\207"
 144      8BA28BB9 
ARM GAS  /var/folders/c6/c789hm653lg9vtl73krp73tm0000gn/T//ccNxYKov.s 			page 11


 144      22C70F2D 
 144      B4F20D87 
 145 01d7 CA046D29 		.ascii	"\312\004m)7\2232r\2454\370E\317\225\3620)-WJ\207q\215"
 145      37933272 
 145      A534F845 
 145      CF95F230 
 145      292D574A 
 146 01ee 4CD30ACC 		.ascii	"L\323\012\314rF\220\0076\233Y\023C\027mL\010\305\320"
 146      72469007 
 146      369B5913 
 146      43176D4C 
 146      08C5D0
 147 0201 2DD51D6C 		.ascii	"-\325\035lg_A\317\364\302\315\005\261N=|bR\363\305\320"
 147      675F41CF 
 147      F4C2CD05 
 147      B14E3D7C 
 147      6252F3C5 
 148 0216 B31FDEA7 		.ascii	"\263\037\336\247\025\2759\273xQ<\243\350\003`\232\373"
 148      15BD39BB 
 148      78513CA3 
 148      E803609A 
 148      FB
 149 0227 FE9850F2 		.ascii	"\376\230P\3625\215\3455Qh\272\231\346\211\313\307/\234"
 149      358DE535 
 149      5168BA99 
 149      E689CBC7 
 149      2F9C
 150 0239 DC281890 		.ascii	"\334(\030\220TL|\366\326\267\252=\030\036\2305\354\301"
 150      544C7CF6 
 150      D6B7AA3D 
 150      181E9835 
 150      ECC1
 151 024b 9E1BF3F6 		.ascii	"\236\033\363\366\227j\036\206\346\230i\272\254\360U"
 151      976A1E86 
 151      E69869BA 
 151      ACF055
 152 025a AD181CC4 		.ascii	"\255\030\034\304bA\010\322\007\214c\225\376\032\375"
 152      624108D2 
 152      078C6395 
 152      FE1AFD
 153 0269 756E5590 		.ascii	"unU\220\331\237L\244\367\017\017\224\305\320G[H\364"
 153      D99F4CA4 
 153      F70F0F94 
 153      C5D0475B 
 153      48F4
 154 027b 334F9630 		.ascii	"3O\2260 ?\333\231fa\372\305n\024\0066\302\265S\3203"
 154      203FDB99 
 154      6661FAC5 
 154      6E140636 
 154      C2B553D0 
 155 0290 77E2F357 		.ascii	"w\342\363W\303x\204\306a\034\243@bm\012\222\327&\317"
 155      C37884C6 
 155      611CA340 
 155      626D0A92 
 155      D726CF
 156 02a3 BDE1E5F3 		.ascii	"\275\341\345\363\202A5;\036Z\210\366ETI?\375\363\220"
 156      8241353B 
ARM GAS  /var/folders/c6/c789hm653lg9vtl73krp73tm0000gn/T//ccNxYKov.s 			page 12


 156      1E5A88F6 
 156      4554493F 
 156      FDF390
 157 02b6 C1E528EE 		.ascii	"\301\345(\356-\246\025[\306\311h\"\031'K#\2142G\222"
 157      2DA6155B 
 157      C6C96822 
 157      19274B23 
 157      8C324792 
 158 02ca EB2F8FFF 		.ascii	"\353/\217\377=eH\350\322z\250#O\013\016.\222~\200\355"
 158      3D6548E8 
 158      D27AA823 
 158      4F0B0E2E 
 158      927E80ED 
 159 02de C0643B28 		.ascii	"\300d;(\265\243bE\207e/\203_!\266\241\212\247\364\024"
 159      B5A36245 
 159      87652F83 
 159      5F21B6A1 
 159      8AA7F414 
 160 02f2 0BB9C406 		.ascii	"\013\271\304\006\033\226\253\232\0151\\)\260\033\011"
 160      1B96AB9A 
 160      0D315C29 
 160      B01B09
 161 0301 9A60A466 		.ascii	"\232`\244fV\233\005\262\315\343\220\326\033\007\276"
 161      569B05B2 
 161      CDE390D6 
 161      1B07BE
 162 0310 8833EB5D 		.ascii	"\2103\353]P\307b,5\276x]\345\270\002\351ir\206xm\270"
 162      50C7622C 
 162      35BE785D 
 162      E5B802E9 
 162      69728678 
 163 0326 637B7511 		.ascii	"c{u\021LA\036\2063\213S\005\340p\327\340\232\000wq\360"
 163      4C411E86 
 163      338B5305 
 163      E070D7E0 
 163      9A007771 
 164 033b 857B0AEE 		.ascii	"\205{\012\356\310\001\277\325{\363\235\207r\300\037"
 164      C801BFD5 
 164      7BF39D87 
 164      72C01F
 165 034a 26F0E513 		.ascii	"&\360\345\023\310\2603\232(9\212K\234\034\303eH\261"
 165      C8B0339A 
 165      28398A4B 
 165      9C1CC365 
 165      48B1
 166 035c C0FFBC6D 		.ascii	"\300\377\274mp\347\235\202O\317d\256+\371\340\352\362"
 166      70E79D82 
 166      4FCF64AE 
 166      2BF9E0EA 
 166      F2
 167 036d E02EB167 		.ascii	"\340.\261g+r{w\367~4\360\230\014\2615Q\026\322A\226"
 167      2B727B77 
 167      F77E34F0 
 167      980CB135 
 167      5116D241 
 168 0382 44024D1C 		.ascii	"D\002M\0342\231\327\247\221\222<1\227\311\370\255\374"
 168      3299D7A7 
ARM GAS  /var/folders/c6/c789hm653lg9vtl73krp73tm0000gn/T//ccNxYKov.s 			page 13


 168      91923C31 
 168      97C9F8AD 
 168      FC
 169 0393 FEA0687E 		.ascii	"\376\240h~\023\032\300YH\316\035\036\272\266\200\371"
 169      131AC059 
 169      48CE1D1E 
 169      BAB680F9 
 170 03a3 C565FAE4 		.ascii	"\305e\372\344y\312\227\363Vr\362\225\"\202\214\245\272"
 170      79CA97F3 
 170      5672F295 
 170      22828CA5 
 170      BA
 171 03b4 B92A8224 		.ascii	"\271*\202$sQ\026\005\252\234\253e\026\272!\311\212%"
 171      73511605 
 171      AA9CAB65 
 171      16BA21C9 
 171      8A25
 172 03c6 597F6560 		.ascii	"Y\177e`\275\264\276LZ\317\022\262\177\245\234.\267\322"
 172      BDB4BE4C 
 172      5ACF12B2 
 172      7FA59C2E 
 172      B7D2
 173 03d8 5146F7CE 		.ascii	"QF\367\316\273\214n\313Yo\366n\223\250\025\326z\345"
 173      BB8C6ECB 
 173      596FF66E 
 173      93A815D6 
 173      7AE5
 174 03ea 59AEE287 		.ascii	"Y\256\342\207\026}\021\025\341\303s\232\024\256\344"
 174      167D1115 
 174      E1C3739A 
 174      14AEE4
 175 03f9 26D87C94 		.ascii	"&\330|\224\026\362ae\373\265\245l\257\264\200dkA\017"
 175      16F26165 
 175      FBB5A56C 
 175      AFB48064 
 175      6B410F
 176 040c BCA6F01D 		.ascii	"\274\246\360\035\337\034xT\012U\221\005\226\\\021\276"
 176      DF1C7854 
 176      0A559105 
 176      965C11BE 
 177 041c C278816A 		.ascii	"\302x\201jd1\276\252,\276\276><d\344\263\265\347\314"
 177      6431BEAA 
 177      2CBEBE3E 
 177      3C64E4B3 
 177      B5E7CC
 178 042f 1831F17D 		.ascii	"\0301\361}\016[\316B\266\\a\374A\262U\225\305\226\227"
 178      0E5BCE42 
 178      B65C61FC 
 178      41B25595 
 178      C59697
 179 0442 B3D57379 		.ascii	"\263\325sy\346\320zy\202V\337\273\332`\325\374\011\235"
 179      E6D07A79 
 179      8256DFBB 
 179      DA60D5FC 
 179      099D
 180 0454 23F30B04 		.ascii	"#\363\013\004\341\313\305}@\2273\325\"\357\312\336r"
 180      E1CBC57D 
ARM GAS  /var/folders/c6/c789hm653lg9vtl73krp73tm0000gn/T//ccNxYKov.s 			page 14


 180      409733D5 
 180      22EFCADE 
 180      72
 181 0465 B97C4D14 		.ascii	"\271|M\024\325(\256\025\236\033\316\242\257F\3207\322"
 181      D528AE15 
 181      9E1BCEA2 
 181      AF46D037 
 181      D2
 182 0476 2865D72D 		.ascii	"(e\327-\227\257Ja1\340v\030\271v\254\223v\224\000]\006"
 182      97AF4A61 
 182      31E07618 
 182      B976AC93 
 182      7694005D 
 183 048b C5C921D7 		.ascii	"\305\311!\327R-\025k\202K+|\361\205C\263\366Ucm^\354"
 183      522D156B 
 183      824B2B7C 
 183      F18543B3 
 183      F655636D 
 184 04a1 28FF113B 		.ascii	"(\377\021;W\023\015\266Jt\251<\314\202B\316\360\376"
 184      57130DB6 
 184      4A74A93C 
 184      CC8242CE 
 184      F0FE
 185 04b3 7A7115D9 		.ascii	"zq\025\331\342;p\251b\026h\343\025\336\276\013\355\264"
 185      E23B70A9 
 185      621668E3 
 185      15DEBE0B 
 185      EDB4
 186 04c5 575FF239 		.ascii	"W_\3629f\233_\020\224\032\037\235,\270A\374o\001\264"
 186      669B5F10 
 186      941A1F9D 
 186      2CB841FC 
 186      6F01B4
 187 04d8 4D9E199D 		.ascii	"M\236\031\235W\345\372\265\374\000\\\336d\247\235N="
 187      57E5FAB5 
 187      FC005CDE 
 187      64A79D4E 
 187      3D
 188 04e9 A97EF76D 		.ascii	"\251~\367m.\346\024\213\325\212C`4\245\346h>\236\255"
 188      2EE6148B 
 188      D58A4360 
 188      34A5E668 
 188      3E9EAD
 189 04fc 59BB9C99 		.ascii	"Y\273\234\231\342\370\33076\237{\271r\0251Tj\246\306"
 189      E2F8D837 
 189      369F7BB9 
 189      72153154 
 189      6AA6C6
 190 050f C75205AE 		.ascii	"\307R\005\256)RaU\021JG\377\262\331\254\343\312\201"
 190      29526155 
 190      114A47FF 
 190      B2D9ACE3 
 190      CA81
 191 0521 A28CB280 		.ascii	"\242\214\262\200\265\035ZO\212\022nS\266\021\305pH\325"
 191      B51D5A4F 
 191      8A126E53 
 191      B611C570 
ARM GAS  /var/folders/c6/c789hm653lg9vtl73krp73tm0000gn/T//ccNxYKov.s 			page 15


 191      48D5
 192 0533 521A9F39 		.ascii	"R\032\2379:\237k}\343RI\364\334q\336\361K\253u\267\310"
 192      3A9F6B7D 
 192      E35249F4 
 192      DC71DEF1 
 192      4BAB75B7 
 193 0548 50F3830C 		.ascii	"P\363\203\014\362\000\273\035\235\203Dz\317U\344\205"
 193      F200BB1D 
 193      9D83447A 
 193      CF55E485 
 194 0558 42B6663A 		.ascii	"B\266f:0F\014v\217*\013\006C\374\327\331\035\352\212"
 194      30460C76 
 194      8F2A0B06 
 194      43FCD7D9 
 194      1DEA8A
 195 056b 87BABB22 		.ascii	"\207\272\273\"\241H\333\216x0\002\270]\337\332\332\036"
 195      A148DB8E 
 195      783002B8 
 195      5DDFDADA 
 195      1E
 196 057c 0F87B245 		.ascii	"\017\207\262E\332\302\355\241\355\235]\361\356\320\263"
 196      DAC2EDA1 
 196      ED9D5DF1 
 196      EED0B3
 197 058b CD4D0D1B 		.ascii	"\315M\015\033C\2337?\025j\336\324\264cC\250;\276\245"
 197      439B373F 
 197      156ADED4 
 197      B46343A8 
 197      3BBEA5
 198 059e BD7D6BB0 		.ascii	"\275}k\260\015\352\363 \271\370\023\3174=\331\364\012"
 198      0DEAF320 
 198      B9F813CF 
 198      343DD9F4 
 198      0A
 199 05af 61473ABB 		.ascii	"aG:\273Z\267\304c\035\255]$[\225'\033\333\026i\177i"
 199      5AB7C463 
 199      1DAD5D24 
 199      5B95271B 
 199      DB16697F 
 200 05c4 6B2B37A1 		.ascii	"k+7\241\015\324m\235/kL\366_\211o1\341"
 200      0DD46D9D 
 200      2F6B4CF6 
 200      5F896F31 
 200      E1
 201              		.text
 202              		.section	.gnu.lto_chVTDoResetI.69f6f76ab6f04acf,"",%progbits
 203 0000 789CAD54 		.ascii	"x\234\255T=hSQ\024>\347\276w\363\376\2324\211\213\025"
 203      3D685351 
 203      143EE7BE 
 203      77F3FE9A 
 203      34898B15 
 204 0014 94E2E060 		.ascii	"\224\342\340` A\\trv\266\005\035\333W\211\017\254\205"
 204      20415C74 
 204      7276B605 
 204      1DDB5789 
 204      0FAC85
 205 0027 36E8E0D0 		.ascii	"6\350\340\320\233&C'\011Nb\227t\023\021]\034\"\016&"
ARM GAS  /var/folders/c6/c789hm653lg9vtl73krp73tm0000gn/T//ccNxYKov.s 			page 16


 205      9B264327 
 205      094E6297 
 205      7413115D 
 205      1C220E26 
 206 003b E2102956 		.ascii	"\342\020)V\353\246\024\354b\003\352P7)b<\367\336\367"
 206      EBA614EC 
 206      6203EA50 
 206      3729623C 
 206      F7DEF7
 207 004e 5E1213CC 		.ascii	"^\022\023\314\240\227\344\334\274\363\356w\276\357\374"
 207      A097E4DC 
 207      BCF3EE77 
 207      BEEFFC
 208 005d DC3060F0 		.ascii	"\3340`\360\347\022\364=\301\001r\264\243\007\310j\333"
 208      E712F43D 
 208      C10172B4 
 208      A307C86A 
 208      DB
 209 006e 00659B31 		.ascii	"\000e\2331\243\316A\270\346A\233\316L\030hj\277\311"
 209      A3CE41B8 
 209      E6419BCE 
 209      4C18686A 
 209      BFC9
 210 0080 B8F227B4 		.ascii	"\270\362'\264\237cB\373\023\314z\372\222<\256\263\353"
 210      9F6342FB 
 210      13CC7AFA 
 210      923CAEB3 
 210      EB
 211 0091 91DF62B6 		.ascii	"\221\337b\266~t\325\243\215\256>\346\350\037\350\"\312"
 211      7E74D5A3 
 211      8DAE3EE6 
 211      E81FE822 
 211      CA
 212 00a2 1D105699 		.ascii	"\035\020V\231a\362\204e;.\256^A\251\010\027\021\236"
 212      61F28465 
 212      3B2EAE5E 
 212      41A90817 
 212      119E
 213 00b4 B0E65EB7 		.ascii	"\260\346^\267\373\370\375\326\243\237\370\202Mq\362"
 213      FBF8FDD6 
 213      A39FF882 
 213      4D71F2
 214 00c3 A1050182 		.ascii	"\241\005\001\202C\006]i<i\222\322\244\311\260\2144Y"
 214      43065D69 
 214      3C6992D2 
 214      A4C9B08C 
 214      3459
 215 00d5 69280487 		.ascii	"i(\004\207\252\020\265i\012t\0226\205\270\333\334\330"
 215      AA10B569 
 215      0A741236 
 215      85B8DBDC 
 215      D8
 216 00e6 BE3325EA 		.ascii	"\2763%\352k5\361\253\333\305\000\015\006\307\021|\204"
 216      6B35F1AB 
 216      DBC5000D 
 216      06C7117C 
 216      84
ARM GAS  /var/folders/c6/c789hm653lg9vtl73krp73tm0000gn/T//ccNxYKov.s 			page 17


 217 00f7 CBF4604E 		.ascii	"\313\364`N\253\215\233\203\205\321H\361i\241-\252\315"
 217      AB8D9B83 
 217      85D148F1 
 217      69A12DAA 
 217      CD
 218 0108 6EF78242 		.ascii	"n\367\202B\235\032\207\002\371\236\326\014Y\231\341"
 218      9D1A8702 
 218      F99ED60C 
 218      5999E1
 219 0117 2CE9A1DD 		.ascii	",\351\241\335x\013\225\275\257\237\3359\334D*6\334\206"
 219      780B95BD 
 219      AF9FDD39 
 219      DC442A36 
 219      DC86
 220 0129 43B12ED2 		.ascii	"C\261.\322\001&|T\347I\270\005\320\206W\235\326\207"
 220      01267C54 
 220      E749B805 
 220      D086579D 
 220      D687
 221 013b 2DD4C78A 		.ascii	"-\324\307\212\310%\005\366G\237E\003\352\234\302\231"
 221      C82505F6 
 221      479F4503 
 221      EA9CC299 
 222 014b 43A16C1F 		.ascii	"C\241l\037u{\245\347h\200\016\245\037\036\012\250d!"
 222      757BA5E7 
 222      68800EA5 
 222      1F1E0AA8 
 222      6421
 223 015d DC5472DE 		.ascii	"\334Tr\336\300\332\307\007\317c\036+\007\247\003\364"
 223      C0DAC707 
 223      CF631E2B 
 223      07A703F4 
 224 016d 36E03EF1 		.ascii	"6\340>\361M\014\360\316\307\364R\\\017!Ox\203\312\370"
 224      4D0CF0CE 
 224      C7F4525C 
 224      0F214F78 
 224      83CAF8
 225 0180 BF294BC4 		.ascii	"\277)K\304\312\032\373-\026\0219J\032\346\340\241\240"
 225      CA1AFB2D 
 225      1611394A 
 225      1AE6E0A1 
 225      A0
 226 0191 7536C024 		.ascii	"u6\300$\251,\013\0316\025\023L.*\002\251i2T\035\251"
 226      A92C0B19 
 226      3615134C 
 226      2E2A02A9 
 226      6932541D 
 227 01a6 67B1FAEA 		.ascii	"g\261\372\352\267r2\216ZT\012c\351\026\320\270*\356"
 227      B772328E 
 227      5A540A63 
 227      E916D0B8 
 227      2AEE
 228 01b8 1FFBAD38 		.ascii	"\037\373\2558IWs\217.\213\021\202%\250\226\215 \336"
 228      4957738F 
 228      2E8B1182 
 228      25A8968D 
 228      20DE
ARM GAS  /var/folders/c6/c789hm653lg9vtl73krp73tm0000gn/T//ccNxYKov.s 			page 18


 229 01ca DF20660F 		.ascii	"\337 f\017\362\372 \245!ab\227\372A\3560\250(\213-\251"
 229      F2FA20A5 
 229      21616297 
 229      FA41EE30 
 229      A8288B2D 
 230 01df EE757AFA 		.ascii	"\356uz\372\222\377\203,9\234TQ6\205p\215Fg\207\015 "
 230      92FF832C 
 230      399C5451 
 230      3685708D 
 230      4667870D 
 231 01f4 CF8C9992 		.ascii	"\317\214\231\222x*d\271[\357R\261R\335*\331\277t\030"
 231      782A64B9 
 231      5BEF52B1 
 231      52DD2AD9 
 231      BF7418
 232 0207 EA3CB592 		.ascii	"\352<\265\222\3326?8\337QClxvN\317\302\227\357F\024"
 232      DA363F38 
 232      DF51436C 
 232      78764ECF 
 232      C297EF46 
 233 021c 258452C3 		.ascii	"%\204R\303\215\321\362\243\236\252\236\034\211`\031"
 233      8DD1F2A3 
 233      9EAA9E1C 
 233      896019
 234 022b 552663B4 		.ascii	"U&c\264\356\036\244\262^9\214K\233%6B\252P\027\373K"
 234      EE1EA4B2 
 234      5E398C4B 
 234      9B253642 
 234      AA5017FB 
 235 0240 308E9CA0 		.ascii	"0\216\234\240Q\016\016\354zt\037\252\366\320\205\310"
 235      510E0EEC 
 235      7A741FAA 
 235      F6D085C8 
 236 0250 F871A579 		.ascii	"\370q\245y\320\003\270\352\006\354\320\377d\257\024"
 236      D003B8EA 
 236      06ECD0FF 
 236      64AF14
 237 025f 33149FBC 		.ascii	"3\024\237\274r\214\217\345\363\005\375YZ),\227\012+"
 237      728C8FE5 
 237      F305FD59 
 237      5A292C97 
 237      0A2B
 238 0271 CB7EC1BF 		.ascii	"\313~\301\277v\263\224\367\301\276\261tk\341\352\365"
 238      76B394F7 
 238      C1BEB174 
 238      6BE1EAF5 
 239 0281 D21C57F6 		.ascii	"\322\034W\3667'e'\327"
 239      37276527 
 239      D7
 240              		.text
 241              		.section	.gnu.lto_.symbol_nodes.69f6f76ab6f04acf,"",%progbits
 242 0000 789C4D8A 		.ascii	"x\234M\212M\016\301`\024E\357}\257\237V\331\200M\330"
 242      4D0EC160 
 242      1445EF7D 
 242      AF9F56D9 
 242      804DD8
 243 0013 E26BD249 		.ascii	"\342k\322I\303\304\006\230t\312*:0\020\314\230\012)"
ARM GAS  /var/folders/c6/c789hm653lg9vtl73krp73tm0000gn/T//ccNxYKov.s 			page 19


 243      C3C40698 
 243      74CA2A3A 
 243      3010CC98 
 243      0A29
 244 0025 EA372C40 		.ascii	"\3527,@T4\352MN\316\271O \310Q\235<i\300`\001\230\015"
 244      5434EA4D 
 244      4ECEB94F 
 244      20C8519D 
 244      3C69C060 
 245 003c 13BA2305 		.ascii	"\023\272#\005\006\311i\254\352(\241\354iR\253;\023\236"
 245      06C969AC 
 245      EA28A1EC 
 245      6952AB3B 
 245      139E
 246 004e A91C68FA 		.ascii	"\251\034h\372WodYy\247y\337\032E\344\225\346j\273\320"
 246      576F6459 
 246      79A779DF 
 246      1A45E495 
 246      E66ABBD0 
 247 0062 1AB59D68 		.ascii	"\032\265\235h~m\005-\370\231\"\300n6\355(|\244\017Q"
 247      7E6D052D 
 247      F89922C0 
 247      6E36ED28 
 247      7CA40F51 
 248 0076 6D21DEBC 		.ascii	"m!\336\274\250\032\".\346%\233\310\372]\325\362k\271"
 248      A81A222E 
 248      E6259BC8 
 248      FA5DD5F2 
 248      6BB9
 249 0088 F2D455B3 		.ascii	"\362\324U\263\013\221\215\333\037\244\223\022\300\266"
 249      0B918DDB 
 249      1FA49312 
 249      C0B6
 250 0096 B716BC01 		.ascii	"\267\026\274\001O\212Ct"
 250      4F8A4374 
 251              		.text
 252              		.section	.gnu.lto_.refs.69f6f76ab6f04acf,"",%progbits
 253 0000 789C358A 		.ascii	"x\2345\212A\012\000 \014\303\3328w\361I\376\377_n\014"
 253      410A0020 
 253      0CC3DA38 
 253      77F149FE 
 253      FF5F6E0C 
 254 0014 5B0A8114 		.ascii	"[\012\201\024\241\253I\310\246*'M3\373,J\015\377G]\035"
 254      A1AB49C8 
 254      A62A274D 
 254      33FB2C4A 
 254      0DFF475D 
 255 0029 9B24DBE8 		.ascii	"\233$\333\350\001\034\252\000\250"
 255      011CAA00 
 255      A8
 256              		.text
 257              		.section	.gnu.lto_.decls.69f6f76ab6f04acf,"",%progbits
 258 0000 789CBD5C 		.ascii	"x\234\275\\\013t\024U\232\256\252\356N:\017\302\303"
 258      0B741455 
 258      9AAEAAEE 
 258      4E3A0FC2 
 258      C3
ARM GAS  /var/folders/c6/c789hm653lg9vtl73krp73tm0000gn/T//ccNxYKov.s 			page 20


 259 0011 D1058791 		.ascii	"\321\005\207\2218GwWg%\001|\340\331Y\221\011\036e\217"
 259      38477757 
 259      6725017C 
 259      E0D95991 
 259      091E658F 
 260 0025 CC7802B3 		.ascii	"\314x\002\263\307s\334\335\266\350\024\244\327\356\244"
 260      C773DCDD 
 260      B6E814A4 
 260      D7EEA4
 261 0034 A7BBC263 		.ascii	"\247\273\302c\317\236c%A\022\0045\004T@\036\341\245"
 261      CF9E6325 
 261      41120435 
 261      0454401E 
 261      E1A5
 262 0046 828A90E1 		.ascii	"\202\212\220\341\255\221\012\012\011\012\202\341\235"
 262      AD910A0A 
 262      090A82E1 
 262      9D
 263 0053 B0D0CA00 		.ascii	"\260\320\312\000\302\360~I2@\366\277\377\255\352\256"
 263      C2F07E49 
 263      3240F6BF 
 263      FFADEAAE 
 264 0063 AA547557 		.ascii	"\252TuWE\335>\271\267oW\325\375\376\347\375\357\177"
 264      45DD3EB9 
 264      B76F57D5 
 264      FDFEE7FD 
 264      EF7F
 265 0075 6F558563 		.ascii	"oU\205c8\306\353b\230N\370\344\374\201aj2\030\306\303"
 265      38C6EB62 
 265      984EF8E4 
 265      FC81616A 
 265      3218C6C3 
 266 0089 30CC1350 		.ascii	"0\314\023P\274P\026CY\001\345#(\253\240\254\207\262"
 266      BC501643 
 266      5901E523 
 266      28ABA0AC 
 266      87B2
 267 009b 0B4A3A94 		.ascii	"\013J:\224\255PX(\255P2\3101\216ar\240\364\201r/\224"
 267      AD505828 
 267      AD5032C8 
 267      318E6172 
 267      A0F48172 
 268 00b1 7F80F200 		.ascii	"\177\200\362\000\224\207\240\344A\031\002\005H1\217"
 268      9487A0E4 
 268      41190205 
 268      48318F
 269 00c0 C0F7E350 		.ascii	"\300\367\343P~\013E\373!\375\373(\2709P\262\025z\204"
 269      7E0B45FB 
 269      21FDFB28 
 269      B83950B2 
 269      157A84
 270 00d3 D60685FE 		.ascii	"\326\006\205\376\277\3005\3039\312\017\341\343w\320"
 270      BFC035C3 
 270      39CA0FE1 
 270      E377D0
 271 00e2 EE09A500 		.ascii	"\356\011\245\000\312\010(\023\241L\202\362 G\371oP\370"
 271      CA082813 
ARM GAS  /var/folders/c6/c789hm653lg9vtl73krp73tm0000gn/T//ccNxYKov.s 			page 21


 271      A14C82F2 
 271      2047F96F 
 271      50F8
 272 00f4 5B07650B 		.ascii	"[\007e\013\224\235P\032\241\274\000\347\017)2\022\272"
 272      949D501A 
 272      A1BC00E7 
 272      0F293212 
 272      BA
 273 0105 93157EFF 		.ascii	"\223\025~\377\007\212\004\245\022\312T\205\177\3023"
 273      078A04A5 
 273      12CA5485 
 273      7FC233
 274 0114 E137CB84 		.ascii	"\3417\313\204g\"o\272\302\247\221\277\255\012\357\036"
 274      67226FBA 
 274      C2A791BF 
 274      AD0AEF1E 
 275 0124 0D0F07A0 		.ascii	"\015\017\007\240\034d(mV\351O\276\215\270D\207w)\270"
 275      1C64286D 
 275      56E94FBE 
 275      8DB84487 
 275      7729B8
 276 0137 AA2E543C 		.ascii	"\252.T<Uf\"\377t\216\332(\037\276\207)z\322\352\302"
 276      556622FF 
 276      748EDA28 
 276      1FBE8729 
 276      7AD2EAC2 
 277 014b C893AA9B 		.ascii	"\310\223\252\233,h\357S\364At\241\362wH\341\261A\321"
 277      2C68EF53 
 277      F44174A1 
 277      F27748E1 
 277      B141D1
 278 015e 57A3C26F 		.ascii	"W\243\302o\246\302\323\020\305\226Z=\315Pl\254\352+"
 278      A6C2D310 
 278      C5965A3D 
 278      CD506CAC 
 278      EA2B
 279 0170 4DB1F1DD 		.ascii	"M\261\361\335P\372A\351\017\345\036\023\335\021\037"
 279      50FA41E9 
 279      0FE51E13 
 279      DD111F
 280 017f B903BE5B 		.ascii	"\271\003\276[4v\326\332^\225\223\310\270B\221q\227\205"
 280      3476D6DA 
 280      5E9593C8 
 280      B8429171 
 280      9785
 281 0191 2FD4107B 		.ascii	"/\324\020{+\264w\032l\336\240\310\341Vh\2522\244kl{"
 281      2BB4771A 
 281      6CDEA0C8 
 281      E15668AA 
 281      32A46B6C 
 282 01a6 BF097F59 		.ascii	"\277\011\177Y\314\253\222T!\325M\225\236i\316\351\315"
 282      CCAB9254 
 282      21D54D95 
 282      9E69CEE9 
 282      CD
 283 01b7 D448F0C9 		.ascii	"\324H\360\311\235\223\223\301T\223\303\261\345r\337"
 283      9D9393C1 
ARM GAS  /var/folders/c6/c789hm653lg9vtl73krp73tm0000gn/T//ccNxYKov.s 			page 22


 283      5493C3B1 
 283      E572DF
 284 01c6 39C0EAF3 		.ascii	"9\300\352\363,\317\3021/6\2623\320\232\3673\313\340"
 284      2CCFC231 
 284      2F36B233 
 284      D09AF733 
 284      CBE0
 285 01d8 5AE8C0C5 		.ascii	"Z\350\300\305/\226\372\3665\277\226g\227\261\367C\275"
 285      2F96FAF6 
 285      35BF9667 
 285      97B1F743 
 285      BD
 286 01e9 9CCD40AA 		.ascii	"\234\315@\252\344\024m\253\255N\270\214c8\2261\375\244"
 286      E4146DAB 
 286      AD4EB88C 
 286      63389631 
 286      FDA4
 287 01fb EAA9D07C 		.ascii	"\352\251\320|^\245\231\205\327&\304\241W\232_\305\263"
 287      5EA59985 
 287      D726C4A1 
 287      579A5FC5 
 287      B3
 288 020c EFB1BDB1 		.ascii	"\357\261\275\261\205rH\212.\360\012\245G\256\332\303"
 288      8572488A 
 288      2EF00AA5 
 288      47AEDAC3 
 289 021c ADF4785F 		.ascii	"\255\364x_\303MvF\242\221\251\343Y\275\312\022f1\233"
 289      C34D7646 
 289      A291A9E3 
 289      59BDCA12 
 289      66319B
 290 022f 95C20E3C 		.ascii	"\225\302\016<\2734\301x\261\332\277G2\361\014W\361\354"
 290      BB34C178 
 290      B1DABF47 
 290      32F10C57 
 290      F1EC
 291 0241 078EC5FB 		.ascii	"\007\216\305\373\320B\274l\235x\037\246\022o\205\205"
 291      D042BC6C 
 291      9D781FA6 
 291      126F8585 
 292 0251 787D9899 		.ascii	"x}\230\231\310xs\302\263$V\355\334Ku\255\232\330\356"
 292      C87873C2 
 292      B32456ED 
 292      DC4B75AD 
 292      9AD8EE
 293 0264 2BB24792 		.ascii	"+\262G\222\274<\273\212\355\003\316\361O,\363 \263\202"
 293      BC3CBB8A 
 293      ED03CEF1 
 293      4F2CF320 
 293      B382
 294 0276 FADCD65F 		.ascii	"\372\334\326_\233yJJ`\216\031\311\002c\365\200\307\263"
 294      9B794A4A 
 294      608E19C9 
 294      0263F580 
 294      C7B3
 295 0288 6BD80715 		.ascii	"k\330\007\025'\216\315l\272\365\012[.I,=\307(gM>\367"
 295      278ECD6C 
ARM GAS  /var/folders/c6/c789hm653lg9vtl73krp73tm0000gn/T//ccNxYKov.s 			page 23


 295      BAF50A5B 
 295      2E492C3D 
 295      C728674D 
 296 029e 32752088 		.ascii	"2u \210\334\376\366\202~R\335V6\225\\uq\362\277H\310"
 296      DCFEF682 
 296      7E52DD56 
 296      36955C75 
 296      71F2BF48 
 297 02b3 F5F1E566 		.ascii	"\365\361\345f7\312\265\001\345*gY\035\275\2240\0343"
 297      37CAB501 
 297      E52A6759 
 297      1DBD9430 
 297      1C33
 298 02c5 13BB6CEE 		.ascii	"\023\273l\356*\3069U\214\315\266\304\330\244\210\301"
 298      2AC63955 
 298      8CCDB6C4 
 298      D8A488C1 
 299 02d5 B3EB4114 		.ascii	"\263\353A\024\216Y\022\3075\263i\334\0354F\327\343m"
 299      8E5912C7 
 299      35B369DC 
 299      1D3446D7 
 299      E36D
 300 02e7 3E985DC3 		.ascii	">\230]\303\253`+\035\203\345\352\300\032\016\316G\346"
 300      AB602B1D 
 300      83E5EAC0 
 300      1A0ECE47 
 300      E6
 301 02f8 94F04275 		.ascii	"\224\360Bul\356m\212b/\314\273Sr\363,\351\3021\365\006"
 301      6CEE6D8A 
 301      622FCCBB 
 301      5372F32C 
 301      E9C231F5 
 302 030d B5DA8769 		.ascii	"\265\332\207i\237\276\255\221\255@5nC\250i\\w\241\366"
 302      9FBEAD91 
 302      AD40356E 
 302      43A8695C 
 302      77A1F6
 303 0320 D77EFA38 		.ascii	"\327~\3728\232\272\031\201.\030\200x6=\256\302\370o"
 303      9ABA1981 
 303      2E188078 
 303      363DAEC2 
 303      F86F
 304 0332 F5028296 		.ascii	"\365\002\202\226\236\221h\220\364\245'\3633_\3161\035"
 304      9E916890 
 304      F4A527F3 
 304      335FCE31 
 304      1D
 305 0343 9C0DB379 		.ascii	"\234\015\263y-} V\323t\3013W\222\247\270tc\343.\346"
 305      2D7D2056 
 305      D374C133 
 305      5792A7B8 
 305      7463E32E 
 306 0358 4D25F848 		.ascii	"M%\370H\254\310\263O\334i\0315\276f\357\302\226\213"
 306      ACC8B34F 
 306      DC691935 
 306      BE66EFC2 
 306      968B
ARM GAS  /var/folders/c6/c789hm653lg9vtl73krp73tm0000gn/T//ccNxYKov.s 			page 24


 307 036a E1E88161 		.ascii	"\341\350\201aYP\375\321\025\027#\211\272\337\270 s\250"
 307      5950FDD1 
 307      15172389 
 307      BADFB820 
 307      73A8
 308 037c EE5DE881 		.ascii	"\356]\350\201\225.\275\272u\034QJV\\\264\260Y\026\243"
 308      952EBDBA 
 308      751C514A 
 308      565CB4B0 
 308      5916A3
 309 038f A7CB398E 		.ascii	"\247\3139\216\231\341r\2522\235\247\303\270\275\272"
 309      99E172AA 
 309      329DA7C3 
 309      B8BDBA
 310 039e 9C9D5529 		.ascii	"\234\235U)5\347\243\264\0343\333\016`/\023\033\230}"
 310      35E7A3B4 
 310      1C33DB0E 
 310      602F131B 
 310      987D
 311 03b0 B4818267 		.ascii	"\264\201\202g?\305\211\270\201\275\027\352-X7b\275\023"
 311      3FC589B8 
 311      81BD17EA 
 311      2D583762 
 311      BD13
 312 03c2 EB7D5027 		.ascii	"\353}P'U4\201[\237\210\353<\373\031\313)\021\265{!\343"
 312      5534815B 
 312      9F88EB3C 
 312      FB19CB29 
 312      11B57B21 
 313 03d7 662264F0 		.ascii	"f\"d\360\254\354\030L\247Hyf\353|%\236\221\030\300\263"
 313      ACEC184C 
 313      A7487966 
 313      EB7C259E 
 313      9118C0B3 
 314 03eb 5FD9C1B3 		.ascii	"_\331\301\263\366eyu+2G\003\312;.\326!Xn2\243\324k\214"
 314      F6657975 
 314      2B324703 
 314      CA3B2ED6 
 314      21586E32 
 315 0403 B2168DB2 		.ascii	"\262\026\215\262\016Mp\000\353\203X\037\262c\216\217"
 315      0E4D7000 
 315      EB83581F 
 315      B2638E8F 
 316 0413 12E640B6 		.ascii	"\022\346@\266%y\355\177\022\256\351\254\371\036p\255"
 316      2579ED7F 
 316      12AEE9AC 
 316      F91E70AD 
 317 0423 CE28D5C7 		.ascii	"\316(\325\307\023\271\222\374\037*\316!\322\235cV\241"
 317      13B992FC 
 317      1F2ACE21 
 317      D29D6356 
 317      A1
 318 0434 78470C73 		.ascii	"xG\014s\212\374\346\302l\022S\217\330\230O$y\301\321"
 318      8AFCE6C2 
 318      6C12538F 
 318      D8984F24 
 318      79C1D1
ARM GAS  /var/folders/c6/c789hm653lg9vtl73krp73tm0000gn/T//ccNxYKov.s 			page 25


 319 0447 F92CD1BF 		.ascii	"\371,\321\277\311\024\026\213Oa\375\231D\300\376\353"
 319      C914168B 
 319      4F61FD99 
 319      44C0FEEB 
 320 0457 45178ED7 		.ascii	"E\027\216\327\030\362\272\321\225r&\324\303p\3146\354"
 320      18F2BAD1 
 320      957226D4 
 320      C370CC36 
 320      EC
 321 0468 72BCCB4C 		.ascii	"r\274\313LX\265o\2522\023\036\267\305\371\336VK\316"
 321      58B56FAA 
 321      32131EB7 
 321      C5F9DE56 
 321      4BCE
 322 047a 9FD4DA56 		.ascii	"\237\324\332V\0154g\224)\374\0242\276\327\234\361\272"
 322      0D346794 
 322      29FC1432 
 322      BED79CF1 
 322      BA
 323 048b 27AD6038 		.ascii	"'\255`8\3468v9\323u\012\377\241Ba\374\214\255)\374\322"
 323      E6387639 
 323      D3750AFF 
 323      A14261FC 
 323      8CAD29FC 
 324 04a0 F4249988 		.ascii	"\364$\231\210\326\340R\232\312\300\213\0119\316\017"
 324      D6E0529A 
 324      CAC08B09 
 324      39CE0F
 325 04af E078F602 		.ascii	"\340x\366\002\312p\325B\371\326\030\034s\013\373\\\356"
 325      CA70D542 
 325      F9D6181C 
 325      730BFB5C 
 325      EE
 326 04c0 AAFD6D95 		.ascii	"\252\375m\225\212\020\227m\011\361\366\353j\036r\036"
 326      8A10976D 
 326      09F1F6EB 
 326      6A1E721E 
 327 04d0 0377955B 		.ascii	"\003w\225[\305\355^P\231\3675\216[\012\366\272c\260"
 327      C5ED5E50 
 327      99F7358E 
 327      5B0AF6BA 
 327      63B0
 328 04e2 5C1DD8A2 		.ascii	"\\\035\330\242\257\235\346!m\337\305\3725HR/\236\355"
 328      AF9DE621 
 328      6DDFC5FA 
 328      3548522F 
 328      9EED
 329 04f4 C0C8F1A5 		.ascii	"\300\310\361\245\3338\355oc\035\317\373\034\323bG\020"
 329      DB38ED6F 
 329      631DCFFB 
 329      1CD36247 
 329      10
 330 0505 CB6846CC 		.ascii	"\313hF\314\262s\026\235fT\377L\263\022\204c\016#\261"
 330      B273169D 
 330      6654FF4C 
 330      B3128463 
 330      0E23B1
ARM GAS  /var/folders/c6/c789hm653lg9vtl73krp73tm0000gn/T//ccNxYKov.s 			page 26


 331 0518 4EA36967 		.ascii	"N\243ig\235j~`\016\212\326i\313\262\353\276|\333^\242"
 331      9D6A7E60 
 331      0E8AD669 
 331      CBB2EBBE 
 331      7CDB5EA2 
 332 052c CCA9E4EF 		.ascii	"\314\251\344\357C\362U\036B~\012g \177\360L\354\011"
 332      43F2551E 
 332      427E0A67 
 332      207FF04C 
 332      EC09
 333 053e 4A9E9C4A 		.ascii	"J\236\234JM~Q\313\354\256\344-\323\017\305|\263N}\337"
 333      4D7E51CB 
 333      ECAEE42D 
 333      D30FC57C 
 333      B34E7DDF 
 334 0552 7F1112A9 		.ascii	"\177\021\022\251\346\210\0035x\214\346\033\226\245\245"
 334      E6880335 
 334      788CE61B 
 334      96A5A5
 335 0561 A5A4289A 		.ascii	"\245\244(\232\204`{\234\373n\371/\210)\217\\Q/I\323"
 335      84607B9C 
 335      FB6EF92F 
 335      88298F5C 
 335      512F49D3 
 336 0575 D2541E76 		.ascii	"\322T\036v8F\324;q}\013\216\010\012\266\323\016X\222"
 336      3846D43B 
 336      717D0B8E 
 336      080AB6D3 
 336      0E5892
 337 0588 6971AD16 		.ascii	"iq\255\026l\267c0=g\353\265`-v\300\314\022\037\005l"
 337      6CB76330 
 337      3D67EBB5 
 337      602D76C0 
 337      CC121F05 
 338 059d A3166CBF 		.ascii	"\243\026l\277c0=g\233\265`\207\354\200\365\265\346\354"
 338      63303D67 
 338      9BB56087 
 338      EC80F5B5 
 338      E6EC
 339 05af 532DD811 		.ascii	"S-\330\021\307`z\316>\323\202\305\354\200\345\232p\026"
 339      C7607ACE 
 339      3ED382C5 
 339      EC80E59A 
 339      7016
 340 05c1 FF586516 		.ascii	"\377Xe\026\225\\\334\317a\302\362\250\001\301\241O3"
 340      955CDCCF 
 340      61C2F2A8 
 340      01C1A14F 
 340      33
 341 05d2 098C531E 		.ascii	"\011\214S\036\247\021L'7D\260]K\325D\231\006\367sv\020"
 341      A7114C27 
 341      3744B05D 
 341      4BD54499 
 341      06F77376 
 342 05e7 9338CC7A 		.ascii	"\2238\314z\355Lq\3151\230\336,\373\010\230!\324h\366"
 342      ED4C71CD 
 342      3198DE2C 
ARM GAS  /var/folders/c6/c789hm653lg9vtl73krp73tm0000gn/T//ccNxYKov.s 			page 27


 342      FB089821 
 342      D468F6
 343 05fa 6FBAE877 		.ascii	"o\272\350w\251V\277\267\354\020O\342`\027\273\020W&"
 343      A956BFB7 
 343      EC104FE2 
 343      6017BB10 
 343      5726
 344 060c 2C79AA54 		.ascii	",y\252T\315\226\257\351\2374\241\201\230\367\253\225"
 344      CD96AFE9 
 344      9F34A181 
 344      98F7AB95 
 345 061c 18F3DEE3 		.ascii	"\030\363\336\343\310\2245%\315t\311k\013\253}\372nu"
 345      C8943525 
 345      CD74C96B 
 345      0BAB7DFA 
 345      6E75
 346 062e FDBC12C1 		.ascii	"\375\274\022\301\336\350>X\335\376\226\376$\377\374"
 346      DEE83E58 
 346      DDFE96FE 
 346      24FFFC
 347 063d 0881E6A4 		.ascii	"\010\201\346\244\031#q\206a\036\315\320\317\243\031"
 347      19237186 
 347      611ECDD0 
 347      CFA319
 348 064c 198946A7 		.ascii	"\031\211F\247\372\321o\035\375\254}\254,\377\256\326"
 348      FAD16F1D 
 348      FDAC7DAC 
 348      2CFFAED6 
 349 065c F24BD39C 		.ascii	"\362K\323\234Z^?*j\232\216\272\336\226\344r\227f#6\351"
 349      5A5E3F2A 
 349      6A9A8EBA 
 349      DE96E472 
 349      97662336 
 350 0671 AE2DC950 		.ascii	"\256-\311P\232\225\014\245\036\025\273\312\334B6\220"
 350      9A950CA5 
 350      1E15BBCA 
 350      DC423690 
 351 0681 DAA77FF4 		.ascii	"\332\247\177\364\033\314\204\327!\320\206n\003\355\257"
 351      1BCC84D7 
 351      21D0866E 
 351      03EDAF
 352 0690 5D381481 		.ascii	"]8\024\2016\"\320\226.\2466\246L\254\336\004\361Mae"
 352      3622D096 
 352      2EA636A6 
 352      4CACDE04 
 352      F14D6165 
 353 06a4 4FF8E7BA 		.ascii	"O\370\347\272\026\346b\243\275t\342$\011\270\361\345"
 353      16E662A3 
 353      BD74E224 
 353      09B8F1E5 
 354 06b4 FE5F66B1 		.ascii	"\376_f\261W*\2449\371N\014&+\006k@\365|\323E=D\377\316"
 354      572AA439 
 354      F94E0C26 
 354      2B066B40 
 354      F57CD345 
 355 06cc E438EC58 		.ascii	"\3448\354X\016\257^\216\252S\335\220c\217\"\307V\224"
 355      0EAF5E8E 
ARM GAS  /var/folders/c6/c789hm653lg9vtl73krp73tm0000gn/T//ccNxYKov.s 			page 28


 355      AA53DD90 
 355      638F22C7 
 355      5694
 356 06de E3DB9F40 		.ascii	"\343\333\237@\216\323\216\345\350\245\221\203\254\271"
 356      8ED38EE5 
 356      E8A59183 
 356      ACB9
 357 06ec AECEA6B3 		.ascii	"\256\316\246\263\312\035Lm\362\274\230\360\323\304\335"
 357      CA1D4C6D 
 357      F2BC98F0 
 357      D3C4DD
 358 06fb A15F225F 		.ascii	"\241_\"_\333\315\346\322\303\251\327\231\263Z4\213\011"
 358      DBCDE6D2 
 358      C3A9D799 
 358      B35A348B 
 358      09
 359 070c C9DE62E2 		.ascii	"\311\336b\342{Ec_\242\306.\232\2150[H\355_}\261F\211"
 359      7B45635F 
 359      A2C62E9A 
 359      8D305B48 
 359      ED5F7DB1 
 360 0722 CBBB10EA 		.ascii	"\313\273\020\352z\267\241\366\267l\240\203u\017\002"
 360      7AB7A1F6 
 360      B76CA083 
 360      750F02
 361 0731 DDEE62C5 		.ascii	"\335\356b\3054\203\021\323\364F\204\237\204\322\015"
 361      348311D3 
 361      F446849F 
 361      84D20D
 362 0740 0C932F2B 		.ascii	"\014\223/+G\310\217t\346\377\275\037\307T\247\263\212"
 362      47C88F74 
 362      E6FFBD1F 
 362      C754A7B3 
 362      8A
 363 0751 5DBB93AE 		.ascii	"]\273\223\256\343\302j\266\232\226P#\275\361\243\020"
 363      E3C26AB6 
 363      9A965023 
 363      BDF1A310 
 364 0761 2BE42DB5 		.ascii	"+\344-\265\352\202\030\367\003\347\374H\270#-\306\334"
 364      EA8218F7 
 364      03E7FC48 
 364      B8232DC6 
 364      DC
 365 0772 C090A55C 		.ascii	"\300\220\245\\\260\230|\324\355\216\3431\272\257\332"
 365      B0987CD4 
 365      ED8EE331 
 365      BAAFDA
 366 0781 8A19E7A2 		.ascii	"\212\031\347\242t\243\271\317\263\206\025\321y\375\036"
 366      74A3B9CF 
 366      B38615D1 
 366      79FD1E
 367 0790 A9D5583A 		.ascii	"\251\325X:\254\235\007\353\177\234\224`\206c\313\250"
 367      AC9D07EB 
 367      7F9C9460 
 367      8663CBA8 
 368 07a0 1952AD36 		.ascii	"\031R\2556_T\321\262\221\360F$\0343.6\337\271\035\233"
 368      5F54D1B2 
ARM GAS  /var/folders/c6/c789hm653lg9vtl73krp73tm0000gn/T//ccNxYKov.s 			page 29


 368      91F04624 
 368      1C332E36 
 368      DFB91D9B 
 369 07b4 AA8C9798 		.ascii	"\252\214\227\230\215\325\246$\267\235\310\220j\263\325"
 369      8DD5A624 
 369      B79DC890 
 369      6AB3D5
 370 07c3 4DA11371 		.ascii	"M\241\023qT\263\364&\245W\311G\205"
 370      54B3F426 
 370      A557C947 
 370      85
 371 07d0 E67C2761 		.ascii	"\346|'a\242\371n\032&N\242\007\236\353b\243]\306\300"
 371      A2F96E1A 
 371      264EA207 
 371      9EEB62A3 
 371      5DC6C0
 372 07e3 EA688C5C 		.ascii	"\352h\214\\1Jcw\315\030\377X\371\3001\255\017\264\377"
 372      314A6377 
 372      CD18FF58 
 372      F9C031AD 
 372      0FB4FF
 373 07f6 581F683A 		.ascii	"X\037h:e\323\007\214w\006%/\241|\316\350\004\177^\262"
 373      65D3078C 
 373      7706252F 
 373      A17CCEE8 
 373      047F5EB2 
 374 080a A34AD9CB 		.ascii	"\243J\331\313:g\313\011\256\351\234`E\034\265;NP!\267"
 374      3A67CB09 
 374      AEE99C60 
 374      451CB53B 
 374      4E5021B7 
 375 081e 9FDEC122 		.ascii	"\237\336\301\"\034]\241\2541\3029\\\271\337\024\234"
 375      1C5DA1AC 
 375      31C2395C 
 375      B9DF149C 
 376 082e 2A86BA97 		.ascii	"*\206\272\227|\370\004\231\343\256sD\246M^\243kQ\315"
 376      7CF80499 
 376      E3AE7344 
 376      A64D5EA3 
 376      6B51CD
 377 0841 685C2BA1 		.ascii	"h\\+\241F\210-\034\331\334\276\310\221\015\355\313X"
 377      46882D1C 
 377      D9DCBEC8 
 377      910DEDCB 
 377      58
 378 0852 5FE56C6C 		.ascii	"_\345llk_\323\272E\243c\271smz\337Y-\231f\357\217\363"
 378      6B5FD3BA 
 378      45A363B9 
 378      736D7ADF 
 378      592D9966 
 379 0869 BE9AA60B 		.ascii	"\276\232\246\013n\274\367\345d\257\360\2062\275\337"
 379      6EBCF7E5 
 379      64AFF086 
 379      32BDDF
 380 0878 C471BBBB 		.ascii	"\304q\273\273\213r\273\265W\330\326]I\342\037\216\371"
 380      8B72BBB5 
 380      57D8D65D 
ARM GAS  /var/folders/c6/c789hm653lg9vtl73krp73tm0000gn/T//ccNxYKov.s 			page 30


 380      49E21F8E 
 380      F9
 381 0889 CE6B635D 		.ascii	"\316kc]\222k\242\364\370\264\370\303l\233\373\215\352"
 381      926BA2F4 
 381      F8B4F8C3 
 381      6C9BFB8D 
 381      EA
 382 089a 9DF19332 		.ascii	"\235\361\2232\335V\257p\021G;i\320\205\215m\313k\330"
 382      DD56AF70 
 382      11473B69 
 382      D0858D6D 
 382      CB6BD8
 383 08ad E5155797 		.ascii	"\345\025W\227\035\351\253\352\266:9\227z\343p\357t\355"
 383      1DE9ABEA 
 383      B63A3997 
 383      7AE370EF 
 383      74ED
 384 08bf 8E34783E 		.ascii	"\2164x>\336I\"}\273\253O\235\011\023\014\362l\225\213"
 384      DE49227D 
 384      BBAB4F9D 
 384      09130CF2 
 384      6C958B
 385 08d2 8C8F6A97 		.ascii	"\214\217j\227fLp\314+\0316t\377\217V\236(\311\355{\351"
 385      664C70CC 
 385      2B193674 
 385      FF8F569E 
 385      28C9ED7B 
 386 08e7 FD0C350E 		.ascii	"\375\0145\016\275a\3043\213C:<\235-\345\232\003\270"
 386      BD61C433 
 386      8B433A3C 
 386      9D2DE59A 
 386      03B8
 387 08f9 4F42B39B 		.ascii	"OB\263\233yv\230\313\267\002\253\220\347S0\352\360u"
 387      797698CB 
 387      B702AB90 
 387      E75330EA 
 387      F075
 388 090b 76C0865A 		.ascii	"v\300\206ZIZ!\177\362\226j\251\263\230\234|\340\030"
 388      495A217F 
 388      F2966AA9 
 388      B3989C7C 
 388      E018
 389 091d 4FCFDCDE 		.ascii	"O\317\334\336\003\352=D\272y\277\316\016\336\223\326"
 389      03EA3D44 
 389      BA79BFCE 
 389      0EDE93D6 
 390 092d FC5D7A4B 		.ascii	"\374]zK\227\312\311\216\341\364\206\270u\200\030vF_"
 390      97CAC98E 
 390      E1F486B8 
 390      75801876 
 390      465F
 391 093f D37B7AF1 		.ascii	"\323{z\361\310Mv\013\2241\265f\325\245~\225\350\371"
 391      C84D760B 
 391      9431B566 
 391      D5A57E95 
 391      E8F9
 392 0951 6FE3A03A 		.ascii	"o\343\240:\225\221\372>\217\036\2108\354<\303\210\222"
ARM GAS  /var/folders/c6/c789hm653lg9vtl73krp73tm0000gn/T//ccNxYKov.s 			page 31


 392      9591FA3E 
 392      8F1E8838 
 392      EC3CC388 
 392      92
 393 0962 D76CC7FB 		.ascii	"\327l\307\373\202\363l\215\246?ow~\013\345\373\2764"
 393      82F36C8D 
 393      A63F6F77 
 393      7E0BE5FB 
 393      BE34
 394 0974 2C2E7011 		.ascii	",.p\021+td\374$a\261\"\223U\204\351^\200_\263\352\233"
 394      2B7464FC 
 394      2461B122 
 394      935584E9 
 394      5E805FB3 
 395 098a 7E9B948D 		.ascii	"~\233\224\215y\312X\225cD\275\273\255\337\216c\201\202"
 395      79CA5895 
 395      6344BDBB 
 395      ADDF8E63 
 395      8182
 396 099c BD66072C 		.ascii	"\275f\007,\311\364\276\221\2009Q\362\036%g|\027\311"
 396      C9F4BE91 
 396      803951F2 
 396      1E25677C 
 396      17C9
 397 09ae D766FE24 		.ascii	"\327f\376$J\236\353X\012\235J@\311\247\373mZ+Ik^t\262"
 397      4A9EEB58 
 397      0A9D4A40 
 397      C9A7FB6D 
 397      5A2B496B 
 398 09c5 EBD8F6DD 		.ascii	"\353\330\366\335E\305c>@a\336\351\"\314Jc\002ls\023"
 398      45C5633E 
 398      4061DEE9 
 398      22CC4A63 
 398      026C7313 
 399 09d9 8F639619 		.ascii	"\217c\226\031%2\213\236\366\237\307\230\247\211\376"
 399      25328B9E 
 399      F69FC798 
 399      A789FE
 400 09e8 EF60F49F 		.ascii	"\357`\364\237\357\"y\321b\254\227b\275\034\353\225\372"
 400      EF2279D1 
 400      62AC9762 
 400      BD1CEB95 
 400      FA
 401 09f9 59E1E34C 		.ascii	"Y\341\343LC\360\320\017T\245\371\214mF\022wn!)\303g"
 401      43F0D00F 
 401      54A5F98C 
 401      6D461277 
 401      6E2129C3 
 402 0a0e 10AEE173 		.ascii	"\020\256\341s\007?`\335\216\365m\254\027b\342V\207\365"
 402      073F60DD 
 402      8EF56DAC 
 402      1762E256 
 402      87F5
 403 0a20 12AC9763 		.ascii	"\022\254\227c\275\006\353O\261n\304z;\326\345\310\376"
 403      BD06EB4F 
 403      B16EC47A 
 403      3BD6E5C8 
ARM GAS  /var/folders/c6/c789hm653lg9vtl73krp73tm0000gn/T//ccNxYKov.s 			page 32


 403      FE
 404 0a31 AB58CFC0 		.ascii	"\253X\317\300\372u\254k\260\256\305z6\326oiE\264\312"
 404      FA75AC6B 
 404      B0AEC57A 
 404      36D66F69 
 404      45B4CA
 405 0a44 D20CCB49 		.ascii	"\322\014\313Iu>>\323\335;\304\260N\270\271D{'\201go"
 405      753E3ED3 
 405      DD3BC4B0 
 405      4EB8B944 
 405      7B278167 
 406 0a59 3846CC4D 		.ascii	"8F\314M\246\3323\032\325\236E\325\236CE\256\326[tC\246"
 406      A6DA331A 
 406      D59E45D5 
 406      9E4345AE 
 406      D65B7443 
 407 0a6e FAFC42F7 		.ascii	"\372\374B\367\326\007\373[\365\263\325\026#\236\243"
 407      D607FB5B 
 407      F5B3D516 
 407      239EA3
 408 0a7d 0822C987 		.ascii	"\010\"\311\207\350\023/\235\2304lw\014\226\253c\356"
 408      E8132F9D 
 408      98346C77 
 408      0C96AB63 
 408      EE
 409 0a8e D83CFD6D 		.ascii	"\330<\375m\375\235v\360\222\334\254\271\330\252\271"
 409      FD9D76F0 
 409      92DCACB9 
 409      D8AAB9
 410 0a9d 59B3CF31 		.ascii	"Y\263\3171\230\236\271\353Z\260#v\300\314n\276\230\033"
 410      989EB9EB 
 410      5AB02376 
 410      C0CC6EBE 
 410      981B
 411 0aaf FFB8C6F8 		.ascii	"\377\270\306\370'\320\370'\321\370\365\350\361k\261"
 411      27D0F827 
 411      D1F8F5E8 
 411      F16BB1
 412 0abe 5E8FF546 		.ascii	"^\217\365F\2547\353\235\342d\246\372(\216BL\377\324"
 412      AC37EB9D 
 412      E264A6FA 
 412      288E424C 
 412      FFD4
 413 0ad0 4B12AFE0 		.ascii	"K\022\257\340\331V \244\330\262\301\372i\234\272\341"
 413      D95620A4 
 413      D8B2C1FA 
 413      699CBAE1 
 414 0ae0 2ACA6C4D 		.ascii	"*\312lM\010\275p]\246\351\367g\230)\2345D\320\3248\034"
 414      08BD705D 
 414      A6E9F767 
 414      98299C35 
 414      44D0D438 
 415 0af5 F337ECD3 		.ascii	"\3637\354\323\3305\377>\241>\217\323\230:c\230R)\257"
 415      D835FF3E 
 415      A13E8FD3 
 415      983A6398 
 415      5229AF
ARM GAS  /var/folders/c6/c789hm653lg9vtl73krp73tm0000gn/T//ccNxYKov.s 			page 33


 416 0b08 7BE7DDC4 		.ascii	"{\347\335\304\215\373J\347w\323\246g\251|t'>H\362\226"
 416      8DFB4AE7 
 416      77D3A667 
 416      A97C7427 
 416      3E48F296 
 417 0b1c 36755CD1 		.ascii	"6u\\\321\355\2247\035\343\345\352\360\016\264\241\267"
 417      ED94371D 
 417      E3E5EAF0 
 417      0EB4A1B7 
 418 0b2c 51B00576 		.ascii	"Q\260\005v\300\222\014\322\313/\324\360&\306\220\343"
 418      C0920CD2 
 418      CB2FD4F0 
 418      26C690E3 
 419 0b3c B1A35A63 		.ascii	"\261\243Zc\324\005\237|{\017\315\377v\242U\233\263R"
 419      D4059F7C 
 419      7B0FCDFF 
 419      76A2559B 
 419      B352
 420 0b4e 5AD50044 		.ascii	"Z\325\000D\224\273\333\230\377-j\302\374o\267\255\374"
 420      94BBDB98 
 420      FF2D6AC2 
 420      FC6FB7AD 
 420      FC
 421 0b5f 6F4393AA 		.ascii	"oC\223\252M\017\221\277\025Y\330\335\335,L\336Re\357"
 421      4D0F91BF 
 421      1559D8DD 
 421      DD2C4CDE 
 421      5265EF
 422 0b72 E96BD39D 		.ascii	"\351k\323\235\2147\233\310N\306~\324\305w\251u\241\307"
 422      8C379BC8 
 422      4EC67ED4 
 422      C577A975 
 422      A1C7
 423 0b84 20A21E32 		.ascii	" \242\0362\252b/M\205\017\331RE\333v\355#\212\034s\011"
 423      AA622F4D 
 423      850FD952 
 423      45DB76ED 
 423      238A1C73 
 424 0b99 5938D46D 		.ascii	"Y8\324m]\\\231\252\217\261\355\216\361rux\0354\037\305"
 424      5D5C99AA 
 424      8FB1ED8E 
 424      F1727578 
 424      1D341FC5 
 425 0bad B54AA71D 		.ascii	"\265J\247\035\254$\351\350\254\246\371\177'\305dV\275"
 425      AC24E9E8 
 425      ACA6F97F 
 425      27C56456 
 425      BD
 426 0bbe 39382DDB 		.ascii	"98-\333\200gv\243\306\376\023\224\2074i\324aL\243Z1"
 426      806776A3 
 426      C6FE1394 
 426      873469D4 
 426      614CA35A 
 427 0bd3 9A1EC1FA 		.ascii	"\232\036\301\372(\3261;\331\305>\227&r\324f;uN\255\002"
 427      28D6313B 
 427      D9C53E97 
 427      2672D466 
ARM GAS  /var/folders/c6/c789hm653lg9vtl73krp73tm0000gn/T//ccNxYKov.s 			page 34


 427      3B754EAD 
 428 0be8 61A43F5D 		.ascii	"a\244?]\303\253\257f\220\220\265?\201$\305\307\225\244"
 428      C3ABAF66 
 428      9090B53F 
 428      8124C5C7 
 428      95A4
 429 0bfa 8EABBFB8 		.ascii	"\216\253\277\270\234\276\234q\302e\376r\306\260\270"
 429      9CBE9C71 
 429      C265FE72 
 429      C6B0B8
 430 0c09 04738D12 		.ascii	"\004s\215\022\030\350&1\234\271\242wk\024\275\007\025"
 430      18E82631 
 430      9CB9A277 
 430      6B14BD07 
 430      15
 431 0c1a FD0D2A77 		.ascii	"\375\015*w/\326\307\365\223\327\322lCp3D\023\307fn\324"
 431      2FD6C7F5 
 431      93D7D26C 
 431      43703344 
 431      13C7666E 
 432 0c2f 50FF1CA9 		.ascii	"P\377\034\251\177\201t\233\260\336\201\365Wz\036Vg\033"
 432      7F81749B 
 432      B0DE81F5 
 432      577A1E56 
 432      671B
 433 0c41 2650C33C 		.ascii	"&P\303<\245\264\255\367;b5U\373\323\313%yN\276\372x"
 433      A5B4ADF7 
 433      3B623555 
 433      FBD3CB25 
 433      794EBEFA 
 434 0c56 E45A23A4 		.ascii	"\344Z#\244\376YH\245)'\211\332G\217f\307\303v\312\235"
 434      FE5948A5 
 434      292789DA 
 434      478F66C7 
 434      C376CA9D 
 435 0c6a 3058033D 		.ascii	"0X\003=\206S\361Y\014T[\262\035\356\204\021\305]0\006"
 435      8653F159 
 435      0C545BB2 
 435      1DEE8411 
 435      C55D3006 
 436 0c7e AA4B422E 		.ascii	"\252KB.=j\343\005\227\023\312\2763]\230\356A\372\027"
 436      3D6AE305 
 436      9713CABE 
 436      335D98EE 
 436      41FA17
 437 0c91 7EAAEDAF 		.ascii	"~\252\355\257\013\032\223^D\223^\322\033\360\240Q\333"
 437      0B1A935E 
 437      44935ED2 
 437      1BF0A051 
 437      DB
 438 0ca2 66F4EA12 		.ascii	"f\364\352\022\003\301\250l\362L\004\265\237\351\366"
 438      03C1A86C 
 438      F24C04B5 
 438      9FE9F6
 439 0cb1 864B8518 		.ascii	"\206K\205\030\232\320\370\265\223\355T\343\327P\343"
 439      9AD0F8B5 
 439      93ED54E3 
ARM GAS  /var/folders/c6/c789hm653lg9vtl73krp73tm0000gn/T//ccNxYKov.s 			page 35


 439      D750E3
 440 0cc0 37CD359E 		.ascii	"7\3155\236\004\207\010v\303T\3457l\251\374\212\252r"
 440      04870876 
 440      C354E537 
 440      6CA9FC8A 
 440      AA72
 441 0cd2 BA189FDE 		.ascii	"\272\030\237\336\203U\000\27371\\\025\310\332\206b\315"
 441      835500BB 
 441      37315C15 
 441      C8DA8662 
 441      CD
 442 0ce3 748C95AB 		.ascii	"t\214\225\253\325\246|\335S]\231\246n \3153\202\231"
 442      D5A67CDD 
 442      535D99A6 
 442      6E20CD33 
 442      8299
 443 0cf5 2E42930C 		.ascii	".B\223\014\204\016-\332r[h\271\266]\353\206\306\265"
 443      840E2DDA 
 443      725B68B9 
 443      B65DEB86 
 443      C6B5
 444 0d07 DAD1B53A 		.ascii	"\332\321\265:0B\334\304\3726\326\222[\037-z\030\234"
 444      3042DCC4 
 444      FA36D692 
 444      5B1F2D7A 
 444      189C
 445 0d19 4D6F57A5 		.ascii	"MoW\245\371~\022o\233\331t\3421\36465\360\203\227\320"
 445      F97E126F 
 445      9BD974E2 
 445      31F43635 
 445      F08397D0 
 446 0d2d 27A954C4 		.ascii	"'\251T\304\236*\314\015Vat\212\333i\344\177\305m\036"
 446      9E2ACC0D 
 446      5661748A 
 446      DB69E47F 
 446      C56D1E
 447 0d40 F9EF894B 		.ascii	"\371\357\211K\322\320E\022=]\245\0353\023%\3761M|4&"
 447      D2D04512 
 447      3D5DA51D 
 447      331325FE 
 447      314D7C34 
 448 0d55 31FAC800 		.ascii	"1\372\310\000f\241$_\214m:\277c\340[\225\025\315\322"
 448      66A1245F 
 448      8C6D3ABF 
 448      63E05B95 
 448      15CDD2
 449 0d68 45B20D64 		.ascii	"E\262\015d\377}\237j\267\341}\037\372*\210\346\205\037"
 449      FF7D9F6A 
 449      B7E17D1F 
 449      FA2A88E6 
 449      851F
 450 0d7a 8E39D543 		.ascii	"\2169\325C?\030\357c\226JR\2554WxF}\331\354oxE\225{"
 450      3F18EF63 
 450      964A52AD 
 450      34577846 
 450      7DD9EC6F 
 451 0d92 80299DF8 		.ascii	"\200)\235\370;+\177\317,'\357\017\276&\275\322\213E"
ARM GAS  /var/folders/c6/c789hm653lg9vtl73krp73tm0000gn/T//ccNxYKov.s 			page 36


 451      3B2B7FCF 
 451      2C27EF0F 
 451      BE26BDD2 
 451      8B45
 452 0da4 AE18A597 		.ascii	"\256\030\245\227\316\207^u\353\336\222%\002\326\305"
 452      CE875E75 
 452      EBDE9225 
 452      02D6C5
 453 0db3 E40E81CA 		.ascii	"\344\016\201\312f_\2647\024\321\022\322@Ne\020E\341"
 453      665FB437 
 453      14D112D2 
 453      404E6510 
 453      45E1
 454 0dc5 093EEF4B 		.ascii	"\011>\357K\2568K\257\033Y\252\351\312R\354\242|\033"
 454      AE384BAF 
 454      1B59AAE9 
 454      CA52ECA2 
 454      7C1B
 455 0dd7 92B5F258 		.ascii	"\222\265\362Xg\347\000\373<\3152Sw\374\307V\272\337"
 455      67E700FB 
 455      3CCD3253 
 455      77FCC756 
 455      BADF
 456 0de9 17FFBD8B 		.ascii	"\027\377\275\213\252M\373.\226N\036\024\251:\307\324"
 456      AA4DFB2E 
 456      964E1E14 
 456      A93AC7D4 
 457 0df9 3A6FAAD6 		.ascii	":o\252\326\341\331\031n\262\267R\233\334:J\267\275\244"
 457      E1D9196E 
 457      B2B7529B 
 457      DC3A4AB7 
 457      BDA4
 458 0e0b 1BCD8D67 		.ascii	"\033\315\215g!\260u7\344\226v\223g\342\232\200S_\375"
 458      21B07537 
 458      E4967693 
 458      67E29A80 
 458      535FFD
 459 0e1e 9A9BA2EB 		.ascii	"\232\233\242\353.\015\3055\204\"&\274u)z\015K8\221$"
 459      2E0DC535 
 459      842226BC 
 459      75297A0D 
 459      4B389124 
 460 0e32 774EADAC 		.ascii	"wN\255\254c\245\264\270\315j\2156\233cj\263\226\257"
 460      63A5B4B8 
 460      CD6A8D36 
 460      9B636AB3 
 460      96AF
 461 0e44 A8CD163D 		.ascii	"\250\315\026=i\337hKl\214\221e\346V\230k\264\302b[c"
 461      69DF684B 
 461      6C8C9165 
 461      E656986B 
 461      B4C2625B 
 462 0e59 44328C91 		.ascii	"D2\214\221\305F\341\226\231\010W\023\333{\245\361\227"
 462      C546E196 
 462      99085713 
 462      DB7BA5F1 
 462      97
ARM GAS  /var/folders/c6/c789hm653lg9vtl73krp73tm0000gn/T//ccNxYKov.s 			page 37


 463 0e6a 73EAA529 		.ascii	"s\352\245)\323\244\333\235/\263t\004p\314\356\034\243"
 463      D3A4DB9D 
 463      2FB37404 
 463      70CCEE1C 
 463      A3
 464 0e7b CF538CF7 		.ascii	"\317S\214\367\3150\344\313\333gH\254S\267^i\324\020"
 464      CD30E4CB 
 464      DB6748AC 
 464      53B75E69 
 464      D410
 465 0e8d 7D014CA7 		.ascii	"}\001L\247\2416\0136>4e\343h\202\015\012\3171'-\000"
 465      A1360B36 
 465      3E3465E3 
 465      68820D0A 
 465      CF31272D 
 466 0ea2 5699EAE2 		.ascii	"V\231\352\342\300\017\227\376u\256\264u\212\324\331"
 466      C00F97FE 
 466      75AEB475 
 466      8AD4D9
 467 0eb1 F9B28378 		.ascii	"\371\262\203x\270\332(\011\331\3270H2\253\2479#\365"
 467      B8DA2809 
 467      D9D73048 
 467      32ABA739 
 467      23F5
 468 0ec3 A68CCCFF 		.ascii	"\246\214\314\377\344\322?\307\031Qm\262\300\002b\255"
 468      E4D23FC7 
 468      19516DB2 
 468      C00262AD 
 469 0ed3 1EE2D7CC 		.ascii	"\036\342\327\314bi\317\036\010\356\247\373\317\222 "
 469      6269CF1E 
 469      08EEA7FB 
 469      CF9220
 470 0ee2 B84F913B 		.ascii	"\270O\221;;YP\310\022\2667yl\264\247a\274\030\336\255"
 470      3B5950C8 
 470      12B63779 
 470      6CB4A761 
 470      BC18DEAD 
 471 0ef6 E7980D3D 		.ascii	"\347\230\015=\351|w\017\263\255\347\002\222]-\301\267"
 471      E97C770F 
 471      B3ADE702 
 471      925D2DC1 
 471      B7
 472 0f07 D129AC7C 		.ascii	"\321)\254|\350+\311[S^M\030\003\035\303\031pB\243\223"
 472      E82BC95B 
 472      535E4D18 
 472      031DC319 
 472      7042A393 
 473 0f1b 1ADE67E7 		.ascii	"\032\336g\347\230o\342\220\307(\344\3128$\010;\263i"
 473      986FE290 
 473      C728E4CA 
 473      3824083B 
 473      B369
 474 0f2d 67DF0F2B 		.ascii	"g\337\017+\244)k@\333\235l\3470\033\357\276\251\017"
 474      A4296B40 
 474      DB9D6CE7 
 474      301BEFBE 
 474      A90F
ARM GAS  /var/folders/c6/c789hm653lg9vtl73krp73tm0000gn/T//ccNxYKov.s 			page 38


 475 0f3f 3975ECA1 		.ascii	"9u\354\241/\2435\270Ibr\316\240 \365\0358\215\256\216"
 475      2FA335B8 
 475      496272CE 
 475      A020F51D 
 475      388DAE8E 
 476 0f53 68B6F98E 		.ascii	"h\266\371\216\3426\3371\334\346k\305\272\001s\215\323"
 476      E236DF31 
 476      DCE66BC5 
 476      BA01738D 
 476      D3
 477 0f64 58FF15EB 		.ascii	"X\377\025\353\253XW\352\263\217\3668\035s\356\010!9"
 477      AB5857EA 
 477      B38FF638 
 477      1D73EE08 
 477      2139
 478 0f76 6114C383 		.ascii	"a\024\303\203[\204W+Ojt\233\277\177O]\300\252\327\326"
 478      5B84572B 
 478      4F6A749B 
 478      BF7F4F5D 
 478      C0AAD7D6 
 479 0f8a 442F4C4D 		.ascii	"D/LM*\223\336I\342\331\355(x\352\373Bf{+f\257\244"
 479      2A93DE49 
 479      E2D9ED28 
 479      78EAFB42 
 479      667B2B66 
 480 0fa0 B5771E2E 		.ascii	"\265w\036.\241\373U_\240\035>\356\225z\217F\207\203"
 480      A1FB555F 
 480      A01D3EEE 
 480      957A8F46 
 480      8783
 481 0fb2 CF68BA0D 		.ascii	"\317h\272\015y\370\255V\334\243!\307So>v\3067\325?w"
 481      79F8AD56 
 481      DCA321C7 
 481      536F3E76 
 481      C637D53F 
 482 0fc7 9379E813 		.ascii	"\223y\350\023d\241\311B\325)Rq\300\253\241\233\177\024"
 482      64A1C942 
 482      D5295271 
 482      C0ABA19B 
 482      7F14
 483 0fd9 6C8B63B0 		.ascii	"l\213c\260\\\035X\255\026\354s;`V\2518\200\315\326\202"
 483      5C1D58AD 
 483      16EC733B 
 483      6056A938 
 483      80CDD682 
 484 0fed 353B06D3 		.ascii	"5;\006\323s\366\226\026l\227\0350\253\275~\000\233\243"
 484      73F69616 
 484      6C971D30 
 484      ABBD7E00 
 484      9BA3
 485 0fff 05       		.ascii	"\005"
 486 1000 DBE3184C 		.ascii	"\333\343\030L\317\331<-\330>;`V/Z\000\330|-X\253c0="
 486      CFD93C2D 
 486      D83E3B60 
 486      562F5A00 
 486      D87C2D58 
 487 1018 670BB560 		.ascii	"g\013\265`1;`\271\326\234\255\326\202\235p\014\246\347"
ARM GAS  /var/folders/c6/c789hm653lg9vtl73krp73tm0000gn/T//ccNxYKov.s 			page 39


 487      313B60B9 
 487      D69CADD6 
 487      829D700C 
 487      A6E7
 488 102a AC5E0B76 		.ascii	"\254^\013v\332\016\230\325\343(\000\266V\013v\3161\230"
 488      DA0E98D5 
 488      E32800B6 
 488      560B76CE 
 488      3198
 489 103c 9EB3F55A 		.ascii	"\236\263\365Z\260Kv\300\362\2558+\2277\276\240\337\256"
 489      B04B76C0 
 489      F2AD382B 
 489      9737BEA0 
 489      DFAE
 490 104e 23A8A62B 		.ascii	"#\250\246+\240\304?\\!\227mc-/\343\331\023\216\227v"
 490      A0C43F5C 
 490      21976D63 
 490      2D2FE3D9 
 490      138E9776 
 491 1062 272D9676 		.ascii	"'-\226v\211I_{\025y\316\311(\266\351r\315\352\031\034"
 491      89495F7B 
 491      1579CEC9 
 491      28B6E972 
 491      CDEA191C 
 492 1076 50E266AD 		.ascii	"P\342f\255\022\333\355(\361Ik\260O\265`\267\355\200"
 492      12DBED28 
 492      F1496BB0 
 492      4FB560B7 
 492      ED80
 493 1088 99DDA356 		.ascii	"\231\335\243V\300>\323\202U\364v\012\246\347l\217\026"
 493      C03ED382 
 493      55F4760A 
 493      A6E76C8F 
 493      16
 494 1099 ACCA0ED8 		.ascii	"\254\312\016\330s\326\234\265h\301^u\014\246\345\254"
 494      73D69CB5 
 494      68C15E75 
 494      0CA6E5AC 
 495 10a9 5CDE9770 		.ascii	"\\\336\227p<\362\236\270\316\363\342;\246^\255\343\321"
 495      3CF29EB8 
 495      CEF3E23B 
 495      A65EADE3 
 495      D1
 496 10ba CB349E67 		.ascii	"\3134\236g\270\014\022\014\307\216w\315\302\361X\235"
 496      B80C120C 
 496      C78E77CD 
 496      C2F1589D 
 497 10ca E35D4B38 		.ascii	"\343]K8^\215Ql\035\023J\363y\023\035\232}\264\0235\317"
 497      5E8D516C 
 497      1D134AF3 
 497      79131D9A 
 497      7DB41335 
 498 10df 36BB4926 		.ascii	"6\273I&\261\303\215\033\272X\357\302z7\326\337`\275"
 498      B1C38D1B 
 498      BA58EFC2 
 498      7A37D6DF 
 498      60BD
ARM GAS  /var/folders/c6/c789hm653lg9vtl73krp73tm0000gn/T//ccNxYKov.s 			page 40


 499 10f1 17EBFD58 		.ascii	"\027\353\375X\037\304\3720\326mX\377/\326\307\260\376"
 499      1FC4FA30 
 499      D66D58FF 
 499      2FD6C7B0 
 499      FE
 500 1102 16EBE358 		.ascii	"\026\353\343X\177\217\365\031\254\317b}\036\353\213"
 500      7F8FF519 
 500      ACCF627D 
 500      1EEB8B
 501 1111 585FD626 		.ascii	"X_\326&d\206L\351\213$\371\325\017\226\371\325\312$"
 501      64864CE9 
 501      8B24F9D5 
 501      0F96F9D5 
 501      CA24
 502 1123 F9D58D44 		.ascii	"\371\325\215D/e\347\244m\345\227w\177H\036*\"\213\246"
 502      2F65E7A4 
 502      6DE59777 
 502      7F481E2A 
 502      228BA6
 503 1136 F229AC9A 		.ascii	"\362)\254\232\2427\366\266\263U\320n\\\231ut]\004\000"
 503      A237F6B6 
 503      B355D06E 
 503      5C997574 
 503      5D0400
 504 1149 9163ABBE 		.ascii	"\221c\253\276\373\355&\015\021\303\202dk\222\033\253"
 504      FBED260D 
 504      11C38264 
 504      6B921BAB 
 505 1159 B74CB631 		.ascii	"\267L\2661\256\233\363V!\325\277/e\250\373\010<{\323"
 505      AE9BF356 
 505      21D5BF2F 
 505      65A8FB08 
 505      3C7BD3
 506 116c 62B1A9E0 		.ascii	"b\261\251\340\3356e\265u\345\227\277\"O\321\222e\301"
 506      DD3665B5 
 506      75E597BF 
 506      224FD192 
 506      65C1
 507 117e BD943CC7 		.ascii	"\275\224<\307L\353c\213\240\344IJ\260\334cF\260\243"
 507      4CEB638B 
 507      A0E4494A 
 507      B0DC6346 
 507      B0A3
 508 1190 BE634017 		.ascii	"\276c@\027\202\273\354\021\254LNp\212)\301\266\225g"
 508      82BBEC11 
 508      AC4C4E70 
 508      8A29C1B6 
 508      9567
 509 11a2 7EA9B738 		.ascii	"~\251\2678]`\306\0144\2255\374\301\304\226\3105\274"
 509      5D60C60C 
 509      349535FC 
 509      C1C496C8 
 509      35BC
 510 11b4 62AA05D1 		.ascii	"b\252\005\321\370\006\216\342(\207\245\347\372\306\035"
 510      F8068EE2 
 510      2887A5E7 
 510      FAC61D
ARM GAS  /var/folders/c6/c789hm653lg9vtl73krp73tm0000gn/T//ccNxYKov.s 			page 41


 511 11c3 8574D239 		.ascii	"\205t\3229J\225\2367\203\017\257N\342\303\323=\006\037"
 511      4A959E37 
 511      830FAF4E 
 511      E2C3D33D 
 511      061F
 512 11d5 96172A3B 		.ascii	"\226\027*;Q\213\344^\2520\035\346\302\264\251\302\360"
 512      518BE45E 
 512      AA301DE6 
 512      C2B4A9C2 
 512      F0
 513 11e6 EC340F59 		.ascii	"\3544\017Y\353\315\350\21603\214\302\274\226T\230\352"
 513      EBCDE88E 
 513      30338CC2 
 513      BC965498 
 513      EA
 514 11f7 24C2D424 		.ascii	"$\302\324$\204a\334\376b>r\337\300\201y\364\2574\232"
 514      8461DCFE 
 514      623E72DF 
 514      C08179F4 
 514      AF349A
 515 120a 1711F302 		.ascii	"\027\021\363\002%\376`Y\221\220\347/\216N\216\212\223"
 515      25FE6059 
 515      9190E72F 
 515      8E4E8E8A 
 515      93
 516 121b C3427460 		.ascii	"\303Bt`1s\347\204@D,\343\203>1\020\022\"Q_0\020\025"
 516      3173E784 
 516      40442CE3 
 516      833E3110 
 516      1222515F 
 517 1232 7D62DAD3 		.ascii	"}b\332\323\277\377cn\001s\227\277\330gr>\327\032\330"
 517      BFFF636E 
 517      017397BF 
 517      D867723E 
 517      D71AD8
 518 1245 5F5C04A0 		.ascii	"_\\\004\240=u\235|b/#N\372\004\321W\"L\022\311w8\"L"
 518      3D759D7C 
 518      622F234E 
 518      FA04D157 
 518      224C12C9 
 519 125d C8201CC1 		.ascii	"\310 \034\301\011\237\370l^Y4\222\027,\365\363\301\274"
 519      099FF86C 
 519      5E593492 
 519      172CF5F3 
 519      C1BC
 520 126f 022118E4 		.ascii	"\002!\030\344#y\343\375\376\207\370H\350\241\222\322"
 520      2379E3FD 
 520      FE87F848 
 520      E8A192D2 
 521 127f 12E12181 		.ascii	"\022\341!\201\037\033\310\033\234?\350\341\374\241\371"
 521      1F1BC81B 
 521      9C3FE8E1 
 521      FCA1F9
 522 128e 8FE4E90F 		.ascii	"\217\344\351\017\253|D\305\242@\211\010|x\313\340{\310"
 522      AB7C44C5 
 522      A2408908 
 522      7C78CBE0 
ARM GAS  /var/folders/c6/c789hm653lg9vtl73krp73tm0000gn/T//ccNxYKov.s 			page 42


 522      7BC8
 523 12a0 609FF8EF 		.ascii	"`\237\370\357?\001j\210\367\027\007J\204<_\2210\216"
 523      3F016A88 
 523      F717074A 
 523      843C5F91 
 523      308E
 524 12b2 2F0B8296 		.ascii	"/\013\202\226\024\025f\372|*\035/\310S$\004E\036\032"
 524      141566FA 
 524      7C2A1D2F 
 524      C8532404 
 524      451E1A
 525 12c5 E3CA4AFC 		.ascii	"\343\312J\374>\224\220\264\322\210\244|$\013\276\202"
 525      3E9490B4 
 525      D288A47C 
 525      240BBE82 
 526 12d5 7C5424C2 		.ascii	"|T$\302\302!\242\315\014P\016\021_\010eG\004\276h\262"
 526      C221A2CD 
 526      0C500E11 
 526      5F086547 
 526      04BE68B2 
 527 12e9 62821E70 		.ascii	"b\202\036p8\361\273\247XL~D}\177*\023\312\004\252Q\335"
 527      38F1BBA7 
 527      584C7E44 
 527      7D7F2A13 
 527      CA04AA51 
 528 12fe 212FFDE5 		.ascii	"!/\375\345C8\332N\013\243\216\341\213\250\370a\203\321"
 528      4338DA4E 
 528      0BA38EE1 
 528      8BA8F861 
 528      83D1
 529 1310 C2A51131 		.ascii	"\302\245\0211\2327\274pT\301\250Iy\376\322P8\020\004"
 529      9A37BC70 
 529      54C1A849 
 529      79FED250 
 529      381004
 530 1323 FBE63D5D 		.ascii	"\373\346=]P\000vTEK\027\303\221@\251\217b\004J\323\375"
 530      50007654 
 530      454B17C3 
 530      9140A98F 
 530      62044AD3 
 531 1338 A5252240 		.ascii	"\245%\"@\336\237\024\253\330_\032\021\240s\0269\354"
 531      DE9F14AB 
 531      D85F1A11 
 531      A0731639 
 531      EC
 532 1349 03CDF8C5 		.ascii	"\003\315\370\305I\017\244\356\341\233\360X\210\330,"
 532      490FA4EE 
 532      E19BF058 
 532      88D82C
 533 1358 228C0703 		.ascii	"\"\214\007\003\370D.\3620\027y\204\213<\312E\036\343"
 533      F8442EF2 
 533      30177984 
 533      8B3CCA45 
 533      1EE3
 534 136a 2243B9C8 		.ascii	"\"C\271\310\343\256\310\240|(\203\270`\004\276\206x"
 534      E3AEC8A0 
 534      7C2883B8 
ARM GAS  /var/folders/c6/c789hm653lg9vtl73krp73tm0000gn/T//ccNxYKov.s 			page 43


 534      6004BE86 
 534      78
 535 137b C23E404E 		.ascii	"\302>@N'RN\004\227\012\373J\203EB\204H\315\207\204\314"
 535      27524E04 
 535      970AFB4A 
 535      83454284 
 535      48CD8784 
 536 1390 A8F8121F 		.ascii	"\250\370\022\037\014\214/\001\243\020\353<\372\260O"
 536      0C8C2F01 
 536      A310EB3C 
 536      FAB04F
 537 139f 540C85CD 		.ascii	"T\014\205\315\260\017.\010\006B\001\321+FE^\004\235"
 537      B00F2E08 
 537      064201D1 
 537      2B46455E 
 537      049D
 538 13b1 A6939343 		.ascii	"\246\223\223CA\203\3642h\245\223\253\340\\\272\030*"
 538      4183F432 
 538      68A593AB 
 538      E05CBA18 
 538      2A
 539 13c2 2D12F0F7 		.ascii	"-\022\360\367\270 ?>\232.F\204qQT\013ixB\321\361pR\361"
 539      B8203F3E 
 539      9A2E4684 
 539      7151540B 
 539      697842D1 
 540 13da 01E8AEB4 		.ascii	"\001\350\256\264\322\"E\223\341\224W\230\024\020\375"
 540      D2224593 
 540      E1945798 
 540      1410FD
 541 13e9 00903651 		.ascii	"\000\2206Q,\035\373_\341>\212\251\240\253\020\021J\374"
 541      2C1DFB5F 
 541      E13E8AA9 
 541      A0AB1011 
 541      4AFC
 542 13fb 00EC9928 		.ascii	"\000\354\231(\212\221p6\361\004!\304\207\213A\035\003"
 542      8A917036 
 542      F10421C4 
 542      878B411D 
 542      03
 543 140c AC079940 		.ascii	"\254\007\231@\364\224\256\030\336\343/\001o\361D}\360"
 543      F494AE18 
 543      DEE32F01 
 543      6FF1447D 
 543      F0
 544 141d 0D04E064 		.ascii	"\015\004\340d\330\0138\24120\2245FH\234D0B\024\003\276"
 544      D80B38A1 
 544      32309435 
 544      46489C44 
 544      30421403 
 545 1432 4B279680 		.ascii	"K'\226\200\016\261\0270\036\242\2363Q\204\353\302Y\302"
 545      0EB11730 
 545      1EA29E33 
 545      5184EBC2 
 545      59C2
 546 1444 04A1440C 		.ascii	"\004\241D\014\361\321\227\340\2140\2214\\a_Y\216\352"
 546      F1D197E0 
ARM GAS  /var/folders/c6/c789hm653lg9vtl73krp73tm0000gn/T//ccNxYKov.s 			page 44


 546      8C309134 
 546      5C615F59 
 546      8EEA
 547 1456 7FD45F7B 		.ascii	"\177\324_{j<\022\335:\354\233\310\007\304@\311x\320"
 547      6A3C12DD 
 547      3AEC9BC8 
 547      07C440C9 
 547      78D0
 548 1468 35688132 		.ascii	"5h\2012\213M8 \204\205\022\030\244\343\341* A\256\317"
 548      8B4D3820 
 548      84851218 
 548      A4E3E12A 
 548      2041AECF 
 549 147c 24BAE483 		.ascii	"$\272\344\203\350fp0\\Z\032\274\307\222}\221h\240\017"
 549      E8667030 
 549      5C5A1ABC 
 549      C7927D91 
 549      68A00F
 550 148f 468C90C0 		.ascii	"F\214\220\300G\313\"BH jH\217\210\250\016\367X!\012"
 550      47CB2242 
 550      48206A48 
 550      8F88A80E 
 550      F758210A 
 551 14a3 4A2D8D44 		.ascii	"J-\215DE7\031niex\230-\361FD\032g2\375e\241\262 /\006"
 551      4537196E 
 551      69657898 
 551      2DF14644 
 551      1A6732FD 
 552 14bd 26088A95 		.ascii	"&\010\212\225\243\351\021\252\215\264\010:\273'\202"
 552      A3E911AA 
 552      8DB4083A 
 552      BB2782
 553 14cc EE1551DC 		.ascii	"\356\025Q\334+B\335+\003\216\226E\300l\242'B\330\316"
 553      2B42DD2B 
 553      038E9645 
 553      C06CA227 
 553      42D8CE
 554 14df A1431746 		.ascii	"\241C\027F\375\330\262\361T\013\332#\031a\276$\340'"
 554      FDD8B2F1 
 554      540BDA23 
 554      1961BE24 
 554      E027
 555 14f1 42A707A2 		.ascii	"B\247\007\242\021b#/D\241\227H\343^K\351\260'\010\330"
 555      1162232F 
 555      44A19748 
 555      E35E4BE9 
 555      B02708D8 
 556 1505 9BA834C2 		.ascii	"\233\2504\302\203\203\214-\0337\216\004\322tq\254/\032"
 556      83838C2D 
 556      1B378E04 
 556      D27471AC 
 556      2F1A
 557 1517 F86F2187 		.ascii	"\370o!\207\220\231\350\367\241e\340pT\300\270\352!\337"
 557      9099E8F7 
 557      A165E070 
 557      54C0B8EA 
 557      21DF
ARM GAS  /var/folders/c6/c789hm653lg9vtl73krp73tm0000gn/T//ccNxYKov.s 			page 45


 558 1529 E10CA8A9 		.ascii	"\341\014\250\251\247y\241\205\016\234\006\375\302b$"
 558      A779A185 
 558      0E9C06FD 
 558      C26224
 559 1538 03BE2854 		.ascii	"\003\276(T\266\026\327U4v|f\210\007\257E\373\365\022"
 559      B616D755 
 559      34767C66 
 559      8807AF45 
 559      FBF512
 560 154b 433E0894 		.ascii	"C>\010\224\201\261\021PO)\014\240\264\322q\343\242\202"
 560      81B11150 
 560      4F290CA0 
 560      B4D271E3 
 560      A282
 561 155d C889216B 		.ascii	"\310\211!k\236Q\203\300s\316KB\244D\010R\215\202_\226"
 561      9E5183C0 
 561      73CE4B42 
 561      A4440852 
 561      8D825F96 
 562 1571 F802913F 		.ascii	"\370\002\221?yK\210*\201\341L@\216\004\200\343\342\""
 562      794B882A 
 562      81E14C40 
 562      8E0480E3 
 562      E222
 563 1583 B5096AC9 		.ascii	"\265\011j\311\326\366\311\011\024\005\005\305\223\300"
 563      D6F6C909 
 563      140505C5 
 563      93C0
 564 1591 83EE3650 		.ascii	"\203\3566P\214F\374@m\2028\320\317\334\341/\376\267"
 564      8C46FC40 
 564      6D8238D0 
 564      CFDCE12F 
 564      FEB7
 565 15a3 31234A0B 		.ascii	"1#J\013\005\340m\344@\010\256\342\300|\327\0041\354"
 565      05E06DE4 
 565      4008AEE2 
 565      C07CD704 
 565      31EC
 566 15b5 F54D2061 		.ascii	"\365M a'\0006\306\013F\303i\017De~r\032\215\312.\270"
 566      270036C6 
 566      0B46C369 
 566      0F44657E 
 566      721A8DCA 
 567 15cb 365BDBF9 		.ascii	"6[\333\371WZ\"\3050G$f\022\022\307\242\342h\2614<\034"
 567      575A22C5 
 567      30472466 
 567      1212C7A2 
 567      E268B134 
 568 15e1 668D1084 		.ascii	"f\215\020\204\025\200\303f69\014D\361G\222\321:\231"
 568      1580C366 
 568      36390C44 
 568      F14792D1 
 568      3A99
 569 15f3 A805A2F2 		.ascii	"\250\005\242\362\350\311\321g\370 \211\334#\306\216"
 569      E8C9D167 
 569      F82089DC 
 569      23C68E
ARM GAS  /var/folders/c6/c789hm653lg9vtl73krp73tm0000gn/T//ccNxYKov.s 			page 46


 570 1602 2F2816FC 		.ascii	"/(\026\374/\025\200kFGz}8A\370|=\324\306\300G\037y\364"
 570      2F15806B 
 570      46477A7D 
 570      3841F87C 
 570      3DD4C6C0 
 571 161a 91AC04F3 		.ascii	"\221\254\004\363\214\366\314cCzhYg\262\022\036'r\376"
 571      8CF6CC63 
 571      437A6859 
 571      67B2121E 
 571      2772FE
 572 162d E2C14651 		.ascii	"\342\301FQh\244\035=f\324\220\301y\317>;\"o\314\310"
 572      68A41D3D 
 572      66D490C1 
 572      79CF3E3B 
 572      226FCCC8 
 573 1641 51130681 		.ascii	"Q\023\006\201`!\022\241\002!*\237\362\303'\272\012\012"
 573      602112A1 
 573      02212A9F 
 573      F2C327BA 
 573      0A0A
 574 1653 074119EC 		.ascii	"\007A\031\354\036=\252\240\320=b\344S\205\334\350B\327"
 574      1E3DAAA0 
 574      D03D62E4 
 574      5385DCE8 
 574      42D7
 575 1665 534F177A 		.ascii	"SO\027z\012\012F\025\016\302z\260\273\240\340\251BW"
 575      0A0A4615 
 575      0EC27AB0 
 575      BBA0E0A9 
 575      4257
 576 1677 C1EFC7B8 		.ascii	"\301\357\307\270\236\033]\340\032^X\350*,\200\337\320"
 576      9E1B5DE0 
 576      1A5E58E8 
 576      2A2C80DF 
 576      D0
 577 1688 E17723C6 		.ascii	"\341w#\306\024\272F\220\236\243\206\027r\177\240\275"
 577      14BA4690 
 577      9EA38617 
 577      727FA0BD 
 578 1698 86C0F5CF 		.ascii	"\206\300\365\317\027\376\306\306\014\200\271\001IJp"
 578      17FEC6C6 
 578      0C80B901 
 578      494A70
 579 16a7 E6A0C943 		.ascii	"\346\240\311C\024T\357\343\211\216\255\303\301\004b"
 579      1454EFE3 
 579      898EADC3 
 579      C10462
 580 16b6 A63E442D 		.ascii	"\246>D-O\013\342hT\306\030\350\374\374\035\032\234\361"
 580      4F0BE268 
 580      54C618E8 
 580      FCFC1D1A 
 580      9CF1
 581 16c8 026DE5D9 		.ascii	"\002m\345\331U\220/\030$\271L\037\332\302\376\376\322"
 581      55902F18 
 581      24B94C1F 
 581      DAC2FEFE 
 581      D2
ARM GAS  /var/folders/c6/c789hm653lg9vtl73krp73tm0000gn/T//ccNxYKov.s 			page 47


 582 16d9 3298FF22 		.ascii	"2\230\377\"\277\320\262\007\207\221;7\371}\227\216q"
 582      BFD0B207 
 582      87913B37 
 582      F97D978E 
 582      71
 583 16ea 700E7AEE 		.ascii	"p\016z\356\377\000\345U\001]"
 583      FF00E555 
 583      015D
 584              		.text
 585              		.section	.gnu.lto_.symtab.69f6f76ab6f04acf,"",%progbits
 586 0000 5F76745F 		.ascii	"_vt_init\000\000\000\000\000\000\000\000\000\000\000"
 586      696E6974 
 586      00000000 
 586      00000000 
 586      000000
 587 0013 000E0200 		.ascii	"\000\016\002\000\000chVTDoSetI\000\000\000\000\000\000"
 587      00636856 
 587      54446F53 
 587      65744900 
 587      00000000 
 588 0028 00000000 		.ascii	"\000\000\000\000\000\000\022\002\000\000chVTDoReset"
 588      00001202 
 588      00006368 
 588      5654446F 
 588      52657365 
 589 003d 49000000 		.ascii	"I\000\000\000\000\000\000\000\000\000\000\000\000!\002"
 589      00000000 
 589      00000000 
 589      002102
 590 004c 00006368 		.ascii	"\000\000ch\000\000\002\000\000\000\000\000\000\000\000"
 590      00000200 
 590      00000000 
 590      000000
 591 005b 003C0200 		.ascii	"\000<\002\000\000stStopAlarm\000\000\002\000\000\000"
 591      00737453 
 591      746F7041 
 591      6C61726D 
 591      00000200 
 592 0071 00000000 		.ascii	"\000\000\000\000\000\000'\002\000\000stSetAlarm\000"
 592      00002702 
 592      00007374 
 592      53657441 
 592      6C61726D 
 593 0086 00020000 		.ascii	"\000\002\000\000\000\000\000\000\000\000\000)\002\000"
 593      00000000 
 593      00000029 
 593      0200
 594 0094 00737453 		.ascii	"\000stStartAlarm\000\000\002\000\000\000\000\000\000"
 594      74617274 
 594      416C6172 
 594      6D000002 
 594      00000000 
 595 00aa 0000002D 		.ascii	"\000\000\000-\002\000\000chSysHalt\000\000\002\000\000"
 595      02000063 
 595      68537973 
 595      48616C74 
 595      00000200 
ARM GAS  /var/folders/c6/c789hm653lg9vtl73krp73tm0000gn/T//ccNxYKov.s 			page 48


 596 00bf 00000000 		.ascii	"\000\000\000\000\000\000\000/\002\000\000chDbgCheck"
 596      0000002F 
 596      02000063 
 596      68446267 
 596      43686563 
 597 00d4 436C6173 		.ascii	"ClassI\000\000\002\000\000\000\000\000\000\000\000\000"
 597      73490000 
 597      02000000 
 597      00000000 
 597      0000
 598 00e6 33020000 		.ascii	"3\002\000\000"
 599              		.text
 600              		.section	.gnu.lto_.opts,"",%progbits
 601 0000 272D6D63 		.ascii	"'-mcpu=cortex-m4' '-mno-thumb-interwork' '-mthumb' "
 601      70753D63 
 601      6F727465 
 601      782D6D34 
 601      2720272D 
 602 0033 272D6767 		.ascii	"'-ggdb' '-O2' '-fomit-frame-pointer' '-falign-funct"
 602      64622720 
 602      272D4F32 
 602      2720272D 
 602      666F6D69 
 603 0066 696F6E73 		.ascii	"ions=16' '-ffunction-sections' '-fdata-sections' '-"
 603      3D313627 
 603      20272D66 
 603      66756E63 
 603      74696F6E 
 604 0099 666E6F2D 		.ascii	"fno-common' '-flto'\000"
 604      636F6D6D 
 604      6F6E2720 
 604      272D666C 
 604      746F2700 
 605              		.text
 606              		.cfi_sections	.debug_frame
 607              		.section	.text._vt_init,"ax",%progbits
 608              		.align	2
 609              		.p2align 4,,15
 610              		.global	_vt_init
 611              		.thumb
 612              		.thumb_func
 613              		.type	_vt_init, %function
 614              	_vt_init:
 615              	.LFB229:
 616              		.file 1 "../../../os/rt/src/chvt.c"
 617              		.loc 1 61 0
 618              		.cfi_startproc
 619              		@ args = 0, pretend = 0, frame = 0
 620              		@ frame_needed = 0, uses_anonymous_args = 0
 621              		@ link register save eliminated.
 622              		.loc 1 63 0
 623 0000 054B     		ldr	r3, .L2
 624              		.loc 1 65 0
 625 0002 4FF0FF30 		mov	r0, #-1
 626              		.loc 1 63 0
 627 0006 03F11C02 		add	r2, r3, #28
 628              		.loc 1 69 0
ARM GAS  /var/folders/c6/c789hm653lg9vtl73krp73tm0000gn/T//ccNxYKov.s 			page 49


 629 000a 0021     		movs	r1, #0
 630              		.loc 1 65 0
 631 000c 5862     		str	r0, [r3, #36]
 632              		.loc 1 69 0
 633 000e 9962     		str	r1, [r3, #40]
 634              		.loc 1 63 0
 635 0010 DA61     		str	r2, [r3, #28]
 636              		.loc 1 64 0
 637 0012 1A62     		str	r2, [r3, #32]
 638 0014 7047     		bx	lr
 639              	.L3:
 640 0016 00BF     		.align	2
 641              	.L2:
 642 0018 00000000 		.word	ch
 643              		.cfi_endproc
 644              	.LFE229:
 645              		.size	_vt_init, .-_vt_init
 646 001c AFF30080 		.section	.text.chVTDoSetI,"ax",%progbits
 647              		.align	2
 648              		.p2align 4,,15
 649              		.global	chVTDoSetI
 650              		.thumb
 651              		.thumb_func
 652              		.type	chVTDoSetI, %function
 653              	chVTDoSetI:
 654              	.LFB230:
 655              		.loc 1 96 0
 656              		.cfi_startproc
 657              		@ args = 0, pretend = 0, frame = 0
 658              		@ frame_needed = 0, uses_anonymous_args = 0
 659              	.LVL0:
 660 0000 2DE9F041 		push	{r4, r5, r6, r7, r8, lr}
 661              		.cfi_def_cfa_offset 24
 662              		.cfi_offset 4, -24
 663              		.cfi_offset 5, -20
 664              		.cfi_offset 6, -16
 665              		.cfi_offset 7, -12
 666              		.cfi_offset 8, -8
 667              		.cfi_offset 14, -4
 668              		.loc 1 96 0
 669 0004 0546     		mov	r5, r0
 670 0006 0E46     		mov	r6, r1
 671 0008 1446     		mov	r4, r2
 672 000a 9846     		mov	r8, r3
 673              		.loc 1 100 0
 674 000c FFF7FEFF 		bl	chDbgCheckClassI
 675              	.LVL1:
 676              		.loc 1 101 0
 677 0010 002D     		cmp	r5, #0
 678 0012 2ED0     		beq	.L5
 679              		.loc 1 101 0 is_stmt 0 discriminator 2
 680 0014 002C     		cmp	r4, #0
 681 0016 2CD0     		beq	.L5
 682              		.loc 1 101 0 discriminator 1
 683 0018 5EB3     		cbz	r6, .L5
 684              	.L6:
 685              	.LBB35:
ARM GAS  /var/folders/c6/c789hm653lg9vtl73krp73tm0000gn/T//ccNxYKov.s 			page 50


 686              		.loc 1 117 0 is_stmt 1
 687 001a 1F4F     		ldr	r7, .L22
 688              	.LBE35:
 689              		.loc 1 103 0
 690 001c C5F81080 		str	r8, [r5, #16]
 691              	.LBB50:
 692              		.loc 1 117 0
 693 0020 3B46     		mov	r3, r7
 694              		.loc 1 113 0
 695 0022 012E     		cmp	r6, #1
 696              		.loc 1 117 0
 697 0024 53F81C1F 		ldr	r1, [r3, #28]!
 698              	.LBE50:
 699              		.loc 1 104 0
 700 0028 EC60     		str	r4, [r5, #12]
 701              	.LBB51:
 702              	.LBB36:
 703              	.LBB37:
 704              	.LBB38:
 705              	.LBB39:
 706              		.file 2 "../../../os/hal/ports/STM32/LLD/TIMv1/st_lld.h"
 707              		.loc 2 129 0
 708 002a 4FF08042 		mov	r2, #1073741824
 709              	.LBE39:
 710              	.LBE38:
 711              	.LBE37:
 712              	.LBE36:
 713              		.loc 1 113 0
 714 002e 98BF     		it	ls
 715 0030 0226     		movls	r6, #2
 716              	.LVL2:
 717              		.loc 1 117 0
 718 0032 9942     		cmp	r1, r3
 719              	.LBB43:
 720              	.LBB42:
 721              	.LBB41:
 722              	.LBB40:
 723              		.loc 2 129 0
 724 0034 506A     		ldr	r0, [r2, #36]
 725              	.LVL3:
 726              	.LBE40:
 727              	.LBE41:
 728              	.LBE42:
 729              	.LBE43:
 730              		.loc 1 117 0
 731 0036 23D0     		beq	.L20
 732              		.loc 1 136 0
 733 0038 BC6A     		ldr	r4, [r7, #40]
 734              	.LVL4:
 735              		.loc 1 137 0
 736 003a 8B68     		ldr	r3, [r1, #8]
 737              		.loc 1 136 0
 738 003c 3044     		add	r0, r0, r6
 739 003e 041B     		subs	r4, r0, r4
 740              	.LVL5:
 741              		.loc 1 137 0
 742 0040 9C42     		cmp	r4, r3
ARM GAS  /var/folders/c6/c789hm653lg9vtl73krp73tm0000gn/T//ccNxYKov.s 			page 51


 743 0042 1AD3     		bcc	.L21
 744              	.LVL6:
 745              	.L9:
 746              	.LBE51:
 747              		.loc 1 150 0
 748 0044 FB69     		ldr	r3, [r7, #28]
 749              	.LVL7:
 750              		.loc 1 151 0
 751 0046 9A68     		ldr	r2, [r3, #8]
 752 0048 9442     		cmp	r4, r2
 753 004a 04D9     		bls	.L10
 754              	.L11:
 755              		.loc 1 153 0
 756 004c 1B68     		ldr	r3, [r3]
 757              	.LVL8:
 758              		.loc 1 152 0
 759 004e A41A     		subs	r4, r4, r2
 760              	.LVL9:
 761              		.loc 1 151 0
 762 0050 9A68     		ldr	r2, [r3, #8]
 763 0052 A242     		cmp	r2, r4
 764 0054 FAD3     		bcc	.L11
 765              	.L10:
 766              		.loc 1 158 0
 767 0056 5A68     		ldr	r2, [r3, #4]
 768 0058 6A60     		str	r2, [r5, #4]
 769              		.loc 1 157 0
 770 005a 2B60     		str	r3, [r5]
 771              		.loc 1 159 0
 772 005c 1560     		str	r5, [r2]
 773              		.loc 1 160 0
 774 005e 5D60     		str	r5, [r3, #4]
 775              		.loc 1 161 0
 776 0060 AC60     		str	r4, [r5, #8]
 777              		.loc 1 165 0
 778 0062 9A68     		ldr	r2, [r3, #8]
 779              		.loc 1 166 0
 780 0064 4FF0FF31 		mov	r1, #-1
 781              		.loc 1 165 0
 782 0068 141B     		subs	r4, r2, r4
 783              	.LVL10:
 784 006a 9C60     		str	r4, [r3, #8]
 785              	.LVL11:
 786              		.loc 1 166 0
 787 006c 7962     		str	r1, [r7, #36]
 788 006e BDE8F081 		pop	{r4, r5, r6, r7, r8, pc}
 789              	.LVL12:
 790              	.L5:
 791              		.loc 1 101 0 discriminator 1
 792 0072 0A48     		ldr	r0, .L22+4
 793 0074 FFF7FEFF 		bl	chSysHalt
 794              	.LVL13:
 795 0078 CFE7     		b	.L6
 796              	.LVL14:
 797              	.L21:
 798              	.LBB52:
 799              	.LBB44:
ARM GAS  /var/folders/c6/c789hm653lg9vtl73krp73tm0000gn/T//ccNxYKov.s 			page 52


 800              	.LBB45:
 801              		.file 3 "../../../os/rt/ports/ARMCMx/chcore_timer.h"
 802              		.loc 3 95 0
 803 007a FFF7FEFF 		bl	stSetAlarm
 804              	.LVL15:
 805 007e E1E7     		b	.L9
 806              	.LVL16:
 807              	.L20:
 808              	.LBE45:
 809              	.LBE44:
 810              		.loc 1 121 0
 811 0080 B862     		str	r0, [r7, #40]
 812              		.loc 1 122 0
 813 0082 FD61     		str	r5, [r7, #28]
 814              		.loc 1 123 0
 815 0084 3D62     		str	r5, [r7, #32]
 816              	.LBB46:
 817              	.LBB47:
 818              		.loc 3 73 0
 819 0086 3044     		add	r0, r0, r6
 820              	.LBE47:
 821              	.LBE46:
 822              		.loc 1 124 0
 823 0088 2960     		str	r1, [r5]
 824              		.loc 1 125 0
 825 008a 6960     		str	r1, [r5, #4]
 826              		.loc 1 126 0
 827 008c AE60     		str	r6, [r5, #8]
 828              	.LVL17:
 829              	.LBE52:
 830              		.loc 1 167 0
 831 008e BDE8F041 		pop	{r4, r5, r6, r7, r8, lr}
 832              	.LVL18:
 833              	.LBB53:
 834              	.LBB49:
 835              	.LBB48:
 836              		.loc 3 73 0
 837 0092 FFF7FEBF 		b	stStartAlarm
 838              	.LVL19:
 839              	.L23:
 840 0096 00BF     		.align	2
 841              	.L22:
 842 0098 00000000 		.word	ch
 843 009c 00000000 		.word	.LANCHOR0
 844              	.LBE48:
 845              	.LBE49:
 846              	.LBE53:
 847              		.cfi_endproc
 848              	.LFE230:
 849              		.size	chVTDoSetI, .-chVTDoSetI
 850              		.section	.text.chVTDoResetI,"ax",%progbits
 851              		.align	2
 852              		.p2align 4,,15
 853              		.global	chVTDoResetI
 854              		.thumb
 855              		.thumb_func
 856              		.type	chVTDoResetI, %function
ARM GAS  /var/folders/c6/c789hm653lg9vtl73krp73tm0000gn/T//ccNxYKov.s 			page 53


 857              	chVTDoResetI:
 858              	.LFB231:
 859              		.loc 1 177 0
 860              		.cfi_startproc
 861              		@ args = 0, pretend = 0, frame = 0
 862              		@ frame_needed = 0, uses_anonymous_args = 0
 863              	.LVL20:
 864 0000 10B5     		push	{r4, lr}
 865              		.cfi_def_cfa_offset 8
 866              		.cfi_offset 4, -8
 867              		.cfi_offset 14, -4
 868              		.loc 1 177 0
 869 0002 0446     		mov	r4, r0
 870              		.loc 1 179 0
 871 0004 FFF7FEFF 		bl	chDbgCheckClassI
 872              	.LVL21:
 873              		.loc 1 180 0
 874 0008 002C     		cmp	r4, #0
 875 000a 33D0     		beq	.L34
 876              	.L25:
 877              		.loc 1 181 0 discriminator 1
 878 000c E368     		ldr	r3, [r4, #12]
 879 000e 002B     		cmp	r3, #0
 880 0010 34D0     		beq	.L35
 881              	.L26:
 882              		.loc 1 201 0
 883 0012 1E4A     		ldr	r2, .L37
 884 0014 D369     		ldr	r3, [r2, #28]
 885 0016 A342     		cmp	r3, r4
 886 0018 0FD0     		beq	.L27
 887              		.loc 1 203 0
 888 001a 6168     		ldr	r1, [r4, #4]
 889 001c 2368     		ldr	r3, [r4]
 890 001e 0B60     		str	r3, [r1]
 891              		.loc 1 204 0
 892 0020 2368     		ldr	r3, [r4]
 893              		.loc 1 208 0
 894 0022 1C32     		adds	r2, r2, #28
 895              		.loc 1 205 0
 896 0024 0020     		movs	r0, #0
 897              		.loc 1 208 0
 898 0026 9342     		cmp	r3, r2
 899              		.loc 1 204 0
 900 0028 5960     		str	r1, [r3, #4]
 901              		.loc 1 205 0
 902 002a E060     		str	r0, [r4, #12]
 903              		.loc 1 208 0
 904 002c 04D0     		beq	.L24
 905              		.loc 1 209 0
 906 002e A168     		ldr	r1, [r4, #8]
 907 0030 9A68     		ldr	r2, [r3, #8]
 908 0032 0A44     		add	r2, r2, r1
 909 0034 9A60     		str	r2, [r3, #8]
 910 0036 10BD     		pop	{r4, pc}
 911              	.LVL22:
 912              	.L24:
 913 0038 10BD     		pop	{r4, pc}
ARM GAS  /var/folders/c6/c789hm653lg9vtl73krp73tm0000gn/T//ccNxYKov.s 			page 54


 914              	.LVL23:
 915              	.L27:
 916              	.LBB64:
 917              	.LBB65:
 918              		.loc 1 215 0
 919 003a 1146     		mov	r1, r2
 920 003c 2368     		ldr	r3, [r4]
 921 003e 41F81C3F 		str	r3, [r1, #28]!
 922              		.loc 1 217 0
 923 0042 0020     		movs	r0, #0
 924              		.loc 1 220 0
 925 0044 8B42     		cmp	r3, r1
 926              		.loc 1 216 0
 927 0046 5960     		str	r1, [r3, #4]
 928              		.loc 1 217 0
 929 0048 E060     		str	r0, [r4, #12]
 930              		.loc 1 220 0
 931 004a 1BD0     		beq	.L36
 932              		.loc 1 227 0
 933 004c A068     		ldr	r0, [r4, #8]
 934 004e 9968     		ldr	r1, [r3, #8]
 935              		.loc 1 236 0
 936 0050 946A     		ldr	r4, [r2, #40]
 937              	.LVL24:
 938              		.loc 1 227 0
 939 0052 4218     		adds	r2, r0, r1
 940              	.LBB66:
 941              	.LBB67:
 942              	.LBB68:
 943              	.LBB69:
 944              		.loc 2 129 0
 945 0054 4FF08041 		mov	r1, #1073741824
 946              	.LBE69:
 947              	.LBE68:
 948              	.LBE67:
 949              	.LBE66:
 950              		.loc 1 227 0
 951 0058 9A60     		str	r2, [r3, #8]
 952              	.LBB73:
 953              	.LBB72:
 954              	.LBB71:
 955              	.LBB70:
 956              		.loc 2 129 0
 957 005a 486A     		ldr	r0, [r1, #36]
 958              	.LBE70:
 959              	.LBE71:
 960              	.LBE72:
 961              	.LBE73:
 962              		.loc 1 236 0
 963 005c 031B     		subs	r3, r0, r4
 964              	.LVL25:
 965              		.loc 1 240 0
 966 005e 9A42     		cmp	r2, r3
 967 0060 EAD9     		bls	.L24
 968              		.loc 1 245 0
 969 0062 D21A     		subs	r2, r2, r3
 970              	.LVL26:
ARM GAS  /var/folders/c6/c789hm653lg9vtl73krp73tm0000gn/T//ccNxYKov.s 			page 55


 971              		.loc 1 249 0
 972 0064 012A     		cmp	r2, #1
 973              		.loc 1 250 0
 974 0066 98BF     		it	ls
 975 0068 0222     		movls	r2, #2
 976              	.LVL27:
 977              	.LBB74:
 978              	.LBB75:
 979              		.loc 3 95 0
 980 006a 1044     		add	r0, r0, r2
 981              	.LVL28:
 982              	.LBE75:
 983              	.LBE74:
 984              	.LBE65:
 985              	.LBE64:
 986              		.loc 1 255 0
 987 006c BDE81040 		pop	{r4, lr}
 988              	.LBB82:
 989              	.LBB80:
 990              	.LBB77:
 991              	.LBB76:
 992              		.loc 3 95 0
 993 0070 FFF7FEBF 		b	stSetAlarm
 994              	.LVL29:
 995              	.L34:
 996              	.LBE76:
 997              	.LBE77:
 998              	.LBE80:
 999              	.LBE82:
 1000              		.loc 1 180 0 discriminator 1
 1001 0074 0648     		ldr	r0, .L37+4
 1002 0076 FFF7FEFF 		bl	chSysHalt
 1003              	.LVL30:
 1004 007a C7E7     		b	.L25
 1005              	.L35:
 1006              		.loc 1 181 0 discriminator 1
 1007 007c 0448     		ldr	r0, .L37+4
 1008 007e FFF7FEFF 		bl	chSysHalt
 1009              	.LVL31:
 1010 0082 C6E7     		b	.L26
 1011              	.LVL32:
 1012              	.L36:
 1013              		.loc 1 255 0
 1014 0084 BDE81040 		pop	{r4, lr}
 1015              	.LVL33:
 1016              	.LBB83:
 1017              	.LBB81:
 1018              	.LBB78:
 1019              	.LBB79:
 1020              		.loc 3 83 0
 1021 0088 FFF7FEBF 		b	stStopAlarm
 1022              	.LVL34:
 1023              	.L38:
 1024              		.align	2
 1025              	.L37:
 1026 008c 00000000 		.word	ch
 1027 0090 00000000 		.word	.LANCHOR1
ARM GAS  /var/folders/c6/c789hm653lg9vtl73krp73tm0000gn/T//ccNxYKov.s 			page 56


 1028              	.LBE79:
 1029              	.LBE78:
 1030              	.LBE81:
 1031              	.LBE83:
 1032              		.cfi_endproc
 1033              	.LFE231:
 1034              		.size	chVTDoResetI, .-chVTDoResetI
 1035 0094 AFF30080 		.section	.rodata.__func__.6565,"a",%progbits
 1035      AFF30080 
 1035      AFF30080 
 1036              		.align	2
 1037              		.set	.LANCHOR0,. + 0
 1038              		.type	__func__.6565, %object
 1039              		.size	__func__.6565, 11
 1040              	__func__.6565:
 1041 0000 63685654 		.ascii	"chVTDoSetI\000"
 1041      446F5365 
 1041      744900
 1042 000b 00       		.section	.rodata.__func__.6573,"a",%progbits
 1043              		.align	2
 1044              		.set	.LANCHOR1,. + 0
 1045              		.type	__func__.6573, %object
 1046              		.size	__func__.6573, 13
 1047              	__func__.6573:
 1048 0000 63685654 		.ascii	"chVTDoResetI\000"
 1048      446F5265 
 1048      73657449 
 1048      00
 1049 000d 000000   		.text
 1050              	.Letext0:
 1051              		.file 4 "/usr/local/Cellar/gcc-arm-none-eabi/20140805/arm-none-eabi/include/machine/_default_types
 1052              		.file 5 "/usr/local/Cellar/gcc-arm-none-eabi/20140805/arm-none-eabi/include/stdint.h"
 1053              		.file 6 "../../../os/rt/ports/ARMCMx/compilers/GCC/chtypes.h"
 1054              		.file 7 "../../../os/rt/include/chsystypes.h"
 1055              		.file 8 "../../../os/rt/include/chschd.h"
 1056              		.file 9 "../../../os/rt/ports/ARMCMx/chcore.h"
 1057              		.file 10 "../../../os/rt/ports/ARMCMx/chcore_v7m.h"
 1058              		.file 11 "../../../os/hal/ports/STM32/LLD/TIMv1/stm32_tim.h"
 1059              		.file 12 "../../../os/rt/include/chdebug.h"
 1060              		.file 13 "../../../os/rt/include/chtm.h"
 1061              		.file 14 "../../../os/rt/include/chstats.h"
 1062              		.file 15 "../../../os/rt/include/chsem.h"
 1063              		.file 16 "../../../os/rt/include/chmtx.h"
 1064              		.file 17 "../../../os/rt/include/chvt.h"
 1065              		.file 18 "../../../os/hal/include/st.h"
 1066              		.file 19 "../../../os/rt/include/chsys.h"
 1067              		.file 20 "../../../os/ext/CMSIS/include/core_cm4.h"