ARM GAS  /var/folders/c6/c789hm653lg9vtl73krp73tm0000gn/T//cc7zIXeU.s 			page 1


   1              		.syntax unified
   2              		.cpu cortex-m4
   3              		.fpu softvfp
   4              		.eabi_attribute 20, 1
   5              		.eabi_attribute 21, 1
   6              		.eabi_attribute 23, 3
   7              		.eabi_attribute 24, 1
   8              		.eabi_attribute 25, 1
   9              		.eabi_attribute 26, 1
  10              		.eabi_attribute 30, 2
  11              		.eabi_attribute 34, 1
  12              		.eabi_attribute 18, 4
  13              		.thumb
  14              		.file	"hal.c"
  15              		.text
  16              	.Ltext0:
  17              		.section	.gnu.lto_.jmpfuncs.3ae94dbb8d0e6fcd,"",%progbits
  18 0000 789C6362 		.ascii	"x\234cb`b\300\006\344\2414#\\\204\221\251\232\341W\303"
  18      6062C006 
  18      E4A13423 
  18      5C8491A9 
  18      9AE157C3 
  19 0014 8C06814C 		.ascii	"\214\006\201LF\206\\\2300\000A\223\004\035"
  19      46865C98 
  19      30004193 
  19      041D
  20              		.text
  21              		.section	.gnu.lto_.inline.3ae94dbb8d0e6fcd,"",%progbits
  22 0000 789C6362 		.ascii	"x\234cb`b\300\006\234\2414#\003\003\357] \011R\305\266"
  22      6062C006 
  22      9CA13423 
  22      0303EF5D 
  22      200952C5 
  23 0015 401EAC98 		.ascii	"@\036\254\230\221\213 \301\304\015\322\012f2\000\000"
  23      918B20C1 
  23      C40DD20A 
  23      66320000 
  24 0025 842D0263 		.ascii	"\204-\002c"
  25              		.text
  26              		.section	.gnu.lto_.pureconst.3ae94dbb8d0e6fcd,"",%progbits
  27 0000 789C6362 		.ascii	"x\234cb`b`f\200\000F\006\011\000\000\203\000!"
  27      60626066 
  27      80004606 
  27      09000083 
  27      0021
  28              		.text
  29              		.section	.gnu.lto_halInit.3ae94dbb8d0e6fcd,"",%progbits
  30 0000 789C6362 		.ascii	"x\234cb`b@\007\222@\274\223\221\201A\006H32302M8\307"
  30      60624007 
  30      9240BC93 
  30      91814106 
  30      48333233 
  31 0019 C0D0C8C1 		.ascii	"\300\320\310\301\304\310\010b002\32431\326G2\202\325"
  31      C4C80862 
  31      303032D4 
  31      3331D647 
  31      3282D5
ARM GAS  /var/folders/c6/c789hm653lg9vtl73krp73tm0000gn/T//cc7zIXeU.s 			page 2


  32 002c AE673AF0 		.ascii	"\256g:\360\340\377\377u\0376>\234\315(\304\015\024`"
  32      E0FFFF75 
  32      1F363E9C 
  32      CD28C40D 
  32      1460
  33 003e 65686968 		.ascii	"ehih\230\240\300\300\220\014V\020\002$A\272B\031\231"
  33      98A0C0C0 
  33      900C5610 
  33      022441BA 
  33      421999
  34 0051 4034F379 		.ascii	"@4\363y\206\346\007\377\354\022\031\0272\262\002e\253"
  34      86E607FF 
  34      EC121917 
  34      32B20265 
  34      AB
  35 0062 197E3574 		.ascii	"\031~5t4\010d2\002UC\314\313\004\321\347\031Z\036t&"
  35      34086432 
  35      025543CC 
  35      CB04D1E7 
  35      195A1E74 
  36 0077 6328624A 		.ascii	"c(bJf\2048\026$\"\221\311\310\234\313\310\000U\224\311"
  36      66843816 
  36      242291C9 
  36      C89CCBC8 
  36      005594C9 
  37 008b C802D2D6 		.ascii	"\310\002\322\326\374`\317a6l\2063#\033\336\374\340\324"
  37      FC60CF61 
  37      366C8633 
  37      231BDEFC 
  37      E0D4
  38 009d 62ACAA58 		.ascii	"b\254\252XPU\235\305n\026+\212\252\005\367\230\261)"
  38      50559DC5 
  38      6E162B8A 
  38      AA05F798 
  38      B129
  39 00af 624355F4 		.ascii	"bCU\364\006\253\"vT\373\272Z\331\261\251\342@U5s)VW"
  39      06AB2276 
  39      54FBBA5A 
  39      D9B1A9E2 
  39      40553573 
  40 00c6 7122545D 		.ascii	"q\"T]dh|0[\025\246\010\002B\200\022\300\360\007\205"
  40      64687C30 
  40      5B15A608 
  40      02428012 
  40      C0F00785 
  41 00da 9F949E9E 		.ascii	"\237\224\236\236>\004\345\027\353g$\346\350\027\027"
  41      3E04E517 
  41      EB6724E6 
  41      E81717
  42 00e9 258368BD 		.ascii	"%\203h\275d\006\000\024\366s\014"
  42      64060014 
  42      F6730C
  43              		.text
  44              		.section	.gnu.lto_.symbol_nodes.3ae94dbb8d0e6fcd,"",%progbits
  45 0000 789C45C8 		.ascii	"x\234E\310\311\015\302@\020D\321\232\032\217\027\222"
  45      C90DC240 
  45      1044D19A 
ARM GAS  /var/folders/c6/c789hm653lg9vtl73krp73tm0000gn/T//cc7zIXeU.s 			page 3


  45      1A8F1792 
  46 0010 20D4B234 		.ascii	" \324\2624`\314*\"\340\342P|'\004\004\362\225\030\020"
  46      60CC2A22 
  46      E0E2507C 
  46      270404F2 
  46      951810
  47 0023 A641745F 		.ascii	"\246At_~\277\"\210\033~\307\025\005\234\257\200t\351"
  47      7EBF2288 
  47      1B7EC715 
  47      059CAF80 
  47      74E9
  48 0035 43DA70FE 		.ascii	"C\332p\376\020NT\370\256m\033\302\221\242\353@E\327"
  48      104E54F8 
  48      AE6D1BC2 
  48      91A2EB40 
  48      45D7
  49 0047 9E2A5C3B 		.ascii	"\236*\\;*\271\266T\351\352\251\312\325Q\265kM5\177E"
  49      2AB9B654 
  49      E9EAA9CA 
  49      D551B56B 
  49      4D357F45 
  50 005b 2C90EFAF 		.ascii	",\220\357\257\271\015\006k\215\321Za\262\226\310\217"
  50      B90D066B 
  50      8DD15A61 
  50      B296C88F 
  51 006b 4F13066B 		.ascii	"O\023\006k\201\321\0321Y\211\334=\227x\003w\362@\330"
  51      81D11A31 
  51      5989DC3D 
  51      97780377 
  51      F240D8
  52              		.text
  53              		.section	.gnu.lto_.refs.3ae94dbb8d0e6fcd,"",%progbits
  54 0000 789C6362 		.ascii	"x\234cb`b`e\200\000F\006&F\006\000\000\237\000\016"
  54      60626065 
  54      80004606 
  54      26460600 
  54      009F000E 
  55              		.text
  56              		.section	.gnu.lto_.decls.3ae94dbb8d0e6fcd,"",%progbits
  57 0000 789CAD97 		.ascii	"x\234\255\227mL\034E\030\307g\356\340\340\332\223\032"
  57      6D4C1C45 
  57      18C767EE 
  57      E0E0DA93 
  57      1A
  58 0011 121BEB5B 		.ascii	"\022\033\353[\017\023\374\320\024\226R\2145&$\025(%"
  58      0F13FCD0 
  58      1496528C 
  58      35262415 
  58      2825
  59 0023 B90A8936 		.ascii	"\271\012\2116\351\007\223\315r\273\300%\307\335ew\317"
  59      E90793CD 
  59      72BBC025 
  59      C7DD6577 
  59      CF
  60 0034 D44F0E68 		.ascii	"\324O\016h\010\251/\241\240\251XB\016-\226\306\252M"
  60      08A92FA1 
  60      A0A95842 
ARM GAS  /var/folders/c6/c789hm653lg9vtl73krp73tm0000gn/T//cc7zIXeU.s 			page 4


  60      0E2D96C6 
  60      AA4D
  61 0046 A34DD360 		.ascii	"\243M\323`=KPj\343\001I\253\250\265]\013\202\266\026"
  61      3D4B506A 
  61      E30149AB 
  61      A8B55D0B 
  61      82B616
  62 0059 48340613 		.ascii	"H4\006\023\31493\273w\267\313\355\036Kt\302\363\314"
  62      CC3933BB 
  62      77B7CBED 
  62      1E4B74C2 
  62      F3CC
  63 006b DEEE33BF 		.ascii	"\336\3563\277\347?3\317\276\340\000\016\360\011\000"
  63      E73F33CF 
  63      BEE0000E 
  63      F00900
  64 007a 20899BE4 		.ascii	" \211\233\344\001`\247\023\3403\000Tc\203\330\206\200"
  64      0160A713 
  64      E0330054 
  64      6383D886 
  64      80
  65 008b DA3661BB 		.ascii	"\3326a\273\212m\006\333\017\330\256c\273\201M\301v\013"
  65      8A6D06DB 
  65      0FD8AE63 
  65      BB814DC1 
  65      760B
  66 009d DB1CB679 		.ascii	"\333\034\266yl\267\265q\277\003c#c\363\261-b\273\206"
  66      6CB7B571 
  66      BF036323 
  66      63F3B12D 
  66      62BB86
  67 00b0 6D49632F 		.ascii	"mIc/\254\341\337\3268s\032W\321\362\\\327\362\316X\360"
  67      ACE1DFD6 
  67      38731A57 
  67      D1F25CD7 
  67      F2CE58F0 
  68 00c4 37832308 		.ascii	"7\203#\010u\242X\027\332?QT\014\216\"\334b\010\301\211"
  68      75A25817 
  68      DA3F5154 
  68      0C8E22DC 
  68      6208C189 
  69 00d8 22000E41 		.ascii	"\"\000\016A\016\026\271\201\262\205\036y\334`\225\020"
  69      0E16B981 
  69      B2851E79 
  69      DC609510 
  70 00e8 4AC10984 		.ascii	"J\301\011\204z\224\361\3446\224\247\015\360ZGs\360="
  70      7A94F1E4 
  70      3694A70D 
  70      F05A4773 
  70      F03D
  71 00fa 580AD68F 		.ascii	"X\012\326\217#\221\303\260\030\354\000\247p`\017\326"
  71      2391C3B0 
  71      18EC00A7 
  71      70600FD6 
  72 010a F4A04127 		.ascii	"\364\240A'\315\212\342\177$<(O\215$#\336\207;\200I+"
  72      CD8AE27F 
  72      243C284F 
ARM GAS  /var/folders/c6/c789hm653lg9vtl73krp73tm0000gn/T//cc7zIXeU.s 			page 5


  72      8D2423DE 
  72      873B8049 
  73 011f 013112FC 		.ascii	"\0011\022\374wb\000\242\330%h\226\035\246\262?\224\236"
  73      776200A2 
  73      D8256896 
  73      1DA6B23F 
  73      949E
  74 0131 527C3A01 		.ascii	"R|:\001\275\034<\205\343\035\340)h\300\257\213 jN\343"
  74      BD1C3C85 
  74      E31DE029 
  74      68C0AF8B 
  74      206A4EE3 
  75 0145 91EA204D 		.ascii	"\221\352 Mm\237\252\366\264\015\265\235\361c\211\201"
  75      6D9FAAF6 
  75      B40DB59D 
  75      F1638981 
  76 0155 6D44AD1B 		.ascii	"mD\255\033tgv$\235\315\233J\226\227\331\202\317\272"
  76      74677624 
  76      9DCD9B4A 
  76      9697D982 
  76      CFBA
  77 0167 C6BF809D 		.ascii	"\306\277\200\235x\2638\3701\036\346\000\307\241Q\265"
  77      78B338F8 
  77      311EE600 
  77      C7A151B5 
  78 0177 7D54FFAB 		.ascii	"}T\377\253\243O\"T\310\301\263\024\324\3410\2028X\340"
  78      A34F2254 
  78      C8C1B314 
  78      D4E13082 
  78      3858E0
  79 018a D64BA6BF 		.ascii	"\326K\246\277S\001\204F/k\007\344\226\330\0026\032\356"
  79      53018446 
  79      2F6B07E4 
  79      96D80236 
  79      1AEE
  80 019c 00AFD1A4 		.ascii	"\000\257\321\244d\261\314\204j\207j\323\002\014\013"
  80      64B1CC84 
  80      6A876AD3 
  80      020C0B
  81 01ab A89C98BD 		.ascii	"\250\234\230\275\014Q\257'\265\030\275\033\306y\015"
  81      0C51AF27 
  81      B518BD1B 
  81      C6790D
  82 01ba FB3198F0 		.ascii	"\3731\230\360\364p)X\277\035X\241\245\266\370Y=lh\303"
  82      F4702958 
  82      BF1D58A1 
  82      A5B6F859 
  82      3D6C68C3 
  83 01ce 30A3B273 		.ascii	"0\243\262sz\330I;\260{\255\225]\320\303>\3300\314\250"
  83      7AD8493B 
  83      B07BAD95 
  83      5DD0C33E 
  83      D830CCA8 
  84 01e2 ECA21E76 		.ascii	"\354\242\036v\306\016\354~\023efM\177wq\360C\374L\341"
  84      C60EEC7E 
  84      1365664D 
  84      7F7771F0 
ARM GAS  /var/folders/c6/c789hm653lg9vtl73krp73tm0000gn/T//cc7zIXeU.s 			page 6


  84      43FC4CE1 
  85 01f6 E047B004 		.ascii	"\340G\260\004\373s\324\237\247\376\002\365\243\324_"
  85      FB73D49F 
  85      A7FE02F5 
  85      A3D45F
  86 0205 A43E8E7D 		.ascii	"\244>\216}\2729\300\247T\323pF\223\361.^\257\310P\274"
  86      BA39C0A7 
  86      54D37046 
  86      93F12E5E 
  86      AFC850BC 
  87 0219 A7914C50 		.ascii	"\247\221LP}F\214\332\202\031f\3505\300\336\326\301\306"
  87      7D468CDA 
  87      821966E8 
  87      35C0DED6 
  87      C1C6
  88 022b 6CC1F658 		.ascii	"l\301\366X+;\243\203}m\013\326d\255\354\274\0166m\013"
  88      2B3BA383 
  88      7D6D0BD6 
  88      64ADECBC 
  88      0E366D0B 
  89 023f 16B15636 		.ascii	"\026\261V6\245\203\315\330\202uCki3:\332M[\264\021h"
  89      A583CDD8 
  89      8275436B 
  89      69333ADA 
  89      4D5BB411 
  90 0254 AD6D5947 		.ascii	"\255mYG\233\267E\213\347\320\266\242\243\335\265ES\314"
  90      9BB7458B 
  90      E7D0B6A2 
  90      A3DDB545 
  90      53CC
  91 0266 B4E9AA5E 		.ascii	"\264\351\252^\255\367\223\264\336GhE\217Q?N\375W\324"
  91      ADF793B4 
  91      DE476845 
  91      8F513F4E 
  91      FD57D4
  92 0279 5FA6FE0A 		.ascii	"_\246\376\012\365\337P?I\375\264\261\366\377\314z\250"
  92      F5DF503F 
  92      49FDB4B1 
  92      F6FFCC7A 
  92      A8
  93 028a ABAF515D 		.ascii	"\253\257Q]\266\341\364=\006\376k>\263{\236@\207\340"
  93      B6E1F43D 
  93      06FE6B3E 
  93      B37B9E40 
  93      87E0
  94 029c E654C876 		.ascii	"\346T\310v0\210b\212\362\317\261QW?\212\277\202\222"
  94      3088628A 
  94      F2CFB151 
  94      573F8ABF 
  94      8292
  95 02ae C997C056 		.ascii	"\311\227\300V\360\026\375\004\351\302\2575\231\203\325"
  95      F016FD04 
  95      E9C2AF35 
  95      9983D5
  96 02bd F75982AE 		.ascii	"\367Y\202\256\301\255\332\321Agj\212\375N\343\024\001"
  96      C1ADDAD1 
  96      41676A8A 
ARM GAS  /var/folders/c6/c789hm653lg9vtl73krp73tm0000gn/T//cc7zIXeU.s 			page 7


  96      FD4EE314 
  96      01
  97 02ce 780C0C13 		.ascii	"x\014\014\023\036\032ANJ#\361W\341v\343\264\277\205"
  97      1E1A414E 
  97      4A23F157 
  97      E176E3B4 
  97      BF85
  98 02e0 0EFD09A2 		.ascii	"\016\375\011\242K\351Q\372\216\177\327\001\217\276\034"
  98      4BE951FA 
  98      8E7FD701 
  98      8FBE1C
  99 02ef 9B40CBE4 		.ascii	"\233@\313\344\015\245ft\200\317\263r\250\220\357M!\003"
  99      0DA56674 
  99      80CFB372 
  99      A890EF4D 
  99      2103
 100 0301 83933BFB 		.ascii	"\203\223;\373\321%ur)\304\212\005\342GS\304\233\267"
 100      D1257572 
 100      29C48A05 
 100      E24753C4 
 100      9BB7
 101 0313 96ABB310 		.ascii	"\226\253\263\020#y\346\210\237L\021S\263\277\276a2\225"
 101      2379E688 
 101      9F4C1153 
 101      B3BFBE61 
 101      3295
 102 0325 490BC84D 		.ascii	"I\013\310MS\310\215y\245,K\307_\026\210\237M\021\253"
 102      53C88D79 
 102      A52C4BC7 
 102      5F16889F 
 102      4D11AB
 103 0338 0BCBBE2C 		.ascii	"\013\313\276,D,\337\0341k\212\030\274\243\224g!\276"
 103      442CDF1C 
 103      316B8A18 
 103      BCA39467 
 103      21BE
 104 034a B440FC62 		.ascii	"\264@\374b\212\230[\272\002\273{\321j2\351\334@\275"
 104      8A985BBA 
 104      02BB7BD1 
 104      6A32E9DC 
 104      40BD
 105 035c 2D68F5E6 		.ascii	"-h\365\346\244\337\371Z%g\212\017\220\372KX\350\370"
 105      A4DFF95A 
 105      25678A0F 
 105      90FA4B58 
 105      E8F8
 106 036e CD54C7CA 		.ascii	"\315T\307\312\342\324\021\330\227\265+\257\273\314!"
 106      E2D411D8 
 106      97B52BAF 
 106      BBCC21
 107 037d 778C9047 		.ascii	"w\214\220G\301\020Z\306\337\341\213c\316\016\262\036"
 107      C1105AC6 
 107      DFE18B63 
 107      CE0EB21E 
 108 038d 643E104B 		.ascii	"d>\020K~\227>}\336IC\254\277\267\357f\200\206\177\003"
 108      7E973E7D 
 108      DE4943AC 
ARM GAS  /var/folders/c6/c789hm653lg9vtl73krp73tm0000gn/T//cc7zIXeU.s 			page 8


 108      BFB7EF66 
 108      80867F03 
 109 03a1 542156EB 		.ascii	"T!V\353\260\230\271\201\327\214Z\3101j)3\012\354*/g"
 109      B098B981 
 109      D78C5AC8 
 109      316A2933 
 109      0AEC2A2F 
 110 03b6 D4BFB0C4 		.ascii	"\324\277\260\304\264qA&\022\026e\211y\366\271\003\273"
 110      B4714126 
 110      12166589 
 110      79F6B903 
 110      BB
 111 03c7 2B199FAF 		.ascii	"+\031\237\257\226\251ojh|\241\222\211pA6\030\344\313"
 111      96A96F6A 
 111      687CA192 
 111      89704136 
 111      18E4CB
 112 03da DB80ABFE 		.ascii	"\333\200\253\376\231\203\336\032P,\311\355\273+\331"
 112      9983DE1A 
 112      502CC9ED 
 112      BB2BD9
 113 03e9 D64820CC 		.ascii	"\326H \314J\202\034\215\260\262\217\211J\"\023\014\373"
 113      4A821C8D 
 113      B0B28F89 
 113      4A22130C 
 113      FB
 114 03fa 31A64608 		.ascii	"1\246F\010\0069\221i\365\373\3138\261\275,\024\016\011"
 114      06399169 
 114      F5FBCB38 
 114      B1BD2C14 
 114      0E09
 115 040c 6502D71C 		.ascii	"e\002\327\034`*+vUU\354\251x\2341\236\016\204\374\301"
 115      602A2B76 
 115      5555ECA9 
 115      789C319E 
 115      0E84FCC1 
 116 0420 282F3092 		.ascii	"(/0\222\314\007B2NS\030\305=N ?\377?P\3339\177[ $0,"
 116      CC074232 
 116      4E5318C5 
 116      3D4E203F 
 116      FF3F50DB 
 117 043b 2FB470D1 		.ascii	"/\264p\321\240\314\312/F\004\011g\331\304\262\251<\371"
 117      A0CCCA2F 
 117      46040967 
 117      D9C4B2A9 
 117      3CF9
 118 044d ED615E10 		.ascii	"\355a^\020]arI,\010K\021A\340\305\374H4\302\213\316"
 118      5D617249 
 118      2C084B11 
 118      41E0C5FC 
 118      4834C28B 
 119 0462 302FE671 		.ascii	"0/\346q-b\220\2706W\323\336ZN\346\\MO\253]\215\332\325"
 119      2D6290B8 
 119      3657D3DE 
 119      5A4EE65C 
 119      4D4FAB5D 
 120 0479 AA5D9DDA 		.ascii	"\252]\235\332\355S\273z\265\333\257v\015\244s7\355\365"
ARM GAS  /var/folders/c6/c789hm653lg9vtl73krp73tm0000gn/T//cc7zIXeU.s 			page 9


 120      ED53BB7A 
 120      B5DBAF76 
 120      0DA47337 
 120      EDF5
 121 048b D584432D 		.ascii	"\325\204C-\201\326\007\326\256\275$\372I_\356\007\005"
 121      81D607D6 
 121      AEBD24FA 
 121      495FEE07 
 121      05
 122 049c B86B0805 		.ascii	"\270k\010\005\344\207\327\206d\326\211l\205$\223\240"
 122      E487D786 
 122      64D6896C 
 122      852493A0 
 123 04ac AC3D6C0E 		.ascii	"\254=l\016s\"/1\215\276\206\003u\207X\272\227l]U\305"
 123      73222F31 
 123      8DBE8603 
 123      758758BA 
 123      976C5D55 
 124 04c1 13EA053C 		.ascii	"\023\352\005<\320M\017\310\330R\313\004\202\030\300"
 124      D04D0FC8 
 124      D852CB04 
 124      8218C0
 125 04d0 7B1E959A 		.ascii	"{\036\225\232q|\201\304GI\364#V\321Z\030\356r\206I\274"
 125      717C81C4 
 125      4749F423 
 125      56D15A18 
 125      EE728649 
 126 04e5 5FA5F949 		.ascii	"_\245\371IXI\356\334t\202|N\036\336W\302\303\035\011"
 126      5849EEDC 
 126      74827C4E 
 126      1EDE57C2 
 126      C31D09
 127 04f8 BB87D5AA 		.ascii	"\273\207\325\252\224\015\340_\025\271*\233\372}U\207"
 127      940DE05F 
 127      15B92A9B 
 127      FA7D5587 
 128 0508 0F932B5A 		.ascii	"\017\223+Za{\332t\243\213\011*U-~\272]\377\002\316("
 128      617BDA74 
 128      A38B092A 
 128      552D7EBA 
 128      5DFF02CE 
 129 051d 7D08     		.ascii	"}\010"
 130              		.text
 131              		.section	.gnu.lto_.symtab.3ae94dbb8d0e6fcd,"",%progbits
 132 0000 68616C49 		.ascii	"halInit\000\000\000\000\000\000\000\000\000\000\000"
 132      6E697400 
 132      00000000 
 132      00000000 
 132      0000
 133 0012 00D40000 		.ascii	"\000\324\000\000\000pal_default_config\000\000\002\000"
 133      0070616C 
 133      5F646566 
 133      61756C74 
 133      5F636F6E 
 134 002d 00000000 		.ascii	"\000\000\000\000\000\000\000\000\354\000\000\000stI"
 134      00000000 
 134      EC000000 
ARM GAS  /var/folders/c6/c789hm653lg9vtl73krp73tm0000gn/T//cc7zIXeU.s 			page 10


 134      737449
 135 003c 6E697400 		.ascii	"nit\000\000\002\000\000\000\000\000\000\000\000\000"
 135      00020000 
 135      00000000 
 135      000000
 136 004b D8000000 		.ascii	"\330\000\000\000boardInit\000\000\002\000\000\000\000"
 136      626F6172 
 136      64496E69 
 136      74000002 
 136      00000000 
 137 005f 00000000 		.ascii	"\000\000\000\000\000\332\000\000\000sduInit\000\000"
 137      00DA0000 
 137      00736475 
 137      496E6974 
 137      0000
 138 0071 02000000 		.ascii	"\002\000\000\000\000\000\000\000\000\000\334\000\000"
 138      00000000 
 138      0000DC00 
 138      00
 139 007e 00757362 		.ascii	"\000usbInit\000\000\002\000\000\000\000\000\000\000"
 139      496E6974 
 139      00000200 
 139      00000000 
 139      0000
 140 0090 0000DE00 		.ascii	"\000\000\336\000\000\000sdcInit\000\000\002\000\000"
 140      00007364 
 140      63496E69 
 140      74000002 
 140      0000
 141 00a2 00000000 		.ascii	"\000\000\000\000\000\000\000\340\000\000\000sdInit\000"
 141      000000E0 
 141      00000073 
 141      64496E69 
 141      7400
 142 00b4 00020000 		.ascii	"\000\002\000\000\000\000\000\000\000\000\000\342\000"
 142      00000000 
 142      000000E2 
 142      00
 143 00c1 00006D61 		.ascii	"\000\000macInit\000\000\002\000\000\000\000\000\000"
 143      63496E69 
 143      74000002 
 143      00000000 
 143      0000
 144 00d3 000000E4 		.ascii	"\000\000\000\344\000\000\000_pal_lld_init\000\000\002"
 144      0000005F 
 144      70616C5F 
 144      6C6C645F 
 144      696E6974 
 145 00ea 00000000 		.ascii	"\000\000\000\000\000\000\000\000\000\346\000\000\000"
 145      00000000 
 145      00E60000 
 145      00
 146 00f7 68616C5F 		.ascii	"hal_lld_init\000\000\002\000\000\000\000\000\000\000"
 146      6C6C645F 
 146      696E6974 
 146      00000200 
 146      00000000 
ARM GAS  /var/folders/c6/c789hm653lg9vtl73krp73tm0000gn/T//cc7zIXeU.s 			page 11


 147 010d 0000EA00 		.ascii	"\000\000\352\000\000\000"
 147      0000
 148              		.text
 149              		.section	.gnu.lto_.opts,"",%progbits
 150 0000 272D6D63 		.ascii	"'-mcpu=cortex-m4' '-mno-thumb-interwork' '-mthumb' "
 150      70753D63 
 150      6F727465 
 150      782D6D34 
 150      2720272D 
 151 0033 272D6767 		.ascii	"'-ggdb' '-O2' '-fomit-frame-pointer' '-falign-funct"
 151      64622720 
 151      272D4F32 
 151      2720272D 
 151      666F6D69 
 152 0066 696F6E73 		.ascii	"ions=16' '-ffunction-sections' '-fdata-sections' '-"
 152      3D313627 
 152      20272D66 
 152      66756E63 
 152      74696F6E 
 153 0099 666E6F2D 		.ascii	"fno-common' '-flto'\000"
 153      636F6D6D 
 153      6F6E2720 
 153      272D666C 
 153      746F2700 
 154              		.text
 155              		.cfi_sections	.debug_frame
 156              		.section	.text.halInit,"ax",%progbits
 157              		.align	2
 158              		.p2align 4,,15
 159              		.global	halInit
 160              		.thumb
 161              		.thumb_func
 162              		.type	halInit, %function
 163              	halInit:
 164              	.LFB260:
 165              		.file 1 "../../../os/hal/src/hal.c"
 166              		.loc 1 56 0
 167              		.cfi_startproc
 168              		@ args = 0, pretend = 0, frame = 0
 169              		@ frame_needed = 0, uses_anonymous_args = 0
 170 0000 08B5     		push	{r3, lr}
 171              		.cfi_def_cfa_offset 8
 172              		.cfi_offset 3, -8
 173              		.cfi_offset 14, -4
 174              		.loc 1 62 0
 175 0002 FFF7FEFF 		bl	hal_lld_init
 176              	.LVL0:
 177              		.loc 1 65 0
 178 0006 0948     		ldr	r0, .L2
 179 0008 FFF7FEFF 		bl	_pal_lld_init
 180              	.LVL1:
 181              		.loc 1 92 0
 182 000c FFF7FEFF 		bl	macInit
 183              	.LVL2:
 184              		.loc 1 98 0
 185 0010 FFF7FEFF 		bl	sdInit
 186              	.LVL3:
ARM GAS  /var/folders/c6/c789hm653lg9vtl73krp73tm0000gn/T//cc7zIXeU.s 			page 12


 187              		.loc 1 101 0
 188 0014 FFF7FEFF 		bl	sdcInit
 189              	.LVL4:
 190              		.loc 1 110 0
 191 0018 FFF7FEFF 		bl	usbInit
 192              	.LVL5:
 193              		.loc 1 116 0
 194 001c FFF7FEFF 		bl	sduInit
 195              	.LVL6:
 196              		.loc 1 130 0
 197 0020 FFF7FEFF 		bl	boardInit
 198              	.LVL7:
 199              		.loc 1 139 0
 200 0024 BDE80840 		pop	{r3, lr}
 201              		.loc 1 137 0
 202 0028 FFF7FEBF 		b	stInit
 203              	.LVL8:
 204              	.L3:
 205              		.align	2
 206              	.L2:
 207 002c 00000000 		.word	pal_default_config
 208              		.cfi_endproc
 209              	.LFE260:
 210              		.size	halInit, .-halInit
 211              		.text
 212              	.Letext0:
 213              		.file 2 "/usr/local/Cellar/gcc-arm-none-eabi/20140805/arm-none-eabi/include/machine/_default_types
 214              		.file 3 "/usr/local/Cellar/gcc-arm-none-eabi/20140805/arm-none-eabi/include/stdint.h"
 215              		.file 4 "../../../os/rt/ports/ARMCMx/compilers/GCC/chtypes.h"
 216              		.file 5 "../../../os/rt/include/chsystypes.h"
 217              		.file 6 "../../../os/rt/include/chschd.h"
 218              		.file 7 "../../../os/rt/ports/ARMCMx/chcore.h"
 219              		.file 8 "../../../os/rt/ports/ARMCMx/chcore_v7m.h"
 220              		.file 9 "../../../os/rt/include/chdebug.h"
 221              		.file 10 "../../../os/rt/include/chtm.h"
 222              		.file 11 "../../../os/rt/include/chstats.h"
 223              		.file 12 "../../../os/rt/include/chsem.h"
 224              		.file 13 "../../../os/rt/include/chmtx.h"
 225              		.file 14 "../../../os/hal/ports/STM32/LLD/GPIOv2/pal_lld.h"
 226              		.file 15 "../../../os/ext/CMSIS/include/core_cm4.h"
 227              		.file 16 "../../../os/hal/ports/STM32/STM32F4xx/hal_lld.h"
 228              		.file 17 "../../../os/hal/include/mac.h"
 229              		.file 18 "../../../os/hal/include/serial.h"
 230              		.file 19 "../../../os/hal/include/sdc.h"
 231              		.file 20 "../../../os/hal/include/usb.h"
 232              		.file 21 "../../../os/hal/include/serial_usb.h"
 233              		.file 22 "../../../os/hal/boards/OLIMEX_STM32_E407/board.h"
 234              		.file 23 "../../../os/hal/include/st.h"
 235              		.file 24 "../../../os/hal/osal/rt/osal.h"
 236              		.section	.debug_info,"",%progbits
 237              	.Ldebug_info0:
 238 0000 86090000 		.4byte	0x986
 239 0004 0400     		.2byte	0x4
 240 0006 00000000 		.4byte	.Ldebug_abbrev0
 241 000a 04       		.byte	0x4
 242 000b 01       		.uleb128 0x1
 243 000c 4F060000 		.4byte	.LASF156
ARM GAS  /var/folders/c6/c789hm653lg9vtl73krp73tm0000gn/T//cc7zIXeU.s 			page 13


 244 0010 01       		.byte	0x1
 245 0011 8F010000 		.4byte	.LASF157
 246 0015 7F020000 		.4byte	.LASF158
 247 0019 00000000 		.4byte	.Ldebug_ranges0+0
 248 001d 00000000 		.4byte	0
 249 0021 00000000 		.4byte	.Ldebug_line0
 250 0025 02       		.uleb128 0x2
 251 0026 04       		.byte	0x4
 252 0027 05       		.byte	0x5
 253 0028 696E7400 		.ascii	"int\000"
 254 002c 03       		.uleb128 0x3
 255 002d 04       		.byte	0x4
 256 002e 07       		.byte	0x7
 257 002f 31020000 		.4byte	.LASF0
 258 0033 03       		.uleb128 0x3
 259 0034 01       		.byte	0x1
 260 0035 06       		.byte	0x6
 261 0036 3C010000 		.4byte	.LASF1
 262 003a 04       		.uleb128 0x4
 263 003b 59000000 		.4byte	.LASF5
 264 003f 02       		.byte	0x2
 265 0040 1C       		.byte	0x1c
 266 0041 45000000 		.4byte	0x45
 267 0045 03       		.uleb128 0x3
 268 0046 01       		.byte	0x1
 269 0047 08       		.byte	0x8
 270 0048 6A040000 		.4byte	.LASF2
 271 004c 03       		.uleb128 0x3
 272 004d 02       		.byte	0x2
 273 004e 05       		.byte	0x5
 274 004f 95040000 		.4byte	.LASF3
 275 0053 03       		.uleb128 0x3
 276 0054 02       		.byte	0x2
 277 0055 07       		.byte	0x7
 278 0056 DB020000 		.4byte	.LASF4
 279 005a 04       		.uleb128 0x4
 280 005b 52030000 		.4byte	.LASF6
 281 005f 02       		.byte	0x2
 282 0060 37       		.byte	0x37
 283 0061 65000000 		.4byte	0x65
 284 0065 03       		.uleb128 0x3
 285 0066 04       		.byte	0x4
 286 0067 05       		.byte	0x5
 287 0068 70010000 		.4byte	.LASF7
 288 006c 04       		.uleb128 0x4
 289 006d 90050000 		.4byte	.LASF8
 290 0071 02       		.byte	0x2
 291 0072 38       		.byte	0x38
 292 0073 77000000 		.4byte	0x77
 293 0077 03       		.uleb128 0x3
 294 0078 04       		.byte	0x4
 295 0079 07       		.byte	0x7
 296 007a 3E050000 		.4byte	.LASF9
 297 007e 03       		.uleb128 0x3
 298 007f 08       		.byte	0x8
 299 0080 05       		.byte	0x5
 300 0081 2E010000 		.4byte	.LASF10
ARM GAS  /var/folders/c6/c789hm653lg9vtl73krp73tm0000gn/T//cc7zIXeU.s 			page 14


 301 0085 04       		.uleb128 0x4
 302 0086 03040000 		.4byte	.LASF11
 303 008a 02       		.byte	0x2
 304 008b 4E       		.byte	0x4e
 305 008c 90000000 		.4byte	0x90
 306 0090 03       		.uleb128 0x3
 307 0091 08       		.byte	0x8
 308 0092 07       		.byte	0x7
 309 0093 AF000000 		.4byte	.LASF12
 310 0097 04       		.uleb128 0x4
 311 0098 16060000 		.4byte	.LASF13
 312 009c 03       		.byte	0x3
 313 009d 2A       		.byte	0x2a
 314 009e 3A000000 		.4byte	0x3a
 315 00a2 04       		.uleb128 0x4
 316 00a3 62040000 		.4byte	.LASF14
 317 00a7 03       		.byte	0x3
 318 00a8 41       		.byte	0x41
 319 00a9 5A000000 		.4byte	0x5a
 320 00ad 04       		.uleb128 0x4
 321 00ae 0D050000 		.4byte	.LASF15
 322 00b2 03       		.byte	0x3
 323 00b3 42       		.byte	0x42
 324 00b4 6C000000 		.4byte	0x6c
 325 00b8 04       		.uleb128 0x4
 326 00b9 43000000 		.4byte	.LASF16
 327 00bd 03       		.byte	0x3
 328 00be 4E       		.byte	0x4e
 329 00bf 85000000 		.4byte	0x85
 330 00c3 05       		.uleb128 0x5
 331 00c4 A2000000 		.4byte	0xa2
 332 00c8 04       		.uleb128 0x4
 333 00c9 C1050000 		.4byte	.LASF17
 334 00cd 04       		.byte	0x4
 335 00ce 45       		.byte	0x45
 336 00cf AD000000 		.4byte	0xad
 337 00d3 04       		.uleb128 0x4
 338 00d4 1E010000 		.4byte	.LASF18
 339 00d8 04       		.byte	0x4
 340 00d9 46       		.byte	0x46
 341 00da B8000000 		.4byte	0xb8
 342 00de 04       		.uleb128 0x4
 343 00df 25030000 		.4byte	.LASF19
 344 00e3 04       		.byte	0x4
 345 00e4 48       		.byte	0x48
 346 00e5 97000000 		.4byte	0x97
 347 00e9 04       		.uleb128 0x4
 348 00ea 80010000 		.4byte	.LASF20
 349 00ee 04       		.byte	0x4
 350 00ef 49       		.byte	0x49
 351 00f0 97000000 		.4byte	0x97
 352 00f4 04       		.uleb128 0x4
 353 00f5 19040000 		.4byte	.LASF21
 354 00f9 04       		.byte	0x4
 355 00fa 4A       		.byte	0x4a
 356 00fb 97000000 		.4byte	0x97
 357 00ff 04       		.uleb128 0x4
ARM GAS  /var/folders/c6/c789hm653lg9vtl73krp73tm0000gn/T//cc7zIXeU.s 			page 15


 358 0100 4B040000 		.4byte	.LASF22
 359 0104 04       		.byte	0x4
 360 0105 4C       		.byte	0x4c
 361 0106 AD000000 		.4byte	0xad
 362 010a 04       		.uleb128 0x4
 363 010b 07030000 		.4byte	.LASF23
 364 010f 04       		.byte	0x4
 365 0110 4D       		.byte	0x4d
 366 0111 A2000000 		.4byte	0xa2
 367 0115 04       		.uleb128 0x4
 368 0116 46030000 		.4byte	.LASF24
 369 011a 04       		.byte	0x4
 370 011b 4F       		.byte	0x4f
 371 011c AD000000 		.4byte	0xad
 372 0120 04       		.uleb128 0x4
 373 0121 20020000 		.4byte	.LASF25
 374 0125 04       		.byte	0x4
 375 0126 51       		.byte	0x51
 376 0127 A2000000 		.4byte	0xa2
 377 012b 04       		.uleb128 0x4
 378 012c 12030000 		.4byte	.LASF26
 379 0130 04       		.byte	0x4
 380 0131 52       		.byte	0x52
 381 0132 AD000000 		.4byte	0xad
 382 0136 04       		.uleb128 0x4
 383 0137 72050000 		.4byte	.LASF27
 384 013b 05       		.byte	0x5
 385 013c 33       		.byte	0x33
 386 013d AD000000 		.4byte	0xad
 387 0141 04       		.uleb128 0x4
 388 0142 5D050000 		.4byte	.LASF28
 389 0146 05       		.byte	0x5
 390 0147 3F       		.byte	0x3f
 391 0148 4C010000 		.4byte	0x14c
 392 014c 06       		.uleb128 0x6
 393 014d FD020000 		.4byte	.LASF50
 394 0151 60       		.byte	0x60
 395 0152 06       		.byte	0x6
 396 0153 C2       		.byte	0xc2
 397 0154 52020000 		.4byte	0x252
 398 0158 07       		.uleb128 0x7
 399 0159 C6040000 		.4byte	.LASF29
 400 015d 06       		.byte	0x6
 401 015e C3       		.byte	0xc3
 402 015f 5D020000 		.4byte	0x25d
 403 0163 00       		.byte	0
 404 0164 07       		.uleb128 0x7
 405 0165 3B040000 		.4byte	.LASF30
 406 0169 06       		.byte	0x6
 407 016a C5       		.byte	0xc5
 408 016b 5D020000 		.4byte	0x25d
 409 016f 04       		.byte	0x4
 410 0170 07       		.uleb128 0x7
 411 0171 27010000 		.4byte	.LASF31
 412 0175 06       		.byte	0x6
 413 0176 C7       		.byte	0xc7
 414 0177 FF000000 		.4byte	0xff
ARM GAS  /var/folders/c6/c789hm653lg9vtl73krp73tm0000gn/T//cc7zIXeU.s 			page 16


 415 017b 08       		.byte	0x8
 416 017c 07       		.uleb128 0x7
 417 017d 69070000 		.4byte	.LASF32
 418 0181 06       		.byte	0x6
 419 0182 C8       		.byte	0xc8
 420 0183 C6040000 		.4byte	0x4c6
 421 0187 0C       		.byte	0xc
 422 0188 07       		.uleb128 0x7
 423 0189 A9010000 		.4byte	.LASF33
 424 018d 06       		.byte	0x6
 425 018e CA       		.byte	0xca
 426 018f 5D020000 		.4byte	0x25d
 427 0193 10       		.byte	0x10
 428 0194 07       		.uleb128 0x7
 429 0195 C6030000 		.4byte	.LASF34
 430 0199 06       		.byte	0x6
 431 019a CB       		.byte	0xcb
 432 019b 5D020000 		.4byte	0x25d
 433 019f 14       		.byte	0x14
 434 01a0 07       		.uleb128 0x7
 435 01a1 25060000 		.4byte	.LASF35
 436 01a5 06       		.byte	0x6
 437 01a6 D2       		.byte	0xd2
 438 01a7 6A070000 		.4byte	0x76a
 439 01ab 18       		.byte	0x18
 440 01ac 07       		.uleb128 0x7
 441 01ad 26020000 		.4byte	.LASF36
 442 01b1 06       		.byte	0x6
 443 01b2 D8       		.byte	0xd8
 444 01b3 7C070000 		.4byte	0x77c
 445 01b7 1C       		.byte	0x1c
 446 01b8 07       		.uleb128 0x7
 447 01b9 9F040000 		.4byte	.LASF37
 448 01bd 06       		.byte	0x6
 449 01be DD       		.byte	0xdd
 450 01bf E9000000 		.4byte	0xe9
 451 01c3 20       		.byte	0x20
 452 01c4 07       		.uleb128 0x7
 453 01c5 CD040000 		.4byte	.LASF38
 454 01c9 06       		.byte	0x6
 455 01ca E1       		.byte	0xe1
 456 01cb DE000000 		.4byte	0xde
 457 01cf 21       		.byte	0x21
 458 01d0 07       		.uleb128 0x7
 459 01d1 F3050000 		.4byte	.LASF39
 460 01d5 06       		.byte	0x6
 461 01d6 E6       		.byte	0xe6
 462 01d7 F4000000 		.4byte	0xf4
 463 01db 22       		.byte	0x22
 464 01dc 08       		.uleb128 0x8
 465 01dd 705F7500 		.ascii	"p_u\000"
 466 01e1 06       		.byte	0x6
 467 01e2 3101     		.2byte	0x131
 468 01e4 A5060000 		.4byte	0x6a5
 469 01e8 24       		.byte	0x24
 470 01e9 09       		.uleb128 0x9
 471 01ea 6E030000 		.4byte	.LASF40
ARM GAS  /var/folders/c6/c789hm653lg9vtl73krp73tm0000gn/T//cc7zIXeU.s 			page 17


 472 01ee 06       		.byte	0x6
 473 01ef 3601     		.2byte	0x136
 474 01f1 63020000 		.4byte	0x263
 475 01f5 28       		.byte	0x28
 476 01f6 09       		.uleb128 0x9
 477 01f7 4D020000 		.4byte	.LASF41
 478 01fb 06       		.byte	0x6
 479 01fc 3C01     		.2byte	0x13c
 480 01fe 87020000 		.4byte	0x287
 481 0202 2C       		.byte	0x2c
 482 0203 09       		.uleb128 0x9
 483 0204 2F070000 		.4byte	.LASF42
 484 0208 06       		.byte	0x6
 485 0209 4001     		.2byte	0x140
 486 020b 0A010000 		.4byte	0x10a
 487 020f 34       		.byte	0x34
 488 0210 09       		.uleb128 0x9
 489 0211 02050000 		.4byte	.LASF43
 490 0215 06       		.byte	0x6
 491 0216 4601     		.2byte	0x146
 492 0218 15010000 		.4byte	0x115
 493 021c 38       		.byte	0x38
 494 021d 09       		.uleb128 0x9
 495 021e 8B040000 		.4byte	.LASF44
 496 0222 06       		.byte	0x6
 497 0223 4D01     		.2byte	0x14d
 498 0225 64070000 		.4byte	0x764
 499 0229 3C       		.byte	0x3c
 500 022a 09       		.uleb128 0x9
 501 022b 7C050000 		.4byte	.LASF45
 502 022f 06       		.byte	0x6
 503 0230 5101     		.2byte	0x151
 504 0232 FF000000 		.4byte	0xff
 505 0236 40       		.byte	0x40
 506 0237 09       		.uleb128 0x9
 507 0238 50010000 		.4byte	.LASF46
 508 023c 06       		.byte	0x6
 509 023d 5801     		.2byte	0x158
 510 023f 3A030000 		.4byte	0x33a
 511 0243 44       		.byte	0x44
 512 0244 09       		.uleb128 0x9
 513 0245 D5040000 		.4byte	.LASF47
 514 0249 06       		.byte	0x6
 515 024a 5E01     		.2byte	0x15e
 516 024c 56060000 		.4byte	0x656
 517 0250 48       		.byte	0x48
 518 0251 00       		.byte	0
 519 0252 04       		.uleb128 0x4
 520 0253 81030000 		.4byte	.LASF48
 521 0257 05       		.byte	0x5
 522 0258 44       		.byte	0x44
 523 0259 5D020000 		.4byte	0x25d
 524 025d 0A       		.uleb128 0xa
 525 025e 04       		.byte	0x4
 526 025f 41010000 		.4byte	0x141
 527 0263 04       		.uleb128 0x4
 528 0264 33060000 		.4byte	.LASF49
ARM GAS  /var/folders/c6/c789hm653lg9vtl73krp73tm0000gn/T//cc7zIXeU.s 			page 18


 529 0268 05       		.byte	0x5
 530 0269 49       		.byte	0x49
 531 026a 6E020000 		.4byte	0x26e
 532 026e 06       		.uleb128 0x6
 533 026f 2E050000 		.4byte	.LASF51
 534 0273 04       		.byte	0x4
 535 0274 06       		.byte	0x6
 536 0275 B0       		.byte	0xb0
 537 0276 87020000 		.4byte	0x287
 538 027a 07       		.uleb128 0x7
 539 027b C6040000 		.4byte	.LASF29
 540 027f 06       		.byte	0x6
 541 0280 B1       		.byte	0xb1
 542 0281 5D020000 		.4byte	0x25d
 543 0285 00       		.byte	0
 544 0286 00       		.byte	0
 545 0287 04       		.uleb128 0x4
 546 0288 DA050000 		.4byte	.LASF52
 547 028c 05       		.byte	0x5
 548 028d 50       		.byte	0x50
 549 028e 92020000 		.4byte	0x292
 550 0292 06       		.uleb128 0x6
 551 0293 6F000000 		.4byte	.LASF53
 552 0297 08       		.byte	0x8
 553 0298 06       		.byte	0x6
 554 0299 B7       		.byte	0xb7
 555 029a B7020000 		.4byte	0x2b7
 556 029e 07       		.uleb128 0x7
 557 029f C6040000 		.4byte	.LASF29
 558 02a3 06       		.byte	0x6
 559 02a4 B8       		.byte	0xb8
 560 02a5 5D020000 		.4byte	0x25d
 561 02a9 00       		.byte	0
 562 02aa 07       		.uleb128 0x7
 563 02ab 3B040000 		.4byte	.LASF30
 564 02af 06       		.byte	0x6
 565 02b0 B9       		.byte	0xb9
 566 02b1 5D020000 		.4byte	0x25d
 567 02b5 04       		.byte	0x4
 568 02b6 00       		.byte	0
 569 02b7 04       		.uleb128 0x4
 570 02b8 1A000000 		.4byte	.LASF54
 571 02bc 05       		.byte	0x5
 572 02bd 57       		.byte	0x57
 573 02be C2020000 		.4byte	0x2c2
 574 02c2 0B       		.uleb128 0xb
 575 02c3 38030000 		.4byte	.LASF55
 576 02c7 1C       		.byte	0x1c
 577 02c8 06       		.byte	0x6
 578 02c9 9001     		.2byte	0x190
 579 02cb 1E030000 		.4byte	0x31e
 580 02cf 09       		.uleb128 0x9
 581 02d0 1D050000 		.4byte	.LASF56
 582 02d4 06       		.byte	0x6
 583 02d5 9101     		.2byte	0x191
 584 02d7 87020000 		.4byte	0x287
 585 02db 00       		.byte	0
ARM GAS  /var/folders/c6/c789hm653lg9vtl73krp73tm0000gn/T//cc7zIXeU.s 			page 19


 586 02dc 09       		.uleb128 0x9
 587 02dd B1040000 		.4byte	.LASF57
 588 02e1 06       		.byte	0x6
 589 02e2 9201     		.2byte	0x192
 590 02e4 FF000000 		.4byte	0xff
 591 02e8 08       		.byte	0x8
 592 02e9 09       		.uleb128 0x9
 593 02ea CE030000 		.4byte	.LASF58
 594 02ee 06       		.byte	0x6
 595 02ef 9401     		.2byte	0x194
 596 02f1 C6040000 		.4byte	0x4c6
 597 02f5 0C       		.byte	0xc
 598 02f6 09       		.uleb128 0x9
 599 02f7 C9010000 		.4byte	.LASF59
 600 02fb 06       		.byte	0x6
 601 02fc 9701     		.2byte	0x197
 602 02fe 5D020000 		.4byte	0x25d
 603 0302 10       		.byte	0x10
 604 0303 09       		.uleb128 0x9
 605 0304 FB030000 		.4byte	.LASF60
 606 0308 06       		.byte	0x6
 607 0309 9801     		.2byte	0x198
 608 030b 5D020000 		.4byte	0x25d
 609 030f 14       		.byte	0x14
 610 0310 09       		.uleb128 0x9
 611 0311 F1030000 		.4byte	.LASF61
 612 0315 06       		.byte	0x6
 613 0316 9B01     		.2byte	0x19b
 614 0318 5D020000 		.4byte	0x25d
 615 031c 18       		.byte	0x18
 616 031d 00       		.byte	0
 617 031e 04       		.uleb128 0x4
 618 031f 87050000 		.4byte	.LASF62
 619 0323 05       		.byte	0x5
 620 0324 5C       		.byte	0x5c
 621 0325 29030000 		.4byte	0x329
 622 0329 0A       		.uleb128 0xa
 623 032a 04       		.byte	0x4
 624 032b 2F030000 		.4byte	0x32f
 625 032f 0C       		.uleb128 0xc
 626 0330 3A030000 		.4byte	0x33a
 627 0334 0D       		.uleb128 0xd
 628 0335 3A030000 		.4byte	0x33a
 629 0339 00       		.byte	0
 630 033a 0E       		.uleb128 0xe
 631 033b 04       		.byte	0x4
 632 033c 04       		.uleb128 0x4
 633 033d 2B040000 		.4byte	.LASF63
 634 0341 05       		.byte	0x5
 635 0342 61       		.byte	0x61
 636 0343 47030000 		.4byte	0x347
 637 0347 0B       		.uleb128 0xb
 638 0348 E4040000 		.4byte	.LASF64
 639 034c 14       		.byte	0x14
 640 034d 06       		.byte	0x6
 641 034e 6B01     		.2byte	0x16b
 642 0350 96030000 		.4byte	0x396
ARM GAS  /var/folders/c6/c789hm653lg9vtl73krp73tm0000gn/T//cc7zIXeU.s 			page 20


 643 0354 09       		.uleb128 0x9
 644 0355 3E020000 		.4byte	.LASF65
 645 0359 06       		.byte	0x6
 646 035a 6C01     		.2byte	0x16c
 647 035c 82070000 		.4byte	0x782
 648 0360 00       		.byte	0
 649 0361 09       		.uleb128 0x9
 650 0362 DA010000 		.4byte	.LASF66
 651 0366 06       		.byte	0x6
 652 0367 6D01     		.2byte	0x16d
 653 0369 82070000 		.4byte	0x782
 654 036d 04       		.byte	0x4
 655 036e 09       		.uleb128 0x9
 656 036f 25050000 		.4byte	.LASF67
 657 0373 06       		.byte	0x6
 658 0374 6E01     		.2byte	0x16e
 659 0376 36010000 		.4byte	0x136
 660 037a 08       		.byte	0x8
 661 037b 09       		.uleb128 0x9
 662 037c 6F070000 		.4byte	.LASF68
 663 0380 06       		.byte	0x6
 664 0381 6F01     		.2byte	0x16f
 665 0383 1E030000 		.4byte	0x31e
 666 0387 0C       		.byte	0xc
 667 0388 09       		.uleb128 0x9
 668 0389 C9050000 		.4byte	.LASF69
 669 038d 06       		.byte	0x6
 670 038e 7101     		.2byte	0x171
 671 0390 3A030000 		.4byte	0x33a
 672 0394 10       		.byte	0x10
 673 0395 00       		.byte	0
 674 0396 04       		.uleb128 0x4
 675 0397 FB000000 		.4byte	.LASF70
 676 039b 05       		.byte	0x5
 677 039c 66       		.byte	0x66
 678 039d A1030000 		.4byte	0x3a1
 679 03a1 0B       		.uleb128 0xb
 680 03a2 94030000 		.4byte	.LASF71
 681 03a6 10       		.byte	0x10
 682 03a7 06       		.byte	0x6
 683 03a8 7B01     		.2byte	0x17b
 684 03aa E3030000 		.4byte	0x3e3
 685 03ae 09       		.uleb128 0x9
 686 03af 3E020000 		.4byte	.LASF65
 687 03b3 06       		.byte	0x6
 688 03b4 7C01     		.2byte	0x17c
 689 03b6 82070000 		.4byte	0x782
 690 03ba 00       		.byte	0
 691 03bb 09       		.uleb128 0x9
 692 03bc DA010000 		.4byte	.LASF66
 693 03c0 06       		.byte	0x6
 694 03c1 7E01     		.2byte	0x17e
 695 03c3 82070000 		.4byte	0x782
 696 03c7 04       		.byte	0x4
 697 03c8 09       		.uleb128 0x9
 698 03c9 25050000 		.4byte	.LASF67
 699 03cd 06       		.byte	0x6
ARM GAS  /var/folders/c6/c789hm653lg9vtl73krp73tm0000gn/T//cc7zIXeU.s 			page 21


 700 03ce 8001     		.2byte	0x180
 701 03d0 36010000 		.4byte	0x136
 702 03d4 08       		.byte	0x8
 703 03d5 09       		.uleb128 0x9
 704 03d6 BA030000 		.4byte	.LASF72
 705 03da 06       		.byte	0x6
 706 03db 8801     		.2byte	0x188
 707 03dd 36010000 		.4byte	0x136
 708 03e1 0C       		.byte	0xc
 709 03e2 00       		.byte	0
 710 03e3 04       		.uleb128 0x4
 711 03e4 80000000 		.4byte	.LASF73
 712 03e8 05       		.byte	0x5
 713 03e9 6B       		.byte	0x6b
 714 03ea EE030000 		.4byte	0x3ee
 715 03ee 0F       		.uleb128 0xf
 716 03ef E9010000 		.4byte	.LASF74
 717 03f3 1404     		.2byte	0x414
 718 03f5 06       		.byte	0x6
 719 03f6 A201     		.2byte	0x1a2
 720 03f8 31040000 		.4byte	0x431
 721 03fc 09       		.uleb128 0x9
 722 03fd 9B050000 		.4byte	.LASF75
 723 0401 06       		.byte	0x6
 724 0402 AA01     		.2byte	0x1aa
 725 0404 88070000 		.4byte	0x788
 726 0408 00       		.byte	0
 727 0409 09       		.uleb128 0x9
 728 040a FA050000 		.4byte	.LASF76
 729 040e 06       		.byte	0x6
 730 040f AF01     		.2byte	0x1af
 731 0411 20010000 		.4byte	0x120
 732 0415 04       		.byte	0x4
 733 0416 09       		.uleb128 0x9
 734 0417 08020000 		.4byte	.LASF77
 735 041b 06       		.byte	0x6
 736 041c B301     		.2byte	0x1b3
 737 041e 20010000 		.4byte	0x120
 738 0422 08       		.byte	0x8
 739 0423 09       		.uleb128 0x9
 740 0424 42060000 		.4byte	.LASF78
 741 0428 06       		.byte	0x6
 742 0429 B901     		.2byte	0x1b9
 743 042b E8050000 		.4byte	0x5e8
 744 042f 0C       		.byte	0xc
 745 0430 00       		.byte	0
 746 0431 04       		.uleb128 0x4
 747 0432 19030000 		.4byte	.LASF79
 748 0436 05       		.byte	0x5
 749 0437 70       		.byte	0x70
 750 0438 3C040000 		.4byte	0x43c
 751 043c 0F       		.uleb128 0xf
 752 043d 66010000 		.4byte	.LASF80
 753 0441 D805     		.2byte	0x5d8
 754 0443 06       		.byte	0x6
 755 0444 C201     		.2byte	0x1c2
 756 0446 A9040000 		.4byte	0x4a9
ARM GAS  /var/folders/c6/c789hm653lg9vtl73krp73tm0000gn/T//cc7zIXeU.s 			page 22


 757 044a 09       		.uleb128 0x9
 758 044b 10060000 		.4byte	.LASF81
 759 044f 06       		.byte	0x6
 760 0450 C601     		.2byte	0x1c6
 761 0452 B7020000 		.4byte	0x2b7
 762 0456 00       		.byte	0
 763 0457 09       		.uleb128 0x9
 764 0458 E2010000 		.4byte	.LASF82
 765 045c 06       		.byte	0x6
 766 045d CA01     		.2byte	0x1ca
 767 045f 96030000 		.4byte	0x396
 768 0463 1C       		.byte	0x1c
 769 0464 08       		.uleb128 0x8
 770 0465 64626700 		.ascii	"dbg\000"
 771 0469 06       		.byte	0x6
 772 046a CE01     		.2byte	0x1ce
 773 046c E3030000 		.4byte	0x3e3
 774 0470 2C       		.byte	0x2c
 775 0471 10       		.uleb128 0x10
 776 0472 F0000000 		.4byte	.LASF83
 777 0476 06       		.byte	0x6
 778 0477 D201     		.2byte	0x1d2
 779 0479 41010000 		.4byte	0x141
 780 047d 4004     		.2byte	0x440
 781 047f 11       		.uleb128 0x11
 782 0480 746D00   		.ascii	"tm\000"
 783 0483 06       		.byte	0x6
 784 0484 D701     		.2byte	0x1d7
 785 0486 08060000 		.4byte	0x608
 786 048a A004     		.2byte	0x4a0
 787 048c 10       		.uleb128 0x10
 788 048d 4C000000 		.4byte	.LASF84
 789 0491 06       		.byte	0x6
 790 0492 DD01     		.2byte	0x1dd
 791 0494 9A060000 		.4byte	0x69a
 792 0498 A804     		.2byte	0x4a8
 793 049a 10       		.uleb128 0x10
 794 049b 11020000 		.4byte	.LASF85
 795 049f 06       		.byte	0x6
 796 04a0 E301     		.2byte	0x1e3
 797 04a2 8D070000 		.4byte	0x78d
 798 04a6 E004     		.2byte	0x4e0
 799 04a8 00       		.byte	0
 800 04a9 03       		.uleb128 0x3
 801 04aa 04       		.byte	0x4
 802 04ab 07       		.byte	0x7
 803 04ac 78030000 		.4byte	.LASF86
 804 04b0 04       		.uleb128 0x4
 805 04b1 D1010000 		.4byte	.LASF87
 806 04b5 07       		.byte	0x7
 807 04b6 65       		.byte	0x65
 808 04b7 3A030000 		.4byte	0x33a
 809 04bb 04       		.uleb128 0x4
 810 04bc 63030000 		.4byte	.LASF88
 811 04c0 07       		.byte	0x7
 812 04c1 6D       		.byte	0x6d
 813 04c2 B8000000 		.4byte	0xb8
ARM GAS  /var/folders/c6/c789hm653lg9vtl73krp73tm0000gn/T//cc7zIXeU.s 			page 23


 814 04c6 06       		.uleb128 0x6
 815 04c7 AC050000 		.4byte	.LASF89
 816 04cb 04       		.byte	0x4
 817 04cc 07       		.byte	0x7
 818 04cd 89       		.byte	0x89
 819 04ce DF040000 		.4byte	0x4df
 820 04d2 12       		.uleb128 0x12
 821 04d3 72313300 		.ascii	"r13\000"
 822 04d7 07       		.byte	0x7
 823 04d8 8A       		.byte	0x8a
 824 04d9 5A050000 		.4byte	0x55a
 825 04dd 00       		.byte	0
 826 04de 00       		.byte	0
 827 04df 06       		.uleb128 0x6
 828 04e0 63000000 		.4byte	.LASF90
 829 04e4 24       		.byte	0x24
 830 04e5 08       		.byte	0x8
 831 04e6 F4       		.byte	0xf4
 832 04e7 5A050000 		.4byte	0x55a
 833 04eb 08       		.uleb128 0x8
 834 04ec 723400   		.ascii	"r4\000"
 835 04ef 08       		.byte	0x8
 836 04f0 0701     		.2byte	0x107
 837 04f2 B0040000 		.4byte	0x4b0
 838 04f6 00       		.byte	0
 839 04f7 08       		.uleb128 0x8
 840 04f8 723500   		.ascii	"r5\000"
 841 04fb 08       		.byte	0x8
 842 04fc 0801     		.2byte	0x108
 843 04fe B0040000 		.4byte	0x4b0
 844 0502 04       		.byte	0x4
 845 0503 08       		.uleb128 0x8
 846 0504 723600   		.ascii	"r6\000"
 847 0507 08       		.byte	0x8
 848 0508 0901     		.2byte	0x109
 849 050a B0040000 		.4byte	0x4b0
 850 050e 08       		.byte	0x8
 851 050f 08       		.uleb128 0x8
 852 0510 723700   		.ascii	"r7\000"
 853 0513 08       		.byte	0x8
 854 0514 0A01     		.2byte	0x10a
 855 0516 B0040000 		.4byte	0x4b0
 856 051a 0C       		.byte	0xc
 857 051b 08       		.uleb128 0x8
 858 051c 723800   		.ascii	"r8\000"
 859 051f 08       		.byte	0x8
 860 0520 0B01     		.2byte	0x10b
 861 0522 B0040000 		.4byte	0x4b0
 862 0526 10       		.byte	0x10
 863 0527 08       		.uleb128 0x8
 864 0528 723900   		.ascii	"r9\000"
 865 052b 08       		.byte	0x8
 866 052c 0C01     		.2byte	0x10c
 867 052e B0040000 		.4byte	0x4b0
 868 0532 14       		.byte	0x14
 869 0533 08       		.uleb128 0x8
 870 0534 72313000 		.ascii	"r10\000"
ARM GAS  /var/folders/c6/c789hm653lg9vtl73krp73tm0000gn/T//cc7zIXeU.s 			page 24


 871 0538 08       		.byte	0x8
 872 0539 0D01     		.2byte	0x10d
 873 053b B0040000 		.4byte	0x4b0
 874 053f 18       		.byte	0x18
 875 0540 08       		.uleb128 0x8
 876 0541 72313100 		.ascii	"r11\000"
 877 0545 08       		.byte	0x8
 878 0546 0E01     		.2byte	0x10e
 879 0548 B0040000 		.4byte	0x4b0
 880 054c 1C       		.byte	0x1c
 881 054d 08       		.uleb128 0x8
 882 054e 6C7200   		.ascii	"lr\000"
 883 0551 08       		.byte	0x8
 884 0552 0F01     		.2byte	0x10f
 885 0554 B0040000 		.4byte	0x4b0
 886 0558 20       		.byte	0x20
 887 0559 00       		.byte	0
 888 055a 0A       		.uleb128 0xa
 889 055b 04       		.byte	0x4
 890 055c DF040000 		.4byte	0x4df
 891 0560 13       		.uleb128 0x13
 892 0561 10       		.byte	0x10
 893 0562 09       		.byte	0x9
 894 0563 51       		.byte	0x51
 895 0564 99050000 		.4byte	0x599
 896 0568 07       		.uleb128 0x7
 897 0569 48010000 		.4byte	.LASF91
 898 056d 09       		.byte	0x9
 899 056e 55       		.byte	0x55
 900 056f 36010000 		.4byte	0x136
 901 0573 00       		.byte	0
 902 0574 07       		.uleb128 0x7
 903 0575 89010000 		.4byte	.LASF92
 904 0579 09       		.byte	0x9
 905 057a 59       		.byte	0x59
 906 057b 5D020000 		.4byte	0x25d
 907 057f 04       		.byte	0x4
 908 0580 07       		.uleb128 0x7
 909 0581 6E020000 		.4byte	.LASF93
 910 0585 09       		.byte	0x9
 911 0586 5D       		.byte	0x5d
 912 0587 3A030000 		.4byte	0x33a
 913 058b 08       		.byte	0x8
 914 058c 07       		.uleb128 0x7
 915 058d D8000000 		.4byte	.LASF94
 916 0591 09       		.byte	0x9
 917 0592 61       		.byte	0x61
 918 0593 97000000 		.4byte	0x97
 919 0597 0C       		.byte	0xc
 920 0598 00       		.byte	0
 921 0599 04       		.uleb128 0x4
 922 059a AB030000 		.4byte	.LASF95
 923 059e 09       		.byte	0x9
 924 059f 62       		.byte	0x62
 925 05a0 60050000 		.4byte	0x560
 926 05a4 14       		.uleb128 0x14
 927 05a5 0804     		.2byte	0x408
ARM GAS  /var/folders/c6/c789hm653lg9vtl73krp73tm0000gn/T//cc7zIXeU.s 			page 25


 928 05a7 09       		.byte	0x9
 929 05a8 67       		.byte	0x67
 930 05a9 D2050000 		.4byte	0x5d2
 931 05ad 07       		.uleb128 0x7
 932 05ae C1010000 		.4byte	.LASF96
 933 05b2 09       		.byte	0x9
 934 05b3 6B       		.byte	0x6b
 935 05b4 2C000000 		.4byte	0x2c
 936 05b8 00       		.byte	0
 937 05b9 07       		.uleb128 0x7
 938 05ba 13000000 		.4byte	.LASF97
 939 05be 09       		.byte	0x9
 940 05bf 6F       		.byte	0x6f
 941 05c0 D2050000 		.4byte	0x5d2
 942 05c4 04       		.byte	0x4
 943 05c5 07       		.uleb128 0x7
 944 05c6 21040000 		.4byte	.LASF98
 945 05ca 09       		.byte	0x9
 946 05cb 73       		.byte	0x73
 947 05cc D8050000 		.4byte	0x5d8
 948 05d0 08       		.byte	0x8
 949 05d1 00       		.byte	0
 950 05d2 0A       		.uleb128 0xa
 951 05d3 04       		.byte	0x4
 952 05d4 99050000 		.4byte	0x599
 953 05d8 15       		.uleb128 0x15
 954 05d9 99050000 		.4byte	0x599
 955 05dd E8050000 		.4byte	0x5e8
 956 05e1 16       		.uleb128 0x16
 957 05e2 A9040000 		.4byte	0x4a9
 958 05e6 3F       		.byte	0x3f
 959 05e7 00       		.byte	0
 960 05e8 04       		.uleb128 0x4
 961 05e9 C6000000 		.4byte	.LASF99
 962 05ed 09       		.byte	0x9
 963 05ee 74       		.byte	0x74
 964 05ef A4050000 		.4byte	0x5a4
 965 05f3 13       		.uleb128 0x13
 966 05f4 04       		.byte	0x4
 967 05f5 0A       		.byte	0xa
 968 05f6 38       		.byte	0x38
 969 05f7 08060000 		.4byte	0x608
 970 05fb 07       		.uleb128 0x7
 971 05fc A5050000 		.4byte	.LASF100
 972 0600 0A       		.byte	0xa
 973 0601 3C       		.byte	0x3c
 974 0602 C8000000 		.4byte	0xc8
 975 0606 00       		.byte	0
 976 0607 00       		.byte	0
 977 0608 04       		.uleb128 0x4
 978 0609 D4030000 		.4byte	.LASF101
 979 060d 0A       		.byte	0xa
 980 060e 3D       		.byte	0x3d
 981 060f F3050000 		.4byte	0x5f3
 982 0613 13       		.uleb128 0x13
 983 0614 18       		.byte	0x18
 984 0615 0A       		.byte	0xa
ARM GAS  /var/folders/c6/c789hm653lg9vtl73krp73tm0000gn/T//cc7zIXeU.s 			page 26


 985 0616 48       		.byte	0x48
 986 0617 56060000 		.4byte	0x656
 987 061b 07       		.uleb128 0x7
 988 061c 66050000 		.4byte	.LASF102
 989 0620 0A       		.byte	0xa
 990 0621 49       		.byte	0x49
 991 0622 C8000000 		.4byte	0xc8
 992 0626 00       		.byte	0
 993 0627 07       		.uleb128 0x7
 994 0628 8F000000 		.4byte	.LASF103
 995 062c 0A       		.byte	0xa
 996 062d 4A       		.byte	0x4a
 997 062e C8000000 		.4byte	0xc8
 998 0632 04       		.byte	0x4
 999 0633 07       		.uleb128 0x7
 1000 0634 0D030000 		.4byte	.LASF104
 1001 0638 0A       		.byte	0xa
 1002 0639 4B       		.byte	0x4b
 1003 063a C8000000 		.4byte	0xc8
 1004 063e 08       		.byte	0x8
 1005 063f 12       		.uleb128 0x12
 1006 0640 6E00     		.ascii	"n\000"
 1007 0642 0A       		.byte	0xa
 1008 0643 4C       		.byte	0x4c
 1009 0644 2B010000 		.4byte	0x12b
 1010 0648 0C       		.byte	0xc
 1011 0649 07       		.uleb128 0x7
 1012 064a 0E040000 		.4byte	.LASF105
 1013 064e 0A       		.byte	0xa
 1014 064f 4D       		.byte	0x4d
 1015 0650 D3000000 		.4byte	0xd3
 1016 0654 10       		.byte	0x10
 1017 0655 00       		.byte	0
 1018 0656 04       		.uleb128 0x4
 1019 0657 9C000000 		.4byte	.LASF106
 1020 065b 0A       		.byte	0xa
 1021 065c 4E       		.byte	0x4e
 1022 065d 13060000 		.4byte	0x613
 1023 0661 13       		.uleb128 0x13
 1024 0662 38       		.byte	0x38
 1025 0663 0B       		.byte	0xb
 1026 0664 38       		.byte	0x38
 1027 0665 9A060000 		.4byte	0x69a
 1028 0669 07       		.uleb128 0x7
 1029 066a 68020000 		.4byte	.LASF107
 1030 066e 0B       		.byte	0xb
 1031 066f 39       		.byte	0x39
 1032 0670 2B010000 		.4byte	0x12b
 1033 0674 00       		.byte	0
 1034 0675 07       		.uleb128 0x7
 1035 0676 53040000 		.4byte	.LASF108
 1036 067a 0B       		.byte	0xb
 1037 067b 3A       		.byte	0x3a
 1038 067c 2B010000 		.4byte	0x12b
 1039 0680 04       		.byte	0x4
 1040 0681 07       		.uleb128 0x7
 1041 0682 43070000 		.4byte	.LASF109
ARM GAS  /var/folders/c6/c789hm653lg9vtl73krp73tm0000gn/T//cc7zIXeU.s 			page 27


 1042 0686 0B       		.byte	0xb
 1043 0687 3B       		.byte	0x3b
 1044 0688 56060000 		.4byte	0x656
 1045 068c 08       		.byte	0x8
 1046 068d 07       		.uleb128 0x7
 1047 068e 2D030000 		.4byte	.LASF110
 1048 0692 0B       		.byte	0xb
 1049 0693 3D       		.byte	0x3d
 1050 0694 56060000 		.4byte	0x656
 1051 0698 20       		.byte	0x20
 1052 0699 00       		.byte	0
 1053 069a 04       		.uleb128 0x4
 1054 069b EE020000 		.4byte	.LASF111
 1055 069f 0B       		.byte	0xb
 1056 06a0 3F       		.byte	0x3f
 1057 06a1 61060000 		.4byte	0x661
 1058 06a5 17       		.uleb128 0x17
 1059 06a6 04       		.byte	0x4
 1060 06a7 06       		.byte	0x6
 1061 06a8 FA       		.byte	0xfa
 1062 06a9 02070000 		.4byte	0x702
 1063 06ad 18       		.uleb128 0x18
 1064 06ae 3C000000 		.4byte	.LASF112
 1065 06b2 06       		.byte	0x6
 1066 06b3 0101     		.2byte	0x101
 1067 06b5 0A010000 		.4byte	0x10a
 1068 06b9 18       		.uleb128 0x18
 1069 06ba E7000000 		.4byte	.LASF113
 1070 06be 06       		.byte	0x6
 1071 06bf 0801     		.2byte	0x108
 1072 06c1 0A010000 		.4byte	0x10a
 1073 06c5 18       		.uleb128 0x18
 1074 06c6 1E060000 		.4byte	.LASF114
 1075 06ca 06       		.byte	0x6
 1076 06cb 0F01     		.2byte	0x10f
 1077 06cd 3A030000 		.4byte	0x33a
 1078 06d1 18       		.uleb128 0x18
 1079 06d2 36000000 		.4byte	.LASF115
 1080 06d6 06       		.byte	0x6
 1081 06d7 1601     		.2byte	0x116
 1082 06d9 02070000 		.4byte	0x702
 1083 06dd 18       		.uleb128 0x18
 1084 06de 46020000 		.4byte	.LASF116
 1085 06e2 06       		.byte	0x6
 1086 06e3 1E01     		.2byte	0x11e
 1087 06e5 2D070000 		.4byte	0x72d
 1088 06e9 18       		.uleb128 0x18
 1089 06ea 16050000 		.4byte	.LASF117
 1090 06ee 06       		.byte	0x6
 1091 06ef 2701     		.2byte	0x127
 1092 06f1 64070000 		.4byte	0x764
 1093 06f5 18       		.uleb128 0x18
 1094 06f6 BF040000 		.4byte	.LASF118
 1095 06fa 06       		.byte	0x6
 1096 06fb 2F01     		.2byte	0x12f
 1097 06fd 15010000 		.4byte	0x115
 1098 0701 00       		.byte	0
ARM GAS  /var/folders/c6/c789hm653lg9vtl73krp73tm0000gn/T//cc7zIXeU.s 			page 28


 1099 0702 0A       		.uleb128 0xa
 1100 0703 04       		.byte	0x4
 1101 0704 52020000 		.4byte	0x252
 1102 0708 06       		.uleb128 0x6
 1103 0709 F5040000 		.4byte	.LASF119
 1104 070d 0C       		.byte	0xc
 1105 070e 0C       		.byte	0xc
 1106 070f 34       		.byte	0x34
 1107 0710 2D070000 		.4byte	0x72d
 1108 0714 07       		.uleb128 0x7
 1109 0715 B1010000 		.4byte	.LASF120
 1110 0719 0C       		.byte	0xc
 1111 071a 35       		.byte	0x35
 1112 071b 87020000 		.4byte	0x287
 1113 071f 00       		.byte	0
 1114 0720 07       		.uleb128 0x7
 1115 0721 85040000 		.4byte	.LASF121
 1116 0725 0C       		.byte	0xc
 1117 0726 37       		.byte	0x37
 1118 0727 20010000 		.4byte	0x120
 1119 072b 08       		.byte	0x8
 1120 072c 00       		.byte	0
 1121 072d 0A       		.uleb128 0xa
 1122 072e 04       		.byte	0x4
 1123 072f 08070000 		.4byte	0x708
 1124 0733 06       		.uleb128 0x6
 1125 0734 EA050000 		.4byte	.LASF122
 1126 0738 10       		.byte	0x10
 1127 0739 0D       		.byte	0xd
 1128 073a 39       		.byte	0x39
 1129 073b 64070000 		.4byte	0x764
 1130 073f 07       		.uleb128 0x7
 1131 0740 58010000 		.4byte	.LASF123
 1132 0744 0D       		.byte	0xd
 1133 0745 3A       		.byte	0x3a
 1134 0746 87020000 		.4byte	0x287
 1135 074a 00       		.byte	0
 1136 074b 07       		.uleb128 0x7
 1137 074c 4E070000 		.4byte	.LASF124
 1138 0750 0D       		.byte	0xd
 1139 0751 3C       		.byte	0x3c
 1140 0752 5D020000 		.4byte	0x25d
 1141 0756 08       		.byte	0x8
 1142 0757 07       		.uleb128 0x7
 1143 0758 6B050000 		.4byte	.LASF125
 1144 075c 0D       		.byte	0xd
 1145 075d 3E       		.byte	0x3e
 1146 075e A8070000 		.4byte	0x7a8
 1147 0762 0C       		.byte	0xc
 1148 0763 00       		.byte	0
 1149 0764 0A       		.uleb128 0xa
 1150 0765 04       		.byte	0x4
 1151 0766 33070000 		.4byte	0x733
 1152 076a 0A       		.uleb128 0xa
 1153 076b 04       		.byte	0x4
 1154 076c 70070000 		.4byte	0x770
 1155 0770 19       		.uleb128 0x19
ARM GAS  /var/folders/c6/c789hm653lg9vtl73krp73tm0000gn/T//cc7zIXeU.s 			page 29


 1156 0771 75070000 		.4byte	0x775
 1157 0775 03       		.uleb128 0x3
 1158 0776 01       		.byte	0x1
 1159 0777 08       		.byte	0x8
 1160 0778 50050000 		.4byte	.LASF126
 1161 077c 0A       		.uleb128 0xa
 1162 077d 04       		.byte	0x4
 1163 077e BB040000 		.4byte	0x4bb
 1164 0782 0A       		.uleb128 0xa
 1165 0783 04       		.byte	0x4
 1166 0784 3C030000 		.4byte	0x33c
 1167 0788 05       		.uleb128 0x5
 1168 0789 6A070000 		.4byte	0x76a
 1169 078d 15       		.uleb128 0x15
 1170 078e BB040000 		.4byte	0x4bb
 1171 0792 9D070000 		.4byte	0x79d
 1172 0796 16       		.uleb128 0x16
 1173 0797 A9040000 		.4byte	0x4a9
 1174 079b 1E       		.byte	0x1e
 1175 079c 00       		.byte	0
 1176 079d 04       		.uleb128 0x4
 1177 079e F9010000 		.4byte	.LASF127
 1178 07a2 0D       		.byte	0xd
 1179 07a3 34       		.byte	0x34
 1180 07a4 33070000 		.4byte	0x733
 1181 07a8 0A       		.uleb128 0xa
 1182 07a9 04       		.byte	0x4
 1183 07aa 9D070000 		.4byte	0x79d
 1184 07ae 03       		.uleb128 0x3
 1185 07af 01       		.byte	0x1
 1186 07b0 02       		.byte	0x2
 1187 07b1 5C040000 		.4byte	.LASF128
 1188 07b5 13       		.uleb128 0x13
 1189 07b6 1C       		.byte	0x1c
 1190 07b7 0E       		.byte	0xe
 1191 07b8 C1       		.byte	0xc1
 1192 07b9 12080000 		.4byte	0x812
 1193 07bd 07       		.uleb128 0x7
 1194 07be 60010000 		.4byte	.LASF129
 1195 07c2 0E       		.byte	0xe
 1196 07c3 C3       		.byte	0xc3
 1197 07c4 AD000000 		.4byte	0xad
 1198 07c8 00       		.byte	0
 1199 07c9 07       		.uleb128 0x7
 1200 07ca 78020000 		.4byte	.LASF130
 1201 07ce 0E       		.byte	0xe
 1202 07cf C5       		.byte	0xc5
 1203 07d0 AD000000 		.4byte	0xad
 1204 07d4 04       		.byte	0x4
 1205 07d5 07       		.uleb128 0x7
 1206 07d6 60020000 		.4byte	.LASF131
 1207 07da 0E       		.byte	0xe
 1208 07db C7       		.byte	0xc7
 1209 07dc AD000000 		.4byte	0xad
 1210 07e0 08       		.byte	0x8
 1211 07e1 07       		.uleb128 0x7
 1212 07e2 E1000000 		.4byte	.LASF132
ARM GAS  /var/folders/c6/c789hm653lg9vtl73krp73tm0000gn/T//cc7zIXeU.s 			page 30


 1213 07e6 0E       		.byte	0xe
 1214 07e7 C9       		.byte	0xc9
 1215 07e8 AD000000 		.4byte	0xad
 1216 07ec 0C       		.byte	0xc
 1217 07ed 12       		.uleb128 0x12
 1218 07ee 6F647200 		.ascii	"odr\000"
 1219 07f2 0E       		.byte	0xe
 1220 07f3 CB       		.byte	0xcb
 1221 07f4 AD000000 		.4byte	0xad
 1222 07f8 10       		.byte	0x10
 1223 07f9 07       		.uleb128 0x7
 1224 07fa 80040000 		.4byte	.LASF133
 1225 07fe 0E       		.byte	0xe
 1226 07ff CD       		.byte	0xcd
 1227 0800 AD000000 		.4byte	0xad
 1228 0804 14       		.byte	0x14
 1229 0805 07       		.uleb128 0x7
 1230 0806 E5030000 		.4byte	.LASF134
 1231 080a 0E       		.byte	0xe
 1232 080b CF       		.byte	0xcf
 1233 080c AD000000 		.4byte	0xad
 1234 0810 18       		.byte	0x18
 1235 0811 00       		.byte	0
 1236 0812 04       		.uleb128 0x4
 1237 0813 00000000 		.4byte	.LASF135
 1238 0817 0E       		.byte	0xe
 1239 0818 D0       		.byte	0xd0
 1240 0819 B5070000 		.4byte	0x7b5
 1241 081d 13       		.uleb128 0x13
 1242 081e FC       		.byte	0xfc
 1243 081f 0E       		.byte	0xe
 1244 0820 D9       		.byte	0xd9
 1245 0821 92080000 		.4byte	0x892
 1246 0825 07       		.uleb128 0x7
 1247 0826 B8040000 		.4byte	.LASF136
 1248 082a 0E       		.byte	0xe
 1249 082b DC       		.byte	0xdc
 1250 082c 12080000 		.4byte	0x812
 1251 0830 00       		.byte	0
 1252 0831 07       		.uleb128 0x7
 1253 0832 01020000 		.4byte	.LASF137
 1254 0836 0E       		.byte	0xe
 1255 0837 E0       		.byte	0xe0
 1256 0838 12080000 		.4byte	0x812
 1257 083c 1C       		.byte	0x1c
 1258 083d 07       		.uleb128 0x7
 1259 083e 2C060000 		.4byte	.LASF138
 1260 0842 0E       		.byte	0xe
 1261 0843 E4       		.byte	0xe4
 1262 0844 12080000 		.4byte	0x812
 1263 0848 38       		.byte	0x38
 1264 0849 07       		.uleb128 0x7
 1265 084a EA030000 		.4byte	.LASF139
 1266 084e 0E       		.byte	0xe
 1267 084f E8       		.byte	0xe8
 1268 0850 12080000 		.4byte	0x812
 1269 0854 54       		.byte	0x54
ARM GAS  /var/folders/c6/c789hm653lg9vtl73krp73tm0000gn/T//cc7zIXeU.s 			page 31


 1270 0855 07       		.uleb128 0x7
 1271 0856 79010000 		.4byte	.LASF140
 1272 085a 0E       		.byte	0xe
 1273 085b EC       		.byte	0xec
 1274 085c 12080000 		.4byte	0x812
 1275 0860 70       		.byte	0x70
 1276 0861 07       		.uleb128 0x7
 1277 0862 35070000 		.4byte	.LASF141
 1278 0866 0E       		.byte	0xe
 1279 0867 F0       		.byte	0xf0
 1280 0868 12080000 		.4byte	0x812
 1281 086c 8C       		.byte	0x8c
 1282 086d 07       		.uleb128 0x7
 1283 086e 5C030000 		.4byte	.LASF142
 1284 0872 0E       		.byte	0xe
 1285 0873 F4       		.byte	0xf4
 1286 0874 12080000 		.4byte	0x812
 1287 0878 A8       		.byte	0xa8
 1288 0879 07       		.uleb128 0x7
 1289 087a 95000000 		.4byte	.LASF143
 1290 087e 0E       		.byte	0xe
 1291 087f F8       		.byte	0xf8
 1292 0880 12080000 		.4byte	0x812
 1293 0884 C4       		.byte	0xc4
 1294 0885 07       		.uleb128 0x7
 1295 0886 DD040000 		.4byte	.LASF144
 1296 088a 0E       		.byte	0xe
 1297 088b FC       		.byte	0xfc
 1298 088c 12080000 		.4byte	0x812
 1299 0890 E0       		.byte	0xe0
 1300 0891 00       		.byte	0
 1301 0892 04       		.uleb128 0x4
 1302 0893 D0050000 		.4byte	.LASF145
 1303 0897 0E       		.byte	0xe
 1304 0898 FE       		.byte	0xfe
 1305 0899 1D080000 		.4byte	0x81d
 1306 089d 1A       		.uleb128 0x1a
 1307 089e 42040000 		.4byte	.LASF159
 1308 08a2 18       		.byte	0x18
 1309 08a3 C101     		.2byte	0x1c1
 1310 08a5 03       		.byte	0x3
 1311 08a6 1B       		.uleb128 0x1b
 1312 08a7 58020000 		.4byte	.LASF160
 1313 08ab 01       		.byte	0x1
 1314 08ac 38       		.byte	0x38
 1315 08ad 00000000 		.4byte	.LFB260
 1316 08b1 30000000 		.4byte	.LFE260-.LFB260
 1317 08b5 01       		.uleb128 0x1
 1318 08b6 9C       		.byte	0x9c
 1319 08b7 0D090000 		.4byte	0x90d
 1320 08bb 1C       		.uleb128 0x1c
 1321 08bc 06000000 		.4byte	.LVL0
 1322 08c0 35090000 		.4byte	0x935
 1323 08c4 1C       		.uleb128 0x1c
 1324 08c5 0C000000 		.4byte	.LVL1
 1325 08c9 3D090000 		.4byte	0x93d
 1326 08cd 1C       		.uleb128 0x1c
ARM GAS  /var/folders/c6/c789hm653lg9vtl73krp73tm0000gn/T//cc7zIXeU.s 			page 32


 1327 08ce 10000000 		.4byte	.LVL2
 1328 08d2 55090000 		.4byte	0x955
 1329 08d6 1C       		.uleb128 0x1c
 1330 08d7 14000000 		.4byte	.LVL3
 1331 08db 5C090000 		.4byte	0x95c
 1332 08df 1C       		.uleb128 0x1c
 1333 08e0 18000000 		.4byte	.LVL4
 1334 08e4 64090000 		.4byte	0x964
 1335 08e8 1C       		.uleb128 0x1c
 1336 08e9 1C000000 		.4byte	.LVL5
 1337 08ed 6B090000 		.4byte	0x96b
 1338 08f1 1C       		.uleb128 0x1c
 1339 08f2 20000000 		.4byte	.LVL6
 1340 08f6 73090000 		.4byte	0x973
 1341 08fa 1C       		.uleb128 0x1c
 1342 08fb 24000000 		.4byte	.LVL7
 1343 08ff 7A090000 		.4byte	0x97a
 1344 0903 1D       		.uleb128 0x1d
 1345 0904 2C000000 		.4byte	.LVL8
 1346 0908 82090000 		.4byte	0x982
 1347 090c 00       		.byte	0
 1348 090d 1E       		.uleb128 0x1e
 1349 090e 11010000 		.4byte	.LASF146
 1350 0912 0F       		.byte	0xf
 1351 0913 A706     		.2byte	0x6a7
 1352 0915 C3000000 		.4byte	0xc3
 1353 0919 1F       		.uleb128 0x1f
 1354 091a 636800   		.ascii	"ch\000"
 1355 091d 06       		.byte	0x6
 1356 091e 0902     		.2byte	0x209
 1357 0920 31040000 		.4byte	0x431
 1358 0924 1E       		.uleb128 0x1e
 1359 0925 56070000 		.4byte	.LASF147
 1360 0929 0E       		.byte	0xe
 1361 092a DA01     		.2byte	0x1da
 1362 092c 30090000 		.4byte	0x930
 1363 0930 19       		.uleb128 0x19
 1364 0931 92080000 		.4byte	0x892
 1365 0935 20       		.uleb128 0x20
 1366 0936 B4050000 		.4byte	.LASF148
 1367 093a 10       		.byte	0x10
 1368 093b 1206     		.2byte	0x612
 1369 093d 21       		.uleb128 0x21
 1370 093e 02060000 		.4byte	.LASF161
 1371 0942 0E       		.byte	0xe
 1372 0943 DF01     		.2byte	0x1df
 1373 0945 4F090000 		.4byte	0x94f
 1374 0949 0D       		.uleb128 0xd
 1375 094a 4F090000 		.4byte	0x94f
 1376 094e 00       		.byte	0
 1377 094f 0A       		.uleb128 0xa
 1378 0950 04       		.byte	0x4
 1379 0951 30090000 		.4byte	0x930
 1380 0955 22       		.uleb128 0x22
 1381 0956 B9010000 		.4byte	.LASF149
 1382 095a 11       		.byte	0x11
 1383 095b B4       		.byte	0xb4
ARM GAS  /var/folders/c6/c789hm653lg9vtl73krp73tm0000gn/T//cc7zIXeU.s 			page 33


 1384 095c 20       		.uleb128 0x20
 1385 095d 3C070000 		.4byte	.LASF150
 1386 0961 12       		.byte	0x12
 1387 0962 2601     		.2byte	0x126
 1388 0964 22       		.uleb128 0x22
 1389 0965 2E000000 		.4byte	.LASF151
 1390 0969 13       		.byte	0x13
 1391 096a AC       		.byte	0xac
 1392 096b 20       		.uleb128 0x20
 1393 096c 55050000 		.4byte	.LASF152
 1394 0970 14       		.byte	0x14
 1395 0971 3502     		.2byte	0x235
 1396 0973 22       		.uleb128 0x22
 1397 0974 78040000 		.4byte	.LASF153
 1398 0978 15       		.byte	0x15
 1399 0979 F6       		.byte	0xf6
 1400 097a 20       		.uleb128 0x20
 1401 097b A7040000 		.4byte	.LASF154
 1402 097f 16       		.byte	0x16
 1403 0980 0E05     		.2byte	0x50e
 1404 0982 22       		.uleb128 0x22
 1405 0983 27000000 		.4byte	.LASF155
 1406 0987 17       		.byte	0x17
 1407 0988 56       		.byte	0x56
 1408 0989 00       		.byte	0
 1409              		.section	.debug_abbrev,"",%progbits
 1410              	.Ldebug_abbrev0:
 1411 0000 01       		.uleb128 0x1
 1412 0001 11       		.uleb128 0x11
 1413 0002 01       		.byte	0x1
 1414 0003 25       		.uleb128 0x25
 1415 0004 0E       		.uleb128 0xe
 1416 0005 13       		.uleb128 0x13
 1417 0006 0B       		.uleb128 0xb
 1418 0007 03       		.uleb128 0x3
 1419 0008 0E       		.uleb128 0xe
 1420 0009 1B       		.uleb128 0x1b
 1421 000a 0E       		.uleb128 0xe
 1422 000b 55       		.uleb128 0x55
 1423 000c 17       		.uleb128 0x17
 1424 000d 11       		.uleb128 0x11
 1425 000e 01       		.uleb128 0x1
 1426 000f 10       		.uleb128 0x10
 1427 0010 17       		.uleb128 0x17
 1428 0011 00       		.byte	0
 1429 0012 00       		.byte	0
 1430 0013 02       		.uleb128 0x2
 1431 0014 24       		.uleb128 0x24
 1432 0015 00       		.byte	0
 1433 0016 0B       		.uleb128 0xb
 1434 0017 0B       		.uleb128 0xb
 1435 0018 3E       		.uleb128 0x3e
 1436 0019 0B       		.uleb128 0xb
 1437 001a 03       		.uleb128 0x3
 1438 001b 08       		.uleb128 0x8
 1439 001c 00       		.byte	0
 1440 001d 00       		.byte	0
ARM GAS  /var/folders/c6/c789hm653lg9vtl73krp73tm0000gn/T//cc7zIXeU.s 			page 34


 1441 001e 03       		.uleb128 0x3
 1442 001f 24       		.uleb128 0x24
 1443 0020 00       		.byte	0
 1444 0021 0B       		.uleb128 0xb
 1445 0022 0B       		.uleb128 0xb
 1446 0023 3E       		.uleb128 0x3e
 1447 0024 0B       		.uleb128 0xb
 1448 0025 03       		.uleb128 0x3
 1449 0026 0E       		.uleb128 0xe
 1450 0027 00       		.byte	0
 1451 0028 00       		.byte	0
 1452 0029 04       		.uleb128 0x4
 1453 002a 16       		.uleb128 0x16
 1454 002b 00       		.byte	0
 1455 002c 03       		.uleb128 0x3
 1456 002d 0E       		.uleb128 0xe
 1457 002e 3A       		.uleb128 0x3a
 1458 002f 0B       		.uleb128 0xb
 1459 0030 3B       		.uleb128 0x3b
 1460 0031 0B       		.uleb128 0xb
 1461 0032 49       		.uleb128 0x49
 1462 0033 13       		.uleb128 0x13
 1463 0034 00       		.byte	0
 1464 0035 00       		.byte	0
 1465 0036 05       		.uleb128 0x5
 1466 0037 35       		.uleb128 0x35
 1467 0038 00       		.byte	0
 1468 0039 49       		.uleb128 0x49
 1469 003a 13       		.uleb128 0x13
 1470 003b 00       		.byte	0
 1471 003c 00       		.byte	0
 1472 003d 06       		.uleb128 0x6
 1473 003e 13       		.uleb128 0x13
 1474 003f 01       		.byte	0x1
 1475 0040 03       		.uleb128 0x3
 1476 0041 0E       		.uleb128 0xe
 1477 0042 0B       		.uleb128 0xb
 1478 0043 0B       		.uleb128 0xb
 1479 0044 3A       		.uleb128 0x3a
 1480 0045 0B       		.uleb128 0xb
 1481 0046 3B       		.uleb128 0x3b
 1482 0047 0B       		.uleb128 0xb
 1483 0048 01       		.uleb128 0x1
 1484 0049 13       		.uleb128 0x13
 1485 004a 00       		.byte	0
 1486 004b 00       		.byte	0
 1487 004c 07       		.uleb128 0x7
 1488 004d 0D       		.uleb128 0xd
 1489 004e 00       		.byte	0
 1490 004f 03       		.uleb128 0x3
 1491 0050 0E       		.uleb128 0xe
 1492 0051 3A       		.uleb128 0x3a
 1493 0052 0B       		.uleb128 0xb
 1494 0053 3B       		.uleb128 0x3b
 1495 0054 0B       		.uleb128 0xb
 1496 0055 49       		.uleb128 0x49
 1497 0056 13       		.uleb128 0x13
ARM GAS  /var/folders/c6/c789hm653lg9vtl73krp73tm0000gn/T//cc7zIXeU.s 			page 35


 1498 0057 38       		.uleb128 0x38
 1499 0058 0B       		.uleb128 0xb
 1500 0059 00       		.byte	0
 1501 005a 00       		.byte	0
 1502 005b 08       		.uleb128 0x8
 1503 005c 0D       		.uleb128 0xd
 1504 005d 00       		.byte	0
 1505 005e 03       		.uleb128 0x3
 1506 005f 08       		.uleb128 0x8
 1507 0060 3A       		.uleb128 0x3a
 1508 0061 0B       		.uleb128 0xb
 1509 0062 3B       		.uleb128 0x3b
 1510 0063 05       		.uleb128 0x5
 1511 0064 49       		.uleb128 0x49
 1512 0065 13       		.uleb128 0x13
 1513 0066 38       		.uleb128 0x38
 1514 0067 0B       		.uleb128 0xb
 1515 0068 00       		.byte	0
 1516 0069 00       		.byte	0
 1517 006a 09       		.uleb128 0x9
 1518 006b 0D       		.uleb128 0xd
 1519 006c 00       		.byte	0
 1520 006d 03       		.uleb128 0x3
 1521 006e 0E       		.uleb128 0xe
 1522 006f 3A       		.uleb128 0x3a
 1523 0070 0B       		.uleb128 0xb
 1524 0071 3B       		.uleb128 0x3b
 1525 0072 05       		.uleb128 0x5
 1526 0073 49       		.uleb128 0x49
 1527 0074 13       		.uleb128 0x13
 1528 0075 38       		.uleb128 0x38
 1529 0076 0B       		.uleb128 0xb
 1530 0077 00       		.byte	0
 1531 0078 00       		.byte	0
 1532 0079 0A       		.uleb128 0xa
 1533 007a 0F       		.uleb128 0xf
 1534 007b 00       		.byte	0
 1535 007c 0B       		.uleb128 0xb
 1536 007d 0B       		.uleb128 0xb
 1537 007e 49       		.uleb128 0x49
 1538 007f 13       		.uleb128 0x13
 1539 0080 00       		.byte	0
 1540 0081 00       		.byte	0
 1541 0082 0B       		.uleb128 0xb
 1542 0083 13       		.uleb128 0x13
 1543 0084 01       		.byte	0x1
 1544 0085 03       		.uleb128 0x3
 1545 0086 0E       		.uleb128 0xe
 1546 0087 0B       		.uleb128 0xb
 1547 0088 0B       		.uleb128 0xb
 1548 0089 3A       		.uleb128 0x3a
 1549 008a 0B       		.uleb128 0xb
 1550 008b 3B       		.uleb128 0x3b
 1551 008c 05       		.uleb128 0x5
 1552 008d 01       		.uleb128 0x1
 1553 008e 13       		.uleb128 0x13
 1554 008f 00       		.byte	0
ARM GAS  /var/folders/c6/c789hm653lg9vtl73krp73tm0000gn/T//cc7zIXeU.s 			page 36


 1555 0090 00       		.byte	0
 1556 0091 0C       		.uleb128 0xc
 1557 0092 15       		.uleb128 0x15
 1558 0093 01       		.byte	0x1
 1559 0094 27       		.uleb128 0x27
 1560 0095 19       		.uleb128 0x19
 1561 0096 01       		.uleb128 0x1
 1562 0097 13       		.uleb128 0x13
 1563 0098 00       		.byte	0
 1564 0099 00       		.byte	0
 1565 009a 0D       		.uleb128 0xd
 1566 009b 05       		.uleb128 0x5
 1567 009c 00       		.byte	0
 1568 009d 49       		.uleb128 0x49
 1569 009e 13       		.uleb128 0x13
 1570 009f 00       		.byte	0
 1571 00a0 00       		.byte	0
 1572 00a1 0E       		.uleb128 0xe
 1573 00a2 0F       		.uleb128 0xf
 1574 00a3 00       		.byte	0
 1575 00a4 0B       		.uleb128 0xb
 1576 00a5 0B       		.uleb128 0xb
 1577 00a6 00       		.byte	0
 1578 00a7 00       		.byte	0
 1579 00a8 0F       		.uleb128 0xf
 1580 00a9 13       		.uleb128 0x13
 1581 00aa 01       		.byte	0x1
 1582 00ab 03       		.uleb128 0x3
 1583 00ac 0E       		.uleb128 0xe
 1584 00ad 0B       		.uleb128 0xb
 1585 00ae 05       		.uleb128 0x5
 1586 00af 3A       		.uleb128 0x3a
 1587 00b0 0B       		.uleb128 0xb
 1588 00b1 3B       		.uleb128 0x3b
 1589 00b2 05       		.uleb128 0x5
 1590 00b3 01       		.uleb128 0x1
 1591 00b4 13       		.uleb128 0x13
 1592 00b5 00       		.byte	0
 1593 00b6 00       		.byte	0
 1594 00b7 10       		.uleb128 0x10
 1595 00b8 0D       		.uleb128 0xd
 1596 00b9 00       		.byte	0
 1597 00ba 03       		.uleb128 0x3
 1598 00bb 0E       		.uleb128 0xe
 1599 00bc 3A       		.uleb128 0x3a
 1600 00bd 0B       		.uleb128 0xb
 1601 00be 3B       		.uleb128 0x3b
 1602 00bf 05       		.uleb128 0x5
 1603 00c0 49       		.uleb128 0x49
 1604 00c1 13       		.uleb128 0x13
 1605 00c2 38       		.uleb128 0x38
 1606 00c3 05       		.uleb128 0x5
 1607 00c4 00       		.byte	0
 1608 00c5 00       		.byte	0
 1609 00c6 11       		.uleb128 0x11
 1610 00c7 0D       		.uleb128 0xd
 1611 00c8 00       		.byte	0
ARM GAS  /var/folders/c6/c789hm653lg9vtl73krp73tm0000gn/T//cc7zIXeU.s 			page 37


 1612 00c9 03       		.uleb128 0x3
 1613 00ca 08       		.uleb128 0x8
 1614 00cb 3A       		.uleb128 0x3a
 1615 00cc 0B       		.uleb128 0xb
 1616 00cd 3B       		.uleb128 0x3b
 1617 00ce 05       		.uleb128 0x5
 1618 00cf 49       		.uleb128 0x49
 1619 00d0 13       		.uleb128 0x13
 1620 00d1 38       		.uleb128 0x38
 1621 00d2 05       		.uleb128 0x5
 1622 00d3 00       		.byte	0
 1623 00d4 00       		.byte	0
 1624 00d5 12       		.uleb128 0x12
 1625 00d6 0D       		.uleb128 0xd
 1626 00d7 00       		.byte	0
 1627 00d8 03       		.uleb128 0x3
 1628 00d9 08       		.uleb128 0x8
 1629 00da 3A       		.uleb128 0x3a
 1630 00db 0B       		.uleb128 0xb
 1631 00dc 3B       		.uleb128 0x3b
 1632 00dd 0B       		.uleb128 0xb
 1633 00de 49       		.uleb128 0x49
 1634 00df 13       		.uleb128 0x13
 1635 00e0 38       		.uleb128 0x38
 1636 00e1 0B       		.uleb128 0xb
 1637 00e2 00       		.byte	0
 1638 00e3 00       		.byte	0
 1639 00e4 13       		.uleb128 0x13
 1640 00e5 13       		.uleb128 0x13
 1641 00e6 01       		.byte	0x1
 1642 00e7 0B       		.uleb128 0xb
 1643 00e8 0B       		.uleb128 0xb
 1644 00e9 3A       		.uleb128 0x3a
 1645 00ea 0B       		.uleb128 0xb
 1646 00eb 3B       		.uleb128 0x3b
 1647 00ec 0B       		.uleb128 0xb
 1648 00ed 01       		.uleb128 0x1
 1649 00ee 13       		.uleb128 0x13
 1650 00ef 00       		.byte	0
 1651 00f0 00       		.byte	0
 1652 00f1 14       		.uleb128 0x14
 1653 00f2 13       		.uleb128 0x13
 1654 00f3 01       		.byte	0x1
 1655 00f4 0B       		.uleb128 0xb
 1656 00f5 05       		.uleb128 0x5
 1657 00f6 3A       		.uleb128 0x3a
 1658 00f7 0B       		.uleb128 0xb
 1659 00f8 3B       		.uleb128 0x3b
 1660 00f9 0B       		.uleb128 0xb
 1661 00fa 01       		.uleb128 0x1
 1662 00fb 13       		.uleb128 0x13
 1663 00fc 00       		.byte	0
 1664 00fd 00       		.byte	0
 1665 00fe 15       		.uleb128 0x15
 1666 00ff 01       		.uleb128 0x1
 1667 0100 01       		.byte	0x1
 1668 0101 49       		.uleb128 0x49
ARM GAS  /var/folders/c6/c789hm653lg9vtl73krp73tm0000gn/T//cc7zIXeU.s 			page 38


 1669 0102 13       		.uleb128 0x13
 1670 0103 01       		.uleb128 0x1
 1671 0104 13       		.uleb128 0x13
 1672 0105 00       		.byte	0
 1673 0106 00       		.byte	0
 1674 0107 16       		.uleb128 0x16
 1675 0108 21       		.uleb128 0x21
 1676 0109 00       		.byte	0
 1677 010a 49       		.uleb128 0x49
 1678 010b 13       		.uleb128 0x13
 1679 010c 2F       		.uleb128 0x2f
 1680 010d 0B       		.uleb128 0xb
 1681 010e 00       		.byte	0
 1682 010f 00       		.byte	0
 1683 0110 17       		.uleb128 0x17
 1684 0111 17       		.uleb128 0x17
 1685 0112 01       		.byte	0x1
 1686 0113 0B       		.uleb128 0xb
 1687 0114 0B       		.uleb128 0xb
 1688 0115 3A       		.uleb128 0x3a
 1689 0116 0B       		.uleb128 0xb
 1690 0117 3B       		.uleb128 0x3b
 1691 0118 0B       		.uleb128 0xb
 1692 0119 01       		.uleb128 0x1
 1693 011a 13       		.uleb128 0x13
 1694 011b 00       		.byte	0
 1695 011c 00       		.byte	0
 1696 011d 18       		.uleb128 0x18
 1697 011e 0D       		.uleb128 0xd
 1698 011f 00       		.byte	0
 1699 0120 03       		.uleb128 0x3
 1700 0121 0E       		.uleb128 0xe
 1701 0122 3A       		.uleb128 0x3a
 1702 0123 0B       		.uleb128 0xb
 1703 0124 3B       		.uleb128 0x3b
 1704 0125 05       		.uleb128 0x5
 1705 0126 49       		.uleb128 0x49
 1706 0127 13       		.uleb128 0x13
 1707 0128 00       		.byte	0
 1708 0129 00       		.byte	0
 1709 012a 19       		.uleb128 0x19
 1710 012b 26       		.uleb128 0x26
 1711 012c 00       		.byte	0
 1712 012d 49       		.uleb128 0x49
 1713 012e 13       		.uleb128 0x13
 1714 012f 00       		.byte	0
 1715 0130 00       		.byte	0
 1716 0131 1A       		.uleb128 0x1a
 1717 0132 2E       		.uleb128 0x2e
 1718 0133 00       		.byte	0
 1719 0134 03       		.uleb128 0x3
 1720 0135 0E       		.uleb128 0xe
 1721 0136 3A       		.uleb128 0x3a
 1722 0137 0B       		.uleb128 0xb
 1723 0138 3B       		.uleb128 0x3b
 1724 0139 05       		.uleb128 0x5
 1725 013a 27       		.uleb128 0x27
ARM GAS  /var/folders/c6/c789hm653lg9vtl73krp73tm0000gn/T//cc7zIXeU.s 			page 39


 1726 013b 19       		.uleb128 0x19
 1727 013c 20       		.uleb128 0x20
 1728 013d 0B       		.uleb128 0xb
 1729 013e 00       		.byte	0
 1730 013f 00       		.byte	0
 1731 0140 1B       		.uleb128 0x1b
 1732 0141 2E       		.uleb128 0x2e
 1733 0142 01       		.byte	0x1
 1734 0143 3F       		.uleb128 0x3f
 1735 0144 19       		.uleb128 0x19
 1736 0145 03       		.uleb128 0x3
 1737 0146 0E       		.uleb128 0xe
 1738 0147 3A       		.uleb128 0x3a
 1739 0148 0B       		.uleb128 0xb
 1740 0149 3B       		.uleb128 0x3b
 1741 014a 0B       		.uleb128 0xb
 1742 014b 27       		.uleb128 0x27
 1743 014c 19       		.uleb128 0x19
 1744 014d 11       		.uleb128 0x11
 1745 014e 01       		.uleb128 0x1
 1746 014f 12       		.uleb128 0x12
 1747 0150 06       		.uleb128 0x6
 1748 0151 40       		.uleb128 0x40
 1749 0152 18       		.uleb128 0x18
 1750 0153 9742     		.uleb128 0x2117
 1751 0155 19       		.uleb128 0x19
 1752 0156 01       		.uleb128 0x1
 1753 0157 13       		.uleb128 0x13
 1754 0158 00       		.byte	0
 1755 0159 00       		.byte	0
 1756 015a 1C       		.uleb128 0x1c
 1757 015b 898201   		.uleb128 0x4109
 1758 015e 00       		.byte	0
 1759 015f 11       		.uleb128 0x11
 1760 0160 01       		.uleb128 0x1
 1761 0161 31       		.uleb128 0x31
 1762 0162 13       		.uleb128 0x13
 1763 0163 00       		.byte	0
 1764 0164 00       		.byte	0
 1765 0165 1D       		.uleb128 0x1d
 1766 0166 898201   		.uleb128 0x4109
 1767 0169 00       		.byte	0
 1768 016a 11       		.uleb128 0x11
 1769 016b 01       		.uleb128 0x1
 1770 016c 9542     		.uleb128 0x2115
 1771 016e 19       		.uleb128 0x19
 1772 016f 31       		.uleb128 0x31
 1773 0170 13       		.uleb128 0x13
 1774 0171 00       		.byte	0
 1775 0172 00       		.byte	0
 1776 0173 1E       		.uleb128 0x1e
 1777 0174 34       		.uleb128 0x34
 1778 0175 00       		.byte	0
 1779 0176 03       		.uleb128 0x3
 1780 0177 0E       		.uleb128 0xe
 1781 0178 3A       		.uleb128 0x3a
 1782 0179 0B       		.uleb128 0xb
ARM GAS  /var/folders/c6/c789hm653lg9vtl73krp73tm0000gn/T//cc7zIXeU.s 			page 40


 1783 017a 3B       		.uleb128 0x3b
 1784 017b 05       		.uleb128 0x5
 1785 017c 49       		.uleb128 0x49
 1786 017d 13       		.uleb128 0x13
 1787 017e 3F       		.uleb128 0x3f
 1788 017f 19       		.uleb128 0x19
 1789 0180 3C       		.uleb128 0x3c
 1790 0181 19       		.uleb128 0x19
 1791 0182 00       		.byte	0
 1792 0183 00       		.byte	0
 1793 0184 1F       		.uleb128 0x1f
 1794 0185 34       		.uleb128 0x34
 1795 0186 00       		.byte	0
 1796 0187 03       		.uleb128 0x3
 1797 0188 08       		.uleb128 0x8
 1798 0189 3A       		.uleb128 0x3a
 1799 018a 0B       		.uleb128 0xb
 1800 018b 3B       		.uleb128 0x3b
 1801 018c 05       		.uleb128 0x5
 1802 018d 49       		.uleb128 0x49
 1803 018e 13       		.uleb128 0x13
 1804 018f 3F       		.uleb128 0x3f
 1805 0190 19       		.uleb128 0x19
 1806 0191 3C       		.uleb128 0x3c
 1807 0192 19       		.uleb128 0x19
 1808 0193 00       		.byte	0
 1809 0194 00       		.byte	0
 1810 0195 20       		.uleb128 0x20
 1811 0196 2E       		.uleb128 0x2e
 1812 0197 00       		.byte	0
 1813 0198 3F       		.uleb128 0x3f
 1814 0199 19       		.uleb128 0x19
 1815 019a 03       		.uleb128 0x3
 1816 019b 0E       		.uleb128 0xe
 1817 019c 3A       		.uleb128 0x3a
 1818 019d 0B       		.uleb128 0xb
 1819 019e 3B       		.uleb128 0x3b
 1820 019f 05       		.uleb128 0x5
 1821 01a0 27       		.uleb128 0x27
 1822 01a1 19       		.uleb128 0x19
 1823 01a2 3C       		.uleb128 0x3c
 1824 01a3 19       		.uleb128 0x19
 1825 01a4 00       		.byte	0
 1826 01a5 00       		.byte	0
 1827 01a6 21       		.uleb128 0x21
 1828 01a7 2E       		.uleb128 0x2e
 1829 01a8 01       		.byte	0x1
 1830 01a9 3F       		.uleb128 0x3f
 1831 01aa 19       		.uleb128 0x19
 1832 01ab 03       		.uleb128 0x3
 1833 01ac 0E       		.uleb128 0xe
 1834 01ad 3A       		.uleb128 0x3a
 1835 01ae 0B       		.uleb128 0xb
 1836 01af 3B       		.uleb128 0x3b
 1837 01b0 05       		.uleb128 0x5
 1838 01b1 27       		.uleb128 0x27
 1839 01b2 19       		.uleb128 0x19
ARM GAS  /var/folders/c6/c789hm653lg9vtl73krp73tm0000gn/T//cc7zIXeU.s 			page 41


 1840 01b3 3C       		.uleb128 0x3c
 1841 01b4 19       		.uleb128 0x19
 1842 01b5 01       		.uleb128 0x1
 1843 01b6 13       		.uleb128 0x13
 1844 01b7 00       		.byte	0
 1845 01b8 00       		.byte	0
 1846 01b9 22       		.uleb128 0x22
 1847 01ba 2E       		.uleb128 0x2e
 1848 01bb 00       		.byte	0
 1849 01bc 3F       		.uleb128 0x3f
 1850 01bd 19       		.uleb128 0x19
 1851 01be 03       		.uleb128 0x3
 1852 01bf 0E       		.uleb128 0xe
 1853 01c0 3A       		.uleb128 0x3a
 1854 01c1 0B       		.uleb128 0xb
 1855 01c2 3B       		.uleb128 0x3b
 1856 01c3 0B       		.uleb128 0xb
 1857 01c4 27       		.uleb128 0x27
 1858 01c5 19       		.uleb128 0x19
 1859 01c6 3C       		.uleb128 0x3c
 1860 01c7 19       		.uleb128 0x19
 1861 01c8 00       		.byte	0
 1862 01c9 00       		.byte	0
 1863 01ca 00       		.byte	0
 1864              		.section	.debug_aranges,"",%progbits
 1865 0000 1C000000 		.4byte	0x1c
 1866 0004 0200     		.2byte	0x2
 1867 0006 00000000 		.4byte	.Ldebug_info0
 1868 000a 04       		.byte	0x4
 1869 000b 00       		.byte	0
 1870 000c 0000     		.2byte	0
 1871 000e 0000     		.2byte	0
 1872 0010 00000000 		.4byte	.LFB260
 1873 0014 30000000 		.4byte	.LFE260-.LFB260
 1874 0018 00000000 		.4byte	0
 1875 001c 00000000 		.4byte	0
 1876              		.section	.debug_ranges,"",%progbits
 1877              	.Ldebug_ranges0:
 1878 0000 00000000 		.4byte	.LFB260
 1879 0004 30000000 		.4byte	.LFE260
 1880 0008 00000000 		.4byte	0
 1881 000c 00000000 		.4byte	0
 1882              		.section	.debug_line,"",%progbits
 1883              	.Ldebug_line0:
 1884 0000 21030000 		.section	.debug_str,"MS",%progbits,1
 1884      0200FA02 
 1884      00000201 
 1884      FB0E0D00 
 1884      01010101 
 1885              	.LASF135:
 1886 0000 73746D33 		.ascii	"stm32_gpio_setup_t\000"
 1886      325F6770 
 1886      696F5F73 
 1886      65747570 
 1886      5F7400
 1887              	.LASF97:
 1888 0013 74625F70 		.ascii	"tb_ptr\000"
ARM GAS  /var/folders/c6/c789hm653lg9vtl73krp73tm0000gn/T//cc7zIXeU.s 			page 42


 1888      747200
 1889              	.LASF54:
 1890 001a 72656164 		.ascii	"ready_list_t\000"
 1890      795F6C69 
 1890      73745F74 
 1890      00
 1891              	.LASF155:
 1892 0027 7374496E 		.ascii	"stInit\000"
 1892      697400
 1893              	.LASF151:
 1894 002e 73646349 		.ascii	"sdcInit\000"
 1894      6E697400 
 1895              	.LASF115:
 1896 0036 77747472 		.ascii	"wttrp\000"
 1896      7000
 1897              	.LASF112:
 1898 003c 7264796D 		.ascii	"rdymsg\000"
 1898      736700
 1899              	.LASF16:
 1900 0043 75696E74 		.ascii	"uint64_t\000"
 1900      36345F74 
 1900      00
 1901              	.LASF84:
 1902 004c 6B65726E 		.ascii	"kernel_stats\000"
 1902      656C5F73 
 1902      74617473 
 1902      00
 1903              	.LASF5:
 1904 0059 5F5F7569 		.ascii	"__uint8_t\000"
 1904      6E74385F 
 1904      7400
 1905              	.LASF90:
 1906 0063 706F7274 		.ascii	"port_intctx\000"
 1906      5F696E74 
 1906      63747800 
 1907              	.LASF53:
 1908 006f 63685F74 		.ascii	"ch_threads_queue\000"
 1908      68726561 
 1908      64735F71 
 1908      75657565 
 1908      00
 1909              	.LASF73:
 1910 0080 73797374 		.ascii	"system_debug_t\000"
 1910      656D5F64 
 1910      65627567 
 1910      5F7400
 1911              	.LASF103:
 1912 008f 776F7273 		.ascii	"worst\000"
 1912      7400
 1913              	.LASF143:
 1914 0095 50484461 		.ascii	"PHData\000"
 1914      746100
 1915              	.LASF106:
 1916 009c 74696D65 		.ascii	"time_measurement_t\000"
 1916      5F6D6561 
 1916      73757265 
 1916      6D656E74 
ARM GAS  /var/folders/c6/c789hm653lg9vtl73krp73tm0000gn/T//cc7zIXeU.s 			page 43


 1916      5F7400
 1917              	.LASF12:
 1918 00af 6C6F6E67 		.ascii	"long long unsigned int\000"
 1918      206C6F6E 
 1918      6720756E 
 1918      7369676E 
 1918      65642069 
 1919              	.LASF99:
 1920 00c6 63685F74 		.ascii	"ch_trace_buffer_t\000"
 1920      72616365 
 1920      5F627566 
 1920      6665725F 
 1920      7400
 1921              	.LASF94:
 1922 00d8 73655F73 		.ascii	"se_state\000"
 1922      74617465 
 1922      00
 1923              	.LASF132:
 1924 00e1 70757064 		.ascii	"pupdr\000"
 1924      7200
 1925              	.LASF113:
 1926 00e7 65786974 		.ascii	"exitcode\000"
 1926      636F6465 
 1926      00
 1927              	.LASF83:
 1928 00f0 6D61696E 		.ascii	"mainthread\000"
 1928      74687265 
 1928      616400
 1929              	.LASF70:
 1930 00fb 76697274 		.ascii	"virtual_timers_list_t\000"
 1930      75616C5F 
 1930      74696D65 
 1930      72735F6C 
 1930      6973745F 
 1931              	.LASF146:
 1932 0111 49544D5F 		.ascii	"ITM_RxBuffer\000"
 1932      52784275 
 1932      66666572 
 1932      00
 1933              	.LASF18:
 1934 011e 72747469 		.ascii	"rttime_t\000"
 1934      6D655F74 
 1934      00
 1935              	.LASF31:
 1936 0127 705F7072 		.ascii	"p_prio\000"
 1936      696F00
 1937              	.LASF10:
 1938 012e 6C6F6E67 		.ascii	"long long int\000"
 1938      206C6F6E 
 1938      6720696E 
 1938      7400
 1939              	.LASF1:
 1940 013c 7369676E 		.ascii	"signed char\000"
 1940      65642063 
 1940      68617200 
 1941              	.LASF91:
 1942 0148 73655F74 		.ascii	"se_time\000"
ARM GAS  /var/folders/c6/c789hm653lg9vtl73krp73tm0000gn/T//cc7zIXeU.s 			page 44


 1942      696D6500 
 1943              	.LASF46:
 1944 0150 705F6D70 		.ascii	"p_mpool\000"
 1944      6F6F6C00 
 1945              	.LASF123:
 1946 0158 6D5F7175 		.ascii	"m_queue\000"
 1946      65756500 
 1947              	.LASF129:
 1948 0160 6D6F6465 		.ascii	"moder\000"
 1948      7200
 1949              	.LASF80:
 1950 0166 63685F73 		.ascii	"ch_system\000"
 1950      79737465 
 1950      6D00
 1951              	.LASF7:
 1952 0170 6C6F6E67 		.ascii	"long int\000"
 1952      20696E74 
 1952      00
 1953              	.LASF140:
 1954 0179 50454461 		.ascii	"PEData\000"
 1954      746100
 1955              	.LASF20:
 1956 0180 74737461 		.ascii	"tstate_t\000"
 1956      74655F74 
 1956      00
 1957              	.LASF92:
 1958 0189 73655F74 		.ascii	"se_tp\000"
 1958      7000
 1959              	.LASF157:
 1960 018f 2E2E2F2E 		.ascii	"../../../os/hal/src/hal.c\000"
 1960      2E2F2E2E 
 1960      2F6F732F 
 1960      68616C2F 
 1960      7372632F 
 1961              	.LASF33:
 1962 01a9 705F6E65 		.ascii	"p_newer\000"
 1962      77657200 
 1963              	.LASF120:
 1964 01b1 735F7175 		.ascii	"s_queue\000"
 1964      65756500 
 1965              	.LASF149:
 1966 01b9 6D616349 		.ascii	"macInit\000"
 1966      6E697400 
 1967              	.LASF96:
 1968 01c1 74625F73 		.ascii	"tb_size\000"
 1968      697A6500 
 1969              	.LASF59:
 1970 01c9 725F6E65 		.ascii	"r_newer\000"
 1970      77657200 
 1971              	.LASF87:
 1972 01d1 72656761 		.ascii	"regarm_t\000"
 1972      726D5F74 
 1972      00
 1973              	.LASF66:
 1974 01da 76745F70 		.ascii	"vt_prev\000"
 1974      72657600 
 1975              	.LASF82:
ARM GAS  /var/folders/c6/c789hm653lg9vtl73krp73tm0000gn/T//cc7zIXeU.s 			page 45


 1976 01e2 76746C69 		.ascii	"vtlist\000"
 1976      737400
 1977              	.LASF74:
 1978 01e9 63685F73 		.ascii	"ch_system_debug\000"
 1978      79737465 
 1978      6D5F6465 
 1978      62756700 
 1979              	.LASF127:
 1980 01f9 6D757465 		.ascii	"mutex_t\000"
 1980      785F7400 
 1981              	.LASF137:
 1982 0201 50424461 		.ascii	"PBData\000"
 1982      746100
 1983              	.LASF77:
 1984 0208 6C6F636B 		.ascii	"lock_cnt\000"
 1984      5F636E74 
 1984      00
 1985              	.LASF85:
 1986 0211 69646C65 		.ascii	"idle_thread_wa\000"
 1986      5F746872 
 1986      6561645F 
 1986      776100
 1987              	.LASF25:
 1988 0220 636E745F 		.ascii	"cnt_t\000"
 1988      7400
 1989              	.LASF36:
 1990 0226 705F7374 		.ascii	"p_stklimit\000"
 1990      6B6C696D 
 1990      697400
 1991              	.LASF0:
 1992 0231 756E7369 		.ascii	"unsigned int\000"
 1992      676E6564 
 1992      20696E74 
 1992      00
 1993              	.LASF65:
 1994 023e 76745F6E 		.ascii	"vt_next\000"
 1994      65787400 
 1995              	.LASF116:
 1996 0246 77747365 		.ascii	"wtsemp\000"
 1996      6D7000
 1997              	.LASF41:
 1998 024d 705F6D73 		.ascii	"p_msgqueue\000"
 1998      67717565 
 1998      756500
 1999              	.LASF160:
 2000 0258 68616C49 		.ascii	"halInit\000"
 2000      6E697400 
 2001              	.LASF131:
 2002 0260 6F737065 		.ascii	"ospeedr\000"
 2002      65647200 
 2003              	.LASF107:
 2004 0268 6E5F6972 		.ascii	"n_irq\000"
 2004      7100
 2005              	.LASF93:
 2006 026e 73655F77 		.ascii	"se_wtobjp\000"
 2006      746F626A 
 2006      7000
ARM GAS  /var/folders/c6/c789hm653lg9vtl73krp73tm0000gn/T//cc7zIXeU.s 			page 46


 2007              	.LASF130:
 2008 0278 6F747970 		.ascii	"otyper\000"
 2008      657200
 2009              	.LASF158:
 2010 027f 2F557365 		.ascii	"/Users/savonetj/Downloads/ChibiOS_3.0.2/demos/STM32"
 2010      72732F73 
 2010      61766F6E 
 2010      65746A2F 
 2010      446F776E 
 2011 02b2 2F52542D 		.ascii	"/RT-STM32F407-OLIMEX_E407-LWIP-FATFS-USB\000"
 2011      53544D33 
 2011      32463430 
 2011      372D4F4C 
 2011      494D4558 
 2012              	.LASF4:
 2013 02db 73686F72 		.ascii	"short unsigned int\000"
 2013      7420756E 
 2013      7369676E 
 2013      65642069 
 2013      6E7400
 2014              	.LASF111:
 2015 02ee 6B65726E 		.ascii	"kernel_stats_t\000"
 2015      656C5F73 
 2015      74617473 
 2015      5F7400
 2016              	.LASF50:
 2017 02fd 63685F74 		.ascii	"ch_thread\000"
 2017      68726561 
 2017      6400
 2018              	.LASF23:
 2019 0307 6D73675F 		.ascii	"msg_t\000"
 2019      7400
 2020              	.LASF104:
 2021 030d 6C617374 		.ascii	"last\000"
 2021      00
 2022              	.LASF26:
 2023 0312 75636E74 		.ascii	"ucnt_t\000"
 2023      5F7400
 2024              	.LASF79:
 2025 0319 63685F73 		.ascii	"ch_system_t\000"
 2025      79737465 
 2025      6D5F7400 
 2026              	.LASF19:
 2027 0325 746D6F64 		.ascii	"tmode_t\000"
 2027      655F7400 
 2028              	.LASF110:
 2029 032d 6D5F6372 		.ascii	"m_crit_isr\000"
 2029      69745F69 
 2029      737200
 2030              	.LASF55:
 2031 0338 63685F72 		.ascii	"ch_ready_list\000"
 2031      65616479 
 2031      5F6C6973 
 2031      7400
 2032              	.LASF24:
 2033 0346 6576656E 		.ascii	"eventmask_t\000"
 2033      746D6173 
ARM GAS  /var/folders/c6/c789hm653lg9vtl73krp73tm0000gn/T//cc7zIXeU.s 			page 47


 2033      6B5F7400 
 2034              	.LASF6:
 2035 0352 5F5F696E 		.ascii	"__int32_t\000"
 2035      7433325F 
 2035      7400
 2036              	.LASF142:
 2037 035c 50474461 		.ascii	"PGData\000"
 2037      746100
 2038              	.LASF88:
 2039 0363 73746B61 		.ascii	"stkalign_t\000"
 2039      6C69676E 
 2039      5F7400
 2040              	.LASF40:
 2041 036e 705F7761 		.ascii	"p_waiting\000"
 2041      6974696E 
 2041      6700
 2042              	.LASF86:
 2043 0378 73697A65 		.ascii	"sizetype\000"
 2043      74797065 
 2043      00
 2044              	.LASF48:
 2045 0381 74687265 		.ascii	"thread_reference_t\000"
 2045      61645F72 
 2045      65666572 
 2045      656E6365 
 2045      5F7400
 2046              	.LASF71:
 2047 0394 63685F76 		.ascii	"ch_virtual_timers_list\000"
 2047      69727475 
 2047      616C5F74 
 2047      696D6572 
 2047      735F6C69 
 2048              	.LASF95:
 2049 03ab 63685F73 		.ascii	"ch_swc_event_t\000"
 2049      77635F65 
 2049      76656E74 
 2049      5F7400
 2050              	.LASF72:
 2051 03ba 76745F6C 		.ascii	"vt_lasttime\000"
 2051      61737474 
 2051      696D6500 
 2052              	.LASF34:
 2053 03c6 705F6F6C 		.ascii	"p_older\000"
 2053      64657200 
 2054              	.LASF58:
 2055 03ce 725F6374 		.ascii	"r_ctx\000"
 2055      7800
 2056              	.LASF101:
 2057 03d4 746D5F63 		.ascii	"tm_calibration_t\000"
 2057      616C6962 
 2057      72617469 
 2057      6F6E5F74 
 2057      00
 2058              	.LASF134:
 2059 03e5 61667268 		.ascii	"afrh\000"
 2059      00
 2060              	.LASF139:
ARM GAS  /var/folders/c6/c789hm653lg9vtl73krp73tm0000gn/T//cc7zIXeU.s 			page 48


 2061 03ea 50444461 		.ascii	"PDData\000"
 2061      746100
 2062              	.LASF61:
 2063 03f1 725F6375 		.ascii	"r_current\000"
 2063      7272656E 
 2063      7400
 2064              	.LASF60:
 2065 03fb 725F6F6C 		.ascii	"r_older\000"
 2065      64657200 
 2066              	.LASF11:
 2067 0403 5F5F7569 		.ascii	"__uint64_t\000"
 2067      6E743634 
 2067      5F7400
 2068              	.LASF105:
 2069 040e 63756D75 		.ascii	"cumulative\000"
 2069      6C617469 
 2069      766500
 2070              	.LASF21:
 2071 0419 74726566 		.ascii	"trefs_t\000"
 2071      735F7400 
 2072              	.LASF98:
 2073 0421 74625F62 		.ascii	"tb_buffer\000"
 2073      75666665 
 2073      7200
 2074              	.LASF63:
 2075 042b 76697274 		.ascii	"virtual_timer_t\000"
 2075      75616C5F 
 2075      74696D65 
 2075      725F7400 
 2076              	.LASF30:
 2077 043b 705F7072 		.ascii	"p_prev\000"
 2077      657600
 2078              	.LASF159:
 2079 0442 6F73616C 		.ascii	"osalInit\000"
 2079      496E6974 
 2079      00
 2080              	.LASF22:
 2081 044b 74707269 		.ascii	"tprio_t\000"
 2081      6F5F7400 
 2082              	.LASF108:
 2083 0453 6E5F6374 		.ascii	"n_ctxswc\000"
 2083      78737763 
 2083      00
 2084              	.LASF128:
 2085 045c 5F426F6F 		.ascii	"_Bool\000"
 2085      6C00
 2086              	.LASF14:
 2087 0462 696E7433 		.ascii	"int32_t\000"
 2087      325F7400 
 2088              	.LASF2:
 2089 046a 756E7369 		.ascii	"unsigned char\000"
 2089      676E6564 
 2089      20636861 
 2089      7200
 2090              	.LASF153:
 2091 0478 73647549 		.ascii	"sduInit\000"
 2091      6E697400 
ARM GAS  /var/folders/c6/c789hm653lg9vtl73krp73tm0000gn/T//cc7zIXeU.s 			page 49


 2092              	.LASF133:
 2093 0480 6166726C 		.ascii	"afrl\000"
 2093      00
 2094              	.LASF121:
 2095 0485 735F636E 		.ascii	"s_cnt\000"
 2095      7400
 2096              	.LASF44:
 2097 048b 705F6D74 		.ascii	"p_mtxlist\000"
 2097      786C6973 
 2097      7400
 2098              	.LASF3:
 2099 0495 73686F72 		.ascii	"short int\000"
 2099      7420696E 
 2099      7400
 2100              	.LASF37:
 2101 049f 705F7374 		.ascii	"p_state\000"
 2101      61746500 
 2102              	.LASF154:
 2103 04a7 626F6172 		.ascii	"boardInit\000"
 2103      64496E69 
 2103      7400
 2104              	.LASF57:
 2105 04b1 725F7072 		.ascii	"r_prio\000"
 2105      696F00
 2106              	.LASF136:
 2107 04b8 50414461 		.ascii	"PAData\000"
 2107      746100
 2108              	.LASF118:
 2109 04bf 65776D61 		.ascii	"ewmask\000"
 2109      736B00
 2110              	.LASF29:
 2111 04c6 705F6E65 		.ascii	"p_next\000"
 2111      787400
 2112              	.LASF38:
 2113 04cd 705F666C 		.ascii	"p_flags\000"
 2113      61677300 
 2114              	.LASF47:
 2115 04d5 705F7374 		.ascii	"p_stats\000"
 2115      61747300 
 2116              	.LASF144:
 2117 04dd 50494461 		.ascii	"PIData\000"
 2117      746100
 2118              	.LASF64:
 2119 04e4 63685F76 		.ascii	"ch_virtual_timer\000"
 2119      69727475 
 2119      616C5F74 
 2119      696D6572 
 2119      00
 2120              	.LASF119:
 2121 04f5 63685F73 		.ascii	"ch_semaphore\000"
 2121      656D6170 
 2121      686F7265 
 2121      00
 2122              	.LASF43:
 2123 0502 705F6570 		.ascii	"p_epending\000"
 2123      656E6469 
 2123      6E6700
ARM GAS  /var/folders/c6/c789hm653lg9vtl73krp73tm0000gn/T//cc7zIXeU.s 			page 50


 2124              	.LASF15:
 2125 050d 75696E74 		.ascii	"uint32_t\000"
 2125      33325F74 
 2125      00
 2126              	.LASF117:
 2127 0516 77746D74 		.ascii	"wtmtxp\000"
 2127      787000
 2128              	.LASF56:
 2129 051d 725F7175 		.ascii	"r_queue\000"
 2129      65756500 
 2130              	.LASF67:
 2131 0525 76745F64 		.ascii	"vt_delta\000"
 2131      656C7461 
 2131      00
 2132              	.LASF51:
 2133 052e 63685F74 		.ascii	"ch_threads_list\000"
 2133      68726561 
 2133      64735F6C 
 2133      69737400 
 2134              	.LASF9:
 2135 053e 6C6F6E67 		.ascii	"long unsigned int\000"
 2135      20756E73 
 2135      69676E65 
 2135      6420696E 
 2135      7400
 2136              	.LASF126:
 2137 0550 63686172 		.ascii	"char\000"
 2137      00
 2138              	.LASF152:
 2139 0555 75736249 		.ascii	"usbInit\000"
 2139      6E697400 
 2140              	.LASF28:
 2141 055d 74687265 		.ascii	"thread_t\000"
 2141      61645F74 
 2141      00
 2142              	.LASF102:
 2143 0566 62657374 		.ascii	"best\000"
 2143      00
 2144              	.LASF125:
 2145 056b 6D5F6E65 		.ascii	"m_next\000"
 2145      787400
 2146              	.LASF27:
 2147 0572 73797374 		.ascii	"systime_t\000"
 2147      696D655F 
 2147      7400
 2148              	.LASF45:
 2149 057c 705F7265 		.ascii	"p_realprio\000"
 2149      616C7072 
 2149      696F00
 2150              	.LASF62:
 2151 0587 76746675 		.ascii	"vtfunc_t\000"
 2151      6E635F74 
 2151      00
 2152              	.LASF8:
 2153 0590 5F5F7569 		.ascii	"__uint32_t\000"
 2153      6E743332 
 2153      5F7400
ARM GAS  /var/folders/c6/c789hm653lg9vtl73krp73tm0000gn/T//cc7zIXeU.s 			page 51


 2154              	.LASF75:
 2155 059b 70616E69 		.ascii	"panic_msg\000"
 2155      635F6D73 
 2155      6700
 2156              	.LASF100:
 2157 05a5 6F666673 		.ascii	"offset\000"
 2157      657400
 2158              	.LASF89:
 2159 05ac 636F6E74 		.ascii	"context\000"
 2159      65787400 
 2160              	.LASF148:
 2161 05b4 68616C5F 		.ascii	"hal_lld_init\000"
 2161      6C6C645F 
 2161      696E6974 
 2161      00
 2162              	.LASF17:
 2163 05c1 7274636E 		.ascii	"rtcnt_t\000"
 2163      745F7400 
 2164              	.LASF69:
 2165 05c9 76745F70 		.ascii	"vt_par\000"
 2165      617200
 2166              	.LASF145:
 2167 05d0 50414C43 		.ascii	"PALConfig\000"
 2167      6F6E6669 
 2167      6700
 2168              	.LASF52:
 2169 05da 74687265 		.ascii	"threads_queue_t\000"
 2169      6164735F 
 2169      71756575 
 2169      655F7400 
 2170              	.LASF122:
 2171 05ea 63685F6D 		.ascii	"ch_mutex\000"
 2171      75746578 
 2171      00
 2172              	.LASF39:
 2173 05f3 705F7265 		.ascii	"p_refs\000"
 2173      667300
 2174              	.LASF76:
 2175 05fa 6973725F 		.ascii	"isr_cnt\000"
 2175      636E7400 
 2176              	.LASF161:
 2177 0602 5F70616C 		.ascii	"_pal_lld_init\000"
 2177      5F6C6C64 
 2177      5F696E69 
 2177      7400
 2178              	.LASF81:
 2179 0610 726C6973 		.ascii	"rlist\000"
 2179      7400
 2180              	.LASF13:
 2181 0616 75696E74 		.ascii	"uint8_t\000"
 2181      385F7400 
 2182              	.LASF114:
 2183 061e 77746F62 		.ascii	"wtobjp\000"
 2183      6A7000
 2184              	.LASF35:
 2185 0625 705F6E61 		.ascii	"p_name\000"
 2185      6D6500
ARM GAS  /var/folders/c6/c789hm653lg9vtl73krp73tm0000gn/T//cc7zIXeU.s 			page 52


 2186              	.LASF138:
 2187 062c 50434461 		.ascii	"PCData\000"
 2187      746100
 2188              	.LASF49:
 2189 0633 74687265 		.ascii	"threads_list_t\000"
 2189      6164735F 
 2189      6C697374 
 2189      5F7400
 2190              	.LASF78:
 2191 0642 74726163 		.ascii	"trace_buffer\000"
 2191      655F6275 
 2191      66666572 
 2191      00
 2192              	.LASF156:
 2193 064f 474E5520 		.ascii	"GNU C 4.8.4 20140725 (release) [ARM/embedded-4_8-br"
 2193      4320342E 
 2193      382E3420 
 2193      32303134 
 2193      30373235 
 2194 0682 616E6368 		.ascii	"anch revision 213147] -mcpu=cortex-m4 -mno-thumb-in"
 2194      20726576 
 2194      6973696F 
 2194      6E203231 
 2194      33313437 
 2195 06b5 74657277 		.ascii	"terwork -mthumb -ggdb -O2 -fomit-frame-pointer -fal"
 2195      6F726B20 
 2195      2D6D7468 
 2195      756D6220 
 2195      2D676764 
 2196 06e8 69676E2D 		.ascii	"ign-functions=16 -ffunction-sections -fdata-section"
 2196      66756E63 
 2196      74696F6E 
 2196      733D3136 
 2196      202D6666 
 2197 071b 73202D66 		.ascii	"s -fno-common -flto\000"
 2197      6E6F2D63 
 2197      6F6D6D6F 
 2197      6E202D66 
 2197      6C746F00 
 2198              	.LASF42:
 2199 072f 705F6D73 		.ascii	"p_msg\000"
 2199      6700
 2200              	.LASF141:
 2201 0735 50464461 		.ascii	"PFData\000"
 2201      746100
 2202              	.LASF150:
 2203 073c 7364496E 		.ascii	"sdInit\000"
 2203      697400
 2204              	.LASF109:
 2205 0743 6D5F6372 		.ascii	"m_crit_thd\000"
 2205      69745F74 
 2205      686400
 2206              	.LASF124:
 2207 074e 6D5F6F77 		.ascii	"m_owner\000"
 2207      6E657200 
 2208              	.LASF147:
 2209 0756 70616C5F 		.ascii	"pal_default_config\000"
ARM GAS  /var/folders/c6/c789hm653lg9vtl73krp73tm0000gn/T//cc7zIXeU.s 			page 53


 2209      64656661 
 2209      756C745F 
 2209      636F6E66 
 2209      696700
 2210              	.LASF32:
 2211 0769 705F6374 		.ascii	"p_ctx\000"
 2211      7800
 2212              	.LASF68:
 2213 076f 76745F66 		.ascii	"vt_func\000"
 2213      756E6300 
 2214              		.comm	__gnu_lto_v1,1,1
 2215              		.ident	"GCC: (GNU Tools for ARM Embedded Processors) 4.8.4 20140725 (release) [ARM/embedded-4_8-br
ARM GAS  /var/folders/c6/c789hm653lg9vtl73krp73tm0000gn/T//cc7zIXeU.s 			page 54


DEFINED SYMBOLS
                            *ABS*:0000000000000000 hal.c
/var/folders/c6/c789hm653lg9vtl73krp73tm0000gn/T//cc7zIXeU.s:157    .text.halInit:0000000000000000 $t
/var/folders/c6/c789hm653lg9vtl73krp73tm0000gn/T//cc7zIXeU.s:163    .text.halInit:0000000000000000 halInit
/var/folders/c6/c789hm653lg9vtl73krp73tm0000gn/T//cc7zIXeU.s:207    .text.halInit:000000000000002c $d
                            *COM*:0000000000000001 __gnu_lto_v1
                     .debug_frame:0000000000000010 $d

UNDEFINED SYMBOLS
hal_lld_init
_pal_lld_init
macInit
sdInit
sdcInit
usbInit
sduInit
boardInit
stInit
pal_default_config
