ARM GAS  /var/folders/c6/c789hm653lg9vtl73krp73tm0000gn/T//cctpXYFN.s 			page 1


   1              		.syntax unified
   2              		.cpu cortex-m4
   3              		.fpu softvfp
   4              		.eabi_attribute 20, 1
   5              		.eabi_attribute 21, 1
   6              		.eabi_attribute 23, 3
   7              		.eabi_attribute 24, 1
   8              		.eabi_attribute 25, 1
   9              		.eabi_attribute 26, 1
  10              		.eabi_attribute 30, 2
  11              		.eabi_attribute 34, 1
  12              		.eabi_attribute 18, 4
  13              		.thumb
  14              		.file	"hal_lld.c"
  15              		.text
  16              	.Ltext0:
  17              		.section	.gnu.lto_.jmpfuncs.c7027da08977551e,"",%progbits
  18 0000 789C6362 		.ascii	"x\234cb`b\300\006\330\2414H\226\221\201\001\000\001"
  18      6062C006 
  18      D8A13448 
  18      96918101 
  18      0001
  19 0012 39000F   		.ascii	"9\000\017"
  20              		.text
  21              		.section	.gnu.lto_.inline.c7027da08977551e,"",%progbits
  22 0000 789C6362 		.ascii	"x\234cb`b\300\006\014\2414PVA\203\221\201\311b\301z"
  22      6062C006 
  22      0CA13450 
  22      56418391 
  22      81C962C1 
  23 0015 6606B605 		.ascii	"f\006\266\005\362`\325\214\\ \202\341\020\303\035&\240"
  23      F260D58C 
  23      5C2082E1 
  23      10C31D26 
  23      A0
  24 0026 54DD8FF9 		.ascii	"T\335\217\371Zp)\006\000\266\372\007\211"
  24      5A702906 
  24      00B6FA07 
  24      89
  25              		.text
  26              		.section	.gnu.lto_.pureconst.c7027da08977551e,"",%progbits
  27 0000 789C6362 		.ascii	"x\234cb`b`e\200\000&\006)F)\000\001\006\000A"
  27      60626065 
  27      80002606 
  27      29462900 
  27      01060041 
  28              		.text
  29              		.section	.gnu.lto_hal_lld_init.c7027da08977551e,"",%progbits
  30 0000 789CAD55 		.ascii	"x\234\255UMh\023A\024~of7IKj\202\364'9\265\024<\011"
  30      4D681341 
  30      147E6F66 
  30      37494B6A 
  30      82F42739 
  31 0018 499B7AD0 		.ascii	"I\233z\320\203\365\"\202\007O\246\240'\211\021j \020"
  31      83F52282 
  31      074FA6A0 
  31      2789116A 
ARM GAS  /var/folders/c6/c789hm653lg9vtl73krp73tm0000gn/T//cctpXYFN.s 			page 2


  31      2010
  32 002a B1228582 		.ascii	"\261\"\205\202\23159\204\"\030<Y\275XD\224\"x\215\210"
  32      99353984 
  32      22183C59 
  32      BD584494 
  32      22788D88 
  33 003e 50A4A1F6 		.ascii	"P\244\241\366\240\342\255T\250+\010z\360 =\211\001\327"
  33      A0E2AD54 
  33      A82B087A 
  33      F0203D89 
  33      01D7
  34 0050 373BBB6B 		.ascii	"7;\273k~\020wc\037\311\233\335\231y\337|\337{3\263\014"
  34      7E107763 
  34      1FC99BDD 
  34      9979DF7C 
  34      DF7B33B3 
  35 0065 18745B86 		.ascii	"\030t[\206\376\357\302\000'\251E\035\220\325\337\002"
  35      FEEFC200 
  35      27A9451D 
  35      90D5DF02 
  36 0075 1811C6F8 		.ascii	"\030\021\306\370\326,\210Am3\006\"\312QS\335\032\242"
  36      D62C8841 
  36      6D330622 
  36      CA5153DD 
  36      1AA2
  37 0087 7C008432 		.ascii	"|\000\2042\343\032\226\317\243\304\340\223\260*\304"
  37      E31A96CF 
  37      A3C4E093 
  37      B02AC4
  38 0096 1DB3D9BA 		.ascii	"\035\263\331\272\233\\~p\263.~Y\026\026\220V\233A\310"
  38      9B5C7E70 
  38      B32E7E59 
  38      16169056 
  38      9B41C8
  39 00a9 239CA317 		.ascii	"#\234\243\027\234\260\033\246u.\257\"\327w7o\015\326"
  39      9CB01BA6 
  39      752EAF22 
  39      D777376F 
  39      0DD6
  40 00bb 8D9AB0AC 		.ascii	"\215\232\260\254\262\035w\314g\334^W\334\211\177\305"
  40      B21D77CC 
  40      67DC5E57 
  40      DC897FC5 
  41 00cb 3D63EBA6 		.ascii	"=c\353\246e=}\371\371\323\012\036\034g\220\303U\234"
  41      653D7DF9 
  41      F9D30A1E 
  41      1C6790C3 
  41      559C
  42 00dd 049DDA87 		.ascii	"\004\235\332\207\324F\200P\006\244\213R\317#\352\211"
  42      D4468050 
  42      06A48B52 
  42      CF23EA89 
  43 00ed C997B874 		.ascii	"\311\227\270t\303\322\215H7*\335\230t\011\351\222\322"
  43      C3D28D48 
  43      372ADD98 
  43      7409E992 
  43      D2
ARM GAS  /var/folders/c6/c789hm653lg9vtl73krp73tm0000gn/T//cctpXYFN.s 			page 3


  44 00fe 91E95015 		.ascii	"\221\351P\025\242>\001\222\001Y\226\274\314\325\034"
  44      A23E0192 
  44      015996BC 
  44      CCD51C
  45 010d 32D9F237 		.ascii	"2\331\3627\360jg\273\225\310\341cJ\363<\262\303\260"
  45      F06A67BB 
  45      95C8E163 
  45      4AF33CB2 
  45      C3B0
  46 011f 26AA46BC 		.ascii	"&\252F\274\200\374>\334#\246\232\244\253\213\3575\241"
  46      80FC3EDC 
  46      23A69AA4 
  46      AB8BEF35 
  46      A1
  47 0130 D9CC759B 		.ascii	"\331\314u\233\357Et\231S\374Q\025\034,R\366\200E\026"
  47      EF457499 
  47      53FC5115 
  47      1C2C52F6 
  47      804516
  48 0143 EB05C100 		.ascii	"\353\005\301\000\030\334!\261\363u\311\325\240\373e"
  48      18DC21B1 
  48      F375C9D5 
  48      A0FB65
  49 0152 827D6BC0 		.ascii	"\202}k\300}\320\200\275\032j7\\\015\021\277L\230\247"
  49      7DD080BD 
  49      1A6A375C 
  49      0D11BF4C 
  49      98A7
  50 0164 A1F29CBB 		.ascii	"\241\362\234\273\321\003\004\340\221;\240\300O\007S"
  50      D10304E0 
  50      913BA0C0 
  50      4F0753
  51 0173 A87009AA 		.ascii	"\250p\011\252\017e\254W\331\023OY\324/\003\336wu\370"
  51      0F65AC57 
  51      D9134F59 
  51      D42F03DE 
  51      7775F8
  52 0186 3E5487F7 		.ascii	">T\207\367j\250\225]\0151\277L4OC[u\342\004`\223\023"
  52      6AA8955D 
  52      0D31BF4C 
  52      344F435B 
  52      75E20460 
  53 019c 64D85775 		.ascii	"d\330Wu4\247:q\305\254\261;\344\035s\365 \254\333\307"
  53      34A73A71 
  53      C5ACB13B 
  53      E41D73F5 
  53      20ACDBC7 
  54 01b0 0114685E 		.ascii	"\001\024h^m\265y\034\356\2007\352\202\236B\0226,L\303"
  54      6DB5791C 
  54      EE8037EA 
  54      829E4212 
  54      362C4CC3 
  55 01c4 5921ECAC 		.ascii	"Y!\354\254\240\313\350\246ZP\262\257|\371\2009\334\260"
  55      A0CBE8A6 
  55      5A50B2AF 
  55      7CF98039 
  55      DCB0
ARM GAS  /var/folders/c6/c789hm653lg9vtl73krp73tm0000gn/T//cctpXYFN.s 			page 4


  56 01d6 058C1094 		.ascii	"\005\214\020\224\022\300<\366\033\335\354\375\302\023"
  56      12C03CF6 
  56      1BDDECFD 
  56      C213
  57 01e4 9C93DE71 		.ascii	"\234\223\336q\027\177\264\275F\012\347o\211\010u\322"
  57      177FB4BD 
  57      460AE76F 
  57      890875D2 
  58 01f4 7C5159F3 		.ascii	"|QY\363X\216\021\220bI\223\3405T\277\031C\336\230\032"
  58      588E1190 
  58      624993E0 
  58      3554BF19 
  58      43DE981A 
  59 0208 68BF85E7 		.ascii	"h\277\205\347\250\320[\263\362>ll\177\214\265\013\022"
  59      A8D05BB3 
  59      F23E6C6C 
  59      7F8CB50B 
  59      12
  60 0219 D3C19838 		.ascii	"\323\301\2308\265\325Tn\032?\376\037\215\377!\251y\267"
  60      B5D5546E 
  60      1A3FFE1F 
  60      8DFF21A9 
  60      79B7
  61 022b 7663CFF4 		.ascii	"vc\317\364\264&\002\244>\334\2252\356\202$\011G\035"
  61      B42602A4 
  61      3EDC9532 
  61      EE822409 
  61      471D
  62 023d 9A967768 		.ascii	"\232\226wh\202W6\334V\331$}\304\241b.7Cj'\002,\301O"
  62      825736DC 
  62      56D9247D 
  62      C4A1622E 
  62      37436A27 
  63 0255 5193E191 		.ascii	"Q\223\341\221\274sM\024\344\025\363\036\014s\345\220"
  63      BC734D14 
  63      E415F31E 
  63      0C73E590 
  64 0265 3B495996 		.ascii	";IY\226\266-i\225\263\246R\251\264\372\225\026\322\227"
  64      B62D6995 
  64      B3A652A9 
  64      B4FA9516 
  64      D297
  65 0277 73C5F495 		.ascii	"s\305\364\225\322\325k\013\351\263\33133\031\345O\035"
  65      D2D56B0B 
  65      E9B3D933 
  65      3319E54F 
  65      1D
  66 0288 595C9423 		.ascii	"Y\\\224#\027\212\305K\251<\350\327K\305\324\224\355"
  66      178AC54B 
  66      A93CE8D7 
  66      4BC5D494 
  66      ED
  67 0299 A76D9FF9 		.ascii	"\247m\237\371\015\234Q\332\267"
  67      0D9C51DA 
  67      B7
  68              		.text
  69              		.section	.gnu.lto_stm32_clock_init.c7027da08977551e,"",%progbits
ARM GAS  /var/folders/c6/c789hm653lg9vtl73krp73tm0000gn/T//cctpXYFN.s 			page 5


  70 0000 789CA556 		.ascii	"x\234\245VMh\024I\024~\257\272{\272g\322\363\227\314"
  70      4D681449 
  70      147EAFBA 
  70      7BBA67D2 
  70      F397CC
  71 0013 64623018 		.ascii	"db0\030\214\001C\222Ib<\355m.\202\207=m\002\352E\\\027"
  71      8C014392 
  71      49623CED 
  71      6D2E8287 
  71      3D6D02EA 
  72 002a 6220A0A8 		.ascii	"b \240\250\007o\366\220\010\036r\3101(\010*HP\211\220"
  72      076FF690 
  72      081E72C8 
  72      3128082A 
  72      48508990 
  73 003e 439C4511 		.ascii	"C\234E\021wY\330EpA\360\020s\212\012\212\313\202?\247"
  73      7759D845 
  73      7041F010 
  73      738A0A8A 
  73      CB823FA7 
  74 0052 88C258AF 		.ascii	"\210\302X\257\252\272j43:\231n\302\327=\365\272\276"
  74      AABA6A34 
  74      333A996E 
  74      C2D73DF5 
  74      BABE
  75 0064 7EF5BDAF 		.ascii	"~\365\275\257\352\205\001\203o\257$\002\334\366\001"
  75      EA850183 
  75      6FAF2402 
  75      DCF601
  76 0073 F6F167EC 		.ascii	"\366\361g\354\002d\013\377\002\224=\206\226|\260Xa\376"
  76      02640BFF 
  76      02943D86 
  76      967CB058 
  76      61FE
  77 0085 6F802061 		.ascii	"o\200 a\317\271\020\370\0059^\262\321\221q\207u\312"
  77      CFB910F8 
  77      05395EB2 
  77      D1917187 
  77      75CA
  78 0097 784CC43B 		.ascii	"xL\304;\345x)\206\256\214\273,/\343\236\210\347\345"
  78      E5782986 
  78      AE8CBB2C 
  78      2FE39E88 
  78      E7E5
  79 00a9 78C9C3B8 		.ascii	"x\311\303\270\214\307YN\306\023\"\236\223\343\245\004"
  79      8CC7594E 
  79      C613229E 
  79      93E3A504 
  80 00b9 B6C9781B 		.ascii	"\266\311x\033\353\220q_\304;\344x\311\307\014\3351\303"
  80      EB90715F 
  80      C43BE478 
  80      C9C70CDD 
  80      31C3
  81 00cb DA653829 		.ascii	"\332e8)\302\355r\270\224\304\224\234\236bY\031O\213"
  81      C2ED72B8 
  81      94C4949C 
  81      9E625919 
ARM GAS  /var/folders/c6/c789hm653lg9vtl73krp73tm0000gn/T//cctpXYFN.s 			page 6


  81      4F8B
  82 00dd 78568E97 		.ascii	"xV\216\227\322\210t\007\204\363\314*\330Ng\314\315{"
  82      D2887407 
  82      84F3CC2A 
  82      D84E67CC 
  82      CD7B
  83 00ef F15CA2AD 		.ascii	"\361\\\242\255\303\317\264'S\3314\236?\214B\237;\354"
  83      C3CFB427 
  83      53D9349E 
  83      3F8C429F 
  83      3BEC
  84 0101 E146B5BA 		.ascii	"\341F\265\272\374\364\321\225\373\370\210\215\3330\215"
  84      FCF4D195 
  84      FBF8888D 
  84      DB308D
  85 0110 E010B804 		.ascii	"\340\020\270\004\036A\234 A\340\023\244\010\322\004"
  85      1E419C20 
  85      41E013A4 
  85      08D204
  86 011f 19822C41 		.ascii	"\031\202,A\216 OP \350\"\330A\320M\260\223\240\207`"
  86      8E204F50 
  86      20E822D8 
  86      41D04DB0 
  86      93A08760 
  87 0133 17412FC1 		.ascii	"\027A/\301n\202>\202=\004\375\004{\011\006\010\006\011"
  87      6E823E82 
  87      3D04FD04 
  87      7B090608 
  87      0609
  88 0145 86088609 		.ascii	"\206\010\206\011\212\004\243\004c\004\374r`.\010\026"
  88      8A04A304 
  88      6304FC72 
  88      602E0816 
  89 0155 7A018E8B 		.ascii	"z\001\216\213\237\023\034\271\000\223\310\370\315z\014"
  89      9F131CB9 
  89      0093C8F8 
  89      CD7A0C
  90 0164 7F56D66E 		.ascii	"\177V\326n\375\301\216\341Ut8\327\315`\256\034$\247"
  90      FDC18EE1 
  90      557438D7 
  90      CD60AE1C 
  90      24A7
  91 0176 112FC325 		.ascii	"\021/\303%\234Fv\210\203\025\274\273\030\330 \036\205"
  91      9C467688 
  91      8315BCBB 
  91      18D8201E 
  91      85
  92 0187 10BF4A3D 		.ascii	"\020\277J=\304\010\004\374\242\337\202i\371\0316`\262"
  92      C40804FC 
  92      A2DF8269 
  92      F9193660 
  92      B2
  93 0198 E96527D8 		.ascii	"\351e'\330(+&G1a-\223%y\326++!\317\024\332\222*\363"
  93      282B2647 
  93      31612D93 
  93      2579D62B 
  93      2B21CF14 
ARM GAS  /var/folders/c6/c789hm653lg9vtl73krp73tm0000gn/T//cctpXYFN.s 			page 7


  94 01b0 C39C4243 		.ascii	"\303\234BC?\206\331\337\255p\2663%\277\014*\305\203"
  94      3F86D9DF 
  94      AD70B633 
  94      25BF0C2A 
  94      C583
  95 01c2 B5E935CB 		.ascii	"\265\3515\3139\245\262\345\242Y\300\315B\252\255\257"
  95      39A5B2E5 
  95      A259C0CD 
  95      42AAADAF 
  96 01d2 AD7CD439 		.ascii	"\255|\3249\272\202\017\267\223\342\275\331\025=\335"
  96      BA820FB7 
  96      93E2BDD9 
  96      153DDD
  97 01e1 E30C2249 		.ascii	"\343\014\"I\212\377\003\177\275.\217\353\220\030\257"
  97      8AFF037F 
  97      BD2E8FEB 
  97      9018AF
  98 01f0 BD26B000 		.ascii	"\275&\260\000\334\3078\211\266*\340\372\342\352\033"
  98      DCC73889 
  98      B62AE0FA 
  98      E2EA1B
  99 01ff CD156F76 		.ascii	"\315\025oviVM.Z\256\004'\020_\374\\\255V\323-If)\311"
  99      69564D2E 
  99      5AAE0427 
  99      105FFC5C 
  99      AD56D32D 
 100 0217 12B2944B 		.ascii	"\022\262\224K\253:5\177\373\251\265\372q?\254\227c\352"
 100      AB3A357F 
 100      FBA9B5FA 
 100      713FAC97 
 100      63EA
 101 0229 B5FA5E67 		.ascii	"\265\372^g\222j\262^\265\032\315\232\205\2449\203P\311"
 101      926AB25E 
 101      B51ACD9A 
 101      85A43983 
 101      50C9
 102 023b 17F59AFB 		.ascii	"\027\365\232\373\337\324+]\247^\235\252^\261\260^kw"
 102      DFD42B5D 
 102      A75E9DAA 
 102      5EB1B05E 
 102      6B77
 103 024d 8DBD332D 		.ascii	"\215\2753-\330\333\324+\313\011\304\027?F\363wV\356"
 103      D8DBD42B 
 103      CB09C417 
 103      3F46F377 
 103      56EE
 104 025f DFCDBB6F 		.ascii	"\337\315\273o\032\355\337\357KD#\250J\266\276\370\300"
 104      1AEDDFEF 
 104      4B4423A8 
 104      4AB6BEF8 
 104      C0
 105 0270 2C2F1769 		.ascii	",/\027i\367\3469\201:\032\354H\353\313\207~p\215\037"
 105      F7E63981 
 105      3A1AEC48 
 105      EBCB877E 
 105      708D1F
 106 0283 1E183F14 		.ascii	"\036\030?\024Z\331\277\313zz\027gPiz[vpW\035G\344\225"
ARM GAS  /var/folders/c6/c789hm653lg9vtl73krp73tm0000gn/T//cctpXYFN.s 			page 8


 106      5AD9BFCB 
 106      7A7A1767 
 106      50697A5B 
 106      7670571D 
 107 029a 233CBD83 		.ascii	"#<\275\203_<\327l;\232]\234]O\262nN\020\341\300\263"
 107      5F3CD76C 
 107      3B9A5D9C 
 107      5D4FB26E 
 107      4E10E1C0 
 108 02af 9560DDA1 		.ascii	"\225`\335\241`q-X\345\205\021lg\223\202\325\244X{\340"
 108      60712D58 
 108      E585116C 
 108      679382D5 
 108      A4587BE0 
 109 02c3 F5708606 		.ascii	"\365p\206\006\007^O\035\271rJ\256D\330\2616_n\273c9"
 109      075E4F1D 
 109      B9724AAE 
 109      44D8B136 
 109      5F6EBB63 
 110 02d8 C6A7F34B 		.ascii	"\306\247\363K\345\237\224U+\257\214UwE\262j/'\010\373"
 110      E59F9455 
 110      2BAF8C55 
 110      7745B26A 
 110      2F2708FB 
 111 02ec A117C9AB 		.ascii	"\241\027\311\253\275\241\364mF\372\327F\372\335\337"
 111      BDA1F46D 
 111      46FAD746 
 111      FADDDF
 112 02fb 48DFA8B1 		.ascii	"H\337\250\261\306\352K\337\307\031T\236\270E\374\276"
 112      C6EA4BDF 
 112      C719549E 
 112      B845FCBE 
 113 030b 3AE27708 		.ascii	":\342w\010\361'\370\221\312\305\237\304\014%\205\"\251"
 113      F127F891 
 113      CAC59FC4 
 113      0C258522 
 113      A9
 114 031c B7A601EE 		.ascii	"\267\246\001\356\211\326\000\3739C(^fKV\375u\262jW\226"
 114      89D600FB 
 114      3943285E 
 114      664B56FD 
 114      75B26A57 
 115 0331 486A4B7C 		.ascii	"HjK|\212rt\005K\327\036\252\177>*\213\327?|\3154\246"
 115      8A727405 
 115      4BD71EAA 
 115      7F3E2A8B 
 115      D73F7CCD 
 116 0347 9962F4B2 		.ascii	"\231b\364\262\033l\206L\256br5\023\\H)k\255\335\370"
 116      1B6C864C 
 116      AE627235 
 116      135C4829 
 116      6BADDDF8 
 117 035b 4FAF6F6F 		.ascii	"O\257oo\013M\331Xk\200\023\350\335\322zO\034\010}\225"
 117      0B4DD958 
 117      6B8013E8 
 117      DDD27A4F 
 117      1C087D95 
ARM GAS  /var/folders/c6/c789hm653lg9vtl73krp73tm0000gn/T//cctpXYFN.s 			page 9


 118 036f D2BEDABC 		.ascii	"\322\276\332\274\361A\3478\030\255'\016q\206\006=qH"
 118      F141E738 
 118      18AD270E 
 118      7186063D 
 118      7148
 119 0381 8C7B5FD5 		.ascii	"\214{_\325/\253\352\227\326=\361fw\370\376p\263+\363"
 119      2FABEA97 
 119      D63DF166 
 119      77F8FE70 
 119      B32BF3
 120 0394 4C2A46AD 		.ascii	"L*F\255\"'\2501\370\366\365\362\224^E1\371H\310;\332"
 120      2227A831 
 120      F8F6F5F2 
 120      945E4531 
 120      F948C83B 
 121 03a9 ECFC78BD 		.ascii	"\354\374x\275\254\3068A\244\254\342*\2531\200'P\336"
 121      ACC63841 
 121      A4ACE22A 
 121      AB318027 
 121      50DE
 122 03bb B83520A7 		.ascii	"\2705 \247\033E\221+I\006\031-\026G\344\337\3113#'\216"
 122      1B45912B 
 122      4906192D 
 122      1647E4DF 
 122      C9332327 
 123 03d0 CD8C9C3A 		.ascii	"\315\214\234:y\372\354\231\221_&~\036\337'\361\300\376"
 123      79FAEC99 
 123      915F267E 
 123      1EDF27F1 
 123      C0FE
 124 03e2 73E72872 		.ascii	"s\347(rtf\346\267\342q\370\002\012\322\356H"
 124      7466E6B7 
 124      E271F802 
 124      0AD2EE48 
 125              		.text
 126              		.section	.gnu.lto_.symbol_nodes.c7027da08977551e,"",%progbits
 127 0000 789C6362 		.ascii	"x\234cb`b\260e\200\002\2466\246z\006\206\011\347\030"
 127      6062B065 
 127      8002A636 
 127      A67A0686 
 127      09E718
 128 0013 18EAEBE7 		.ascii	"\030\352\353\347u02\2653\3253\"\270\254-L\014\254\365"
 128      753032B5 
 128      33D53322 
 128      B8AC2D4C 
 128      0CACF5
 129 0026 0C8C1D4C 		.ascii	"\014\214\035L\365L\020\321\206\006Ff\006f\206\307}o"
 129      F54C10D1 
 129      86064666 
 129      066686C7 
 129      7D6F
 130 0038 E419000D 		.ascii	"\344\031\000\015\011\020\327"
 130      0910D7
 131              		.text
 132              		.section	.gnu.lto_.refs.c7027da08977551e,"",%progbits
 133 0000 789C6362 		.ascii	"x\234cb`b`d\200\002\000\000F\000\006"
 133      60626064 
ARM GAS  /var/folders/c6/c789hm653lg9vtl73krp73tm0000gn/T//cctpXYFN.s 			page 10


 133      80020000 
 133      460006
 134              		.text
 135              		.section	.gnu.lto_.decls.c7027da08977551e,"",%progbits
 136 0000 789CAD98 		.ascii	"x\234\255\230}L\024G\024\300g\026(wp\305\217VkMS\321"
 136      7D4C1447 
 136      14C06716 
 136      287770C5 
 136      8F566B4D 
 137 0016 C4B63191 		.ascii	"\304\2661\221\203\003\253\375\307\212'\202)\332\313"
 137      8303ABFD 
 137      C78A2782 
 137      29DACB
 138 0025 1DB63669 		.ascii	"\035\2666ir]\341,\304\343#p$\370\337\012Z\251V{\242"
 138      725DE12C 
 138      C4E32370 
 138      24F8DF0A 
 138      5AA9567B 
 139 003a 56FB295A 		.ascii	"V\373)ZK\253\366+~\305*\321+QB\214m\325\0305h\340\332"
 139      4BABF62B 
 139      7EC52AD1 
 139      2B51428C 
 139      6DD51835 
 140 0051 A834C45A 		.ascii	"\2504\304Z4j\000)\3277ow\357n\316\333s\267\351\306\367"
 140      346A0029 
 140      D7376F77 
 140      EF6ECEDB 
 140      73B7E9C6 
 141 0066 76D899F7 		.ascii	"v\330\231\367{o\336\274\335\233Q \002y\232\022\022\202"
 141      7B6FDEBC 
 141      DD9B5120 
 141      02799A12 
 141      1282
 142 0078 6BF82942 		.ascii	"k\370)B\036\012\204$\021B\346\222\310\305\376\336\005"
 142      1E0A8424 
 142      1142E692 
 142      C8C5FEDE 
 142      05
 143 0089 D206B217 		.ascii	"\322\006\262\027\004\206\223\375\204\277X\177\032H*"
 143      048693FD 
 143      84BF587F 
 143      1A482A
 144 0098 48068805 		.ascii	"H\006\210\005\344\020\310a\220A\220!\"\033R\220\335"
 144      E410C861 
 144      90419021 
 144      221B5290 
 144      DD
 145 00a9 D0348174 		.ascii	"\3204\201t\200\234\0029\003r\026\244\033d\024\3446H"
 145      809C0239 
 145      037216A4 
 145      1B6414E4 
 145      3648
 146 00bb 28CAAF40 		.ascii	"(\312\257@e\277\261W\233\302I\325\360\225\002\362\014"
 146      65BFB157 
 146      9BC249D5 
 146      F09502F2 
 146      0C
ARM GAS  /var/folders/c6/c789hm653lg9vtl73krp73tm0000gn/T//cctpXYFN.s 			page 11


 147 00cc 95E352D9 		.ascii	"\225\343R\331\307@N\200\014\200\264+~\322`\3145\270"
 147      C7404E80 
 147      0C80B42B 
 147      7ED260CC 
 147      35B8
 148 00de F72B736B 		.ascii	"\367+sk\213\343k\012\371Bj\015\006O\017\377\370\254"
 148      8BE36B0A 
 148      F9426A0D 
 148      064F0FFF 
 148      F8AC
 149 00f0 D4DA1808 		.ascii	"\324\332\030\010\205^%\023\3116\011\256\326\367$\211"
 149      855E2513 
 149      C93609AE 
 149      D6F72489 
 150 0100 FA443A77 		.ascii	"\372D:w\002YFE\232a&\231\330\260\230I2\232\212t7\235"
 150      02594645 
 150      9A612699 
 150      D8B09849 
 150      329A8A74 
 151 0116 A8B49626 		.ascii	"\250\264\226&\3118\201\344R2\203\354\005{\277$5N\243"
 151      C93881E4 
 151      523283EC 
 151      057BBF24 
 151      354EA3
 152 0129 715C12F2 		.ascii	"q\\\022\362\002\371\212y\220\276\221\222\220\317\010"
 152      02F98A79 
 152      90BE9192 
 152      90CF08
 153 0138 BBE894E8 		.ascii	"\273\350\224\350!\"\375\222\012\217\006\032\270x\306"
 153      2122FD92 
 153      0A8F061A 
 153      B878C6
 154 0147 E25F1D0C 		.ascii	"\342_\035\014\205\246\310\336\005RHa\354\036:#!\274"
 154      85A6C8DE 
 154      05524861 
 154      EC1E3A23 
 154      21BC
 155 0159 2D16FEF5 		.ascii	"-\026\376\365\243\360\240?x\247\363\324:\272\271\251"
 155      A3F0A03F 
 155      78A7F3D4 
 155      3ABAB9A9 
 156 0169 B54B1A08 		.ascii	"\265K\032\010\205\306\020\325\305\006\032\353C\206\354"
 156      85C610D5 
 156      C5061AEB 
 156      4386EC
 157 0178 E321D3C8 		.ascii	"\343!\323\310.\251\265#xc\313F\226JI\032\015\205\250"
 157      2EA9B523 
 157      7863CB46 
 157      964A491A 
 157      0D85A8
 158 018b 9934431A 		.ascii	"\2314C\032X.\213\272\240|\342%r:\331\003\311\012^^\177"
 158      582E8BBA 
 158      A07CE225 
 158      723AD903 
 158      C90A5E5E 
 159 01a0 FA670A56 		.ascii	"\372g\012V\320\361-\230\011$\030\343U?\352\340\207\355"
 159      D0F12D98 
ARM GAS  /var/folders/c6/c789hm653lg9vtl73krp73tm0000gn/T//cctpXYFN.s 			page 12


 159      092418E3 
 159      553FEAE0 
 159      87ED
 160 01b2 AF489249 		.ascii	"\257H\222I\244? \250S\340A\"M5\363\023\201\277\325\001"
 160      A43F20A8 
 160      53E04122 
 160      4D35F313 
 160      81BFD501 
 161 01c6 8C86DD4A 		.ascii	"\214\206\335J\203\275?c\210\321\341\0029\037v\252U<"
 161      83BD3F63 
 161      88D1E102 
 161      391F76AA 
 161      553C
 162 01d8 07207BCF 		.ascii	"\007 {\317\223\337\205\317%\023>Y\246\314\\\272\267"
 162      93DF85CF 
 162      25133E59 
 162      A6CC5CBA 
 162      B7
 163 01e9 D1A1CCB6 		.ascii	"\321\241\314\266)\341lE\372\035\235\256+\234\361d3\253"
 163      29E16C45 
 163      FA1D9DAE 
 163      2B9CF164 
 163      33AB
 164 01fb 88CC2852 		.ascii	"\210\314(R\300\244\242\232i$s\275\333\317Nn\30258L\307"
 164      C0A4A29A 
 164      692473BD 
 164      DBCF4E6E 
 164      C235384C 
 165 0210 C32C7626 		.ascii	"\303,v&\361\251{<\210\205u\024le+\304J\201\235}]\024"
 165      F1A97B3C 
 165      88857514 
 165      6C652BC4 
 165      4A819D7D 
 166 0226 1784F590 		.ascii	"\027\204\365\2208\265\244\\SI\253\264\246)p\260\257"
 166      38B5A45C 
 166      5349ABB4 
 166      A62970B0 
 166      AF
 167 0237 4BF8580A 		.ascii	"K\370X\012\254\201\372=\204+\270\037\303`\306\361\362"
 167      AC81FA3D 
 167      842BB81F 
 167      C360C6F1 
 167      F2
 168 0248 A0344938 		.ascii	"\2404I8\213\031\346\030\340!\346\277\305\242\342\276"
 168      8B19E618 
 168      E021E6BF 
 168      C5A2E2BE 
 169 0258 378CCBE4 		.ascii	"7\214\313\344pGx\334\021=8\223vtGy\334q\3038>\272c<"
 169      704778DC 
 169      113D3893 
 169      76744779 
 169      DC71C338 
 170 0270 EEA41EDC 		.ascii	"\356\244\036\334X\355\350\332y\\\227a\034\037\335\011"
 170      58EDE8DA 
 170      795C9761 
 170      1C1FDD09 
 171 0280 1E775E0F 		.ascii	"\036w^\017n\222FtRc\340\234\212\223\277\031\335\206"
ARM GAS  /var/folders/c6/c789hm653lg9vtl73krp73tm0000gn/T//cctpXYFN.s 			page 13


 171      6E924674 
 171      5263E09C 
 171      8A93BF19 
 171      DD86
 172 0292 717C7417 		.ascii	"q|t\027\370\350\256\353\301ej\347\356\"\217\373\313"
 172      F8E8AEEB 
 172      C1656AE7 
 172      EE228FFB 
 172      CB
 173 02a3 302E2A3A 		.ascii	"0.*:x\215.\365\231\2006\216\370\361\347i^W\206<me\354"
 173      788D2EF5 
 173      9980368E 
 173      F8F1E769 
 173      5E57863C 
 174 02ba 3CBE3644 		.ascii	"<\2766D\372\033\035\207-\374\224H\312\247\004Gh}\222"
 174      FA1B1D87 
 174      2DFC9448 
 174      CAA70447 
 174      687D92
 175 02cd CE5173D8 		.ascii	"\316Qs\330\273\305\034i\250\277b\002y\020;\005\316\253"
 175      BBC51C69 
 175      A8BF6202 
 175      79103B05 
 175      CEAB
 176 02df D27C493B 		.ascii	"\322|I;#W\370\214H\311:2\222\255\215\353\346q\315\206"
 176      2357F88C 
 176      48C93A32 
 176      92AD8DEB 
 176      E671CD86 
 177 02f3 71FCF25F 		.ascii	"q\374\362_\343q~=\2709\332\305\331\303\027\347\016\303"
 177      E3717E3D 
 177      B839DAC5 
 177      D9C317E7 
 177      0EC3
 178 0305 383EBA01 		.ascii	"8>\272\001>\272\335zp\363\264sw\227\307\3553\214\343"
 178      3EBADD7A 
 178      70F3B473 
 178      7797C7ED 
 178      338CE3
 179 0318 8BF31E16 		.ascii	"\213\363\036\026\247\\u\0029\020K\213W'E\332\301=\340"
 179      A75C7502 
 179      39104B8B 
 179      572745DA 
 179      C13DE0
 180 032b 836BD713 		.ascii	"\203k\327\023\234C\0337\310\343:\015\343\370\225\030"
 180      9C431B37 
 180      C8E33A0D 
 180      E3F89518 
 181 033b E671E7F4 		.ascii	"\346q\347\364\340\226i\327\311H\314G\3140\216\217n4"
 181      E09669D7 
 181      C948CC47 
 181      CC308E8F 
 181      6E34
 182 034d E623A607 		.ascii	"\346#\246\007\367\216v\356\374\375\034\356\266a\034"
 182      F78E76EE 
 182      FCFD1CEE 
 182      B6611C
ARM GAS  /var/folders/c6/c789hm653lg9vtl73krp73tm0000gn/T//cctpXYFN.s 			page 14


 183 035c 5F272DFD 		.ascii	"_'-\375\321u2\250\247N\312\265\203\333\312\007\327\230"
 183      D17532A8 
 183      A74ECAB5 
 183      83DBCA07 
 183      D798
 184 036e A223B81A 		.ascii	"\242#\270\032m\334G<n\235a\034?\327\035\334\\7\304\322"
 184      6DDC473C 
 184      6E9D611C 
 184      3FD71DDC 
 184      5C37C4D2 
 185 0382 E2CDB541 		.ascii	"\342\315\265A;\270O\370\340\266\351\011N\242\332\274"
 185      3BB84FF8 
 185      E0B6E909 
 185      4EA2DABC 
 186 0392 CF78DEA7 		.ascii	"\317x\336\247\306y\231D\363\212\336\005\212\364'\334"
 186      C6799944 
 186      F38ADE05 
 186      8AF427DC 
 187 03a2 A81EA353 		.ascii	"\250\036\243SA\267\243>\201:\200\272\003\365)\324\235"
 187      41B7A33E 
 187      813A80BA 
 187      03F529D4 
 187      9D
 188 03b3 A8BB509F 		.ascii	"\250\273P\237A}\026\365\257\250/\240\276\210\372\022"
 188      417D16F5 
 188      AFA82FA0 
 188      BE88FA12 
 189 03c3 EA2BA8BB 		.ascii	"\352+\250\273Q_C\335\203:\210\372\017\324\327Q\337D"
 189      515F43DD 
 189      833A88FA 
 189      0FD4D751 
 189      DF44
 190 03d5 FD27EA7E 		.ascii	"\375'\352~\324\267P\337F=\200\372.\352{\250\037\200"
 190      D4B750DF 
 190      463D80FA 
 190      2EEA7BA8 
 190      1F80
 191 03e7 0E5FE964 		.ascii	"\016_\351d}\344\360!\357\216\265~D\007i\272j\245l\227"
 191      7DE4F021 
 191      EF8EB57E 
 191      440769BA 
 191      6AA56C97 
 192 03fb D94F3589 		.ascii	"\331O5\211\273\350\362\266;\260\245o\222\224,\322!\334"
 192      BBE8F2B6 
 192      3BB0A56F 
 192      92942CD2 
 192      21DC
 193 040d 73B7A5C4 		.ascii	"s\267\245\304\335skC\230\323\221\330-\367\303\233\312"
 193      DD736B43 
 193      98D391D8 
 193      2DF7C39B 
 193      CA
 194 041e 967B44D7 		.ascii	"\226{D\327\226;t\223\333r\213\3648\234Ndc\275{d\036"
 194      963B7493 
 194      DB728BF4 
 194      389C4E64 
 194      63BD7B64 
ARM GAS  /var/folders/c6/c789hm653lg9vtl73krp73tm0000gn/T//cctpXYFN.s 			page 15


 195 0433 E88FFE08 		.ascii	"\350\217\376\010\211\364\216a\\\302\332\032\211\252"
 195      89F48E61 
 195      5CC2DA1A 
 195      89AA
 196 0441 AD7FB0B6 		.ascii	"\255\177\260\266Fq\315B\011\326l(\301\232IB\272\206"
 196      4671CD42 
 196      09D66C28 
 196      C19A4942 
 196      BA86
 197 0453 153B016B 		.ascii	"\025;\001kY\255\216X\261\003t` x\372\352&\345\277\021"
 197      59AD8E58 
 197      B1037460 
 197      2078FAEA 
 197      26E5BF11 
 198 0467 4E4A347C 		.ascii	"NJ4|~>\020\263\242\361\317\350\215B\314\031\275I\340"
 198      7E3E10B3 
 198      A2F1CFE8 
 198      8D42CC19 
 198      BD49E0
 199 047a 8ED771CE 		.ascii	"\216\327q\316^A\252\206\364\034\211\234\341.\337\230"
 199      5E41AA86 
 199      F41C899C 
 199      E12EDF98 
 200 048a 8D2BBF56 		.ascii	"\215+\277V`\345\364K\374r\322\3060\327\315BL9\335\357"
 200      60E5F44B 
 200      FC72D2C6 
 200      30D7CD42 
 200      4C39DDEF 
 201 049e B1B00A65 		.ascii	"\261\260\012e\317\037_LC=[!\013\035T\375\262\\\305\020"
 201      CF1F5F4C 
 201      433D5B21 
 201      0B1D54FD 
 201      B25CC510 
 202 04b2 98ED7FAB 		.ascii	"\230\355\177\253\245\341\036\213_Ta\275\206a\231\034"
 202      A5E11E8B 
 202      5F5461BD 
 202      8661991C 
 203 04c2 6C241A76 		.ascii	"l$\032v]\017,\301\321m4\032v\3130\214\217\314\337\033"
 203      5D0F2CC1 
 203      D16D341A 
 203      76CB308C 
 203      8FCCDF1B 
 204 04d6 86A9EFDF 		.ascii	"\206\251\357\337c`\011\216m-\275Q\221\375\255'\262\004"
 204      6360098E 
 204      6D2DBD51 
 204      91FDAD27 
 204      B204
 205 04e8 87B6ADD1 		.ascii	"\207\266\255\321\260\373z`\361\216l\361\256\350R\023"
 205      B0FB7A60 
 205      F18E6CF1 
 205      AEE85213 
 206 04f8 E9FB027B 		.ascii	"\351\373\002{\225\327\013\354U\376\000\365&\324~\324"
 206      95D70BEC 
 206      55FE00F5 
 206      26D47ED4 
 207 0508 2DA8B7A0 		.ascii	"-\250\267\240\336&h\277\350k5Bc\336\266G^Y\222\235\225"
 207      DE2668BF 
ARM GAS  /var/folders/c6/c789hm653lg9vtl73krp73tm0000gn/T//cctpXYFN.s 			page 16


 207      E86B3542 
 207      63DEB647 
 207      5E59929D 
 208 051d 6595FF55 		.ascii	"e\225\377U\327Y\313E\257\265\246\272\326Wgu\225,\316"
 208      D759CB45 
 208      AFB5A6BA 
 208      D6576775 
 208      952CCE
 209 0530 B5C97A61 		.ascii	"\265\311za^C\003\353q{\275eY\245\304\2424\335\025U\025"
 209      5E4303EB 
 209      717BBD65 
 209      59A5C4A2 
 209      34DD1555 
 210 0545 BE270A97 		.ascii	"\276'\012\227,\315\264\223\261u\276\312\\\233\273\324"
 210      2CCDB493 
 210      B175BECA 
 210      5C9BBBD4 
 211 0555 5B5DBA12 		.ascii	"[]\272\022\237\333\364Qe\263\262J1\253\234\244\302m"
 211      9FDBF451 
 211      65B3B24A 
 211      31AB9CA4 
 211      C26D
 212 0567 1198165B 		.ascii	"\021\230\026[\353\353j\255@\002+\273\307\353\025k\255"
 212      EBEB6AAD 
 212      40022BBB 
 212      C7EB156B 
 212      AD
 213 0578 EF9696CE 		.ascii	"\357\226\226\316\024k+gVUWyfz\304\345\025V[vN^\366\234"
 213      146B2B67 
 213      56555779 
 213      667AC4E5 
 213      15565B76 
 214 0590 EC5956FE 		.ascii	"\354YV\376qEU\251\267\276\314\003\334\262\212*\037@"
 214      714555A9 
 214      B7BECC03 
 214      DCB28A2A 
 214      1F40
 215 05a2 4DF57007 		.ascii	"M\365p\007\027\276\267\377\007j\245XZ^Q\345\261\272"
 215      17BEB7FF 
 215      076AA558 
 215      5A5E51E5 
 215      B1BA
 216 05b4 CB3C2BC4 		.ascii	"\313<+\304z\257\317\355[U\343\251\003/in\267\352g\214"
 216      7AAFCFED 
 216      5B55E3A9 
 216      032F696E 
 216      B7EA678C 
 217 05c8 6B559DCF 		.ascii	"kU\235\317Si\257\256\365\330Y6&d\225\211>1+\346\351"
 217      5369AFAE 
 217      F5D85936 
 217      26649589 
 217      3E312BE6 
 218 05dd 8BD1E9F1 		.ascii	"\213\321\351\3614\370\254\366\305\256E.H\214\234\221"
 218      34F8ACF6 
 218      C5AE452E 
 218      488C9C91 
 219 05ed 1579D9B3 		.ascii	"\025y\331\263\033\032\000\234\356\264\333\335%\340e"
ARM GAS  /var/folders/c6/c789hm653lg9vtl73krp73tm0000gn/T//cctpXYFN.s 			page 17


 219      1B1A009C 
 219      EEB4DBDD 
 219      25E065
 220 05fc 81678560 		.ascii	"\201g\205`w\246:\212\213\355\013\013\235\311L%\331\027"
 220      77A63A8A 
 220      8BED0B0B 
 220      9DC94C25 
 220      D917
 221 060e 394DF945 		.ascii	"9M\371E\363s\234\256\022l\330\324F.k\230\235\005\256"
 221      F3739CAE 
 221      126CD8D4 
 221      462E6B98 
 221      9D05AE
 222 0621 02E71B05 		.ascii	"\002\347\033\005\013\262M\371\016u\220C\036\024\356"
 222      0BB24DF9 
 222      0E759043 
 222      1E14EE
 223 0630 CB496580 		.ascii	"\313Ie\200\202%Nv\267)\367\\\270\207G\330R\2315\366"
 223      82254E76 
 223      B729F75C 
 223      B88747D8 
 223      529935F6 
 224 0644 387044B8 		.ascii	"8pD\270'\327\314l\213\035\354\031\263\016\267r\345\226"
 224      27D7CC6C 
 224      8B1DEC19 
 224      B30EB772 
 224      E596
 225 0656 3A2ECFCC 		.ascii	":.\317\314\010J\257C\035\247\366\316J\236\277\300\016"
 225      084AAF43 
 225      1DA7F6CE 
 225      4A9EBFC0 
 225      0E
 226 0667 7371451E 		.ascii	"sqE\036\275\234\342r\331\013\235i0\331E6\027\233j\272"
 226      BD9CE272 
 226      D90B9D69 
 226      30D94536 
 226      179B6ABA 
 227 067b E34DA79A 		.ascii	"\343M\247\232\206\311j\371-\027KW\326\327\270\313\252"
 227      86C96AF9 
 227      2D174B57 
 227      D6D7B8CB 
 227      AA
 228 068c 2BC58A2A 		.ascii	"+\305\212*,\272'\027\026\347\273\212\324\201I\371vg"
 228      2CBA2717 
 228      16E7BB8A 
 228      D48149F9 
 228      7667
 229 069e F26B056F 		.ascii	"\362k\005o9S_w\224\260\273\340r\246@\323\356|\002u\316"
 229      39535F77 
 229      94B0BBE0 
 229      72A640D3 
 229      EE7C0275 
 230 06b3 BFDC7398 		.ascii	"\277\334s\230|"
 230      7C
 231              		.text
 232              		.section	.gnu.lto_.symtab.c7027da08977551e,"",%progbits
 233 0000 68616C5F 		.ascii	"hal_lld_init\000\000\000\000\000\000\000\000\000\000"
ARM GAS  /var/folders/c6/c789hm653lg9vtl73krp73tm0000gn/T//cctpXYFN.s 			page 18


 233      6C6C645F 
 233      696E6974 
 233      00000000 
 233      00000000 
 234 0016 0000A100 		.ascii	"\000\000\241\000\000\000stm32_clock_init\000\000\000"
 234      00007374 
 234      6D33325F 
 234      636C6F63 
 234      6B5F696E 
 235 002f 00000000 		.ascii	"\000\000\000\000\000\000\000\000\000\246\000\000\000"
 235      00000000 
 235      00A60000 
 235      00
 236 003c 53797374 		.ascii	"SystemCoreClock\000\000\000\000\000\000\000\000\000"
 236      656D436F 
 236      7265436C 
 236      6F636B00 
 236      00000000 
 237 0054 000000AB 		.ascii	"\000\000\000\253\000\000\000dmaInit\000\000\002\000"
 237      00000064 
 237      6D61496E 
 237      69740000 
 237      0200
 238 0066 00000000 		.ascii	"\000\000\000\000\000\000\000\000\251\000\000\000"
 238      00000000 
 238      A9000000 
 239              		.text
 240              		.section	.gnu.lto_.opts,"",%progbits
 241 0000 272D6D63 		.ascii	"'-mcpu=cortex-m4' '-mno-thumb-interwork' '-mthumb' "
 241      70753D63 
 241      6F727465 
 241      782D6D34 
 241      2720272D 
 242 0033 272D6767 		.ascii	"'-ggdb' '-O2' '-fomit-frame-pointer' '-falign-funct"
 242      64622720 
 242      272D4F32 
 242      2720272D 
 242      666F6D69 
 243 0066 696F6E73 		.ascii	"ions=16' '-ffunction-sections' '-fdata-sections' '-"
 243      3D313627 
 243      20272D66 
 243      66756E63 
 243      74696F6E 
 244 0099 666E6F2D 		.ascii	"fno-common' '-flto'\000"
 244      636F6D6D 
 244      6F6E2720 
 244      272D666C 
 244      746F2700 
 245              		.text
 246              		.cfi_sections	.debug_frame
 247              		.section	.text.hal_lld_init,"ax",%progbits
 248              		.align	2
 249              		.p2align 4,,15
 250              		.global	hal_lld_init
 251              		.thumb
 252              		.thumb_func
 253              		.type	hal_lld_init, %function
ARM GAS  /var/folders/c6/c789hm653lg9vtl73krp73tm0000gn/T//cctpXYFN.s 			page 19


 254              	hal_lld_init:
 255              	.LFB261:
 256              		.file 1 "../../../os/hal/ports/STM32/STM32F4xx/hal_lld.c"
 257              		.loc 1 114 0
 258              		.cfi_startproc
 259              		@ args = 0, pretend = 0, frame = 0
 260              		@ frame_needed = 0, uses_anonymous_args = 0
 261              		@ link register save eliminated.
 262              		.loc 1 118 0
 263 0000 174B     		ldr	r3, .L7
 264              	.LBB4:
 265              	.LBB5:
 266              		.loc 1 57 0
 267 0002 1848     		ldr	r0, .L7+4
 268              	.LBE5:
 269              	.LBE4:
 270              		.loc 1 118 0
 271 0004 1A69     		ldr	r2, [r3, #16]
 272 0006 4FF0FF31 		mov	r1, #-1
 273 000a 0022     		movs	r2, #0
 274              		.loc 1 114 0
 275 000c 10B4     		push	{r4}
 276              		.cfi_def_cfa_offset 4
 277              		.cfi_offset 4, -4
 278              		.loc 1 118 0
 279 000e 1961     		str	r1, [r3, #16]
 280 0010 1A61     		str	r2, [r3, #16]
 281              		.loc 1 119 0
 282 0012 5C69     		ldr	r4, [r3, #20]
 283 0014 5961     		str	r1, [r3, #20]
 284 0016 5A61     		str	r2, [r3, #20]
 285              		.loc 1 120 0
 286 0018 1C6A     		ldr	r4, [r3, #32]
 287 001a 64F08054 		orn	r4, r4, #268435456
 288 001e 1C62     		str	r4, [r3, #32]
 289 0020 1A62     		str	r2, [r3, #32]
 290              		.loc 1 121 0
 291 0022 5C6A     		ldr	r4, [r3, #36]
 292 0024 5962     		str	r1, [r3, #36]
 293 0026 5A62     		str	r2, [r3, #36]
 294              		.loc 1 124 0
 295 0028 196C     		ldr	r1, [r3, #64]
 296 002a 41F08051 		orr	r1, r1, #268435456
 297 002e 1964     		str	r1, [r3, #64]
 298              	.LBB8:
 299              	.LBB6:
 300              		.loc 1 57 0
 301 0030 0168     		ldr	r1, [r0]
 302 0032 41F48071 		orr	r1, r1, #256
 303 0036 0160     		str	r1, [r0]
 304              		.loc 1 60 0
 305 0038 196F     		ldr	r1, [r3, #112]
 306 003a 01F44071 		and	r1, r1, #768
 307 003e B1F5007F 		cmp	r1, #512
 308 0042 03D0     		beq	.L2
 309              		.loc 1 62 0
 310 0044 4FF48031 		mov	r1, #65536
ARM GAS  /var/folders/c6/c789hm653lg9vtl73krp73tm0000gn/T//cctpXYFN.s 			page 20


 311 0048 1967     		str	r1, [r3, #112]
 312              		.loc 1 63 0
 313 004a 1A67     		str	r2, [r3, #112]
 314              	.L2:
 315              		.loc 1 97 0
 316 004c 054B     		ldr	r3, .L7+4
 317              	.LBE6:
 318              	.LBE8:
 319              		.loc 1 137 0
 320 004e 5DF8044B 		ldr	r4, [sp], #4
 321              	.LBB9:
 322              	.LBB7:
 323              		.loc 1 97 0
 324 0052 5A68     		ldr	r2, [r3, #4]
 325 0054 22F40072 		bic	r2, r2, #512
 326 0058 5A60     		str	r2, [r3, #4]
 327              	.LBE7:
 328              	.LBE9:
 329              		.loc 1 130 0
 330 005a FFF7FEBF 		b	dmaInit
 331              	.LVL0:
 332              	.L8:
 333 005e 00BF     		.align	2
 334              	.L7:
 335 0060 00380240 		.word	1073887232
 336 0064 00700040 		.word	1073770496
 337              		.cfi_endproc
 338              	.LFE261:
 339              		.size	hal_lld_init, .-hal_lld_init
 340 0068 AFF30080 		.section	.text.stm32_clock_init,"ax",%progbits
 340      AFF30080 
 341              		.align	2
 342              		.p2align 4,,15
 343              		.global	stm32_clock_init
 344              		.thumb
 345              		.thumb_func
 346              		.type	stm32_clock_init, %function
 347              	stm32_clock_init:
 348              	.LFB262:
 349              		.loc 1 146 0
 350              		.cfi_startproc
 351              		@ args = 0, pretend = 0, frame = 0
 352              		@ frame_needed = 0, uses_anonymous_args = 0
 353              		@ link register save eliminated.
 354              		.loc 1 150 0
 355 0000 2C49     		ldr	r1, .L24
 356              		.loc 1 154 0
 357 0002 2D4B     		ldr	r3, .L24+4
 358              		.loc 1 150 0
 359 0004 4FF08050 		mov	r0, #268435456
 360              		.loc 1 154 0
 361 0008 4FF44042 		mov	r2, #49152
 362              		.loc 1 150 0
 363 000c 0864     		str	r0, [r1, #64]
 364              		.loc 1 154 0
 365 000e 1A60     		str	r2, [r3]
 366              		.loc 1 161 0
ARM GAS  /var/folders/c6/c789hm653lg9vtl73krp73tm0000gn/T//cctpXYFN.s 			page 21


 367 0010 0B68     		ldr	r3, [r1]
 368 0012 43F00103 		orr	r3, r3, #1
 369 0016 0B60     		str	r3, [r1]
 370              	.L11:
 371              		.loc 1 162 0 discriminator 1
 372 0018 0B68     		ldr	r3, [r1]
 373 001a 264A     		ldr	r2, .L24
 374 001c 9807     		lsls	r0, r3, #30
 375 001e FBD5     		bpl	.L11
 376              		.loc 1 168 0
 377 0020 9368     		ldr	r3, [r2, #8]
 378 0022 23F00303 		bic	r3, r3, #3
 379 0026 9360     		str	r3, [r2, #8]
 380              		.loc 1 169 0
 381 0028 9368     		ldr	r3, [r2, #8]
 382 002a 9360     		str	r3, [r2, #8]
 383              		.loc 1 170 0
 384 002c 1146     		mov	r1, r2
 385              	.L13:
 386              		.loc 1 170 0 is_stmt 0 discriminator 1
 387 002e 8B68     		ldr	r3, [r1, #8]
 388 0030 204A     		ldr	r2, .L24
 389 0032 13F00C03 		ands	r3, r3, #12
 390 0036 FAD1     		bne	.L13
 391              		.loc 1 174 0 is_stmt 1
 392 0038 1168     		ldr	r1, [r2]
 393 003a 01F0F901 		and	r1, r1, #249
 394 003e 1160     		str	r1, [r2]
 395              		.loc 1 175 0
 396 0040 9360     		str	r3, [r2, #8]
 397              		.loc 1 184 0
 398 0042 1368     		ldr	r3, [r2]
 399 0044 43F48033 		orr	r3, r3, #65536
 400 0048 1360     		str	r3, [r2]
 401              	.L15:
 402              		.loc 1 186 0 discriminator 1
 403 004a 1368     		ldr	r3, [r2]
 404 004c 1949     		ldr	r1, .L24
 405 004e 9B03     		lsls	r3, r3, #14
 406 0050 FBD5     		bpl	.L15
 407              		.loc 1 192 0
 408 0052 4B6F     		ldr	r3, [r1, #116]
 409 0054 43F00103 		orr	r3, r3, #1
 410 0058 4B67     		str	r3, [r1, #116]
 411              	.L17:
 412              		.loc 1 193 0 discriminator 1
 413 005a 4B6F     		ldr	r3, [r1, #116]
 414 005c 154A     		ldr	r2, .L24
 415 005e 9807     		lsls	r0, r3, #30
 416 0060 FBD5     		bpl	.L17
 417              		.loc 1 199 0
 418 0062 164B     		ldr	r3, .L24+8
 419 0064 5360     		str	r3, [r2, #4]
 420              		.loc 1 201 0
 421 0066 1368     		ldr	r3, [r2]
 422              		.loc 1 205 0
 423 0068 1349     		ldr	r1, .L24+4
ARM GAS  /var/folders/c6/c789hm653lg9vtl73krp73tm0000gn/T//cctpXYFN.s 			page 22


 424              		.loc 1 201 0
 425 006a 43F08073 		orr	r3, r3, #16777216
 426 006e 1360     		str	r3, [r2]
 427              	.L19:
 428              		.loc 1 205 0 discriminator 1
 429 0070 4B68     		ldr	r3, [r1, #4]
 430 0072 5A04     		lsls	r2, r3, #17
 431 0074 FCD5     		bpl	.L19
 432              		.loc 1 221 0
 433 0076 0F49     		ldr	r1, .L24
 434              	.L21:
 435 0078 0B68     		ldr	r3, [r1]
 436 007a 0E4A     		ldr	r2, .L24
 437 007c 9B01     		lsls	r3, r3, #6
 438 007e FBD5     		bpl	.L21
 439              		.loc 1 260 0
 440 0080 0F4B     		ldr	r3, .L24+12
 441              		.loc 1 247 0
 442 0082 1049     		ldr	r1, .L24+16
 443 0084 9160     		str	r1, [r2, #8]
 444              		.loc 1 260 0
 445 0086 40F20571 		movw	r1, #1797
 446 008a 1960     		str	r1, [r3]
 447              		.loc 1 266 0
 448 008c 9368     		ldr	r3, [r2, #8]
 449 008e 43F00203 		orr	r3, r3, #2
 450 0092 9360     		str	r3, [r2, #8]
 451              		.loc 1 267 0
 452 0094 1146     		mov	r1, r2
 453              	.L23:
 454              		.loc 1 267 0 is_stmt 0 discriminator 1
 455 0096 8B68     		ldr	r3, [r1, #8]
 456 0098 064A     		ldr	r2, .L24
 457 009a 03F00C03 		and	r3, r3, #12
 458 009e 082B     		cmp	r3, #8
 459 00a0 F9D1     		bne	.L23
 460              		.loc 1 274 0 is_stmt 1
 461 00a2 536C     		ldr	r3, [r2, #68]
 462 00a4 43F48043 		orr	r3, r3, #16384
 463 00a8 5364     		str	r3, [r2, #68]
 464 00aa 536E     		ldr	r3, [r2, #100]
 465 00ac 43F48043 		orr	r3, r3, #16384
 466 00b0 5366     		str	r3, [r2, #100]
 467 00b2 7047     		bx	lr
 468              	.L25:
 469              		.align	2
 470              	.L24:
 471 00b4 00380240 		.word	1073887232
 472 00b8 00700040 		.word	1073770496
 473 00bc 0C544007 		.word	121656332
 474 00c0 003C0240 		.word	1073888256
 475 00c4 00940838 		.word	940086272
 476              		.cfi_endproc
 477              	.LFE262:
 478              		.size	stm32_clock_init, .-stm32_clock_init
 479              		.global	SystemCoreClock
 480 00c8 AFF30080 		.section	.data.SystemCoreClock,"aw",%progbits
ARM GAS  /var/folders/c6/c789hm653lg9vtl73krp73tm0000gn/T//cctpXYFN.s 			page 23


 480      AFF30080 
 481              		.align	2
 482              		.type	SystemCoreClock, %object
 483              		.size	SystemCoreClock, 4
 484              	SystemCoreClock:
 485 0000 007A030A 		.word	168000000
 486              		.text
 487              	.Letext0:
 488              		.file 2 "/usr/local/Cellar/gcc-arm-none-eabi/20140805/lib/gcc/arm-none-eabi/4.8.4/include/stddef.h
 489              		.file 3 "/usr/local/Cellar/gcc-arm-none-eabi/20140805/arm-none-eabi/include/machine/_default_types
 490              		.file 4 "/usr/local/Cellar/gcc-arm-none-eabi/20140805/arm-none-eabi/include/stdint.h"
 491              		.file 5 "../../../os/rt/ports/ARMCMx/compilers/GCC/chtypes.h"
 492              		.file 6 "../../../os/rt/include/chsystypes.h"
 493              		.file 7 "../../../os/rt/include/chschd.h"
 494              		.file 8 "../../../os/ext/CMSIS/ST/stm32f407xx.h"
 495              		.file 9 "../../../os/rt/ports/ARMCMx/chcore.h"
 496              		.file 10 "../../../os/rt/ports/ARMCMx/chcore_v7m.h"
 497              		.file 11 "../../../os/rt/include/chdebug.h"
 498              		.file 12 "../../../os/rt/include/chtm.h"
 499              		.file 13 "../../../os/rt/include/chstats.h"
 500              		.file 14 "../../../os/rt/include/chsem.h"
 501              		.file 15 "../../../os/rt/include/chmtx.h"
 502              		.file 16 "../../../os/ext/CMSIS/include/core_cm4.h"
 503              		.file 17 "../../../os/hal/ports/STM32/STM32F4xx/stm32_dma.h"
 504              		.section	.debug_info,"",%progbits
 505              	.Ldebug_info0:
 506 0000 820A0000 		.4byte	0xa82
 507 0004 0400     		.2byte	0x4
 508 0006 00000000 		.4byte	.Ldebug_abbrev0
 509 000a 04       		.byte	0x4
 510 000b 01       		.uleb128 0x1
 511 000c 00000000 		.4byte	.LASF166
 512 0010 01       		.byte	0x1
 513 0011 69030000 		.4byte	.LASF167
 514 0015 A5030000 		.4byte	.LASF168
 515 0019 20000000 		.4byte	.Ldebug_ranges0+0x20
 516 001d 00000000 		.4byte	0
 517 0021 00000000 		.4byte	.Ldebug_line0
 518 0025 02       		.uleb128 0x2
 519 0026 04       		.byte	0x4
 520 0027 05       		.byte	0x5
 521 0028 696E7400 		.ascii	"int\000"
 522 002c 03       		.uleb128 0x3
 523 002d FC000000 		.4byte	.LASF2
 524 0031 02       		.byte	0x2
 525 0032 D4       		.byte	0xd4
 526 0033 37000000 		.4byte	0x37
 527 0037 04       		.uleb128 0x4
 528 0038 04       		.byte	0x4
 529 0039 07       		.byte	0x7
 530 003a 32030000 		.4byte	.LASF0
 531 003e 04       		.uleb128 0x4
 532 003f 01       		.byte	0x1
 533 0040 06       		.byte	0x6
 534 0041 15020000 		.4byte	.LASF1
 535 0045 03       		.uleb128 0x3
 536 0046 20010000 		.4byte	.LASF3
ARM GAS  /var/folders/c6/c789hm653lg9vtl73krp73tm0000gn/T//cctpXYFN.s 			page 24


 537 004a 03       		.byte	0x3
 538 004b 1C       		.byte	0x1c
 539 004c 50000000 		.4byte	0x50
 540 0050 04       		.uleb128 0x4
 541 0051 01       		.byte	0x1
 542 0052 08       		.byte	0x8
 543 0053 FE050000 		.4byte	.LASF4
 544 0057 04       		.uleb128 0x4
 545 0058 02       		.byte	0x2
 546 0059 05       		.byte	0x5
 547 005a 16060000 		.4byte	.LASF5
 548 005e 04       		.uleb128 0x4
 549 005f 02       		.byte	0x2
 550 0060 07       		.byte	0x7
 551 0061 01040000 		.4byte	.LASF6
 552 0065 03       		.uleb128 0x3
 553 0066 AE040000 		.4byte	.LASF7
 554 006a 03       		.byte	0x3
 555 006b 37       		.byte	0x37
 556 006c 70000000 		.4byte	0x70
 557 0070 04       		.uleb128 0x4
 558 0071 04       		.byte	0x4
 559 0072 05       		.byte	0x5
 560 0073 77020000 		.4byte	.LASF8
 561 0077 03       		.uleb128 0x3
 562 0078 1E070000 		.4byte	.LASF9
 563 007c 03       		.byte	0x3
 564 007d 38       		.byte	0x38
 565 007e 82000000 		.4byte	0x82
 566 0082 04       		.uleb128 0x4
 567 0083 04       		.byte	0x4
 568 0084 07       		.byte	0x7
 569 0085 CB060000 		.4byte	.LASF10
 570 0089 04       		.uleb128 0x4
 571 008a 08       		.byte	0x8
 572 008b 05       		.byte	0x5
 573 008c 07020000 		.4byte	.LASF11
 574 0090 03       		.uleb128 0x3
 575 0091 7E050000 		.4byte	.LASF12
 576 0095 03       		.byte	0x3
 577 0096 4E       		.byte	0x4e
 578 0097 9B000000 		.4byte	0x9b
 579 009b 04       		.uleb128 0x4
 580 009c 08       		.byte	0x8
 581 009d 07       		.byte	0x7
 582 009e 7C010000 		.4byte	.LASF13
 583 00a2 03       		.uleb128 0x3
 584 00a3 B4070000 		.4byte	.LASF14
 585 00a7 04       		.byte	0x4
 586 00a8 2A       		.byte	0x2a
 587 00a9 45000000 		.4byte	0x45
 588 00ad 03       		.uleb128 0x3
 589 00ae F6050000 		.4byte	.LASF15
 590 00b2 04       		.byte	0x4
 591 00b3 41       		.byte	0x41
 592 00b4 65000000 		.4byte	0x65
 593 00b8 03       		.uleb128 0x3
ARM GAS  /var/folders/c6/c789hm653lg9vtl73krp73tm0000gn/T//cctpXYFN.s 			page 25


 594 00b9 92060000 		.4byte	.LASF16
 595 00bd 04       		.byte	0x4
 596 00be 42       		.byte	0x42
 597 00bf 77000000 		.4byte	0x77
 598 00c3 03       		.uleb128 0x3
 599 00c4 0A010000 		.4byte	.LASF17
 600 00c8 04       		.byte	0x4
 601 00c9 4E       		.byte	0x4e
 602 00ca 90000000 		.4byte	0x90
 603 00ce 05       		.uleb128 0x5
 604 00cf AD000000 		.4byte	0xad
 605 00d3 05       		.uleb128 0x5
 606 00d4 B8000000 		.4byte	0xb8
 607 00d8 03       		.uleb128 0x3
 608 00d9 6C070000 		.4byte	.LASF18
 609 00dd 05       		.byte	0x5
 610 00de 45       		.byte	0x45
 611 00df B8000000 		.4byte	0xb8
 612 00e3 03       		.uleb128 0x3
 613 00e4 ED010000 		.4byte	.LASF19
 614 00e8 05       		.byte	0x5
 615 00e9 46       		.byte	0x46
 616 00ea C3000000 		.4byte	0xc3
 617 00ee 03       		.uleb128 0x3
 618 00ef D7070000 		.4byte	.LASF20
 619 00f3 05       		.byte	0x5
 620 00f4 48       		.byte	0x48
 621 00f5 A2000000 		.4byte	0xa2
 622 00f9 03       		.uleb128 0x3
 623 00fa 93020000 		.4byte	.LASF21
 624 00fe 05       		.byte	0x5
 625 00ff 49       		.byte	0x49
 626 0100 A2000000 		.4byte	0xa2
 627 0104 03       		.uleb128 0x3
 628 0105 94050000 		.4byte	.LASF22
 629 0109 05       		.byte	0x5
 630 010a 4A       		.byte	0x4a
 631 010b A2000000 		.4byte	0xa2
 632 010f 03       		.uleb128 0x3
 633 0110 DF050000 		.4byte	.LASF23
 634 0114 05       		.byte	0x5
 635 0115 4C       		.byte	0x4c
 636 0116 B8000000 		.4byte	0xb8
 637 011a 03       		.uleb128 0x3
 638 011b 38040000 		.4byte	.LASF24
 639 011f 05       		.byte	0x5
 640 0120 4D       		.byte	0x4d
 641 0121 AD000000 		.4byte	0xad
 642 0125 03       		.uleb128 0x3
 643 0126 A2040000 		.4byte	.LASF25
 644 012a 05       		.byte	0x5
 645 012b 4F       		.byte	0x4f
 646 012c B8000000 		.4byte	0xb8
 647 0130 03       		.uleb128 0x3
 648 0131 21030000 		.4byte	.LASF26
 649 0135 05       		.byte	0x5
 650 0136 51       		.byte	0x51
ARM GAS  /var/folders/c6/c789hm653lg9vtl73krp73tm0000gn/T//cctpXYFN.s 			page 26


 651 0137 AD000000 		.4byte	0xad
 652 013b 03       		.uleb128 0x3
 653 013c 47040000 		.4byte	.LASF27
 654 0140 05       		.byte	0x5
 655 0141 52       		.byte	0x52
 656 0142 B8000000 		.4byte	0xb8
 657 0146 03       		.uleb128 0x3
 658 0147 00070000 		.4byte	.LASF28
 659 014b 06       		.byte	0x6
 660 014c 33       		.byte	0x33
 661 014d B8000000 		.4byte	0xb8
 662 0151 03       		.uleb128 0x3
 663 0152 EB060000 		.4byte	.LASF29
 664 0156 06       		.byte	0x6
 665 0157 3F       		.byte	0x3f
 666 0158 5C010000 		.4byte	0x15c
 667 015c 06       		.uleb128 0x6
 668 015d 23040000 		.4byte	.LASF51
 669 0161 60       		.byte	0x60
 670 0162 07       		.byte	0x7
 671 0163 C2       		.byte	0xc2
 672 0164 62020000 		.4byte	0x262
 673 0168 07       		.uleb128 0x7
 674 0169 40060000 		.4byte	.LASF30
 675 016d 07       		.byte	0x7
 676 016e C3       		.byte	0xc3
 677 016f 6D020000 		.4byte	0x26d
 678 0173 00       		.byte	0
 679 0174 07       		.uleb128 0x7
 680 0175 CE050000 		.4byte	.LASF31
 681 0179 07       		.byte	0x7
 682 017a C5       		.byte	0xc5
 683 017b 6D020000 		.4byte	0x26d
 684 017f 04       		.byte	0x4
 685 0180 07       		.uleb128 0x7
 686 0181 00020000 		.4byte	.LASF32
 687 0185 07       		.byte	0x7
 688 0186 C7       		.byte	0xc7
 689 0187 0F010000 		.4byte	0x10f
 690 018b 08       		.byte	0x8
 691 018c 07       		.uleb128 0x7
 692 018d 0F080000 		.4byte	.LASF33
 693 0191 07       		.byte	0x7
 694 0192 C8       		.byte	0xc8
 695 0193 1F070000 		.4byte	0x71f
 696 0197 0C       		.byte	0xc
 697 0198 07       		.uleb128 0x7
 698 0199 AA020000 		.4byte	.LASF34
 699 019d 07       		.byte	0x7
 700 019e CA       		.byte	0xca
 701 019f 6D020000 		.4byte	0x26d
 702 01a3 10       		.byte	0x10
 703 01a4 07       		.uleb128 0x7
 704 01a5 42050000 		.4byte	.LASF35
 705 01a9 07       		.byte	0x7
 706 01aa CB       		.byte	0xcb
 707 01ab 6D020000 		.4byte	0x26d
ARM GAS  /var/folders/c6/c789hm653lg9vtl73krp73tm0000gn/T//cctpXYFN.s 			page 27


 708 01af 14       		.byte	0x14
 709 01b0 07       		.uleb128 0x7
 710 01b1 C3070000 		.4byte	.LASF36
 711 01b5 07       		.byte	0x7
 712 01b6 D2       		.byte	0xd2
 713 01b7 C3090000 		.4byte	0x9c3
 714 01bb 18       		.byte	0x18
 715 01bc 07       		.uleb128 0x7
 716 01bd 27030000 		.4byte	.LASF37
 717 01c1 07       		.byte	0x7
 718 01c2 D8       		.byte	0xd8
 719 01c3 D5090000 		.4byte	0x9d5
 720 01c7 1C       		.byte	0x1c
 721 01c8 07       		.uleb128 0x7
 722 01c9 20060000 		.4byte	.LASF38
 723 01cd 07       		.byte	0x7
 724 01ce DD       		.byte	0xdd
 725 01cf F9000000 		.4byte	0xf9
 726 01d3 20       		.byte	0x20
 727 01d4 07       		.uleb128 0x7
 728 01d5 47060000 		.4byte	.LASF39
 729 01d9 07       		.byte	0x7
 730 01da E1       		.byte	0xe1
 731 01db EE000000 		.4byte	0xee
 732 01df 21       		.byte	0x21
 733 01e0 07       		.uleb128 0x7
 734 01e1 9A070000 		.4byte	.LASF40
 735 01e5 07       		.byte	0x7
 736 01e6 E6       		.byte	0xe6
 737 01e7 04010000 		.4byte	0x104
 738 01eb 22       		.byte	0x22
 739 01ec 08       		.uleb128 0x8
 740 01ed 705F7500 		.ascii	"p_u\000"
 741 01f1 07       		.byte	0x7
 742 01f2 3101     		.2byte	0x131
 743 01f4 FE080000 		.4byte	0x8fe
 744 01f8 24       		.byte	0x24
 745 01f9 09       		.uleb128 0x9
 746 01fa E2040000 		.4byte	.LASF41
 747 01fe 07       		.byte	0x7
 748 01ff 3601     		.2byte	0x136
 749 0201 73020000 		.4byte	0x273
 750 0205 28       		.byte	0x28
 751 0206 09       		.uleb128 0x9
 752 0207 5E030000 		.4byte	.LASF42
 753 020b 07       		.byte	0x7
 754 020c 3C01     		.2byte	0x13c
 755 020e 97020000 		.4byte	0x297
 756 0212 2C       		.byte	0x2c
 757 0213 09       		.uleb128 0x9
 758 0214 EC070000 		.4byte	.LASF43
 759 0218 07       		.byte	0x7
 760 0219 4001     		.2byte	0x140
 761 021b 1A010000 		.4byte	0x11a
 762 021f 34       		.byte	0x34
 763 0220 09       		.uleb128 0x9
 764 0221 7D060000 		.4byte	.LASF44
ARM GAS  /var/folders/c6/c789hm653lg9vtl73krp73tm0000gn/T//cctpXYFN.s 			page 28


 765 0225 07       		.byte	0x7
 766 0226 4601     		.2byte	0x146
 767 0228 25010000 		.4byte	0x125
 768 022c 38       		.byte	0x38
 769 022d 09       		.uleb128 0x9
 770 022e 0C060000 		.4byte	.LASF45
 771 0232 07       		.byte	0x7
 772 0233 4D01     		.2byte	0x14d
 773 0235 BD090000 		.4byte	0x9bd
 774 0239 3C       		.byte	0x3c
 775 023a 09       		.uleb128 0x9
 776 023b 0A070000 		.4byte	.LASF46
 777 023f 07       		.byte	0x7
 778 0240 5101     		.2byte	0x151
 779 0242 0F010000 		.4byte	0x10f
 780 0246 40       		.byte	0x40
 781 0247 09       		.uleb128 0x9
 782 0248 38020000 		.4byte	.LASF47
 783 024c 07       		.byte	0x7
 784 024d 5801     		.2byte	0x158
 785 024f 4A030000 		.4byte	0x34a
 786 0253 44       		.byte	0x44
 787 0254 09       		.uleb128 0x9
 788 0255 4F060000 		.4byte	.LASF48
 789 0259 07       		.byte	0x7
 790 025a 5E01     		.2byte	0x15e
 791 025c AF080000 		.4byte	0x8af
 792 0260 48       		.byte	0x48
 793 0261 00       		.byte	0
 794 0262 03       		.uleb128 0x3
 795 0263 F5040000 		.4byte	.LASF49
 796 0267 06       		.byte	0x6
 797 0268 44       		.byte	0x44
 798 0269 6D020000 		.4byte	0x26d
 799 026d 0A       		.uleb128 0xa
 800 026e 04       		.byte	0x4
 801 026f 51010000 		.4byte	0x151
 802 0273 03       		.uleb128 0x3
 803 0274 C3040000 		.4byte	.LASF50
 804 0278 06       		.byte	0x6
 805 0279 49       		.byte	0x49
 806 027a 7E020000 		.4byte	0x27e
 807 027e 06       		.uleb128 0x6
 808 027f B3060000 		.4byte	.LASF52
 809 0283 04       		.byte	0x4
 810 0284 07       		.byte	0x7
 811 0285 B0       		.byte	0xb0
 812 0286 97020000 		.4byte	0x297
 813 028a 07       		.uleb128 0x7
 814 028b 40060000 		.4byte	.LASF30
 815 028f 07       		.byte	0x7
 816 0290 B1       		.byte	0xb1
 817 0291 6D020000 		.4byte	0x26d
 818 0295 00       		.byte	0
 819 0296 00       		.byte	0
 820 0297 03       		.uleb128 0x3
 821 0298 81070000 		.4byte	.LASF53
ARM GAS  /var/folders/c6/c789hm653lg9vtl73krp73tm0000gn/T//cctpXYFN.s 			page 29


 822 029c 06       		.byte	0x6
 823 029d 50       		.byte	0x50
 824 029e A2020000 		.4byte	0x2a2
 825 02a2 06       		.uleb128 0x6
 826 02a3 36010000 		.4byte	.LASF54
 827 02a7 08       		.byte	0x8
 828 02a8 07       		.byte	0x7
 829 02a9 B7       		.byte	0xb7
 830 02aa C7020000 		.4byte	0x2c7
 831 02ae 07       		.uleb128 0x7
 832 02af 40060000 		.4byte	.LASF30
 833 02b3 07       		.byte	0x7
 834 02b4 B8       		.byte	0xb8
 835 02b5 6D020000 		.4byte	0x26d
 836 02b9 00       		.byte	0
 837 02ba 07       		.uleb128 0x7
 838 02bb CE050000 		.4byte	.LASF31
 839 02bf 07       		.byte	0x7
 840 02c0 B9       		.byte	0xb9
 841 02c1 6D020000 		.4byte	0x26d
 842 02c5 04       		.byte	0x4
 843 02c6 00       		.byte	0
 844 02c7 03       		.uleb128 0x3
 845 02c8 E7000000 		.4byte	.LASF55
 846 02cc 06       		.byte	0x6
 847 02cd 57       		.byte	0x57
 848 02ce D2020000 		.4byte	0x2d2
 849 02d2 0B       		.uleb128 0xb
 850 02d3 94040000 		.4byte	.LASF56
 851 02d7 1C       		.byte	0x1c
 852 02d8 07       		.byte	0x7
 853 02d9 9001     		.2byte	0x190
 854 02db 2E030000 		.4byte	0x32e
 855 02df 09       		.uleb128 0x9
 856 02e0 A2060000 		.4byte	.LASF57
 857 02e4 07       		.byte	0x7
 858 02e5 9101     		.2byte	0x191
 859 02e7 97020000 		.4byte	0x297
 860 02eb 00       		.byte	0
 861 02ec 09       		.uleb128 0x9
 862 02ed 32060000 		.4byte	.LASF58
 863 02f1 07       		.byte	0x7
 864 02f2 9201     		.2byte	0x192
 865 02f4 0F010000 		.4byte	0x10f
 866 02f8 08       		.byte	0x8
 867 02f9 09       		.uleb128 0x9
 868 02fa 4A050000 		.4byte	.LASF59
 869 02fe 07       		.byte	0x7
 870 02ff 9401     		.2byte	0x194
 871 0301 1F070000 		.4byte	0x71f
 872 0305 0C       		.byte	0xc
 873 0306 09       		.uleb128 0x9
 874 0307 C2020000 		.4byte	.LASF60
 875 030b 07       		.byte	0x7
 876 030c 9701     		.2byte	0x197
 877 030e 6D020000 		.4byte	0x26d
 878 0312 10       		.byte	0x10
ARM GAS  /var/folders/c6/c789hm653lg9vtl73krp73tm0000gn/T//cctpXYFN.s 			page 30


 879 0313 09       		.uleb128 0x9
 880 0314 57070000 		.4byte	.LASF61
 881 0318 07       		.byte	0x7
 882 0319 9801     		.2byte	0x198
 883 031b 6D020000 		.4byte	0x26d
 884 031f 14       		.byte	0x14
 885 0320 09       		.uleb128 0x9
 886 0321 6B050000 		.4byte	.LASF62
 887 0325 07       		.byte	0x7
 888 0326 9B01     		.2byte	0x19b
 889 0328 6D020000 		.4byte	0x26d
 890 032c 18       		.byte	0x18
 891 032d 00       		.byte	0
 892 032e 03       		.uleb128 0x3
 893 032f 15070000 		.4byte	.LASF63
 894 0333 06       		.byte	0x6
 895 0334 5C       		.byte	0x5c
 896 0335 39030000 		.4byte	0x339
 897 0339 0A       		.uleb128 0xa
 898 033a 04       		.byte	0x4
 899 033b 3F030000 		.4byte	0x33f
 900 033f 0C       		.uleb128 0xc
 901 0340 4A030000 		.4byte	0x34a
 902 0344 0D       		.uleb128 0xd
 903 0345 4A030000 		.4byte	0x34a
 904 0349 00       		.byte	0
 905 034a 0E       		.uleb128 0xe
 906 034b 04       		.byte	0x4
 907 034c 03       		.uleb128 0x3
 908 034d D2040000 		.4byte	.LASF64
 909 0351 06       		.byte	0x6
 910 0352 61       		.byte	0x61
 911 0353 57030000 		.4byte	0x357
 912 0357 0B       		.uleb128 0xb
 913 0358 5F060000 		.4byte	.LASF65
 914 035c 14       		.byte	0x14
 915 035d 07       		.byte	0x7
 916 035e 6B01     		.2byte	0x16b
 917 0360 A6030000 		.4byte	0x3a6
 918 0364 09       		.uleb128 0x9
 919 0365 3F030000 		.4byte	.LASF66
 920 0369 07       		.byte	0x7
 921 036a 6C01     		.2byte	0x16c
 922 036c DB090000 		.4byte	0x9db
 923 0370 00       		.byte	0
 924 0371 09       		.uleb128 0x9
 925 0372 D3020000 		.4byte	.LASF67
 926 0376 07       		.byte	0x7
 927 0377 6D01     		.2byte	0x16d
 928 0379 DB090000 		.4byte	0x9db
 929 037d 04       		.byte	0x4
 930 037e 09       		.uleb128 0x9
 931 037f AA060000 		.4byte	.LASF68
 932 0383 07       		.byte	0x7
 933 0384 6E01     		.2byte	0x16e
 934 0386 46010000 		.4byte	0x146
 935 038a 08       		.byte	0x8
ARM GAS  /var/folders/c6/c789hm653lg9vtl73krp73tm0000gn/T//cctpXYFN.s 			page 31


 936 038b 09       		.uleb128 0x9
 937 038c 15080000 		.4byte	.LASF69
 938 0390 07       		.byte	0x7
 939 0391 6F01     		.2byte	0x16f
 940 0393 2E030000 		.4byte	0x32e
 941 0397 0C       		.byte	0xc
 942 0398 09       		.uleb128 0x9
 943 0399 74070000 		.4byte	.LASF70
 944 039d 07       		.byte	0x7
 945 039e 7101     		.2byte	0x171
 946 03a0 4A030000 		.4byte	0x34a
 947 03a4 10       		.byte	0x10
 948 03a5 00       		.byte	0
 949 03a6 03       		.uleb128 0x3
 950 03a7 CA010000 		.4byte	.LASF71
 951 03ab 06       		.byte	0x6
 952 03ac 66       		.byte	0x66
 953 03ad B1030000 		.4byte	0x3b1
 954 03b1 0B       		.uleb128 0xb
 955 03b2 08050000 		.4byte	.LASF72
 956 03b6 10       		.byte	0x10
 957 03b7 07       		.byte	0x7
 958 03b8 7B01     		.2byte	0x17b
 959 03ba F3030000 		.4byte	0x3f3
 960 03be 09       		.uleb128 0x9
 961 03bf 3F030000 		.4byte	.LASF66
 962 03c3 07       		.byte	0x7
 963 03c4 7C01     		.2byte	0x17c
 964 03c6 DB090000 		.4byte	0x9db
 965 03ca 00       		.byte	0
 966 03cb 09       		.uleb128 0x9
 967 03cc D3020000 		.4byte	.LASF67
 968 03d0 07       		.byte	0x7
 969 03d1 7E01     		.2byte	0x17e
 970 03d3 DB090000 		.4byte	0x9db
 971 03d7 04       		.byte	0x4
 972 03d8 09       		.uleb128 0x9
 973 03d9 AA060000 		.4byte	.LASF68
 974 03dd 07       		.byte	0x7
 975 03de 8001     		.2byte	0x180
 976 03e0 46010000 		.4byte	0x146
 977 03e4 08       		.byte	0x8
 978 03e5 09       		.uleb128 0x9
 979 03e6 36050000 		.4byte	.LASF73
 980 03ea 07       		.byte	0x7
 981 03eb 8801     		.2byte	0x188
 982 03ed 46010000 		.4byte	0x146
 983 03f1 0C       		.byte	0xc
 984 03f2 00       		.byte	0
 985 03f3 03       		.uleb128 0x3
 986 03f4 47010000 		.4byte	.LASF74
 987 03f8 06       		.byte	0x6
 988 03f9 6B       		.byte	0x6b
 989 03fa FE030000 		.4byte	0x3fe
 990 03fe 0F       		.uleb128 0xf
 991 03ff E0020000 		.4byte	.LASF75
 992 0403 1404     		.2byte	0x414
ARM GAS  /var/folders/c6/c789hm653lg9vtl73krp73tm0000gn/T//cctpXYFN.s 			page 32


 993 0405 07       		.byte	0x7
 994 0406 A201     		.2byte	0x1a2
 995 0408 41040000 		.4byte	0x441
 996 040c 09       		.uleb128 0x9
 997 040d 2E070000 		.4byte	.LASF76
 998 0411 07       		.byte	0x7
 999 0412 AA01     		.2byte	0x1aa
 1000 0414 E1090000 		.4byte	0x9e1
 1001 0418 00       		.byte	0
 1002 0419 09       		.uleb128 0x9
 1003 041a A1070000 		.4byte	.LASF77
 1004 041e 07       		.byte	0x7
 1005 041f AF01     		.2byte	0x1af
 1006 0421 30010000 		.4byte	0x130
 1007 0425 04       		.byte	0x4
 1008 0426 09       		.uleb128 0x9
 1009 0427 09030000 		.4byte	.LASF78
 1010 042b 07       		.byte	0x7
 1011 042c B301     		.2byte	0x1b3
 1012 042e 30010000 		.4byte	0x130
 1013 0432 08       		.byte	0x8
 1014 0433 09       		.uleb128 0x9
 1015 0434 DF070000 		.4byte	.LASF79
 1016 0438 07       		.byte	0x7
 1017 0439 B901     		.2byte	0x1b9
 1018 043b 41080000 		.4byte	0x841
 1019 043f 0C       		.byte	0xc
 1020 0440 00       		.byte	0
 1021 0441 03       		.uleb128 0x3
 1022 0442 69040000 		.4byte	.LASF80
 1023 0446 06       		.byte	0x6
 1024 0447 70       		.byte	0x70
 1025 0448 4C040000 		.4byte	0x44c
 1026 044c 0F       		.uleb128 0xf
 1027 044d 6D020000 		.4byte	.LASF81
 1028 0451 D805     		.2byte	0x5d8
 1029 0453 07       		.byte	0x7
 1030 0454 C201     		.2byte	0x1c2
 1031 0456 B9040000 		.4byte	0x4b9
 1032 045a 09       		.uleb128 0x9
 1033 045b AE070000 		.4byte	.LASF82
 1034 045f 07       		.byte	0x7
 1035 0460 C601     		.2byte	0x1c6
 1036 0462 C7020000 		.4byte	0x2c7
 1037 0466 00       		.byte	0
 1038 0467 09       		.uleb128 0x9
 1039 0468 48020000 		.4byte	.LASF83
 1040 046c 07       		.byte	0x7
 1041 046d CA01     		.2byte	0x1ca
 1042 046f A6030000 		.4byte	0x3a6
 1043 0473 1C       		.byte	0x1c
 1044 0474 08       		.uleb128 0x8
 1045 0475 64626700 		.ascii	"dbg\000"
 1046 0479 07       		.byte	0x7
 1047 047a CE01     		.2byte	0x1ce
 1048 047c F3030000 		.4byte	0x3f3
 1049 0480 2C       		.byte	0x2c
ARM GAS  /var/folders/c6/c789hm653lg9vtl73krp73tm0000gn/T//cctpXYFN.s 			page 33


 1050 0481 10       		.uleb128 0x10
 1051 0482 BF010000 		.4byte	.LASF84
 1052 0486 07       		.byte	0x7
 1053 0487 D201     		.2byte	0x1d2
 1054 0489 51010000 		.4byte	0x151
 1055 048d 4004     		.2byte	0x440
 1056 048f 11       		.uleb128 0x11
 1057 0490 746D00   		.ascii	"tm\000"
 1058 0493 07       		.byte	0x7
 1059 0494 D701     		.2byte	0x1d7
 1060 0496 61080000 		.4byte	0x861
 1061 049a A004     		.2byte	0x4a0
 1062 049c 10       		.uleb128 0x10
 1063 049d 13010000 		.4byte	.LASF85
 1064 04a1 07       		.byte	0x7
 1065 04a2 DD01     		.2byte	0x1dd
 1066 04a4 F3080000 		.4byte	0x8f3
 1067 04a8 A804     		.2byte	0x4a8
 1068 04aa 10       		.uleb128 0x10
 1069 04ab 12030000 		.4byte	.LASF86
 1070 04af 07       		.byte	0x7
 1071 04b0 E301     		.2byte	0x1e3
 1072 04b2 E6090000 		.4byte	0x9e6
 1073 04b6 E004     		.2byte	0x4e0
 1074 04b8 00       		.byte	0
 1075 04b9 04       		.uleb128 0x4
 1076 04ba 04       		.byte	0x4
 1077 04bb 07       		.byte	0x7
 1078 04bc EC040000 		.4byte	.LASF87
 1079 04c0 12       		.uleb128 0x12
 1080 04c1 B8000000 		.4byte	0xb8
 1081 04c5 D0040000 		.4byte	0x4d0
 1082 04c9 13       		.uleb128 0x13
 1083 04ca B9040000 		.4byte	0x4b9
 1084 04ce 01       		.byte	0x1
 1085 04cf 00       		.byte	0
 1086 04d0 14       		.uleb128 0x14
 1087 04d1 1C       		.byte	0x1c
 1088 04d2 08       		.byte	0x8
 1089 04d3 DA01     		.2byte	0x1da
 1090 04d5 33050000 		.4byte	0x533
 1091 04d9 08       		.uleb128 0x8
 1092 04da 41435200 		.ascii	"ACR\000"
 1093 04de 08       		.byte	0x8
 1094 04df DC01     		.2byte	0x1dc
 1095 04e1 D3000000 		.4byte	0xd3
 1096 04e5 00       		.byte	0
 1097 04e6 09       		.uleb128 0x9
 1098 04e7 DB020000 		.4byte	.LASF88
 1099 04eb 08       		.byte	0x8
 1100 04ec DD01     		.2byte	0x1dd
 1101 04ee D3000000 		.4byte	0xd3
 1102 04f2 04       		.byte	0x4
 1103 04f3 09       		.uleb128 0x9
 1104 04f4 A2020000 		.4byte	.LASF89
 1105 04f8 08       		.byte	0x8
 1106 04f9 DE01     		.2byte	0x1de
ARM GAS  /var/folders/c6/c789hm653lg9vtl73krp73tm0000gn/T//cctpXYFN.s 			page 34


 1107 04fb D3000000 		.4byte	0xd3
 1108 04ff 08       		.byte	0x8
 1109 0500 08       		.uleb128 0x8
 1110 0501 535200   		.ascii	"SR\000"
 1111 0504 08       		.byte	0x8
 1112 0505 DF01     		.2byte	0x1df
 1113 0507 D3000000 		.4byte	0xd3
 1114 050b 0C       		.byte	0xc
 1115 050c 08       		.uleb128 0x8
 1116 050d 435200   		.ascii	"CR\000"
 1117 0510 08       		.byte	0x8
 1118 0511 E001     		.2byte	0x1e0
 1119 0513 D3000000 		.4byte	0xd3
 1120 0517 10       		.byte	0x10
 1121 0518 09       		.uleb128 0x9
 1122 0519 56010000 		.4byte	.LASF90
 1123 051d 08       		.byte	0x8
 1124 051e E101     		.2byte	0x1e1
 1125 0520 D3000000 		.4byte	0xd3
 1126 0524 14       		.byte	0x14
 1127 0525 09       		.uleb128 0x9
 1128 0526 62010000 		.4byte	.LASF91
 1129 052a 08       		.byte	0x8
 1130 052b E201     		.2byte	0x1e2
 1131 052d D3000000 		.4byte	0xd3
 1132 0531 18       		.byte	0x18
 1133 0532 00       		.byte	0
 1134 0533 15       		.uleb128 0x15
 1135 0534 2A020000 		.4byte	.LASF92
 1136 0538 08       		.byte	0x8
 1137 0539 E301     		.2byte	0x1e3
 1138 053b D0040000 		.4byte	0x4d0
 1139 053f 14       		.uleb128 0x14
 1140 0540 08       		.byte	0x8
 1141 0541 08       		.byte	0x8
 1142 0542 5D02     		.2byte	0x25d
 1143 0544 62050000 		.4byte	0x562
 1144 0548 08       		.uleb128 0x8
 1145 0549 435200   		.ascii	"CR\000"
 1146 054c 08       		.byte	0x8
 1147 054d 5F02     		.2byte	0x25f
 1148 054f D3000000 		.4byte	0xd3
 1149 0553 00       		.byte	0
 1150 0554 08       		.uleb128 0x8
 1151 0555 43535200 		.ascii	"CSR\000"
 1152 0559 08       		.byte	0x8
 1153 055a 6002     		.2byte	0x260
 1154 055c D3000000 		.4byte	0xd3
 1155 0560 04       		.byte	0x4
 1156 0561 00       		.byte	0
 1157 0562 15       		.uleb128 0x15
 1158 0563 4F020000 		.4byte	.LASF93
 1159 0567 08       		.byte	0x8
 1160 0568 6102     		.2byte	0x261
 1161 056a 3F050000 		.4byte	0x53f
 1162 056e 14       		.uleb128 0x14
 1163 056f 88       		.byte	0x88
ARM GAS  /var/folders/c6/c789hm653lg9vtl73krp73tm0000gn/T//cctpXYFN.s 			page 35


 1164 0570 08       		.byte	0x8
 1165 0571 6702     		.2byte	0x267
 1166 0573 FD060000 		.4byte	0x6fd
 1167 0577 08       		.uleb128 0x8
 1168 0578 435200   		.ascii	"CR\000"
 1169 057b 08       		.byte	0x8
 1170 057c 6902     		.2byte	0x269
 1171 057e D3000000 		.4byte	0xd3
 1172 0582 00       		.byte	0
 1173 0583 09       		.uleb128 0x9
 1174 0584 B2020000 		.4byte	.LASF94
 1175 0588 08       		.byte	0x8
 1176 0589 6A02     		.2byte	0x26a
 1177 058b D3000000 		.4byte	0xd3
 1178 058f 04       		.byte	0x4
 1179 0590 09       		.uleb128 0x9
 1180 0591 D2070000 		.4byte	.LASF95
 1181 0595 08       		.byte	0x8
 1182 0596 6B02     		.2byte	0x26b
 1183 0598 D3000000 		.4byte	0xd3
 1184 059c 08       		.byte	0x8
 1185 059d 08       		.uleb128 0x8
 1186 059e 43495200 		.ascii	"CIR\000"
 1187 05a2 08       		.byte	0x8
 1188 05a3 6C02     		.2byte	0x26c
 1189 05a5 D3000000 		.4byte	0xd3
 1190 05a9 0C       		.byte	0xc
 1191 05aa 09       		.uleb128 0x9
 1192 05ab 21020000 		.4byte	.LASF96
 1193 05af 08       		.byte	0x8
 1194 05b0 6D02     		.2byte	0x26d
 1195 05b2 D3000000 		.4byte	0xd3
 1196 05b6 10       		.byte	0x10
 1197 05b7 09       		.uleb128 0x9
 1198 05b8 E2060000 		.4byte	.LASF97
 1199 05bc 08       		.byte	0x8
 1200 05bd 6E02     		.2byte	0x26e
 1201 05bf D3000000 		.4byte	0xd3
 1202 05c3 14       		.byte	0x14
 1203 05c4 09       		.uleb128 0x9
 1204 05c5 3E040000 		.4byte	.LASF98
 1205 05c9 08       		.byte	0x8
 1206 05ca 6F02     		.2byte	0x26f
 1207 05cc D3000000 		.4byte	0xd3
 1208 05d0 18       		.byte	0x18
 1209 05d1 09       		.uleb128 0x9
 1210 05d2 9C050000 		.4byte	.LASF99
 1211 05d6 08       		.byte	0x8
 1212 05d7 7002     		.2byte	0x270
 1213 05d9 B8000000 		.4byte	0xb8
 1214 05dd 1C       		.byte	0x1c
 1215 05de 09       		.uleb128 0x9
 1216 05df 75050000 		.4byte	.LASF100
 1217 05e3 08       		.byte	0x8
 1218 05e4 7102     		.2byte	0x271
 1219 05e6 D3000000 		.4byte	0xd3
 1220 05ea 20       		.byte	0x20
ARM GAS  /var/folders/c6/c789hm653lg9vtl73krp73tm0000gn/T//cctpXYFN.s 			page 36


 1221 05eb 09       		.uleb128 0x9
 1222 05ec 80020000 		.4byte	.LASF101
 1223 05f0 08       		.byte	0x8
 1224 05f1 7202     		.2byte	0x272
 1225 05f3 D3000000 		.4byte	0xd3
 1226 05f7 24       		.byte	0x24
 1227 05f8 09       		.uleb128 0x9
 1228 05f9 A6050000 		.4byte	.LASF102
 1229 05fd 08       		.byte	0x8
 1230 05fe 7302     		.2byte	0x273
 1231 0600 C0040000 		.4byte	0x4c0
 1232 0604 28       		.byte	0x28
 1233 0605 09       		.uleb128 0x9
 1234 0606 CA070000 		.4byte	.LASF103
 1235 060a 08       		.byte	0x8
 1236 060b 7402     		.2byte	0x274
 1237 060d D3000000 		.4byte	0xd3
 1238 0611 30       		.byte	0x30
 1239 0612 09       		.uleb128 0x9
 1240 0613 47070000 		.4byte	.LASF104
 1241 0617 08       		.byte	0x8
 1242 0618 7502     		.2byte	0x275
 1243 061a D3000000 		.4byte	0xd3
 1244 061e 34       		.byte	0x34
 1245 061f 09       		.uleb128 0x9
 1246 0620 2E050000 		.4byte	.LASF105
 1247 0624 08       		.byte	0x8
 1248 0625 7602     		.2byte	0x276
 1249 0627 D3000000 		.4byte	0xd3
 1250 062b 38       		.byte	0x38
 1251 062c 09       		.uleb128 0x9
 1252 062d B0050000 		.4byte	.LASF106
 1253 0631 08       		.byte	0x8
 1254 0632 7702     		.2byte	0x277
 1255 0634 B8000000 		.4byte	0xb8
 1256 0638 3C       		.byte	0x3c
 1257 0639 09       		.uleb128 0x9
 1258 063a 3F070000 		.4byte	.LASF107
 1259 063e 08       		.byte	0x8
 1260 063f 7802     		.2byte	0x278
 1261 0641 D3000000 		.4byte	0xd3
 1262 0645 40       		.byte	0x40
 1263 0646 09       		.uleb128 0x9
 1264 0647 57060000 		.4byte	.LASF108
 1265 064b 08       		.byte	0x8
 1266 064c 7902     		.2byte	0x279
 1267 064e D3000000 		.4byte	0xd3
 1268 0652 44       		.byte	0x44
 1269 0653 09       		.uleb128 0x9
 1270 0654 BA050000 		.4byte	.LASF109
 1271 0658 08       		.byte	0x8
 1272 0659 7A02     		.2byte	0x27a
 1273 065b C0040000 		.4byte	0x4c0
 1274 065f 48       		.byte	0x48
 1275 0660 09       		.uleb128 0x9
 1276 0661 F6010000 		.4byte	.LASF110
 1277 0665 08       		.byte	0x8
ARM GAS  /var/folders/c6/c789hm653lg9vtl73krp73tm0000gn/T//cctpXYFN.s 			page 37


 1278 0666 7B02     		.2byte	0x27b
 1279 0668 D3000000 		.4byte	0xd3
 1280 066c 50       		.byte	0x50
 1281 066d 09       		.uleb128 0x9
 1282 066e 50050000 		.4byte	.LASF111
 1283 0672 08       		.byte	0x8
 1284 0673 7C02     		.2byte	0x27c
 1285 0675 D3000000 		.4byte	0xd3
 1286 0679 54       		.byte	0x54
 1287 067a 09       		.uleb128 0x9
 1288 067b 28060000 		.4byte	.LASF112
 1289 067f 08       		.byte	0x8
 1290 0680 7D02     		.2byte	0x27d
 1291 0682 D3000000 		.4byte	0xd3
 1292 0686 58       		.byte	0x58
 1293 0687 09       		.uleb128 0x9
 1294 0688 C4050000 		.4byte	.LASF113
 1295 068c 08       		.byte	0x8
 1296 068d 7E02     		.2byte	0x27e
 1297 068f B8000000 		.4byte	0xb8
 1298 0693 5C       		.byte	0x5c
 1299 0694 09       		.uleb128 0x9
 1300 0695 89020000 		.4byte	.LASF114
 1301 0699 08       		.byte	0x8
 1302 069a 7F02     		.2byte	0x27f
 1303 069c D3000000 		.4byte	0xd3
 1304 06a0 60       		.byte	0x60
 1305 06a1 09       		.uleb128 0x9
 1306 06a2 7F040000 		.4byte	.LASF115
 1307 06a6 08       		.byte	0x8
 1308 06a7 8002     		.2byte	0x280
 1309 06a9 D3000000 		.4byte	0xd3
 1310 06ad 64       		.byte	0x64
 1311 06ae 09       		.uleb128 0x9
 1312 06af 88060000 		.4byte	.LASF116
 1313 06b3 08       		.byte	0x8
 1314 06b4 8102     		.2byte	0x281
 1315 06b6 C0040000 		.4byte	0x4c0
 1316 06ba 68       		.byte	0x68
 1317 06bb 09       		.uleb128 0x9
 1318 06bc A9070000 		.4byte	.LASF117
 1319 06c0 08       		.byte	0x8
 1320 06c1 8202     		.2byte	0x282
 1321 06c3 D3000000 		.4byte	0xd3
 1322 06c7 70       		.byte	0x70
 1323 06c8 08       		.uleb128 0x8
 1324 06c9 43535200 		.ascii	"CSR\000"
 1325 06cd 08       		.byte	0x8
 1326 06ce 8302     		.2byte	0x283
 1327 06d0 D3000000 		.4byte	0xd3
 1328 06d4 74       		.byte	0x74
 1329 06d5 09       		.uleb128 0x9
 1330 06d6 D5050000 		.4byte	.LASF118
 1331 06da 08       		.byte	0x8
 1332 06db 8402     		.2byte	0x284
 1333 06dd C0040000 		.4byte	0x4c0
 1334 06e1 78       		.byte	0x78
ARM GAS  /var/folders/c6/c789hm653lg9vtl73krp73tm0000gn/T//cctpXYFN.s 			page 38


 1335 06e2 09       		.uleb128 0x9
 1336 06e3 7B070000 		.4byte	.LASF119
 1337 06e7 08       		.byte	0x8
 1338 06e8 8502     		.2byte	0x285
 1339 06ea D3000000 		.4byte	0xd3
 1340 06ee 80       		.byte	0x80
 1341 06ef 09       		.uleb128 0x9
 1342 06f0 2D040000 		.4byte	.LASF120
 1343 06f4 08       		.byte	0x8
 1344 06f5 8602     		.2byte	0x286
 1345 06f7 D3000000 		.4byte	0xd3
 1346 06fb 84       		.byte	0x84
 1347 06fc 00       		.byte	0
 1348 06fd 15       		.uleb128 0x15
 1349 06fe 5B020000 		.4byte	.LASF121
 1350 0702 08       		.byte	0x8
 1351 0703 8802     		.2byte	0x288
 1352 0705 6E050000 		.4byte	0x56e
 1353 0709 03       		.uleb128 0x3
 1354 070a CA020000 		.4byte	.LASF122
 1355 070e 09       		.byte	0x9
 1356 070f 65       		.byte	0x65
 1357 0710 4A030000 		.4byte	0x34a
 1358 0714 03       		.uleb128 0x3
 1359 0715 B8040000 		.4byte	.LASF123
 1360 0719 09       		.byte	0x9
 1361 071a 6D       		.byte	0x6d
 1362 071b C3000000 		.4byte	0xc3
 1363 071f 06       		.uleb128 0x6
 1364 0720 4F070000 		.4byte	.LASF124
 1365 0724 04       		.byte	0x4
 1366 0725 09       		.byte	0x9
 1367 0726 89       		.byte	0x89
 1368 0727 38070000 		.4byte	0x738
 1369 072b 16       		.uleb128 0x16
 1370 072c 72313300 		.ascii	"r13\000"
 1371 0730 09       		.byte	0x9
 1372 0731 8A       		.byte	0x8a
 1373 0732 B3070000 		.4byte	0x7b3
 1374 0736 00       		.byte	0
 1375 0737 00       		.byte	0
 1376 0738 06       		.uleb128 0x6
 1377 0739 2A010000 		.4byte	.LASF125
 1378 073d 24       		.byte	0x24
 1379 073e 0A       		.byte	0xa
 1380 073f F4       		.byte	0xf4
 1381 0740 B3070000 		.4byte	0x7b3
 1382 0744 08       		.uleb128 0x8
 1383 0745 723400   		.ascii	"r4\000"
 1384 0748 0A       		.byte	0xa
 1385 0749 0701     		.2byte	0x107
 1386 074b 09070000 		.4byte	0x709
 1387 074f 00       		.byte	0
 1388 0750 08       		.uleb128 0x8
 1389 0751 723500   		.ascii	"r5\000"
 1390 0754 0A       		.byte	0xa
 1391 0755 0801     		.2byte	0x108
ARM GAS  /var/folders/c6/c789hm653lg9vtl73krp73tm0000gn/T//cctpXYFN.s 			page 39


 1392 0757 09070000 		.4byte	0x709
 1393 075b 04       		.byte	0x4
 1394 075c 08       		.uleb128 0x8
 1395 075d 723600   		.ascii	"r6\000"
 1396 0760 0A       		.byte	0xa
 1397 0761 0901     		.2byte	0x109
 1398 0763 09070000 		.4byte	0x709
 1399 0767 08       		.byte	0x8
 1400 0768 08       		.uleb128 0x8
 1401 0769 723700   		.ascii	"r7\000"
 1402 076c 0A       		.byte	0xa
 1403 076d 0A01     		.2byte	0x10a
 1404 076f 09070000 		.4byte	0x709
 1405 0773 0C       		.byte	0xc
 1406 0774 08       		.uleb128 0x8
 1407 0775 723800   		.ascii	"r8\000"
 1408 0778 0A       		.byte	0xa
 1409 0779 0B01     		.2byte	0x10b
 1410 077b 09070000 		.4byte	0x709
 1411 077f 10       		.byte	0x10
 1412 0780 08       		.uleb128 0x8
 1413 0781 723900   		.ascii	"r9\000"
 1414 0784 0A       		.byte	0xa
 1415 0785 0C01     		.2byte	0x10c
 1416 0787 09070000 		.4byte	0x709
 1417 078b 14       		.byte	0x14
 1418 078c 08       		.uleb128 0x8
 1419 078d 72313000 		.ascii	"r10\000"
 1420 0791 0A       		.byte	0xa
 1421 0792 0D01     		.2byte	0x10d
 1422 0794 09070000 		.4byte	0x709
 1423 0798 18       		.byte	0x18
 1424 0799 08       		.uleb128 0x8
 1425 079a 72313100 		.ascii	"r11\000"
 1426 079e 0A       		.byte	0xa
 1427 079f 0E01     		.2byte	0x10e
 1428 07a1 09070000 		.4byte	0x709
 1429 07a5 1C       		.byte	0x1c
 1430 07a6 08       		.uleb128 0x8
 1431 07a7 6C7200   		.ascii	"lr\000"
 1432 07aa 0A       		.byte	0xa
 1433 07ab 0F01     		.2byte	0x10f
 1434 07ad 09070000 		.4byte	0x709
 1435 07b1 20       		.byte	0x20
 1436 07b2 00       		.byte	0
 1437 07b3 0A       		.uleb128 0xa
 1438 07b4 04       		.byte	0x4
 1439 07b5 38070000 		.4byte	0x738
 1440 07b9 17       		.uleb128 0x17
 1441 07ba 10       		.byte	0x10
 1442 07bb 0B       		.byte	0xb
 1443 07bc 51       		.byte	0x51
 1444 07bd F2070000 		.4byte	0x7f2
 1445 07c1 07       		.uleb128 0x7
 1446 07c2 F4000000 		.4byte	.LASF126
 1447 07c6 0B       		.byte	0xb
 1448 07c7 55       		.byte	0x55
ARM GAS  /var/folders/c6/c789hm653lg9vtl73krp73tm0000gn/T//cctpXYFN.s 			page 40


 1449 07c8 46010000 		.4byte	0x146
 1450 07cc 00       		.byte	0
 1451 07cd 07       		.uleb128 0x7
 1452 07ce 9C020000 		.4byte	.LASF127
 1453 07d2 0B       		.byte	0xb
 1454 07d3 59       		.byte	0x59
 1455 07d4 6D020000 		.4byte	0x26d
 1456 07d8 04       		.byte	0x4
 1457 07d9 07       		.uleb128 0x7
 1458 07da 05080000 		.4byte	.LASF128
 1459 07de 0B       		.byte	0xb
 1460 07df 5D       		.byte	0x5d
 1461 07e0 4A030000 		.4byte	0x34a
 1462 07e4 08       		.byte	0x8
 1463 07e5 07       		.uleb128 0x7
 1464 07e6 A5010000 		.4byte	.LASF129
 1465 07ea 0B       		.byte	0xb
 1466 07eb 61       		.byte	0x61
 1467 07ec A2000000 		.4byte	0xa2
 1468 07f0 0C       		.byte	0xc
 1469 07f1 00       		.byte	0
 1470 07f2 03       		.uleb128 0x3
 1471 07f3 1F050000 		.4byte	.LASF130
 1472 07f7 0B       		.byte	0xb
 1473 07f8 62       		.byte	0x62
 1474 07f9 B9070000 		.4byte	0x7b9
 1475 07fd 18       		.uleb128 0x18
 1476 07fe 0804     		.2byte	0x408
 1477 0800 0B       		.byte	0xb
 1478 0801 67       		.byte	0x67
 1479 0802 2B080000 		.4byte	0x82b
 1480 0806 07       		.uleb128 0x7
 1481 0807 BA020000 		.4byte	.LASF131
 1482 080b 0B       		.byte	0xb
 1483 080c 6B       		.byte	0x6b
 1484 080d 37000000 		.4byte	0x37
 1485 0811 00       		.byte	0
 1486 0812 07       		.uleb128 0x7
 1487 0813 E0000000 		.4byte	.LASF132
 1488 0817 0B       		.byte	0xb
 1489 0818 6F       		.byte	0x6f
 1490 0819 2B080000 		.4byte	0x82b
 1491 081d 04       		.byte	0x4
 1492 081e 07       		.uleb128 0x7
 1493 081f 75040000 		.4byte	.LASF133
 1494 0823 0B       		.byte	0xb
 1495 0824 73       		.byte	0x73
 1496 0825 31080000 		.4byte	0x831
 1497 0829 08       		.byte	0x8
 1498 082a 00       		.byte	0
 1499 082b 0A       		.uleb128 0xa
 1500 082c 04       		.byte	0x4
 1501 082d F2070000 		.4byte	0x7f2
 1502 0831 12       		.uleb128 0x12
 1503 0832 F2070000 		.4byte	0x7f2
 1504 0836 41080000 		.4byte	0x841
 1505 083a 13       		.uleb128 0x13
ARM GAS  /var/folders/c6/c789hm653lg9vtl73krp73tm0000gn/T//cctpXYFN.s 			page 41


 1506 083b B9040000 		.4byte	0x4b9
 1507 083f 3F       		.byte	0x3f
 1508 0840 00       		.byte	0
 1509 0841 03       		.uleb128 0x3
 1510 0842 93010000 		.4byte	.LASF134
 1511 0846 0B       		.byte	0xb
 1512 0847 74       		.byte	0x74
 1513 0848 FD070000 		.4byte	0x7fd
 1514 084c 17       		.uleb128 0x17
 1515 084d 04       		.byte	0x4
 1516 084e 0C       		.byte	0xc
 1517 084f 38       		.byte	0x38
 1518 0850 61080000 		.4byte	0x861
 1519 0854 07       		.uleb128 0x7
 1520 0855 38070000 		.4byte	.LASF135
 1521 0859 0C       		.byte	0xc
 1522 085a 3C       		.byte	0x3c
 1523 085b D8000000 		.4byte	0xd8
 1524 085f 00       		.byte	0
 1525 0860 00       		.byte	0
 1526 0861 03       		.uleb128 0x3
 1527 0862 5A050000 		.4byte	.LASF136
 1528 0866 0C       		.byte	0xc
 1529 0867 3D       		.byte	0x3d
 1530 0868 4C080000 		.4byte	0x84c
 1531 086c 17       		.uleb128 0x17
 1532 086d 18       		.byte	0x18
 1533 086e 0C       		.byte	0xc
 1534 086f 48       		.byte	0x48
 1535 0870 AF080000 		.4byte	0x8af
 1536 0874 07       		.uleb128 0x7
 1537 0875 F4060000 		.4byte	.LASF137
 1538 0879 0C       		.byte	0xc
 1539 087a 49       		.byte	0x49
 1540 087b D8000000 		.4byte	0xd8
 1541 087f 00       		.byte	0
 1542 0880 07       		.uleb128 0x7
 1543 0881 5C010000 		.4byte	.LASF138
 1544 0885 0C       		.byte	0xc
 1545 0886 4A       		.byte	0x4a
 1546 0887 D8000000 		.4byte	0xd8
 1547 088b 04       		.byte	0x4
 1548 088c 07       		.uleb128 0x7
 1549 088d 29070000 		.4byte	.LASF139
 1550 0891 0C       		.byte	0xc
 1551 0892 4B       		.byte	0x4b
 1552 0893 D8000000 		.4byte	0xd8
 1553 0897 08       		.byte	0x8
 1554 0898 16       		.uleb128 0x16
 1555 0899 6E00     		.ascii	"n\000"
 1556 089b 0C       		.byte	0xc
 1557 089c 4C       		.byte	0x4c
 1558 089d 3B010000 		.4byte	0x13b
 1559 08a1 0C       		.byte	0xc
 1560 08a2 07       		.uleb128 0x7
 1561 08a3 89050000 		.4byte	.LASF140
 1562 08a7 0C       		.byte	0xc
ARM GAS  /var/folders/c6/c789hm653lg9vtl73krp73tm0000gn/T//cctpXYFN.s 			page 42


 1563 08a8 4D       		.byte	0x4d
 1564 08a9 E3000000 		.4byte	0xe3
 1565 08ad 10       		.byte	0x10
 1566 08ae 00       		.byte	0
 1567 08af 03       		.uleb128 0x3
 1568 08b0 69010000 		.4byte	.LASF141
 1569 08b4 0C       		.byte	0xc
 1570 08b5 4E       		.byte	0x4e
 1571 08b6 6C080000 		.4byte	0x86c
 1572 08ba 17       		.uleb128 0x17
 1573 08bb 38       		.byte	0x38
 1574 08bc 0D       		.byte	0xd
 1575 08bd 38       		.byte	0x38
 1576 08be F3080000 		.4byte	0x8f3
 1577 08c2 07       		.uleb128 0x7
 1578 08c3 99030000 		.4byte	.LASF142
 1579 08c7 0D       		.byte	0xd
 1580 08c8 39       		.byte	0x39
 1581 08c9 3B010000 		.4byte	0x13b
 1582 08cd 00       		.byte	0
 1583 08ce 07       		.uleb128 0x7
 1584 08cf E7050000 		.4byte	.LASF143
 1585 08d3 0D       		.byte	0xd
 1586 08d4 3A       		.byte	0x3a
 1587 08d5 3B010000 		.4byte	0x13b
 1588 08d9 04       		.byte	0x4
 1589 08da 07       		.uleb128 0x7
 1590 08db F2070000 		.4byte	.LASF144
 1591 08df 0D       		.byte	0xd
 1592 08e0 3B       		.byte	0x3b
 1593 08e1 AF080000 		.4byte	0x8af
 1594 08e5 08       		.byte	0x8
 1595 08e6 07       		.uleb128 0x7
 1596 08e7 89040000 		.4byte	.LASF145
 1597 08eb 0D       		.byte	0xd
 1598 08ec 3D       		.byte	0x3d
 1599 08ed AF080000 		.4byte	0x8af
 1600 08f1 20       		.byte	0x20
 1601 08f2 00       		.byte	0
 1602 08f3 03       		.uleb128 0x3
 1603 08f4 14040000 		.4byte	.LASF146
 1604 08f8 0D       		.byte	0xd
 1605 08f9 3F       		.byte	0x3f
 1606 08fa BA080000 		.4byte	0x8ba
 1607 08fe 19       		.uleb128 0x19
 1608 08ff 04       		.byte	0x4
 1609 0900 07       		.byte	0x7
 1610 0901 FA       		.byte	0xfa
 1611 0902 5B090000 		.4byte	0x95b
 1612 0906 1A       		.uleb128 0x1a
 1613 0907 03010000 		.4byte	.LASF147
 1614 090b 07       		.byte	0x7
 1615 090c 0101     		.2byte	0x101
 1616 090e 1A010000 		.4byte	0x11a
 1617 0912 1A       		.uleb128 0x1a
 1618 0913 B6010000 		.4byte	.LASF148
 1619 0917 07       		.byte	0x7
ARM GAS  /var/folders/c6/c789hm653lg9vtl73krp73tm0000gn/T//cctpXYFN.s 			page 43


 1620 0918 0801     		.2byte	0x108
 1621 091a 1A010000 		.4byte	0x11a
 1622 091e 1A       		.uleb128 0x1a
 1623 091f BC070000 		.4byte	.LASF149
 1624 0923 07       		.byte	0x7
 1625 0924 0F01     		.2byte	0x10f
 1626 0926 4A030000 		.4byte	0x34a
 1627 092a 1A       		.uleb128 0x1a
 1628 092b 67020000 		.4byte	.LASF150
 1629 092f 07       		.byte	0x7
 1630 0930 1601     		.2byte	0x116
 1631 0932 5B090000 		.4byte	0x95b
 1632 0936 1A       		.uleb128 0x1a
 1633 0937 57030000 		.4byte	.LASF151
 1634 093b 07       		.byte	0x7
 1635 093c 1E01     		.2byte	0x11e
 1636 093e 86090000 		.4byte	0x986
 1637 0942 1A       		.uleb128 0x1a
 1638 0943 9B060000 		.4byte	.LASF152
 1639 0947 07       		.byte	0x7
 1640 0948 2701     		.2byte	0x127
 1641 094a BD090000 		.4byte	0x9bd
 1642 094e 1A       		.uleb128 0x1a
 1643 094f 39060000 		.4byte	.LASF153
 1644 0953 07       		.byte	0x7
 1645 0954 2F01     		.2byte	0x12f
 1646 0956 25010000 		.4byte	0x125
 1647 095a 00       		.byte	0
 1648 095b 0A       		.uleb128 0xa
 1649 095c 04       		.byte	0x4
 1650 095d 62020000 		.4byte	0x262
 1651 0961 06       		.uleb128 0x6
 1652 0962 70060000 		.4byte	.LASF154
 1653 0966 0C       		.byte	0xc
 1654 0967 0E       		.byte	0xe
 1655 0968 34       		.byte	0x34
 1656 0969 86090000 		.4byte	0x986
 1657 096d 07       		.uleb128 0x7
 1658 096e AE010000 		.4byte	.LASF155
 1659 0972 0E       		.byte	0xe
 1660 0973 35       		.byte	0x35
 1661 0974 97020000 		.4byte	0x297
 1662 0978 00       		.byte	0
 1663 0979 07       		.uleb128 0x7
 1664 097a 9F030000 		.4byte	.LASF156
 1665 097e 0E       		.byte	0xe
 1666 097f 37       		.byte	0x37
 1667 0980 30010000 		.4byte	0x130
 1668 0984 08       		.byte	0x8
 1669 0985 00       		.byte	0
 1670 0986 0A       		.uleb128 0xa
 1671 0987 04       		.byte	0x4
 1672 0988 61090000 		.4byte	0x961
 1673 098c 06       		.uleb128 0x6
 1674 098d 91070000 		.4byte	.LASF157
 1675 0991 10       		.byte	0x10
 1676 0992 0F       		.byte	0xf
ARM GAS  /var/folders/c6/c789hm653lg9vtl73krp73tm0000gn/T//cctpXYFN.s 			page 44


 1677 0993 39       		.byte	0x39
 1678 0994 BD090000 		.4byte	0x9bd
 1679 0998 07       		.uleb128 0x7
 1680 0999 40020000 		.4byte	.LASF158
 1681 099d 0F       		.byte	0xf
 1682 099e 3A       		.byte	0x3a
 1683 099f 97020000 		.4byte	0x297
 1684 09a3 00       		.byte	0
 1685 09a4 07       		.uleb128 0x7
 1686 09a5 FD070000 		.4byte	.LASF159
 1687 09a9 0F       		.byte	0xf
 1688 09aa 3C       		.byte	0x3c
 1689 09ab 6D020000 		.4byte	0x26d
 1690 09af 08       		.byte	0x8
 1691 09b0 07       		.uleb128 0x7
 1692 09b1 F9060000 		.4byte	.LASF160
 1693 09b5 0F       		.byte	0xf
 1694 09b6 3E       		.byte	0x3e
 1695 09b7 010A0000 		.4byte	0xa01
 1696 09bb 0C       		.byte	0xc
 1697 09bc 00       		.byte	0
 1698 09bd 0A       		.uleb128 0xa
 1699 09be 04       		.byte	0x4
 1700 09bf 8C090000 		.4byte	0x98c
 1701 09c3 0A       		.uleb128 0xa
 1702 09c4 04       		.byte	0x4
 1703 09c5 C9090000 		.4byte	0x9c9
 1704 09c9 1B       		.uleb128 0x1b
 1705 09ca CE090000 		.4byte	0x9ce
 1706 09ce 04       		.uleb128 0x4
 1707 09cf 01       		.byte	0x1
 1708 09d0 08       		.byte	0x8
 1709 09d1 DD060000 		.4byte	.LASF161
 1710 09d5 0A       		.uleb128 0xa
 1711 09d6 04       		.byte	0x4
 1712 09d7 14070000 		.4byte	0x714
 1713 09db 0A       		.uleb128 0xa
 1714 09dc 04       		.byte	0x4
 1715 09dd 4C030000 		.4byte	0x34c
 1716 09e1 05       		.uleb128 0x5
 1717 09e2 C3090000 		.4byte	0x9c3
 1718 09e6 12       		.uleb128 0x12
 1719 09e7 14070000 		.4byte	0x714
 1720 09eb F6090000 		.4byte	0x9f6
 1721 09ef 13       		.uleb128 0x13
 1722 09f0 B9040000 		.4byte	0x4b9
 1723 09f4 1E       		.byte	0x1e
 1724 09f5 00       		.byte	0
 1725 09f6 03       		.uleb128 0x3
 1726 09f7 01030000 		.4byte	.LASF162
 1727 09fb 0F       		.byte	0xf
 1728 09fc 34       		.byte	0x34
 1729 09fd 8C090000 		.4byte	0x98c
 1730 0a01 0A       		.uleb128 0xa
 1731 0a02 04       		.byte	0x4
 1732 0a03 F6090000 		.4byte	0x9f6
 1733 0a07 04       		.uleb128 0x4
ARM GAS  /var/folders/c6/c789hm653lg9vtl73krp73tm0000gn/T//cctpXYFN.s 			page 45


 1734 0a08 01       		.byte	0x1
 1735 0a09 02       		.byte	0x2
 1736 0a0a F0050000 		.4byte	.LASF163
 1737 0a0e 1C       		.uleb128 0x1c
 1738 0a0f 4E040000 		.4byte	.LASF169
 1739 0a13 01       		.byte	0x1
 1740 0a14 36       		.byte	0x36
 1741 0a15 01       		.byte	0x1
 1742 0a16 1D       		.uleb128 0x1d
 1743 0a17 5F070000 		.4byte	.LASF170
 1744 0a1b 01       		.byte	0x1
 1745 0a1c 72       		.byte	0x72
 1746 0a1d 00000000 		.4byte	.LFB261
 1747 0a21 68000000 		.4byte	.LFE261-.LFB261
 1748 0a25 01       		.uleb128 0x1
 1749 0a26 9C       		.byte	0x9c
 1750 0a27 440A0000 		.4byte	0xa44
 1751 0a2b 1E       		.uleb128 0x1e
 1752 0a2c 0E0A0000 		.4byte	0xa0e
 1753 0a30 02000000 		.4byte	.LBB4
 1754 0a34 00000000 		.4byte	.Ldebug_ranges0+0
 1755 0a38 01       		.byte	0x1
 1756 0a39 7F       		.byte	0x7f
 1757 0a3a 1F       		.uleb128 0x1f
 1758 0a3b 5E000000 		.4byte	.LVL0
 1759 0a3f 7D0A0000 		.4byte	0xa7d
 1760 0a43 00       		.byte	0
 1761 0a44 20       		.uleb128 0x20
 1762 0a45 F0020000 		.4byte	.LASF171
 1763 0a49 01       		.byte	0x1
 1764 0a4a 92       		.byte	0x92
 1765 0a4b 00000000 		.4byte	.LFB262
 1766 0a4f C8000000 		.4byte	.LFE262-.LFB262
 1767 0a53 01       		.uleb128 0x1
 1768 0a54 9C       		.byte	0x9c
 1769 0a55 21       		.uleb128 0x21
 1770 0a56 E0010000 		.4byte	.LASF164
 1771 0a5a 10       		.byte	0x10
 1772 0a5b A706     		.2byte	0x6a7
 1773 0a5d CE000000 		.4byte	0xce
 1774 0a61 22       		.uleb128 0x22
 1775 0a62 47030000 		.4byte	.LASF165
 1776 0a66 01       		.byte	0x1
 1777 0a67 27       		.byte	0x27
 1778 0a68 B8000000 		.4byte	0xb8
 1779 0a6c 05       		.uleb128 0x5
 1780 0a6d 03       		.byte	0x3
 1781 0a6e 00000000 		.4byte	SystemCoreClock
 1782 0a72 23       		.uleb128 0x23
 1783 0a73 636800   		.ascii	"ch\000"
 1784 0a76 07       		.byte	0x7
 1785 0a77 0902     		.2byte	0x209
 1786 0a79 41040000 		.4byte	0x441
 1787 0a7d 24       		.uleb128 0x24
 1788 0a7e C3060000 		.4byte	.LASF172
 1789 0a82 11       		.byte	0x11
 1790 0a83 C101     		.2byte	0x1c1
ARM GAS  /var/folders/c6/c789hm653lg9vtl73krp73tm0000gn/T//cctpXYFN.s 			page 46


 1791 0a85 00       		.byte	0
 1792              		.section	.debug_abbrev,"",%progbits
 1793              	.Ldebug_abbrev0:
 1794 0000 01       		.uleb128 0x1
 1795 0001 11       		.uleb128 0x11
 1796 0002 01       		.byte	0x1
 1797 0003 25       		.uleb128 0x25
 1798 0004 0E       		.uleb128 0xe
 1799 0005 13       		.uleb128 0x13
 1800 0006 0B       		.uleb128 0xb
 1801 0007 03       		.uleb128 0x3
 1802 0008 0E       		.uleb128 0xe
 1803 0009 1B       		.uleb128 0x1b
 1804 000a 0E       		.uleb128 0xe
 1805 000b 55       		.uleb128 0x55
 1806 000c 17       		.uleb128 0x17
 1807 000d 11       		.uleb128 0x11
 1808 000e 01       		.uleb128 0x1
 1809 000f 10       		.uleb128 0x10
 1810 0010 17       		.uleb128 0x17
 1811 0011 00       		.byte	0
 1812 0012 00       		.byte	0
 1813 0013 02       		.uleb128 0x2
 1814 0014 24       		.uleb128 0x24
 1815 0015 00       		.byte	0
 1816 0016 0B       		.uleb128 0xb
 1817 0017 0B       		.uleb128 0xb
 1818 0018 3E       		.uleb128 0x3e
 1819 0019 0B       		.uleb128 0xb
 1820 001a 03       		.uleb128 0x3
 1821 001b 08       		.uleb128 0x8
 1822 001c 00       		.byte	0
 1823 001d 00       		.byte	0
 1824 001e 03       		.uleb128 0x3
 1825 001f 16       		.uleb128 0x16
 1826 0020 00       		.byte	0
 1827 0021 03       		.uleb128 0x3
 1828 0022 0E       		.uleb128 0xe
 1829 0023 3A       		.uleb128 0x3a
 1830 0024 0B       		.uleb128 0xb
 1831 0025 3B       		.uleb128 0x3b
 1832 0026 0B       		.uleb128 0xb
 1833 0027 49       		.uleb128 0x49
 1834 0028 13       		.uleb128 0x13
 1835 0029 00       		.byte	0
 1836 002a 00       		.byte	0
 1837 002b 04       		.uleb128 0x4
 1838 002c 24       		.uleb128 0x24
 1839 002d 00       		.byte	0
 1840 002e 0B       		.uleb128 0xb
 1841 002f 0B       		.uleb128 0xb
 1842 0030 3E       		.uleb128 0x3e
 1843 0031 0B       		.uleb128 0xb
 1844 0032 03       		.uleb128 0x3
 1845 0033 0E       		.uleb128 0xe
 1846 0034 00       		.byte	0
 1847 0035 00       		.byte	0
ARM GAS  /var/folders/c6/c789hm653lg9vtl73krp73tm0000gn/T//cctpXYFN.s 			page 47


 1848 0036 05       		.uleb128 0x5
 1849 0037 35       		.uleb128 0x35
 1850 0038 00       		.byte	0
 1851 0039 49       		.uleb128 0x49
 1852 003a 13       		.uleb128 0x13
 1853 003b 00       		.byte	0
 1854 003c 00       		.byte	0
 1855 003d 06       		.uleb128 0x6
 1856 003e 13       		.uleb128 0x13
 1857 003f 01       		.byte	0x1
 1858 0040 03       		.uleb128 0x3
 1859 0041 0E       		.uleb128 0xe
 1860 0042 0B       		.uleb128 0xb
 1861 0043 0B       		.uleb128 0xb
 1862 0044 3A       		.uleb128 0x3a
 1863 0045 0B       		.uleb128 0xb
 1864 0046 3B       		.uleb128 0x3b
 1865 0047 0B       		.uleb128 0xb
 1866 0048 01       		.uleb128 0x1
 1867 0049 13       		.uleb128 0x13
 1868 004a 00       		.byte	0
 1869 004b 00       		.byte	0
 1870 004c 07       		.uleb128 0x7
 1871 004d 0D       		.uleb128 0xd
 1872 004e 00       		.byte	0
 1873 004f 03       		.uleb128 0x3
 1874 0050 0E       		.uleb128 0xe
 1875 0051 3A       		.uleb128 0x3a
 1876 0052 0B       		.uleb128 0xb
 1877 0053 3B       		.uleb128 0x3b
 1878 0054 0B       		.uleb128 0xb
 1879 0055 49       		.uleb128 0x49
 1880 0056 13       		.uleb128 0x13
 1881 0057 38       		.uleb128 0x38
 1882 0058 0B       		.uleb128 0xb
 1883 0059 00       		.byte	0
 1884 005a 00       		.byte	0
 1885 005b 08       		.uleb128 0x8
 1886 005c 0D       		.uleb128 0xd
 1887 005d 00       		.byte	0
 1888 005e 03       		.uleb128 0x3
 1889 005f 08       		.uleb128 0x8
 1890 0060 3A       		.uleb128 0x3a
 1891 0061 0B       		.uleb128 0xb
 1892 0062 3B       		.uleb128 0x3b
 1893 0063 05       		.uleb128 0x5
 1894 0064 49       		.uleb128 0x49
 1895 0065 13       		.uleb128 0x13
 1896 0066 38       		.uleb128 0x38
 1897 0067 0B       		.uleb128 0xb
 1898 0068 00       		.byte	0
 1899 0069 00       		.byte	0
 1900 006a 09       		.uleb128 0x9
 1901 006b 0D       		.uleb128 0xd
 1902 006c 00       		.byte	0
 1903 006d 03       		.uleb128 0x3
 1904 006e 0E       		.uleb128 0xe
ARM GAS  /var/folders/c6/c789hm653lg9vtl73krp73tm0000gn/T//cctpXYFN.s 			page 48


 1905 006f 3A       		.uleb128 0x3a
 1906 0070 0B       		.uleb128 0xb
 1907 0071 3B       		.uleb128 0x3b
 1908 0072 05       		.uleb128 0x5
 1909 0073 49       		.uleb128 0x49
 1910 0074 13       		.uleb128 0x13
 1911 0075 38       		.uleb128 0x38
 1912 0076 0B       		.uleb128 0xb
 1913 0077 00       		.byte	0
 1914 0078 00       		.byte	0
 1915 0079 0A       		.uleb128 0xa
 1916 007a 0F       		.uleb128 0xf
 1917 007b 00       		.byte	0
 1918 007c 0B       		.uleb128 0xb
 1919 007d 0B       		.uleb128 0xb
 1920 007e 49       		.uleb128 0x49
 1921 007f 13       		.uleb128 0x13
 1922 0080 00       		.byte	0
 1923 0081 00       		.byte	0
 1924 0082 0B       		.uleb128 0xb
 1925 0083 13       		.uleb128 0x13
 1926 0084 01       		.byte	0x1
 1927 0085 03       		.uleb128 0x3
 1928 0086 0E       		.uleb128 0xe
 1929 0087 0B       		.uleb128 0xb
 1930 0088 0B       		.uleb128 0xb
 1931 0089 3A       		.uleb128 0x3a
 1932 008a 0B       		.uleb128 0xb
 1933 008b 3B       		.uleb128 0x3b
 1934 008c 05       		.uleb128 0x5
 1935 008d 01       		.uleb128 0x1
 1936 008e 13       		.uleb128 0x13
 1937 008f 00       		.byte	0
 1938 0090 00       		.byte	0
 1939 0091 0C       		.uleb128 0xc
 1940 0092 15       		.uleb128 0x15
 1941 0093 01       		.byte	0x1
 1942 0094 27       		.uleb128 0x27
 1943 0095 19       		.uleb128 0x19
 1944 0096 01       		.uleb128 0x1
 1945 0097 13       		.uleb128 0x13
 1946 0098 00       		.byte	0
 1947 0099 00       		.byte	0
 1948 009a 0D       		.uleb128 0xd
 1949 009b 05       		.uleb128 0x5
 1950 009c 00       		.byte	0
 1951 009d 49       		.uleb128 0x49
 1952 009e 13       		.uleb128 0x13
 1953 009f 00       		.byte	0
 1954 00a0 00       		.byte	0
 1955 00a1 0E       		.uleb128 0xe
 1956 00a2 0F       		.uleb128 0xf
 1957 00a3 00       		.byte	0
 1958 00a4 0B       		.uleb128 0xb
 1959 00a5 0B       		.uleb128 0xb
 1960 00a6 00       		.byte	0
 1961 00a7 00       		.byte	0
ARM GAS  /var/folders/c6/c789hm653lg9vtl73krp73tm0000gn/T//cctpXYFN.s 			page 49


 1962 00a8 0F       		.uleb128 0xf
 1963 00a9 13       		.uleb128 0x13
 1964 00aa 01       		.byte	0x1
 1965 00ab 03       		.uleb128 0x3
 1966 00ac 0E       		.uleb128 0xe
 1967 00ad 0B       		.uleb128 0xb
 1968 00ae 05       		.uleb128 0x5
 1969 00af 3A       		.uleb128 0x3a
 1970 00b0 0B       		.uleb128 0xb
 1971 00b1 3B       		.uleb128 0x3b
 1972 00b2 05       		.uleb128 0x5
 1973 00b3 01       		.uleb128 0x1
 1974 00b4 13       		.uleb128 0x13
 1975 00b5 00       		.byte	0
 1976 00b6 00       		.byte	0
 1977 00b7 10       		.uleb128 0x10
 1978 00b8 0D       		.uleb128 0xd
 1979 00b9 00       		.byte	0
 1980 00ba 03       		.uleb128 0x3
 1981 00bb 0E       		.uleb128 0xe
 1982 00bc 3A       		.uleb128 0x3a
 1983 00bd 0B       		.uleb128 0xb
 1984 00be 3B       		.uleb128 0x3b
 1985 00bf 05       		.uleb128 0x5
 1986 00c0 49       		.uleb128 0x49
 1987 00c1 13       		.uleb128 0x13
 1988 00c2 38       		.uleb128 0x38
 1989 00c3 05       		.uleb128 0x5
 1990 00c4 00       		.byte	0
 1991 00c5 00       		.byte	0
 1992 00c6 11       		.uleb128 0x11
 1993 00c7 0D       		.uleb128 0xd
 1994 00c8 00       		.byte	0
 1995 00c9 03       		.uleb128 0x3
 1996 00ca 08       		.uleb128 0x8
 1997 00cb 3A       		.uleb128 0x3a
 1998 00cc 0B       		.uleb128 0xb
 1999 00cd 3B       		.uleb128 0x3b
 2000 00ce 05       		.uleb128 0x5
 2001 00cf 49       		.uleb128 0x49
 2002 00d0 13       		.uleb128 0x13
 2003 00d1 38       		.uleb128 0x38
 2004 00d2 05       		.uleb128 0x5
 2005 00d3 00       		.byte	0
 2006 00d4 00       		.byte	0
 2007 00d5 12       		.uleb128 0x12
 2008 00d6 01       		.uleb128 0x1
 2009 00d7 01       		.byte	0x1
 2010 00d8 49       		.uleb128 0x49
 2011 00d9 13       		.uleb128 0x13
 2012 00da 01       		.uleb128 0x1
 2013 00db 13       		.uleb128 0x13
 2014 00dc 00       		.byte	0
 2015 00dd 00       		.byte	0
 2016 00de 13       		.uleb128 0x13
 2017 00df 21       		.uleb128 0x21
 2018 00e0 00       		.byte	0
ARM GAS  /var/folders/c6/c789hm653lg9vtl73krp73tm0000gn/T//cctpXYFN.s 			page 50


 2019 00e1 49       		.uleb128 0x49
 2020 00e2 13       		.uleb128 0x13
 2021 00e3 2F       		.uleb128 0x2f
 2022 00e4 0B       		.uleb128 0xb
 2023 00e5 00       		.byte	0
 2024 00e6 00       		.byte	0
 2025 00e7 14       		.uleb128 0x14
 2026 00e8 13       		.uleb128 0x13
 2027 00e9 01       		.byte	0x1
 2028 00ea 0B       		.uleb128 0xb
 2029 00eb 0B       		.uleb128 0xb
 2030 00ec 3A       		.uleb128 0x3a
 2031 00ed 0B       		.uleb128 0xb
 2032 00ee 3B       		.uleb128 0x3b
 2033 00ef 05       		.uleb128 0x5
 2034 00f0 01       		.uleb128 0x1
 2035 00f1 13       		.uleb128 0x13
 2036 00f2 00       		.byte	0
 2037 00f3 00       		.byte	0
 2038 00f4 15       		.uleb128 0x15
 2039 00f5 16       		.uleb128 0x16
 2040 00f6 00       		.byte	0
 2041 00f7 03       		.uleb128 0x3
 2042 00f8 0E       		.uleb128 0xe
 2043 00f9 3A       		.uleb128 0x3a
 2044 00fa 0B       		.uleb128 0xb
 2045 00fb 3B       		.uleb128 0x3b
 2046 00fc 05       		.uleb128 0x5
 2047 00fd 49       		.uleb128 0x49
 2048 00fe 13       		.uleb128 0x13
 2049 00ff 00       		.byte	0
 2050 0100 00       		.byte	0
 2051 0101 16       		.uleb128 0x16
 2052 0102 0D       		.uleb128 0xd
 2053 0103 00       		.byte	0
 2054 0104 03       		.uleb128 0x3
 2055 0105 08       		.uleb128 0x8
 2056 0106 3A       		.uleb128 0x3a
 2057 0107 0B       		.uleb128 0xb
 2058 0108 3B       		.uleb128 0x3b
 2059 0109 0B       		.uleb128 0xb
 2060 010a 49       		.uleb128 0x49
 2061 010b 13       		.uleb128 0x13
 2062 010c 38       		.uleb128 0x38
 2063 010d 0B       		.uleb128 0xb
 2064 010e 00       		.byte	0
 2065 010f 00       		.byte	0
 2066 0110 17       		.uleb128 0x17
 2067 0111 13       		.uleb128 0x13
 2068 0112 01       		.byte	0x1
 2069 0113 0B       		.uleb128 0xb
 2070 0114 0B       		.uleb128 0xb
 2071 0115 3A       		.uleb128 0x3a
 2072 0116 0B       		.uleb128 0xb
 2073 0117 3B       		.uleb128 0x3b
 2074 0118 0B       		.uleb128 0xb
 2075 0119 01       		.uleb128 0x1
ARM GAS  /var/folders/c6/c789hm653lg9vtl73krp73tm0000gn/T//cctpXYFN.s 			page 51


 2076 011a 13       		.uleb128 0x13
 2077 011b 00       		.byte	0
 2078 011c 00       		.byte	0
 2079 011d 18       		.uleb128 0x18
 2080 011e 13       		.uleb128 0x13
 2081 011f 01       		.byte	0x1
 2082 0120 0B       		.uleb128 0xb
 2083 0121 05       		.uleb128 0x5
 2084 0122 3A       		.uleb128 0x3a
 2085 0123 0B       		.uleb128 0xb
 2086 0124 3B       		.uleb128 0x3b
 2087 0125 0B       		.uleb128 0xb
 2088 0126 01       		.uleb128 0x1
 2089 0127 13       		.uleb128 0x13
 2090 0128 00       		.byte	0
 2091 0129 00       		.byte	0
 2092 012a 19       		.uleb128 0x19
 2093 012b 17       		.uleb128 0x17
 2094 012c 01       		.byte	0x1
 2095 012d 0B       		.uleb128 0xb
 2096 012e 0B       		.uleb128 0xb
 2097 012f 3A       		.uleb128 0x3a
 2098 0130 0B       		.uleb128 0xb
 2099 0131 3B       		.uleb128 0x3b
 2100 0132 0B       		.uleb128 0xb
 2101 0133 01       		.uleb128 0x1
 2102 0134 13       		.uleb128 0x13
 2103 0135 00       		.byte	0
 2104 0136 00       		.byte	0
 2105 0137 1A       		.uleb128 0x1a
 2106 0138 0D       		.uleb128 0xd
 2107 0139 00       		.byte	0
 2108 013a 03       		.uleb128 0x3
 2109 013b 0E       		.uleb128 0xe
 2110 013c 3A       		.uleb128 0x3a
 2111 013d 0B       		.uleb128 0xb
 2112 013e 3B       		.uleb128 0x3b
 2113 013f 05       		.uleb128 0x5
 2114 0140 49       		.uleb128 0x49
 2115 0141 13       		.uleb128 0x13
 2116 0142 00       		.byte	0
 2117 0143 00       		.byte	0
 2118 0144 1B       		.uleb128 0x1b
 2119 0145 26       		.uleb128 0x26
 2120 0146 00       		.byte	0
 2121 0147 49       		.uleb128 0x49
 2122 0148 13       		.uleb128 0x13
 2123 0149 00       		.byte	0
 2124 014a 00       		.byte	0
 2125 014b 1C       		.uleb128 0x1c
 2126 014c 2E       		.uleb128 0x2e
 2127 014d 00       		.byte	0
 2128 014e 03       		.uleb128 0x3
 2129 014f 0E       		.uleb128 0xe
 2130 0150 3A       		.uleb128 0x3a
 2131 0151 0B       		.uleb128 0xb
 2132 0152 3B       		.uleb128 0x3b
ARM GAS  /var/folders/c6/c789hm653lg9vtl73krp73tm0000gn/T//cctpXYFN.s 			page 52


 2133 0153 0B       		.uleb128 0xb
 2134 0154 27       		.uleb128 0x27
 2135 0155 19       		.uleb128 0x19
 2136 0156 20       		.uleb128 0x20
 2137 0157 0B       		.uleb128 0xb
 2138 0158 00       		.byte	0
 2139 0159 00       		.byte	0
 2140 015a 1D       		.uleb128 0x1d
 2141 015b 2E       		.uleb128 0x2e
 2142 015c 01       		.byte	0x1
 2143 015d 3F       		.uleb128 0x3f
 2144 015e 19       		.uleb128 0x19
 2145 015f 03       		.uleb128 0x3
 2146 0160 0E       		.uleb128 0xe
 2147 0161 3A       		.uleb128 0x3a
 2148 0162 0B       		.uleb128 0xb
 2149 0163 3B       		.uleb128 0x3b
 2150 0164 0B       		.uleb128 0xb
 2151 0165 27       		.uleb128 0x27
 2152 0166 19       		.uleb128 0x19
 2153 0167 11       		.uleb128 0x11
 2154 0168 01       		.uleb128 0x1
 2155 0169 12       		.uleb128 0x12
 2156 016a 06       		.uleb128 0x6
 2157 016b 40       		.uleb128 0x40
 2158 016c 18       		.uleb128 0x18
 2159 016d 9742     		.uleb128 0x2117
 2160 016f 19       		.uleb128 0x19
 2161 0170 01       		.uleb128 0x1
 2162 0171 13       		.uleb128 0x13
 2163 0172 00       		.byte	0
 2164 0173 00       		.byte	0
 2165 0174 1E       		.uleb128 0x1e
 2166 0175 1D       		.uleb128 0x1d
 2167 0176 00       		.byte	0
 2168 0177 31       		.uleb128 0x31
 2169 0178 13       		.uleb128 0x13
 2170 0179 52       		.uleb128 0x52
 2171 017a 01       		.uleb128 0x1
 2172 017b 55       		.uleb128 0x55
 2173 017c 17       		.uleb128 0x17
 2174 017d 58       		.uleb128 0x58
 2175 017e 0B       		.uleb128 0xb
 2176 017f 59       		.uleb128 0x59
 2177 0180 0B       		.uleb128 0xb
 2178 0181 00       		.byte	0
 2179 0182 00       		.byte	0
 2180 0183 1F       		.uleb128 0x1f
 2181 0184 898201   		.uleb128 0x4109
 2182 0187 00       		.byte	0
 2183 0188 11       		.uleb128 0x11
 2184 0189 01       		.uleb128 0x1
 2185 018a 9542     		.uleb128 0x2115
 2186 018c 19       		.uleb128 0x19
 2187 018d 31       		.uleb128 0x31
 2188 018e 13       		.uleb128 0x13
 2189 018f 00       		.byte	0
ARM GAS  /var/folders/c6/c789hm653lg9vtl73krp73tm0000gn/T//cctpXYFN.s 			page 53


 2190 0190 00       		.byte	0
 2191 0191 20       		.uleb128 0x20
 2192 0192 2E       		.uleb128 0x2e
 2193 0193 00       		.byte	0
 2194 0194 3F       		.uleb128 0x3f
 2195 0195 19       		.uleb128 0x19
 2196 0196 03       		.uleb128 0x3
 2197 0197 0E       		.uleb128 0xe
 2198 0198 3A       		.uleb128 0x3a
 2199 0199 0B       		.uleb128 0xb
 2200 019a 3B       		.uleb128 0x3b
 2201 019b 0B       		.uleb128 0xb
 2202 019c 27       		.uleb128 0x27
 2203 019d 19       		.uleb128 0x19
 2204 019e 11       		.uleb128 0x11
 2205 019f 01       		.uleb128 0x1
 2206 01a0 12       		.uleb128 0x12
 2207 01a1 06       		.uleb128 0x6
 2208 01a2 40       		.uleb128 0x40
 2209 01a3 18       		.uleb128 0x18
 2210 01a4 9742     		.uleb128 0x2117
 2211 01a6 19       		.uleb128 0x19
 2212 01a7 00       		.byte	0
 2213 01a8 00       		.byte	0
 2214 01a9 21       		.uleb128 0x21
 2215 01aa 34       		.uleb128 0x34
 2216 01ab 00       		.byte	0
 2217 01ac 03       		.uleb128 0x3
 2218 01ad 0E       		.uleb128 0xe
 2219 01ae 3A       		.uleb128 0x3a
 2220 01af 0B       		.uleb128 0xb
 2221 01b0 3B       		.uleb128 0x3b
 2222 01b1 05       		.uleb128 0x5
 2223 01b2 49       		.uleb128 0x49
 2224 01b3 13       		.uleb128 0x13
 2225 01b4 3F       		.uleb128 0x3f
 2226 01b5 19       		.uleb128 0x19
 2227 01b6 3C       		.uleb128 0x3c
 2228 01b7 19       		.uleb128 0x19
 2229 01b8 00       		.byte	0
 2230 01b9 00       		.byte	0
 2231 01ba 22       		.uleb128 0x22
 2232 01bb 34       		.uleb128 0x34
 2233 01bc 00       		.byte	0
 2234 01bd 03       		.uleb128 0x3
 2235 01be 0E       		.uleb128 0xe
 2236 01bf 3A       		.uleb128 0x3a
 2237 01c0 0B       		.uleb128 0xb
 2238 01c1 3B       		.uleb128 0x3b
 2239 01c2 0B       		.uleb128 0xb
 2240 01c3 49       		.uleb128 0x49
 2241 01c4 13       		.uleb128 0x13
 2242 01c5 3F       		.uleb128 0x3f
 2243 01c6 19       		.uleb128 0x19
 2244 01c7 02       		.uleb128 0x2
 2245 01c8 18       		.uleb128 0x18
 2246 01c9 00       		.byte	0
ARM GAS  /var/folders/c6/c789hm653lg9vtl73krp73tm0000gn/T//cctpXYFN.s 			page 54


 2247 01ca 00       		.byte	0
 2248 01cb 23       		.uleb128 0x23
 2249 01cc 34       		.uleb128 0x34
 2250 01cd 00       		.byte	0
 2251 01ce 03       		.uleb128 0x3
 2252 01cf 08       		.uleb128 0x8
 2253 01d0 3A       		.uleb128 0x3a
 2254 01d1 0B       		.uleb128 0xb
 2255 01d2 3B       		.uleb128 0x3b
 2256 01d3 05       		.uleb128 0x5
 2257 01d4 49       		.uleb128 0x49
 2258 01d5 13       		.uleb128 0x13
 2259 01d6 3F       		.uleb128 0x3f
 2260 01d7 19       		.uleb128 0x19
 2261 01d8 3C       		.uleb128 0x3c
 2262 01d9 19       		.uleb128 0x19
 2263 01da 00       		.byte	0
 2264 01db 00       		.byte	0
 2265 01dc 24       		.uleb128 0x24
 2266 01dd 2E       		.uleb128 0x2e
 2267 01de 00       		.byte	0
 2268 01df 3F       		.uleb128 0x3f
 2269 01e0 19       		.uleb128 0x19
 2270 01e1 03       		.uleb128 0x3
 2271 01e2 0E       		.uleb128 0xe
 2272 01e3 3A       		.uleb128 0x3a
 2273 01e4 0B       		.uleb128 0xb
 2274 01e5 3B       		.uleb128 0x3b
 2275 01e6 05       		.uleb128 0x5
 2276 01e7 27       		.uleb128 0x27
 2277 01e8 19       		.uleb128 0x19
 2278 01e9 3C       		.uleb128 0x3c
 2279 01ea 19       		.uleb128 0x19
 2280 01eb 00       		.byte	0
 2281 01ec 00       		.byte	0
 2282 01ed 00       		.byte	0
 2283              		.section	.debug_aranges,"",%progbits
 2284 0000 24000000 		.4byte	0x24
 2285 0004 0200     		.2byte	0x2
 2286 0006 00000000 		.4byte	.Ldebug_info0
 2287 000a 04       		.byte	0x4
 2288 000b 00       		.byte	0
 2289 000c 0000     		.2byte	0
 2290 000e 0000     		.2byte	0
 2291 0010 00000000 		.4byte	.LFB261
 2292 0014 68000000 		.4byte	.LFE261-.LFB261
 2293 0018 00000000 		.4byte	.LFB262
 2294 001c C8000000 		.4byte	.LFE262-.LFB262
 2295 0020 00000000 		.4byte	0
 2296 0024 00000000 		.4byte	0
 2297              		.section	.debug_ranges,"",%progbits
 2298              	.Ldebug_ranges0:
 2299 0000 02000000 		.4byte	.LBB4
 2300 0004 04000000 		.4byte	.LBE4
 2301 0008 30000000 		.4byte	.LBB8
 2302 000c 4E000000 		.4byte	.LBE8
 2303 0010 52000000 		.4byte	.LBB9
ARM GAS  /var/folders/c6/c789hm653lg9vtl73krp73tm0000gn/T//cctpXYFN.s 			page 55


 2304 0014 5A000000 		.4byte	.LBE9
 2305 0018 00000000 		.4byte	0
 2306 001c 00000000 		.4byte	0
 2307 0020 00000000 		.4byte	.LFB261
 2308 0024 68000000 		.4byte	.LFE261
 2309 0028 00000000 		.4byte	.LFB262
 2310 002c C8000000 		.4byte	.LFE262
 2311 0030 00000000 		.4byte	0
 2312 0034 00000000 		.4byte	0
 2313              		.section	.debug_line,"",%progbits
 2314              	.Ldebug_line0:
 2315 0000 1D030000 		.section	.debug_str,"MS",%progbits,1
 2315      02009202 
 2315      00000201 
 2315      FB0E0D00 
 2315      01010101 
 2316              	.LASF166:
 2317 0000 474E5520 		.ascii	"GNU C 4.8.4 20140725 (release) [ARM/embedded-4_8-br"
 2317      4320342E 
 2317      382E3420 
 2317      32303134 
 2317      30373235 
 2318 0033 616E6368 		.ascii	"anch revision 213147] -mcpu=cortex-m4 -mno-thumb-in"
 2318      20726576 
 2318      6973696F 
 2318      6E203231 
 2318      33313437 
 2319 0066 74657277 		.ascii	"terwork -mthumb -ggdb -O2 -fomit-frame-pointer -fal"
 2319      6F726B20 
 2319      2D6D7468 
 2319      756D6220 
 2319      2D676764 
 2320 0099 69676E2D 		.ascii	"ign-functions=16 -ffunction-sections -fdata-section"
 2320      66756E63 
 2320      74696F6E 
 2320      733D3136 
 2320      202D6666 
 2321 00cc 73202D66 		.ascii	"s -fno-common -flto\000"
 2321      6E6F2D63 
 2321      6F6D6D6F 
 2321      6E202D66 
 2321      6C746F00 
 2322              	.LASF132:
 2323 00e0 74625F70 		.ascii	"tb_ptr\000"
 2323      747200
 2324              	.LASF55:
 2325 00e7 72656164 		.ascii	"ready_list_t\000"
 2325      795F6C69 
 2325      73745F74 
 2325      00
 2326              	.LASF126:
 2327 00f4 73655F74 		.ascii	"se_time\000"
 2327      696D6500 
 2328              	.LASF2:
 2329 00fc 73697A65 		.ascii	"size_t\000"
 2329      5F7400
 2330              	.LASF147:
ARM GAS  /var/folders/c6/c789hm653lg9vtl73krp73tm0000gn/T//cctpXYFN.s 			page 56


 2331 0103 7264796D 		.ascii	"rdymsg\000"
 2331      736700
 2332              	.LASF17:
 2333 010a 75696E74 		.ascii	"uint64_t\000"
 2333      36345F74 
 2333      00
 2334              	.LASF85:
 2335 0113 6B65726E 		.ascii	"kernel_stats\000"
 2335      656C5F73 
 2335      74617473 
 2335      00
 2336              	.LASF3:
 2337 0120 5F5F7569 		.ascii	"__uint8_t\000"
 2337      6E74385F 
 2337      7400
 2338              	.LASF125:
 2339 012a 706F7274 		.ascii	"port_intctx\000"
 2339      5F696E74 
 2339      63747800 
 2340              	.LASF54:
 2341 0136 63685F74 		.ascii	"ch_threads_queue\000"
 2341      68726561 
 2341      64735F71 
 2341      75657565 
 2341      00
 2342              	.LASF74:
 2343 0147 73797374 		.ascii	"system_debug_t\000"
 2343      656D5F64 
 2343      65627567 
 2343      5F7400
 2344              	.LASF90:
 2345 0156 4F505443 		.ascii	"OPTCR\000"
 2345      5200
 2346              	.LASF138:
 2347 015c 776F7273 		.ascii	"worst\000"
 2347      7400
 2348              	.LASF91:
 2349 0162 4F505443 		.ascii	"OPTCR1\000"
 2349      523100
 2350              	.LASF141:
 2351 0169 74696D65 		.ascii	"time_measurement_t\000"
 2351      5F6D6561 
 2351      73757265 
 2351      6D656E74 
 2351      5F7400
 2352              	.LASF13:
 2353 017c 6C6F6E67 		.ascii	"long long unsigned int\000"
 2353      206C6F6E 
 2353      6720756E 
 2353      7369676E 
 2353      65642069 
 2354              	.LASF134:
 2355 0193 63685F74 		.ascii	"ch_trace_buffer_t\000"
 2355      72616365 
 2355      5F627566 
 2355      6665725F 
 2355      7400
ARM GAS  /var/folders/c6/c789hm653lg9vtl73krp73tm0000gn/T//cctpXYFN.s 			page 57


 2356              	.LASF129:
 2357 01a5 73655F73 		.ascii	"se_state\000"
 2357      74617465 
 2357      00
 2358              	.LASF155:
 2359 01ae 735F7175 		.ascii	"s_queue\000"
 2359      65756500 
 2360              	.LASF148:
 2361 01b6 65786974 		.ascii	"exitcode\000"
 2361      636F6465 
 2361      00
 2362              	.LASF84:
 2363 01bf 6D61696E 		.ascii	"mainthread\000"
 2363      74687265 
 2363      616400
 2364              	.LASF71:
 2365 01ca 76697274 		.ascii	"virtual_timers_list_t\000"
 2365      75616C5F 
 2365      74696D65 
 2365      72735F6C 
 2365      6973745F 
 2366              	.LASF164:
 2367 01e0 49544D5F 		.ascii	"ITM_RxBuffer\000"
 2367      52784275 
 2367      66666572 
 2367      00
 2368              	.LASF19:
 2369 01ed 72747469 		.ascii	"rttime_t\000"
 2369      6D655F74 
 2369      00
 2370              	.LASF110:
 2371 01f6 41484231 		.ascii	"AHB1LPENR\000"
 2371      4C50454E 
 2371      5200
 2372              	.LASF32:
 2373 0200 705F7072 		.ascii	"p_prio\000"
 2373      696F00
 2374              	.LASF11:
 2375 0207 6C6F6E67 		.ascii	"long long int\000"
 2375      206C6F6E 
 2375      6720696E 
 2375      7400
 2376              	.LASF1:
 2377 0215 7369676E 		.ascii	"signed char\000"
 2377      65642063 
 2377      68617200 
 2378              	.LASF96:
 2379 0221 41484231 		.ascii	"AHB1RSTR\000"
 2379      52535452 
 2379      00
 2380              	.LASF92:
 2381 022a 464C4153 		.ascii	"FLASH_TypeDef\000"
 2381      485F5479 
 2381      70654465 
 2381      6600
 2382              	.LASF47:
 2383 0238 705F6D70 		.ascii	"p_mpool\000"
ARM GAS  /var/folders/c6/c789hm653lg9vtl73krp73tm0000gn/T//cctpXYFN.s 			page 58


 2383      6F6F6C00 
 2384              	.LASF158:
 2385 0240 6D5F7175 		.ascii	"m_queue\000"
 2385      65756500 
 2386              	.LASF83:
 2387 0248 76746C69 		.ascii	"vtlist\000"
 2387      737400
 2388              	.LASF93:
 2389 024f 5057525F 		.ascii	"PWR_TypeDef\000"
 2389      54797065 
 2389      44656600 
 2390              	.LASF121:
 2391 025b 5243435F 		.ascii	"RCC_TypeDef\000"
 2391      54797065 
 2391      44656600 
 2392              	.LASF150:
 2393 0267 77747472 		.ascii	"wttrp\000"
 2393      7000
 2394              	.LASF81:
 2395 026d 63685F73 		.ascii	"ch_system\000"
 2395      79737465 
 2395      6D00
 2396              	.LASF8:
 2397 0277 6C6F6E67 		.ascii	"long int\000"
 2397      20696E74 
 2397      00
 2398              	.LASF101:
 2399 0280 41504232 		.ascii	"APB2RSTR\000"
 2399      52535452 
 2399      00
 2400              	.LASF114:
 2401 0289 41504231 		.ascii	"APB1LPENR\000"
 2401      4C50454E 
 2401      5200
 2402              	.LASF21:
 2403 0293 74737461 		.ascii	"tstate_t\000"
 2403      74655F74 
 2403      00
 2404              	.LASF127:
 2405 029c 73655F74 		.ascii	"se_tp\000"
 2405      7000
 2406              	.LASF89:
 2407 02a2 4F50544B 		.ascii	"OPTKEYR\000"
 2407      45595200 
 2408              	.LASF34:
 2409 02aa 705F6E65 		.ascii	"p_newer\000"
 2409      77657200 
 2410              	.LASF94:
 2411 02b2 504C4C43 		.ascii	"PLLCFGR\000"
 2411      46475200 
 2412              	.LASF131:
 2413 02ba 74625F73 		.ascii	"tb_size\000"
 2413      697A6500 
 2414              	.LASF60:
 2415 02c2 725F6E65 		.ascii	"r_newer\000"
 2415      77657200 
 2416              	.LASF122:
ARM GAS  /var/folders/c6/c789hm653lg9vtl73krp73tm0000gn/T//cctpXYFN.s 			page 59


 2417 02ca 72656761 		.ascii	"regarm_t\000"
 2417      726D5F74 
 2417      00
 2418              	.LASF67:
 2419 02d3 76745F70 		.ascii	"vt_prev\000"
 2419      72657600 
 2420              	.LASF88:
 2421 02db 4B455952 		.ascii	"KEYR\000"
 2421      00
 2422              	.LASF75:
 2423 02e0 63685F73 		.ascii	"ch_system_debug\000"
 2423      79737465 
 2423      6D5F6465 
 2423      62756700 
 2424              	.LASF171:
 2425 02f0 73746D33 		.ascii	"stm32_clock_init\000"
 2425      325F636C 
 2425      6F636B5F 
 2425      696E6974 
 2425      00
 2426              	.LASF162:
 2427 0301 6D757465 		.ascii	"mutex_t\000"
 2427      785F7400 
 2428              	.LASF78:
 2429 0309 6C6F636B 		.ascii	"lock_cnt\000"
 2429      5F636E74 
 2429      00
 2430              	.LASF86:
 2431 0312 69646C65 		.ascii	"idle_thread_wa\000"
 2431      5F746872 
 2431      6561645F 
 2431      776100
 2432              	.LASF26:
 2433 0321 636E745F 		.ascii	"cnt_t\000"
 2433      7400
 2434              	.LASF37:
 2435 0327 705F7374 		.ascii	"p_stklimit\000"
 2435      6B6C696D 
 2435      697400
 2436              	.LASF0:
 2437 0332 756E7369 		.ascii	"unsigned int\000"
 2437      676E6564 
 2437      20696E74 
 2437      00
 2438              	.LASF66:
 2439 033f 76745F6E 		.ascii	"vt_next\000"
 2439      65787400 
 2440              	.LASF165:
 2441 0347 53797374 		.ascii	"SystemCoreClock\000"
 2441      656D436F 
 2441      7265436C 
 2441      6F636B00 
 2442              	.LASF151:
 2443 0357 77747365 		.ascii	"wtsemp\000"
 2443      6D7000
 2444              	.LASF42:
 2445 035e 705F6D73 		.ascii	"p_msgqueue\000"
ARM GAS  /var/folders/c6/c789hm653lg9vtl73krp73tm0000gn/T//cctpXYFN.s 			page 60


 2445      67717565 
 2445      756500
 2446              	.LASF167:
 2447 0369 2E2E2F2E 		.ascii	"../../../os/hal/ports/STM32/STM32F4xx/hal_lld.c\000"
 2447      2E2F2E2E 
 2447      2F6F732F 
 2447      68616C2F 
 2447      706F7274 
 2448              	.LASF142:
 2449 0399 6E5F6972 		.ascii	"n_irq\000"
 2449      7100
 2450              	.LASF156:
 2451 039f 735F636E 		.ascii	"s_cnt\000"
 2451      7400
 2452              	.LASF168:
 2453 03a5 2F557365 		.ascii	"/Users/savonetj/Downloads/ChibiOS_3.0.2/demos/STM32"
 2453      72732F73 
 2453      61766F6E 
 2453      65746A2F 
 2453      446F776E 
 2454 03d8 2F52542D 		.ascii	"/RT-STM32F407-OLIMEX_E407-LWIP-FATFS-USB\000"
 2454      53544D33 
 2454      32463430 
 2454      372D4F4C 
 2454      494D4558 
 2455              	.LASF6:
 2456 0401 73686F72 		.ascii	"short unsigned int\000"
 2456      7420756E 
 2456      7369676E 
 2456      65642069 
 2456      6E7400
 2457              	.LASF146:
 2458 0414 6B65726E 		.ascii	"kernel_stats_t\000"
 2458      656C5F73 
 2458      74617473 
 2458      5F7400
 2459              	.LASF51:
 2460 0423 63685F74 		.ascii	"ch_thread\000"
 2460      68726561 
 2460      6400
 2461              	.LASF120:
 2462 042d 504C4C49 		.ascii	"PLLI2SCFGR\000"
 2462      32534346 
 2462      475200
 2463              	.LASF24:
 2464 0438 6D73675F 		.ascii	"msg_t\000"
 2464      7400
 2465              	.LASF98:
 2466 043e 41484233 		.ascii	"AHB3RSTR\000"
 2466      52535452 
 2466      00
 2467              	.LASF27:
 2468 0447 75636E74 		.ascii	"ucnt_t\000"
 2468      5F7400
 2469              	.LASF169:
 2470 044e 68616C5F 		.ascii	"hal_lld_backup_domain_init\000"
 2470      6C6C645F 
ARM GAS  /var/folders/c6/c789hm653lg9vtl73krp73tm0000gn/T//cctpXYFN.s 			page 61


 2470      6261636B 
 2470      75705F64 
 2470      6F6D6169 
 2471              	.LASF80:
 2472 0469 63685F73 		.ascii	"ch_system_t\000"
 2472      79737465 
 2472      6D5F7400 
 2473              	.LASF133:
 2474 0475 74625F62 		.ascii	"tb_buffer\000"
 2474      75666665 
 2474      7200
 2475              	.LASF115:
 2476 047f 41504232 		.ascii	"APB2LPENR\000"
 2476      4C50454E 
 2476      5200
 2477              	.LASF145:
 2478 0489 6D5F6372 		.ascii	"m_crit_isr\000"
 2478      69745F69 
 2478      737200
 2479              	.LASF56:
 2480 0494 63685F72 		.ascii	"ch_ready_list\000"
 2480      65616479 
 2480      5F6C6973 
 2480      7400
 2481              	.LASF25:
 2482 04a2 6576656E 		.ascii	"eventmask_t\000"
 2482      746D6173 
 2482      6B5F7400 
 2483              	.LASF7:
 2484 04ae 5F5F696E 		.ascii	"__int32_t\000"
 2484      7433325F 
 2484      7400
 2485              	.LASF123:
 2486 04b8 73746B61 		.ascii	"stkalign_t\000"
 2486      6C69676E 
 2486      5F7400
 2487              	.LASF50:
 2488 04c3 74687265 		.ascii	"threads_list_t\000"
 2488      6164735F 
 2488      6C697374 
 2488      5F7400
 2489              	.LASF64:
 2490 04d2 76697274 		.ascii	"virtual_timer_t\000"
 2490      75616C5F 
 2490      74696D65 
 2490      725F7400 
 2491              	.LASF41:
 2492 04e2 705F7761 		.ascii	"p_waiting\000"
 2492      6974696E 
 2492      6700
 2493              	.LASF87:
 2494 04ec 73697A65 		.ascii	"sizetype\000"
 2494      74797065 
 2494      00
 2495              	.LASF49:
 2496 04f5 74687265 		.ascii	"thread_reference_t\000"
 2496      61645F72 
ARM GAS  /var/folders/c6/c789hm653lg9vtl73krp73tm0000gn/T//cctpXYFN.s 			page 62


 2496      65666572 
 2496      656E6365 
 2496      5F7400
 2497              	.LASF72:
 2498 0508 63685F76 		.ascii	"ch_virtual_timers_list\000"
 2498      69727475 
 2498      616C5F74 
 2498      696D6572 
 2498      735F6C69 
 2499              	.LASF130:
 2500 051f 63685F73 		.ascii	"ch_swc_event_t\000"
 2500      77635F65 
 2500      76656E74 
 2500      5F7400
 2501              	.LASF105:
 2502 052e 41484233 		.ascii	"AHB3ENR\000"
 2502      454E5200 
 2503              	.LASF73:
 2504 0536 76745F6C 		.ascii	"vt_lasttime\000"
 2504      61737474 
 2504      696D6500 
 2505              	.LASF35:
 2506 0542 705F6F6C 		.ascii	"p_older\000"
 2506      64657200 
 2507              	.LASF59:
 2508 054a 725F6374 		.ascii	"r_ctx\000"
 2508      7800
 2509              	.LASF111:
 2510 0550 41484232 		.ascii	"AHB2LPENR\000"
 2510      4C50454E 
 2510      5200
 2511              	.LASF136:
 2512 055a 746D5F63 		.ascii	"tm_calibration_t\000"
 2512      616C6962 
 2512      72617469 
 2512      6F6E5F74 
 2512      00
 2513              	.LASF62:
 2514 056b 725F6375 		.ascii	"r_current\000"
 2514      7272656E 
 2514      7400
 2515              	.LASF100:
 2516 0575 41504231 		.ascii	"APB1RSTR\000"
 2516      52535452 
 2516      00
 2517              	.LASF12:
 2518 057e 5F5F7569 		.ascii	"__uint64_t\000"
 2518      6E743634 
 2518      5F7400
 2519              	.LASF140:
 2520 0589 63756D75 		.ascii	"cumulative\000"
 2520      6C617469 
 2520      766500
 2521              	.LASF22:
 2522 0594 74726566 		.ascii	"trefs_t\000"
 2522      735F7400 
 2523              	.LASF99:
ARM GAS  /var/folders/c6/c789hm653lg9vtl73krp73tm0000gn/T//cctpXYFN.s 			page 63


 2524 059c 52455345 		.ascii	"RESERVED0\000"
 2524      52564544 
 2524      3000
 2525              	.LASF102:
 2526 05a6 52455345 		.ascii	"RESERVED1\000"
 2526      52564544 
 2526      3100
 2527              	.LASF106:
 2528 05b0 52455345 		.ascii	"RESERVED2\000"
 2528      52564544 
 2528      3200
 2529              	.LASF109:
 2530 05ba 52455345 		.ascii	"RESERVED3\000"
 2530      52564544 
 2530      3300
 2531              	.LASF113:
 2532 05c4 52455345 		.ascii	"RESERVED4\000"
 2532      52564544 
 2532      3400
 2533              	.LASF31:
 2534 05ce 705F7072 		.ascii	"p_prev\000"
 2534      657600
 2535              	.LASF118:
 2536 05d5 52455345 		.ascii	"RESERVED6\000"
 2536      52564544 
 2536      3600
 2537              	.LASF23:
 2538 05df 74707269 		.ascii	"tprio_t\000"
 2538      6F5F7400 
 2539              	.LASF143:
 2540 05e7 6E5F6374 		.ascii	"n_ctxswc\000"
 2540      78737763 
 2540      00
 2541              	.LASF163:
 2542 05f0 5F426F6F 		.ascii	"_Bool\000"
 2542      6C00
 2543              	.LASF15:
 2544 05f6 696E7433 		.ascii	"int32_t\000"
 2544      325F7400 
 2545              	.LASF4:
 2546 05fe 756E7369 		.ascii	"unsigned char\000"
 2546      676E6564 
 2546      20636861 
 2546      7200
 2547              	.LASF45:
 2548 060c 705F6D74 		.ascii	"p_mtxlist\000"
 2548      786C6973 
 2548      7400
 2549              	.LASF5:
 2550 0616 73686F72 		.ascii	"short int\000"
 2550      7420696E 
 2550      7400
 2551              	.LASF38:
 2552 0620 705F7374 		.ascii	"p_state\000"
 2552      61746500 
 2553              	.LASF112:
 2554 0628 41484233 		.ascii	"AHB3LPENR\000"
ARM GAS  /var/folders/c6/c789hm653lg9vtl73krp73tm0000gn/T//cctpXYFN.s 			page 64


 2554      4C50454E 
 2554      5200
 2555              	.LASF58:
 2556 0632 725F7072 		.ascii	"r_prio\000"
 2556      696F00
 2557              	.LASF153:
 2558 0639 65776D61 		.ascii	"ewmask\000"
 2558      736B00
 2559              	.LASF30:
 2560 0640 705F6E65 		.ascii	"p_next\000"
 2560      787400
 2561              	.LASF39:
 2562 0647 705F666C 		.ascii	"p_flags\000"
 2562      61677300 
 2563              	.LASF48:
 2564 064f 705F7374 		.ascii	"p_stats\000"
 2564      61747300 
 2565              	.LASF108:
 2566 0657 41504232 		.ascii	"APB2ENR\000"
 2566      454E5200 
 2567              	.LASF65:
 2568 065f 63685F76 		.ascii	"ch_virtual_timer\000"
 2568      69727475 
 2568      616C5F74 
 2568      696D6572 
 2568      00
 2569              	.LASF154:
 2570 0670 63685F73 		.ascii	"ch_semaphore\000"
 2570      656D6170 
 2570      686F7265 
 2570      00
 2571              	.LASF44:
 2572 067d 705F6570 		.ascii	"p_epending\000"
 2572      656E6469 
 2572      6E6700
 2573              	.LASF116:
 2574 0688 52455345 		.ascii	"RESERVED5\000"
 2574      52564544 
 2574      3500
 2575              	.LASF16:
 2576 0692 75696E74 		.ascii	"uint32_t\000"
 2576      33325F74 
 2576      00
 2577              	.LASF152:
 2578 069b 77746D74 		.ascii	"wtmtxp\000"
 2578      787000
 2579              	.LASF57:
 2580 06a2 725F7175 		.ascii	"r_queue\000"
 2580      65756500 
 2581              	.LASF68:
 2582 06aa 76745F64 		.ascii	"vt_delta\000"
 2582      656C7461 
 2582      00
 2583              	.LASF52:
 2584 06b3 63685F74 		.ascii	"ch_threads_list\000"
 2584      68726561 
 2584      64735F6C 
ARM GAS  /var/folders/c6/c789hm653lg9vtl73krp73tm0000gn/T//cctpXYFN.s 			page 65


 2584      69737400 
 2585              	.LASF172:
 2586 06c3 646D6149 		.ascii	"dmaInit\000"
 2586      6E697400 
 2587              	.LASF10:
 2588 06cb 6C6F6E67 		.ascii	"long unsigned int\000"
 2588      20756E73 
 2588      69676E65 
 2588      6420696E 
 2588      7400
 2589              	.LASF161:
 2590 06dd 63686172 		.ascii	"char\000"
 2590      00
 2591              	.LASF97:
 2592 06e2 41484232 		.ascii	"AHB2RSTR\000"
 2592      52535452 
 2592      00
 2593              	.LASF29:
 2594 06eb 74687265 		.ascii	"thread_t\000"
 2594      61645F74 
 2594      00
 2595              	.LASF137:
 2596 06f4 62657374 		.ascii	"best\000"
 2596      00
 2597              	.LASF160:
 2598 06f9 6D5F6E65 		.ascii	"m_next\000"
 2598      787400
 2599              	.LASF28:
 2600 0700 73797374 		.ascii	"systime_t\000"
 2600      696D655F 
 2600      7400
 2601              	.LASF46:
 2602 070a 705F7265 		.ascii	"p_realprio\000"
 2602      616C7072 
 2602      696F00
 2603              	.LASF63:
 2604 0715 76746675 		.ascii	"vtfunc_t\000"
 2604      6E635F74 
 2604      00
 2605              	.LASF9:
 2606 071e 5F5F7569 		.ascii	"__uint32_t\000"
 2606      6E743332 
 2606      5F7400
 2607              	.LASF139:
 2608 0729 6C617374 		.ascii	"last\000"
 2608      00
 2609              	.LASF76:
 2610 072e 70616E69 		.ascii	"panic_msg\000"
 2610      635F6D73 
 2610      6700
 2611              	.LASF135:
 2612 0738 6F666673 		.ascii	"offset\000"
 2612      657400
 2613              	.LASF107:
 2614 073f 41504231 		.ascii	"APB1ENR\000"
 2614      454E5200 
 2615              	.LASF104:
ARM GAS  /var/folders/c6/c789hm653lg9vtl73krp73tm0000gn/T//cctpXYFN.s 			page 66


 2616 0747 41484232 		.ascii	"AHB2ENR\000"
 2616      454E5200 
 2617              	.LASF124:
 2618 074f 636F6E74 		.ascii	"context\000"
 2618      65787400 
 2619              	.LASF61:
 2620 0757 725F6F6C 		.ascii	"r_older\000"
 2620      64657200 
 2621              	.LASF170:
 2622 075f 68616C5F 		.ascii	"hal_lld_init\000"
 2622      6C6C645F 
 2622      696E6974 
 2622      00
 2623              	.LASF18:
 2624 076c 7274636E 		.ascii	"rtcnt_t\000"
 2624      745F7400 
 2625              	.LASF70:
 2626 0774 76745F70 		.ascii	"vt_par\000"
 2626      617200
 2627              	.LASF119:
 2628 077b 53534347 		.ascii	"SSCGR\000"
 2628      5200
 2629              	.LASF53:
 2630 0781 74687265 		.ascii	"threads_queue_t\000"
 2630      6164735F 
 2630      71756575 
 2630      655F7400 
 2631              	.LASF157:
 2632 0791 63685F6D 		.ascii	"ch_mutex\000"
 2632      75746578 
 2632      00
 2633              	.LASF40:
 2634 079a 705F7265 		.ascii	"p_refs\000"
 2634      667300
 2635              	.LASF77:
 2636 07a1 6973725F 		.ascii	"isr_cnt\000"
 2636      636E7400 
 2637              	.LASF117:
 2638 07a9 42444352 		.ascii	"BDCR\000"
 2638      00
 2639              	.LASF82:
 2640 07ae 726C6973 		.ascii	"rlist\000"
 2640      7400
 2641              	.LASF14:
 2642 07b4 75696E74 		.ascii	"uint8_t\000"
 2642      385F7400 
 2643              	.LASF149:
 2644 07bc 77746F62 		.ascii	"wtobjp\000"
 2644      6A7000
 2645              	.LASF36:
 2646 07c3 705F6E61 		.ascii	"p_name\000"
 2646      6D6500
 2647              	.LASF103:
 2648 07ca 41484231 		.ascii	"AHB1ENR\000"
 2648      454E5200 
 2649              	.LASF95:
 2650 07d2 43464752 		.ascii	"CFGR\000"
ARM GAS  /var/folders/c6/c789hm653lg9vtl73krp73tm0000gn/T//cctpXYFN.s 			page 67


 2650      00
 2651              	.LASF20:
 2652 07d7 746D6F64 		.ascii	"tmode_t\000"
 2652      655F7400 
 2653              	.LASF79:
 2654 07df 74726163 		.ascii	"trace_buffer\000"
 2654      655F6275 
 2654      66666572 
 2654      00
 2655              	.LASF43:
 2656 07ec 705F6D73 		.ascii	"p_msg\000"
 2656      6700
 2657              	.LASF144:
 2658 07f2 6D5F6372 		.ascii	"m_crit_thd\000"
 2658      69745F74 
 2658      686400
 2659              	.LASF159:
 2660 07fd 6D5F6F77 		.ascii	"m_owner\000"
 2660      6E657200 
 2661              	.LASF128:
 2662 0805 73655F77 		.ascii	"se_wtobjp\000"
 2662      746F626A 
 2662      7000
 2663              	.LASF33:
 2664 080f 705F6374 		.ascii	"p_ctx\000"
 2664      7800
 2665              	.LASF69:
 2666 0815 76745F66 		.ascii	"vt_func\000"
 2666      756E6300 
 2667              		.comm	__gnu_lto_v1,1,1
 2668              		.ident	"GCC: (GNU Tools for ARM Embedded Processors) 4.8.4 20140725 (release) [ARM/embedded-4_8-br
ARM GAS  /var/folders/c6/c789hm653lg9vtl73krp73tm0000gn/T//cctpXYFN.s 			page 68


DEFINED SYMBOLS
                            *ABS*:0000000000000000 hal_lld.c
/var/folders/c6/c789hm653lg9vtl73krp73tm0000gn/T//cctpXYFN.s:248    .text.hal_lld_init:0000000000000000 $t
/var/folders/c6/c789hm653lg9vtl73krp73tm0000gn/T//cctpXYFN.s:254    .text.hal_lld_init:0000000000000000 hal_lld_init
/var/folders/c6/c789hm653lg9vtl73krp73tm0000gn/T//cctpXYFN.s:335    .text.hal_lld_init:0000000000000060 $d
/var/folders/c6/c789hm653lg9vtl73krp73tm0000gn/T//cctpXYFN.s:341    .text.stm32_clock_init:0000000000000000 $t
/var/folders/c6/c789hm653lg9vtl73krp73tm0000gn/T//cctpXYFN.s:347    .text.stm32_clock_init:0000000000000000 stm32_clock_init
/var/folders/c6/c789hm653lg9vtl73krp73tm0000gn/T//cctpXYFN.s:471    .text.stm32_clock_init:00000000000000b4 $d
/var/folders/c6/c789hm653lg9vtl73krp73tm0000gn/T//cctpXYFN.s:484    .data.SystemCoreClock:0000000000000000 SystemCoreClock
/var/folders/c6/c789hm653lg9vtl73krp73tm0000gn/T//cctpXYFN.s:481    .data.SystemCoreClock:0000000000000000 $d
                            *COM*:0000000000000001 __gnu_lto_v1
                     .debug_frame:0000000000000010 $d
/var/folders/c6/c789hm653lg9vtl73krp73tm0000gn/T//cctpXYFN.s:340    .text.hal_lld_init:0000000000000068 $t
/var/folders/c6/c789hm653lg9vtl73krp73tm0000gn/T//cctpXYFN.s:480    .text.stm32_clock_init:00000000000000c8 $t

UNDEFINED SYMBOLS
dmaInit
