ARM GAS  /var/folders/c6/c789hm653lg9vtl73krp73tm0000gn/T//cc3LgWEg.s 			page 1


   1              		.syntax unified
   2              		.cpu cortex-m4
   3              		.fpu softvfp
   4              		.eabi_attribute 20, 1
   5              		.eabi_attribute 21, 1
   6              		.eabi_attribute 23, 3
   7              		.eabi_attribute 24, 1
   8              		.eabi_attribute 25, 1
   9              		.eabi_attribute 26, 1
  10              		.eabi_attribute 30, 2
  11              		.eabi_attribute 34, 1
  12              		.eabi_attribute 18, 4
  13              		.thumb
  14              		.file	"hal_mmcsd.c"
  15              		.text
  16              	.Ltext0:
  17              		.section	.gnu.lto_.jmpfuncs.6d89f25ba23a264a,"",%progbits
  18 0000 789CD596 		.ascii	"x\234\325\226KK\303@\024\205\347\246\2551\266\265\005"
  18      4B4BC340 
  18      1485E7A6 
  18      AD31B6B5 
  18      05
  19 0011 5154045D 		.ascii	"QT\004]\370@\301\326G\305\342{#*\250\025\024\354Nw\332"
  19      F840C1D6 
  19      47C5E27B 
  19      232AA815 
  19      14EC4E77 
  20 0026 45D0958A 		.ascii	"E\320\225\212b\355\317\360\267\012\202I\3323=c\246P"
  20      62EDCFF0 
  20      B70A8249 
  20      DA333D63 
  20      A650
  21 0038 EC42DA4D 		.ascii	"\354B\332M>\276IB\346\334\323\020G9\312\366\373\366"
  21      3EBE4942 
  21      E6DCD310 
  21      4739CAF6 
  21      FBF6
  22 004a 9A474FB9 		.ascii	"\232GO\271\342\274\251\257\306g#_\023\345Kd\035I$\202"
  22      E2BCA9AF 
  22      C667235F 
  22      13E54B64 
  22      1D492482 
  23 005e C39328A7 		.ascii	"\303\223(\247*5\221\023\325\202=\245\232+\020\253\200"
  23      2A359113 
  23      D5823DA5 
  23      9A2B10AB 
  23      80
  24 006f E2EF954B 		.ascii	"\342\357\225K\300E\260\"\346\332!`E)i\255\230g|\000"
  24      C045B022 
  24      E6DA2160 
  24      452969AD 
  24      98677C00 
  25 0083 EAC119ED 		.ascii	"\352\301\031\355\007t|\211\2360%$\023\276D\233t\303"
  25      07747C89 
  25      9E302524 
  25      13BE449B 
  25      74C3
ARM GAS  /var/folders/c6/c789hm653lg9vtl73krp73tm0000gn/T//cc3LgWEg.s 			page 2


  26 0095 5B34AFDA 		.ascii	"[4\257\332\004\214\0077\006o\003\312$\367\001;$\357"
  26      048C0737 
  26      066F03CA 
  26      24F7013B 
  26      24EF
  27 00a7 00B7246F 		.ascii	"\000\267$o\000U\222\327\274Kp\005pL\362\010p@\362\031"
  27      005592D7 
  27      BC4B7005 
  27      704CF208 
  27      7040F219 
  28 00bb 704F52EF 		.ascii	"pOR\357\375\205d\0320Hr\004\220!\351\002\304\210.\351"
  28      FD85641A 
  28      30487204 
  28      9021E902 
  28      C4882EE9 
  29 00cf 47492BAF 		.ascii	"GI+\257\235R\021\220\247\313\327i6\361<K\377\221\222"
  29      9D521190 
  29      A7CBD769 
  29      36F13C4B 
  29      FF9192
  30 00e2 9E51F94F 		.ascii	"\236Q\371O\321\345l)Y\363\354\034]2\214.\335\216\356"
  30      D1E56C29 
  30      59F3EC1C 
  30      5D328C2E 
  30      DD8EEE
  31 00f5 9C40CB51 		.ascii	"\234@\313Q\002-'\000c$g\0013$\247\011\342\311o\220,"
  31      022D2700 
  31      63246701 
  31      3324A709 
  31      E2C96F90 
  32 010a 01D648EE 		.ascii	"\001\326H\356R\317\265\334\262Eg\035\\\306\226\222\016"
  32      52CFB5DC 
  32      B245671D 
  32      5CC69692 
  32      0E
  33 011b F991E43B 		.ascii	"\371\221\344;\340\225\344\031A|\304\025\222\306\213"
  33      E095E419 
  33      417CC415 
  33      92C68B
  34 012a 013C0598 		.ascii	"\001<\005\230$\231%\320\362\3016\367\034A|\304C$\013"
  34      249925D0 
  34      F2C136F7 
  34      1C417CC4 
  34      43240B
  35 013d 8025928B 		.ascii	"\200%\222\213\2009\222\236\255!\247\004\361\326\325"
  35      8039929E 
  35      AD21A704 
  35      F1D6D5
  36 014c 3B7449CB 		.ascii	";tI\313a\202\370_\346\212\244\361b\005\363{\330\354"
  36      6182F85F 
  36      E68AA4F1 
  36      6205F37B 
  36      D8EC
  37 015e 672AEC67 		.ascii	"g*\354g\266\247~\362\334\347\273\356g\217]\352\227\332"
  37      B6A77EF2 
  37      DCE7BBEE 
  37      678F5DEA 
ARM GAS  /var/folders/c6/c789hm653lg9vtl73krp73tm0000gn/T//cc3LgWEg.s 			page 3


  37      97DA
  38 0170 2C03166C 		.ascii	",\003\026l]*\364AC\006\302\206\344\372\257!\326\344"
  38      5D2AF441 
  38      4306C286 
  38      E4FAAF21 
  38      D6E4
  39 0182 FBA5363D 		.ascii	"\373\2456=6\244\3732X\273d|f\031ep\243\317\274\037\336"
  39      36A4FB32 
  39      58BB647C 
  39      66196570 
  39      A3CFBC1F 
  40 0197 5704D0   		.ascii	"W\004\320"
  41              		.text
  42              		.section	.gnu.lto_.inline.6d89f25ba23a264a,"",%progbits
  43 0000 789C6362 		.ascii	"x\234cb`b\300\006\334\331 4'\003\203\262\034#3##\220"
  43      6062C006 
  43      DCD92034 
  43      270383B2 
  43      1C233323 
  44 0016 CD042218 		.ascii	"\315\004\"\030@\004\273\320\024G\006\266\005\362L\014"
  44      4004BBD0 
  44      144706B6 
  44      05F24C0C 
  45 0026 7C4FE279 		.ascii	"|O\342y\030\270\376\230p0\360\314\011aa`\271\300/\301"
  45      18B8FE98 
  45      7030F0CC 
  45      09616160 
  45      B9C02FC1 
  46 003a C0D4C326 		.ascii	"\300\324\303&\002R\311\304\015R\315\304 n\010$\271&"
  46      0252C9C4 
  46      0D52CDC4 
  46      206E0824 
  46      B926
  47 004c F8417400 		.ascii	"\370At\000\001+\037\003\0033\220\217\205\301\314 \003"
  47      012B1F03 
  47      0333908F 
  47      85C1CC20 
  47      03
  48 005d B48E213D 		.ascii	"\264\216!=\2021\223\221\025\2446\003\316\002Y\314,p"
  48      82319391 
  48      15A43603 
  48      CE0259CC 
  48      2C70
  49 006f 4593816D 		.ascii	"E\223\201m\016\320\030\226\005\362\002(f1\363\000\225"
  49      0ED01896 
  49      05F20228 
  49      6631F300 
  49      95
  50 0080 4CF083F3 		.ascii	"L\360\203\363\201\266\263\000\365\2602\010\362\303\014"
  50      81B6B300 
  50      F5B03208 
  50      F2C30C
  51 008f 64831BC8 		.ascii	"d\203\033\310\2060\260\241\226\201\353\200\035\302@"
  51      8630B0A1 
  51      9681EB80 
  51      1DC240
  52 009e A83E7686 		.ascii	"\250>v\206\033\014g\031\201\012\301:\331\341:A,F\260"
ARM GAS  /var/folders/c6/c789hm653lg9vtl73krp73tm0000gn/T//cc3LgWEg.s 			page 4


  52      1B0C6719 
  52      810AC13A 
  52      D9E13A41 
  52      2C46B0
  53 00b1 18078895 		.ascii	"\030\007\210\225\001c\201M\003\007\023\013\377\214R"
  53      0163814D 
  53      0307130B 
  53      FF8C52
  54 00c0 06E1172D 		.ascii	"\006\341\027-\214`3\035\030X&\3106@\224\340\3617\355"
  54      8C60331D 
  54      185826C8 
  54      364094E0 
  54      F137ED
  55 00d3 1840FF88 		.ascii	"\030@\377\210\000\035\307\311p\217\341\016^\377p\302"
  55      001DC7C9 
  55      708FE10E 
  55      5EFF70C2 
  56 00e3 FDC389EA 		.ascii	"\375\303\211\352\037P\020\211\\\350\031$\376A\367\030"
  56      1F501089 
  56      5CE81924 
  56      FE41F718 
  57 00f3 37C361C6 		.ascii	"7\303a\306[\314\370<\306\005\367\030\027\252\307\344"
  57      5BCCF83C 
  57      C605F718 
  57      17AAC7E4 
  58 0103 677C6264 		.ascii	"g|bdP\3351\221i\220\371l\3202\240A\316\3130\227\361"
  58      50DD3191 
  58      6990F96C 
  58      D032A041 
  58      CECB3097 
  59 0118 0F132C57 		.ascii	"\017\023,W\241\0069$WI\2568\314\310 \177\342\021#\226"
  59      A1063924 
  59      5749AE38 
  59      CCC8207F 
  59      E2112396 
  60 012c 8C3A5C19 		.ascii	"\214:\\\031\320\202\203\237a:\343[\274\201#q`7#\203"
  60      D082839F 
  60      613AE35B 
  60      BC812371 
  60      60372383 
  61 0140 DC835B23 		.ascii	"\334\203[# p\240a\302\000\000~\345\263\331"
  61      2070A061 
  61      C200007E 
  61      E5B3D9
  62              		.text
  63              		.section	.gnu.lto_.pureconst.6d89f25ba23a264a,"",%progbits
  64 0000 789C6362 		.ascii	"x\234cb`b\020f\200\000N\006I&\011f\011VIv)N)n)^)~)\000"
  64      60621066 
  64      80004E06 
  64      49260966 
  64      09564976 
  65 001e 0CD10146 		.ascii	"\014\321\001F"
  66              		.text
  67              		.section	.gnu.lto__mmcsd_get_slice.6d89f25ba23a264a,"",%progbits
  68 0000 789C8D55 		.ascii	"x\234\215UMHTQ\024>\347\375\315s\034\377\377\377f\306"
  68      4D485451 
  68      143EE7FD 
ARM GAS  /var/folders/c6/c789hm653lg9vtl73krp73tm0000gn/T//cc3LgWEg.s 			page 5


  68      CD731CFF 
  68      FFFF66C6 
  69 0014 31885ACC 		.ascii	"1\210Z\314D\033wE\253V\265J\250U\0143iCM\202\343\"h"
  69      441B7745 
  69      AB56B54A 
  69      A8550C33 
  69      69434D82 
  70 002b E1CB6762 		.ascii	"\341\313gb6\206\375PT\033%D$*HH4\003\205\020\203~\010"
  70      3686FD50 
  70      541B2544 
  70      242A4848 
  70      34038510 
  71 0042 DCB40884 		.ascii	"\334\264\010\204\260\240\205\201-\002\261\246s\356{"
  71      B0A08581 
  71      2D02B1A6 
  71      73EE7B
  72 0051 F7E14C46 		.ascii	"\367\341LF\016z\317\275\347\373\276{\277s\356{3\012"
  72      0E7ACFBD 
  72      E7FBBE7B 
  72      BF73EE7B 
  72      330A
  73 0063 2850F849 		.ascii	"(P\370I\322\377\021\003\3408E,\002TF\337\001\\6\025"
  73      D2FF1103 
  73      E038452C 
  73      025446DF 
  73      015C3615 
  74 0077 455BA905 		.ascii	"E[\251\005\313\257\316\267\203\025P\025mh/\255t\036"
  74      CBAFCEB7 
  74      83155015 
  74      6D682FAD 
  74      741E
  75 0089 031AEA0E 		.ascii	"\003\032\352\016IW\214\371 \245}+1J\033h:i\237\234\230"
  75      49578CF9 
  75      20A57D2B 
  75      314A1B68 
  75      3A699F9C 
  76 009e 883C0184 		.ascii	"\210<\001\204>E\325t\303gb\337)\344S\215\010\214[\326"
  76      3E45D574 
  76      C36762DF 
  76      29E4538D 
  76      088C5BD6 
  77 00b2 E8EA95AF 		.ascii	"\350\352\225\257\253\352\275\333\013\003c\326V.\207"
  77      ABEABDDB 
  77      0B0363D6 
  77      562E87
  78 00c1 984272D8 		.ascii	"\230Br\330\206\220@8I\013\014\213\240h\371\226\205\366"
  78      86904038 
  78      490B0C8B 
  78      A068F996 
  78      85F6
  79 00d3 E6C28DC1 		.ascii	"\346\302\215\301\353\015\326X\377\250\365\233\244)T"
  79      EB0DD658 
  79      FFA8F59B 
  79      A42954
  80 00e2 1588EE4E 		.ascii	"\025\210\356Ni}J.[\003\013\271\334a\241j\337\245\352"
  80      697D4A2E 
  80      5B030BB9 
ARM GAS  /var/folders/c6/c789hm653lg9vtl73krp73tm0000gn/T//cc3LgWEg.s 			page 6


  80      DC61A16A 
  80      DFA5EA
  81 00f5 579EEAD0 		.ascii	"W\236\352\320.]\336\312w\251)p\364\177\3124\302Sea5"
  81      2E5DDECA 
  81      77A92970 
  81      F47FCA34 
  81      C2536561 
  82 010a 97DBFA7E 		.ascii	"\227\333\372~g\251\021\367 \220N\3054\242F\203\242\323"
  82      67A911F7 
  82      20904EC5 
  82      34A24683 
  82      A2D3
  83 011c 5237218E 		.ascii	"R7!\216\0171\002E\024')\372)NP,f0\300C\011\015P\312"
  83      0F310245 
  83      142729FA 
  83      294E502C 
  83      6630C043 
  84 0134 B332C2A6 		.ascii	"\2632\302\246\010+\247\205ZA[\250\22543\252\030\253"
  84      082BA785 
  84      5A415BA8 
  84      953433AA 
  84      18AB
  85 0146 266C9CB0 		.ascii	"&l\234\260\032^\3242\241\216\261z^6\360\320\310\271"
  85      1A5ED432 
  85      A18EB17A 
  85      5E36F0D0 
  85      C8B9
  86 0158 26DEAB99 		.ascii	"&\336\253\231\227-\354%\310\271\020\363\302\234k\345"
  86      972DEC25 
  86      C8B910F3 
  86      C29C6BE5 
  87 0168 21E26ED4 		.ascii	"!\342n\324\306\004*B\207\001\272\340\260\343\322\361"
  87      C6042A42 
  87      8701BAE0 
  87      B0E3D2F1 
  88 0178 E63875BC 		.ascii	"\3468u\274\244\3711H\210g\341\004\215\374\230t\240\302"
  88      A4F93148 
  88      8867E104 
  88      8DFC9874 
  88      A0C2
  89 018a 515D8657 		.ascii	"Q]\206Wk\213w\2270\216\217P\207.T\273p[\203:P\205\371"
  89      6B8B7797 
  89      308E8F50 
  89      872E54BB 
  89      705B833A 
  90 01a1 76F52DD8 		.ascii	"v\365-\330WU\311\320%\211\244_<\235\316\275\325B\260"
  90      5755C9D0 
  90      2589A45F 
  90      3C9DCEBD 
  90      D542B0
  91 01b4 5DABC1B3 		.ascii	"]\253\301\263\203\352{\320\034\016\300%\330\264\206"
  91      83EA7BD0 
  91      1C0EC025 
  91      D8B486
  92 01c3 ACF214FA 		.ascii	"\254\362\024\372\022(\314\210L}\012M2\350\222R\364Z"
  92      1228CC88 
  92      4C7D0A4D 
ARM GAS  /var/folders/c6/c789hm653lg9vtl73krp73tm0000gn/T//cc3LgWEg.s 			page 7


  92      32E89252 
  92      F45A
  93 01d5 B8725D18 		.ascii	"\270r]\030\244\263G\354\231l\263<\310\244\263\371,="
  93      A4B347EC 
  93      996CB33C 
  93      C8A4B3F9 
  93      2C3D
  94 01e7 4CA4D7A0 		.ascii	"L\244\327\2408y\247rB\001H\360\302\236\015H~\221\313"
  94      3879A772 
  94      420148F0 
  94      C29E0D48 
  94      7E91CB
  95 01fa 5743F9FC 		.ascii	"WC\371\374I\301/\022\374\021\373\245\307\367Sy;\355"
  95      49C12F12 
  95      FC11FBA5 
  95      C7F75379 
  95      3BED
  96 020c 3F21F87E 		.ascii	"?!\370~w\377\317\331cRP,\005|\000\201C\366\206\"\261"
  96      77FFCFD9 
  96      6352502C 
  96      057C0081 
  96      43F68622 
  97 0221 00C10243 		.ascii	"\000\301\002C\201\365\257\333\033^\307J\010\026\202"
  97      81F5AFDB 
  97      1B5EC74A 
  97      081682
  98 0230 C75E6B4B 		.ascii	"\307^kK].\201\356V=\022*\223h\216>e\371\326\246\204"
  98      5D2E81EE 
  98      563D122A 
  98      93688E3E 
  98      65F9D6A6 
  99 0245 B5327123 		.ascii	"\2652q#k\2133\203\352\266^\371\267_\210\001\363An\350"
  99      6B8B3383 
  99      EAB65EF9 
  99      B75F8801 
  99      F3416EE8 
 100 0259 B0FD23BB 		.ascii	"\260\375#\273O\222\312\211'\032\2449\376\257y\362\312"
 100      4F92CA89 
 100      271AA439 
 100      FEAF79F2 
 100      CA
 101 026a 2EAC205C 		.ascii	".\254 \\8\237\323e\266\352\001\334':\365\251\222e\206"
 101      389FD365 
 101      B6EA01DC 
 101      273AF5A9 
 101      926586
 102 027d BB7B4175 		.ascii	"\273{Au\325\262\267O\274\355jHK\200\310\016\333?\263"
 102      D5B2B74F 
 102      BCED6A48 
 102      4B80C80E 
 102      DB3FB3
 103 0290 FB25504B 		.ascii	"\373%PK6wvP'\034\324\0268\250\367\034\324\345;\240\213"
 103      36777650 
 103      271CD416 
 103      38A8F71C 
 103      D4E53BA0 
 104 02a5 59F71C34 		.ascii	"Y\367\0344\020Qt\205\237^{\323\273\223FqTX^>\271\236"
ARM GAS  /var/folders/c6/c789hm653lg9vtl73krp73tm0000gn/T//cc3LgWEg.s 			page 8


 104      10517485 
 104      9F5E7BD3 
 104      BB934671 
 104      54585E3E 
 105 02bb F3B02682 		.ascii	"\363\260&\202\013\356\244Y\354\324$\262\263\3247\317"
 105      0BEEA459 
 105      ECD424B2 
 105      B3D437CF 
 106 02cb 458BA8A8 		.ascii	"E\213\250\250Y\366\326\007+1\247\267\271lHr\202\377"
 106      59F6D607 
 106      2B31A7B7 
 106      B96C4872 
 106      82FF
 107 02dd EC6D4854 		.ascii	"\354mHT\026,\250,\354U\026\372\253\262o^e\255Dt+#\367"
 107      162CA82C 
 107      EC5516FA 
 107      ABB26F5E 
 107      65AD4474 
 108 02f4 CF3DF711 		.ascii	"\317=\367\021\257\347v\251\314\265\011zD\2724\305;\365"
 108      AFE776A9 
 108      CCB5097A 
 108      44BA34C5 
 108      3BF5
 109 0306 817E2E80 		.ascii	"\201~.\200@\361\022~\004\244b\2147\323tem\276\255\351"
 109      40F1127E 
 109      04A4628C 
 109      37D37465 
 109      6DBEADE9 
 110 031a 007F4920 		.ascii	"\000\177I \363\370\367+\034\215\306\234\277\356L\354"
 110      F3F8F72B 
 110      1C8DC69C 
 110      BFEE4CEC 
 111 032a 6CFC7C2C 		.ascii	"l\374|,\323\223\340x:\235Nd\222\321\004\3703\275\361"
 111      D393E078 
 111      3A9D4E64 
 111      92D104F8 
 111      33BDF1
 112 033d 9EDEEECE 		.ascii	"\236\336\356\316\316\350\001SLS\311\213\306\231\013"
 112      CEE80153 
 112      4C53C98B 
 112      C6990B
 113 034c 490AA684 		.ascii	"I\012\246\204|\264N\3073\347\376\000\222=x\024"
 113      7CB44EC7 
 113      33E7FE00 
 113      923D7814 
 114              		.text
 115              		.section	.gnu.lto__mmcsd_get_capacity.part.0.6d89f25ba23a264a,"",%progbits
 116 0000 789C8D92 		.ascii	"x\234\215\222\301K[A\020\306\347\333\335\227\274\304"
 116      C14B5B41 
 116      10C6E7DB 
 116      DD97BCC4 
 117 0010 40EBC573 		.ascii	"@\353\305s\260\210\001!\241\377@{\356\255P\005{*\361"
 117      B0880121 
 117      A1FF407B 
 117      EEAD5005 
 117      7B2AF1
 118 0023 0562C020 		.ascii	"\005b\300 \230\243\007\267M(\236\212\364\326\233!\024"
ARM GAS  /var/folders/c6/c789hm653lg9vtl73krp73tm0000gn/T//cc3LgWEg.s 			page 9


 118      98A307B7 
 118      4D289E8A 
 118      F4D69B21 
 118      14
 119 0034 4FAD677B 		.ascii	"O\255g{\251\227BE\022\355\321[@\360\330B/\205 \2543"
 119      A9974245 
 119      12EDD15B 
 119      40F0D842 
 119      2F8520AC 
 120 0049 BB790FAC 		.ascii	"\273y\017\254H\273$\363\315\233y\363\233\335\331\247"
 120      48BB24F3 
 120      CD9B79F3 
 120      9BDDD9A7 
 121 0059 48D1DF6B 		.ascii	"H\321\337k\211\377s\232\250\302\212\210`\366F\354\030"
 121      89FF739A 
 121      A8C28A88 
 121      60F646EC 
 121      18
 122 006a 28AF0A5A 		.ascii	"(\257\012Z\364u\254\001q\010\264c\224\306\316KH\261"
 122      F475AC01 
 122      7108B463 
 122      94C6CE4B 
 122      48B1
 123 007c 6983E6A9 		.ascii	"i\203\346\251o\355\373\361\267_\347\352\203=\356\355"
 123      6FEDFBF1 
 123      B75FE7EA 
 123      833DEEED 
 124 008c DB6BE780 		.ascii	"\333k\347\200\026\270\327#P\002Z\345\007\224\275(s\273"
 124      16B8D723 
 124      50025AE5 
 124      0794BD28 
 124      73BB
 125 009e 79A8B55F 		.ascii	"y\250\265_\033\337m\357\330\271\247\276j\341?\253\216"
 125      1BDF6DEF 
 125      D8B9A7BE 
 125      6AE13FAB 
 125      8E
 126 00af 6E552DFE 		.ascii	"nU-\376\253\352P\331\261sG\223x\026h\003\212\352\370"
 126      ABEA50D9 
 126      B1734793 
 126      78166803 
 126      8AEAF8
 127 00c2 8879D2AC 		.ascii	"\210y\322\254\003V\303\332g\215\250\005\235\023\223"
 127      0356C3DA 
 127      678DA805 
 127      9D1393
 128 00d1 676362F1 		.ascii	"gcb\361\012b\212\3628\303\206JbxE\324\263v\257\0348"
 128      0A628AF2 
 128      38C3864A 
 128      627845D4 
 128      B376AF1C 
 129 00e6 81121824 		.ascii	"\201\022\030$[\341\265\314V\246\266\014#\252W\270\253"
 129      5BE1B5CC 
 129      56A6B60C 
 129      23AA57B8 
 129      AB
 130 00f7 E8290FB4 		.ascii	"\350)\017\264\216\003\036w\203#tFo\307\303K\204H\023"
ARM GAS  /var/folders/c6/c789hm653lg9vtl73krp73tm0000gn/T//cc3LgWEg.s 			page 10


 130      8E031E77 
 130      83237446 
 130      6FC7C34B 
 130      844813
 131 010a 6A9B2676 		.ascii	"j\233&v\327>l!J\3409\034\204\034\211\236\371\223\321"
 131      D73E6C21 
 131      4AE0391C 
 131      841C899E 
 131      F993D1
 132 011d 13DE408E 		.ascii	"\023\336@\216\350\204T\250\011;hNY\373#\235\242\364"
 132      E88454A8 
 132      093B684E 
 132      59FB239D 
 132      A2F4
 133 012f FDA8C701 		.ascii	"\375\250\307\001U\273\203\032x\224\016\250\263\014e"
 133      55BB831A 
 133      78940EA8 
 133      B30C65
 134 013e EE47BD08 		.ascii	"\356G\275\010\250\347wP}\217\342{\030Rw\267{\371\256"
 134      A8E77750 
 134      7D8FE27B 
 134      185277B7 
 134      7BF9AE
 135 0151 92C222DE 		.ascii	"\222\302\"\336\253\324h\001\371\344\357\354\3709n\356"
 135      ABD46801 
 135      F9E4EFEC 
 135      F8396EEE 
 136 0161 73CAE7DE 		.ascii	"s\312\347\336\374\354~\311r\371\246t\340\202O\331\276"
 136      FCEC7EC9 
 136      72F9A674 
 136      E0824FD9 
 136      BE
 137 0172 624FCB4F 		.ascii	"bO\313O1W*\215\027\270\261\307\374q\316=HQ\237\263|"
 137      31572A8D 
 137      17B8B1C7 
 137      FC71CE3D 
 137      48519FB3 
 138 0187 915F09A8 		.ascii	"\221_\011\250\356\\\032\233\361\270b\370^Vx\006\351"
 138      EE5C1A9B 
 138      F1B862F8 
 138      5E567806 
 138      E9
 139 0198 65115F14 		.ascii	"e\021_\024O\344\207w\233(I\376\202J\\\241\3745C\336"
 139      4FE48777 
 139      9B2849FE 
 139      824A5CA1 
 139      FC3543DE 
 140 01ac 14B75CAD 		.ascii	"\024\267\\\255\326\302o\263S[\257o\324:[\211\350\253"
 140      D6C26FB3 
 140      535BAF6F 
 140      D43A5B89 
 140      E8AB
 141 01be 763BE934 		.ascii	"v;\3514\252\011!\301\032\3527\300\215\264\003"
 141      AA0921C1 
 141      1AEA37C0 
 141      8DB403
 142              		.text
ARM GAS  /var/folders/c6/c789hm653lg9vtl73krp73tm0000gn/T//cc3LgWEg.s 			page 11


 143              		.section	.gnu.lto__mmcsd_get_capacity.6d89f25ba23a264a,"",%progbits
 144 0000 789C8D52 		.ascii	"x\234\215RM\213\023A\020}\325\335\363\341\232\215\202"
 144      4D8B1341 
 144      107DD5DD 
 144      F3E19A8D 
 144      82
 145 0011 20BA2004 		.ascii	" \272 \004E\364\224\370\017<\371\017\\P<\310:\201u\300"
 145      45F494F8 
 145      0F3CF90F 
 145      5C503CC8 
 145      3A8175C0 
 146 0025 2098A360 		.ascii	" \230\243`:f6,\313\252\321\203'\221,\336<(\010\202\027"
 146      3A66362C 
 146      CBAAD183 
 146      27912CDE 
 146      3C280882 
 147 003a 318268F0 		.ascii	"1\202h\360+x\360 ^\002\036\274z^\320\261\252{2\230\005"
 147      2B78F020 
 147      5E021EBC 
 147      7A5ED0B1 
 147      AA7B3298 
 148 004f D161A6AA 		.ascii	"\321a\246\252\247^\277\252W\325\255\240\260\3639\307"
 148      A75EBFAA 
 148      57D5ADA0 
 148      B0F339C7 
 149 005f DF210D1C 		.ascii	"\337!\015\034gO1H\015>\002\335X)=\014`\027\314\2171"
 149      674F3148 
 149      0D3E02DD 
 149      58293D0C 
 149      6017CC8F 
 150 0074 602B9A8C 		.ascii	"`+\232\214\217\033\035\255-\301\306\201\263\241_S$ "
 150      8F1B1DAD 
 150      2DC1C681 
 150      B3A15F53 
 150      2420
 151 0086 85DE77E3 		.ascii	"\205\336w\343\210H\026 t\2246A\030Q\347,I1j\021\036"
 151      88481620 
 151      74943641 
 151      1851E72C 
 151      49316A11 
 152 009b ABD134CF 		.ascii	"\253\3214\317\037m\277~z\217\356\253=\204\224\240\305"
 152      1F6DBF7E 
 152      7A8FEEAB 
 152      3D8494A0 
 152      C5
 153 00ac 18465941 		.ascii	"\030FYAJT\021\263(\246*\000?\0012k\007\265\303\330\262"
 153      4A5411B3 
 153      28A62A00 
 153      3F01326B 
 153      07B5C3D8 
 154 00c1 F6CEE867 		.ascii	"\366\316\350g\377\346A;\274>\260\277\362\234x\203\302"
 154      FFE6413B 
 154      BC3EB0BF 
 154      F29C7883 
 154      C2
 155 00d2 11424238 		.ascii	"\021BB8\303?\252\346\2346\363mz\246}\321\034\333l\224"
 155      C33FAAE6 
ARM GAS  /var/folders/c6/c789hm653lg9vtl73krp73tm0000gn/T//cc3LgWEg.s 			page 12


 155      9C36F36D 
 155      7AA67DD1 
 155      1CDB6C94 
 156 00e6 E7271DEB 		.ascii	"\347'\035\353\350\177\262>\317\261\216\375\213\325\022"
 156      E87FB23E 
 156      CFB18EFD 
 156      8BD512
 157 00f5 C989D37D 		.ascii	"\311\211\323}\232\255\214b\231\224x=\306\253\357/o\277"
 157      9AAD8C62 
 157      9994783D 
 157      C6ABEF2F 
 157      6FBF
 158 0107 A115DAA2 		.ascii	"\241\025\332\242\000\253d\204?G_&\215a\240'0~\017p\025"
 158      00AB6484 
 158      3F475F26 
 158      8D61A027 
 158      307E0F70 
 159 011c DB76DDEE 		.ascii	"\333v\335\356M)H\310%u\221\003)\205\\\250\330\224R4"
 159      4D2948C8 
 159      25759103 
 159      29855CA8 
 159      D8945234 
 160 0130 A31B5768 		.ascii	"\243\033Wh\202\376\364\355\267\352\254N\\&\211\023\362"
 160      82FEF4ED 
 160      B7EAAC4E 
 160      5C268913 
 160      F2
 161 0141 97A0288E 		.ascii	"\227\240(\216\216\353\001\3278\307.\340=\262\221.Y7"
 161      8EEB01D7 
 161      38C72EE0 
 161      3DB2912E 
 161      5937
 162 0153 B0D9CDEC 		.ascii	"\260\331\315\354\350Y\224\322\202p\232\005\267\210\337"
 162      E85994D2 
 162      82709A05 
 162      B788DF
 163 0162 95B8637B 		.ascii	"\225\270c{P\377\011>)Ar\240\231k2\300\332\222~\307w"
 163      50FF093E 
 163      294172A0 
 163      996B32C0 
 163      DA927EC7 
 164 0177 C5D772DC 		.ascii	"\305\327r\334\011\262xVZ\227\202w'E^\026\234\362\325"
 164      09B27856 
 164      5A978277 
 164      27455E16 
 164      9CF2D5
 165 018a 2812843B 		.ascii	"(\022\204;\023\030I\320\237~}\260o\226\243\362\367\246"
 165      131849D0 
 165      9F7E7DB0 
 165      6F96A3F2 
 165      F7A6
 166 019c 4FF9A64F 		.ascii	"O\371\246O\370\246?\240\267\336{X\036\312\"S\005v\323"
 166      F8A63FA0 
 166      B7DE7B58 
 166      1ECA2253 
 166      0576D3
 167 01af 666CA3B7 		.ascii	"fl\243\267\177\006U\031u\220\215\313V\"\334\342\201"
ARM GAS  /var/folders/c6/c789hm653lg9vtl73krp73tm0000gn/T//cc3LgWEg.s 			page 13


 167      7F065519 
 167      75908DCB 
 167      5622DCE2 
 167      81
 168 01c0 8B946240 		.ascii	"\213\224b@\237\334r\325\037\326\027\020w\023\260\251"
 168      9FDC72D5 
 168      1FD61710 
 168      7713B0A9 
 169 01d0 86286665 		.ascii	"\206(fe6\237W\344n\2200EX\255^o\370\367r\273qq\345R"
 169      369F57E4 
 169      6E903045 
 169      58AD5E6F 
 169      F8F772BB 
 170 01e8 A37D2511 		.ascii	"\243}%\021\177\276\325J\332\315z\002\326v\201\222\337"
 170      7FBED54A 
 170      DACD7A02 
 170      D6768192 
 170      DF
 171 01f9 2E91B9B3 		.ascii	".\221\271\263"
 172              		.text
 173              		.section	.gnu.lto__mmcsd_get_capacity_ext.6d89f25ba23a264a,"",%progbits
 174 0000 789C6D92 		.ascii	"x\234m\222;O\002A\024\205\357\235]`y?l(\211?\000\012"
 174      3B4F0241 
 174      1485EF9D 
 174      5D60793F 
 174      6C28893F 
 175 0016 4BFD1990 		.ascii	"K\375\031\220\250\215!k\202kD\023)-X]\211\224\024T\022"
 175      A88D216B 
 175      826B4413 
 175      292D585D 
 175      89941454 
 176 002b 0B2B8C44 		.ascii	"\013+\214D)\354HL41j\203\306\304GcaggGC\203\367\316"
 176      29EC484C 
 176      34316A83 
 176      C6C44763 
 176      61676747 
 177 0043 324080CD 		.ascii	"2@\200\315\356\235\2313g\3167\223Y\001\002\246\237%"
 177      EE9D9933 
 177      67CE3793 
 177      590102A6 
 177      9F25
 178 0055 FACE485E 		.ascii	"\372\316H^\244\026=\200\242\366\002ph\010\241\365|`"
 178      A4163D80 
 178      A2F60270 
 178      6808A1F5 
 178      7C60
 179 0067 07F4C623 		.ascii	"\007\364\306#\200\035\322Pwu\035\221;\200P\026\232\216"
 179      801DD250 
 179      77751D91 
 179      3B805016 
 179      9A8E
 180 0079 E535E410 		.ascii	"\3455\344\020,\"\264\305\335\317`p\335?\271\375\306"
 180      2C22B4C5 
 180      DDCF6070 
 180      DD3FB9FD 
 180      C6
 181 008a 0BB12048 		.ascii	"\013\261 H\243<\013\301K\005}\\\014\036\372\271\027"
ARM GAS  /var/folders/c6/c789hm653lg9vtl73krp73tm0000gn/T//cc3LgWEg.s 			page 14


 181      A33C0BC1 
 181      4B057D5C 
 181      0C1EFAB9 
 181      17
 182 009b E012E412 		.ascii	"\340\022\344\022b-\314\275\010\227(\227\030kq\356%\250"
 182      622DCCBD 
 182      08972897 
 182      186B71EE 
 182      25A8
 183 00ad F09E3D70 		.ascii	"\360\236=pl\333\265T\221i\246Df\251\362Nr4O\255\366"
 183      6CDBB554 
 183      9169A644 
 183      66A9F24E 
 183      72344FAD 
 184 00c2 0C0FBFF7 		.ascii	"\014\017\277\367\203'\314\3439a\013(V\321Bm\362\244"
 184      8327CCE3 
 184      39610B28 
 184      56D1426D 
 184      F2A4
 185 00d4 391AF67C 		.ascii	"9\032\366|\332+\350\256\007\340\000\372v\325\216Y\250"
 185      DA2BE8AE 
 185      07E000FA 
 185      76D58E59 
 185      A8
 186 00e5 9B2843A5 		.ascii	"\233(C\245\222\264\320C\240\241\311B\257Z\256KP\027"
 186      92B4D043 
 186      A0A1C942 
 186      AF5AAE4B 
 186      5017
 187 00f7 8E3A9566 		.ascii	"\216:\225f}E\201<\0158%\224O!\277\334$ \337\237\263"
 187      7D45813C 
 187      0D382594 
 187      4F21BFDC 
 187      2420DF9F 
 188 010c AB5CDE02 		.ascii	"\253\\\336\002\207u\301\271r.\205\022i\215\227\327\030"
 188      8775C1B9 
 188      722E8512 
 188      698D97D7 
 188      18
 189 011d 49D7DFA9 		.ascii	"I\327\337\251\264\306\271\306T\356\347\334\\?\031gr"
 189      B4C6B9C6 
 189      54EEE7DC 
 189      5C3F1967 
 189      72
 190 012e 03A4CBDC 		.ascii	"\003\244\313\334\230\364;U\247Y_W\223A\311\015\014\201"
 190      98F43B55 
 190      A7595F57 
 190      9341C90D 
 190      0C81
 191 0140 ED313034 		.ascii	"\355104\005\374\230\013\014\223q\006\030!]\002\015\005"
 191      05FC980B 
 191      0C937106 
 191      18215D02 
 191      0D05
 192 0152 6C8D8151 		.ascii	"l\215\201Q\311\214\014\2017\365e5\021\233\002\276O\002"
 192      C98C0C81 
 192      37F56535 
ARM GAS  /var/folders/c6/c789hm653lg9vtl73krp73tm0000gn/T//cc3LgWEg.s 			page 15


 192      119B02BE 
 192      4F02
 193 0164 B7952B4E 		.ascii	"\267\225+N\306\321)4\245&dn\034\340\015FW\236p\227g"
 193      C6D12934 
 193      A526646E 
 193      1CE00D46 
 193      579E7097 
 194 0179 E92EE9A2 		.ascii	"\351.\351\242\370\267I\245\323\031\367\335+e\266\362"
 194      F8B749A5 
 194      D319F7DD 
 194      2B65B6F2 
 195 0189 3B99D2BE 		.ascii	";\231\322\276\311\355F\261h\2266\323&\374\003\365\013"
 195      C9ED46B1 
 195      689636D3 
 195      26FC03F5 
 195      0B
 196 019a A1E6     		.ascii	"\241\346"
 197              		.text
 198              		.section	.gnu.lto__mmcsd_unpack_sdc_cid.6d89f25ba23a264a,"",%progbits
 199 0000 789CADD5 		.ascii	"x\234\255\325MHTQ\024\000\340s\336\317\374\350\250\343"
 199      4D485451 
 199      1400E073 
 199      DECFFCE8 
 199      A8E3
 200 0012 E8980A8A 		.ascii	"\350\230\012\212N(h8\242\241%&E\233jU\013%[\231>A\007"
 200      4E286838 
 200      A2A12526 
 200      459B6A55 
 200      0B255B99 
 201 0029 1A825C14 		.ascii	"\032\202\\\024\264\360\371C\270h!A\213\212@\2116\022"
 201      B4F0F943 
 201      B8682141 
 201      8B8A4089 
 201      3612
 202 003b 096DA27F 		.ascii	"\011m\242\177\203\0025K[D\264\033h\321\"\210\240\235"
 202      8302354B 
 202      5B44B41B 
 202      68D12288 
 202      A09D
 203 004d 04D339EF 		.ascii	"\004\3239\357\274\231\353\310{\220\3400s\357yw\3569"
 203      BC99EBC8 
 203      7B90E030 
 203      73EF7977 
 203      EE39
 204 005f F7BB7786 		.ascii	"\367\273w\206\3674\320`\367\353$}\2540@3\365\030\000"
 204      F734D060 
 204      F7EB247D 
 204      AC304033 
 204      F51800
 205 0072 D4E63F01 		.ascii	"\324\346?\001L\2054\315X0\301.\322\177\257\002\330\021"
 205      4C8534CD 
 205      5830C12E 
 205      D27FAF02 
 205      D811
 206 0084 5D33FE44 		.ascii	"]3\376D\351\322\274\337GW\006\2322\313D\344\000\020"
 206      E9D2BCDF 
 206      4757069A 
ARM GAS  /var/folders/c6/c789hm653lg9vtl73krp73tm0000gn/T//cc3LgWEg.s 			page 16


 206      32CB44E4 
 206      0010
 207 0096 2635DD30 		.ascii	"&5\3350q\362\002rM-\001\213\266}+\363p\351\233v\307"
 207      71F20272 
 207      4D2D018B 
 207      B67D2BF3 
 207      70E99B76 
 208 00ab 5E995DB0 		.ascii	"^\231]\260\377f\263\210)\244\365\017\"X\010\203t\201"
 208      FF66B388 
 208      29A4F50F 
 208      22580883 
 208      7481
 209 00bd 0D4EA719 		.ascii	"\015N\247\031\205\2404\302\262\266\222\311fo~\311|\337"
 209      85A034C2 
 209      B2B692C9 
 209      666F7EC9 
 209      7CDF
 210 00cf C058AF86 		.ascii	"\300X\257\206iD\235\032-\000\303\270\210\011\010A\012"
 210      69449D1A 
 210      2D00C3B8 
 210      88090841 
 210      0A
 211 00e0 F5303546 		.ascii	"\36505F\204\243\022j\314Rn\312\3712\306_\3049\252\342"
 211      84A3126A 
 211      CC526ECA 
 211      F932C65F 
 211      C439AAE2 
 212 00f4 A886A35A 		.ascii	"\250\206\243Z\376\266\216\243zj\002\215\034%8j\342\250"
 212      FEB68EA3 
 212      7A6A028D 
 212      1C25386A 
 212      E2A8
 213 0106 99A3168E 		.ascii	"\231\243\026\216Z9j\343(\311Q\007G\235\\\245\213\243"
 213      5A396AE3 
 213      28C95107 
 213      479D5CA5 
 213      8BA3
 214 0118 6E8E7A38 		.ascii	"n\216z8\"\247\011\263\266=\337 \2424\357\333r6\337O"
 214      22A709B3 
 214      B63DDF20 
 214      A234EFDB 
 214      7236DF4F 
 215 012c 2D1FCA00 		.ascii	"-\037\312\000j\334\353\253\360\356\307\333\257\3538"
 215      6ADCEBAB 
 215      F0EEC7DB 
 215      AFEB38
 216 013b 8C0FD084 		.ascii	"\214\017\320\2041\324x\323\301\235;\036\240zt\314\316"
 216      31D478D3 
 216      C19D3B1E 
 216      A07A74CC 
 216      CE
 217 014c CCFC349D 		.ascii	"\314\3744\235\247\205\012\247\0310\035\3277\301\220"
 217      A7850AA7 
 217      19301DD7 
 217      37C190
 218 015b 3900D761 		.ascii	"9\000\327a\333\236\263\243)\014[\350\254\355\214T\247"
 218      DB9EB3A3 
ARM GAS  /var/folders/c6/c789hm653lg9vtl73krp73tm0000gn/T//cc3LgWEg.s 			page 17


 218      290C5BE8 
 218      ACED8C54 
 218      A7
 219 016c B0883CEE 		.ascii	"\260\210<\356\244\024\026\347\322M\307\363\021\246\267"
 219      A41416E7 
 219      D24DC7F3 
 219      11A6B7
 220 017b 679EDE0E 		.ascii	"g\236\336\016\346\026\012p\316\274m\037Na\344\020,q"
 220      E6160A70 
 220      CEBC6D1F 
 220      4E61E410 
 220      2C71
 221 018d D89BC292 		.ascii	"\330\233\302\222{p\227\000\245\005\336\021\334\301Y"
 221      7B709700 
 221      A505DE11 
 221      DCC159
 222 019c 83E915B7 		.ascii	"\203\351\025\267\210\234\001\225\002\330\204\033\231"
 222      889C0195 
 222      02D8841B 
 222      99
 223 01a9 C7EF0FE4 		.ascii	"\307\357\017\344\212\207\362\3042\013\345\317G\323\270"
 223      8A87F2C4 
 223      320BE5CF 
 223      47D3B8
 224 01b8 6234E8FC 		.ascii	"b4\350\374\372Q$a9\000\251~\316<\311\357><\306{\247"
 224      FA512461 
 224      3900A97E 
 224      CE3CC9EF 
 224      3E3CC67B 
 225 01cd C1B5AD22 		.ascii	"\301\265\255\"\031c\232\355(cB\253(8\243\021\367\000"
 225      19639AED 
 225      286342AB 
 225      2838A311 
 225      F700
 226 01df 285510CB 		.ascii	"(U\020\313\012\021\361GT\010\"\222G\374\332\201(\241"
 226      0A11F147 
 226      54082292 
 226      47FCDA81 
 226      28A1
 227 01f1 541E9C99 		.ascii	"T\036\234\231\233Y\312\017\322\211\224pN\345V\0318\031"
 227      9B59CA0F 
 227      D2899470 
 227      4EE55619 
 227      3819
 228 0203 6776FB2A 		.ascii	"gv\373*\275}\271\205K\305\367L\371\312\375}\305\342"
 228      BD7DB985 
 228      4BC5F74C 
 228      F9CAFD7D 
 228      C5E2
 229 0215 0B791E52 		.ascii	"\013y\036Rl\314\035\374\377C\322\335\3521A<W\210\270"
 229      6CCC1DFC 
 229      FF43D2DD 
 229      EA31413C 
 229      5788B8
 230 0228 3F625210 		.ascii	"?bR\020\327<\021U\224\272G\204\341V\257\022\304\013"
 230      D73C1155 
 230      94BA4784 
ARM GAS  /var/folders/c6/c789hm653lg9vtl73krp73tm0000gn/T//cc3LgWEg.s 			page 18


 230      E156AF12 
 230      C40B
 231 023a 85A8F147 		.ascii	"\205\250\361G\\\025\304\270'\242\226R\375\020>?\207"
 231      5C15C4B8 
 231      27A29652 
 231      FD103E3F 
 231      87
 232 024b E956AF15 		.ascii	"\351V\257\025\304K\205\250\363G\234\022\304\011OD=\245"
 232      C44B85A8 
 232      F3479C12 
 232      C4094F44 
 232      3DA5
 233 025d 1622DAE0 		.ascii	"\026\"\332\340\021#\372\350N\242<qoO\300\351y\244*\177"
 233      1123FAE8 
 233      4EA23C71 
 233      6F4FC0E9 
 233      79A42A7F 
 234 0271 43A49AA2 		.ascii	"C\244\232\242{\245t\215\376\272\263\242;\355\251KP\352"
 234      7BA5748D 
 234      FEBAB3A2 
 234      3BEDA94B 
 234      50EA
 235 0283 BEE874A5 		.ascii	"\276\350t\245K\210\356\265\3225\371\353\316\213\356"
 235      4B88EEB5 
 235      D235F9EB 
 235      CE8BEE
 236 0292 9CA7AE99 		.ascii	"\234\247\256\231R\367E\247)]\263\350\336(]\213\277n"
 236      52F745A7 
 236      295DB3E8 
 236      DE285D8B 
 236      BF6E
 237 02a4 4874839E 		.ascii	"Ht\203\236\272VJ\335\027\035*]\253\350V\225\256\315"
 237      BA564ADD 
 237      171D2A5D 
 237      ABE85695 
 237      AECD
 238 02b6 5F3726BA 		.ascii	"_7&\272\213\236\272$\245\356\213\016\224.)\2725\245"
 238      8B9EBA24 
 238      A5EE8B0E 
 238      942E29BA 
 238      35A5
 239 02c8 EBF0D71D 		.ascii	"\353\360\327\035\027\3351O]'\245\356\361\376\020t\253"
 239      17DD314F 
 239      5D27A5EE 
 239      F1FE1074 
 239      AB
 240 02d9 770A625D 		.ascii	"w\012b]!\272\374\021\275\2028\352\211\350\246\324=\""
 240      21BAFC11 
 240      BD8238EA 
 240      89E8A6D4 
 240      3D22
 241 02eb 426EF56E 		.ascii	"Bn\365nA|P\210\036\177\304\021AT\347\021\036\353E\275"
 241      417C5088 
 241      1E7FC411 
 241      4154E711 
 241      1EEB45BD 
 242 02ff D70BBB85 		.ascii	"\327\013\273\205z\000>\303Tf\243)\367\220\227W?=\337"
ARM GAS  /var/folders/c6/c789hm653lg9vtl73krp73tm0000gn/T//cc3LgWEg.s 			page 19


 242      7A003EC3 
 242      5466A329 
 242      F7909757 
 242      3F3DDF
 243 0312 E8E9CDCB 		.ascii	"\350\351\315\3135$\223\355\362\276<\321>>|\251}\342"
 243      352493ED 
 243      F2BE3CD1 
 243      3E3E7CA9 
 243      7DE2
 244 0324 8AC5FD50 		.ascii	"\212\305\375P:mM\214&-\320\255\324\350?3\210\021\005"
 244      3A6D4D8C 
 244      262DD0AD 
 244      D4E83F33 
 244      881105
 245              		.text
 246              		.section	.gnu.lto__mmcsd_unpack_mmc_cid.6d89f25ba23a264a,"",%progbits
 247 0000 789CADD6 		.ascii	"x\234\255\326MHTQ\024\000\340s\336\3178\243\243\216"
 247      4D485451 
 247      1400E073 
 247      DECF38A3 
 247      A38E
 248 0012 BFA5A0D8 		.ascii	"\277\245\240\330\204\206\2063\251ii\014F\233jU\013%"
 248      84868633 
 248      A969690C 
 248      469B6A55 
 248      0B25
 249 0024 5B998EA0 		.ascii	"[\231\216\240\003\015A.\012Z\370\374)\254\\H\233\250"
 249      030D412E 
 249      0A5AF8FC 
 249      29AC5C48 
 249      9BA8
 250 0036 08947612 		.ascii	"\010\224v\022\004\265keP\244\204Y\213\026\321f\240E"
 250      04B56B65 
 250      50A48459 
 250      8B16D166 
 250      A045
 251 0048 8B488236 		.ascii	"\213H\2026e\326t\316;o\346:\362\036$\314\240\367\236"
 251      65D674CE 
 251      3B6FE63A 
 251      F21E24CC 
 251      A0F79E
 252 005b 77E79E73 		.ascii	"w\347\236s\277wf\034G\003\015v>N\320oQ!@\023\315\350"
 252      BF77661C 
 252      47030D76 
 252      3E4ED06F 
 252      51214013 
 253 0071 03D4E6DF 		.ascii	"\003\324\346\337\002L\3725\315X0\301*\324\277\257\000"
 253      024CFA35 
 253      CD5830C1 
 253      2AD4BFAF 
 253      00
 254 0082 58415D33 		.ascii	"XA]3~\204\350\322|\030\243+\003M\331e\"r\000\010\023"
 254      7E84E8D2 
 254      7C18A32B 
 254      034DD965 
 254      22720008 
 255 0097 9A6E9838 		.ascii	"\232n\2308q\036\271\246\026\206E\313\272\223\272\376"
ARM GAS  /var/folders/c6/c789hm653lg9vtl73krp73tm0000gn/T//cc3LgWEg.s 			page 20


 255      711EB9A6 
 255      168645CB 
 255      BA93BAFE 
 256 00a7 FCA376CF 		.ascii	"\374\243v\317Z\236Y\260\266\322i\304\004\322\371\373"
 256      5A9E59B0 
 256      B6D269C4 
 256      04D2F9FB 
 257 00b7 11E20803 		.ascii	"\021\342\010\003t\201\015\366\244\031\271\240$\302\023"
 257      74810DF6 
 257      A419B9A0 
 257      24C213
 258 00c6 6D39954E 		.ascii	"m9\225No}J}\236\303\212^\015\223\210:\015\232\017\206"
 258      6F7D4A7D 
 258      9EC38A5E 
 258      0D93883A 
 258      0D9A0F86 
 259 00da 7011C3E0 		.ascii	"p\021\303\340\207\004\352\001\032\214 G\3054\230%<\224"
 259      8704EA01 
 259      1A8C2047 
 259      C5349825 
 259      3C94
 260 00ec F165393F 		.ascii	"\361e9?Q\305Q5G5\034\325\362\263u\034\325\323\340\333"
 260      51C55135 
 260      47351CD5 
 260      F2B3751C 
 260      D5D3E0DB 
 261 0100 C75198A3 		.ascii	"\307Q\230\243F\216\2328j\346\250\205\243V\216\"\034"
 261      468E9A38 
 261      6AE6A885 
 261      A3568E22 
 261      1C
 262 0111 B571D4CE 		.ascii	"\265q\324\316Q'G]\\\257\233\243\036\216b\034\221\330"
 262      5127475D 
 262      5CAF9BA3 
 262      1E8E621C 
 262      91D8
 263 0123 8419CB9A 		.ascii	"\204\031\313\232o\020[\222;\020\267\333\320G#\267\247"
 263      6F105B92 
 263      3B10B7DB 
 263      D04723B7 
 263      A7
 264 0134 1F359EF5 		.ascii	"\0375\236\365\025x\371\345\305\20778\204\217\320\204"
 264      1578F9E5 
 264      C5873738 
 264      848FD084 
 265 0144 51D4F8F6 		.ascii	"Q\324\370\366\013\266\337{?\325\243\206\333;\263\333"
 265      0BB6DF7B 
 265      3FD5A386 
 265      DB3BB3DB 
 266 0154 74DEE6CF 		.ascii	"t\336\346\317\335f\300T\225\276\016\206\354\001\270"
 266      DD66C054 
 266      95BE0E86 
 266      EC01B8
 267 0163 069BD6AC 		.ascii	"\006\233\326\254\025J` \216\366\331\366\312\336\004"
 267      154A6020 
 267      8EF6D9F6 
 267      CADE04
ARM GAS  /var/folders/c6/c789hm653lg9vtl73krp73tm0000gn/T//cc3LgWEg.s 			page 21


 268 0172 1692C7D9 		.ascii	"\026\222\307\331\224\300\242L\272i{\326`js\372\331\335"
 268      94C0A24C 
 268      BA697BD6 
 268      606A73FA 
 268      D9DD
 269 0184 82CC413E 		.ascii	"\202\314A>\316\231\267\254\216\004\006\017\302\022\207"
 269      CE99B7AC 
 269      8E04060F 
 269      C21287
 270 0193 C71258FC 		.ascii	"\307\022X\374\000\356\023\240$\307;\214\3338\2530\265"
 270      00EE13A0 
 270      24C73B8C 
 270      DB38AB30 
 270      B5
 271 01a4 EC14911E 		.ascii	"\354\024\221\036P)\200u\270\221\372\366jO\246\270?K"
 271      50298075 
 271      B891FAF6 
 271      6A4FA6B8 
 271      3F4B
 272 01b6 2C8DA3BC 		.ascii	",\215\243\274\015i\033W\014\025\330\357\203\020\222"
 272      0D691B57 
 272      0C15D8EF 
 272      831092
 273 01c5 B00C8054 		.ascii	"\260\014\200T_\247\237f\357>0\312\367N\213\253\357\012"
 273      5FA79F66 
 273      EF3E30CA 
 273      F74E8BAB 
 273      EF0A
 274 01d7 658D6996 		.ascii	"e\215i\226\255,\027ZEN\217\206\235\006P\252 6\024\""
 274      AD2C175A 
 274      454E8F86 
 274      9D0650AA 
 274      20361422 
 275 01eb E88D2812 		.ascii	"\350\215(\022\204?\213\330\330\206(\246T^\234\236\235"
 275      843F8BD8 
 275      D88628A6 
 275      545E9C9E 
 275      9D
 276 01fc 5ECA2E52 		.ascii	"^\312.RG\2129\247r\255\024\354\214\323;}\225\356\276"
 276      478A39A7 
 276      72AD14EC 
 276      8CD33B7D 
 276      95EEBE
 277 020f CCC125E2 		.ascii	"\314\301%\342\373\251|e\336\276R\361\005]\233T>\352"
 277      FBA97C65 
 277      DEBE52F1 
 277      055D9B54 
 277      3EEA
 278 0221 2CFE7F93 		.ascii	",\376\177\223t\247z\271 ~)D\2257bB\020W]\021\325\224"
 278      74A77AB9 
 278      207E2944 
 278      95376242 
 278      10575D11 
 279 0237 BA4B84E1 		.ascii	"\272K\204\341T\257\026\304\246B\324x#\256\010b\314\025"
 279      54AF16C4 
 279      A642D478 
 279      23AE0862 
ARM GAS  /var/folders/c6/c789hm653lg9vtl73krp73tm0000gn/T//cc3LgWEg.s 			page 22


 279      CC15
 280 0249 514BA95E 		.ascii	"QK\251^\010\217\227\303t\252\327\012\342\267B\324y#"
 280      088F97C3 
 280      74AAD70A 
 280      E2B742D4 
 280      7923
 281 025b 7A0571D4 		.ascii	"z\005q\324\025QO\251\271\210Vx\314\210\030}\222(O\225"
 281      15514FA9 
 281      B9885678 
 281      CC88187D 
 281      92284F95 
 282 026f BBC767CF 		.ascii	"\273\307g\317\274Rmf\376\304\250\246\350\266\224n\237"
 282      BC526D66 
 282      FEC4A8A6 
 282      E8B6946E 
 282      9F
 283 0280 B7EEA4E8 		.ascii	"\267\356\244\350\216\273\352\302\224\232\027\235\241"
 283      8EBBEAC2 
 283      949A179D 
 283      A1
 284 028d 7461D1FD 		.ascii	"ta\321\375Q\272Fo\335\031\321\235r\3255Qj^t\272\322"
 284      51BA466F 
 284      DD19D19D 
 284      72D53551 
 284      6A5E74BA 
 285 02a2 3589EEAF 		.ascii	"5\211\356\257\3225{\353\316\211\356\254\253\256\205"
 285      D2357BEB 
 285      CE89EEAC 
 285      ABAE85
 286 02b1 52F3A2D3 		.ascii	"R\363\242\323\224\256Eti\245k\365\326\015\212n\300U"
 286      94AE4574 
 286      69A56BF5 
 286      D60D8A6E 
 286      C055
 287 02c3 17A1D4BC 		.ascii	"\027\241\324\274\350P\351\"\242\233}\235\325\265y\353"
 287      E850E922 
 287      A29B7D9D 
 287      D5B579EB 
 288 02d3 464577C1 		.ascii	"FEw\301U\327N\251y\321\201\322\265\213\356\246\322u"
 288      55D74EA9 
 288      79D181D2 
 288      B58BEEA6 
 288      D275
 289 02e5 7AEB8E88 		.ascii	"z\353\216\210\356\260\253\256\213Rw\371\351U\340T\357"
 289      EEB0ABAE 
 289      8B5277F9 
 289      E955E054 
 289      EF
 290 02f6 12C42D85 		.ascii	"\022\304-\205\350\366Ft\010\342\220+\242\207Rw\211\360"
 290      E8F64674 
 290      08E2902B 
 290      A2875277 
 290      89F0
 291 0308 3BD57B04 		.ascii	";\325{\004q[!b\336\210\250 BY\204\313y!\367\363\002"
 291      715B2162 
 291      DE88A820 
 291      425984CB 
ARM GAS  /var/folders/c6/c789hm653lg9vtl73krp73tm0000gn/T//cc3LgWEg.s 			page 23


 291      7921F7F3 
 292 031d 4EA118C0 		.ascii	"N\241\030\300{\230L\315\035\310|\005\221G\037\375\367"
 292      7B984CCD 
 292      1DC87C05 
 292      91471FFD 
 292      F7
 293 032e A5EF167C 		.ascii	"\245\357\026|\\C$\022\225\237K\343\321\261\241\213\321"
 293      5C432412 
 293      959F4BE3 
 293      D1B1A18B 
 293      D1
 294 033f F1CB719E 		.ascii	"\361\313q\236\007\223\311\370\370H$\016z<1\362\017J"
 294      0793C9F8 
 294      F848240E 
 294      7A3C31F2 
 294      0F4A
 295 0351 C23544   		.ascii	"\3025D"
 296              		.text
 297              		.section	.gnu.lto__mmcsd_unpack_csd_mmc.6d89f25ba23a264a,"",%progbits
 298 0000 789C95D8 		.ascii	"x\234\225\330ML\\U\024\007\360s\337\314\300\000C\031"
 298      4D4C5C55 
 298      1407F073 
 298      DFCCC000 
 298      4319
 299 0012 3EA64285 		.ascii	">\246B\205v\250\240E\013\024\205\010\266\230bJR\022"
 299      76A8A045 
 299      0B148508 
 299      B698624A 
 299      5212
 300 0024 50889040 		.ascii	"P\210\220@RR\246\003\201I\230\024\244\304\242E\036P"
 300      5252A603 
 300      81499814 
 300      A4C4A245 
 300      1E50
 301 0036 8D4BE24E 		.ascii	"\215K\342NM\223\326\356L\264\0137~\213\211\211\240\026"
 301      4D93D6EE 
 301      4CB40B37 
 301      7E8B8989 
 301      A016
 302 0048 746162FD 		.ascii	"tab\375$q\241\266]\2304n\232&x\316\2343\275\305\334"
 302      2471A1B6 
 302      5D98346E 
 302      9A2678CE 
 302      9C33BDC5 
 303 005d 9B7827F0 		.ascii	"\233x'\360\356\177^\356\377\314\217\367f\026\214\007"
 303      EE7F5EEE 
 303      FFCC8FF7 
 303      66168C07 
 304 006d 1EFCF7F1 		.ascii	"\036\374\367\361\024\376\376S\002\360 \256*\007\224"
 304      14FEFE53 
 304      02F020AE 
 304      2A0794
 305 007c B7B201B0 		.ascii	"\267\262\001\260\030\366\274\340\305\020\370\371\201"
 305      18F6BCE0 
 305      C510F8F9 
 305      81
 306 0089 BFD700FC 		.ascii	"\277\327\000\374H\300\013\336\212\342\323\320\205v|"
ARM GAS  /var/folders/c6/c789hm653lg9vtl73krp73tm0000gn/T//cc3LgWEg.s 			page 24


 306      48C00BDE 
 306      8AE2D3D0 
 306      85767C
 307 0098 165421DE 		.ascii	"\026T!\336\025R\212\002(X\360\002\301\220Z\030R4\323"
 307      15528A02 
 307      2858F002 
 307      C1905A18 
 307      5234D3
 308 00ab DB0F977C 		.ascii	"\333\017\227|\377\265\255\227\257_\363^\367W\317_\364"
 308      FFB5AD97 
 308      AF5FF35E 
 308      F757CF5F 
 308      F4
 309 00bc EF6C6F2B 		.ascii	"\357lo+\225R\370\372\017(H*\030\304'*\236Y\274\340N"
 309      9552F8FA 
 309      0F28482A 
 309      18C4272A 
 309      9E59BCE0 
 310 00d1 505AC115 		.ascii	"PZ\301\025ouk{\373\316\255\255\337o\252\322e\345\251"
 310      6F756B7B 
 310      FBCEADAD 
 310      DF6FAAD2 
 310      65E5A9
 311 00e4 B452013C 		.ascii	"\264R\001<x9\220P\227\324~\010CJ\005\362\360\020\214"
 311      78399050 
 311      97D47E08 
 311      434A05F2 
 311      F0108C
 312 00f7 502AC443 		.ascii	"P*\304C(J\251\230\316\225Q\212\321\271rJ\025\224*)U"
 312      284AA998 
 312      CE95518A 
 312      D1B9724A 
 312      15942A29 
 313 010c 518A53AA 		.ascii	"Q\212S\252\246TC\251\226\322\001Ju\224\016R\252\247"
 313      A65443A9 
 313      96D2014A 
 313      75940E52 
 313      AAA7
 314 011e 74885213 		.ascii	"t\210R\023\245fJ-\224Z)\265Q:B\251\235\322QJ\035\224"
 314      A5664A2D 
 314      945A29B5 
 314      513A42A9 
 314      9DD2514A 
 315 0134 8E51EAA4 		.ascii	"\216Q\352\244t\234R\027\245nJ=\224z)\365Q\352\2474@"
 315      749C5217 
 315      A56E4A3D 
 315      947A29F5 
 315      51EAA734 
 316 0149 6990D210 		.ascii	"i\220\322\020\245\023\224\206)\215PJP\032\2454Fi\202"
 316      A5139486 
 316      298D504A 
 316      501AA534 
 316      466982
 317 015c 528AD224 		.ascii	"R\212\322$\2454\245)J\323\224\316P\232\245t\226\322"
 317      A534A529 
 317      4AD394CE 
 317      509AA574 
ARM GAS  /var/folders/c6/c789hm653lg9vtl73krp73tm0000gn/T//cc3LgWEg.s 			page 25


 317      96D2
 318 016e 1CA57394 		.ascii	"\034\245s\224\346)\371\212\342\"\035CxyCp\336\367W\342"
 318      E629F98A 
 318      E2221D43 
 318      78794370 
 318      DEF757E2 
 319 0182 7C1DD374 		.ascii	"|\035\323t\273\222\231{\326\217G\272\227\003\312\243"
 319      BB92997B 
 319      D68F47BA 
 319      9703CAA3 
 320 0192 35B0065F 		.ascii	"5\260\006_\374\361\371\367\033*\241.co\\yt\257r\356"
 320      FCF1F9F7 
 320      1B2AA12E 
 320      636F5C79 
 320      74AF72EE 
 321 01a6 BD51032A 		.ascii	"\275Q\003*\000\370\356\310\354\274\273-@\333rwn\013"
 321      00F8EEC8 
 321      ECBCBB2D 
 321      40DB7277 
 321      6E0B
 322 01b8 C2522CB0 		.ascii	"\302R,\260\011A\336\003\360\"\334\366_\365\243)\025"
 322      0941DE03 
 322      F022DCF6 
 322      5FF5A329 
 322      15
 323 01c9 4EAACC6B 		.ascii	"N\252\314kg\316\224\247T\036zdSJ\345g\353\241\214\347"
 323      67CE94A7 
 323      541E7A64 
 323      534AE567 
 323      EBA18CE7 
 324 01dd 2A2CDD5E 		.ascii	"*,\335^~\357Bn\366\205r\250\263\342\373\217\245T\301"
 324      7EEF426E 
 324      F68572A8 
 324      B3E2FB8F 
 324      A554C1
 325 01f0 23F036C5 		.ascii	"#\3606\305\303)\025y\023\336@@\341\016\357)u\017g\035"
 325      C3291579 
 325      13DE4040 
 325      E10EEF29 
 325      750F671D 
 326 0204 96566508 		.ascii	"\226Ve\010_\203q\332\265\011\257l\275\363\345\336\354"
 326      5F8371DA 
 326      B509AF6C 
 326      BDF3E5DE 
 326      EC
 327 0215 F0F05DE2 		.ascii	"\360\360]\342\256\244\342\317\014n\243\211E]\2317m\321"
 327      AEA4E2CF 
 327      0C6EA389 
 327      455D9937 
 327      6DD1
 328 0227 93288C02 		.ascii	"\223(\214\002\240\352\306\362[^\266\227\207\325\314"
 328      A0EAC6F2 
 328      5B5EB697 
 328      87D5CC
 329 0236 C9F56F8B 		.ascii	"\311\365o\213\370\034\321\374\214\262\230i%;\256\321"
 329      F81CD1FC 
 329      8CB29869 
ARM GAS  /var/folders/c6/c789hm653lg9vtl73krp73tm0000gn/T//cc3LgWEg.s 			page 26


 329      253BAED1 
 330 0246 29B90058 		.ascii	")\271\000Xe\304\273\032\021\261#\232\030\321hD\340\037"
 330      65C4BB1A 
 330      11B1239A 
 330      18D16844 
 330      E01F
 331 0258 1FB1214A 		.ascii	"\037\261!J\315\210\354\364BF\\\321\210\250\035q\222"
 331      CD88ECF4 
 331      42465CD1 
 331      88A81D71 
 331      92
 332 0269 11FD4644 		.ascii	"\021\375FD\361\270\234\374\377W\" \323\213\031\361\276"
 332      F1B89CFC 
 332      FF572220 
 332      D38B19F1 
 332      BE
 333 027a 4694D911 		.ascii	"F\224\331\021\273@\026\023\"\206U\307+\021\224\3511"
 333      BB401613 
 333      228655C7 
 333      2B1194E9 
 333      31
 334 028b 467CA011 		.ascii	"F|\240\021\345vD.#\224\021Q\201UGDH\246W0\342C\215\250"
 334      E576442E 
 334      23941151 
 334      81554744 
 334      48A65730 
 335 02a3 B4231618 		.ascii	"\264#\026\030\361\222\021Q\205UGD\216L\257b\304G\032"
 335      F1921151 
 335      85554744 
 335      8E4CAF62 
 335      C4471A
 336 02b6 11B723BA 		.ascii	"\021\267#\272A\026\023\242\032\253\216\210\\\231^\315"
 336      411613A2 
 336      1AAB8E88 
 336      5C995ECD 
 337 02c6 888F35A2 		.ascii	"\210\2175\242\306\216\310cD\330\210\250\305\252#\","
 337      C68EC863 
 337      44D888A8 
 337      C5AA2322 
 337      2C
 338 02d7 D36B19F1 		.ascii	"\323k\031\361\211F\034\260#\352\030QkD\324a\325\021"
 338      89461CB0 
 338      23EA1851 
 338      6B44D461 
 338      D511
 339 02e9 9127D3EB 		.ascii	"\221'\323\353\030\361\251F\034\264#\032\030\361\260"
 339      18F1A946 
 339      1CB4231A 
 339      18F1B0
 340 02f8 11518F55 		.ascii	"\021Q\217UGD\276L\257g\304g\032q\310\216(`D\276\021"
 340      4744BE4C 
 340      AF67C467 
 340      1A71C88E 
 340      286044BE 
 341 030d D1845547 		.ascii	"\321\204UGD\201Lob\304\232F4\333\021E \213\011\321\202"
 341      44814C6F 
 341      62C49A46 
ARM GAS  /var/folders/c6/c789hm653lg9vtl73krp73tm0000gn/T//cc3LgWEg.s 			page 27


 341      34DB1145 
 341      208B09D1 
 342 0322 55474444 		.ascii	"UGDD\246\2670b]#Z\355\210\323\214\2300\"\332\260\352"
 342      A6B73062 
 342      5D235AED 
 342      88D38C98 
 342      3022DAB0 
 343 0337 882894E9 		.ascii	"\210(\224\351m\214\370J#\216\330\021\205 \213\011\321"
 343      6D8CF84A 
 343      238ED811 
 343      85208B09 
 343      D1
 344 0348 8E5547C4 		.ascii	"\216UG\304.\231\336\316\210\2575\342\250\035Q\311\210"
 344      2E99DECE 
 344      88AF35E2 
 344      A81D51C9 
 344      88
 345 0359 3D464407 		.ascii	"=FD\007V\035\021E2\275\203\021\337h\3041;\342YF\364"
 345      561D1145 
 345      32BD8311 
 345      DF68C431 
 345      3BE25946 
 346 036e 1A119D58 		.ascii	"\032\021\235XuDDez'#\256j\304q;\342\031\220\305\204"
 346      75444465 
 346      7A2723AE 
 346      6AC4713B 
 346      E21990C5 
 347 0383 E8C2AA23 		.ascii	"\350\302\252#\242X\246w1bC#\272\355\210\036\220\305"
 347      A258A677 
 347      31624323 
 347      BAED881E 
 347      90C5
 348 0395 84E8C1AA 		.ascii	"\204\350\301\252#\242D\246\3670bS#z\355\210yF\274`D"
 348      23A244A6 
 348      F7306253 
 348      237AED88 
 348      7946BC60 
 349 03aa F461D511 		.ascii	"\364a\325\021Q*\323\373\030\361\203F\364\333\021\317"
 349      512AD3FB 
 349      18F18346 
 349      F4DB11CF 
 350 03ba 3362CA88 		.ascii	"3b\312\210\030\300\252#\242L\246\0170\342\232F\014\332"
 350      18C0AA23 
 350      A24CA60F 
 350      30E29A46 
 350      0CDA
 351 03cc 111190C5 		.ascii	"\021\021\220\305\204\030\302\252#\"&\323\207\030\361"
 351      8418C2AA 
 351      232226D3 
 351      8718F1
 352 03db A3469CB0 		.ascii	"\243F\234\260#\306\0311bD\014c\325\021\261[\246\017"
 352      23C61931 
 352      62440C63 
 352      D511B15B 
 352      A60F
 353 03ed 33E2278D 		.ascii	"3\342'\215\030\261#\236`D\253\021\221\300\252#\342>"
 353      18B1239E 
ARM GAS  /var/folders/c6/c789hm653lg9vtl73krp73tm0000gn/T//cc3LgWEg.s 			page 28


 353      6044AB11 
 353      91C0AA23 
 353      E23E
 354 03ff 999E60C4 		.ascii	"\231\236`\304\317\0321jG\2643\342\260\0211\206UGD\271"
 354      CF1A316A 
 354      47B433E2 
 354      B0113186 
 354      554744B9 
 355 0413 4C1F63C4 		.ascii	"L\037c\304/\0321aG43\342Q#\"\205UGD\205LO1\342W\215"
 355      2F1A3161 
 355      473433E2 
 355      51232285 
 355      55474485 
 356 042d 98B4231E 		.ascii	"\230\264#\036gD\213\021\221\306\252#b\217LO3\3427\215"
 356      67448B11 
 356      91C6AA23 
 356      628F4C4F 
 356      33E2378D 
 357 0441 98B223F6 		.ascii	"\230\262#\366\201,&\3044V\035\021\367\313\364iF\374"
 357      812C26C4 
 357      34561D11 
 357      F7CBF469 
 357      46FC
 358 0453 A91167EC 		.ascii	"\251\021g\354\210\032F\304\215\210Y\254:\"*e\372,#\376"
 358      881A46C4 
 358      8D8859AC 
 358      3A222A65 
 358      FA2C23FE 
 359 0467 D288B376 		.ascii	"\322\210\263vD\005#v\033\021sXuDT\311\3649F\\\327\210"
 359      44052376 
 359      1B117358 
 359      754454C9 
 359      F439465C 
 360 047d 7376440C 		.ascii	"svD\014d1!\346\261\352\210\330+\323\347\031qC#|eW<\015"
 360      643121E6 
 360      B1EA88D8 
 360      2BD3E719 
 360      7143237C 
 361 0495 B298148B 		.ascii	"\262\230\024\213\212\312\216\216}2\177\021\213\337\301"
 361      8ACA8E8E 
 361      7D327F11 
 361      8BDFC1
 362 04a4 E2D6CD87 		.ascii	"\342\326\315\207\262\337_\360\243\037\377u_\331\310"
 362      B2DF5FF0 
 362      A31FFF75 
 362      5FD9C8
 363 04b3 7CA3166F 		.ascii	"|\243\026ohh\344\237\3233\215\023\211\311\306\231\347"
 363      6868E49F 
 363      D3338D13 
 363      89C9C699 
 363      E7
 364 04c4 92B49E4C 		.ascii	"\222\264\236L\247\2233\243\015I\010\340\362/\340\371"
 364      A79333A3 
 364      0D4908E0 
 364      F22FE0F9 
 365 04d4 3A47     		.ascii	":G"
 366              		.text
ARM GAS  /var/folders/c6/c789hm653lg9vtl73krp73tm0000gn/T//cc3LgWEg.s 			page 29


 367              		.section	.gnu.lto__mmcsd_unpack_csd_v10.6d89f25ba23a264a,"",%progbits
 368 0000 789C95D7 		.ascii	"x\234\225\327]L\233e\024\007\360s\336\266k\201\026\312"
 368      5D4C9B65 
 368      1407F073 
 368      DEB66B81 
 368      16CA
 369 0012 46951AD0 		.ascii	"F\225\032\3202\307\034q\300\232\215d\304aF2\222\221"
 369      32C71C71 
 369      C09A8D64 
 369      C4614632 
 369      9291
 370 0024 80426C13 		.ascii	"\200Bl\023HFF-\004\336h3#\027^\230\310\273\017\2157"
 370      4846462D 
 370      04DE6833 
 370      23175E98 
 370      C8BB0F8D 
 371 0039 2A313171 		.ascii	"*11q\303\257M/t~\354\302\033?\027L\214\221\013\235z"
 371      C3AF4D2F 
 371      747EECC2 
 371      1B3F174C 
 371      8C910B9D 
 372 004e E9158917 		.ascii	"\351\025\211\027\232x\275\233eI=\247\347\324g3\317c"
 372      9A78BD9B 
 372      65493DA7 
 372      E7D46733 
 372      CF63
 373 0060 F234D0F3 		.ascii	"\3624\320\363\347\245\347\377\376x\350M\003\010\340"
 373      E7A5E7FF 
 373      FE78E84D 
 373      0308E0
 374 006f BF8FC3F4 		.ascii	"\277\217\303\364]\353\000\330O\023\023\200\301\306\317"
 374      5DEB00D8 
 374      4F131380 
 374      C1C6CF
 375 007e 00675341 		.ascii	"\000gSA\020\273\231\204\2505\276\371\003@\224\216a\\"
 375      10BB9984 
 375      A835BEF9 
 375      0340948E 
 375      615C
 376 0090 AEC71139 		.ascii	"\256\307\0219\000\302z\020\213\343\372<rI\260\027.G"
 376      00C27A10 
 376      8BE3FA3C 
 376      7249B017 
 376      2E47
 377 00a2 D1EB3B2F 		.ascii	"\321\353;/^\371=\270\030m]x/\272]\257#\206H7|\020\241"
 377      5EF93DB8 
 377      186D5D78 
 377      2FBA5DAF 
 377      23864837 
 378 00b9 8A30473F 		.ascii	"\2120G?`\2411\202\370\335\202\032\302\265`k\247^\277"
 378      60A13182 
 378      F8DD821A 
 378      C2B5606B 
 378      A75EBF
 379 00cc 5DFFEB8F 		.ascii	"]\377\353\217\353\330\365T\2005$J\005/\343^HB\210\261"
 379      EBD8F554 
 379      8035244A 
ARM GAS  /var/folders/c6/c789hm653lg9vtl73krp73tm0000gn/T//cc3LgWEg.s 			page 30


 379      052FE35E 
 379      484288B1 
 380 00e0 143DC55B 		.ascii	"\024=\305[\350r\220\346\0373\364\224\310r\352\344_t"
 380      E87290E6 
 380      1F33F494 
 380      C872EAE4 
 380      5F74
 381 00f2 71CAF1B5 		.ascii	"q\312\361\265nNyN=\234z9\0258\365q\332\307\251\237\323"
 381      6E4E794E 
 381      3D9C7A39 
 381      1538F571 
 381      DAC7A99F 
 382 0107 014E039C 		.ascii	"\001N\003\234\016r\032\344t\210S\221\323\021N#\234\216"
 382      0E721AE4 
 382      74885391 
 382      D3114E23 
 382      9C8E
 383 0119 721AE574 		.ascii	"r\032\345t\214\323\030\247\343\234\3069\235\3404\301"
 383      8CD318A7 
 383      E39CC639 
 383      9DE034C1 
 384 0129 E924A749 		.ascii	"\351$\247INS\234\2469\315p\232\345T\342T\3464\307i\236"
 384      4E539CA6 
 384      39CD709A 
 384      E554E254 
 384      E634C769 
 385 013e D3294E0B 		.ascii	"\323)N\013\234\0269U8-qZ\346\264\312)\344D\347\223\200"
 385      9C163955 
 385      382D715A 
 385      E6B4CA29 
 385      E444E793 
 386 0153 0B51B451 		.ascii	"\013Q\264Q\220\343\250\361yW\033\207^\242g\376_\224"
 386      90E3A8F1 
 386      79571B87 
 386      5EA267FE 
 386      5F94
 387 0165 31E019FB 		.ascii	"1\340\031\373\021\276\377\363\2737~\303\012\276O{+\030"
 387      11BEFFF3 
 387      BB377EC3 
 387      0ABE4F7B 
 387      2B18
 388 0177 F061EFBA 		.ascii	"\360a\357\272\363\244\313\030\203\233\311\330\015\210"
 388      F3A4CB18 
 388      839BC9D8 
 388      0D88
 389 0185 CB6B009E 		.ascii	"\313k\000\236\207[\321\313Q6\304d\025\033\245\215+\335"
 389      875BD1CB 
 389      5136C464 
 389      151BA58D 
 389      2BDD
 390 0197 21A6E846 		.ascii	"!\246\350F\372\242\020[\232\353\361\306\215~\202s\267"
 390      FAA2105B 
 390      9AEBF1C6 
 390      8D7E8273 
 390      B7
 391 01a8 CE7FFE41 		.ascii	"\316\177\376A\262y\243\004\357lD\321\341\020[\037\206"
 391      B279A304 
ARM GAS  /var/folders/c6/c789hm653lg9vtl73krp73tm0000gn/T//cc3LgWEg.s 			page 31


 391      EF6C44D1 
 391      E1105B1F 
 391      86
 392 01b9 AB1C1F09 		.ascii	"\253\034\037\011\261m\023.\021 }\027\344I\274\203\263"
 392      B16D132E 
 392      11207D17 
 392      E449BC83 
 392      B3
 393 01ca 0DE7B6B4 		.ascii	"\015\347\266\264D\376\270\025\276\335\015xi\347\225"
 393      44FEB815 
 393      BEDD0D78 
 393      69E795
 394 01d9 EDFB9BE5 		.ascii	"\355\373\233\345\311\177\211\231*\312\333\227^\306\215"
 394      C97F8999 
 394      2ACADB97 
 394      5EC68D
 395 01e8 ED938DB7 		.ascii	"\355\223\215\267S\373\243$\24470\251\376>\177%h\356"
 395      53FBA324 
 395      A43730A9 
 395      FE3E7F25 
 395      68EE
 396 01fa A568B571 		.ascii	"\245h\265qq\373\227\016\271\3064z\024C\314\012\255s"
 396      71FB970E 
 396      B9C6347A 
 396      1443CC0A 
 396      AD73
 397 020c 055BB861 		.ascii	"\005[\270a\267\322P\333S\202x\325 \322nDQ\020\303VD"
 397      B7D250DB 
 397      538278D5 
 397      20D26E44 
 397      5110C356 
 398 0221 86565D88 		.ascii	"\206V]\210=vD\263=#\210\327\014\"\353F\234\026D\311"
 398      3D7644B3 
 398      3D2388D7 
 398      0C22EB46 
 398      9C1644C9 
 399 0235 8AA03B64 		.ascii	"\212\240;d=O\"\246\355\235\202x\323 \272\334\210v\320"
 399      3D4F22A6 
 399      ED9D8278 
 399      D320BADC 
 399      8876D0
 400 0248 6143E468 		.ascii	"aC\344h\325\363$\342\332\236\023\304E\203\350v#\222"
 400      D5F324E2 
 400      DA9E13C4 
 400      4583E876 
 400      2392
 401 025a 82402B22 		.ascii	"\202@+\"O\253\236\210\204\266\347\005q\311 z\334\210"
 401      4FAB9E88 
 401      84B6E705 
 401      71C9207A 
 401      DC88
 402 026c 7541BC60 		.ascii	"uA\274`E\364\322\252'b\227\266\367\012b\323 \012n\304"
 402      45F4D2AA 
 402      276297B6 
 402      F70A62D3 
 402      200A6EC4 
 403 0280 14E8B021 		.ascii	"\024\350\260!\372h\325\023\221\324\366>A\274e\020\373"
ARM GAS  /var/folders/c6/c789hm653lg9vtl73krp73tm0000gn/T//cc3LgWEg.s 			page 32


 403      FA68D513 
 403      91D4F63E 
 403      41BC6510 
 403      FB
 404 0291 DC8821D0 		.ascii	"\334\210!\320aC\364\323\252'\"\245\355\375\202x\333"
 404      6143F4D3 
 404      AA2722A5 
 404      EDFD8278 
 404      DB
 405 02a2 200EB811 		.ascii	" \016\270\021\203\202x\310\212\030\240UOD\213\266\017"
 405      838278C8 
 405      8A18A055 
 405      4F448BB6 
 405      0F
 406 02b3 08E21D83 		.ascii	"\010\342\035\2038\350F\264\011\242\325\212\030\244U"
 406      38E846B4 
 406      09A2D58A 
 406      18A455
 407 02c2 4F44ABB6 		.ascii	"OD\253\266\017\012\342]\2038\344Ft\200\016\033\242H"
 407      0F0AE25D 
 407      8338E446 
 407      74800E1B 
 407      A248
 408 02d4 AB9E8836 		.ascii	"\253\236\2106m/\012\342C\2038\342F\234\021\304\252\025"
 408      6D2F0AE2 
 408      438338E2 
 408      469C11C4 
 408      AA15
 409 02e6 3142AB9E 		.ascii	"1B\253\236\210\264\266\217\010\342#\2038\352Fd@\207"
 409      88B4B68F 
 409      08E22383 
 409      38EA4664 
 409      4087
 410 02f8 0D314AAB 		.ascii	"\0151J\253\236\210\214\266\217\012\342\252A\034s#z\004"
 410      9E888CB6 
 410      8F0AE2AA 
 410      411C7323 
 410      7A04
 411 030a 719F1531 		.ascii	"q\237\0251F\253\236\210vm\037\023\304\307\006q\334\215"
 411      46AB9E88 
 411      766D1F13 
 411      C4C70671 
 411      DC8D
 412 031c 78421033 		.ascii	"xB\0203V\3048\255z\":\264}\\\020\237\030\304\0117\342"
 412      56C438AD 
 412      7A223AB4 
 412      7D5C109F 
 412      18C40937 
 413 0331 71D06143 		.ascii	"q\320aCL\320\252'\"\253\355\023\202\370\324 N\272\021"
 413      4CD0AA27 
 413      22ABED13 
 413      82F8D420 
 413      4EBA11
 414 0344 D3A0C386 		.ascii	"\323\240\303\206\230\244UOD\247\266O\012\3423\203\230"
 414      98A4554F 
 414      44A7B64F 
 414      0AE23383 
ARM GAS  /var/folders/c6/c789hm653lg9vtl73krp73tm0000gn/T//cc3LgWEg.s 			page 33


 414      98
 415 0355 72239E13 		.ascii	"r#\236\023\3043V\3044\255z\"vk\373\264 \256\031\304"
 415      C43356C4 
 415      34AD7A22 
 415      766BFBB4 
 415      20AE19C4 
 416 0369 8C1B9106 		.ascii	"\214\033\221\006\0356\304,\255z\"\366h\373\254 \276"
 416      1D36C42C 
 416      AD7A22F6 
 416      68FBAC20 
 416      BE
 417 037a 3088921B 		.ascii	"0\210\222\033\261\"\210E+\242L\253\236\210.m/\013\342"
 417      B1228845 
 417      2BA24CAB 
 417      9E882E6D 
 417      2F0BE2
 418 038d 4B839873 		.ascii	"K\203\230s#\036\000\0356\304<\255z\"r\332>/\210\257"
 418      231E001D 
 418      36C43CAD 
 418      7A2272DA 
 418      3E2F88AF 
 419 03a1 0CE2941B 		.ascii	"\014\342\224\033\261_\020\005+b\201V=\021\367h\373\202"
 419      B15F1005 
 419      2B628156 
 419      3D11F768 
 419      FB82
 420 03b3 20BE3688 		.ascii	" \2766\210E7\"\377\177\357\211\012\255z\"\356\325\366"
 420      453722FF 
 420      7FEF890A 
 420      AD7A22EE 
 420      D5F6
 421 03c5 8A20BE31 		.ascii	"\212 \2761\210%7\"\007:l\210eZ\365Dtk\373\262 \2765"
 421      88253722 
 421      073A6C88 
 421      655AF544 
 421      746BFBB2 
 422 03dc 885537E2 		.ascii	"\210U7\3421\320aC\204\264\352\211\310k{\010\360+\234"
 422      31D06143 
 422      84B4EA89 
 422      C86B7B08 
 422      F02B9C
 423 03ef DDB93ED0 		.ascii	"\335\271>\320\374t&\217\022}0\241\217]l(\014\015\015"
 423      FC74268F 
 423      127D30A1 
 423      8F5D6C28 
 423      0C0D0D
 424 0402 CBD799B5 		.ascii	"\313\327\231\265\341\325\312\323\303k\317Vy\236\256"
 424      E1D5CAD3 
 424      C36BCF56 
 424      799EAE
 425 0411 D5AA6B4B 		.ascii	"\325\252kKCU\210\321\370\007\027 i\277"
 425      435588D1 
 425      F8071720 
 425      69BF
 426              		.text
 427              		.section	.gnu.lto__mmcsd_unpack_csd_v20.6d89f25ba23a264a,"",%progbits
 428 0000 789C95D7 		.ascii	"x\234\225\327_h\333U\024\007\360s~I\226\254I\223lmm"
ARM GAS  /var/folders/c6/c789hm653lg9vtl73krp73tm0000gn/T//cc3LgWEg.s 			page 34


 428      5F68DB55 
 428      1407F073 
 428      7E4996AC 
 428      49936C6D 
 429 0015 74C586B5 		.ascii	"t\305\206\265\254\205\326\246\322\302\012-\254\260\312"
 429      AC85D6A6 
 429      D2C20A2D 
 429      ACB0CA
 430 0024 0AABB6D0 		.ascii	"\012\253\266\320\214UVh\273_Y\0270L\354\203\017\202"
 430      8C555668 
 430      BB5F5917 
 430      304CEC83 
 430      0F82
 431 0036 FDED0F32 		.ascii	"\375\355\0172\377\256\370\246\365\301)\370\340\213o"
 431      FFAEF8A6 
 431      F5C129F8 
 431      E08B6F
 432 0045 826F15A6 		.ascii	"\202o\025\246XD\247\370\266\227\025|\3209\377<\015\\"
 432      5844A7F8 
 432      B697157C 
 432      D039FF3C 
 432      0D5C
 433 0057 37CDCEC9 		.ascii	"7\315\316\3119\351\335\344^\341\2066\367\333_\177\347"
 433      39E9DDE4 
 433      5EE18636 
 433      F7DB5F7F 
 433      E7
 434 0068 7B3FB9C9 		.ascii	"{?\271\311K\002\010\340\277\217!\372\275\226\0058D+"
 434      4B0208E0 
 434      BF8F21FA 
 434      BD960538 
 434      442B
 435 007a 260083F5 		.ascii	"&\000\203\365\357\001\316\247\202 v'\011QS|\343k\200"
 435      EF01CEA7 
 435      82207627 
 435      0951537C 
 435      E36B80
 436 008d 2813C3B8 		.ascii	"(\023\303\270\\\217#r\000\204\265 \026\307\265\347\221"
 436      5C8F2372 
 436      0084B520 
 436      16C7B5E7 
 436      91
 437 009e 4B828370 		.ascii	"K\202\203p5\212\336\335\376\352\363\033\301{\321\346"
 437      358ADEDD 
 437      FEEAF31B 
 437      C17BD1E6 
 438 00ae A50FA3FB 		.ascii	"\245\017\243\373\265\032b\005i\303.\204\020a\216\376"
 438      B51A6205 
 438      69C32E84 
 438      10618EFE 
 439 00be C0627D09 		.ascii	"\300b}\011\342\217\012\252\010\237\005\233\333\265\332"
 439      E28F0AAA 
 439      089F059B 
 439      DBB5DA
 440 00cd 071BB77E 		.ascii	"\007\033\267~\276\202mg\002\254\"Q\226\360*\036\204"
 440      BE826D67 
 440      02AC2251 
ARM GAS  /var/folders/c6/c789hm653lg9vtl73krp73tm0000gn/T//cc3LgWEg.s 			page 35


 440      96F02A1E 
 440      84
 441 00de 24543096 		.ascii	"$T0\226\242+A\232S\206\236\3429NyzJ\264pj\345k\355\234"
 441      A22B419A 
 441      53869EE2 
 441      394E797A 
 441      4AB4706A 
 442 00f6 0A9C0E70 		.ascii	"\012\234\016p\352\340\324\311\251\310\251\213S7\247"
 442      EAE0D4C9 
 442      A9C8A98B 
 442      5337A7
 443 0105 1E4EBD9C 		.ascii	"\036N\275\234\3728\365s*q\032\3444\304i\230\323aN#\234"
 443      FA38F573 
 443      2A711AE4 
 443      34C46998 
 443      D3614E23 
 444 011a 46398D71 		.ascii	"F9\215q:\302i\234\323QN\023\234\216q\232\344t\234\323"
 444      3AC2699C 
 444      D3514E13 
 444      9C8E719A 
 444      E4749CD3 
 445 012e 14A7694E 		.ascii	"\024\247iN3\234f9\2259\235\3444\307\351\024\247yN\013"
 445      339C6639 
 445      95399DE4 
 445      34C7E914 
 445      A7794E0B 
 446 0142 9C163985 		.ascii	"\234\0269\205\234\2269\321\201$\340R\024\255\027\345"
 446      9C9639D1 
 446      8124E052 
 446      14AD17E5 
 447 0152 F557F980 		.ascii	"\365W\371\200\303\372)\227\351\231\017\377\004\006\274"
 447      C3FA2997 
 447      E9990FFF 
 447      0406BC
 448 0161 C6BE816B 		.ascii	"\306\276\201k\277|\371\305O\270\204\037\323q\255`\300"
 448      BF7CF9C5 
 448      4FB8841F 
 448      D371AD60 
 448      C0
 449 0172 A7BBE7E1 		.ascii	"\247\273\347\341\243=\2011\270\223\214]\207\270\334"
 449      A33D8131 
 449      B8938C5D 
 449      87B8DC
 450 0181 03F00AEC 		.ascii	"\003\360\012\354D\227\243|\005\223!\326K\353W\012\025"
 450      4497A37C 
 450      059321D6 
 450      4BEB570A 
 450      15
 451 0192 4CD1467A 		.ascii	"L\321FzS\005\3676\306\343\365\215\276\203\013;\027\357"
 451      5305F736 
 451      C6E3F58D 
 451      BE830B3B 
 451      17EF
 452 01a4 7D926C6C 		.ascii	"}\222ll\224\340\231\365(\032\252`S\037|\312q\264\202"
 452      94E099F5 
 452      281AAA60 
 452      531F7CCA 
ARM GAS  /var/folders/c6/c789hm653lg9vtl73krp73tm0000gn/T//cc3LgWEg.s 			page 36


 452      71B482
 453 01b7 E90D789F 		.ascii	"\351\015x\237\000\231G \247\361!\316\026\\\330\324\022"
 453      00994720 
 453      A7F121CE 
 453      165CD8D4 
 453      12
 454 01c8 79712BBC 		.ascii	"yq+\274\335uxm\373\346\326\223\215\362\344.\2619D\371"
 454      DD75786D 
 454      FBE6D693 
 454      8DF2E42E 
 454      B13944F9 
 455 01dc BCD26DDC 		.ascii	"\274\322m\334\230}\246\376\371\311\362;\225\003 \325"
 455      987DA6FE 
 455      F9C9F23B 
 455      950320D5 
 456 01ec D60F3919 		.ascii	"\326\0179\031c\005=\236\246\377\212\"\277\202)\276y"
 456      63053D9E 
 456      A6FF8A22 
 456      BF8229BE 
 456      79
 457 01fd 9F2A508B 		.ascii	"\237*P\213\222\262\337\257f\277\264{\277\244\354\207"
 457      92B2DFAF 
 457      66BFB47B 
 457      BFA4EC87 
 458 020d BBFBDDBE 		.ascii	"\273\373\335\276\370Q\320\230\243\327\231v!\366\333"
 458      F851D098 
 458      A3D79976 
 458      21F6DB
 459 021c 118DF68C 		.ascii	"\021\215\366\214 n\031D\316\215X\020D\331\212\240\035"
 459      206E1944 
 459      CE8D5810 
 459      44D98AA0 
 459      1D
 460 022d 9C27D162 		.ascii	"\234'\321bG\304\264=/\210\337\014\242\305\215\310\202"
 460      47C4B43D 
 460      2F88DF0C 
 460      A2C58DC8 
 460      82
 461 023e 2E36442B 		.ascii	".6D+\215z\236D\\\333[\005q\333 \332\335\2105A\274jE"
 461      8D7A9E44 
 461      5CDB5B05 
 461      71DB20DA 
 461      DD883541 
 462 0255 1468D413 		.ascii	"\024h\324\023\221\320\366\202 ~7\210\003n\304\024\350"
 462      91D0F682 
 462      207E3788 
 462      036EC414 
 462      E8
 463 0266 624374D0 		.ascii	"bCt\320\250'b\217\266w\010\342\017\203\350t#\006@\027"
 463      A827628F 
 463      B67708E2 
 463      0F83E874 
 463      23064017 
 464 027a 1BA248A3 		.ascii	"\033\242H\243\236\210\244\266\027\005\361\247At\271"
 464      9E88A4B6 
 464      1705F1A7 
 464      4174B9
ARM GAS  /var/folders/c6/c789hm653lg9vtl73krp73tm0000gn/T//cc3LgWEg.s 			page 37


 465 0289 11694134 		.ascii	"\021iA4Y\021\3354\352\211Hi{\267 \3762\210\0367\"\007"
 465      5911DD34 
 465      EA894869 
 465      7BB720FE 
 465      32881E37 
 466 029f BAD810BD 		.ascii	"\272\330\020\2754\352\211\330\253\355\275\202\370\333"
 466      34EA89D8 
 466      ABEDBD82 
 466      F8DB
 467 02ad 20FADC88 		.ascii	" \372\334\210s\2028kE\364\323\250'\242I\333\373\005"
 467      7382386B 
 467      45F4D3A8 
 467      27A249DB 
 467      FB05
 468 02bf 71D7204A 		.ascii	"q\327 JnD3\350bC\014\322\250'\"\255\355\203\202\330"
 468      6E4433E8 
 468      62430CD2 
 468      A82722AD 
 468      ED8382D8 
 469 02d3 31882137 		.ascii	"1\210!7\242C\020OX\021\3034\352\211\310h\373\260 \356"
 469      A243104F 
 469      5811C334 
 469      EA89C868 
 469      FBB020EE 
 470 02e7 19C46137 		.ascii	"\031\304a7bV\0203V\304\010\215z\"\232\265}D\020\367"
 470      62561033 
 470      56C4088D 
 470      7A229AB5 
 470      7D4410F7 
 471 02fb 0D62D48D 		.ascii	"\015b\324\215\230\006]l\2101\032\365Dd\265}L\020\377"
 471      98065D6C 
 471      88311AF5 
 471      4464B57D 
 471      4C10FF
 472 030e 18C41137 		.ascii	"\030\304\0217\342Y\320\305\206\030\247QODN\333\307\005"
 472      E259D0C5 
 472      8618A751 
 472      4F444EDB 
 472      C705
 473 0320 F1AF411C 		.ascii	"\361\257A\034u#\236\022D\217\0251A\243\236\210\274\266"
 473      75239E12 
 473      448F1531 
 473      41A39E88 
 473      BCB6
 474 0332 4F08A266 		.ascii	"O\010\242f\020\307\334\210\227\005\361\242\0251I\243"
 474      10C7DC88 
 474      9705F1A2 
 474      153149A3 
 475 0342 9E887DDA 		.ascii	"\236\210}\332>)\210\313\337\356\"\216\273\021\031\320"
 475      3E2988CB 
 475      DFEE228E 
 475      BB1119D0 
 476 0352 C58698A2 		.ascii	"\305\206\230\242QO\304~m\237\022\304\353\0061\355F\254"
 476      514FC47E 
 476      6D9F12C4 
 476      EB0631ED 
 476      46AC
ARM GAS  /var/folders/c6/c789hm653lg9vtl73krp73tm0000gn/T//cc3LgWEg.s 			page 38


 477 0364 0862D18A 		.ascii	"\010b\321\212\230\241QOD\213\266\317\010\342\015\203"
 477      98A1514F 
 477      448BB6CF 
 477      08E20D83 
 478 0374 9875233A 		.ascii	"\230u#:A\027\033\242L\243\236\210Vm/\013\342M\2038\351"
 478      41171BA2 
 478      4CA39E88 
 478      566D2F0B 
 478      E24D8338 
 479 0389 461C1244 		.ascii	"F\034\022D\321\212\230\243QOD\233\266\317\011\342-\203"
 479      D18A98A3 
 479      514F449B 
 479      B6CF09E2 
 479      2D83
 480 039b 38E5463C 		.ascii	"8\345F<\376\177\237\211y\032\365D<\246\355\363\202x"
 480      FE7F9F89 
 480      791AF544 
 480      3CA6EDF3 
 480      8278
 481 03ad DB2016DC 		.ascii	"\333 \026\334\2106\320\305\206X\244QOD\273\266/\012"
 481      8836D0C5 
 481      8658A451 
 481      4F44BBB6 
 481      2F0A
 482 03bf E21D8308 		.ascii	"\342\035\203\010\335\210\347@\027\033b\231F=\021\005"
 482      DD88E740 
 482      171B6299 
 482      463D1105 
 483 03cf 6D5F06F8 		.ascii	"m_\006\370\021\316o_\351k|\007\222G\231\276\023\320"
 483      11CE6F5F 
 483      E96B7C07 
 483      924799BE 
 483      13D0
 484 03e1 971B3614 		.ascii	"\227\0336\024\007\006J\362sn\265tv\351\205\322\352K"
 484      07064AF2 
 484      736EB574 
 484      76E985D2 
 484      EA4B
 485 03f3 21AF0BD5 		.ascii	"!\257\013\325j\270\272<\020B\214\226\007\001RGI"
 485      6AB8BA3C 
 485      10428C96 
 485      07015247 
 485      49
 486              		.text
 487              		.section	.gnu.lto_.symbol_nodes.6d89f25ba23a264a,"",%progbits
 488 0000 789C4D92 		.ascii	"x\234M\222\301n\323@\020\206\327\263I\323U(\253<\001"
 488      C16ED340 
 488      1086D7B3 
 488      49D35528 
 488      AB3C01
 489 0013 178E7DC7 		.ascii	"\027\216}\307\255,hB\002IIh\"%j\"\314\225c\037\000\015"
 489      AD2C6842 
 489      02494968 
 489      22256A22 
 489      CC95631F 
 490 0029 774E3C00 		.ascii	"wN<\0008R\221\012\242\227r\004\261\353\375,\331\227"
 490      3852910A 
ARM GAS  /var/folders/c6/c789hm653lg9vtl73krp73tm0000gn/T//cc3LgWEg.s 			page 39


 490      A2977204 
 490      B1EBFD2C 
 490      D997
 491 003b 6F3CDFC8 		.ascii	"o<\337\310\277v=b\304\274\357\231\374\310\013\011\306"
 491      BF763D62 
 491      C4BCEF99 
 491      FCC80B09 
 491      C6
 492 004c 5C7D3126 		.ascii	"\\}1&\204\375\244\350\277\021\323\013V\256%\024to&\205"
 492      84FDA4E8 
 492      BF11D30B 
 492      56AE2514 
 492      746F2685 
 493 0060 BC94209D 		.ascii	"\274\224 \235\241\271\024i\350R\202\355t\027\"\251;"
 493      A1B91469 
 493      E85282ED 
 493      741722A9 
 493      3B
 494 0071 96D0EB74 		.ascii	"\226\320\353t\257\304\246\356DB\277\323}+\275\324}%"
 494      AFC4A6EE 
 494      4442BFD3 
 494      7D2BBDD4 
 494      7D25
 495 0083 E1A4D35D 		.ascii	"\341\244\323]J?u\247\022\006\235\356JNRw&\341\264\323"
 495      4A3F75A7 
 495      12069DEE 
 495      4A4E5277 
 495      26E1B4D3 
 496 0097 7D2783D8 		.ascii	"}'\203\330-^Kp\271{qQX32\307\333\257\205\025c\252\357"
 496      2D5E4B70 
 496      B97B7151 
 496      583332C7 
 496      DBAF8515 
 497 00ae FF1AD6DF 		.ascii	"\377\032\326\3372\253D;2\037>>\261\326\030m^\305T\177"
 497      32AB443B 
 497      321F3E3E 
 497      B1D6186D 
 497      5EC5547F 
 498 00c2 CED36B1D 		.ascii	"\316\323k\035\321\217\362\366\251\035\214\314\347\307"
 498      D18FF2F6 
 498      A91D8CCC 
 498      E7C7
 499 00d0 E776C027 		.ascii	"\347v\300'\"\313\313_\317\032\2163k\250\323\314j\206"
 499      22CBCB5F 
 499      CF1A8E33 
 499      6BA8D3CC 
 499      6A86
 500 00e2 9FE3A12E 		.ascii	"\237\343\241.\360K\374\012\017u\035\351r\234#\316\021"
 500      F04BFC0A 
 500      0F751DE9 
 500      729C23CE 
 500      11
 501 00f3 E78873C4 		.ascii	"\347\210s\3049\342\034q\2168G\234#\316\021\347\210s"
 501      39E21C71 
 501      8E38479C 
 501      23CE11E7 
 501      8873
ARM GAS  /var/folders/c6/c789hm653lg9vtl73krp73tm0000gn/T//cc3LgWEg.s 			page 40


 502 0105 C4B9362E 		.ascii	"\304\2716.\372M\3440\307\016\211\035\022\033YC\035g"
 502      FA4DE430 
 502      C70E891D 
 502      121B5943 
 502      1D67
 503 0117 56D3CC72 		.ascii	"V\323\314r\206\207:\307/\360K<\324\025~\215\337\340"
 503      86873AC7 
 503      2FF04B3C 
 503      D4157E8D 
 503      DFE0
 504 0129 A16EF13B 		.ascii	"\241n\361;\374\036\017\365\200\257?\375\265\315\300"
 504      FC1E0FF5 
 504      80AF3FFD 
 504      B5CDC0
 505 0138 91A26E0B 		.ascii	"\221\242n\013\275\243\250~\2643\367\355L[\350\317v\346"
 505      BDA3A87E 
 505      B433F7ED 
 505      4C5BE8CF 
 505      76E6
 506 014a 773BF3D0 		.ascii	"w;\363\320\3164\305Y\376\355gQ\244\233\210\254\241\246"
 506      CE34C559 
 506      FEED6751 
 506      A49B88AC 
 506      A1A6
 507 015c 9B88ACC6 		.ascii	"\233\210\254\306\231\3454\263\206:\303\317\361\013<"
 507      99E534B3 
 507      863AC3CF 
 507      F10B3C
 508 016b D4257E85 		.ascii	"\324%~\205_\343\241n\360[\374\016\017u\217?\340\233"
 508      5FE3A16E 
 508      F05BFC0E 
 508      0F758F3F 
 508      E09B
 509 017d 9B48036D 		.ascii	"\233H\003m\241G\212\352\216\242ln\302\3473y\316\024"
 509      A1478AEA 
 509      8EA26C6E 
 509      C2E73379 
 509      CE14
 510 018f A9B04A67 		.ascii	"\251\260Jg\362,\227g\271<\313\345Y.\317ry\226\313\263"
 510      F22C9767 
 510      B93CCBE5 
 510      592ECF72 
 510      7996CBB3 
 511 01a3 5C9EE5F2 		.ascii	"\\\236\345\362,\227g\271<\313\345Y\256\344\267x\250"
 511      2C9767B9 
 511      3CCBE559 
 511      AEE4B778 
 511      A8
 512 01b4 3BFC1E7F 		.ascii	";\374\036\177\300Cm\216\224\006\216\024e:\222\371\017"
 512      C0436D8E 
 512      94068E14 
 512      653A92F9 
 512      0F
 513 01c5 742264E7 		.ascii	"t\"d\347"
 514              		.text
 515              		.section	.gnu.lto_.refs.6d89f25ba23a264a,"",%progbits
 516 0000 789C25C1 		.ascii	"x\234%\301\307\001\2000\000\304\260\263CH\241e\005\366"
ARM GAS  /var/folders/c6/c789hm653lg9vtl73krp73tm0000gn/T//cc3LgWEg.s 			page 41


 516      C7018030 
 516      00C4B0B3 
 516      4348A165 
 516      05F6
 517 0012 5F920792 		.ascii	"_\222\007\2221o~D(nTw\232\235\341\344\360\344\362\346"
 517      316F7E44 
 517      286E5477 
 517      9A9DE1E4 
 517      F0E4F2E6 
 518 0026 71E5030D 		.ascii	"q\345\003\015\360\000\304"
 518      F000C4
 519              		.text
 520              		.section	.gnu.lto_.decls.6d89f25ba23a264a,"",%progbits
 521 0000 789CB55C 		.ascii	"x\234\265\\\011tTU\232~\357U\205$$`\000Yt\306&\364\250"
 521      09745455 
 521      9A7EEF55 
 521      85242460 
 521      005974C6 
 522 0017 4DF72809 		.ascii	"M\367(\011\010J\317b\253`+=\202\266\200v\2373s\312G"
 522      084ACF62 
 522      AB602B3D 
 522      82B68076 
 522      9F3373CA 
 523 002c A5803A26 		.ascii	"\245\200:&\225tU\005d\346\314\361\261\311\246\030\366"
 523      95745505 
 523      64E6CCF1 
 523      B1C9A618 
 523      F6
 524 003d 4DC2BE29 		.ascii	"M\302\276)j\022\331d\011\005*\206}\011\244\350\300@"
 524      6A12D964 
 524      09052A86 
 524      7D09A4E8 
 524      C040
 525 004f A4657563 		.ascii	"\244euco\326d\376\373\277\367\252\356\275\365^\325\273"
 525      6FD664FE 
 525      FBBFF7AA 
 525      EEBDF55E 
 525      D5BB
 526 0061 F44C1DFE 		.ascii	"\364L\035\376\277n\335w\357w\377\355\376\357\177\267"
 526      BF6EDD77 
 526      EF77FFED 
 526      FEEF7FB7 
 527 0071 2A289222 		.ascii	"*(\222\"\275\325L\222\232\340\365\330K\222\364P\272"
 527      BDD54C92 
 527      9AE0F5D8 
 527      4B92F450 
 527      BA
 528 0082 24359724 		.ascii	"$5\227$\351i\240,\240E@\253\200*\200\326\000m\000\332"
 528      E969A02C 
 528      A04540AB 
 528      802A80D6 
 528      006D00DA 
 529 0096 0C540DB4 		.ascii	"\014T\015\264\003\350QY\222~\013\364:\020y\221\271\345"
 529      03E85159 
 529      927E0BF4 
 529      3A107991 
 529      B9E5
ARM GAS  /var/folders/c6/c789hm653lg9vtl73krp73tm0000gn/T//cc3LgWEg.s 			page 42


 530 00a8 D0FE08A8 		.ascii	"\320\376\010\250\022h=P5P\015\320A\240z\240\014E\222"
 530      12683D50 
 530      35500DD0 
 530      41A07AA0 
 530      0C4592
 531 00bb F2803260 		.ascii	"\362\2002`lwx\357\011\364\317@O\003=\013\324\033\350"
 531      6C7778EF 
 531      09F4CF40 
 531      4F033D0B 
 531      D41BE8
 532 00ce 05A0DF29 		.ascii	"\005\240\337)\022\363\"\270D&7PK\240l\2404C\276tC\256"
 532      12F322B8 
 532      44263750 
 532      4BA06CA0 
 532      3443BE74 
 533 00e4 BE8A2E73 		.ascii	"\276\212.s>\274o1\346)\306\\\262\246\333Xs9|^\011\264"
 533      3EBC6F31 
 533      E629C65C 
 533      B2A6DB58 
 533      73397C5E 
 534 00fa 5466D720 		.ascii	"Tf\327 r\247\033\230\346\032\351\306\232\375`\336\002"
 534      72A71B98 
 534      E61AE9C6 
 534      9AFD60DE 
 534      02
 535 010b 398E49C6 		.ascii	"9\216I\306\022\\r\215\350\360)\264_\206\367W8\271\211"
 535      125C728D 
 535      E8F029B4 
 535      5F86F757 
 535      38B989
 536 011e 1D5A5072 		.ascii	"\035ZPr\232\270\246\274\025\206\274&>\261\375\357\241"
 536      9AB8A6BC 
 536      1586BC26 
 536      3EB1FDEF 
 536      A1
 537 012f BDDA58CB 		.ascii	"\275\332X\313m`\020\371M\333\246\031k\256\205\366\253"
 537      6D6010F9 
 537      4DDBA619 
 537      6BAE85F6 
 537      AB
 538 0140 F0DE1F68 		.ascii	"\360\336\037h\000\267.\261}&\274\313R\\\247jc\3155\306"
 538      00B72EB1 
 538      7D26BCCB 
 538      525CA76A 
 538      63CD35C6 
 539 0154 9A5B0D7C 		.ascii	"\232[\015|S\247\365\306:\244M|\262\211\263\017\361e"
 539      53A7F5C6 
 539      3AA44D7C 
 539      B289B30F 
 539      F165
 540 0166 7B4376DA 		.ascii	"{Cv\332>d\230\013h\231\024\217\013\262\316\006c\235"
 540      3E64980B 
 540      6899148F 
 540      0BB2CE06 
 540      639D
 541 0178 8140AF03 		.ascii	"\201@\257\003}m\330\221\310Bt\335\006\357\277 k\002"
 541      7D6DD891 
ARM GAS  /var/folders/c6/c789hm653lg9vtl73krp73tm0000gn/T//cc3LgWEg.s 			page 43


 541      C84274DD 
 541      06EFBF20 
 541      6B02
 542 018a 3D65D892 		.ascii	"=e\330\222\304\320C\320\356\015\364\034\3203@\217\001"
 542      C4D043D0 
 542      EE0DF41C 
 542      D033408F 
 542      01
 543 019b 75017A12 		.ascii	"u\001z\022\350\237\200\376\205\330I\326\327\254\246"
 543      E89F80FE 
 543      85D849D6 
 543      D7ACA6
 544 01aa 6C433E93 		.ascii	"lC>\2238\372\002\332_q\262\3278\224\375\267\002\262"
 544      38FA02DA 
 544      5F71B2D7 
 544      3894FDB7 
 544      02B2
 545 01bc BF60C8FE 		.ascii	"\277`\310\3762'\373k@\003\201\006\000\275D\360\200\372"
 545      3227FB6B 
 545      40038106 
 545      00BD44F0 
 545      80FA
 546 01ce 01FD9EF8 		.ascii	"\001\375\236\370\013\250\277!k\015';\211\377\275\320"
 546      0BA8BF21 
 546      6B0D273B 
 546      89FFBDD0 
 547 01de DEC7C94E 		.ascii	"\336\307\311N\366\316\375\026\262\273\014\371\211\334"
 547      F6CEFD16 
 547      B2BB0CF9 
 547      89DC
 548 01ec AF3B949B 		.ascii	"\257;\224\233\310\373\007C\376\\\240N\320\016\001\375"
 548      C8FB0743 
 548      FE5CA04E 
 548      D00E01FD 
 549 01fc 37D010A0 		.ascii	"7\320\020\240i@\363\201\376\003\350O@\363\200F\002\275"
 549      6940F381 
 549      FE03E84F 
 549      40F38046 
 549      02BD
 550 020e 0D340768 		.ascii	"\0154\007h\012\220\027h\006\320\004 ?\320\233@\305@"
 550      0A901768 
 550      06D00420 
 550      3FD09B40 
 550      C540
 551 0220 1E201568 		.ascii	"\036 \025h\026\220\017h8P)\320\177\001\215\000\032\013"
 551      16900F68 
 551      385029D0 
 551      7F018D00 
 551      1A0B
 552 0232 341A6812 		.ascii	"4\032h\022\320{@E\206\336\0079;\220\034P\007\355(g\207"
 552      D07B4045 
 552      86DE0739 
 552      3B901C50 
 552      07ED2867 
 553 0247 7A077670 		.ascii	"z\007vpj\203\223@'\014;<h\330\341G\240+@\347\200\032"
 553      6A839340 
 553      270C3B3C 
ARM GAS  /var/folders/c6/c789hm653lg9vtl73krp73tm0000gn/T//cc3LgWEg.s 			page 44


 553      68D8E147 
 553      A02B40E7 
 554 025d 811498F3 		.ascii	"\201\024\230\363-\274\377\000t\025\350:\220\014}w\341"
 554      2DBCFF00 
 554      7415E83A 
 554      900C7D77 
 554      E1
 555 026e FD0C5013 		.ascii	"\375\014P\023\320-\240\363@\027\200\276\007:-\353\233"
 555      D02DA0F3 
 555      401780BE 
 555      073A2DEB 
 555      9B
 556 027f E92CBCDF 		.ascii	"\351,\274\337\004\272\001t\033\350\016\320w\206~\365"
 556      04BA0174 
 556      1BE80ED0 
 556      77867EF5 
 557 028f 9CBE24DF 		.ascii	"\234\276$\337\271\201\322\270=Lr\245\225\276f\314:\325"
 557      B981D2B8 
 557      3D4C72A5 
 557      95BE66CC 
 557      3AD5
 558 02a1 B705B4B3 		.ascii	"\267\005\264\263\025]W\242\373\003\206\276\177\017}"
 558      155D57A2 
 558      FB0386BE 
 558      7F0F7D
 559 02b0 BF046A07 		.ascii	"\277\004j\007\364\010Pk\240\277\003z\010\2503\320\303"
 559      F408506B 
 559      A0BF037A 
 559      08A833D0 
 559      C3
 560 02c1 647DA047 		.ascii	"d}\240G\201:\001\265\007\352\000\364 \320\317\200\332"
 560      813A01B5 
 560      07EA00F4 
 560      20D0CF80 
 560      DA
 561 02d2 00FD02A8 		.ascii	"\000\375\002\250-P.PG\240\237\003\375\003\320\003\212"
 561      2D502E50 
 561      47A09F03 
 561      FD03D003 
 561      8A
 562 02e3 2EA399EF 		.ascii	".\243\231\357M]I^\377G\240\3078]\263\244\211\2326J["
 562      4D5D495E 
 562      FF47A0C7 
 562      385DB3A4 
 562      899A364A 
 563 02f8 F88EF662 		.ascii	"\370\216\366bM\313VR\231\006\257\334\331-3\245\361\244"
 563      4DCB5652 
 563      9906AFDC 
 563      D92D33A5 
 563      F1A4
 564 030a BB6159A4 		.ascii	"\273aY\244\303\354\226$rU\031\3722\260\221\235\211\226"
 564      C3EC9624 
 564      725519FA 
 564      32B0919D 
 564      8996
 565 031c 78445A0A 		.ascii	"xDZ\012ca\202\022\033\254u\350`=V\225\227\312\217\000"
 565      63618212 
ARM GAS  /var/folders/c6/c789hm653lg9vtl73krp73tm0000gn/T//cc3LgWEg.s 			page 45


 565      1BAC75E8 
 565      603D5695 
 565      97CA8F00 
 566 0330 5F2667E2 		.ascii	"_&g\342\252\344\222\3366[\304\247\212\244p\221g\276"
 566      AAE492DE 
 566      365BC4A7 
 566      8AA47091 
 566      67BE
 567 0342 52CD34D6 		.ascii	"R\3154\326\034/\233\213\266\302\301q}\364\2416\303T"
 567      1C2F9B8B 
 567      B6C2C171 
 567      7DF4A136 
 567      C354
 568 0354 7985ACB7 		.ascii	"y\205\254\267P\023\315\260\006\2160\246\344\2323\334"
 568      5013CDB0 
 568      068E30A6 
 568      E49A33DC 
 569 0364 C68C9594 		.ascii	"\306\214\225\224<\331\231\361F\016#\2659\312\026f\221"
 569      3CD999F1 
 569      460E23B5 
 569      39CA1666 
 569      91
 570 0375 9C658E36 		.ascii	"\234e\2166\254\250\257m=\003M^\326\260\377T\203\242"
 570      ACA8AF6D 
 570      3D034D5E 
 570      D6B0FF54 
 570      83A2
 571 0387 6919AABC 		.ascii	"i\031\252\274\012\340\025\222\356~%\255\322}\2618\317"
 571      0AE01592 
 571      EE7E25AD 
 571      D27DB138 
 571      CF
 572 0398 CA82CEA1 		.ascii	"\312\202\316\241\347\214\333\374k\204\376\030\241\267"
 572      E78CDBFC 
 572      6B84FE18 
 572      A1B7
 573 03a6 C93208B9 		.ascii	"\3112\010\271Z\376UL\243\364L\326/\360\331\034@\320"
 573      5AFE554C 
 573      A3F44CD6 
 573      2FF0D91C 
 573      40D0
 574 03b8 D233E30D 		.ascii	"\3223\343\015R\336\334'\211\016\267\011HU^\022w\340"
 574      52DEDC27 
 574      890EB709 
 574      48555E12 
 574      77E0
 575 03ca C29803EF 		.ascii	"\302\230\003\357O\346g~\230*W\011\373\3713\033?\267"
 575      4FE6677E 
 575      982A5709 
 575      FBF9331B 
 575      3FB7
 576 03dc 61D4FA2C 		.ascii	"a\324\372,\225\237+\342~v\242`$&y\207d\012\362\303T"
 576      959F2BE2 
 576      7E76A260 
 576      24267987 
 576      640AF2C3 
 577 03f1 799DB082 		.ascii	"y\235\260\202\353m\024l\317(\270>\225\202k\304\024\254"
ARM GAS  /var/folders/c6/c789hm653lg9vtl73krp73tm0000gn/T//cc3LgWEg.s 			page 46


 577      EB6D146C 
 577      CF28B83E 
 577      95826BC4 
 577      14AC
 578 0403 8849DE2E 		.ascii	"\210I\336.\231\202\3740U\336(\254\340&\033\005\3332"
 578      9982FC30 
 578      55DE28AC 
 578      E0261B05 
 578      DB32
 579 0415 0A6E4AA5 		.ascii	"\012nJ\245\340\006\033\005c{+b\273\267T\371C\314~\251"
 579      E0061B05 
 579      637B2B62 
 579      BBB754F9 
 579      43CC7EA9 
 580 0429 83DF6EF1 		.ascii	"\203\337n\361\315\311\027O\231\246!g\324\265\325\334"
 580      CDC9174F 
 580      99A62167 
 580      D4B5D5DC 
 581 0439 54A2B61B 		.ascii	"T\242\266\033\256\312\021\224Ufe\215e\334X\252\336\303"
 581      AECA1194 
 581      5566658D 
 581      65DC58AA 
 581      DEC3
 582 044b A50607D8 		.ascii	"\245\006\007\330\261\034S\336\023s\314\027\230c\016"
 582      B11C53DE 
 582      1373CC17 
 582      98630E
 583 045a 27E41899 		.ascii	"'\344\030\231\3131)d\021\031kg\340j\033\003\267\226"
 583      CB312964 
 583      11196B67 
 583      E06A1B03 
 583      B796
 584 046c A6609869 		.ascii	"\246`\230i\232Ly\267A1\347?\026W\353\356\344\223\335"
 584      9A4C79B7 
 584      4131E73F 
 584      1657EBEE 
 584      E493DD
 585 047f 412D6346 		.ascii	"A-cF\256\355pU\256\001\013\247\034F\006\356\222[\033"
 585      AEED7055 
 585      AE010BA7 
 585      1C4606EE 
 585      925B1B
 586 0492 DAE837DB 		.ascii	"\332\3507\333\310\265C\331\232[\357\227\030\2431\257"
 586      C8B543D9 
 586      9A5BEF97 
 586      18A331AF 
 587 04a2 4E12C83B 		.ascii	"N\022\310;*r\363\320\362\007\264\205\333e\007\012i\261"
 587      2A72F3D0 
 587      F207B485 
 587      DB65070A 
 587      69B1
 588 04b4 A57325E2 		.ascii	"\245s%\342\334\321p#\266\220\220\035\246\312\373\241"
 588      DCD17023 
 588      B690901D 
 588      A6CAFBA1 
 589 04c4 2A53E503 		.ascii	"*S\345\003\274\224\007\247\242\224\007\034IY{h\247\254"
 589      BC9407A7 
ARM GAS  /var/folders/c6/c789hm653lg9vtl73krp73tm0000gn/T//cc3LgWEg.s 			page 47


 589      A294071C 
 589      49597B68 
 589      A7AC
 590 04d6 4DCD6684 		.ascii	"M\315f\204l'\31506\267&\2073\244q\030Xc\265\221\362"
 590      6C27CD30 
 590      36B72687 
 590      33A47118 
 590      5863B591 
 591 04eb 9F529522 		.ascii	"\237R\225\"\252|D\316\000\005f\331W\022d\200dD\205\336"
 591      AA7C44CE 
 591      000566D9 
 591      57126480 
 591      644485DE 
 592 04ff 365B49E2 		.ascii	"6[I\342\343\260\254' \027>\244A\307o\262\200\015t\305"
 592      E3B0AC27 
 592      20173EA4 
 592      41C76FB2 
 592      800D74C5 
 593 0513 70ED26D6 		.ascii	"p\355&\326\306\003K\221\346+\262a/\253\341\261\004E"
 593      C6034B91 
 593      E62BB261 
 593      2FABE1B1 
 593      0445
 594 0525 E131B6D2 		.ascii	"\3411\266\322\2524-\263\231\216\251H\253\204\301r\355"
 594      AA342DB3 
 594      998EA948 
 594      AB84C172 
 594      ED
 595 0536 C1D63901 		.ascii	"\301\3269\001\313p(Y\2650\230\205d\366\001\241;\313"
 595      CB702859 
 595      B5309885 
 595      64F601A1 
 595      3BCB
 596 0548 CEE0A72C 		.ascii	"\316\340\247,<\025k\257\322S\213\361\231YB\225\267\311"
 596      3C156BAF 
 596      D2538BF1 
 596      99594295 
 596      B7C9
 597 055a F6379133 		.ascii	"\3667\2213q7\322\330\006\236\243H\370\206\216\204\235"
 597      7137D2D8 
 597      069EA348 
 597      F8868E84 
 597      9D
 598 056b 4E4C9493 		.ascii	"NL\224\223\302\336\367j\242\357\234\233(\226\031\357"
 598      C2DEF76A 
 598      A2EF9C9B 
 598      289619EF 
 599 057b 49E50BB4 		.ascii	"I\345\013\264\312\373\204UN\022\257\207\235\200u\370"
 599      CAFB8455 
 599      4E12AF87 
 599      9D8075F8 
 600 058b 7FB2DF35 		.ascii	"\177\262\3375{\373Y\346\332g\250\024\372\014\035\377"
 600      7BFB59E6 
 600      DA67A814 
 600      FA0C1DFF 
 601 059b C69DE3F2 		.ascii	"\306\235\343\362\314\177%\371\362&h\243H\232\213\275"
 601      CC7F25F9 
ARM GAS  /var/folders/c6/c789hm653lg9vtl73krp73tm0000gn/T//cc3LgWEg.s 			page 48


 601      F22668A3 
 601      489A8BBD 
 602 05ab 1DA60421 		.ascii	"\035\246\004!\002\334\341S\360I_\256\336\233:\001_Z"
 602      02DCE153 
 602      F0495FAE 
 602      DE9B3A01 
 602      5F5A
 603 05bd 8609D87C 		.ascii	"\206\011\330|\232(\303\365\357\334k\216\212\\\366\325"
 603      9A28C3F5 
 603      EFDC6B8E 
 603      8A5CF6D5 
 604 05cd E49B5873 		.ascii	"\344\233Xs\204\261r\255\004\225\022\264T\345\273X\245"
 604      84B172AD 
 604      049512B4 
 604      54E5BB58 
 604      A5
 605 05de 34CA9D80 		.ascii	"4\312\235\200kJ\247\3700;\247\335`v\260\243\360\275"
 605      6B4AA7F8 
 605      303BA7DD 
 605      6076B0A3 
 605      F0BD
 606 05f0 4A87EF22 		.ascii	"J\207\357\"\227h\304\361\272\230\216P\345C(v=\362\343"
 606      9768C4F1 
 606      BA988E50 
 606      E5432876 
 606      3DF2E3
 607 0603 C84F206F 		.ascii	"\310O o@~\036\371%\344Wd\007\252\355\245\345\374\020"
 607      407E1EF9 
 607      25E45764 
 607      07AAEDA5 
 607      E5FC10
 608 0616 E5DC75AF 		.ascii	"\345\334u\257\376k\270\273\357D\367YZd\244+]zG\277\357"
 608      FE6BB8BB 
 608      EF44F759 
 608      5A64A42B 
 608      5D7A47BF 
 609 062b 8E4A55D0 		.ascii	"\216JU\320]\236\331\203\304\357X%\035\326\377\204\213"
 609      5D9ED983 
 609      C4EF5825 
 609      1DD6FF84 
 609      8B
 610 063c 5F073044 		.ascii	"_\0070D\207\3610\231\211\340\312\021\271zo\222\010\306"
 610      87F13099 
 610      89E0CA11 
 610      B97A6F92 
 610      08C6
 611 064e 4DA7489F 		.ascii	"M\247H\237\273\364\307\004wf\274\357\313x\237L\015\335"
 611      BBF4C704 
 611      7766BCEF 
 611      CB789F4C 
 611      0DDD
 612 0660 1BEF56A8 		.ascii	"\033\357V\250\356\243\361n\027\325}6\336\355\246\272"
 612      EEA3F16E 
 612      17D57D36 
 612      DEEDA6BA 
 613 0670 6FC6BBD3 		.ascii	"o\306\273\323\250\356\321\356Xw3\252\373\375xw:\325"
 613      A8EED1EE 
ARM GAS  /var/folders/c6/c789hm653lg9vtl73krp73tm0000gn/T//cc3LgWEg.s 			page 49


 613      587733AA 
 613      FBFD7877 
 613      3AD5
 614 0682 3D2FDE9D 		.ascii	"=/\336\235A\371#iq\0337\222*OP\310\006\230\250\270l"
 614      41F92369 
 614      711B3792 
 614      2A4F50C8 
 614      0698A8B8 
 615 0697 EAF3156E 		.ascii	"\352\363\025n.\016\030\223\247*\0174\214\203\221Zd\214"
 615      2E0E1893 
 615      A72A0F34 
 615      8C83915A 
 615      648C
 616 06a9 CB7C3423 		.ascii	"\313|4#\267\310U\361[\244\026{4\3131\244+WD\037\315"
 616      B7C855F1 
 616      5BA4167B 
 616      34CB31A4 
 616      2B57441F 
 617 06be 1628D68F 		.ascii	"\026(\326\217f\346\326T\244\217y-\330eS\025&$\362\360"
 617      66E6D654 
 617      A48F792D 
 617      D8655315 
 617      2624F2F0 
 618 06d2 AE416453 		.ascii	"\256AdS\244JGh\251n\033fv[\313\243Y\355\264\316\026"
 618      A44A4768 
 618      A96E1B66 
 618      765BCBA3 
 618      59EDB4CE 
 619 06e7 60944775 		.ascii	"`\224Gu_\356\306d\266\007w\374\030\205\360\371\310\027"
 619      5FEEC664 
 619      B60777FC 
 619      1885F0F9 
 619      C817
 620 06f9 215F42A7 		.ascii	"!_B\2477\250\256\334\374\363\222\3768@\241\306\237\033"
 620      37A8AEDC 
 620      FCF392FE 
 620      3840A1C6 
 620      9F1B
 621 070b 24A7B876 		.ascii	"$\247\270v.\332\221\374\301\210~:`O#\364\334\020\331"
 621      2EDA91FC 
 621      C1887E3A 
 621      604F23F4 
 621      DC10D9
 622 071e D8066AF2 		.ascii	"\330\006j\362\025\012\271\263\355w[\336\331\354!\360"
 622      150AB9B3 
 622      ED775BDE 
 622      D9EC21F0 
 623 072e C959E1EE 		.ascii	"\311Y\341\356l\263j\361\341\202\364\247\276\267\315"
 623      6CB36AF1 
 623      E182F4A7 
 623      BEB7CD
 624 073d A99DDC5E 		.ascii	"\251\235\334^k\210\310zq\247H\247P\0042\327\351\246"
 624      6B88C87A 
 624      71A748A7 
 624      500432D7 
 624      E9A6
 625 074f 60F1E64E 		.ascii	"`\361\346N\313>\360\206\361\244\253\275\243u^\031\027"
ARM GAS  /var/folders/c6/c789hm653lg9vtl73krp73tm0000gn/T//cc3LgWEg.s 			page 50


 625      CB3EF086 
 625      F1A4ABBD 
 625      A3755E19 
 625      17
 626 0760 3DC79CAE 		.ascii	"=\307\234\256H\361\207\356y\355\210\254\237*\244\367"
 626      48F187EE 
 626      79ED88AC 
 626      9F2AA4F7 
 627 0770 0CA7BE73 		.ascii	"\014\247\276s\2309\343V\350\207rU\010\364SB\000\270"
 627      9839E356 
 627      E8877255 
 627      08F45342 
 627      00B8
 628 0782 B8076617 		.ascii	"\270\007f\027\373\020\354\312\2147\232\232\\\222\330"
 628      FB10ECCA 
 628      8C379A9A 
 628      5C92D8
 629 0791 6045BAC5 		.ascii	"`E\272\305[\215\021\322\312j9\224\325 \225L>{X\006_"
 629      5B8D11D2 
 629      CA6A3994 
 629      D520954C 
 629      3E7B5806 
 630 07a6 CFCE3773 		.ascii	"\317\3167sI\007\346\224\247\263\211\221f\210\264^8\223"
 630      4907E694 
 630      A7B38991 
 630      6688B45E 
 630      3893
 631 07b8 6CB0C924 		.ascii	"l\260\311$\361\257\331\032y%\230US\345\303Q\221\362"
 631      F1AFD91A 
 631      79259855 
 631      53E5C351 
 631      91F2
 632 07ca DAAC8A37 		.ascii	"\332\254\2127\3148"
 632      CC38
 633 07d0 1A95E620 		.ascii	"\032\225\346 \216\230\254\224\301\200U\320`\343\205"
 633      8E98AC94 
 633      C18055D0 
 633      60E385
 634 07df C17218B0 		.ascii	"\301r\030\260\252\332\3542\325LJ\223y0\261g\257\310"
 634      AADAEC32 
 634      D54C4A93 
 634      7930B167 
 634      AFC8
 635 07f1 1A5AB2A9 		.ascii	"\032Z\262\251N$\263\177J\211\254#\333\305\214\377\331"
 635      4E24B37F 
 635      4A89AC23 
 635      DBC58CFF 
 635      D9
 636 0802 3C985514 		.ascii	"<\230U\024\345\330\253\271\201\226\254\\X\262\\\311"
 636      E5D8ABB9 
 636      8196AC5C 
 636      58B25CC9 
 637 0812 F6456719 		.ascii	"\366Eg\031U\376\010o\254\2531E~\202|\035\362\215\310"
 637      55FE086F 
 637      ACAB3145 
 637      7E827C1D 
 637      F28DC8
ARM GAS  /var/folders/c6/c789hm653lg9vtl73krp73tm0000gn/T//cc3LgWEg.s 			page 51


 638 0825 3723AF46 		.ascii	"7#\257F\036A\276\035\371\227N\222\351r\345oK\2467ke"
 638      1E41BE1D 
 638      F9974E92 
 638      E972E56F 
 638      4BA6376B 
 639 083a 288ABEC6 		.ascii	"(\212\276\306l\2728\355\036\262\351.>\233\036\321\263"
 639      6CBA38ED 
 639      1EB2E92E 
 639      3E9B1ED1 
 639      B3
 640 084b E92E47D9 		.ascii	"\351.G\3314\312dSU\376XQ\014\314{\313\246G\343\341\241"
 640      34CA6453 
 640      55FE5851 
 640      0CCC7BCB 
 640      A647E3E1 
 641 0860 CA6B7930 		.ascii	"\312ky0\261$\023\251\357_\361\206uz\3117g73\254\260"
 641      B12413A9 
 641      EF5FF186 
 641      757AC937 
 641      673733AC 
 642 0875 5F38BD1C 		.ascii	"_8\275\034\260I/i\261\010\372\234\027\237Y5uz9\036\217"
 642      B0492F69 
 642      B108FA9C 
 642      179F5935 
 642      757A391E 
 643 088a 6E55DEE4 		.ascii	"nU\336\344\304\260I2\302\011\032l\2130X\007\006\354"
 643      C4B04932 
 643      C2091A6C 
 643      8B305807 
 643      06EC
 644 089c 623CBDA8 		.ascii	"b<\275\250\362V\036L0\275\\\246%\333\346D\262$\351\345"
 644      F2561E4C 
 644      30BD5CA6 
 644      25DBE644 
 644      B224E9E5 
 645 08b0 2A1D3F5F 		.ascii	"*\035?_8\211\237$\351\345:-\331W\302\222\345Z\355\033"
 645      38899F24 
 645      E9E53A2D 
 645      D957C292 
 645      E55AED1B 
 646 08c4 33387651 		.ascii	"38vQ\351e7\246\227=\2304\366\"\337\207\374 \362C\310"
 646      E96537A6 
 646      973D9834 
 646      F622DF87 
 646      FC20F243 
 647 08d9 6B911F46 		.ascii	"k\221\037F~\004y\235\243Z-Ez\241\312\214\212\330I\356"
 647      7E04799D 
 647      A35A2D45 
 647      7AA1CA8C 
 647      8AD849EE 
 648 08ed A3522CBD 		.ascii	"\243R,\275\3149F\322\313QL/km\322\213-\006\021\340\030"
 648      CC3946D2 
 648      CB514C2F 
 648      6B6DD28B 
 648      2D0611E0 
 649 0902 9F5E66D4 		.ascii	"\237^f\324cz9\346(\275\314\252g\213\265\032\024\341"
 649      637A39E6 
ARM GAS  /var/folders/c6/c789hm653lg9vtl73krp73tm0000gn/T//cc3LgWEg.s 			page 52


 649      28BDCCAA 
 649      678BB51A 
 649      14E1
 650 0914 D83DA797 		.ascii	"\330=\247\227\331\365\324\015\243N\030\214\275c\317"
 650      D9F5D40D 
 650      A34E188C 
 650      BD63CF
 651 0923 A5C11A84 		.ascii	"\245\301\032\204\301\330X\373\200\006;-\014\306\356"
 651      C1D858FB 
 651      80063B2D 
 651      0CC6EE
 652 0932 CF721AEC 		.ascii	"\317r\032\354\2020X.\003V1\227\272c_\343\301R\246\344"
 652      8230582E 
 652      03563197 
 652      BA635FE3 
 652      C152A6E4 
 653 0946 7C06AC8A 		.ascii	"|\006\254\212\226\354\246\023\311\354O\230#kh\260\261"
 653      96ECA613 
 653      C9EC4F98 
 653      236B68B0 
 653      B1
 654 0957 CD44C158 		.ascii	"\315D\301Xo\256\243\301f\010\203q\205\011\015\266R\030"
 654      6FAEA3C1 
 654      66088371 
 654      85090DB6 
 654      5218
 655 0969 8CF5E646 		.ascii	"\214\365\346F\032l\2430\030\353\315\315\2647\267\363"
 655      1A6CA330 
 655      18EBCDCD 
 655      B437B7F3 
 656 0979 6056DE64 		.ascii	"`V\336d\300XoV\323\222\355t\"Y\222\324}\200\006;*\014"
 656      C0586F56 
 656      D392ED74 
 656      225992D4 
 656      7D80063B 
 657 098f C67AF310 		.ascii	"\306z\363\020\015vV\030\214\365\346a\032\354\2720\030"
 657      0D765618 
 657      8CF5E661 
 657      1AECBA30 
 657      18
 658 09a0 EBCD3A26 		.ascii	"\353\315:&h\323E\301Xo\036\245\301\246\010\203uf\300"
 658      68D345C1 
 658      586F1EA5 
 658      C1A60883 
 658      7566C0
 659 09b3 EA69B085 		.ascii	"\352i\260\205\302`lh\034\247\301>\025\006\353\311\200"
 659      C2606C68 
 659      1CA7C13E 
 659      1506EBC9 
 659      80
 660 09c4 9DA0C136 		.ascii	"\235\240\30169\001\263?\260\211\\d\202V\030\214\215"
 660      3901B33F 
 660      B0895C64 
 660      8256188C 
 660      8D
 661 09d5 B3CB34D8 		.ascii	"\263\3134\330\021a06\316\25627\024a06\316\256\323`?"
 661      11613036 
ARM GAS  /var/folders/c6/c789hm653lg9vtl73krp73tm0000gn/T//cc3LgWEg.s 			page 53


 661      CEAE3237 
 661      14613036 
 661      CEAED360 
 662 09ea 0883B171 		.ascii	"\010\203\261qv\203\006k\024\006c\343\354\026\015\366"
 662      7683066B 
 662      140663E3 
 662      EC160DF6 
 663 09fa 7E862818 		.ascii	"~\206(\030\033gwh\260\005\302`l\2345\322`K\235\200\345"
 663      1B677768 
 663      B005C260 
 663      6C9C35D2 
 663      604B9D80 
 664 0a0f DAC759D9 		.ascii	"\332\307Y\3311\012l\2750\030\033gSi\260\235\302`l\234"
 664      310A6CBD 
 664      30181B67 
 664      5369B09D 
 664      C2606C9C 
 665 0a23 4DA7C18E 		.ascii	"M\247\301\216\010\203\261q6\363XB\221,\002\226+\331"
 665      0883B171 
 665      36F35842 
 665      912C0296 
 665      2BD9
 666 0a35 BEE8E251 		.ascii	"\276\350\342Q\225\217c\221\374?X\372\236D\376\015\362"
 666      958F6391 
 666      FC3F58FA 
 666      9E44FE0D 
 666      F2
 667 0a46 BF203F8D 		.ascii	"\277 ?\215\374,\362\363\310\277C\376\003\362\237\220"
 667      FC2CF2F3 
 667      C8BF43FE 
 667      03F29F90 
 668 0a56 5F427E05 		.ascii	"_B~\005\3715\344\177E~\023\371m\344w\2217!\037\351\""
 668      F935E47F 
 668      457E13F9 
 668      6DE47791 
 668      37211FE9 
 669 0a6b 7C34F2B1 		.ascii	"|4\362\261\310\307!\237\200|\022\362\367\220\277\217"
 669      C8C7219F 
 669      807C12F2 
 669      F790BF8F 
 670 0a7b 7C0AF269 		.ascii	"|\012\362i\310g \237\205|\016\362y\310\347\273\034\024"
 670      C867209F 
 670      857C0EF2 
 670      79C8E7BB 
 670      1C14
 671 0a8d EDD178D1 		.ascii	"\355\321x\321\336Q*\327\032.6\\Y~~\205<e\264V\243]$"
 671      DE512AD7 
 671      1A2E365C 
 671      597E7E85 
 671      3C65B456 
 672 0aa4 3F0AE2BE 		.ascii	"?\012\342\276\230\244\216\340\023\260\026\270\270/&"
 672      98A48EE0 
 672      13B016B8 
 672      B82F26
 673 0ab3 C9EF866C 		.ascii	"\311\357\206l\277\331\265\372&W\221ne\260\205\377\303"
 673      BFD9B5FA 
 673      2657916E 
ARM GAS  /var/folders/c6/c789hm653lg9vtl73krp73tm0000gn/T//cc3LgWEg.s 			page 54


 673      65B085FF 
 673      C3
 674 0ac4 D2124D9B 		.ascii	"\322\022M\233\252\255\367\275\250\303)\322\244L2\242"
 674      AAADF7BD 
 674      A8C329D2 
 674      A44C32A2 
 675 0ad4 DCD5D152 		.ascii	"\334\325\321R\016\343\307J\372\264\310\335\312]\262"
 675      0EE3C74A 
 675      FAB4C8DD 
 675      CA5DB2
 676 0ae3 D63AF6DD 		.ascii	"\326:\366\335b\212\231(\2211\263\221,\250O\233\356d"
 676      628A9928 
 676      9131B391 
 676      2CA84F9B 
 676      EE64
 677 0af5 9A044F21 		.ascii	"\232\004O!\313H\214\336>_\263(\266\246\224d\242a\264"
 677      CB488CDE 
 677      3E5FB328 
 677      B6A69464 
 677      A261B4
 678 0b08 252EE627 		.ascii	"%.\346'\261\304\011\221\206\310\255\035\357f\224\215"
 678      B1C40991 
 678      86C8AD1D 
 678      EF66948D 
 679 0b18 6C686AEA 		.ascii	"lhj\352(`\377\325V\366\347\354;7\323\322\276[L\373\252"
 679      2860FFD5 
 679      56F6E7EC 
 679      3B37D3D2 
 679      BE5B4CFB 
 680 0b2d F262DC57 		.ascii	"\362b\334W\037%\267\257\241\356Tm\355\267\257\274\030"
 680      1F25B7AF 
 680      A1EE546D 
 680      EDB7AFBC 
 680      18
 681 0b3e D7D56E96 		.ascii	"\327\325n\226!\340'\211\272.l\300o5\264\246\246&M\021"
 681      21E02789 
 681      BA2E6CC0 
 681      6F35B4A6 
 681      A6264D11 
 682 0b52 D0B5CA81 		.ascii	"\320\265\312\201\256k\035\352Z\351H\327Q\234\256v\263"
 682      AE6B1DEA 
 682      5AE948D7 
 682      519CAE76 
 682      B3
 683 0b63 0C01D758 		.ascii	"\014\001\327X\351\032\271\365u\266\260[7\360\252V'\252"
 683      E91AB9F5 
 683      75B6B05B 
 683      37F0AA56 
 683      27AA
 684 0b75 BAD35AD5 		.ascii	"\272\323Z\325Z\242j5n\233op\304z[U\253\223\250j7\313"
 684      5AA26A35 
 684      6E9B6F70 
 684      C47A5B55 
 684      AB93A86A 
 685 0b8b 1070A3A5 		.ascii	"\020p\243\245\252['\356\226A\204;\344\024\237\323\366"
 685      AA5B27EE 
 685      9641843B 
ARM GAS  /var/folders/c6/c789hm653lg9vtl73krp73tm0000gn/T//cc3LgWEg.s 			page 55


 685      E4149FD3 
 685      F6
 686 0b9c E9B6B6CA 		.ascii	"\351\266\266\312n\345\225\335A\347\020\343\004\223S"
 686      6EE595DD 
 686      41E710E3 
 686      049353
 687 0bab FEBCB5F2 		.ascii	"\376\274\265\362\177&\312\357@\345\233pD\265\255\362"
 687      7F26CAEF 
 687      40E59B70 
 687      44B5ADF2 
 688 0bbb 3BA89C71 		.ascii	";\250\234qp\342\232\007\264\205\212\276\230\"\215i\236"
 688      70E29A07 
 688      B4858ABE 
 688      98228D69 
 688      9E
 689 0bcc 7CAA2112 		.ascii	"|\252!\022\332M\003\245G/\224\265f\250\242d\314\243"
 689      DA4D03A5 
 689      472F94B5 
 689      66A8A264 
 689      CCA3
 690 0bde 5EAABCDD 		.ascii	"^\252\274\335\322V\233w[\207E\022C\355Lj\250\035\226"
 690      D2569B77 
 690      5B874512 
 690      43ED4C6A 
 690      A81D96
 691 0bf1 869AD43C 		.ascii	"\206\232\324<\271\241T\371K\027\331\0205\216\014\265"
 691      B9A154F9 
 691      4B17D910 
 691      358E0CB5 
 692 0c01 759261A8 		.ascii	"u\222a\250\035h\250E\010\236d*c\250-\223XC\325\360\206"
 692      1D68A845 
 692      089E642A 
 692      63A82D93 
 692      5843D5F0 
 693 0c16 DA636DA8 		.ascii	"\332cm\250}\302\206:\224\324PQKC\255th\250\203\316\014"
 693      7DC2863A 
 693      94D45051 
 693      4B43AD74 
 693      68A883CE 
 694 0c2b 35D93054 		.ascii	"5\3310T\024\015U\215\340\366S\243\254\241&\263\206:"
 694      140D558D 
 694      E0F653A3 
 694      ACA126B3 
 694      863A
 695 0c3d C81BEA88 		.ascii	"\310\033\352\210\245\241\356\354\0276\324\261$\206J"
 695      A5A1EEEC 
 695      1736D4B1 
 695      24864A
 696 0c4c 75A0A731 		.ascii	"u\240\2471?\3154\177\222\272\357d\017\374\342\360\244"
 696      3FCD347F 
 696      92BAEF64 
 696      0FFCE2F0 
 696      A4
 697 0c5d 8B9CE97D 		.ascii	"\213\234\351}\305\0315%\014\376\236\316\305\235\351"
 697      C5193525 
 697      0CFE9ECE 
 697      C59DE9
ARM GAS  /var/folders/c6/c789hm653lg9vtl73krp73tm0000gn/T//cc3LgWEg.s 			page 56


 698 0c6c 4DABC333 		.ascii	"M\253\3033=\322\237\372LoF\035\373\225\301\011\314\367"
 698      3DD29FFA 
 698      4C6F461D 
 698      FB95C109 
 698      CCF7
 699 0c7e 646E929A 		.ascii	"dn\222\232Q\177Y\326\3313\353\250\002\364\2240\030["
 699      517F59D6 
 699      D933EBA8 
 699      02F49430 
 699      185B
 700 0c90 67CFA6C1 		.ascii	"g\317\246\301\276\025\006c\353\354\2714\330\031a0\266"
 700      BE150663 
 700      EBECB934 
 700      D8196130 
 700      B6
 701 0ca1 CEFE6026 		.ascii	"\316\376`&u\262}\216\007Ky\014\227\313\200\225\323\222"
 701      75B27D8E 
 701      074B790C 
 701      97CB8095 
 701      D392
 702 0cb3 5D10968C 		.ascii	"]\020\226\214}\004\253\240\301\276\027\006c\037\301"
 702      7D04ABA0 
 702      C1BE1706 
 702      631FC1
 703 0cc2 AA68B01F 		.ascii	"\252h\260\037\235\200%; \244\301.\012\203q\007\2044"
 703      9D80253B 
 703      20A4C12E 
 703      0A837107 
 703      8434
 704 0cd4 D8656130 		.ascii	"\330ea0\356\200\220\366\346U'\336Lr\246\267\221\226"
 704      EE8090F6 
 704      E65527DE 
 704      4C72A6B7 
 704      9196
 705 0ce6 ECBAB064 		.ascii	"\354\272\260d\25477\323`7\204\301XoV\323`\267\234\200"
 705      AC3737D3 
 705      603784C1 
 705      586F56D3 
 705      60B79C80 
 706 0cfa 253B20A4 		.ascii	"%; \244\301\356\010\203q\007\2044X\2430\030w@XG=P\037"
 706      C1EE0883 
 706      71078434 
 706      58A33018 
 706      77405847 
 707 0d11 C3942A02 		.ascii	"\303\224*\002\306\035\020\322`\347\204\301\330\3208"
 707      C61D10D2 
 707      60E784C1 
 707      D8D038
 708 0d20 4AAB39C6 		.ascii	"J\2539\306%\252&w@H\203\275#\014\306\035\020\322`\023"
 708      25AA2677 
 708      404883BD 
 708      230CC61D 
 708      10D26013 
 709 0d34 85C1B803 		.ascii	"\205\301\270\003B\032\354]'`\311\016\010i\260\311\302"
 709      421AEC5D 
 709      2760C90E 
 709      0869B0C9 
ARM GAS  /var/folders/c6/c789hm653lg9vtl73krp73tm0000gn/T//cc3LgWEg.s 			page 57


 709      C2
 710 0d45 60DC0121 		.ascii	"`\334\001!\0156U\030\214; \244\301\246\013\203q\007"
 710      0D365518 
 710      8C3B20A4 
 710      C1A60B83 
 710      7107
 711 0d57 8434D84C 		.ascii	"\2044\330La06\316n\320`\263\205\301\270\003B\032l\256"
 711      613036CE 
 711      6ED060B3 
 711      85C1B803 
 711      421A6CAE 
 712 0d6b 30187740 		.ascii	"0\030w@X\227p>%\002\326S\262}\321\205\220*\377\305E"
 712      5897703E 
 712      2502D653 
 712      B27DD185 
 712      902AFFC5 
 713 0d80 CEA7BEC5 		.ascii	"\316\247\276\305S\236\323\310\317 ?\213\374\034\362"
 713      539ED3C8 
 713      CF203F8B 
 713      FC1CF2
 714 0d8f F3C82F20 		.ascii	"\363\310/ \377\016\371\367\310\177@\376#\362\237\220"
 714      FF0EF9F7 
 714      C87F40FE 
 714      23F29F90 
 715 0d9f 5F447E09 		.ascii	"_D~\011\371e\344W\220_E~\035\371\015\3447\221\337B~"
 715      F965E457 
 715      905F457E 
 715      1DF90DE4 
 715      3791DF42 
 716 0db4 1BF91DE4 		.ascii	"\033\371\035\344w\2217\"oB\256\271\361T\013\371(\267"
 716      77913722 
 716      6F42AEB9 
 716      F1540BF9 
 716      28B7
 717 0dc6 8373A813 		.ascii	"\203s\250\023.\333\337G+\322-\313r\274\341\312\362K"
 717      2EDBDF47 
 717      2BD22DCB 
 717      72BCE1CA 
 717      F24B
 718 0dd8 BFF99E9C 		.ascii	"\277\371\236\234\036\260Ey\275\243\242\274i\377Z\275"
 718      1EB04579 
 718      BDA3A2BC 
 718      69FF5ABD 
 719 0de8 28272B2B 		.ascii	"('++RY\226\234t\252!\237Q\224\337}\237-\312\353\371"
 719      5259969C 
 719      74AA219F 
 719      5194DF7D 
 719      9F2DCAEB 
 720 0dfd A27CB4DB 		.ascii	"\242|\264\333\252(\257\250\025.\312'\270\005\213r\333"
 720      AA28AFA8 
 720      152ECA27 
 720      B8058B72 
 720      DB
 721 0e0e BF978A15 		.ascii	"\277\227\212\025\345\215zQ\376\236\233\024\3453\263"
 721      E58D7A51 
 721      FE9E9B14 
 721      E533B3
ARM GAS  /var/folders/c6/c789hm653lg9vtl73krp73tm0000gn/T//cc3LgWEg.s 			page 58


 722 0e1d 52FE8E27 		.ascii	"R\376\216'\261(/ssE\371\234(\026\345\244?uQ>/jU\224"
 722      B1282F73 
 722      7345F99C 
 722      2816E5A4 
 722      3F75513E 
 723 0e35 93B94ECB 		.ascii	"\223\271N\3138\026\357\203hBQ.\002\306\346\320\362h"
 723      3816EF83 
 723      6842512E 
 723      02C6E6D0 
 723      F268
 724 0e47 42512E02 		.ascii	"BQ.\002\306\346\320\212hBQ.\002\306\346\320\252Y\011"
 724      C6E6D08A 
 724      6842512E 
 724      02C6E6D0 
 724      AA5909
 725 0e5a 45390526 		.ascii	"E9\005&X\224\257\211&\024\345\"\222\261io]4\241(\027"
 725      5894AF89 
 725      2614E522 
 725      92B1696F 
 725      5D34A128 
 726 0e6f 01636FAF 		.ascii	"\001co\257\033\242\011Ey\012\260$E\371\306hBQ.\002\306"
 726      1BA20945 
 726      790AB024 
 726      45F9C668 
 726      42512E02 
 727 0e84 86C6E668 		.ascii	"\206\306\346hBQ.\002\306\206Fu\224\372Y\323U\036\214"
 727      42512E02 
 727      C6864675 
 727      94FA59D3 
 727      551E8C
 728 0e97 49035660 		.ascii	"I\003V`\2547\017\320\222]s9\220,I\351{\210\006\373\253"
 728      AC370FD0 
 728      925D7339 
 728      902C49E9 
 728      7B8806FB 
 729 0eac 30186BB3 		.ascii	"0\030k\263\303\321\204\232P\004\214\265Y]4\241&\024"
 729      C3D1849A 
 729      50048CB5 
 729      595D34A1 
 729      2614
 730 0ebe 0163B7D3 		.ascii	"\001c\267\323\321hBM(\002\306:\240>\232P\023\212\200"
 730      D168424D 
 730      2802C63A 
 730      A03E9A50 
 730      138A80
 731 0ed1 B125C9F1 		.ascii	"\261%\311\361hBM(\002\306\356\315\023\321\204\232P\004"
 731      68424D28 
 731      02C6EECD 
 731      13D1849A 
 731      5004
 732 0ee3 8CDD9B17 		.ascii	"\214\335\233\027\243\0115a\012\260$\245\357\345hBM("
 732      A3093561 
 732      0AB024A5 
 732      EFE56842 
 732      4D28
 733 0ef5 02C6C6D9 		.ascii	"\002\306\306\331\325hBM(\002\306\375\026/\232P\023\212"
 733      D568424D 
ARM GAS  /var/folders/c6/c789hm653lg9vtl73krp73tm0000gn/T//cc3LgWEg.s 			page 59


 733      2802C6FD 
 733      162F9A50 
 733      138A
 734 0f07 80B17176 		.ascii	"\200\261qv#\232P\023\212\200\345J\266/\372>\254\312"
 734      239A5013 
 734      8A80E54A 
 734      B62FFA3E 
 734      ACCA
 735 0f19 53DCA426 		.ascii	"S\334\244&\234\212\025\3274\344\323\221\317@>\023\371"
 735      9C8A15D7 
 735      34E4D391 
 735      CF403E13 
 735      F9
 736 0f2a 2CE4B391 		.ascii	",\344\263\221\317A>\027\371<\344\037 \237\217\274\034"
 736      CF413E17 
 736      F93CE41F 
 736      209F8FBC 
 736      1C
 737 0f3b F902E40B 		.ascii	"\371\002\344\013\221/B\276\030\371\022\344K\221/C\276"
 737      912F42BE 
 737      18F912E4 
 737      4B912F43 
 737      BE
 738 0f4c 1CF90AE4 		.ascii	"\034\371\012\344+\221\257rR\365\275\353NR\365\255\316"
 738      2B91AF72 
 738      52F5BDEB 
 738      4E52F5AD 
 738      CE
 739 0f5d B2A9FAB6 		.ascii	"\262\251\372\266\365\265\250\372\306\273\235T}\237\325"
 739      F5B5A8FA 
 739      C6BB9D54 
 739      7D9FD5
 740 0f6c 1A551F59 		.ascii	"\032U\037YY\221\266\343\022\366S\015\371\214\252\257"
 740      5991B6E3 
 740      12F6530D 
 740      F98CAAAF 
 741 0f7c 721A5BF5 		.ascii	"r\032[\365\221y\214\370\037&V}\015e\015\225\325\227"
 741      91798CF8 
 741      1F26567D 
 741      0D650D95 
 741      D597
 742 0f8e 7E37BB4A 		.ascii	"~7\273J\0333Aklz[v^\372U\260\245\037"
 742      1B33416B 
 742      6C7A5B76 
 742      5EFA55B0 
 742      A51F
 743 0fa0 F7E7C2D4 		.ascii	"\367\347\302\324\377f\2210\263*nV\316\246\3478\233\232"
 743      FF669130 
 743      B32A6E56 
 743      CEA6E738 
 743      9B9A
 744 0fb2 833E6325 		.ascii	"\203>c%\377\271\264H;p\000L\375\347\016\323\264Q5\332"
 744      FFB9B448 
 744      3B70004C 
 744      FDE70ED3 
 744      B45135DA 
 745 0fc6 98485393 		.ascii	"\230HS\223\334\021\334/\223\277c\272\234\305}!\312\377"
ARM GAS  /var/folders/c6/c789hm653lg9vtl73krp73tm0000gn/T//cc3LgWEg.s 			page 60


 745      DC11DC2F 
 745      93BF63BA 
 745      9CC57D21 
 745      CAFF
 746 0fd8 8F368A74 		.ascii	"\2176\212t;K\306\326\317\244\011\331\363I\265\271\030"
 746      3B4BC6D6 
 746      CFA409D9 
 746      F349B5B9 
 746      18
 747 0fe9 FFE30C1D 		.ascii	"\377\343\014\0357R\366\265\226Q6r\274\326\324\364\266"
 747      3752F6B5 
 747      96513672 
 747      BCD6D4F4 
 747      B6
 748 0ffa 2A57C215 		.ascii	"*W\302\025U^"
 748      555E
 749 1000 EBE6BE89 		.ascii	"\353\346\276\211\343\377\367\024E\232\227mb\256\322"
 749      E3FFF714 
 749      459A976D 
 749      62AED2
 750 100f 312B69CC 		.ascii	"1+i\314F\032s-\205I}y\305\377\"]\221\252c\230{t\314"
 750      461A732D 
 750      85497D79 
 750      C5FF225D 
 750      91AA6398 
 751 1026 B53466DD 		.ascii	"\2654f\335.\012\363s\012\223\372:\210\377?B\024\351"
 751      2E0AF373 
 751      0A93FA3A 
 751      88FF3F42 
 751      14E9
 752 1038 740CF38A 		.ascii	"t\014\363\212\216\3719\215yx\267\015fM2\314\211-L\314"
 752      8EF9398D 
 752      7978B70D 
 752      664D32CC 
 752      892D4CCC 
 753 104c D92D2C30 		.ascii	"\331-,0\367\331`\036L\206\371i\014s\213\005\346\364"
 753      F7D9601E 
 753      4C86F969 
 753      0C738B05 
 753      E6F4
 754 105e 433698F5 		.ascii	"C6\230\365\3110\017\3070OY`n\250\265\301\244v`\"\346"
 754      C9300FC7 
 754      304F5960 
 754      6EA8B5C1 
 754      A4766022 
 755 1073 CD18E6B8 		.ascii	"\315\030\346\270\226\024&\267\037\310n\261\333\017{"
 755      961426B7 
 755      1FC86EB1 
 755      DB0F7B
 756 1082 DDD6BF4C 		.ascii	"\335\326\277L\326\177\262`7k_|V\256\264\200\374By\346"
 756      D67FB260 
 756      376B5F7C 
 756      56AEB480 
 756      FC4279E6 
 757 1096 38ADB912 		.ascii	"8\255\271\022\333\376\037\321\017}\372\2102m\254\315"
 757      DBFE1FD1 
 757      0F7DFA88 
ARM GAS  /var/folders/c6/c789hm653lg9vtl73krp73tm0000gn/T//cc3LgWEg.s 			page 61


 757      326DACCD 
 758 10a6 756EDDD5 		.ascii	"un\335\325I\326=\310\257\313\240V&\256\252i+s\222]\217"
 758      49D63DC8 
 758      AFCBA056 
 758      26AEAA69 
 758      2B73925D 
 759 10bb 54317257 		.ascii	"T1rW\332\312E\377\255\345\026'\177k\031\377\033J[m\216"
 759      DACA45FF 
 759      ADE51627 
 759      7F6B19FF 
 759      1B4A5B6D 
 760 10d0 C4B531E0 		.ascii	"\304\2651\340\027\342\177\376\341\360\2579\251\025$"
 760      17E27FFE 
 760      E1F0AF39 
 760      A91524
 761 10df B777A81A 		.ascii	"\267w\250\032|)\2574\024\314+,\366\252\205y\275|\205"
 761      7C29AF34 
 761      14CC2B2C 
 761      F6AA8579 
 761      BD7C85
 762 10f2 856A306F 		.ascii	"\205j0o\210\327\373\270\032,z<P\034\360=\356S\007\371"
 762      88D7FBB8 
 762      1A2C7A3C 
 762      501CF03D 
 762      EE5307F9 
 763 1106 F3BAE577 		.ascii	"\363\272\345w\355\236\3373\277G\036\333\355\017x\013"
 763      ED9EDF33 
 763      BF471EDB 
 763      ED0F780B 
 764 1116 4B0B7C79 		.ascii	"K\013|y\241p\201?\020\3562T\312(\205\367'\272y\302\315"
 764      A170813F 
 764      10EE3254 
 764      CA2885F7 
 764      27BA79C2 
 765 112b 5EE83730 		.ascii	"^\35070\267\227\364\357\377\007\340E\252w\250?\340\313"
 765      B797F4EF 
 765      FF07E045 
 765      AA77A83F 
 765      E0CB
 766 113d F314F806 		.ascii	"\363\024\370\006\253\245\205aOxD\211/\004\2135\367x"
 766      ABA58561 
 766      4F784489 
 766      2F048B35 
 766      F778
 767 114f CCE5D249 		.ascii	"\314\345\322I\243\247'\234\251wA\353\341.]\362\364\177"
 767      A3A7279C 
 767      A97741EB 
 767      E12E5DF2 
 767      F47F
 768 1161 C5A1BCA1 		.ascii	"\305\241\274\241\260\274\011\007mOQ\2217T\000\010m\372"
 768      B0BC0907 
 768      6D4F5191 
 768      37540008 
 768      6DFA
 769 1173 F6EDD5BF 		.ascii	"\366\355\325\277\367s \337\233\275}\303\374^\337k}\007"
 769      F77320DF 
 769      9BBD7DC3 
ARM GAS  /var/folders/c6/c789hm653lg9vtl73krp73tm0000gn/T//cc3LgWEg.s 			page 62


 769      FC5EDF6B 
 769      7D07
 770 1185 A4799E2B 		.ascii	"\244y\236+..\314\362\207<\376@\310\027\014\373\012\262"
 770      2E2ECCF2 
 770      873CFE40 
 770      C8170CFB 
 770      0AB2
 771 1197 A15D122C 		.ascii	"\241]\022,\016\373\274\360!\335[\034\010@\253y\201?"
 771      0EFBBCF0 
 771      21DD5B1C 
 771      0840AB79 
 771      813F
 772 11a9 6434DD41 		.ascii	"d4\335A\237Z\2206<\350\017\373\334\241\021\001\357\243"
 772      9F5A9036 
 772      3CE80FFB 
 772      DCA11101 
 772      EFA3
 773 11bb C996F617 		.ascii	"\311\226\366\027\017\"\313\301\342\367Q\353\366\011"
 773      0F22CBC1 
 773      E2F751EB 
 773      F609
 774 11c9 0C2ECE18 		.ascii	"\014.\316\030T\370\246'\344\377O_:i\004J\2132\206\370"
 774      54F8A627 
 774      E4FF4F5F 
 774      3A69044A 
 774      8B3286F8 
 775 11dd C220C4E0 		.ascii	"\302 \304\340b\327\260\242ps\350\014\205\325\260\317"
 775      62D7B0A2 
 775      7073E80C 
 775      85D5B0CF 
 776 11ed 136EFEDC 		.ascii	"\023n\376\334K\377\346\031\330\257O\277>\0032H\263\377"
 776      4BFFE619 
 776      D8AF4FBF 
 776      3E033248 
 776      B3FF
 777 11ff 80975FC1 		.ascii	"\200\227_\301\276g{\015\350\363\332\363-I\263\327\313"
 777      BE677B0D 
 777      E8F3DAF3 
 777      2D49B3D7 
 777      CB
 778 1210 FDFA3D0F 		.ascii	"\375\372=\017\037\373\275\320\212|\354\335\247\177\274"
 778      1FFBBDD0 
 778      8A7CECDD 
 778      A77FBC
 779 121f 2793F4BC 		.ascii	"'\223\364\274\372\374\263\275\377\230e\266\240\027\333"
 779      FAFCB3BD 
 779      FF9865B6 
 779      A017DB
 780 122e AFBFDA67 		.ascii	"\257\277\332g\200\331\356\377\307~\275\240\235\206\253"
 780      80D9EEFF 
 780      C77EBDA0 
 780      9D86AB
 781 123d BABCFE02 		.ascii	"\272\274\376\002\027\030-\303\253\226\250^\177xD\016"
 781      17182DC3 
 781      AB96A85E 
 781      7F78440E 
 782 124d 6FBAD6A5 		.ascii	"o\272\326\245\001\270\362\246\257\300\023*\360z`\270"
ARM GAS  /var/folders/c6/c789hm653lg9vtl73krp73tm0000gn/T//cc3LgWEg.s 			page 63


 782      01B8F2A6 
 782      AFC0132A 
 782      F07A60B8 
 783 125d 27EC2AF2 		.ascii	"'\354*\362\027`Dt}\022\244\326]C\232\256b\000+\011\024"
 783      17604474 
 783      7D12A4D6 
 783      5D439AAE 
 783      62002B09 
 784 1272 A5950487 		.ascii	"\245\225\004\207y\002\310\213\\%\241@ZQA\330S\204|\204"
 784      7902C88B 
 784      5C25A140 
 784      5A5141D8 
 784      53847C84 
 785 1286 CB1BF4C6 		.ascii	"\313\033\364\306!\301a:$\327\025\202\256\026\204\207"
 785      21C1613A 
 785      24D71582 
 785      AE168487 
 786 1296 C2C1526F 		.ascii	"\302\301Ro\2704\350\313\014\225\370\274\236a\276`\310"
 786      B834E8CB 
 786      0C95F8BC 
 786      9E61BE60 
 786      C8
 787 12a7 1D5655AF 		.ascii	"\035VU\257;\020R\275\315\303A5\340\201\013>\320\301"
 787      3B1052BD 
 787      CDC34135 
 787      E0810B3E 
 787      D0C1
 788 12b9 EBCD22FE 		.ascii	"\353\315\"\376\362\014*\364\024\372\002\367\231\355"
 788      F20C2AF4 
 788      14FA02F7 
 788      99ED
 789 12c7 123518F6 		.ascii	"\0225\030\366\253\205\255\321\215\036\342\201\"\177"
 789      AB85ADD1 
 789      8D1EE281 
 789      227F
 790 12d5 482DF40F 		.ascii	"H-\364\017\011\2642\206\304{\322\013BA\217\277\250\244"
 790      09B43286 
 790      C47BD20B 
 790      42418FBF 
 790      A8A4
 791 12e7 9917FDD5 		.ascii	"\231\027\375\325rXA\201'\350\361\226\006\2030$\300|"
 791      72584181 
 791      27E8F196 
 791      06833024 
 791      C07C
 792 12f9 54DFC28F 		.ascii	"T\337\302\217\303\331\253\303cW\263t\010O\021\004vK"
 792      C3D9ABC3 
 792      6357B374 
 792      084F1104 
 792      764B
 793 130b 5F500DF9 		.ascii	"_P\015\371<C\202%:l\374#\271\2325\274$v\251\205\321"
 793      3C438225 
 793      3A6CFC23 
 793      B99A35BC 
 793      2476A985 
 794 1320 F605D441 		.ascii	"\366\005\324A\205\276,sc\370\274\336\346\301n\303=\203"
 794      85BE2C73 
ARM GAS  /var/folders/c6/c789hm653lg9vtl73krp73tm0000gn/T//cc3LgWEg.s 			page 64


 794      63F8BCDE 
 794      E6C16EC3 
 794      3D83
 795 1332 556FB838 		.ascii	"Uo\2708\230m\252B\364\314\211}0\024\315\201\340\015"
 795      986DAA42 
 795      F4CC897D 
 795      3014CD81 
 795      E00D
 796 1344 FB02618C 		.ascii	"\373\002a\214l\217ZRr\337`\177\241\3173\2708X\244\206"
 796      6C8F5A52 
 796      72DF607F 
 796      A1CF33B8 
 796      3858A486 
 797 1358 09B8DB5B 		.ascii	"\011\270\333[\\2\242u\211/X\344\321\347\032[\240U\270"
 797      5C32A275 
 797      892F58E4 
 797      D1E71A5B 
 797      A055B8
 798 136b A884EDC9 		.ascii	"\250\204\355\311\242f\272@\206\\>\376CA/\265\355\274"
 798      A266BA40 
 798      865C3EFE 
 798      43412FB5 
 798      EDBC
 799 137d 528EDEF2 		.ascii	"R\216\336\362\220\370\016\025B\354\270\013\324\260\352"
 799      90F80E15 
 799      42ECB80B 
 799      D4B0EA
 800 138c F2050A48 		.ascii	"\362\005\012H\260\005\303\017R\327\315x\353B\344\356"
 800      B005C30F 
 800      52D7CD78 
 800      EB42E4EE 
 801 139c 92DFC6E2 		.ascii	"\222\337\306\342R{\213>\217\357\255p:\020\011\221\266"
 801      527B8B3E 
 801      8FEFAD70 
 801      3A100991 
 801      B6
 802 13ad C6753D74 		.ascii	"\306u=t\314\360t\303;x\320_\000\357\334\010#\332\310"
 802      CCF074C3 
 802      3B78D05F 
 802      00EFDC08 
 802      23DAC8
 803 13c0 45687217 		.ascii	"Ehr\027I\023:\232\301;\271\310F=\\\353\232\357\011g"
 803      49133A9A 
 803      C13BB9C8 
 803      463D5CEB 
 803      9AEF0967 
 804 13d4 EBAE2331 		.ascii	"\353\256#1\343\013\264\322?\204|\304)\350>\013\304a"
 804      E30BB4D2 
 804      3F847CC4 
 804      29E83E0B 
 804      C461
 805 13e6 5DF3D3E0 		.ascii	"]\363\323\340\275k~\"`7\000\264\232\321\015gt\313\357"
 805      BD6B7E22 
 805      603700B4 
 805      9AD10D67 
 805      74CBEF
 806 13f9 489B3B18 		.ascii	"H\233;\030\216e\033\357\320\320\010\222&3\275C\373\217"
ARM GAS  /var/folders/c6/c789hm653lg9vtl73krp73tm0000gn/T//cc3LgWEg.s 			page 65


 806      8E651BEF 
 806      D0D00892 
 806      2633BD43 
 806      FB8F
 807 140b 08BDA816 		.ascii	"\010\275\250\026\2063<\236\301\245\001\257\307\323\302"
 807      86333C9E 
 807      C1A501AF 
 807      C7D3C2
 808 141a 6C7479AA 		.ascii	"lty\252g\376\223\255xwH\364\365\256O\334oa_fH\267\256"
 808      67FE93AD 
 808      787748F4 
 808      F5AE4FDC 
 808      6F615F66 
 809 1431 1D6C5CC0 		.ascii	"\035l\\\300\016{\252\235\245'\230AO<\321\316\322\031"
 809      0E7BAA9D 
 809      A5279841 
 809      4F3CD1CE 
 809      D219
 810 1443 ECA05FB7 		.ascii	"\354\240_\267\263t\0123\250{\017\213A`gfP\217\256V\203"
 810      B3740A33 
 810      A87B0F8B 
 810      41606766 
 810      508FAE56 
 811 1458 BAE54BFF 		.ascii	"\272\345K\377\013:\016#\344"
 811      0B3A0E23 
 811      E4
 812              		.text
 813              		.section	.gnu.lto_.symtab.6d89f25ba23a264a,"",%progbits
 814 0000 5F6D6D63 		.ascii	"_mmcsd_get_slice\000\000\000\000\000\000\000\000\000"
 814      73645F67 
 814      65745F73 
 814      6C696365 
 814      00000000 
 815 0019 0000009E 		.ascii	"\000\000\000\236\001\000\000_mmcsd_get_capacity\000"
 815      0100005F 
 815      6D6D6373 
 815      645F6765 
 815      745F6361 
 816 0034 00000000 		.ascii	"\000\000\000\000\000\000\000\000\000\000\000\261\001"
 816      00000000 
 816      000000B1 
 816      01
 817 0041 00005F6D 		.ascii	"\000\000_mmcsd_get_capacity_ext\000\000\000\000\000"
 817      6D637364 
 817      5F676574 
 817      5F636170 
 817      61636974 
 818 005f 00000000 		.ascii	"\000\000\000\000\000\000\000\267\001\000\000_mmcsd_"
 818      000000B7 
 818      0100005F 
 818      6D6D6373 
 818      645F
 819 0071 756E7061 		.ascii	"unpack_sdc_cid\000\000\000\000\000\000\000\000\000\000"
 819      636B5F73 
 819      64635F63 
 819      69640000 
 819      00000000 
ARM GAS  /var/folders/c6/c789hm653lg9vtl73krp73tm0000gn/T//cc3LgWEg.s 			page 66


 820 0089 0000BE01 		.ascii	"\000\000\276\001\000\000_mmcsd_unpack_mmc_cid\000\000"
 820      00005F6D 
 820      6D637364 
 820      5F756E70 
 820      61636B5F 
 821 00a6 00000000 		.ascii	"\000\000\000\000\000\000\000\000\000\000\310\001\000"
 821      00000000 
 821      0000C801 
 821      00
 822 00b3 005F6D6D 		.ascii	"\000_mmcsd_unpack_csd_mmc\000\000\000\000\000\000\000"
 822      6373645F 
 822      756E7061 
 822      636B5F63 
 822      73645F6D 
 823 00d0 00000000 		.ascii	"\000\000\000\000\000\321\001\000\000_mmcsd_unpack_c"
 823      00D10100 
 823      005F6D6D 
 823      6373645F 
 823      756E7061 
 824 00e8 73645F76 		.ascii	"sd_v10\000\000\000\000\000\000\000\000\000\000\000\000"
 824      31300000 
 824      00000000 
 824      00000000 
 824      0000
 825 00fa DA010000 		.ascii	"\332\001\000\000_mmcsd_unpack_csd_v20\000\000\000\000"
 825      5F6D6D63 
 825      73645F75 
 825      6E706163 
 825      6B5F6373 
 826 0117 00000000 		.ascii	"\000\000\000\000\000\000\000\000\010\002\000\000chS"
 826      00000000 
 826      08020000 
 826      636853
 827 0126 79734861 		.ascii	"ysHalt\000\000\002\000\000\000\000\000\000\000\000\000"
 827      6C740000 
 827      02000000 
 827      00000000 
 827      0000
 828 0138 2F020000 		.ascii	"/\002\000\000"
 829              		.text
 830              		.section	.gnu.lto_.opts,"",%progbits
 831 0000 272D6D63 		.ascii	"'-mcpu=cortex-m4' '-mno-thumb-interwork' '-mthumb' "
 831      70753D63 
 831      6F727465 
 831      782D6D34 
 831      2720272D 
 832 0033 272D6767 		.ascii	"'-ggdb' '-O2' '-fomit-frame-pointer' '-falign-funct"
 832      64622720 
 832      272D4F32 
 832      2720272D 
 832      666F6D69 
 833 0066 696F6E73 		.ascii	"ions=16' '-ffunction-sections' '-fdata-sections' '-"
 833      3D313627 
 833      20272D66 
 833      66756E63 
 833      74696F6E 
 834 0099 666E6F2D 		.ascii	"fno-common' '-flto'\000"
ARM GAS  /var/folders/c6/c789hm653lg9vtl73krp73tm0000gn/T//cc3LgWEg.s 			page 67


 834      636F6D6D 
 834      6F6E2720 
 834      272D666C 
 834      746F2700 
 835              		.text
 836              		.cfi_sections	.debug_frame
 837              		.section	.text._mmcsd_get_slice,"ax",%progbits
 838              		.align	2
 839              		.p2align 4,,15
 840              		.global	_mmcsd_get_slice
 841              		.thumb
 842              		.thumb_func
 843              		.type	_mmcsd_get_slice, %function
 844              	_mmcsd_get_slice:
 845              	.LFB260:
 846              		.file 1 "../../../os/hal/src/hal_mmcsd.c"
 847              		.loc 1 63 0
 848              		.cfi_startproc
 849              		@ args = 0, pretend = 0, frame = 0
 850              		@ frame_needed = 0, uses_anonymous_args = 0
 851              	.LVL0:
 852              		.loc 1 67 0
 853 0000 9142     		cmp	r1, r2
 854              		.loc 1 63 0
 855 0002 70B5     		push	{r4, r5, r6, lr}
 856              		.cfi_def_cfa_offset 16
 857              		.cfi_offset 4, -16
 858              		.cfi_offset 5, -12
 859              		.cfi_offset 6, -8
 860              		.cfi_offset 14, -4
 861              		.loc 1 63 0
 862 0004 0C46     		mov	r4, r1
 863 0006 1546     		mov	r5, r2
 864 0008 0646     		mov	r6, r0
 865              		.loc 1 67 0
 866 000a 15D3     		bcc	.L2
 867              		.loc 1 67 0 is_stmt 0 discriminator 2
 868 000c 8B1A     		subs	r3, r1, r2
 869 000e 1F2B     		cmp	r3, #31
 870 0010 12D8     		bhi	.L2
 871              	.LVL1:
 872              	.L3:
 873              		.loc 1 72 0 is_stmt 1
 874 0012 04F01F02 		and	r2, r4, #31
 875              		.loc 1 69 0
 876 0016 6B09     		lsrs	r3, r5, #5
 877              	.LVL2:
 878              		.loc 1 72 0
 879 0018 0132     		adds	r2, r2, #1
 880 001a 0120     		movs	r0, #1
 881              		.loc 1 71 0
 882 001c 6409     		lsrs	r4, r4, #5
 883              	.LVL3:
 884              		.loc 1 72 0
 885 001e 00FA02F2 		lsl	r2, r0, r2
 886              		.loc 1 75 0
 887 0022 A342     		cmp	r3, r4
ARM GAS  /var/folders/c6/c789hm653lg9vtl73krp73tm0000gn/T//cc3LgWEg.s 			page 68


 888              		.loc 1 72 0
 889 0024 02F1FF32 		add	r2, r2, #-1
 890              		.loc 1 70 0
 891 0028 05F01F05 		and	r5, r5, #31
 892              	.LVL4:
 893              		.loc 1 75 0
 894 002c 08D3     		bcc	.L7
 895              		.loc 1 79 0
 896 002e 56F82300 		ldr	r0, [r6, r3, lsl #2]
 897 0032 1040     		ands	r0, r0, r2
 898 0034 E840     		lsrs	r0, r0, r5
 899              		.loc 1 80 0
 900 0036 70BD     		pop	{r4, r5, r6, pc}
 901              	.LVL5:
 902              	.L2:
 903              		.loc 1 67 0 discriminator 1
 904 0038 0748     		ldr	r0, .L8
 905              	.LVL6:
 906 003a FFF7FEFF 		bl	chSysHalt
 907              	.LVL7:
 908 003e E8E7     		b	.L3
 909              	.LVL8:
 910              	.L7:
 911              		.loc 1 77 0
 912 0040 56F82400 		ldr	r0, [r6, r4, lsl #2]
 913              		.loc 1 76 0
 914 0044 56F82310 		ldr	r1, [r6, r3, lsl #2]
 915              		.loc 1 77 0
 916 0048 1040     		ands	r0, r0, r2
 917 004a C5F12003 		rsb	r3, r5, #32
 918              	.LVL9:
 919 004e 9840     		lsls	r0, r0, r3
 920              		.loc 1 76 0
 921 0050 21FA05F5 		lsr	r5, r1, r5
 922              	.LVL10:
 923 0054 2843     		orrs	r0, r0, r5
 924 0056 70BD     		pop	{r4, r5, r6, pc}
 925              	.LVL11:
 926              	.L9:
 927              		.align	2
 928              	.L8:
 929 0058 00000000 		.word	.LANCHOR0
 930              		.cfi_endproc
 931              	.LFE260:
 932              		.size	_mmcsd_get_slice, .-_mmcsd_get_slice
 933 005c AFF30080 		.section	.text._mmcsd_get_capacity,"ax",%progbits
 934              		.align	2
 935              		.p2align 4,,15
 936              		.global	_mmcsd_get_capacity
 937              		.thumb
 938              		.thumb_func
 939              		.type	_mmcsd_get_capacity, %function
 940              	_mmcsd_get_capacity:
 941              	.LFB261:
 942              		.loc 1 93 0
 943              		.cfi_startproc
 944              		@ args = 0, pretend = 0, frame = 0
ARM GAS  /var/folders/c6/c789hm653lg9vtl73krp73tm0000gn/T//cc3LgWEg.s 			page 69


 945              		@ frame_needed = 0, uses_anonymous_args = 0
 946              	.LVL12:
 947 0000 70B5     		push	{r4, r5, r6, lr}
 948              		.cfi_def_cfa_offset 16
 949              		.cfi_offset 4, -16
 950              		.cfi_offset 5, -12
 951              		.cfi_offset 6, -8
 952              		.cfi_offset 14, -4
 953              		.loc 1 96 0
 954 0002 0446     		mov	r4, r0
 955 0004 50B3     		cbz	r0, .L17
 956              	.LVL13:
 957              	.L11:
 958              		.loc 1 98 0
 959 0006 2046     		mov	r0, r4
 960 0008 7F21     		movs	r1, #127
 961 000a 7E22     		movs	r2, #126
 962 000c FFF7FEFF 		bl	_mmcsd_get_slice
 963              	.LVL14:
 964 0010 58B1     		cbz	r0, .L13
 965 0012 0128     		cmp	r0, #1
 966 0014 07D1     		bne	.L18
 967              		.loc 1 107 0
 968 0016 2046     		mov	r0, r4
 969 0018 4521     		movs	r1, #69
 970 001a 3022     		movs	r2, #48
 971 001c FFF7FEFF 		bl	_mmcsd_get_slice
 972              	.LVL15:
 973 0020 0130     		adds	r0, r0, #1
 974 0022 8002     		lsls	r0, r0, #10
 975 0024 70BD     		pop	{r4, r5, r6, pc}
 976              	.LVL16:
 977              	.L18:
 978              		.loc 1 112 0
 979 0026 0020     		movs	r0, #0
 980              		.loc 1 113 0
 981 0028 70BD     		pop	{r4, r5, r6, pc}
 982              	.LVL17:
 983              	.L13:
 984              	.LBB4:
 985              	.LBB5:
 986              		.loc 1 101 0
 987 002a 2046     		mov	r0, r4
 988 002c 4921     		movs	r1, #73
 989 002e 3E22     		movs	r2, #62
 990 0030 FFF7FEFF 		bl	_mmcsd_get_slice
 991              	.LVL18:
 992              		.loc 1 102 0
 993 0034 3121     		movs	r1, #49
 994              		.loc 1 101 0
 995 0036 0646     		mov	r6, r0
 996              	.LVL19:
 997              		.loc 1 102 0
 998 0038 2F22     		movs	r2, #47
 999 003a 2046     		mov	r0, r4
 1000              	.LVL20:
 1001 003c FFF7FEFF 		bl	_mmcsd_get_slice
ARM GAS  /var/folders/c6/c789hm653lg9vtl73krp73tm0000gn/T//cc3LgWEg.s 			page 70


 1002              	.LVL21:
 1003              		.loc 1 103 0
 1004 0040 5321     		movs	r1, #83
 1005              		.loc 1 102 0
 1006 0042 0546     		mov	r5, r0
 1007              	.LVL22:
 1008              		.loc 1 103 0
 1009 0044 5022     		movs	r2, #80
 1010 0046 2046     		mov	r0, r4
 1011              	.LVL23:
 1012 0048 FFF7FEFF 		bl	_mmcsd_get_slice
 1013              	.LVL24:
 1014              		.loc 1 104 0
 1015 004c 0136     		adds	r6, r6, #1
 1016              	.LVL25:
 1017 004e 0235     		adds	r5, r5, #2
 1018              	.LVL26:
 1019 0050 06FA05F5 		lsl	r5, r6, r5
 1020              	.LVL27:
 1021 0054 0938     		subs	r0, r0, #9
 1022              	.LVL28:
 1023 0056 05FA00F0 		lsl	r0, r5, r0
 1024              	.LVL29:
 1025 005a 70BD     		pop	{r4, r5, r6, pc}
 1026              	.LVL30:
 1027              	.L17:
 1028              	.LBE5:
 1029              	.LBE4:
 1030              		.loc 1 96 0 discriminator 1
 1031 005c 0148     		ldr	r0, .L19
 1032              	.LVL31:
 1033 005e FFF7FEFF 		bl	chSysHalt
 1034              	.LVL32:
 1035 0062 D0E7     		b	.L11
 1036              	.L20:
 1037              		.align	2
 1038              	.L19:
 1039 0064 00000000 		.word	.LANCHOR1
 1040              		.cfi_endproc
 1041              	.LFE261:
 1042              		.size	_mmcsd_get_capacity, .-_mmcsd_get_capacity
 1043 0068 AFF30080 		.section	.text._mmcsd_get_capacity_ext,"ax",%progbits
 1043      AFF30080 
 1044              		.align	2
 1045              		.p2align 4,,15
 1046              		.global	_mmcsd_get_capacity_ext
 1047              		.thumb
 1048              		.thumb_func
 1049              		.type	_mmcsd_get_capacity_ext, %function
 1050              	_mmcsd_get_capacity_ext:
 1051              	.LFB262:
 1052              		.loc 1 125 0
 1053              		.cfi_startproc
 1054              		@ args = 0, pretend = 0, frame = 0
 1055              		@ frame_needed = 0, uses_anonymous_args = 0
 1056              	.LVL33:
 1057 0000 10B5     		push	{r4, lr}
ARM GAS  /var/folders/c6/c789hm653lg9vtl73krp73tm0000gn/T//cc3LgWEg.s 			page 71


 1058              		.cfi_def_cfa_offset 8
 1059              		.cfi_offset 4, -8
 1060              		.cfi_offset 14, -4
 1061              		.loc 1 127 0
 1062 0002 0446     		mov	r4, r0
 1063 0004 70B1     		cbz	r0, .L23
 1064              	.LVL34:
 1065              	.L22:
 1066              		.loc 1 130 0
 1067 0006 94F8D630 		ldrb	r3, [r4, #214]	@ zero_extendqisi2
 1068              		.loc 1 129 0
 1069 000a 94F8D710 		ldrb	r1, [r4, #215]	@ zero_extendqisi2
 1070              		.loc 1 132 0
 1071 000e 94F8D420 		ldrb	r2, [r4, #212]	@ zero_extendqisi2
 1072              		.loc 1 131 0
 1073 0012 94F8D500 		ldrb	r0, [r4, #213]	@ zero_extendqisi2
 1074              		.loc 1 130 0
 1075 0016 1B04     		lsls	r3, r3, #16
 1076              		.loc 1 129 0
 1077 0018 03EB0163 		add	r3, r3, r1, lsl #24
 1078              		.loc 1 130 0
 1079 001c 1344     		add	r3, r3, r2
 1080              		.loc 1 133 0
 1081 001e 03EB0020 		add	r0, r3, r0, lsl #8
 1082 0022 10BD     		pop	{r4, pc}
 1083              	.LVL35:
 1084              	.L23:
 1085              		.loc 1 127 0 discriminator 1
 1086 0024 0148     		ldr	r0, .L24
 1087              	.LVL36:
 1088 0026 FFF7FEFF 		bl	chSysHalt
 1089              	.LVL37:
 1090 002a ECE7     		b	.L22
 1091              	.L25:
 1092              		.align	2
 1093              	.L24:
 1094 002c 00000000 		.word	.LANCHOR2
 1095              		.cfi_endproc
 1096              	.LFE262:
 1097              		.size	_mmcsd_get_capacity_ext, .-_mmcsd_get_capacity_ext
 1098              		.section	.text._mmcsd_unpack_sdc_cid,"ax",%progbits
 1099              		.align	2
 1100              		.p2align 4,,15
 1101              		.global	_mmcsd_unpack_sdc_cid
 1102              		.thumb
 1103              		.thumb_func
 1104              		.type	_mmcsd_unpack_sdc_cid, %function
 1105              	_mmcsd_unpack_sdc_cid:
 1106              	.LFB263:
 1107              		.loc 1 144 0
 1108              		.cfi_startproc
 1109              		@ args = 0, pretend = 0, frame = 0
 1110              		@ frame_needed = 0, uses_anonymous_args = 0
 1111              	.LVL38:
 1112 0000 38B5     		push	{r3, r4, r5, lr}
 1113              		.cfi_def_cfa_offset 16
 1114              		.cfi_offset 3, -16
ARM GAS  /var/folders/c6/c789hm653lg9vtl73krp73tm0000gn/T//cc3LgWEg.s 			page 72


 1115              		.cfi_offset 4, -12
 1116              		.cfi_offset 5, -8
 1117              		.cfi_offset 14, -4
 1118              		.loc 1 147 0
 1119 0002 0546     		mov	r5, r0
 1120              		.loc 1 144 0
 1121 0004 0C46     		mov	r4, r1
 1122              		.loc 1 147 0
 1123 0006 0028     		cmp	r0, #0
 1124 0008 53D0     		beq	.L27
 1125              		.loc 1 147 0 is_stmt 0 discriminator 2
 1126 000a 0029     		cmp	r1, #0
 1127 000c 51D0     		beq	.L27
 1128              	.LVL39:
 1129              	.L28:
 1130              		.loc 1 149 0 is_stmt 1
 1131 000e 0835     		adds	r5, r5, #8
 1132              	.LVL40:
 1133              		.loc 1 150 0
 1134 0010 0721     		movs	r1, #7
 1135 0012 0122     		movs	r2, #1
 1136 0014 2846     		mov	r0, r5
 1137 0016 FFF7FEFF 		bl	_mmcsd_get_slice
 1138              	.LVL41:
 1139              		.loc 1 151 0
 1140 001a 1321     		movs	r1, #19
 1141              		.loc 1 150 0
 1142 001c 2075     		strb	r0, [r4, #20]
 1143              		.loc 1 151 0
 1144 001e 0C22     		movs	r2, #12
 1145 0020 2846     		mov	r0, r5
 1146 0022 FFF7FEFF 		bl	_mmcsd_get_slice
 1147              	.LVL42:
 1148 0026 00F5FA60 		add	r0, r0, #2000
 1149 002a 6082     		strh	r0, [r4, #18]	@ movhi
 1150              		.loc 1 153 0
 1151 002c 0B21     		movs	r1, #11
 1152 002e 0822     		movs	r2, #8
 1153 0030 2846     		mov	r0, r5
 1154 0032 FFF7FEFF 		bl	_mmcsd_get_slice
 1155              	.LVL43:
 1156              		.loc 1 154 0
 1157 0036 7F21     		movs	r1, #127
 1158              		.loc 1 153 0
 1159 0038 2074     		strb	r0, [r4, #16]
 1160              		.loc 1 154 0
 1161 003a 7822     		movs	r2, #120
 1162 003c 2846     		mov	r0, r5
 1163 003e FFF7FEFF 		bl	_mmcsd_get_slice
 1164              	.LVL44:
 1165              		.loc 1 155 0
 1166 0042 7721     		movs	r1, #119
 1167              		.loc 1 154 0
 1168 0044 2070     		strb	r0, [r4]
 1169              		.loc 1 155 0
 1170 0046 6822     		movs	r2, #104
 1171 0048 2846     		mov	r0, r5
ARM GAS  /var/folders/c6/c789hm653lg9vtl73krp73tm0000gn/T//cc3LgWEg.s 			page 73


 1172 004a FFF7FEFF 		bl	_mmcsd_get_slice
 1173              	.LVL45:
 1174              		.loc 1 156 0
 1175 004e 4721     		movs	r1, #71
 1176              		.loc 1 155 0
 1177 0050 6080     		strh	r0, [r4, #2]	@ movhi
 1178              		.loc 1 156 0
 1179 0052 4022     		movs	r2, #64
 1180 0054 2846     		mov	r0, r5
 1181 0056 FFF7FEFF 		bl	_mmcsd_get_slice
 1182              	.LVL46:
 1183              		.loc 1 157 0
 1184 005a 4F21     		movs	r1, #79
 1185              		.loc 1 156 0
 1186 005c 2072     		strb	r0, [r4, #8]
 1187              		.loc 1 157 0
 1188 005e 4822     		movs	r2, #72
 1189 0060 2846     		mov	r0, r5
 1190 0062 FFF7FEFF 		bl	_mmcsd_get_slice
 1191              	.LVL47:
 1192              		.loc 1 158 0
 1193 0066 5721     		movs	r1, #87
 1194              		.loc 1 157 0
 1195 0068 E071     		strb	r0, [r4, #7]
 1196              		.loc 1 158 0
 1197 006a 5022     		movs	r2, #80
 1198 006c 2846     		mov	r0, r5
 1199 006e FFF7FEFF 		bl	_mmcsd_get_slice
 1200              	.LVL48:
 1201              		.loc 1 159 0
 1202 0072 5F21     		movs	r1, #95
 1203              		.loc 1 158 0
 1204 0074 A071     		strb	r0, [r4, #6]
 1205              		.loc 1 159 0
 1206 0076 5822     		movs	r2, #88
 1207 0078 2846     		mov	r0, r5
 1208 007a FFF7FEFF 		bl	_mmcsd_get_slice
 1209              	.LVL49:
 1210              		.loc 1 160 0
 1211 007e 6721     		movs	r1, #103
 1212              		.loc 1 159 0
 1213 0080 6071     		strb	r0, [r4, #5]
 1214              		.loc 1 160 0
 1215 0082 6022     		movs	r2, #96
 1216 0084 2846     		mov	r0, r5
 1217 0086 FFF7FEFF 		bl	_mmcsd_get_slice
 1218              	.LVL50:
 1219              		.loc 1 161 0
 1220 008a 3F21     		movs	r1, #63
 1221              		.loc 1 160 0
 1222 008c 2071     		strb	r0, [r4, #4]
 1223              		.loc 1 161 0
 1224 008e 3C22     		movs	r2, #60
 1225 0090 2846     		mov	r0, r5
 1226 0092 FFF7FEFF 		bl	_mmcsd_get_slice
 1227              	.LVL51:
 1228              		.loc 1 162 0
ARM GAS  /var/folders/c6/c789hm653lg9vtl73krp73tm0000gn/T//cc3LgWEg.s 			page 74


 1229 0096 3B21     		movs	r1, #59
 1230              		.loc 1 161 0
 1231 0098 6072     		strb	r0, [r4, #9]
 1232              		.loc 1 162 0
 1233 009a 3822     		movs	r2, #56
 1234 009c 2846     		mov	r0, r5
 1235 009e FFF7FEFF 		bl	_mmcsd_get_slice
 1236              	.LVL52:
 1237              		.loc 1 163 0
 1238 00a2 3721     		movs	r1, #55
 1239              		.loc 1 162 0
 1240 00a4 A072     		strb	r0, [r4, #10]
 1241              		.loc 1 163 0
 1242 00a6 1822     		movs	r2, #24
 1243 00a8 2846     		mov	r0, r5
 1244 00aa FFF7FEFF 		bl	_mmcsd_get_slice
 1245              	.LVL53:
 1246 00ae E060     		str	r0, [r4, #12]
 1247 00b0 38BD     		pop	{r3, r4, r5, pc}
 1248              	.LVL54:
 1249              	.L27:
 1250              		.loc 1 147 0 discriminator 1
 1251 00b2 0248     		ldr	r0, .L32
 1252              	.LVL55:
 1253 00b4 FFF7FEFF 		bl	chSysHalt
 1254              	.LVL56:
 1255 00b8 A9E7     		b	.L28
 1256              	.L33:
 1257 00ba 00BF     		.align	2
 1258              	.L32:
 1259 00bc 00000000 		.word	.LANCHOR3
 1260              		.cfi_endproc
 1261              	.LFE263:
 1262              		.size	_mmcsd_unpack_sdc_cid, .-_mmcsd_unpack_sdc_cid
 1263              		.section	.text._mmcsd_unpack_mmc_cid,"ax",%progbits
 1264              		.align	2
 1265              		.p2align 4,,15
 1266              		.global	_mmcsd_unpack_mmc_cid
 1267              		.thumb
 1268              		.thumb_func
 1269              		.type	_mmcsd_unpack_mmc_cid, %function
 1270              	_mmcsd_unpack_mmc_cid:
 1271              	.LFB264:
 1272              		.loc 1 175 0
 1273              		.cfi_startproc
 1274              		@ args = 0, pretend = 0, frame = 0
 1275              		@ frame_needed = 0, uses_anonymous_args = 0
 1276              	.LVL57:
 1277 0000 38B5     		push	{r3, r4, r5, lr}
 1278              		.cfi_def_cfa_offset 16
 1279              		.cfi_offset 3, -16
 1280              		.cfi_offset 4, -12
 1281              		.cfi_offset 5, -8
 1282              		.cfi_offset 14, -4
 1283              		.loc 1 178 0
 1284 0002 0546     		mov	r5, r0
 1285              		.loc 1 175 0
ARM GAS  /var/folders/c6/c789hm653lg9vtl73krp73tm0000gn/T//cc3LgWEg.s 			page 75


 1286 0004 0C46     		mov	r4, r1
 1287              		.loc 1 178 0
 1288 0006 0028     		cmp	r0, #0
 1289 0008 59D0     		beq	.L35
 1290              		.loc 1 178 0 is_stmt 0 discriminator 2
 1291 000a 0029     		cmp	r1, #0
 1292 000c 57D0     		beq	.L35
 1293              	.LVL58:
 1294              	.L36:
 1295              		.loc 1 180 0 is_stmt 1
 1296 000e 0835     		adds	r5, r5, #8
 1297              	.LVL59:
 1298              		.loc 1 181 0
 1299 0010 0721     		movs	r1, #7
 1300 0012 0122     		movs	r2, #1
 1301 0014 2846     		mov	r0, r5
 1302 0016 FFF7FEFF 		bl	_mmcsd_get_slice
 1303              	.LVL60:
 1304              		.loc 1 182 0
 1305 001a 0B21     		movs	r1, #11
 1306              		.loc 1 181 0
 1307 001c 2075     		strb	r0, [r4, #20]
 1308              		.loc 1 182 0
 1309 001e 0822     		movs	r2, #8
 1310 0020 2846     		mov	r0, r5
 1311 0022 FFF7FEFF 		bl	_mmcsd_get_slice
 1312              	.LVL61:
 1313 0026 00F2CD70 		addw	r0, r0, #1997
 1314 002a 6082     		strh	r0, [r4, #18]	@ movhi
 1315              		.loc 1 184 0
 1316 002c 0F21     		movs	r1, #15
 1317 002e 0C22     		movs	r2, #12
 1318 0030 2846     		mov	r0, r5
 1319 0032 FFF7FEFF 		bl	_mmcsd_get_slice
 1320              	.LVL62:
 1321              		.loc 1 185 0
 1322 0036 7F21     		movs	r1, #127
 1323              		.loc 1 184 0
 1324 0038 2074     		strb	r0, [r4, #16]
 1325              		.loc 1 185 0
 1326 003a 7822     		movs	r2, #120
 1327 003c 2846     		mov	r0, r5
 1328 003e FFF7FEFF 		bl	_mmcsd_get_slice
 1329              	.LVL63:
 1330              		.loc 1 186 0
 1331 0042 7721     		movs	r1, #119
 1332              		.loc 1 185 0
 1333 0044 2070     		strb	r0, [r4]
 1334              		.loc 1 186 0
 1335 0046 6822     		movs	r2, #104
 1336 0048 2846     		mov	r0, r5
 1337 004a FFF7FEFF 		bl	_mmcsd_get_slice
 1338              	.LVL64:
 1339              		.loc 1 187 0
 1340 004e 3F21     		movs	r1, #63
 1341              		.loc 1 186 0
 1342 0050 6080     		strh	r0, [r4, #2]	@ movhi
ARM GAS  /var/folders/c6/c789hm653lg9vtl73krp73tm0000gn/T//cc3LgWEg.s 			page 76


 1343              		.loc 1 187 0
 1344 0052 3822     		movs	r2, #56
 1345 0054 2846     		mov	r0, r5
 1346 0056 FFF7FEFF 		bl	_mmcsd_get_slice
 1347              	.LVL65:
 1348              		.loc 1 188 0
 1349 005a 4721     		movs	r1, #71
 1350              		.loc 1 187 0
 1351 005c 6072     		strb	r0, [r4, #9]
 1352              		.loc 1 188 0
 1353 005e 4022     		movs	r2, #64
 1354 0060 2846     		mov	r0, r5
 1355 0062 FFF7FEFF 		bl	_mmcsd_get_slice
 1356              	.LVL66:
 1357              		.loc 1 189 0
 1358 0066 4F21     		movs	r1, #79
 1359              		.loc 1 188 0
 1360 0068 2072     		strb	r0, [r4, #8]
 1361              		.loc 1 189 0
 1362 006a 4822     		movs	r2, #72
 1363 006c 2846     		mov	r0, r5
 1364 006e FFF7FEFF 		bl	_mmcsd_get_slice
 1365              	.LVL67:
 1366              		.loc 1 190 0
 1367 0072 5721     		movs	r1, #87
 1368              		.loc 1 189 0
 1369 0074 E071     		strb	r0, [r4, #7]
 1370              		.loc 1 190 0
 1371 0076 5022     		movs	r2, #80
 1372 0078 2846     		mov	r0, r5
 1373 007a FFF7FEFF 		bl	_mmcsd_get_slice
 1374              	.LVL68:
 1375              		.loc 1 191 0
 1376 007e 5F21     		movs	r1, #95
 1377              		.loc 1 190 0
 1378 0080 A071     		strb	r0, [r4, #6]
 1379              		.loc 1 191 0
 1380 0082 5822     		movs	r2, #88
 1381 0084 2846     		mov	r0, r5
 1382 0086 FFF7FEFF 		bl	_mmcsd_get_slice
 1383              	.LVL69:
 1384              		.loc 1 192 0
 1385 008a 6721     		movs	r1, #103
 1386              		.loc 1 191 0
 1387 008c 6071     		strb	r0, [r4, #5]
 1388              		.loc 1 192 0
 1389 008e 6022     		movs	r2, #96
 1390 0090 2846     		mov	r0, r5
 1391 0092 FFF7FEFF 		bl	_mmcsd_get_slice
 1392              	.LVL70:
 1393              		.loc 1 193 0
 1394 0096 3721     		movs	r1, #55
 1395              		.loc 1 192 0
 1396 0098 2071     		strb	r0, [r4, #4]
 1397              		.loc 1 193 0
 1398 009a 3422     		movs	r2, #52
 1399 009c 2846     		mov	r0, r5
ARM GAS  /var/folders/c6/c789hm653lg9vtl73krp73tm0000gn/T//cc3LgWEg.s 			page 77


 1400 009e FFF7FEFF 		bl	_mmcsd_get_slice
 1401              	.LVL71:
 1402              		.loc 1 194 0
 1403 00a2 3321     		movs	r1, #51
 1404              		.loc 1 193 0
 1405 00a4 A072     		strb	r0, [r4, #10]
 1406              		.loc 1 194 0
 1407 00a6 3022     		movs	r2, #48
 1408 00a8 2846     		mov	r0, r5
 1409 00aa FFF7FEFF 		bl	_mmcsd_get_slice
 1410              	.LVL72:
 1411              		.loc 1 195 0
 1412 00ae 2F21     		movs	r1, #47
 1413              		.loc 1 194 0
 1414 00b0 E072     		strb	r0, [r4, #11]
 1415              		.loc 1 195 0
 1416 00b2 1022     		movs	r2, #16
 1417 00b4 2846     		mov	r0, r5
 1418 00b6 FFF7FEFF 		bl	_mmcsd_get_slice
 1419              	.LVL73:
 1420 00ba E060     		str	r0, [r4, #12]
 1421 00bc 38BD     		pop	{r3, r4, r5, pc}
 1422              	.LVL74:
 1423              	.L35:
 1424              		.loc 1 178 0 discriminator 1
 1425 00be 0248     		ldr	r0, .L40
 1426              	.LVL75:
 1427 00c0 FFF7FEFF 		bl	chSysHalt
 1428              	.LVL76:
 1429 00c4 A3E7     		b	.L36
 1430              	.L41:
 1431 00c6 00BF     		.align	2
 1432              	.L40:
 1433 00c8 00000000 		.word	.LANCHOR4
 1434              		.cfi_endproc
 1435              	.LFE264:
 1436              		.size	_mmcsd_unpack_mmc_cid, .-_mmcsd_unpack_mmc_cid
 1437 00cc AFF30080 		.section	.text._mmcsd_unpack_csd_mmc,"ax",%progbits
 1438              		.align	2
 1439              		.p2align 4,,15
 1440              		.global	_mmcsd_unpack_csd_mmc
 1441              		.thumb
 1442              		.thumb_func
 1443              		.type	_mmcsd_unpack_csd_mmc, %function
 1444              	_mmcsd_unpack_csd_mmc:
 1445              	.LFB265:
 1446              		.loc 1 207 0
 1447              		.cfi_startproc
 1448              		@ args = 0, pretend = 0, frame = 0
 1449              		@ frame_needed = 0, uses_anonymous_args = 0
 1450              	.LVL77:
 1451 0000 38B5     		push	{r3, r4, r5, lr}
 1452              		.cfi_def_cfa_offset 16
 1453              		.cfi_offset 3, -16
 1454              		.cfi_offset 4, -12
 1455              		.cfi_offset 5, -8
 1456              		.cfi_offset 14, -4
ARM GAS  /var/folders/c6/c789hm653lg9vtl73krp73tm0000gn/T//cc3LgWEg.s 			page 78


 1457              		.loc 1 210 0
 1458 0002 0546     		mov	r5, r0
 1459              		.loc 1 207 0
 1460 0004 0C46     		mov	r4, r1
 1461              		.loc 1 210 0
 1462 0006 0028     		cmp	r0, #0
 1463 0008 00F0C480 		beq	.L43
 1464              		.loc 1 210 0 is_stmt 0 discriminator 2
 1465 000c 0029     		cmp	r1, #0
 1466 000e 00F0C180 		beq	.L43
 1467              	.LVL78:
 1468              	.L44:
 1469              		.loc 1 212 0 is_stmt 1
 1470 0012 1835     		adds	r5, r5, #24
 1471              	.LVL79:
 1472              		.loc 1 213 0
 1473 0014 4921     		movs	r1, #73
 1474 0016 3E22     		movs	r2, #62
 1475 0018 2846     		mov	r0, r5
 1476 001a FFF7FEFF 		bl	_mmcsd_get_slice
 1477              	.LVL80:
 1478              		.loc 1 214 0
 1479 001e 3121     		movs	r1, #49
 1480              		.loc 1 213 0
 1481 0020 E081     		strh	r0, [r4, #14]	@ movhi
 1482              		.loc 1 214 0
 1483 0022 2F22     		movs	r2, #47
 1484 0024 2846     		mov	r0, r5
 1485 0026 FFF7FEFF 		bl	_mmcsd_get_slice
 1486              	.LVL81:
 1487              		.loc 1 215 0
 1488 002a 5F21     		movs	r1, #95
 1489              		.loc 1 214 0
 1490 002c 2075     		strb	r0, [r4, #20]
 1491              		.loc 1 215 0
 1492 002e 5422     		movs	r2, #84
 1493 0030 2846     		mov	r0, r5
 1494 0032 FFF7FEFF 		bl	_mmcsd_get_slice
 1495              	.LVL82:
 1496              		.loc 1 216 0
 1497 0036 0E21     		movs	r1, #14
 1498 0038 0A46     		mov	r2, r1
 1499              		.loc 1 215 0
 1500 003a E080     		strh	r0, [r4, #6]	@ movhi
 1501              		.loc 1 216 0
 1502 003c 2846     		mov	r0, r5
 1503 003e FFF7FEFF 		bl	_mmcsd_get_slice
 1504              	.LVL83:
 1505              		.loc 1 217 0
 1506 0042 0721     		movs	r1, #7
 1507              		.loc 1 216 0
 1508 0044 E077     		strb	r0, [r4, #31]
 1509              		.loc 1 217 0
 1510 0046 0122     		movs	r2, #1
 1511 0048 2846     		mov	r0, r5
 1512 004a FFF7FEFF 		bl	_mmcsd_get_slice
 1513              	.LVL84:
ARM GAS  /var/folders/c6/c789hm653lg9vtl73krp73tm0000gn/T//cc3LgWEg.s 			page 79


 1514              		.loc 1 218 0
 1515 004e 7F21     		movs	r1, #127
 1516              		.loc 1 217 0
 1517 0050 84F82400 		strb	r0, [r4, #36]
 1518              		.loc 1 218 0
 1519 0054 7E22     		movs	r2, #126
 1520 0056 2846     		mov	r0, r5
 1521 0058 FFF7FEFF 		bl	_mmcsd_get_slice
 1522              	.LVL85:
 1523              		.loc 1 219 0
 1524 005c 4C21     		movs	r1, #76
 1525 005e 0A46     		mov	r2, r1
 1526              		.loc 1 218 0
 1527 0060 2070     		strb	r0, [r4]
 1528              		.loc 1 219 0
 1529 0062 2846     		mov	r0, r5
 1530 0064 FFF7FEFF 		bl	_mmcsd_get_slice
 1531              	.LVL86:
 1532              		.loc 1 220 0
 1533 0068 0921     		movs	r1, #9
 1534              		.loc 1 219 0
 1535 006a 2073     		strb	r0, [r4, #12]
 1536              		.loc 1 220 0
 1537 006c 0822     		movs	r2, #8
 1538 006e 2846     		mov	r0, r5
 1539 0070 FFF7FEFF 		bl	_mmcsd_get_slice
 1540              	.LVL87:
 1541              		.loc 1 221 0
 1542 0074 2921     		movs	r1, #41
 1543              		.loc 1 220 0
 1544 0076 84F82300 		strb	r0, [r4, #35]
 1545              		.loc 1 221 0
 1546 007a 2522     		movs	r2, #37
 1547 007c 2846     		mov	r0, r5
 1548 007e FFF7FEFF 		bl	_mmcsd_get_slice
 1549              	.LVL88:
 1550              		.loc 1 222 0
 1551 0082 2E21     		movs	r1, #46
 1552              		.loc 1 221 0
 1553 0084 A075     		strb	r0, [r4, #22]
 1554              		.loc 1 222 0
 1555 0086 2A22     		movs	r2, #42
 1556 0088 2846     		mov	r0, r5
 1557 008a FFF7FEFF 		bl	_mmcsd_get_slice
 1558              	.LVL89:
 1559              		.loc 1 223 0
 1560 008e 0B21     		movs	r1, #11
 1561              		.loc 1 222 0
 1562 0090 6075     		strb	r0, [r4, #21]
 1563              		.loc 1 223 0
 1564 0092 0A22     		movs	r2, #10
 1565 0094 2846     		mov	r0, r5
 1566 0096 FFF7FEFF 		bl	_mmcsd_get_slice
 1567              	.LVL90:
 1568              		.loc 1 224 0
 1569 009a 0F21     		movs	r1, #15
 1570 009c 0A46     		mov	r2, r1
ARM GAS  /var/folders/c6/c789hm653lg9vtl73krp73tm0000gn/T//cc3LgWEg.s 			page 80


 1571              		.loc 1 223 0
 1572 009e 84F82200 		strb	r0, [r4, #34]
 1573              		.loc 1 224 0
 1574 00a2 2846     		mov	r0, r5
 1575 00a4 FFF7FEFF 		bl	_mmcsd_get_slice
 1576              	.LVL91:
 1577              		.loc 1 225 0
 1578 00a8 6F21     		movs	r1, #111
 1579              		.loc 1 224 0
 1580 00aa A077     		strb	r0, [r4, #30]
 1581              		.loc 1 225 0
 1582 00ac 6822     		movs	r2, #104
 1583 00ae 2846     		mov	r0, r5
 1584 00b0 FFF7FEFF 		bl	_mmcsd_get_slice
 1585              	.LVL92:
 1586              		.loc 1 226 0
 1587 00b4 0D21     		movs	r1, #13
 1588 00b6 0A46     		mov	r2, r1
 1589              		.loc 1 225 0
 1590 00b8 E070     		strb	r0, [r4, #3]
 1591              		.loc 1 226 0
 1592 00ba 2846     		mov	r0, r5
 1593 00bc FFF7FEFF 		bl	_mmcsd_get_slice
 1594              	.LVL93:
 1595              		.loc 1 227 0
 1596 00c0 1C21     		movs	r1, #28
 1597              		.loc 1 226 0
 1598 00c2 84F82000 		strb	r0, [r4, #32]
 1599              		.loc 1 227 0
 1600 00c6 1A22     		movs	r2, #26
 1601 00c8 2846     		mov	r0, r5
 1602 00ca FFF7FEFF 		bl	_mmcsd_get_slice
 1603              	.LVL94:
 1604              		.loc 1 228 0
 1605 00ce 5321     		movs	r1, #83
 1606              		.loc 1 227 0
 1607 00d0 A076     		strb	r0, [r4, #26]
 1608              		.loc 1 228 0
 1609 00d2 5022     		movs	r2, #80
 1610 00d4 2846     		mov	r0, r5
 1611 00d6 FFF7FEFF 		bl	_mmcsd_get_slice
 1612              	.LVL95:
 1613              		.loc 1 229 0
 1614 00da 4F21     		movs	r1, #79
 1615 00dc 0A46     		mov	r2, r1
 1616              		.loc 1 228 0
 1617 00de 2072     		strb	r0, [r4, #8]
 1618              		.loc 1 229 0
 1619 00e0 2846     		mov	r0, r5
 1620 00e2 FFF7FEFF 		bl	_mmcsd_get_slice
 1621              	.LVL96:
 1622              		.loc 1 230 0
 1623 00e6 4D21     		movs	r1, #77
 1624 00e8 0A46     		mov	r2, r1
 1625              		.loc 1 229 0
 1626 00ea 6072     		strb	r0, [r4, #9]
 1627              		.loc 1 230 0
ARM GAS  /var/folders/c6/c789hm653lg9vtl73krp73tm0000gn/T//cc3LgWEg.s 			page 81


 1628 00ec 2846     		mov	r0, r5
 1629 00ee FFF7FEFF 		bl	_mmcsd_get_slice
 1630              	.LVL97:
 1631              		.loc 1 231 0
 1632 00f2 7D21     		movs	r1, #125
 1633              		.loc 1 230 0
 1634 00f4 E072     		strb	r0, [r4, #11]
 1635              		.loc 1 231 0
 1636 00f6 7A22     		movs	r2, #122
 1637 00f8 2846     		mov	r0, r5
 1638 00fa FFF7FEFF 		bl	_mmcsd_get_slice
 1639              	.LVL98:
 1640              		.loc 1 232 0
 1641 00fe 7721     		movs	r1, #119
 1642              		.loc 1 231 0
 1643 0100 6070     		strb	r0, [r4, #1]
 1644              		.loc 1 232 0
 1645 0102 7022     		movs	r2, #112
 1646 0104 2846     		mov	r0, r5
 1647 0106 FFF7FEFF 		bl	_mmcsd_get_slice
 1648              	.LVL99:
 1649              		.loc 1 233 0
 1650 010a 0C21     		movs	r1, #12
 1651 010c 0A46     		mov	r2, r1
 1652              		.loc 1 232 0
 1653 010e A070     		strb	r0, [r4, #2]
 1654              		.loc 1 233 0
 1655 0110 2846     		mov	r0, r5
 1656 0112 FFF7FEFF 		bl	_mmcsd_get_slice
 1657              	.LVL100:
 1658              		.loc 1 234 0
 1659 0116 6721     		movs	r1, #103
 1660              		.loc 1 233 0
 1661 0118 84F82100 		strb	r0, [r4, #33]
 1662              		.loc 1 234 0
 1663 011c 6022     		movs	r2, #96
 1664 011e 2846     		mov	r0, r5
 1665 0120 FFF7FEFF 		bl	_mmcsd_get_slice
 1666              	.LVL101:
 1667              		.loc 1 235 0
 1668 0124 3A21     		movs	r1, #58
 1669              		.loc 1 234 0
 1670 0126 2071     		strb	r0, [r4, #4]
 1671              		.loc 1 235 0
 1672 0128 3822     		movs	r2, #56
 1673 012a 2846     		mov	r0, r5
 1674 012c FFF7FEFF 		bl	_mmcsd_get_slice
 1675              	.LVL102:
 1676              		.loc 1 236 0
 1677 0130 3D21     		movs	r1, #61
 1678              		.loc 1 235 0
 1679 0132 6074     		strb	r0, [r4, #17]
 1680              		.loc 1 236 0
 1681 0134 3B22     		movs	r2, #59
 1682 0136 2846     		mov	r0, r5
 1683 0138 FFF7FEFF 		bl	_mmcsd_get_slice
 1684              	.LVL103:
ARM GAS  /var/folders/c6/c789hm653lg9vtl73krp73tm0000gn/T//cc3LgWEg.s 			page 82


 1685              		.loc 1 237 0
 1686 013c 3421     		movs	r1, #52
 1687              		.loc 1 236 0
 1688 013e 2074     		strb	r0, [r4, #16]
 1689              		.loc 1 237 0
 1690 0140 3222     		movs	r2, #50
 1691 0142 2846     		mov	r0, r5
 1692 0144 FFF7FEFF 		bl	_mmcsd_get_slice
 1693              	.LVL104:
 1694              		.loc 1 238 0
 1695 0148 3721     		movs	r1, #55
 1696              		.loc 1 237 0
 1697 014a E074     		strb	r0, [r4, #19]
 1698              		.loc 1 238 0
 1699 014c 3522     		movs	r2, #53
 1700 014e 2846     		mov	r0, r5
 1701 0150 FFF7FEFF 		bl	_mmcsd_get_slice
 1702              	.LVL105:
 1703              		.loc 1 239 0
 1704 0154 1F21     		movs	r1, #31
 1705 0156 0A46     		mov	r2, r1
 1706              		.loc 1 238 0
 1707 0158 A074     		strb	r0, [r4, #18]
 1708              		.loc 1 239 0
 1709 015a 2846     		mov	r0, r5
 1710 015c FFF7FEFF 		bl	_mmcsd_get_slice
 1711              	.LVL106:
 1712              		.loc 1 240 0
 1713 0160 2421     		movs	r1, #36
 1714              		.loc 1 239 0
 1715 0162 2076     		strb	r0, [r4, #24]
 1716              		.loc 1 240 0
 1717 0164 2022     		movs	r2, #32
 1718 0166 2846     		mov	r0, r5
 1719 0168 FFF7FEFF 		bl	_mmcsd_get_slice
 1720              	.LVL107:
 1721              		.loc 1 241 0
 1722 016c 1921     		movs	r1, #25
 1723              		.loc 1 240 0
 1724 016e E075     		strb	r0, [r4, #23]
 1725              		.loc 1 241 0
 1726 0170 1622     		movs	r2, #22
 1727 0172 2846     		mov	r0, r5
 1728 0174 FFF7FEFF 		bl	_mmcsd_get_slice
 1729              	.LVL108:
 1730              		.loc 1 242 0
 1731 0178 1521     		movs	r1, #21
 1732 017a 0A46     		mov	r2, r1
 1733              		.loc 1 241 0
 1734 017c E076     		strb	r0, [r4, #27]
 1735              		.loc 1 242 0
 1736 017e 2846     		mov	r0, r5
 1737 0180 FFF7FEFF 		bl	_mmcsd_get_slice
 1738              	.LVL109:
 1739              		.loc 1 243 0
 1740 0184 4E21     		movs	r1, #78
 1741              		.loc 1 242 0
ARM GAS  /var/folders/c6/c789hm653lg9vtl73krp73tm0000gn/T//cc3LgWEg.s 			page 83


 1742 0186 2077     		strb	r0, [r4, #28]
 1743              		.loc 1 243 0
 1744 0188 0A46     		mov	r2, r1
 1745 018a 2846     		mov	r0, r5
 1746 018c FFF7FEFF 		bl	_mmcsd_get_slice
 1747              	.LVL110:
 1748 0190 A072     		strb	r0, [r4, #10]
 1749 0192 38BD     		pop	{r3, r4, r5, pc}
 1750              	.LVL111:
 1751              	.L43:
 1752              		.loc 1 210 0 discriminator 1
 1753 0194 0148     		ldr	r0, .L48
 1754              	.LVL112:
 1755 0196 FFF7FEFF 		bl	chSysHalt
 1756              	.LVL113:
 1757 019a 3AE7     		b	.L44
 1758              	.L49:
 1759              		.align	2
 1760              	.L48:
 1761 019c 00000000 		.word	.LANCHOR5
 1762              		.cfi_endproc
 1763              	.LFE265:
 1764              		.size	_mmcsd_unpack_csd_mmc, .-_mmcsd_unpack_csd_mmc
 1765              		.section	.text._mmcsd_unpack_csd_v10,"ax",%progbits
 1766              		.align	2
 1767              		.p2align 4,,15
 1768              		.global	_mmcsd_unpack_csd_v10
 1769              		.thumb
 1770              		.thumb_func
 1771              		.type	_mmcsd_unpack_csd_v10, %function
 1772              	_mmcsd_unpack_csd_v10:
 1773              	.LFB266:
 1774              		.loc 1 255 0
 1775              		.cfi_startproc
 1776              		@ args = 0, pretend = 0, frame = 0
 1777              		@ frame_needed = 0, uses_anonymous_args = 0
 1778              	.LVL114:
 1779 0000 38B5     		push	{r3, r4, r5, lr}
 1780              		.cfi_def_cfa_offset 16
 1781              		.cfi_offset 3, -16
 1782              		.cfi_offset 4, -12
 1783              		.cfi_offset 5, -8
 1784              		.cfi_offset 14, -4
 1785              		.loc 1 258 0
 1786 0002 0546     		mov	r5, r0
 1787              		.loc 1 255 0
 1788 0004 0C46     		mov	r4, r1
 1789              		.loc 1 258 0
 1790 0006 0028     		cmp	r0, #0
 1791 0008 00F09880 		beq	.L52
 1792              	.LVL115:
 1793              	.L51:
 1794              		.loc 1 260 0
 1795 000c 1835     		adds	r5, r5, #24
 1796              	.LVL116:
 1797              		.loc 1 261 0
 1798 000e 4921     		movs	r1, #73
ARM GAS  /var/folders/c6/c789hm653lg9vtl73krp73tm0000gn/T//cc3LgWEg.s 			page 84


 1799 0010 3E22     		movs	r2, #62
 1800 0012 2846     		mov	r0, r5
 1801 0014 FFF7FEFF 		bl	_mmcsd_get_slice
 1802              	.LVL117:
 1803              		.loc 1 262 0
 1804 0018 3121     		movs	r1, #49
 1805              		.loc 1 261 0
 1806 001a A081     		strh	r0, [r4, #12]	@ movhi
 1807              		.loc 1 262 0
 1808 001c 2F22     		movs	r2, #47
 1809 001e 2846     		mov	r0, r5
 1810 0020 FFF7FEFF 		bl	_mmcsd_get_slice
 1811              	.LVL118:
 1812              		.loc 1 263 0
 1813 0024 5F21     		movs	r1, #95
 1814              		.loc 1 262 0
 1815 0026 A074     		strb	r0, [r4, #18]
 1816              		.loc 1 263 0
 1817 0028 5422     		movs	r2, #84
 1818 002a 2846     		mov	r0, r5
 1819 002c FFF7FEFF 		bl	_mmcsd_get_slice
 1820              	.LVL119:
 1821              		.loc 1 264 0
 1822 0030 0E21     		movs	r1, #14
 1823 0032 0A46     		mov	r2, r1
 1824              		.loc 1 263 0
 1825 0034 A080     		strh	r0, [r4, #4]	@ movhi
 1826              		.loc 1 264 0
 1827 0036 2846     		mov	r0, r5
 1828 0038 FFF7FEFF 		bl	_mmcsd_get_slice
 1829              	.LVL120:
 1830              		.loc 1 265 0
 1831 003c 0721     		movs	r1, #7
 1832              		.loc 1 264 0
 1833 003e E076     		strb	r0, [r4, #27]
 1834              		.loc 1 265 0
 1835 0040 0122     		movs	r2, #1
 1836 0042 2846     		mov	r0, r5
 1837 0044 FFF7FEFF 		bl	_mmcsd_get_slice
 1838              	.LVL121:
 1839              		.loc 1 266 0
 1840 0048 7F21     		movs	r1, #127
 1841              		.loc 1 265 0
 1842 004a E077     		strb	r0, [r4, #31]
 1843              		.loc 1 266 0
 1844 004c 7E22     		movs	r2, #126
 1845 004e 2846     		mov	r0, r5
 1846 0050 FFF7FEFF 		bl	_mmcsd_get_slice
 1847              	.LVL122:
 1848              		.loc 1 267 0
 1849 0054 4C21     		movs	r1, #76
 1850 0056 0A46     		mov	r2, r1
 1851              		.loc 1 266 0
 1852 0058 2070     		strb	r0, [r4]
 1853              		.loc 1 267 0
 1854 005a 2846     		mov	r0, r5
 1855 005c FFF7FEFF 		bl	_mmcsd_get_slice
ARM GAS  /var/folders/c6/c789hm653lg9vtl73krp73tm0000gn/T//cc3LgWEg.s 			page 85


 1856              	.LVL123:
 1857              		.loc 1 268 0
 1858 0060 2E21     		movs	r1, #46
 1859 0062 0A46     		mov	r2, r1
 1860              		.loc 1 267 0
 1861 0064 A072     		strb	r0, [r4, #10]
 1862              		.loc 1 268 0
 1863 0066 2846     		mov	r0, r5
 1864 0068 FFF7FEFF 		bl	_mmcsd_get_slice
 1865              	.LVL124:
 1866              		.loc 1 269 0
 1867 006c 2D21     		movs	r1, #45
 1868              		.loc 1 268 0
 1869 006e E074     		strb	r0, [r4, #19]
 1870              		.loc 1 269 0
 1871 0070 2722     		movs	r2, #39
 1872 0072 2846     		mov	r0, r5
 1873 0074 FFF7FEFF 		bl	_mmcsd_get_slice
 1874              	.LVL125:
 1875              		.loc 1 270 0
 1876 0078 0B21     		movs	r1, #11
 1877              		.loc 1 269 0
 1878 007a 2075     		strb	r0, [r4, #20]
 1879              		.loc 1 270 0
 1880 007c 0A22     		movs	r2, #10
 1881 007e 2846     		mov	r0, r5
 1882 0080 FFF7FEFF 		bl	_mmcsd_get_slice
 1883              	.LVL126:
 1884              		.loc 1 271 0
 1885 0084 0F21     		movs	r1, #15
 1886 0086 0A46     		mov	r2, r1
 1887              		.loc 1 270 0
 1888 0088 A077     		strb	r0, [r4, #30]
 1889              		.loc 1 271 0
 1890 008a 2846     		mov	r0, r5
 1891 008c FFF7FEFF 		bl	_mmcsd_get_slice
 1892              	.LVL127:
 1893              		.loc 1 272 0
 1894 0090 6F21     		movs	r1, #111
 1895              		.loc 1 271 0
 1896 0092 A076     		strb	r0, [r4, #26]
 1897              		.loc 1 272 0
 1898 0094 6822     		movs	r2, #104
 1899 0096 2846     		mov	r0, r5
 1900 0098 FFF7FEFF 		bl	_mmcsd_get_slice
 1901              	.LVL128:
 1902              		.loc 1 273 0
 1903 009c 0D21     		movs	r1, #13
 1904 009e 0A46     		mov	r2, r1
 1905              		.loc 1 272 0
 1906 00a0 A070     		strb	r0, [r4, #2]
 1907              		.loc 1 273 0
 1908 00a2 2846     		mov	r0, r5
 1909 00a4 FFF7FEFF 		bl	_mmcsd_get_slice
 1910              	.LVL129:
 1911              		.loc 1 274 0
 1912 00a8 1C21     		movs	r1, #28
ARM GAS  /var/folders/c6/c789hm653lg9vtl73krp73tm0000gn/T//cc3LgWEg.s 			page 86


 1913              		.loc 1 273 0
 1914 00aa 2077     		strb	r0, [r4, #28]
 1915              		.loc 1 274 0
 1916 00ac 1A22     		movs	r2, #26
 1917 00ae 2846     		mov	r0, r5
 1918 00b0 FFF7FEFF 		bl	_mmcsd_get_slice
 1919              	.LVL130:
 1920              		.loc 1 275 0
 1921 00b4 5321     		movs	r1, #83
 1922              		.loc 1 274 0
 1923 00b6 E075     		strb	r0, [r4, #23]
 1924              		.loc 1 275 0
 1925 00b8 5022     		movs	r2, #80
 1926 00ba 2846     		mov	r0, r5
 1927 00bc FFF7FEFF 		bl	_mmcsd_get_slice
 1928              	.LVL131:
 1929              		.loc 1 276 0
 1930 00c0 4F21     		movs	r1, #79
 1931 00c2 0A46     		mov	r2, r1
 1932              		.loc 1 275 0
 1933 00c4 A071     		strb	r0, [r4, #6]
 1934              		.loc 1 276 0
 1935 00c6 2846     		mov	r0, r5
 1936 00c8 FFF7FEFF 		bl	_mmcsd_get_slice
 1937              	.LVL132:
 1938              		.loc 1 277 0
 1939 00cc 4D21     		movs	r1, #77
 1940 00ce 0A46     		mov	r2, r1
 1941              		.loc 1 276 0
 1942 00d0 E071     		strb	r0, [r4, #7]
 1943              		.loc 1 277 0
 1944 00d2 2846     		mov	r0, r5
 1945 00d4 FFF7FEFF 		bl	_mmcsd_get_slice
 1946              	.LVL133:
 1947              		.loc 1 278 0
 1948 00d8 7721     		movs	r1, #119
 1949              		.loc 1 277 0
 1950 00da 6072     		strb	r0, [r4, #9]
 1951              		.loc 1 278 0
 1952 00dc 7022     		movs	r2, #112
 1953 00de 2846     		mov	r0, r5
 1954 00e0 FFF7FEFF 		bl	_mmcsd_get_slice
 1955              	.LVL134:
 1956              		.loc 1 279 0
 1957 00e4 0C21     		movs	r1, #12
 1958 00e6 0A46     		mov	r2, r1
 1959              		.loc 1 278 0
 1960 00e8 6070     		strb	r0, [r4, #1]
 1961              		.loc 1 279 0
 1962 00ea 2846     		mov	r0, r5
 1963 00ec FFF7FEFF 		bl	_mmcsd_get_slice
 1964              	.LVL135:
 1965              		.loc 1 280 0
 1966 00f0 6721     		movs	r1, #103
 1967              		.loc 1 279 0
 1968 00f2 6077     		strb	r0, [r4, #29]
 1969              		.loc 1 280 0
ARM GAS  /var/folders/c6/c789hm653lg9vtl73krp73tm0000gn/T//cc3LgWEg.s 			page 87


 1970 00f4 6022     		movs	r2, #96
 1971 00f6 2846     		mov	r0, r5
 1972 00f8 FFF7FEFF 		bl	_mmcsd_get_slice
 1973              	.LVL136:
 1974              		.loc 1 281 0
 1975 00fc 1F21     		movs	r1, #31
 1976 00fe 0A46     		mov	r2, r1
 1977              		.loc 1 280 0
 1978 0100 E070     		strb	r0, [r4, #3]
 1979              		.loc 1 281 0
 1980 0102 2846     		mov	r0, r5
 1981 0104 FFF7FEFF 		bl	_mmcsd_get_slice
 1982              	.LVL137:
 1983              		.loc 1 282 0
 1984 0108 2621     		movs	r1, #38
 1985              		.loc 1 281 0
 1986 010a A075     		strb	r0, [r4, #22]
 1987              		.loc 1 282 0
 1988 010c 2022     		movs	r2, #32
 1989 010e 2846     		mov	r0, r5
 1990 0110 FFF7FEFF 		bl	_mmcsd_get_slice
 1991              	.LVL138:
 1992              		.loc 1 283 0
 1993 0114 1921     		movs	r1, #25
 1994              		.loc 1 282 0
 1995 0116 6075     		strb	r0, [r4, #21]
 1996              		.loc 1 283 0
 1997 0118 0C22     		movs	r2, #12
 1998 011a 2846     		mov	r0, r5
 1999 011c FFF7FEFF 		bl	_mmcsd_get_slice
 2000              	.LVL139:
 2001              		.loc 1 284 0
 2002 0120 1521     		movs	r1, #21
 2003 0122 0A46     		mov	r2, r1
 2004              		.loc 1 283 0
 2005 0124 2076     		strb	r0, [r4, #24]
 2006              		.loc 1 284 0
 2007 0126 2846     		mov	r0, r5
 2008 0128 FFF7FEFF 		bl	_mmcsd_get_slice
 2009              	.LVL140:
 2010              		.loc 1 285 0
 2011 012c 4E21     		movs	r1, #78
 2012              		.loc 1 284 0
 2013 012e 6076     		strb	r0, [r4, #25]
 2014              		.loc 1 285 0
 2015 0130 0A46     		mov	r2, r1
 2016 0132 2846     		mov	r0, r5
 2017 0134 FFF7FEFF 		bl	_mmcsd_get_slice
 2018              	.LVL141:
 2019 0138 2072     		strb	r0, [r4, #8]
 2020 013a 38BD     		pop	{r3, r4, r5, pc}
 2021              	.LVL142:
 2022              	.L52:
 2023              		.loc 1 258 0 discriminator 1
 2024 013c 0148     		ldr	r0, .L53
 2025              	.LVL143:
 2026 013e FFF7FEFF 		bl	chSysHalt
ARM GAS  /var/folders/c6/c789hm653lg9vtl73krp73tm0000gn/T//cc3LgWEg.s 			page 88


 2027              	.LVL144:
 2028 0142 63E7     		b	.L51
 2029              	.L54:
 2030              		.align	2
 2031              	.L53:
 2032 0144 00000000 		.word	.LANCHOR6
 2033              		.cfi_endproc
 2034              	.LFE266:
 2035              		.size	_mmcsd_unpack_csd_v10, .-_mmcsd_unpack_csd_v10
 2036 0148 AFF30080 		.section	.text._mmcsd_unpack_csd_v20,"ax",%progbits
 2036      AFF30080 
 2037              		.align	2
 2038              		.p2align 4,,15
 2039              		.global	_mmcsd_unpack_csd_v20
 2040              		.thumb
 2041              		.thumb_func
 2042              		.type	_mmcsd_unpack_csd_v20, %function
 2043              	_mmcsd_unpack_csd_v20:
 2044              	.LFB267:
 2045              		.loc 1 297 0
 2046              		.cfi_startproc
 2047              		@ args = 0, pretend = 0, frame = 0
 2048              		@ frame_needed = 0, uses_anonymous_args = 0
 2049              	.LVL145:
 2050 0000 38B5     		push	{r3, r4, r5, lr}
 2051              		.cfi_def_cfa_offset 16
 2052              		.cfi_offset 3, -16
 2053              		.cfi_offset 4, -12
 2054              		.cfi_offset 5, -8
 2055              		.cfi_offset 14, -4
 2056              		.loc 1 300 0
 2057 0002 0546     		mov	r5, r0
 2058              		.loc 1 297 0
 2059 0004 0C46     		mov	r4, r1
 2060              		.loc 1 300 0
 2061 0006 0028     		cmp	r0, #0
 2062 0008 00F09280 		beq	.L57
 2063              	.LVL146:
 2064              	.L56:
 2065              		.loc 1 302 0
 2066 000c 1835     		adds	r5, r5, #24
 2067              	.LVL147:
 2068              		.loc 1 303 0
 2069 000e 4521     		movs	r1, #69
 2070 0010 3022     		movs	r2, #48
 2071 0012 2846     		mov	r0, r5
 2072 0014 FFF7FEFF 		bl	_mmcsd_get_slice
 2073              	.LVL148:
 2074              		.loc 1 304 0
 2075 0018 0721     		movs	r1, #7
 2076              		.loc 1 303 0
 2077 001a E060     		str	r0, [r4, #12]
 2078              		.loc 1 304 0
 2079 001c 0122     		movs	r2, #1
 2080 001e 2846     		mov	r0, r5
 2081 0020 FFF7FEFF 		bl	_mmcsd_get_slice
 2082              	.LVL149:
ARM GAS  /var/folders/c6/c789hm653lg9vtl73krp73tm0000gn/T//cc3LgWEg.s 			page 89


 2083              		.loc 1 305 0
 2084 0024 5F21     		movs	r1, #95
 2085              		.loc 1 304 0
 2086 0026 2077     		strb	r0, [r4, #28]
 2087              		.loc 1 305 0
 2088 0028 5422     		movs	r2, #84
 2089 002a 2846     		mov	r0, r5
 2090 002c FFF7FEFF 		bl	_mmcsd_get_slice
 2091              	.LVL150:
 2092              		.loc 1 306 0
 2093 0030 0E21     		movs	r1, #14
 2094 0032 0A46     		mov	r2, r1
 2095              		.loc 1 305 0
 2096 0034 A080     		strh	r0, [r4, #4]	@ movhi
 2097              		.loc 1 306 0
 2098 0036 2846     		mov	r0, r5
 2099 0038 FFF7FEFF 		bl	_mmcsd_get_slice
 2100              	.LVL151:
 2101              		.loc 1 307 0
 2102 003c 7F21     		movs	r1, #127
 2103              		.loc 1 306 0
 2104 003e 2076     		strb	r0, [r4, #24]
 2105              		.loc 1 307 0
 2106 0040 7E22     		movs	r2, #126
 2107 0042 2846     		mov	r0, r5
 2108 0044 FFF7FEFF 		bl	_mmcsd_get_slice
 2109              	.LVL152:
 2110              		.loc 1 308 0
 2111 0048 4C21     		movs	r1, #76
 2112 004a 0A46     		mov	r2, r1
 2113              		.loc 1 307 0
 2114 004c 2070     		strb	r0, [r4]
 2115              		.loc 1 308 0
 2116 004e 2846     		mov	r0, r5
 2117 0050 FFF7FEFF 		bl	_mmcsd_get_slice
 2118              	.LVL153:
 2119              		.loc 1 309 0
 2120 0054 2E21     		movs	r1, #46
 2121 0056 0A46     		mov	r2, r1
 2122              		.loc 1 308 0
 2123 0058 A072     		strb	r0, [r4, #10]
 2124              		.loc 1 309 0
 2125 005a 2846     		mov	r0, r5
 2126 005c FFF7FEFF 		bl	_mmcsd_get_slice
 2127              	.LVL154:
 2128              		.loc 1 310 0
 2129 0060 0B21     		movs	r1, #11
 2130              		.loc 1 309 0
 2131 0062 2074     		strb	r0, [r4, #16]
 2132              		.loc 1 310 0
 2133 0064 0A22     		movs	r2, #10
 2134 0066 2846     		mov	r0, r5
 2135 0068 FFF7FEFF 		bl	_mmcsd_get_slice
 2136              	.LVL155:
 2137              		.loc 1 311 0
 2138 006c 0F21     		movs	r1, #15
 2139 006e 0A46     		mov	r2, r1
ARM GAS  /var/folders/c6/c789hm653lg9vtl73krp73tm0000gn/T//cc3LgWEg.s 			page 90


 2140              		.loc 1 310 0
 2141 0070 E076     		strb	r0, [r4, #27]
 2142              		.loc 1 311 0
 2143 0072 2846     		mov	r0, r5
 2144 0074 FFF7FEFF 		bl	_mmcsd_get_slice
 2145              	.LVL156:
 2146              		.loc 1 312 0
 2147 0078 6F21     		movs	r1, #111
 2148              		.loc 1 311 0
 2149 007a E075     		strb	r0, [r4, #23]
 2150              		.loc 1 312 0
 2151 007c 6822     		movs	r2, #104
 2152 007e 2846     		mov	r0, r5
 2153 0080 FFF7FEFF 		bl	_mmcsd_get_slice
 2154              	.LVL157:
 2155              		.loc 1 313 0
 2156 0084 0D21     		movs	r1, #13
 2157 0086 0A46     		mov	r2, r1
 2158              		.loc 1 312 0
 2159 0088 A070     		strb	r0, [r4, #2]
 2160              		.loc 1 313 0
 2161 008a 2846     		mov	r0, r5
 2162 008c FFF7FEFF 		bl	_mmcsd_get_slice
 2163              	.LVL158:
 2164              		.loc 1 314 0
 2165 0090 1C21     		movs	r1, #28
 2166              		.loc 1 313 0
 2167 0092 6076     		strb	r0, [r4, #25]
 2168              		.loc 1 314 0
 2169 0094 1A22     		movs	r2, #26
 2170 0096 2846     		mov	r0, r5
 2171 0098 FFF7FEFF 		bl	_mmcsd_get_slice
 2172              	.LVL159:
 2173              		.loc 1 315 0
 2174 009c 5321     		movs	r1, #83
 2175              		.loc 1 314 0
 2176 009e 2075     		strb	r0, [r4, #20]
 2177              		.loc 1 315 0
 2178 00a0 5022     		movs	r2, #80
 2179 00a2 2846     		mov	r0, r5
 2180 00a4 FFF7FEFF 		bl	_mmcsd_get_slice
 2181              	.LVL160:
 2182              		.loc 1 316 0
 2183 00a8 4F21     		movs	r1, #79
 2184 00aa 0A46     		mov	r2, r1
 2185              		.loc 1 315 0
 2186 00ac A071     		strb	r0, [r4, #6]
 2187              		.loc 1 316 0
 2188 00ae 2846     		mov	r0, r5
 2189 00b0 FFF7FEFF 		bl	_mmcsd_get_slice
 2190              	.LVL161:
 2191              		.loc 1 317 0
 2192 00b4 4D21     		movs	r1, #77
 2193 00b6 0A46     		mov	r2, r1
 2194              		.loc 1 316 0
 2195 00b8 E071     		strb	r0, [r4, #7]
 2196              		.loc 1 317 0
ARM GAS  /var/folders/c6/c789hm653lg9vtl73krp73tm0000gn/T//cc3LgWEg.s 			page 91


 2197 00ba 2846     		mov	r0, r5
 2198 00bc FFF7FEFF 		bl	_mmcsd_get_slice
 2199              	.LVL162:
 2200              		.loc 1 318 0
 2201 00c0 2D21     		movs	r1, #45
 2202              		.loc 1 317 0
 2203 00c2 6072     		strb	r0, [r4, #9]
 2204              		.loc 1 318 0
 2205 00c4 2722     		movs	r2, #39
 2206 00c6 2846     		mov	r0, r5
 2207 00c8 FFF7FEFF 		bl	_mmcsd_get_slice
 2208              	.LVL163:
 2209              		.loc 1 319 0
 2210 00cc 7721     		movs	r1, #119
 2211              		.loc 1 318 0
 2212 00ce 6074     		strb	r0, [r4, #17]
 2213              		.loc 1 319 0
 2214 00d0 7022     		movs	r2, #112
 2215 00d2 2846     		mov	r0, r5
 2216 00d4 FFF7FEFF 		bl	_mmcsd_get_slice
 2217              	.LVL164:
 2218              		.loc 1 320 0
 2219 00d8 0C21     		movs	r1, #12
 2220 00da 0A46     		mov	r2, r1
 2221              		.loc 1 319 0
 2222 00dc 6070     		strb	r0, [r4, #1]
 2223              		.loc 1 320 0
 2224 00de 2846     		mov	r0, r5
 2225 00e0 FFF7FEFF 		bl	_mmcsd_get_slice
 2226              	.LVL165:
 2227              		.loc 1 321 0
 2228 00e4 6721     		movs	r1, #103
 2229              		.loc 1 320 0
 2230 00e6 A076     		strb	r0, [r4, #26]
 2231              		.loc 1 321 0
 2232 00e8 6022     		movs	r2, #96
 2233 00ea 2846     		mov	r0, r5
 2234 00ec FFF7FEFF 		bl	_mmcsd_get_slice
 2235              	.LVL166:
 2236              		.loc 1 322 0
 2237 00f0 1F21     		movs	r1, #31
 2238 00f2 0A46     		mov	r2, r1
 2239              		.loc 1 321 0
 2240 00f4 E070     		strb	r0, [r4, #3]
 2241              		.loc 1 322 0
 2242 00f6 2846     		mov	r0, r5
 2243 00f8 FFF7FEFF 		bl	_mmcsd_get_slice
 2244              	.LVL167:
 2245              		.loc 1 323 0
 2246 00fc 2621     		movs	r1, #38
 2247              		.loc 1 322 0
 2248 00fe E074     		strb	r0, [r4, #19]
 2249              		.loc 1 323 0
 2250 0100 2022     		movs	r2, #32
 2251 0102 2846     		mov	r0, r5
 2252 0104 FFF7FEFF 		bl	_mmcsd_get_slice
 2253              	.LVL168:
ARM GAS  /var/folders/c6/c789hm653lg9vtl73krp73tm0000gn/T//cc3LgWEg.s 			page 92


 2254              		.loc 1 324 0
 2255 0108 1921     		movs	r1, #25
 2256              		.loc 1 323 0
 2257 010a A074     		strb	r0, [r4, #18]
 2258              		.loc 1 324 0
 2259 010c 0C22     		movs	r2, #12
 2260 010e 2846     		mov	r0, r5
 2261 0110 FFF7FEFF 		bl	_mmcsd_get_slice
 2262              	.LVL169:
 2263              		.loc 1 325 0
 2264 0114 1521     		movs	r1, #21
 2265 0116 0A46     		mov	r2, r1
 2266              		.loc 1 324 0
 2267 0118 6075     		strb	r0, [r4, #21]
 2268              		.loc 1 325 0
 2269 011a 2846     		mov	r0, r5
 2270 011c FFF7FEFF 		bl	_mmcsd_get_slice
 2271              	.LVL170:
 2272              		.loc 1 326 0
 2273 0120 4E21     		movs	r1, #78
 2274              		.loc 1 325 0
 2275 0122 A075     		strb	r0, [r4, #22]
 2276              		.loc 1 326 0
 2277 0124 0A46     		mov	r2, r1
 2278 0126 2846     		mov	r0, r5
 2279 0128 FFF7FEFF 		bl	_mmcsd_get_slice
 2280              	.LVL171:
 2281 012c 2072     		strb	r0, [r4, #8]
 2282 012e 38BD     		pop	{r3, r4, r5, pc}
 2283              	.LVL172:
 2284              	.L57:
 2285              		.loc 1 300 0 discriminator 1
 2286 0130 0148     		ldr	r0, .L58
 2287              	.LVL173:
 2288 0132 FFF7FEFF 		bl	chSysHalt
 2289              	.LVL174:
 2290 0136 69E7     		b	.L56
 2291              	.L59:
 2292              		.align	2
 2293              	.L58:
 2294 0138 00000000 		.word	.LANCHOR7
 2295              		.cfi_endproc
 2296              	.LFE267:
 2297              		.size	_mmcsd_unpack_csd_v20, .-_mmcsd_unpack_csd_v20
 2298 013c AFF30080 		.section	.rodata.__func__.7813,"a",%progbits
 2299              		.align	2
 2300              		.set	.LANCHOR1,. + 0
 2301              		.type	__func__.7813, %object
 2302              		.size	__func__.7813, 20
 2303              	__func__.7813:
 2304 0000 5F6D6D63 		.ascii	"_mmcsd_get_capacity\000"
 2304      73645F67 
 2304      65745F63 
 2304      61706163 
 2304      69747900 
 2305              		.section	.rodata.__func__.7821,"a",%progbits
 2306              		.align	2
ARM GAS  /var/folders/c6/c789hm653lg9vtl73krp73tm0000gn/T//cc3LgWEg.s 			page 93


 2307              		.set	.LANCHOR2,. + 0
 2308              		.type	__func__.7821, %object
 2309              		.size	__func__.7821, 24
 2310              	__func__.7821:
 2311 0000 5F6D6D63 		.ascii	"_mmcsd_get_capacity_ext\000"
 2311      73645F67 
 2311      65745F63 
 2311      61706163 
 2311      6974795F 
 2312              		.section	.rodata.__func__.7827,"a",%progbits
 2313              		.align	2
 2314              		.set	.LANCHOR3,. + 0
 2315              		.type	__func__.7827, %object
 2316              		.size	__func__.7827, 22
 2317              	__func__.7827:
 2318 0000 5F6D6D63 		.ascii	"_mmcsd_unpack_sdc_cid\000"
 2318      73645F75 
 2318      6E706163 
 2318      6B5F7364 
 2318      635F6369 
 2319 0016 0000     		.section	.rodata.__func__.7833,"a",%progbits
 2320              		.align	2
 2321              		.set	.LANCHOR4,. + 0
 2322              		.type	__func__.7833, %object
 2323              		.size	__func__.7833, 22
 2324              	__func__.7833:
 2325 0000 5F6D6D63 		.ascii	"_mmcsd_unpack_mmc_cid\000"
 2325      73645F75 
 2325      6E706163 
 2325      6B5F6D6D 
 2325      635F6369 
 2326 0016 0000     		.section	.rodata.__func__.7839,"a",%progbits
 2327              		.align	2
 2328              		.set	.LANCHOR5,. + 0
 2329              		.type	__func__.7839, %object
 2330              		.size	__func__.7839, 22
 2331              	__func__.7839:
 2332 0000 5F6D6D63 		.ascii	"_mmcsd_unpack_csd_mmc\000"
 2332      73645F75 
 2332      6E706163 
 2332      6B5F6373 
 2332      645F6D6D 
 2333 0016 0000     		.section	.rodata.__func__.7845,"a",%progbits
 2334              		.align	2
 2335              		.set	.LANCHOR6,. + 0
 2336              		.type	__func__.7845, %object
 2337              		.size	__func__.7845, 22
 2338              	__func__.7845:
 2339 0000 5F6D6D63 		.ascii	"_mmcsd_unpack_csd_v10\000"
 2339      73645F75 
 2339      6E706163 
 2339      6B5F6373 
 2339      645F7631 
 2340 0016 0000     		.section	.rodata.__func__.7851,"a",%progbits
 2341              		.align	2
 2342              		.set	.LANCHOR7,. + 0
 2343              		.type	__func__.7851, %object
ARM GAS  /var/folders/c6/c789hm653lg9vtl73krp73tm0000gn/T//cc3LgWEg.s 			page 94


 2344              		.size	__func__.7851, 22
 2345              	__func__.7851:
 2346 0000 5F6D6D63 		.ascii	"_mmcsd_unpack_csd_v20\000"
 2346      73645F75 
 2346      6E706163 
 2346      6B5F6373 
 2346      645F7632 
 2347 0016 0000     		.section	.rodata.__func__.7806,"a",%progbits
 2348              		.align	2
 2349              		.set	.LANCHOR0,. + 0
 2350              		.type	__func__.7806, %object
 2351              		.size	__func__.7806, 17
 2352              	__func__.7806:
 2353 0000 5F6D6D63 		.ascii	"_mmcsd_get_slice\000"
 2353      73645F67 
 2353      65745F73 
 2353      6C696365 
 2353      00
 2354 0011 000000   		.text
 2355              	.Letext0:
 2356              		.file 2 "/usr/local/Cellar/gcc-arm-none-eabi/20140805/arm-none-eabi/include/machine/_default_types
 2357              		.file 3 "/usr/local/Cellar/gcc-arm-none-eabi/20140805/arm-none-eabi/include/stdint.h"
 2358              		.file 4 "../../../os/rt/ports/ARMCMx/compilers/GCC/chtypes.h"
 2359              		.file 5 "../../../os/rt/include/chsystypes.h"
 2360              		.file 6 "../../../os/rt/include/chschd.h"
 2361              		.file 7 "../../../os/rt/ports/ARMCMx/chcore.h"
 2362              		.file 8 "../../../os/rt/ports/ARMCMx/chcore_v7m.h"
 2363              		.file 9 "../../../os/rt/include/chdebug.h"
 2364              		.file 10 "../../../os/rt/include/chtm.h"
 2365              		.file 11 "../../../os/rt/include/chstats.h"
 2366              		.file 12 "../../../os/rt/include/chsem.h"
 2367              		.file 13 "../../../os/rt/include/chmtx.h"
 2368              		.file 14 "../../../os/hal/include/hal_ioblock.h"
 2369              		.file 15 "../../../os/hal/include/hal_mmcsd.h"
 2370              		.file 16 "../../../os/ext/CMSIS/include/core_cm4.h"
 2371              		.file 17 "../../../os/rt/include/chsys.h"
 2372              		.section	.debug_info,"",%progbits
 2373              	.Ldebug_info0:
 2374 0000 BE210000 		.4byte	0x21be
 2375 0004 0400     		.2byte	0x4
 2376 0006 00000000 		.4byte	.Ldebug_abbrev0
 2377 000a 04       		.byte	0x4
 2378 000b 01       		.uleb128 0x1
 2379 000c 78090000 		.4byte	.LASF226
 2380 0010 01       		.byte	0x1
 2381 0011 88030000 		.4byte	.LASF227
 2382 0015 CC000000 		.4byte	.LASF228
 2383 0019 00000000 		.4byte	.Ldebug_ranges0+0
 2384 001d 00000000 		.4byte	0
 2385 0021 00000000 		.4byte	.Ldebug_line0
 2386 0025 02       		.uleb128 0x2
 2387 0026 04       		.byte	0x4
 2388 0027 05       		.byte	0x5
 2389 0028 696E7400 		.ascii	"int\000"
 2390 002c 03       		.uleb128 0x3
 2391 002d 04       		.byte	0x4
 2392 002e 07       		.byte	0x7
ARM GAS  /var/folders/c6/c789hm653lg9vtl73krp73tm0000gn/T//cc3LgWEg.s 			page 95


 2393 002f E3050000 		.4byte	.LASF0
 2394 0033 03       		.uleb128 0x3
 2395 0034 01       		.byte	0x1
 2396 0035 06       		.byte	0x6
 2397 0036 71020000 		.4byte	.LASF1
 2398 003a 04       		.uleb128 0x4
 2399 003b AD010000 		.4byte	.LASF4
 2400 003f 02       		.byte	0x2
 2401 0040 1C       		.byte	0x1c
 2402 0041 45000000 		.4byte	0x45
 2403 0045 03       		.uleb128 0x3
 2404 0046 01       		.byte	0x1
 2405 0047 08       		.byte	0x8
 2406 0048 B2020000 		.4byte	.LASF2
 2407 004c 03       		.uleb128 0x3
 2408 004d 02       		.byte	0x2
 2409 004e 05       		.byte	0x5
 2410 004f 71080000 		.4byte	.LASF3
 2411 0053 04       		.uleb128 0x4
 2412 0054 63030000 		.4byte	.LASF5
 2413 0058 02       		.byte	0x2
 2414 0059 26       		.byte	0x26
 2415 005a 5E000000 		.4byte	0x5e
 2416 005e 03       		.uleb128 0x3
 2417 005f 02       		.byte	0x2
 2418 0060 07       		.byte	0x7
 2419 0061 810A0000 		.4byte	.LASF6
 2420 0065 04       		.uleb128 0x4
 2421 0066 D60A0000 		.4byte	.LASF7
 2422 006a 02       		.byte	0x2
 2423 006b 37       		.byte	0x37
 2424 006c 70000000 		.4byte	0x70
 2425 0070 03       		.uleb128 0x3
 2426 0071 04       		.byte	0x4
 2427 0072 05       		.byte	0x5
 2428 0073 E2010000 		.4byte	.LASF8
 2429 0077 04       		.uleb128 0x4
 2430 0078 3D050000 		.4byte	.LASF9
 2431 007c 02       		.byte	0x2
 2432 007d 38       		.byte	0x38
 2433 007e 82000000 		.4byte	0x82
 2434 0082 03       		.uleb128 0x3
 2435 0083 04       		.byte	0x4
 2436 0084 07       		.byte	0x7
 2437 0085 A9040000 		.4byte	.LASF10
 2438 0089 03       		.uleb128 0x3
 2439 008a 08       		.byte	0x8
 2440 008b 05       		.byte	0x5
 2441 008c 4F050000 		.4byte	.LASF11
 2442 0090 04       		.uleb128 0x4
 2443 0091 9E040000 		.4byte	.LASF12
 2444 0095 02       		.byte	0x2
 2445 0096 4E       		.byte	0x4e
 2446 0097 9B000000 		.4byte	0x9b
 2447 009b 03       		.uleb128 0x3
 2448 009c 08       		.byte	0x8
 2449 009d 07       		.byte	0x7
ARM GAS  /var/folders/c6/c789hm653lg9vtl73krp73tm0000gn/T//cc3LgWEg.s 			page 96


 2450 009e 5C070000 		.4byte	.LASF13
 2451 00a2 04       		.uleb128 0x4
 2452 00a3 84020000 		.4byte	.LASF14
 2453 00a7 03       		.byte	0x3
 2454 00a8 2A       		.byte	0x2a
 2455 00a9 3A000000 		.4byte	0x3a
 2456 00ad 04       		.uleb128 0x4
 2457 00ae 8E070000 		.4byte	.LASF15
 2458 00b2 03       		.byte	0x3
 2459 00b3 36       		.byte	0x36
 2460 00b4 53000000 		.4byte	0x53
 2461 00b8 04       		.uleb128 0x4
 2462 00b9 5D000000 		.4byte	.LASF16
 2463 00bd 03       		.byte	0x3
 2464 00be 41       		.byte	0x41
 2465 00bf 65000000 		.4byte	0x65
 2466 00c3 04       		.uleb128 0x4
 2467 00c4 61090000 		.4byte	.LASF17
 2468 00c8 03       		.byte	0x3
 2469 00c9 42       		.byte	0x42
 2470 00ca 77000000 		.4byte	0x77
 2471 00ce 04       		.uleb128 0x4
 2472 00cf 7B080000 		.4byte	.LASF18
 2473 00d3 03       		.byte	0x3
 2474 00d4 4E       		.byte	0x4e
 2475 00d5 90000000 		.4byte	0x90
 2476 00d9 05       		.uleb128 0x5
 2477 00da B8000000 		.4byte	0xb8
 2478 00de 04       		.uleb128 0x4
 2479 00df 08060000 		.4byte	.LASF19
 2480 00e3 04       		.byte	0x4
 2481 00e4 45       		.byte	0x45
 2482 00e5 C3000000 		.4byte	0xc3
 2483 00e9 04       		.uleb128 0x4
 2484 00ea 13020000 		.4byte	.LASF20
 2485 00ee 04       		.byte	0x4
 2486 00ef 46       		.byte	0x46
 2487 00f0 CE000000 		.4byte	0xce
 2488 00f4 04       		.uleb128 0x4
 2489 00f5 1A080000 		.4byte	.LASF21
 2490 00f9 04       		.byte	0x4
 2491 00fa 48       		.byte	0x48
 2492 00fb A2000000 		.4byte	0xa2
 2493 00ff 04       		.uleb128 0x4
 2494 0100 0A020000 		.4byte	.LASF22
 2495 0104 04       		.byte	0x4
 2496 0105 49       		.byte	0x49
 2497 0106 A2000000 		.4byte	0xa2
 2498 010a 04       		.uleb128 0x4
 2499 010b 25090000 		.4byte	.LASF23
 2500 010f 04       		.byte	0x4
 2501 0110 4A       		.byte	0x4a
 2502 0111 A2000000 		.4byte	0xa2
 2503 0115 04       		.uleb128 0x4
 2504 0116 3F000000 		.4byte	.LASF24
 2505 011a 04       		.byte	0x4
 2506 011b 4C       		.byte	0x4c
ARM GAS  /var/folders/c6/c789hm653lg9vtl73krp73tm0000gn/T//cc3LgWEg.s 			page 97


 2507 011c C3000000 		.4byte	0xc3
 2508 0120 04       		.uleb128 0x4
 2509 0121 97070000 		.4byte	.LASF25
 2510 0125 04       		.byte	0x4
 2511 0126 4D       		.byte	0x4d
 2512 0127 B8000000 		.4byte	0xb8
 2513 012b 04       		.uleb128 0x4
 2514 012c 98020000 		.4byte	.LASF26
 2515 0130 04       		.byte	0x4
 2516 0131 4F       		.byte	0x4f
 2517 0132 C3000000 		.4byte	0xc3
 2518 0136 04       		.uleb128 0x4
 2519 0137 E8030000 		.4byte	.LASF27
 2520 013b 04       		.byte	0x4
 2521 013c 51       		.byte	0x51
 2522 013d B8000000 		.4byte	0xb8
 2523 0141 04       		.uleb128 0x4
 2524 0142 05050000 		.4byte	.LASF28
 2525 0146 04       		.byte	0x4
 2526 0147 52       		.byte	0x52
 2527 0148 C3000000 		.4byte	0xc3
 2528 014c 04       		.uleb128 0x4
 2529 014d 26000000 		.4byte	.LASF29
 2530 0151 05       		.byte	0x5
 2531 0152 33       		.byte	0x33
 2532 0153 C3000000 		.4byte	0xc3
 2533 0157 04       		.uleb128 0x4
 2534 0158 C0060000 		.4byte	.LASF30
 2535 015c 05       		.byte	0x5
 2536 015d 3F       		.byte	0x3f
 2537 015e 62010000 		.4byte	0x162
 2538 0162 06       		.uleb128 0x6
 2539 0163 C8040000 		.4byte	.LASF52
 2540 0167 60       		.byte	0x60
 2541 0168 06       		.byte	0x6
 2542 0169 C2       		.byte	0xc2
 2543 016a 68020000 		.4byte	0x268
 2544 016e 07       		.uleb128 0x7
 2545 016f EB010000 		.4byte	.LASF31
 2546 0173 06       		.byte	0x6
 2547 0174 C3       		.byte	0xc3
 2548 0175 73020000 		.4byte	0x273
 2549 0179 00       		.byte	0
 2550 017a 07       		.uleb128 0x7
 2551 017b 03020000 		.4byte	.LASF32
 2552 017f 06       		.byte	0x6
 2553 0180 C5       		.byte	0xc5
 2554 0181 73020000 		.4byte	0x273
 2555 0185 04       		.byte	0x4
 2556 0186 07       		.uleb128 0x7
 2557 0187 5C030000 		.4byte	.LASF33
 2558 018b 06       		.byte	0x6
 2559 018c C7       		.byte	0xc7
 2560 018d 15010000 		.4byte	0x115
 2561 0191 08       		.byte	0x8
 2562 0192 07       		.uleb128 0x7
 2563 0193 30000000 		.4byte	.LASF34
ARM GAS  /var/folders/c6/c789hm653lg9vtl73krp73tm0000gn/T//cc3LgWEg.s 			page 98


 2564 0197 06       		.byte	0x6
 2565 0198 C8       		.byte	0xc8
 2566 0199 EC040000 		.4byte	0x4ec
 2567 019d 0C       		.byte	0xc
 2568 019e 07       		.uleb128 0x7
 2569 019f DA010000 		.4byte	.LASF35
 2570 01a3 06       		.byte	0x6
 2571 01a4 CA       		.byte	0xca
 2572 01a5 73020000 		.4byte	0x273
 2573 01a9 10       		.byte	0x10
 2574 01aa 07       		.uleb128 0x7
 2575 01ab 73070000 		.4byte	.LASF36
 2576 01af 06       		.byte	0x6
 2577 01b0 CB       		.byte	0xcb
 2578 01b1 73020000 		.4byte	0x273
 2579 01b5 14       		.byte	0x14
 2580 01b6 07       		.uleb128 0x7
 2581 01b7 1A0B0000 		.4byte	.LASF37
 2582 01bb 06       		.byte	0x6
 2583 01bc D2       		.byte	0xd2
 2584 01bd 90070000 		.4byte	0x790
 2585 01c1 18       		.byte	0x18
 2586 01c2 07       		.uleb128 0x7
 2587 01c3 B50A0000 		.4byte	.LASF38
 2588 01c7 06       		.byte	0x6
 2589 01c8 D8       		.byte	0xd8
 2590 01c9 A2070000 		.4byte	0x7a2
 2591 01cd 1C       		.byte	0x1c
 2592 01ce 07       		.uleb128 0x7
 2593 01cf 480B0000 		.4byte	.LASF39
 2594 01d3 06       		.byte	0x6
 2595 01d4 DD       		.byte	0xdd
 2596 01d5 FF000000 		.4byte	0xff
 2597 01d9 20       		.byte	0x20
 2598 01da 07       		.uleb128 0x7
 2599 01db B4050000 		.4byte	.LASF40
 2600 01df 06       		.byte	0x6
 2601 01e0 E1       		.byte	0xe1
 2602 01e1 F4000000 		.4byte	0xf4
 2603 01e5 21       		.byte	0x21
 2604 01e6 07       		.uleb128 0x7
 2605 01e7 18060000 		.4byte	.LASF41
 2606 01eb 06       		.byte	0x6
 2607 01ec E6       		.byte	0xe6
 2608 01ed 0A010000 		.4byte	0x10a
 2609 01f1 22       		.byte	0x22
 2610 01f2 08       		.uleb128 0x8
 2611 01f3 705F7500 		.ascii	"p_u\000"
 2612 01f7 06       		.byte	0x6
 2613 01f8 3101     		.2byte	0x131
 2614 01fa CB060000 		.4byte	0x6cb
 2615 01fe 24       		.byte	0x24
 2616 01ff 09       		.uleb128 0x9
 2617 0200 A0050000 		.4byte	.LASF42
 2618 0204 06       		.byte	0x6
 2619 0205 3601     		.2byte	0x136
 2620 0207 79020000 		.4byte	0x279
ARM GAS  /var/folders/c6/c789hm653lg9vtl73krp73tm0000gn/T//cc3LgWEg.s 			page 99


 2621 020b 28       		.byte	0x28
 2622 020c 09       		.uleb128 0x9
 2623 020d 47000000 		.4byte	.LASF43
 2624 0211 06       		.byte	0x6
 2625 0212 3C01     		.2byte	0x13c
 2626 0214 9D020000 		.4byte	0x29d
 2627 0218 2C       		.byte	0x2c
 2628 0219 09       		.uleb128 0x9
 2629 021a 420B0000 		.4byte	.LASF44
 2630 021e 06       		.byte	0x6
 2631 021f 4001     		.2byte	0x140
 2632 0221 20010000 		.4byte	0x120
 2633 0225 34       		.byte	0x34
 2634 0226 09       		.uleb128 0x9
 2635 0227 08040000 		.4byte	.LASF45
 2636 022b 06       		.byte	0x6
 2637 022c 4601     		.2byte	0x146
 2638 022e 2B010000 		.4byte	0x12b
 2639 0232 38       		.byte	0x38
 2640 0233 09       		.uleb128 0x9
 2641 0234 2C020000 		.4byte	.LASF46
 2642 0238 06       		.byte	0x6
 2643 0239 4D01     		.2byte	0x14d
 2644 023b 8A070000 		.4byte	0x78a
 2645 023f 3C       		.byte	0x3c
 2646 0240 09       		.uleb128 0x9
 2647 0241 DC060000 		.4byte	.LASF47
 2648 0245 06       		.byte	0x6
 2649 0246 5101     		.2byte	0x151
 2650 0248 15010000 		.4byte	0x115
 2651 024c 40       		.byte	0x40
 2652 024d 09       		.uleb128 0x9
 2653 024e 10060000 		.4byte	.LASF48
 2654 0252 06       		.byte	0x6
 2655 0253 5801     		.2byte	0x158
 2656 0255 50030000 		.4byte	0x350
 2657 0259 44       		.byte	0x44
 2658 025a 09       		.uleb128 0x9
 2659 025b 0E000000 		.4byte	.LASF49
 2660 025f 06       		.byte	0x6
 2661 0260 5E01     		.2byte	0x15e
 2662 0262 7C060000 		.4byte	0x67c
 2663 0266 48       		.byte	0x48
 2664 0267 00       		.byte	0
 2665 0268 04       		.uleb128 0x4
 2666 0269 C9060000 		.4byte	.LASF50
 2667 026d 05       		.byte	0x5
 2668 026e 44       		.byte	0x44
 2669 026f 73020000 		.4byte	0x273
 2670 0273 0A       		.uleb128 0xa
 2671 0274 04       		.byte	0x4
 2672 0275 57010000 		.4byte	0x157
 2673 0279 04       		.uleb128 0x4
 2674 027a 3C090000 		.4byte	.LASF51
 2675 027e 05       		.byte	0x5
 2676 027f 49       		.byte	0x49
 2677 0280 84020000 		.4byte	0x284
ARM GAS  /var/folders/c6/c789hm653lg9vtl73krp73tm0000gn/T//cc3LgWEg.s 			page 100


 2678 0284 06       		.uleb128 0x6
 2679 0285 0C050000 		.4byte	.LASF53
 2680 0289 04       		.byte	0x4
 2681 028a 06       		.byte	0x6
 2682 028b B0       		.byte	0xb0
 2683 028c 9D020000 		.4byte	0x29d
 2684 0290 07       		.uleb128 0x7
 2685 0291 EB010000 		.4byte	.LASF31
 2686 0295 06       		.byte	0x6
 2687 0296 B1       		.byte	0xb1
 2688 0297 73020000 		.4byte	0x273
 2689 029b 00       		.byte	0
 2690 029c 00       		.byte	0
 2691 029d 04       		.uleb128 0x4
 2692 029e 1C020000 		.4byte	.LASF54
 2693 02a2 05       		.byte	0x5
 2694 02a3 50       		.byte	0x50
 2695 02a4 A8020000 		.4byte	0x2a8
 2696 02a8 06       		.uleb128 0x6
 2697 02a9 9D070000 		.4byte	.LASF55
 2698 02ad 08       		.byte	0x8
 2699 02ae 06       		.byte	0x6
 2700 02af B7       		.byte	0xb7
 2701 02b0 CD020000 		.4byte	0x2cd
 2702 02b4 07       		.uleb128 0x7
 2703 02b5 EB010000 		.4byte	.LASF31
 2704 02b9 06       		.byte	0x6
 2705 02ba B8       		.byte	0xb8
 2706 02bb 73020000 		.4byte	0x273
 2707 02bf 00       		.byte	0
 2708 02c0 07       		.uleb128 0x7
 2709 02c1 03020000 		.4byte	.LASF32
 2710 02c5 06       		.byte	0x6
 2711 02c6 B9       		.byte	0xb9
 2712 02c7 73020000 		.4byte	0x273
 2713 02cb 04       		.byte	0x4
 2714 02cc 00       		.byte	0
 2715 02cd 04       		.uleb128 0x4
 2716 02ce F8040000 		.4byte	.LASF56
 2717 02d2 05       		.byte	0x5
 2718 02d3 57       		.byte	0x57
 2719 02d4 D8020000 		.4byte	0x2d8
 2720 02d8 0B       		.uleb128 0xb
 2721 02d9 1A040000 		.4byte	.LASF57
 2722 02dd 1C       		.byte	0x1c
 2723 02de 06       		.byte	0x6
 2724 02df 9001     		.2byte	0x190
 2725 02e1 34030000 		.4byte	0x334
 2726 02e5 09       		.uleb128 0x9
 2727 02e6 E4070000 		.4byte	.LASF58
 2728 02ea 06       		.byte	0x6
 2729 02eb 9101     		.2byte	0x191
 2730 02ed 9D020000 		.4byte	0x29d
 2731 02f1 00       		.byte	0
 2732 02f2 09       		.uleb128 0x9
 2733 02f3 D5080000 		.4byte	.LASF59
 2734 02f7 06       		.byte	0x6
ARM GAS  /var/folders/c6/c789hm653lg9vtl73krp73tm0000gn/T//cc3LgWEg.s 			page 101


 2735 02f8 9201     		.2byte	0x192
 2736 02fa 15010000 		.4byte	0x115
 2737 02fe 08       		.byte	0x8
 2738 02ff 09       		.uleb128 0x9
 2739 0300 52000000 		.4byte	.LASF60
 2740 0304 06       		.byte	0x6
 2741 0305 9401     		.2byte	0x194
 2742 0307 EC040000 		.4byte	0x4ec
 2743 030b 0C       		.byte	0xc
 2744 030c 09       		.uleb128 0x9
 2745 030d EA020000 		.4byte	.LASF61
 2746 0311 06       		.byte	0x6
 2747 0312 9701     		.2byte	0x197
 2748 0314 73020000 		.4byte	0x273
 2749 0318 10       		.byte	0x10
 2750 0319 09       		.uleb128 0x9
 2751 031a 2F080000 		.4byte	.LASF62
 2752 031e 06       		.byte	0x6
 2753 031f 9801     		.2byte	0x198
 2754 0321 73020000 		.4byte	0x273
 2755 0325 14       		.byte	0x14
 2756 0326 09       		.uleb128 0x9
 2757 0327 B6070000 		.4byte	.LASF63
 2758 032b 06       		.byte	0x6
 2759 032c 9B01     		.2byte	0x19b
 2760 032e 73020000 		.4byte	0x273
 2761 0332 18       		.byte	0x18
 2762 0333 00       		.byte	0
 2763 0334 04       		.uleb128 0x4
 2764 0335 7E000000 		.4byte	.LASF64
 2765 0339 05       		.byte	0x5
 2766 033a 5C       		.byte	0x5c
 2767 033b 3F030000 		.4byte	0x33f
 2768 033f 0A       		.uleb128 0xa
 2769 0340 04       		.byte	0x4
 2770 0341 45030000 		.4byte	0x345
 2771 0345 0C       		.uleb128 0xc
 2772 0346 50030000 		.4byte	0x350
 2773 034a 0D       		.uleb128 0xd
 2774 034b 50030000 		.4byte	0x350
 2775 034f 00       		.byte	0
 2776 0350 0E       		.uleb128 0xe
 2777 0351 04       		.byte	0x4
 2778 0352 04       		.uleb128 0x4
 2779 0353 E8040000 		.4byte	.LASF65
 2780 0357 05       		.byte	0x5
 2781 0358 61       		.byte	0x61
 2782 0359 5D030000 		.4byte	0x35d
 2783 035d 0B       		.uleb128 0xb
 2784 035e 21070000 		.4byte	.LASF66
 2785 0362 14       		.byte	0x14
 2786 0363 06       		.byte	0x6
 2787 0364 6B01     		.2byte	0x16b
 2788 0366 AC030000 		.4byte	0x3ac
 2789 036a 09       		.uleb128 0x9
 2790 036b 6D050000 		.4byte	.LASF67
 2791 036f 06       		.byte	0x6
ARM GAS  /var/folders/c6/c789hm653lg9vtl73krp73tm0000gn/T//cc3LgWEg.s 			page 102


 2792 0370 6C01     		.2byte	0x16c
 2793 0372 A8070000 		.4byte	0x7a8
 2794 0376 00       		.byte	0
 2795 0377 09       		.uleb128 0x9
 2796 0378 75050000 		.4byte	.LASF68
 2797 037c 06       		.byte	0x6
 2798 037d 6D01     		.2byte	0x16d
 2799 037f A8070000 		.4byte	0x7a8
 2800 0383 04       		.byte	0x4
 2801 0384 09       		.uleb128 0x9
 2802 0385 FE060000 		.4byte	.LASF69
 2803 0389 06       		.byte	0x6
 2804 038a 6E01     		.2byte	0x16e
 2805 038c 4C010000 		.4byte	0x14c
 2806 0390 08       		.byte	0x8
 2807 0391 09       		.uleb128 0x9
 2808 0392 EE030000 		.4byte	.LASF70
 2809 0396 06       		.byte	0x6
 2810 0397 6F01     		.2byte	0x16f
 2811 0399 34030000 		.4byte	0x334
 2812 039d 0C       		.byte	0xc
 2813 039e 09       		.uleb128 0x9
 2814 039f 98010000 		.4byte	.LASF71
 2815 03a3 06       		.byte	0x6
 2816 03a4 7101     		.2byte	0x171
 2817 03a6 50030000 		.4byte	0x350
 2818 03aa 10       		.byte	0x10
 2819 03ab 00       		.byte	0
 2820 03ac 04       		.uleb128 0x4
 2821 03ad D2040000 		.4byte	.LASF72
 2822 03b1 05       		.byte	0x5
 2823 03b2 66       		.byte	0x66
 2824 03b3 B7030000 		.4byte	0x3b7
 2825 03b7 0B       		.uleb128 0xb
 2826 03b8 92000000 		.4byte	.LASF73
 2827 03bc 10       		.byte	0x10
 2828 03bd 06       		.byte	0x6
 2829 03be 7B01     		.2byte	0x17b
 2830 03c0 F9030000 		.4byte	0x3f9
 2831 03c4 09       		.uleb128 0x9
 2832 03c5 6D050000 		.4byte	.LASF67
 2833 03c9 06       		.byte	0x6
 2834 03ca 7C01     		.2byte	0x17c
 2835 03cc A8070000 		.4byte	0x7a8
 2836 03d0 00       		.byte	0
 2837 03d1 09       		.uleb128 0x9
 2838 03d2 75050000 		.4byte	.LASF68
 2839 03d6 06       		.byte	0x6
 2840 03d7 7E01     		.2byte	0x17e
 2841 03d9 A8070000 		.4byte	0x7a8
 2842 03dd 04       		.byte	0x4
 2843 03de 09       		.uleb128 0x9
 2844 03df FE060000 		.4byte	.LASF69
 2845 03e3 06       		.byte	0x6
 2846 03e4 8001     		.2byte	0x180
 2847 03e6 4C010000 		.4byte	0x14c
 2848 03ea 08       		.byte	0x8
ARM GAS  /var/folders/c6/c789hm653lg9vtl73krp73tm0000gn/T//cc3LgWEg.s 			page 103


 2849 03eb 09       		.uleb128 0x9
 2850 03ec 750A0000 		.4byte	.LASF74
 2851 03f0 06       		.byte	0x6
 2852 03f1 8801     		.2byte	0x188
 2853 03f3 4C010000 		.4byte	0x14c
 2854 03f7 0C       		.byte	0xc
 2855 03f8 00       		.byte	0
 2856 03f9 04       		.uleb128 0x4
 2857 03fa FD020000 		.4byte	.LASF75
 2858 03fe 05       		.byte	0x5
 2859 03ff 6B       		.byte	0x6b
 2860 0400 04040000 		.4byte	0x404
 2861 0404 0F       		.uleb128 0xf
 2862 0405 DC080000 		.4byte	.LASF76
 2863 0409 1404     		.2byte	0x414
 2864 040b 06       		.byte	0x6
 2865 040c A201     		.2byte	0x1a2
 2866 040e 47040000 		.4byte	0x447
 2867 0412 09       		.uleb128 0x9
 2868 0413 CC020000 		.4byte	.LASF77
 2869 0417 06       		.byte	0x6
 2870 0418 AA01     		.2byte	0x1aa
 2871 041a AE070000 		.4byte	0x7ae
 2872 041e 00       		.byte	0
 2873 041f 09       		.uleb128 0x9
 2874 0420 5A040000 		.4byte	.LASF78
 2875 0424 06       		.byte	0x6
 2876 0425 AF01     		.2byte	0x1af
 2877 0427 36010000 		.4byte	0x136
 2878 042b 04       		.byte	0x4
 2879 042c 09       		.uleb128 0x9
 2880 042d C3000000 		.4byte	.LASF79
 2881 0431 06       		.byte	0x6
 2882 0432 B301     		.2byte	0x1b3
 2883 0434 36010000 		.4byte	0x136
 2884 0438 08       		.byte	0x8
 2885 0439 09       		.uleb128 0x9
 2886 043a DD020000 		.4byte	.LASF80
 2887 043e 06       		.byte	0x6
 2888 043f B901     		.2byte	0x1b9
 2889 0441 0E060000 		.4byte	0x60e
 2890 0445 0C       		.byte	0xc
 2891 0446 00       		.byte	0
 2892 0447 04       		.uleb128 0x4
 2893 0448 A20A0000 		.4byte	.LASF81
 2894 044c 05       		.byte	0x5
 2895 044d 70       		.byte	0x70
 2896 044e 52040000 		.4byte	0x452
 2897 0452 0F       		.uleb128 0xf
 2898 0453 4B090000 		.4byte	.LASF82
 2899 0457 D805     		.2byte	0x5d8
 2900 0459 06       		.byte	0x6
 2901 045a C201     		.2byte	0x1c2
 2902 045c BF040000 		.4byte	0x4bf
 2903 0460 09       		.uleb128 0x9
 2904 0461 14080000 		.4byte	.LASF83
 2905 0465 06       		.byte	0x6
ARM GAS  /var/folders/c6/c789hm653lg9vtl73krp73tm0000gn/T//cc3LgWEg.s 			page 104


 2906 0466 C601     		.2byte	0x1c6
 2907 0468 CD020000 		.4byte	0x2cd
 2908 046c 00       		.byte	0
 2909 046d 09       		.uleb128 0x9
 2910 046e FD080000 		.4byte	.LASF84
 2911 0472 06       		.byte	0x6
 2912 0473 CA01     		.2byte	0x1ca
 2913 0475 AC030000 		.4byte	0x3ac
 2914 0479 1C       		.byte	0x1c
 2915 047a 08       		.uleb128 0x8
 2916 047b 64626700 		.ascii	"dbg\000"
 2917 047f 06       		.byte	0x6
 2918 0480 CE01     		.2byte	0x1ce
 2919 0482 F9030000 		.4byte	0x3f9
 2920 0486 2C       		.byte	0x2c
 2921 0487 10       		.uleb128 0x10
 2922 0488 C0070000 		.4byte	.LASF85
 2923 048c 06       		.byte	0x6
 2924 048d D201     		.2byte	0x1d2
 2925 048f 57010000 		.4byte	0x157
 2926 0493 4004     		.2byte	0x440
 2927 0495 11       		.uleb128 0x11
 2928 0496 746D00   		.ascii	"tm\000"
 2929 0499 06       		.byte	0x6
 2930 049a D701     		.2byte	0x1d7
 2931 049c 2E060000 		.4byte	0x62e
 2932 04a0 A004     		.2byte	0x4a0
 2933 04a2 10       		.uleb128 0x10
 2934 04a3 38070000 		.4byte	.LASF86
 2935 04a7 06       		.byte	0x6
 2936 04a8 DD01     		.2byte	0x1dd
 2937 04aa C0060000 		.4byte	0x6c0
 2938 04ae A804     		.2byte	0x4a8
 2939 04b0 10       		.uleb128 0x10
 2940 04b1 C1050000 		.4byte	.LASF87
 2941 04b5 06       		.byte	0x6
 2942 04b6 E301     		.2byte	0x1e3
 2943 04b8 B3070000 		.4byte	0x7b3
 2944 04bc E004     		.2byte	0x4e0
 2945 04be 00       		.byte	0
 2946 04bf 03       		.uleb128 0x3
 2947 04c0 04       		.byte	0x4
 2948 04c1 07       		.byte	0x7
 2949 04c2 16000000 		.4byte	.LASF88
 2950 04c6 12       		.uleb128 0x12
 2951 04c7 C3000000 		.4byte	0xc3
 2952 04cb D6040000 		.4byte	0x4d6
 2953 04cf 13       		.uleb128 0x13
 2954 04d0 BF040000 		.4byte	0x4bf
 2955 04d4 03       		.byte	0x3
 2956 04d5 00       		.byte	0
 2957 04d6 04       		.uleb128 0x4
 2958 04d7 3B020000 		.4byte	.LASF89
 2959 04db 07       		.byte	0x7
 2960 04dc 65       		.byte	0x65
 2961 04dd 50030000 		.4byte	0x350
 2962 04e1 04       		.uleb128 0x4
ARM GAS  /var/folders/c6/c789hm653lg9vtl73krp73tm0000gn/T//cc3LgWEg.s 			page 105


 2963 04e2 A8030000 		.4byte	.LASF90
 2964 04e6 07       		.byte	0x7
 2965 04e7 6D       		.byte	0x6d
 2966 04e8 CE000000 		.4byte	0xce
 2967 04ec 06       		.uleb128 0x6
 2968 04ed A4020000 		.4byte	.LASF91
 2969 04f1 04       		.byte	0x4
 2970 04f2 07       		.byte	0x7
 2971 04f3 89       		.byte	0x89
 2972 04f4 05050000 		.4byte	0x505
 2973 04f8 14       		.uleb128 0x14
 2974 04f9 72313300 		.ascii	"r13\000"
 2975 04fd 07       		.byte	0x7
 2976 04fe 8A       		.byte	0x8a
 2977 04ff 80050000 		.4byte	0x580
 2978 0503 00       		.byte	0
 2979 0504 00       		.byte	0
 2980 0505 06       		.uleb128 0x6
 2981 0506 E7060000 		.4byte	.LASF92
 2982 050a 24       		.byte	0x24
 2983 050b 08       		.byte	0x8
 2984 050c F4       		.byte	0xf4
 2985 050d 80050000 		.4byte	0x580
 2986 0511 08       		.uleb128 0x8
 2987 0512 723400   		.ascii	"r4\000"
 2988 0515 08       		.byte	0x8
 2989 0516 0701     		.2byte	0x107
 2990 0518 D6040000 		.4byte	0x4d6
 2991 051c 00       		.byte	0
 2992 051d 08       		.uleb128 0x8
 2993 051e 723500   		.ascii	"r5\000"
 2994 0521 08       		.byte	0x8
 2995 0522 0801     		.2byte	0x108
 2996 0524 D6040000 		.4byte	0x4d6
 2997 0528 04       		.byte	0x4
 2998 0529 08       		.uleb128 0x8
 2999 052a 723600   		.ascii	"r6\000"
 3000 052d 08       		.byte	0x8
 3001 052e 0901     		.2byte	0x109
 3002 0530 D6040000 		.4byte	0x4d6
 3003 0534 08       		.byte	0x8
 3004 0535 08       		.uleb128 0x8
 3005 0536 723700   		.ascii	"r7\000"
 3006 0539 08       		.byte	0x8
 3007 053a 0A01     		.2byte	0x10a
 3008 053c D6040000 		.4byte	0x4d6
 3009 0540 0C       		.byte	0xc
 3010 0541 08       		.uleb128 0x8
 3011 0542 723800   		.ascii	"r8\000"
 3012 0545 08       		.byte	0x8
 3013 0546 0B01     		.2byte	0x10b
 3014 0548 D6040000 		.4byte	0x4d6
 3015 054c 10       		.byte	0x10
 3016 054d 08       		.uleb128 0x8
 3017 054e 723900   		.ascii	"r9\000"
 3018 0551 08       		.byte	0x8
 3019 0552 0C01     		.2byte	0x10c
ARM GAS  /var/folders/c6/c789hm653lg9vtl73krp73tm0000gn/T//cc3LgWEg.s 			page 106


 3020 0554 D6040000 		.4byte	0x4d6
 3021 0558 14       		.byte	0x14
 3022 0559 08       		.uleb128 0x8
 3023 055a 72313000 		.ascii	"r10\000"
 3024 055e 08       		.byte	0x8
 3025 055f 0D01     		.2byte	0x10d
 3026 0561 D6040000 		.4byte	0x4d6
 3027 0565 18       		.byte	0x18
 3028 0566 08       		.uleb128 0x8
 3029 0567 72313100 		.ascii	"r11\000"
 3030 056b 08       		.byte	0x8
 3031 056c 0E01     		.2byte	0x10e
 3032 056e D6040000 		.4byte	0x4d6
 3033 0572 1C       		.byte	0x1c
 3034 0573 08       		.uleb128 0x8
 3035 0574 6C7200   		.ascii	"lr\000"
 3036 0577 08       		.byte	0x8
 3037 0578 0F01     		.2byte	0x10f
 3038 057a D6040000 		.4byte	0x4d6
 3039 057e 20       		.byte	0x20
 3040 057f 00       		.byte	0
 3041 0580 0A       		.uleb128 0xa
 3042 0581 04       		.byte	0x4
 3043 0582 05050000 		.4byte	0x505
 3044 0586 15       		.uleb128 0x15
 3045 0587 10       		.byte	0x10
 3046 0588 09       		.byte	0x9
 3047 0589 51       		.byte	0x51
 3048 058a BF050000 		.4byte	0x5bf
 3049 058e 07       		.uleb128 0x7
 3050 058f 120B0000 		.4byte	.LASF93
 3051 0593 09       		.byte	0x9
 3052 0594 55       		.byte	0x55
 3053 0595 4C010000 		.4byte	0x14c
 3054 0599 00       		.byte	0
 3055 059a 07       		.uleb128 0x7
 3056 059b 46010000 		.4byte	.LASF94
 3057 059f 09       		.byte	0x9
 3058 05a0 59       		.byte	0x59
 3059 05a1 73020000 		.4byte	0x273
 3060 05a5 04       		.byte	0x4
 3061 05a6 07       		.uleb128 0x7
 3062 05a7 AA050000 		.4byte	.LASF95
 3063 05ab 09       		.byte	0x9
 3064 05ac 5D       		.byte	0x5d
 3065 05ad 50030000 		.4byte	0x350
 3066 05b1 08       		.byte	0x8
 3067 05b2 07       		.uleb128 0x7
 3068 05b3 83040000 		.4byte	.LASF96
 3069 05b7 09       		.byte	0x9
 3070 05b8 61       		.byte	0x61
 3071 05b9 A2000000 		.4byte	0xa2
 3072 05bd 0C       		.byte	0xc
 3073 05be 00       		.byte	0
 3074 05bf 04       		.uleb128 0x4
 3075 05c0 1C050000 		.4byte	.LASF97
 3076 05c4 09       		.byte	0x9
ARM GAS  /var/folders/c6/c789hm653lg9vtl73krp73tm0000gn/T//cc3LgWEg.s 			page 107


 3077 05c5 62       		.byte	0x62
 3078 05c6 86050000 		.4byte	0x586
 3079 05ca 16       		.uleb128 0x16
 3080 05cb 0804     		.2byte	0x408
 3081 05cd 09       		.byte	0x9
 3082 05ce 67       		.byte	0x67
 3083 05cf F8050000 		.4byte	0x5f8
 3084 05d3 07       		.uleb128 0x7
 3085 05d4 82050000 		.4byte	.LASF98
 3086 05d8 09       		.byte	0x9
 3087 05d9 6B       		.byte	0x6b
 3088 05da 2C000000 		.4byte	0x2c
 3089 05de 00       		.byte	0
 3090 05df 07       		.uleb128 0x7
 3091 05e0 2D0B0000 		.4byte	.LASF99
 3092 05e4 09       		.byte	0x9
 3093 05e5 6F       		.byte	0x6f
 3094 05e6 F8050000 		.4byte	0x5f8
 3095 05ea 04       		.byte	0x4
 3096 05eb 07       		.uleb128 0x7
 3097 05ec 7B060000 		.4byte	.LASF100
 3098 05f0 09       		.byte	0x9
 3099 05f1 73       		.byte	0x73
 3100 05f2 FE050000 		.4byte	0x5fe
 3101 05f6 08       		.byte	0x8
 3102 05f7 00       		.byte	0
 3103 05f8 0A       		.uleb128 0xa
 3104 05f9 04       		.byte	0x4
 3105 05fa BF050000 		.4byte	0x5bf
 3106 05fe 12       		.uleb128 0x12
 3107 05ff BF050000 		.4byte	0x5bf
 3108 0603 0E060000 		.4byte	0x60e
 3109 0607 13       		.uleb128 0x13
 3110 0608 BF040000 		.4byte	0x4bf
 3111 060c 3F       		.byte	0x3f
 3112 060d 00       		.byte	0
 3113 060e 04       		.uleb128 0x4
 3114 060f F6030000 		.4byte	.LASF101
 3115 0613 09       		.byte	0x9
 3116 0614 74       		.byte	0x74
 3117 0615 CA050000 		.4byte	0x5ca
 3118 0619 15       		.uleb128 0x15
 3119 061a 04       		.byte	0x4
 3120 061b 0A       		.byte	0xa
 3121 061c 38       		.byte	0x38
 3122 061d 2E060000 		.4byte	0x62e
 3123 0621 07       		.uleb128 0x7
 3124 0622 74060000 		.4byte	.LASF102
 3125 0626 0A       		.byte	0xa
 3126 0627 3C       		.byte	0x3c
 3127 0628 DE000000 		.4byte	0xde
 3128 062c 00       		.byte	0
 3129 062d 00       		.byte	0
 3130 062e 04       		.uleb128 0x4
 3131 062f 37080000 		.4byte	.LASF103
 3132 0633 0A       		.byte	0xa
 3133 0634 3D       		.byte	0x3d
ARM GAS  /var/folders/c6/c789hm653lg9vtl73krp73tm0000gn/T//cc3LgWEg.s 			page 108


 3134 0635 19060000 		.4byte	0x619
 3135 0639 15       		.uleb128 0x15
 3136 063a 18       		.byte	0x18
 3137 063b 0A       		.byte	0xa
 3138 063c 48       		.byte	0x48
 3139 063d 7C060000 		.4byte	0x67c
 3140 0641 07       		.uleb128 0x7
 3141 0642 DF070000 		.4byte	.LASF104
 3142 0646 0A       		.byte	0xa
 3143 0647 49       		.byte	0x49
 3144 0648 DE000000 		.4byte	0xde
 3145 064c 00       		.byte	0
 3146 064d 07       		.uleb128 0x7
 3147 064e BD030000 		.4byte	.LASF105
 3148 0652 0A       		.byte	0xa
 3149 0653 4A       		.byte	0x4a
 3150 0654 DE000000 		.4byte	0xde
 3151 0658 04       		.byte	0x4
 3152 0659 07       		.uleb128 0x7
 3153 065a 3D0B0000 		.4byte	.LASF106
 3154 065e 0A       		.byte	0xa
 3155 065f 4B       		.byte	0x4b
 3156 0660 DE000000 		.4byte	0xde
 3157 0664 08       		.byte	0x8
 3158 0665 14       		.uleb128 0x14
 3159 0666 6E00     		.ascii	"n\000"
 3160 0668 0A       		.byte	0xa
 3161 0669 4C       		.byte	0x4c
 3162 066a 41010000 		.4byte	0x141
 3163 066e 0C       		.byte	0xc
 3164 066f 07       		.uleb128 0x7
 3165 0670 66020000 		.4byte	.LASF107
 3166 0674 0A       		.byte	0xa
 3167 0675 4D       		.byte	0x4d
 3168 0676 E9000000 		.4byte	0xe9
 3169 067a 10       		.byte	0x10
 3170 067b 00       		.byte	0
 3171 067c 04       		.uleb128 0x4
 3172 067d 4C010000 		.4byte	.LASF108
 3173 0681 0A       		.byte	0xa
 3174 0682 4E       		.byte	0x4e
 3175 0683 39060000 		.4byte	0x639
 3176 0687 15       		.uleb128 0x15
 3177 0688 38       		.byte	0x38
 3178 0689 0B       		.byte	0xb
 3179 068a 38       		.byte	0x38
 3180 068b C0060000 		.4byte	0x6c0
 3181 068f 07       		.uleb128 0x7
 3182 0690 2B050000 		.4byte	.LASF109
 3183 0694 0B       		.byte	0xb
 3184 0695 39       		.byte	0x39
 3185 0696 41010000 		.4byte	0x141
 3186 069a 00       		.byte	0
 3187 069b 07       		.uleb128 0x7
 3188 069c 7F030000 		.4byte	.LASF110
 3189 06a0 0B       		.byte	0xb
 3190 06a1 3A       		.byte	0x3a
ARM GAS  /var/folders/c6/c789hm653lg9vtl73krp73tm0000gn/T//cc3LgWEg.s 			page 109


 3191 06a2 41010000 		.4byte	0x141
 3192 06a6 04       		.byte	0x4
 3193 06a7 07       		.uleb128 0x7
 3194 06a8 93040000 		.4byte	.LASF111
 3195 06ac 0B       		.byte	0xb
 3196 06ad 3B       		.byte	0x3b
 3197 06ae 7C060000 		.4byte	0x67c
 3198 06b2 08       		.byte	0x8
 3199 06b3 07       		.uleb128 0x7
 3200 06b4 78040000 		.4byte	.LASF112
 3201 06b8 0B       		.byte	0xb
 3202 06b9 3D       		.byte	0x3d
 3203 06ba 7C060000 		.4byte	0x67c
 3204 06be 20       		.byte	0x20
 3205 06bf 00       		.byte	0
 3206 06c0 04       		.uleb128 0x4
 3207 06c1 1F060000 		.4byte	.LASF113
 3208 06c5 0B       		.byte	0xb
 3209 06c6 3F       		.byte	0x3f
 3210 06c7 87060000 		.4byte	0x687
 3211 06cb 17       		.uleb128 0x17
 3212 06cc 04       		.byte	0x4
 3213 06cd 06       		.byte	0x6
 3214 06ce FA       		.byte	0xfa
 3215 06cf 28070000 		.4byte	0x728
 3216 06d3 18       		.uleb128 0x18
 3217 06d4 6E0A0000 		.4byte	.LASF114
 3218 06d8 06       		.byte	0x6
 3219 06d9 0101     		.2byte	0x101
 3220 06db 20010000 		.4byte	0x120
 3221 06df 18       		.uleb128 0x18
 3222 06e0 A4010000 		.4byte	.LASF115
 3223 06e4 06       		.byte	0x6
 3224 06e5 0801     		.2byte	0x108
 3225 06e7 20010000 		.4byte	0x120
 3226 06eb 18       		.uleb128 0x18
 3227 06ec 78030000 		.4byte	.LASF116
 3228 06f0 06       		.byte	0x6
 3229 06f1 0F01     		.2byte	0x10f
 3230 06f3 50030000 		.4byte	0x350
 3231 06f7 18       		.uleb128 0x18
 3232 06f8 AC020000 		.4byte	.LASF117
 3233 06fc 06       		.byte	0x6
 3234 06fd 1601     		.2byte	0x116
 3235 06ff 28070000 		.4byte	0x728
 3236 0703 18       		.uleb128 0x18
 3237 0704 1F000000 		.4byte	.LASF118
 3238 0708 06       		.byte	0x6
 3239 0709 1E01     		.2byte	0x11e
 3240 070b 53070000 		.4byte	0x753
 3241 070f 18       		.uleb128 0x18
 3242 0710 13040000 		.4byte	.LASF119
 3243 0714 06       		.byte	0x6
 3244 0715 2701     		.2byte	0x127
 3245 0717 8A070000 		.4byte	0x78a
 3246 071b 18       		.uleb128 0x18
 3247 071c 7D020000 		.4byte	.LASF120
ARM GAS  /var/folders/c6/c789hm653lg9vtl73krp73tm0000gn/T//cc3LgWEg.s 			page 110


 3248 0720 06       		.byte	0x6
 3249 0721 2F01     		.2byte	0x12f
 3250 0723 2B010000 		.4byte	0x12b
 3251 0727 00       		.byte	0
 3252 0728 0A       		.uleb128 0xa
 3253 0729 04       		.byte	0x4
 3254 072a 68020000 		.4byte	0x268
 3255 072e 06       		.uleb128 0x6
 3256 072f BB040000 		.4byte	.LASF121
 3257 0733 0C       		.byte	0xc
 3258 0734 0C       		.byte	0xc
 3259 0735 34       		.byte	0x34
 3260 0736 53070000 		.4byte	0x753
 3261 073a 07       		.uleb128 0x7
 3262 073b 5A080000 		.4byte	.LASF122
 3263 073f 0C       		.byte	0xc
 3264 0740 35       		.byte	0x35
 3265 0741 9D020000 		.4byte	0x29d
 3266 0745 00       		.byte	0
 3267 0746 07       		.uleb128 0x7
 3268 0747 32070000 		.4byte	.LASF123
 3269 074b 0C       		.byte	0xc
 3270 074c 37       		.byte	0x37
 3271 074d 36010000 		.4byte	0x136
 3272 0751 08       		.byte	0x8
 3273 0752 00       		.byte	0
 3274 0753 0A       		.uleb128 0xa
 3275 0754 04       		.byte	0x4
 3276 0755 2E070000 		.4byte	0x72e
 3277 0759 06       		.uleb128 0x6
 3278 075a 84080000 		.4byte	.LASF124
 3279 075e 10       		.byte	0x10
 3280 075f 0D       		.byte	0xd
 3281 0760 39       		.byte	0x39
 3282 0761 8A070000 		.4byte	0x78a
 3283 0765 07       		.uleb128 0x7
 3284 0766 65050000 		.4byte	.LASF125
 3285 076a 0D       		.byte	0xd
 3286 076b 3A       		.byte	0x3a
 3287 076c 9D020000 		.4byte	0x29d
 3288 0770 00       		.byte	0
 3289 0771 07       		.uleb128 0x7
 3290 0772 90010000 		.4byte	.LASF126
 3291 0776 0D       		.byte	0xd
 3292 0777 3C       		.byte	0x3c
 3293 0778 73020000 		.4byte	0x273
 3294 077c 08       		.byte	0x8
 3295 077d 07       		.uleb128 0x7
 3296 077e 260B0000 		.4byte	.LASF127
 3297 0782 0D       		.byte	0xd
 3298 0783 3E       		.byte	0x3e
 3299 0784 CE070000 		.4byte	0x7ce
 3300 0788 0C       		.byte	0xc
 3301 0789 00       		.byte	0
 3302 078a 0A       		.uleb128 0xa
 3303 078b 04       		.byte	0x4
 3304 078c 59070000 		.4byte	0x759
ARM GAS  /var/folders/c6/c789hm653lg9vtl73krp73tm0000gn/T//cc3LgWEg.s 			page 111


 3305 0790 0A       		.uleb128 0xa
 3306 0791 04       		.byte	0x4
 3307 0792 96070000 		.4byte	0x796
 3308 0796 19       		.uleb128 0x19
 3309 0797 9B070000 		.4byte	0x79b
 3310 079b 03       		.uleb128 0x3
 3311 079c 01       		.byte	0x1
 3312 079d 08       		.byte	0x8
 3313 079e 12030000 		.4byte	.LASF128
 3314 07a2 0A       		.uleb128 0xa
 3315 07a3 04       		.byte	0x4
 3316 07a4 E1040000 		.4byte	0x4e1
 3317 07a8 0A       		.uleb128 0xa
 3318 07a9 04       		.byte	0x4
 3319 07aa 52030000 		.4byte	0x352
 3320 07ae 05       		.uleb128 0x5
 3321 07af 90070000 		.4byte	0x790
 3322 07b3 12       		.uleb128 0x12
 3323 07b4 E1040000 		.4byte	0x4e1
 3324 07b8 C3070000 		.4byte	0x7c3
 3325 07bc 13       		.uleb128 0x13
 3326 07bd BF040000 		.4byte	0x4bf
 3327 07c1 1E       		.byte	0x1e
 3328 07c2 00       		.byte	0
 3329 07c3 04       		.uleb128 0x4
 3330 07c4 1D090000 		.4byte	.LASF129
 3331 07c8 0D       		.byte	0xd
 3332 07c9 34       		.byte	0x34
 3333 07ca 59070000 		.4byte	0x759
 3334 07ce 0A       		.uleb128 0xa
 3335 07cf 04       		.byte	0x4
 3336 07d0 C3070000 		.4byte	0x7c3
 3337 07d4 0A       		.uleb128 0xa
 3338 07d5 04       		.byte	0x4
 3339 07d6 A2000000 		.4byte	0xa2
 3340 07da 0A       		.uleb128 0xa
 3341 07db 04       		.byte	0x4
 3342 07dc E0070000 		.4byte	0x7e0
 3343 07e0 19       		.uleb128 0x19
 3344 07e1 A2000000 		.4byte	0xa2
 3345 07e5 1A       		.uleb128 0x1a
 3346 07e6 01       		.byte	0x1
 3347 07e7 0E       		.byte	0xe
 3348 07e8 28       		.byte	0x28
 3349 07e9 24080000 		.4byte	0x824
 3350 07ed 1B       		.uleb128 0x1b
 3351 07ee F2020000 		.4byte	.LASF130
 3352 07f2 00       		.sleb128 0
 3353 07f3 1B       		.uleb128 0x1b
 3354 07f4 340B0000 		.4byte	.LASF131
 3355 07f8 01       		.sleb128 1
 3356 07f9 1B       		.uleb128 0x1b
 3357 07fa F3060000 		.4byte	.LASF132
 3358 07fe 02       		.sleb128 2
 3359 07ff 1B       		.uleb128 0x1b
 3360 0800 12070000 		.4byte	.LASF133
 3361 0804 03       		.sleb128 3
ARM GAS  /var/folders/c6/c789hm653lg9vtl73krp73tm0000gn/T//cc3LgWEg.s 			page 112


 3362 0805 1B       		.uleb128 0x1b
 3363 0806 BD080000 		.4byte	.LASF134
 3364 080a 04       		.sleb128 4
 3365 080b 1B       		.uleb128 0x1b
 3366 080c 6E030000 		.4byte	.LASF135
 3367 0810 05       		.sleb128 5
 3368 0811 1B       		.uleb128 0x1b
 3369 0812 55090000 		.4byte	.LASF136
 3370 0816 06       		.sleb128 6
 3371 0817 1B       		.uleb128 0x1b
 3372 0818 31050000 		.4byte	.LASF137
 3373 081c 07       		.sleb128 7
 3374 081d 1B       		.uleb128 0x1b
 3375 081e 45070000 		.4byte	.LASF138
 3376 0822 08       		.sleb128 8
 3377 0823 00       		.byte	0
 3378 0824 04       		.uleb128 0x4
 3379 0825 73000000 		.4byte	.LASF139
 3380 0829 0E       		.byte	0xe
 3381 082a 32       		.byte	0x32
 3382 082b E5070000 		.4byte	0x7e5
 3383 082f 15       		.uleb128 0x15
 3384 0830 08       		.byte	0x8
 3385 0831 0E       		.byte	0xe
 3386 0832 37       		.byte	0x37
 3387 0833 50080000 		.4byte	0x850
 3388 0837 07       		.uleb128 0x7
 3389 0838 28040000 		.4byte	.LASF140
 3390 083c 0E       		.byte	0xe
 3391 083d 38       		.byte	0x38
 3392 083e C3000000 		.4byte	0xc3
 3393 0842 00       		.byte	0
 3394 0843 07       		.uleb128 0x7
 3395 0844 F0050000 		.4byte	.LASF141
 3396 0848 0E       		.byte	0xe
 3397 0849 39       		.byte	0x39
 3398 084a C3000000 		.4byte	0xc3
 3399 084e 04       		.byte	0x4
 3400 084f 00       		.byte	0
 3401 0850 04       		.uleb128 0x4
 3402 0851 A2060000 		.4byte	.LASF142
 3403 0855 0E       		.byte	0xe
 3404 0856 3A       		.byte	0x3a
 3405 0857 2F080000 		.4byte	0x82f
 3406 085b 1C       		.uleb128 0x1c
 3407 085c 6A080000 		.4byte	0x86a
 3408 0860 6A080000 		.4byte	0x86a
 3409 0864 0D       		.uleb128 0xd
 3410 0865 50030000 		.4byte	0x350
 3411 0869 00       		.byte	0
 3412 086a 03       		.uleb128 0x3
 3413 086b 01       		.byte	0x1
 3414 086c 02       		.byte	0x2
 3415 086d 0C030000 		.4byte	.LASF143
 3416 0871 0A       		.uleb128 0xa
 3417 0872 04       		.byte	0x4
 3418 0873 5B080000 		.4byte	0x85b
ARM GAS  /var/folders/c6/c789hm653lg9vtl73krp73tm0000gn/T//cc3LgWEg.s 			page 113


 3419 0877 1C       		.uleb128 0x1c
 3420 0878 6A080000 		.4byte	0x86a
 3421 087c 95080000 		.4byte	0x895
 3422 0880 0D       		.uleb128 0xd
 3423 0881 50030000 		.4byte	0x350
 3424 0885 0D       		.uleb128 0xd
 3425 0886 C3000000 		.4byte	0xc3
 3426 088a 0D       		.uleb128 0xd
 3427 088b D4070000 		.4byte	0x7d4
 3428 088f 0D       		.uleb128 0xd
 3429 0890 C3000000 		.4byte	0xc3
 3430 0894 00       		.byte	0
 3431 0895 0A       		.uleb128 0xa
 3432 0896 04       		.byte	0x4
 3433 0897 77080000 		.4byte	0x877
 3434 089b 1C       		.uleb128 0x1c
 3435 089c 6A080000 		.4byte	0x86a
 3436 08a0 B9080000 		.4byte	0x8b9
 3437 08a4 0D       		.uleb128 0xd
 3438 08a5 50030000 		.4byte	0x350
 3439 08a9 0D       		.uleb128 0xd
 3440 08aa C3000000 		.4byte	0xc3
 3441 08ae 0D       		.uleb128 0xd
 3442 08af DA070000 		.4byte	0x7da
 3443 08b3 0D       		.uleb128 0xd
 3444 08b4 C3000000 		.4byte	0xc3
 3445 08b8 00       		.byte	0
 3446 08b9 0A       		.uleb128 0xa
 3447 08ba 04       		.byte	0x4
 3448 08bb 9B080000 		.4byte	0x89b
 3449 08bf 1C       		.uleb128 0x1c
 3450 08c0 6A080000 		.4byte	0x86a
 3451 08c4 D3080000 		.4byte	0x8d3
 3452 08c8 0D       		.uleb128 0xd
 3453 08c9 50030000 		.4byte	0x350
 3454 08cd 0D       		.uleb128 0xd
 3455 08ce D3080000 		.4byte	0x8d3
 3456 08d2 00       		.byte	0
 3457 08d3 0A       		.uleb128 0xa
 3458 08d4 04       		.byte	0x4
 3459 08d5 50080000 		.4byte	0x850
 3460 08d9 0A       		.uleb128 0xa
 3461 08da 04       		.byte	0x4
 3462 08db BF080000 		.4byte	0x8bf
 3463 08df 0B       		.uleb128 0xb
 3464 08e0 99080000 		.4byte	.LASF144
 3465 08e4 20       		.byte	0x20
 3466 08e5 0F       		.byte	0xf
 3467 08e6 1001     		.2byte	0x110
 3468 08e8 55090000 		.4byte	0x955
 3469 08ec 09       		.uleb128 0x9
 3470 08ed 3A010000 		.4byte	.LASF145
 3471 08f1 0F       		.byte	0xf
 3472 08f2 1101     		.2byte	0x111
 3473 08f4 71080000 		.4byte	0x871
 3474 08f8 00       		.byte	0
 3475 08f9 09       		.uleb128 0x9
ARM GAS  /var/folders/c6/c789hm653lg9vtl73krp73tm0000gn/T//cc3LgWEg.s 			page 114


 3476 08fa 4B020000 		.4byte	.LASF146
 3477 08fe 0F       		.byte	0xf
 3478 08ff 1101     		.2byte	0x111
 3479 0901 71080000 		.4byte	0x871
 3480 0905 04       		.byte	0x4
 3481 0906 09       		.uleb128 0x9
 3482 0907 5D050000 		.4byte	.LASF147
 3483 090b 0F       		.byte	0xf
 3484 090c 1101     		.2byte	0x111
 3485 090e 71080000 		.4byte	0x871
 3486 0912 08       		.byte	0x8
 3487 0913 09       		.uleb128 0x9
 3488 0914 07070000 		.4byte	.LASF148
 3489 0918 0F       		.byte	0xf
 3490 0919 1101     		.2byte	0x111
 3491 091b 71080000 		.4byte	0x871
 3492 091f 0C       		.byte	0xc
 3493 0920 09       		.uleb128 0x9
 3494 0921 BC050000 		.4byte	.LASF149
 3495 0925 0F       		.byte	0xf
 3496 0926 1101     		.2byte	0x111
 3497 0928 95080000 		.4byte	0x895
 3498 092c 10       		.byte	0x10
 3499 092d 09       		.uleb128 0x9
 3500 092e A9000000 		.4byte	.LASF150
 3501 0932 0F       		.byte	0xf
 3502 0933 1101     		.2byte	0x111
 3503 0935 B9080000 		.4byte	0x8b9
 3504 0939 14       		.byte	0x14
 3505 093a 09       		.uleb128 0x9
 3506 093b 7D050000 		.4byte	.LASF151
 3507 093f 0F       		.byte	0xf
 3508 0940 1101     		.2byte	0x111
 3509 0942 71080000 		.4byte	0x871
 3510 0946 18       		.byte	0x18
 3511 0947 09       		.uleb128 0x9
 3512 0948 36000000 		.4byte	.LASF152
 3513 094c 0F       		.byte	0xf
 3514 094d 1101     		.2byte	0x111
 3515 094f D9080000 		.4byte	0x8d9
 3516 0953 1C       		.byte	0x1c
 3517 0954 00       		.byte	0
 3518 0955 1D       		.uleb128 0x1d
 3519 0956 2C       		.byte	0x2c
 3520 0957 0F       		.byte	0xf
 3521 0958 1A01     		.2byte	0x11a
 3522 095a A0090000 		.4byte	0x9a0
 3523 095e 08       		.uleb128 0x8
 3524 095f 766D7400 		.ascii	"vmt\000"
 3525 0963 0F       		.byte	0xf
 3526 0964 1C01     		.2byte	0x11c
 3527 0966 A0090000 		.4byte	0x9a0
 3528 096a 00       		.byte	0
 3529 096b 09       		.uleb128 0x9
 3530 096c BD000000 		.4byte	.LASF153
 3531 0970 0F       		.byte	0xf
 3532 0971 1D01     		.2byte	0x11d
ARM GAS  /var/folders/c6/c789hm653lg9vtl73krp73tm0000gn/T//cc3LgWEg.s 			page 115


 3533 0973 24080000 		.4byte	0x824
 3534 0977 04       		.byte	0x4
 3535 0978 08       		.uleb128 0x8
 3536 0979 63696400 		.ascii	"cid\000"
 3537 097d 0F       		.byte	0xf
 3538 097e 1D01     		.2byte	0x11d
 3539 0980 C6040000 		.4byte	0x4c6
 3540 0984 08       		.byte	0x8
 3541 0985 08       		.uleb128 0x8
 3542 0986 63736400 		.ascii	"csd\000"
 3543 098a 0F       		.byte	0xf
 3544 098b 1D01     		.2byte	0x11d
 3545 098d C6040000 		.4byte	0x4c6
 3546 0991 18       		.byte	0x18
 3547 0992 09       		.uleb128 0x9
 3548 0993 53030000 		.4byte	.LASF154
 3549 0997 0F       		.byte	0xf
 3550 0998 1D01     		.2byte	0x11d
 3551 099a C3000000 		.4byte	0xc3
 3552 099e 28       		.byte	0x28
 3553 099f 00       		.byte	0
 3554 09a0 0A       		.uleb128 0xa
 3555 09a1 04       		.byte	0x4
 3556 09a2 A6090000 		.4byte	0x9a6
 3557 09a6 19       		.uleb128 0x19
 3558 09a7 DF080000 		.4byte	0x8df
 3559 09ab 1E       		.uleb128 0x1e
 3560 09ac EC080000 		.4byte	.LASF155
 3561 09b0 0F       		.byte	0xf
 3562 09b1 1E01     		.2byte	0x11e
 3563 09b3 55090000 		.4byte	0x955
 3564 09b7 1D       		.uleb128 0x1d
 3565 09b8 18       		.byte	0x18
 3566 09b9 0F       		.byte	0xf
 3567 09ba 2301     		.2byte	0x123
 3568 09bc 360A0000 		.4byte	0xa36
 3569 09c0 08       		.uleb128 0x8
 3570 09c1 6D696400 		.ascii	"mid\000"
 3571 09c5 0F       		.byte	0xf
 3572 09c6 2401     		.2byte	0x124
 3573 09c8 A2000000 		.4byte	0xa2
 3574 09cc 00       		.byte	0
 3575 09cd 08       		.uleb128 0x8
 3576 09ce 6F696400 		.ascii	"oid\000"
 3577 09d2 0F       		.byte	0xf
 3578 09d3 2501     		.2byte	0x125
 3579 09d5 AD000000 		.4byte	0xad
 3580 09d9 02       		.byte	0x2
 3581 09da 08       		.uleb128 0x8
 3582 09db 706E6D00 		.ascii	"pnm\000"
 3583 09df 0F       		.byte	0xf
 3584 09e0 2601     		.2byte	0x126
 3585 09e2 360A0000 		.4byte	0xa36
 3586 09e6 04       		.byte	0x4
 3587 09e7 09       		.uleb128 0x9
 3588 09e8 EC070000 		.4byte	.LASF156
 3589 09ec 0F       		.byte	0xf
ARM GAS  /var/folders/c6/c789hm653lg9vtl73krp73tm0000gn/T//cc3LgWEg.s 			page 116


 3590 09ed 2701     		.2byte	0x127
 3591 09ef A2000000 		.4byte	0xa2
 3592 09f3 09       		.byte	0x9
 3593 09f4 09       		.uleb128 0x9
 3594 09f5 7B010000 		.4byte	.LASF157
 3595 09f9 0F       		.byte	0xf
 3596 09fa 2801     		.2byte	0x128
 3597 09fc A2000000 		.4byte	0xa2
 3598 0a00 0A       		.byte	0xa
 3599 0a01 08       		.uleb128 0x8
 3600 0a02 70736E00 		.ascii	"psn\000"
 3601 0a06 0F       		.byte	0xf
 3602 0a07 2901     		.2byte	0x129
 3603 0a09 C3000000 		.4byte	0xc3
 3604 0a0d 0C       		.byte	0xc
 3605 0a0e 09       		.uleb128 0x9
 3606 0a0f D3070000 		.4byte	.LASF158
 3607 0a13 0F       		.byte	0xf
 3608 0a14 2A01     		.2byte	0x12a
 3609 0a16 A2000000 		.4byte	0xa2
 3610 0a1a 10       		.byte	0x10
 3611 0a1b 09       		.uleb128 0x9
 3612 0a1c D9070000 		.4byte	.LASF159
 3613 0a20 0F       		.byte	0xf
 3614 0a21 2B01     		.2byte	0x12b
 3615 0a23 AD000000 		.4byte	0xad
 3616 0a27 12       		.byte	0x12
 3617 0a28 08       		.uleb128 0x8
 3618 0a29 63726300 		.ascii	"crc\000"
 3619 0a2d 0F       		.byte	0xf
 3620 0a2e 2C01     		.2byte	0x12c
 3621 0a30 A2000000 		.4byte	0xa2
 3622 0a34 14       		.byte	0x14
 3623 0a35 00       		.byte	0
 3624 0a36 12       		.uleb128 0x12
 3625 0a37 9B070000 		.4byte	0x79b
 3626 0a3b 460A0000 		.4byte	0xa46
 3627 0a3f 13       		.uleb128 0x13
 3628 0a40 BF040000 		.4byte	0x4bf
 3629 0a44 04       		.byte	0x4
 3630 0a45 00       		.byte	0
 3631 0a46 1E       		.uleb128 0x1e
 3632 0a47 D0050000 		.4byte	.LASF160
 3633 0a4b 0F       		.byte	0xf
 3634 0a4c 2D01     		.2byte	0x12d
 3635 0a4e B7090000 		.4byte	0x9b7
 3636 0a52 1D       		.uleb128 0x1d
 3637 0a53 18       		.byte	0x18
 3638 0a54 0F       		.byte	0xf
 3639 0a55 3201     		.2byte	0x132
 3640 0a57 D10A0000 		.4byte	0xad1
 3641 0a5b 08       		.uleb128 0x8
 3642 0a5c 6D696400 		.ascii	"mid\000"
 3643 0a60 0F       		.byte	0xf
 3644 0a61 3301     		.2byte	0x133
 3645 0a63 A2000000 		.4byte	0xa2
 3646 0a67 00       		.byte	0
ARM GAS  /var/folders/c6/c789hm653lg9vtl73krp73tm0000gn/T//cc3LgWEg.s 			page 117


 3647 0a68 08       		.uleb128 0x8
 3648 0a69 6F696400 		.ascii	"oid\000"
 3649 0a6d 0F       		.byte	0xf
 3650 0a6e 3401     		.2byte	0x134
 3651 0a70 AD000000 		.4byte	0xad
 3652 0a74 02       		.byte	0x2
 3653 0a75 08       		.uleb128 0x8
 3654 0a76 706E6D00 		.ascii	"pnm\000"
 3655 0a7a 0F       		.byte	0xf
 3656 0a7b 3501     		.2byte	0x135
 3657 0a7d D10A0000 		.4byte	0xad1
 3658 0a81 04       		.byte	0x4
 3659 0a82 09       		.uleb128 0x9
 3660 0a83 EC070000 		.4byte	.LASF156
 3661 0a87 0F       		.byte	0xf
 3662 0a88 3601     		.2byte	0x136
 3663 0a8a A2000000 		.4byte	0xa2
 3664 0a8e 0A       		.byte	0xa
 3665 0a8f 09       		.uleb128 0x9
 3666 0a90 7B010000 		.4byte	.LASF157
 3667 0a94 0F       		.byte	0xf
 3668 0a95 3701     		.2byte	0x137
 3669 0a97 A2000000 		.4byte	0xa2
 3670 0a9b 0B       		.byte	0xb
 3671 0a9c 08       		.uleb128 0x8
 3672 0a9d 70736E00 		.ascii	"psn\000"
 3673 0aa1 0F       		.byte	0xf
 3674 0aa2 3801     		.2byte	0x138
 3675 0aa4 C3000000 		.4byte	0xc3
 3676 0aa8 0C       		.byte	0xc
 3677 0aa9 09       		.uleb128 0x9
 3678 0aaa D3070000 		.4byte	.LASF158
 3679 0aae 0F       		.byte	0xf
 3680 0aaf 3901     		.2byte	0x139
 3681 0ab1 A2000000 		.4byte	0xa2
 3682 0ab5 10       		.byte	0x10
 3683 0ab6 09       		.uleb128 0x9
 3684 0ab7 D9070000 		.4byte	.LASF159
 3685 0abb 0F       		.byte	0xf
 3686 0abc 3A01     		.2byte	0x13a
 3687 0abe AD000000 		.4byte	0xad
 3688 0ac2 12       		.byte	0x12
 3689 0ac3 08       		.uleb128 0x8
 3690 0ac4 63726300 		.ascii	"crc\000"
 3691 0ac8 0F       		.byte	0xf
 3692 0ac9 3B01     		.2byte	0x13b
 3693 0acb A2000000 		.4byte	0xa2
 3694 0acf 14       		.byte	0x14
 3695 0ad0 00       		.byte	0
 3696 0ad1 12       		.uleb128 0x12
 3697 0ad2 9B070000 		.4byte	0x79b
 3698 0ad6 E10A0000 		.4byte	0xae1
 3699 0ada 13       		.uleb128 0x13
 3700 0adb BF040000 		.4byte	0x4bf
 3701 0adf 05       		.byte	0x5
 3702 0ae0 00       		.byte	0
 3703 0ae1 1E       		.uleb128 0x1e
ARM GAS  /var/folders/c6/c789hm653lg9vtl73krp73tm0000gn/T//cc3LgWEg.s 			page 118


 3704 0ae2 40030000 		.4byte	.LASF161
 3705 0ae6 0F       		.byte	0xf
 3706 0ae7 3C01     		.2byte	0x13c
 3707 0ae9 520A0000 		.4byte	0xa52
 3708 0aed 1D       		.uleb128 0x1d
 3709 0aee 20       		.byte	0x20
 3710 0aef 0F       		.byte	0xf
 3711 0af0 4101     		.2byte	0x141
 3712 0af2 700C0000 		.4byte	0xc70
 3713 0af6 09       		.uleb128 0x9
 3714 0af7 B2060000 		.4byte	.LASF162
 3715 0afb 0F       		.byte	0xf
 3716 0afc 4201     		.2byte	0x142
 3717 0afe A2000000 		.4byte	0xa2
 3718 0b02 00       		.byte	0
 3719 0b03 09       		.uleb128 0x9
 3720 0b04 F2070000 		.4byte	.LASF163
 3721 0b08 0F       		.byte	0xf
 3722 0b09 4301     		.2byte	0x143
 3723 0b0b A2000000 		.4byte	0xa2
 3724 0b0f 01       		.byte	0x1
 3725 0b10 09       		.uleb128 0x9
 3726 0b11 58000000 		.4byte	.LASF164
 3727 0b15 0F       		.byte	0xf
 3728 0b16 4401     		.2byte	0x144
 3729 0b18 A2000000 		.4byte	0xa2
 3730 0b1c 02       		.byte	0x2
 3731 0b1d 09       		.uleb128 0x9
 3732 0b1e 87000000 		.4byte	.LASF165
 3733 0b22 0F       		.byte	0xf
 3734 0b23 4501     		.2byte	0x145
 3735 0b25 A2000000 		.4byte	0xa2
 3736 0b29 03       		.byte	0x3
 3737 0b2a 08       		.uleb128 0x8
 3738 0b2b 63636300 		.ascii	"ccc\000"
 3739 0b2f 0F       		.byte	0xf
 3740 0b30 4601     		.2byte	0x146
 3741 0b32 AD000000 		.4byte	0xad
 3742 0b36 04       		.byte	0x4
 3743 0b37 09       		.uleb128 0x9
 3744 0b38 8C020000 		.4byte	.LASF166
 3745 0b3c 0F       		.byte	0xf
 3746 0b3d 4701     		.2byte	0x147
 3747 0b3f A2000000 		.4byte	0xa2
 3748 0b43 06       		.byte	0x6
 3749 0b44 09       		.uleb128 0x9
 3750 0b45 F8050000 		.4byte	.LASF167
 3751 0b49 0F       		.byte	0xf
 3752 0b4a 4801     		.2byte	0x148
 3753 0b4c A2000000 		.4byte	0xa2
 3754 0b50 07       		.byte	0x7
 3755 0b51 09       		.uleb128 0x9
 3756 0b52 31040000 		.4byte	.LASF168
 3757 0b56 0F       		.byte	0xf
 3758 0b57 4901     		.2byte	0x149
 3759 0b59 A2000000 		.4byte	0xa2
 3760 0b5d 08       		.byte	0x8
ARM GAS  /var/folders/c6/c789hm653lg9vtl73krp73tm0000gn/T//cc3LgWEg.s 			page 119


 3761 0b5e 09       		.uleb128 0x9
 3762 0b5f 48080000 		.4byte	.LASF169
 3763 0b63 0F       		.byte	0xf
 3764 0b64 4A01     		.2byte	0x14a
 3765 0b66 A2000000 		.4byte	0xa2
 3766 0b6a 09       		.byte	0x9
 3767 0b6b 09       		.uleb128 0x9
 3768 0b6c 17030000 		.4byte	.LASF170
 3769 0b70 0F       		.byte	0xf
 3770 0b71 4B01     		.2byte	0x14b
 3771 0b73 A2000000 		.4byte	0xa2
 3772 0b77 0A       		.byte	0xa
 3773 0b78 09       		.uleb128 0x9
 3774 0b79 D6020000 		.4byte	.LASF171
 3775 0b7d 0F       		.byte	0xf
 3776 0b7e 4C01     		.2byte	0x14c
 3777 0b80 AD000000 		.4byte	0xad
 3778 0b84 0C       		.byte	0xc
 3779 0b85 09       		.uleb128 0x9
 3780 0b86 2E060000 		.4byte	.LASF172
 3781 0b8a 0F       		.byte	0xf
 3782 0b8b 4D01     		.2byte	0x14d
 3783 0b8d A2000000 		.4byte	0xa2
 3784 0b91 0E       		.byte	0xe
 3785 0b92 09       		.uleb128 0x9
 3786 0b93 81010000 		.4byte	.LASF173
 3787 0b97 0F       		.byte	0xf
 3788 0b98 4E01     		.2byte	0x14e
 3789 0b9a A2000000 		.4byte	0xa2
 3790 0b9e 0F       		.byte	0xf
 3791 0b9f 09       		.uleb128 0x9
 3792 0ba0 CB010000 		.4byte	.LASF174
 3793 0ba4 0F       		.byte	0xf
 3794 0ba5 4F01     		.2byte	0x14f
 3795 0ba7 A2000000 		.4byte	0xa2
 3796 0bab 10       		.byte	0x10
 3797 0bac 09       		.uleb128 0x9
 3798 0bad 2D090000 		.4byte	.LASF175
 3799 0bb1 0F       		.byte	0xf
 3800 0bb2 5001     		.2byte	0x150
 3801 0bb4 A2000000 		.4byte	0xa2
 3802 0bb8 11       		.byte	0x11
 3803 0bb9 09       		.uleb128 0x9
 3804 0bba 08080000 		.4byte	.LASF176
 3805 0bbe 0F       		.byte	0xf
 3806 0bbf 5101     		.2byte	0x151
 3807 0bc1 A2000000 		.4byte	0xa2
 3808 0bc5 12       		.byte	0x12
 3809 0bc6 09       		.uleb128 0x9
 3810 0bc7 22080000 		.4byte	.LASF177
 3811 0bcb 0F       		.byte	0xf
 3812 0bcc 5201     		.2byte	0x152
 3813 0bce A2000000 		.4byte	0xa2
 3814 0bd2 13       		.byte	0x13
 3815 0bd3 09       		.uleb128 0x9
 3816 0bd4 D6030000 		.4byte	.LASF178
 3817 0bd8 0F       		.byte	0xf
ARM GAS  /var/folders/c6/c789hm653lg9vtl73krp73tm0000gn/T//cc3LgWEg.s 			page 120


 3818 0bd9 5301     		.2byte	0x153
 3819 0bdb A2000000 		.4byte	0xa2
 3820 0bdf 14       		.byte	0x14
 3821 0be0 09       		.uleb128 0x9
 3822 0be1 96060000 		.4byte	.LASF179
 3823 0be5 0F       		.byte	0xf
 3824 0be6 5401     		.2byte	0x154
 3825 0be8 A2000000 		.4byte	0xa2
 3826 0bec 15       		.byte	0x15
 3827 0bed 09       		.uleb128 0x9
 3828 0bee BD010000 		.4byte	.LASF180
 3829 0bf2 0F       		.byte	0xf
 3830 0bf3 5501     		.2byte	0x155
 3831 0bf5 A2000000 		.4byte	0xa2
 3832 0bf9 16       		.byte	0x16
 3833 0bfa 09       		.uleb128 0x9
 3834 0bfb 51070000 		.4byte	.LASF181
 3835 0bff 0F       		.byte	0xf
 3836 0c00 5601     		.2byte	0x156
 3837 0c02 A2000000 		.4byte	0xa2
 3838 0c06 17       		.byte	0x17
 3839 0c07 09       		.uleb128 0x9
 3840 0c08 67060000 		.4byte	.LASF182
 3841 0c0c 0F       		.byte	0xf
 3842 0c0d 5701     		.2byte	0x157
 3843 0c0f A2000000 		.4byte	0xa2
 3844 0c13 18       		.byte	0x18
 3845 0c14 09       		.uleb128 0x9
 3846 0c15 F2010000 		.4byte	.LASF183
 3847 0c19 0F       		.byte	0xf
 3848 0c1a 5801     		.2byte	0x158
 3849 0c1c A2000000 		.4byte	0xa2
 3850 0c20 19       		.byte	0x19
 3851 0c21 09       		.uleb128 0x9
 3852 0c22 AD080000 		.4byte	.LASF184
 3853 0c26 0F       		.byte	0xf
 3854 0c27 5901     		.2byte	0x159
 3855 0c29 A2000000 		.4byte	0xa2
 3856 0c2d 1A       		.byte	0x1a
 3857 0c2e 09       		.uleb128 0x9
 3858 0c2f 36020000 		.4byte	.LASF185
 3859 0c33 0F       		.byte	0xf
 3860 0c34 5A01     		.2byte	0x15a
 3861 0c36 A2000000 		.4byte	0xa2
 3862 0c3a 1B       		.byte	0x1b
 3863 0c3b 09       		.uleb128 0x9
 3864 0c3c 7B070000 		.4byte	.LASF186
 3865 0c40 0F       		.byte	0xf
 3866 0c41 5B01     		.2byte	0x15b
 3867 0c43 A2000000 		.4byte	0xa2
 3868 0c47 1C       		.byte	0x1c
 3869 0c48 09       		.uleb128 0x9
 3870 0c49 28010000 		.4byte	.LASF187
 3871 0c4d 0F       		.byte	0xf
 3872 0c4e 5C01     		.2byte	0x15c
 3873 0c50 A2000000 		.4byte	0xa2
 3874 0c54 1D       		.byte	0x1d
ARM GAS  /var/folders/c6/c789hm653lg9vtl73krp73tm0000gn/T//cc3LgWEg.s 			page 121


 3875 0c55 09       		.uleb128 0x9
 3876 0c56 8D080000 		.4byte	.LASF188
 3877 0c5a 0F       		.byte	0xf
 3878 0c5b 5D01     		.2byte	0x15d
 3879 0c5d A2000000 		.4byte	0xa2
 3880 0c61 1E       		.byte	0x1e
 3881 0c62 08       		.uleb128 0x8
 3882 0c63 63726300 		.ascii	"crc\000"
 3883 0c67 0F       		.byte	0xf
 3884 0c68 5E01     		.2byte	0x15e
 3885 0c6a A2000000 		.4byte	0xa2
 3886 0c6e 1F       		.byte	0x1f
 3887 0c6f 00       		.byte	0
 3888 0c70 1E       		.uleb128 0x1e
 3889 0c71 62040000 		.4byte	.LASF189
 3890 0c75 0F       		.byte	0xf
 3891 0c76 5F01     		.2byte	0x15f
 3892 0c78 ED0A0000 		.4byte	0xaed
 3893 0c7c 1D       		.uleb128 0x1d
 3894 0c7d 20       		.byte	0x20
 3895 0c7e 0F       		.byte	0xf
 3896 0c7f 6401     		.2byte	0x164
 3897 0c81 BE0D0000 		.4byte	0xdbe
 3898 0c85 09       		.uleb128 0x9
 3899 0c86 B2060000 		.4byte	.LASF162
 3900 0c8a 0F       		.byte	0xf
 3901 0c8b 6501     		.2byte	0x165
 3902 0c8d A2000000 		.4byte	0xa2
 3903 0c91 00       		.byte	0
 3904 0c92 09       		.uleb128 0x9
 3905 0c93 F2070000 		.4byte	.LASF163
 3906 0c97 0F       		.byte	0xf
 3907 0c98 6601     		.2byte	0x166
 3908 0c9a A2000000 		.4byte	0xa2
 3909 0c9e 01       		.byte	0x1
 3910 0c9f 09       		.uleb128 0x9
 3911 0ca0 58000000 		.4byte	.LASF164
 3912 0ca4 0F       		.byte	0xf
 3913 0ca5 6701     		.2byte	0x167
 3914 0ca7 A2000000 		.4byte	0xa2
 3915 0cab 02       		.byte	0x2
 3916 0cac 09       		.uleb128 0x9
 3917 0cad 87000000 		.4byte	.LASF165
 3918 0cb1 0F       		.byte	0xf
 3919 0cb2 6801     		.2byte	0x168
 3920 0cb4 A2000000 		.4byte	0xa2
 3921 0cb8 03       		.byte	0x3
 3922 0cb9 08       		.uleb128 0x8
 3923 0cba 63636300 		.ascii	"ccc\000"
 3924 0cbe 0F       		.byte	0xf
 3925 0cbf 6901     		.2byte	0x169
 3926 0cc1 AD000000 		.4byte	0xad
 3927 0cc5 04       		.byte	0x4
 3928 0cc6 09       		.uleb128 0x9
 3929 0cc7 8C020000 		.4byte	.LASF166
 3930 0ccb 0F       		.byte	0xf
 3931 0ccc 6A01     		.2byte	0x16a
ARM GAS  /var/folders/c6/c789hm653lg9vtl73krp73tm0000gn/T//cc3LgWEg.s 			page 122


 3932 0cce A2000000 		.4byte	0xa2
 3933 0cd2 06       		.byte	0x6
 3934 0cd3 09       		.uleb128 0x9
 3935 0cd4 F8050000 		.4byte	.LASF167
 3936 0cd8 0F       		.byte	0xf
 3937 0cd9 6B01     		.2byte	0x16b
 3938 0cdb A2000000 		.4byte	0xa2
 3939 0cdf 07       		.byte	0x7
 3940 0ce0 09       		.uleb128 0x9
 3941 0ce1 31040000 		.4byte	.LASF168
 3942 0ce5 0F       		.byte	0xf
 3943 0ce6 6C01     		.2byte	0x16c
 3944 0ce8 A2000000 		.4byte	0xa2
 3945 0cec 08       		.byte	0x8
 3946 0ced 09       		.uleb128 0x9
 3947 0cee 48080000 		.4byte	.LASF169
 3948 0cf2 0F       		.byte	0xf
 3949 0cf3 6D01     		.2byte	0x16d
 3950 0cf5 A2000000 		.4byte	0xa2
 3951 0cf9 09       		.byte	0x9
 3952 0cfa 09       		.uleb128 0x9
 3953 0cfb 17030000 		.4byte	.LASF170
 3954 0cff 0F       		.byte	0xf
 3955 0d00 6E01     		.2byte	0x16e
 3956 0d02 A2000000 		.4byte	0xa2
 3957 0d06 0A       		.byte	0xa
 3958 0d07 09       		.uleb128 0x9
 3959 0d08 D6020000 		.4byte	.LASF171
 3960 0d0c 0F       		.byte	0xf
 3961 0d0d 6F01     		.2byte	0x16f
 3962 0d0f C3000000 		.4byte	0xc3
 3963 0d13 0C       		.byte	0xc
 3964 0d14 09       		.uleb128 0x9
 3965 0d15 22080000 		.4byte	.LASF177
 3966 0d19 0F       		.byte	0xf
 3967 0d1a 7001     		.2byte	0x170
 3968 0d1c A2000000 		.4byte	0xa2
 3969 0d20 10       		.byte	0x10
 3970 0d21 09       		.uleb128 0x9
 3971 0d22 D6030000 		.4byte	.LASF178
 3972 0d26 0F       		.byte	0xf
 3973 0d27 7101     		.2byte	0x171
 3974 0d29 A2000000 		.4byte	0xa2
 3975 0d2d 11       		.byte	0x11
 3976 0d2e 09       		.uleb128 0x9
 3977 0d2f 96060000 		.4byte	.LASF179
 3978 0d33 0F       		.byte	0xf
 3979 0d34 7201     		.2byte	0x172
 3980 0d36 A2000000 		.4byte	0xa2
 3981 0d3a 12       		.byte	0x12
 3982 0d3b 09       		.uleb128 0x9
 3983 0d3c BD010000 		.4byte	.LASF180
 3984 0d40 0F       		.byte	0xf
 3985 0d41 7301     		.2byte	0x173
 3986 0d43 A2000000 		.4byte	0xa2
 3987 0d47 13       		.byte	0x13
 3988 0d48 09       		.uleb128 0x9
ARM GAS  /var/folders/c6/c789hm653lg9vtl73krp73tm0000gn/T//cc3LgWEg.s 			page 123


 3989 0d49 51070000 		.4byte	.LASF181
 3990 0d4d 0F       		.byte	0xf
 3991 0d4e 7401     		.2byte	0x174
 3992 0d50 A2000000 		.4byte	0xa2
 3993 0d54 14       		.byte	0x14
 3994 0d55 09       		.uleb128 0x9
 3995 0d56 67060000 		.4byte	.LASF182
 3996 0d5a 0F       		.byte	0xf
 3997 0d5b 7501     		.2byte	0x175
 3998 0d5d A2000000 		.4byte	0xa2
 3999 0d61 15       		.byte	0x15
 4000 0d62 09       		.uleb128 0x9
 4001 0d63 F2010000 		.4byte	.LASF183
 4002 0d67 0F       		.byte	0xf
 4003 0d68 7601     		.2byte	0x176
 4004 0d6a A2000000 		.4byte	0xa2
 4005 0d6e 16       		.byte	0x16
 4006 0d6f 09       		.uleb128 0x9
 4007 0d70 AD080000 		.4byte	.LASF184
 4008 0d74 0F       		.byte	0xf
 4009 0d75 7701     		.2byte	0x177
 4010 0d77 A2000000 		.4byte	0xa2
 4011 0d7b 17       		.byte	0x17
 4012 0d7c 09       		.uleb128 0x9
 4013 0d7d 36020000 		.4byte	.LASF185
 4014 0d81 0F       		.byte	0xf
 4015 0d82 7801     		.2byte	0x178
 4016 0d84 A2000000 		.4byte	0xa2
 4017 0d88 18       		.byte	0x18
 4018 0d89 09       		.uleb128 0x9
 4019 0d8a 7B070000 		.4byte	.LASF186
 4020 0d8e 0F       		.byte	0xf
 4021 0d8f 7901     		.2byte	0x179
 4022 0d91 A2000000 		.4byte	0xa2
 4023 0d95 19       		.byte	0x19
 4024 0d96 09       		.uleb128 0x9
 4025 0d97 28010000 		.4byte	.LASF187
 4026 0d9b 0F       		.byte	0xf
 4027 0d9c 7A01     		.2byte	0x17a
 4028 0d9e A2000000 		.4byte	0xa2
 4029 0da2 1A       		.byte	0x1a
 4030 0da3 09       		.uleb128 0x9
 4031 0da4 8D080000 		.4byte	.LASF188
 4032 0da8 0F       		.byte	0xf
 4033 0da9 7B01     		.2byte	0x17b
 4034 0dab A2000000 		.4byte	0xa2
 4035 0daf 1B       		.byte	0x1b
 4036 0db0 08       		.uleb128 0x8
 4037 0db1 63726300 		.ascii	"crc\000"
 4038 0db5 0F       		.byte	0xf
 4039 0db6 7C01     		.2byte	0x17c
 4040 0db8 A2000000 		.4byte	0xa2
 4041 0dbc 1C       		.byte	0x1c
 4042 0dbd 00       		.byte	0
 4043 0dbe 1E       		.uleb128 0x1e
 4044 0dbf C00A0000 		.4byte	.LASF190
 4045 0dc3 0F       		.byte	0xf
ARM GAS  /var/folders/c6/c789hm653lg9vtl73krp73tm0000gn/T//cc3LgWEg.s 			page 124


 4046 0dc4 7D01     		.2byte	0x17d
 4047 0dc6 7C0C0000 		.4byte	0xc7c
 4048 0dca 1D       		.uleb128 0x1d
 4049 0dcb 26       		.byte	0x26
 4050 0dcc 0F       		.byte	0xf
 4051 0dcd 8201     		.2byte	0x182
 4052 0dcf 810F0000 		.4byte	0xf81
 4053 0dd3 09       		.uleb128 0x9
 4054 0dd4 B2060000 		.4byte	.LASF162
 4055 0dd8 0F       		.byte	0xf
 4056 0dd9 8301     		.2byte	0x183
 4057 0ddb A2000000 		.4byte	0xa2
 4058 0ddf 00       		.byte	0
 4059 0de0 09       		.uleb128 0x9
 4060 0de1 B3030000 		.4byte	.LASF191
 4061 0de5 0F       		.byte	0xf
 4062 0de6 8401     		.2byte	0x184
 4063 0de8 A2000000 		.4byte	0xa2
 4064 0dec 01       		.byte	0x1
 4065 0ded 09       		.uleb128 0x9
 4066 0dee F2070000 		.4byte	.LASF163
 4067 0df2 0F       		.byte	0xf
 4068 0df3 8501     		.2byte	0x185
 4069 0df5 A2000000 		.4byte	0xa2
 4070 0df9 02       		.byte	0x2
 4071 0dfa 09       		.uleb128 0x9
 4072 0dfb 58000000 		.4byte	.LASF164
 4073 0dff 0F       		.byte	0xf
 4074 0e00 8601     		.2byte	0x186
 4075 0e02 A2000000 		.4byte	0xa2
 4076 0e06 03       		.byte	0x3
 4077 0e07 09       		.uleb128 0x9
 4078 0e08 87000000 		.4byte	.LASF165
 4079 0e0c 0F       		.byte	0xf
 4080 0e0d 8701     		.2byte	0x187
 4081 0e0f A2000000 		.4byte	0xa2
 4082 0e13 04       		.byte	0x4
 4083 0e14 08       		.uleb128 0x8
 4084 0e15 63636300 		.ascii	"ccc\000"
 4085 0e19 0F       		.byte	0xf
 4086 0e1a 8801     		.2byte	0x188
 4087 0e1c AD000000 		.4byte	0xad
 4088 0e20 06       		.byte	0x6
 4089 0e21 09       		.uleb128 0x9
 4090 0e22 8C020000 		.4byte	.LASF166
 4091 0e26 0F       		.byte	0xf
 4092 0e27 8901     		.2byte	0x189
 4093 0e29 A2000000 		.4byte	0xa2
 4094 0e2d 08       		.byte	0x8
 4095 0e2e 09       		.uleb128 0x9
 4096 0e2f F8050000 		.4byte	.LASF167
 4097 0e33 0F       		.byte	0xf
 4098 0e34 8A01     		.2byte	0x18a
 4099 0e36 A2000000 		.4byte	0xa2
 4100 0e3a 09       		.byte	0x9
 4101 0e3b 09       		.uleb128 0x9
 4102 0e3c 31040000 		.4byte	.LASF168
ARM GAS  /var/folders/c6/c789hm653lg9vtl73krp73tm0000gn/T//cc3LgWEg.s 			page 125


 4103 0e40 0F       		.byte	0xf
 4104 0e41 8B01     		.2byte	0x18b
 4105 0e43 A2000000 		.4byte	0xa2
 4106 0e47 0A       		.byte	0xa
 4107 0e48 09       		.uleb128 0x9
 4108 0e49 48080000 		.4byte	.LASF169
 4109 0e4d 0F       		.byte	0xf
 4110 0e4e 8C01     		.2byte	0x18c
 4111 0e50 A2000000 		.4byte	0xa2
 4112 0e54 0B       		.byte	0xb
 4113 0e55 09       		.uleb128 0x9
 4114 0e56 17030000 		.4byte	.LASF170
 4115 0e5a 0F       		.byte	0xf
 4116 0e5b 8D01     		.2byte	0x18d
 4117 0e5d A2000000 		.4byte	0xa2
 4118 0e61 0C       		.byte	0xc
 4119 0e62 09       		.uleb128 0x9
 4120 0e63 D6020000 		.4byte	.LASF171
 4121 0e67 0F       		.byte	0xf
 4122 0e68 8E01     		.2byte	0x18e
 4123 0e6a AD000000 		.4byte	0xad
 4124 0e6e 0E       		.byte	0xe
 4125 0e6f 09       		.uleb128 0x9
 4126 0e70 2E060000 		.4byte	.LASF172
 4127 0e74 0F       		.byte	0xf
 4128 0e75 8F01     		.2byte	0x18f
 4129 0e77 A2000000 		.4byte	0xa2
 4130 0e7b 10       		.byte	0x10
 4131 0e7c 09       		.uleb128 0x9
 4132 0e7d 81010000 		.4byte	.LASF173
 4133 0e81 0F       		.byte	0xf
 4134 0e82 9001     		.2byte	0x190
 4135 0e84 A2000000 		.4byte	0xa2
 4136 0e88 11       		.byte	0x11
 4137 0e89 09       		.uleb128 0x9
 4138 0e8a CB010000 		.4byte	.LASF174
 4139 0e8e 0F       		.byte	0xf
 4140 0e8f 9101     		.2byte	0x191
 4141 0e91 A2000000 		.4byte	0xa2
 4142 0e95 12       		.byte	0x12
 4143 0e96 09       		.uleb128 0x9
 4144 0e97 2D090000 		.4byte	.LASF175
 4145 0e9b 0F       		.byte	0xf
 4146 0e9c 9201     		.2byte	0x192
 4147 0e9e A2000000 		.4byte	0xa2
 4148 0ea2 13       		.byte	0x13
 4149 0ea3 09       		.uleb128 0x9
 4150 0ea4 08080000 		.4byte	.LASF176
 4151 0ea8 0F       		.byte	0xf
 4152 0ea9 9301     		.2byte	0x193
 4153 0eab A2000000 		.4byte	0xa2
 4154 0eaf 14       		.byte	0x14
 4155 0eb0 09       		.uleb128 0x9
 4156 0eb1 04090000 		.4byte	.LASF192
 4157 0eb5 0F       		.byte	0xf
 4158 0eb6 9401     		.2byte	0x194
 4159 0eb8 A2000000 		.4byte	0xa2
ARM GAS  /var/folders/c6/c789hm653lg9vtl73krp73tm0000gn/T//cc3LgWEg.s 			page 126


 4160 0ebc 15       		.byte	0x15
 4161 0ebd 09       		.uleb128 0x9
 4162 0ebe 62080000 		.4byte	.LASF193
 4163 0ec2 0F       		.byte	0xf
 4164 0ec3 9501     		.2byte	0x195
 4165 0ec5 A2000000 		.4byte	0xa2
 4166 0ec9 16       		.byte	0x16
 4167 0eca 09       		.uleb128 0x9
 4168 0ecb 96060000 		.4byte	.LASF179
 4169 0ecf 0F       		.byte	0xf
 4170 0ed0 9601     		.2byte	0x196
 4171 0ed2 A2000000 		.4byte	0xa2
 4172 0ed6 17       		.byte	0x17
 4173 0ed7 09       		.uleb128 0x9
 4174 0ed8 BD010000 		.4byte	.LASF180
 4175 0edc 0F       		.byte	0xf
 4176 0edd 9701     		.2byte	0x197
 4177 0edf A2000000 		.4byte	0xa2
 4178 0ee3 18       		.byte	0x18
 4179 0ee4 09       		.uleb128 0x9
 4180 0ee5 C0020000 		.4byte	.LASF194
 4181 0ee9 0F       		.byte	0xf
 4182 0eea 9801     		.2byte	0x198
 4183 0eec A2000000 		.4byte	0xa2
 4184 0ef0 19       		.byte	0x19
 4185 0ef1 09       		.uleb128 0x9
 4186 0ef2 51070000 		.4byte	.LASF181
 4187 0ef6 0F       		.byte	0xf
 4188 0ef7 9901     		.2byte	0x199
 4189 0ef9 A2000000 		.4byte	0xa2
 4190 0efd 1A       		.byte	0x1a
 4191 0efe 09       		.uleb128 0x9
 4192 0eff 67060000 		.4byte	.LASF182
 4193 0f03 0F       		.byte	0xf
 4194 0f04 9A01     		.2byte	0x19a
 4195 0f06 A2000000 		.4byte	0xa2
 4196 0f0a 1B       		.byte	0x1b
 4197 0f0b 09       		.uleb128 0x9
 4198 0f0c F2010000 		.4byte	.LASF183
 4199 0f10 0F       		.byte	0xf
 4200 0f11 9B01     		.2byte	0x19b
 4201 0f13 A2000000 		.4byte	0xa2
 4202 0f17 1C       		.byte	0x1c
 4203 0f18 09       		.uleb128 0x9
 4204 0f19 F7070000 		.4byte	.LASF195
 4205 0f1d 0F       		.byte	0xf
 4206 0f1e 9C01     		.2byte	0x19c
 4207 0f20 A2000000 		.4byte	0xa2
 4208 0f24 1D       		.byte	0x1d
 4209 0f25 09       		.uleb128 0x9
 4210 0f26 AD080000 		.4byte	.LASF184
 4211 0f2a 0F       		.byte	0xf
 4212 0f2b 9D01     		.2byte	0x19d
 4213 0f2d A2000000 		.4byte	0xa2
 4214 0f31 1E       		.byte	0x1e
 4215 0f32 09       		.uleb128 0x9
 4216 0f33 36020000 		.4byte	.LASF185
ARM GAS  /var/folders/c6/c789hm653lg9vtl73krp73tm0000gn/T//cc3LgWEg.s 			page 127


 4217 0f37 0F       		.byte	0xf
 4218 0f38 9E01     		.2byte	0x19e
 4219 0f3a A2000000 		.4byte	0xa2
 4220 0f3e 1F       		.byte	0x1f
 4221 0f3f 09       		.uleb128 0x9
 4222 0f40 7B070000 		.4byte	.LASF186
 4223 0f44 0F       		.byte	0xf
 4224 0f45 9F01     		.2byte	0x19f
 4225 0f47 A2000000 		.4byte	0xa2
 4226 0f4b 20       		.byte	0x20
 4227 0f4c 09       		.uleb128 0x9
 4228 0f4d 28010000 		.4byte	.LASF187
 4229 0f51 0F       		.byte	0xf
 4230 0f52 A001     		.2byte	0x1a0
 4231 0f54 A2000000 		.4byte	0xa2
 4232 0f58 21       		.byte	0x21
 4233 0f59 09       		.uleb128 0x9
 4234 0f5a 8D080000 		.4byte	.LASF188
 4235 0f5e 0F       		.byte	0xf
 4236 0f5f A101     		.2byte	0x1a1
 4237 0f61 A2000000 		.4byte	0xa2
 4238 0f65 22       		.byte	0x22
 4239 0f66 08       		.uleb128 0x8
 4240 0f67 65636300 		.ascii	"ecc\000"
 4241 0f6b 0F       		.byte	0xf
 4242 0f6c A201     		.2byte	0x1a2
 4243 0f6e A2000000 		.4byte	0xa2
 4244 0f72 23       		.byte	0x23
 4245 0f73 08       		.uleb128 0x8
 4246 0f74 63726300 		.ascii	"crc\000"
 4247 0f78 0F       		.byte	0xf
 4248 0f79 A301     		.2byte	0x1a3
 4249 0f7b A2000000 		.4byte	0xa2
 4250 0f7f 24       		.byte	0x24
 4251 0f80 00       		.byte	0
 4252 0f81 1E       		.uleb128 0x1e
 4253 0f82 C3030000 		.4byte	.LASF196
 4254 0f86 0F       		.byte	0xf
 4255 0f87 A401     		.2byte	0x1a4
 4256 0f89 CA0D0000 		.4byte	0xdca
 4257 0f8d 1F       		.uleb128 0x1f
 4258 0f8e 3D060000 		.4byte	.LASF229
 4259 0f92 01       		.byte	0x1
 4260 0f93 5D       		.byte	0x5d
 4261 0f94 C3000000 		.4byte	0xc3
 4262 0f98 01       		.byte	0x1
 4263 0f99 D10F0000 		.4byte	0xfd1
 4264 0f9d 20       		.uleb128 0x20
 4265 0f9e 63736400 		.ascii	"csd\000"
 4266 0fa2 01       		.byte	0x1
 4267 0fa3 5D       		.byte	0x5d
 4268 0fa4 D10F0000 		.4byte	0xfd1
 4269 0fa8 21       		.uleb128 0x21
 4270 0fa9 6100     		.ascii	"a\000"
 4271 0fab 01       		.byte	0x1
 4272 0fac 5E       		.byte	0x5e
 4273 0fad C3000000 		.4byte	0xc3
ARM GAS  /var/folders/c6/c789hm653lg9vtl73krp73tm0000gn/T//cc3LgWEg.s 			page 128


 4274 0fb1 21       		.uleb128 0x21
 4275 0fb2 6200     		.ascii	"b\000"
 4276 0fb4 01       		.byte	0x1
 4277 0fb5 5E       		.byte	0x5e
 4278 0fb6 C3000000 		.4byte	0xc3
 4279 0fba 21       		.uleb128 0x21
 4280 0fbb 6300     		.ascii	"c\000"
 4281 0fbd 01       		.byte	0x1
 4282 0fbe 5E       		.byte	0x5e
 4283 0fbf C3000000 		.4byte	0xc3
 4284 0fc3 22       		.uleb128 0x22
 4285 0fc4 940A0000 		.4byte	.LASF197
 4286 0fc8 EC0F0000 		.4byte	0xfec
 4287 0fcc 3D060000 		.4byte	.LASF229
 4288 0fd0 00       		.byte	0
 4289 0fd1 0A       		.uleb128 0xa
 4290 0fd2 04       		.byte	0x4
 4291 0fd3 D70F0000 		.4byte	0xfd7
 4292 0fd7 19       		.uleb128 0x19
 4293 0fd8 C3000000 		.4byte	0xc3
 4294 0fdc 12       		.uleb128 0x12
 4295 0fdd 9B070000 		.4byte	0x79b
 4296 0fe1 EC0F0000 		.4byte	0xfec
 4297 0fe5 13       		.uleb128 0x13
 4298 0fe6 BF040000 		.4byte	0x4bf
 4299 0fea 13       		.byte	0x13
 4300 0feb 00       		.byte	0
 4301 0fec 19       		.uleb128 0x19
 4302 0fed DC0F0000 		.4byte	0xfdc
 4303 0ff1 23       		.uleb128 0x23
 4304 0ff2 85060000 		.4byte	.LASF205
 4305 0ff6 01       		.byte	0x1
 4306 0ff7 3D       		.byte	0x3d
 4307 0ff8 C3000000 		.4byte	0xc3
 4308 0ffc 00000000 		.4byte	.LFB260
 4309 1000 5C000000 		.4byte	.LFE260-.LFB260
 4310 1004 01       		.uleb128 0x1
 4311 1005 9C       		.byte	0x9c
 4312 1006 96100000 		.4byte	0x1096
 4313 100a 24       		.uleb128 0x24
 4314 100b 210B0000 		.4byte	.LASF198
 4315 100f 01       		.byte	0x1
 4316 1010 3D       		.byte	0x3d
 4317 1011 D10F0000 		.4byte	0xfd1
 4318 1015 00000000 		.4byte	.LLST0
 4319 1019 25       		.uleb128 0x25
 4320 101a 656E6400 		.ascii	"end\000"
 4321 101e 01       		.byte	0x1
 4322 101f 3E       		.byte	0x3e
 4323 1020 C3000000 		.4byte	0xc3
 4324 1024 42000000 		.4byte	.LLST1
 4325 1028 24       		.uleb128 0x24
 4326 1029 CF080000 		.4byte	.LASF199
 4327 102d 01       		.byte	0x1
 4328 102e 3F       		.byte	0x3f
 4329 102f C3000000 		.4byte	0xc3
 4330 1033 92000000 		.4byte	.LLST2
ARM GAS  /var/folders/c6/c789hm653lg9vtl73krp73tm0000gn/T//cc3LgWEg.s 			page 129


 4331 1037 26       		.uleb128 0x26
 4332 1038 1F030000 		.4byte	.LASF200
 4333 103c 01       		.byte	0x1
 4334 103d 40       		.byte	0x40
 4335 103e 2C000000 		.4byte	0x2c
 4336 1042 E2000000 		.4byte	.LLST3
 4337 1046 26       		.uleb128 0x26
 4338 1047 44020000 		.4byte	.LASF201
 4339 104b 01       		.byte	0x1
 4340 104c 40       		.byte	0x40
 4341 104d 2C000000 		.4byte	0x2c
 4342 1051 10010000 		.4byte	.LLST4
 4343 1055 26       		.uleb128 0x26
 4344 1056 97050000 		.4byte	.LASF202
 4345 105a 01       		.byte	0x1
 4346 105b 40       		.byte	0x40
 4347 105c 2C000000 		.4byte	0x2c
 4348 1060 3E010000 		.4byte	.LLST5
 4349 1064 26       		.uleb128 0x26
 4350 1065 CB070000 		.4byte	.LASF203
 4351 1069 01       		.byte	0x1
 4352 106a 41       		.byte	0x41
 4353 106b C3000000 		.4byte	0xc3
 4354 106f 6C010000 		.4byte	.LLST6
 4355 1073 27       		.uleb128 0x27
 4356 1074 6A090000 		.4byte	.LASF204
 4357 1078 A6100000 		.4byte	0x10a6
 4358 107c 05       		.uleb128 0x5
 4359 107d 03       		.byte	0x3
 4360 107e 00000000 		.4byte	__func__.7806
 4361 1082 28       		.uleb128 0x28
 4362 1083 3E000000 		.4byte	.LVL7
 4363 1087 B3210000 		.4byte	0x21b3
 4364 108b 29       		.uleb128 0x29
 4365 108c 01       		.uleb128 0x1
 4366 108d 50       		.byte	0x50
 4367 108e 05       		.uleb128 0x5
 4368 108f 03       		.byte	0x3
 4369 1090 00000000 		.4byte	.LANCHOR0
 4370 1094 00       		.byte	0
 4371 1095 00       		.byte	0
 4372 1096 12       		.uleb128 0x12
 4373 1097 9B070000 		.4byte	0x79b
 4374 109b A6100000 		.4byte	0x10a6
 4375 109f 13       		.uleb128 0x13
 4376 10a0 BF040000 		.4byte	0x4bf
 4377 10a4 10       		.byte	0x10
 4378 10a5 00       		.byte	0
 4379 10a6 19       		.uleb128 0x19
 4380 10a7 96100000 		.4byte	0x1096
 4381 10ab 2A       		.uleb128 0x2a
 4382 10ac 8D0F0000 		.4byte	0xf8d
 4383 10b0 00000000 		.4byte	.LFB261
 4384 10b4 68000000 		.4byte	.LFE261-.LFB261
 4385 10b8 01       		.uleb128 0x1
 4386 10b9 9C       		.byte	0x9c
 4387 10ba D8110000 		.4byte	0x11d8
ARM GAS  /var/folders/c6/c789hm653lg9vtl73krp73tm0000gn/T//cc3LgWEg.s 			page 130


 4388 10be 2B       		.uleb128 0x2b
 4389 10bf 9D0F0000 		.4byte	0xf9d
 4390 10c3 8A010000 		.4byte	.LLST7
 4391 10c7 2C       		.uleb128 0x2c
 4392 10c8 A80F0000 		.4byte	0xfa8
 4393 10cc 2C       		.uleb128 0x2c
 4394 10cd B10F0000 		.4byte	0xfb1
 4395 10d1 2C       		.uleb128 0x2c
 4396 10d2 BA0F0000 		.4byte	0xfba
 4397 10d6 2D       		.uleb128 0x2d
 4398 10d7 C30F0000 		.4byte	0xfc3
 4399 10db 05       		.uleb128 0x5
 4400 10dc 03       		.byte	0x3
 4401 10dd 00000000 		.4byte	__func__.7813
 4402 10e1 2E       		.uleb128 0x2e
 4403 10e2 2A000000 		.4byte	.LBB4
 4404 10e6 32000000 		.4byte	.LBE4-.LBB4
 4405 10ea 84110000 		.4byte	0x1184
 4406 10ee 2B       		.uleb128 0x2b
 4407 10ef 9D0F0000 		.4byte	0xf9d
 4408 10f3 BE010000 		.4byte	.LLST8
 4409 10f7 2F       		.uleb128 0x2f
 4410 10f8 2A000000 		.4byte	.LBB5
 4411 10fc 32000000 		.4byte	.LBE5-.LBB5
 4412 1100 30       		.uleb128 0x30
 4413 1101 A80F0000 		.4byte	0xfa8
 4414 1105 D1010000 		.4byte	.LLST9
 4415 1109 30       		.uleb128 0x30
 4416 110a B10F0000 		.4byte	0xfb1
 4417 110e FC010000 		.4byte	.LLST10
 4418 1112 30       		.uleb128 0x30
 4419 1113 BA0F0000 		.4byte	0xfba
 4420 1117 27020000 		.4byte	.LLST11
 4421 111b 2D       		.uleb128 0x2d
 4422 111c C30F0000 		.4byte	0xfc3
 4423 1120 05       		.uleb128 0x5
 4424 1121 03       		.byte	0x3
 4425 1122 00000000 		.4byte	__func__.7813
 4426 1126 31       		.uleb128 0x31
 4427 1127 34000000 		.4byte	.LVL18
 4428 112b F10F0000 		.4byte	0xff1
 4429 112f 46110000 		.4byte	0x1146
 4430 1133 29       		.uleb128 0x29
 4431 1134 01       		.uleb128 0x1
 4432 1135 52       		.byte	0x52
 4433 1136 02       		.uleb128 0x2
 4434 1137 08       		.byte	0x8
 4435 1138 3E       		.byte	0x3e
 4436 1139 29       		.uleb128 0x29
 4437 113a 01       		.uleb128 0x1
 4438 113b 51       		.byte	0x51
 4439 113c 02       		.uleb128 0x2
 4440 113d 08       		.byte	0x8
 4441 113e 49       		.byte	0x49
 4442 113f 29       		.uleb128 0x29
 4443 1140 01       		.uleb128 0x1
 4444 1141 50       		.byte	0x50
ARM GAS  /var/folders/c6/c789hm653lg9vtl73krp73tm0000gn/T//cc3LgWEg.s 			page 131


 4445 1142 02       		.uleb128 0x2
 4446 1143 74       		.byte	0x74
 4447 1144 00       		.sleb128 0
 4448 1145 00       		.byte	0
 4449 1146 31       		.uleb128 0x31
 4450 1147 40000000 		.4byte	.LVL21
 4451 114b F10F0000 		.4byte	0xff1
 4452 114f 66110000 		.4byte	0x1166
 4453 1153 29       		.uleb128 0x29
 4454 1154 01       		.uleb128 0x1
 4455 1155 52       		.byte	0x52
 4456 1156 02       		.uleb128 0x2
 4457 1157 08       		.byte	0x8
 4458 1158 2F       		.byte	0x2f
 4459 1159 29       		.uleb128 0x29
 4460 115a 01       		.uleb128 0x1
 4461 115b 51       		.byte	0x51
 4462 115c 02       		.uleb128 0x2
 4463 115d 08       		.byte	0x8
 4464 115e 31       		.byte	0x31
 4465 115f 29       		.uleb128 0x29
 4466 1160 01       		.uleb128 0x1
 4467 1161 50       		.byte	0x50
 4468 1162 02       		.uleb128 0x2
 4469 1163 74       		.byte	0x74
 4470 1164 00       		.sleb128 0
 4471 1165 00       		.byte	0
 4472 1166 28       		.uleb128 0x28
 4473 1167 4C000000 		.4byte	.LVL24
 4474 116b F10F0000 		.4byte	0xff1
 4475 116f 29       		.uleb128 0x29
 4476 1170 01       		.uleb128 0x1
 4477 1171 52       		.byte	0x52
 4478 1172 02       		.uleb128 0x2
 4479 1173 08       		.byte	0x8
 4480 1174 50       		.byte	0x50
 4481 1175 29       		.uleb128 0x29
 4482 1176 01       		.uleb128 0x1
 4483 1177 51       		.byte	0x51
 4484 1178 02       		.uleb128 0x2
 4485 1179 08       		.byte	0x8
 4486 117a 53       		.byte	0x53
 4487 117b 29       		.uleb128 0x29
 4488 117c 01       		.uleb128 0x1
 4489 117d 50       		.byte	0x50
 4490 117e 02       		.uleb128 0x2
 4491 117f 74       		.byte	0x74
 4492 1180 00       		.sleb128 0
 4493 1181 00       		.byte	0
 4494 1182 00       		.byte	0
 4495 1183 00       		.byte	0
 4496 1184 31       		.uleb128 0x31
 4497 1185 10000000 		.4byte	.LVL14
 4498 1189 F10F0000 		.4byte	0xff1
 4499 118d A4110000 		.4byte	0x11a4
 4500 1191 29       		.uleb128 0x29
 4501 1192 01       		.uleb128 0x1
ARM GAS  /var/folders/c6/c789hm653lg9vtl73krp73tm0000gn/T//cc3LgWEg.s 			page 132


 4502 1193 52       		.byte	0x52
 4503 1194 02       		.uleb128 0x2
 4504 1195 08       		.byte	0x8
 4505 1196 7E       		.byte	0x7e
 4506 1197 29       		.uleb128 0x29
 4507 1198 01       		.uleb128 0x1
 4508 1199 51       		.byte	0x51
 4509 119a 02       		.uleb128 0x2
 4510 119b 08       		.byte	0x8
 4511 119c 7F       		.byte	0x7f
 4512 119d 29       		.uleb128 0x29
 4513 119e 01       		.uleb128 0x1
 4514 119f 50       		.byte	0x50
 4515 11a0 02       		.uleb128 0x2
 4516 11a1 74       		.byte	0x74
 4517 11a2 00       		.sleb128 0
 4518 11a3 00       		.byte	0
 4519 11a4 31       		.uleb128 0x31
 4520 11a5 20000000 		.4byte	.LVL15
 4521 11a9 F10F0000 		.4byte	0xff1
 4522 11ad C4110000 		.4byte	0x11c4
 4523 11b1 29       		.uleb128 0x29
 4524 11b2 01       		.uleb128 0x1
 4525 11b3 52       		.byte	0x52
 4526 11b4 02       		.uleb128 0x2
 4527 11b5 08       		.byte	0x8
 4528 11b6 30       		.byte	0x30
 4529 11b7 29       		.uleb128 0x29
 4530 11b8 01       		.uleb128 0x1
 4531 11b9 51       		.byte	0x51
 4532 11ba 02       		.uleb128 0x2
 4533 11bb 08       		.byte	0x8
 4534 11bc 45       		.byte	0x45
 4535 11bd 29       		.uleb128 0x29
 4536 11be 01       		.uleb128 0x1
 4537 11bf 50       		.byte	0x50
 4538 11c0 02       		.uleb128 0x2
 4539 11c1 74       		.byte	0x74
 4540 11c2 00       		.sleb128 0
 4541 11c3 00       		.byte	0
 4542 11c4 28       		.uleb128 0x28
 4543 11c5 62000000 		.4byte	.LVL32
 4544 11c9 B3210000 		.4byte	0x21b3
 4545 11cd 29       		.uleb128 0x29
 4546 11ce 01       		.uleb128 0x1
 4547 11cf 50       		.byte	0x50
 4548 11d0 05       		.uleb128 0x5
 4549 11d1 03       		.byte	0x3
 4550 11d2 00000000 		.4byte	.LANCHOR1
 4551 11d6 00       		.byte	0
 4552 11d7 00       		.byte	0
 4553 11d8 23       		.uleb128 0x23
 4554 11d9 28030000 		.4byte	.LASF206
 4555 11dd 01       		.byte	0x1
 4556 11de 7D       		.byte	0x7d
 4557 11df C3000000 		.4byte	0xc3
 4558 11e3 00000000 		.4byte	.LFB262
ARM GAS  /var/folders/c6/c789hm653lg9vtl73krp73tm0000gn/T//cc3LgWEg.s 			page 133


 4559 11e7 30000000 		.4byte	.LFE262-.LFB262
 4560 11eb 01       		.uleb128 0x1
 4561 11ec 9C       		.byte	0x9c
 4562 11ed 23120000 		.4byte	0x1223
 4563 11f1 24       		.uleb128 0x24
 4564 11f2 AE070000 		.4byte	.LASF207
 4565 11f6 01       		.byte	0x1
 4566 11f7 7D       		.byte	0x7d
 4567 11f8 DA070000 		.4byte	0x7da
 4568 11fc 47020000 		.4byte	.LLST12
 4569 1200 27       		.uleb128 0x27
 4570 1201 F60A0000 		.4byte	.LASF208
 4571 1205 33120000 		.4byte	0x1233
 4572 1209 05       		.uleb128 0x5
 4573 120a 03       		.byte	0x3
 4574 120b 00000000 		.4byte	__func__.7821
 4575 120f 28       		.uleb128 0x28
 4576 1210 2A000000 		.4byte	.LVL37
 4577 1214 B3210000 		.4byte	0x21b3
 4578 1218 29       		.uleb128 0x29
 4579 1219 01       		.uleb128 0x1
 4580 121a 50       		.byte	0x50
 4581 121b 05       		.uleb128 0x5
 4582 121c 03       		.byte	0x3
 4583 121d 00000000 		.4byte	.LANCHOR2
 4584 1221 00       		.byte	0
 4585 1222 00       		.byte	0
 4586 1223 12       		.uleb128 0x12
 4587 1224 9B070000 		.4byte	0x79b
 4588 1228 33120000 		.4byte	0x1233
 4589 122c 13       		.uleb128 0x13
 4590 122d BF040000 		.4byte	0x4bf
 4591 1231 17       		.byte	0x17
 4592 1232 00       		.byte	0
 4593 1233 19       		.uleb128 0x19
 4594 1234 23120000 		.4byte	0x1223
 4595 1238 32       		.uleb128 0x32
 4596 1239 44040000 		.4byte	.LASF212
 4597 123d 01       		.byte	0x1
 4598 123e 8F       		.byte	0x8f
 4599 123f 00000000 		.4byte	.LFB263
 4600 1243 C0000000 		.4byte	.LFE263-.LFB263
 4601 1247 01       		.uleb128 0x1
 4602 1248 9C       		.byte	0x9c
 4603 1249 36140000 		.4byte	0x1436
 4604 124d 24       		.uleb128 0x24
 4605 124e 9F010000 		.4byte	.LASF209
 4606 1252 01       		.byte	0x1
 4607 1253 8F       		.byte	0x8f
 4608 1254 36140000 		.4byte	0x1436
 4609 1258 7B020000 		.4byte	.LLST13
 4610 125c 24       		.uleb128 0x24
 4611 125d 8C040000 		.4byte	.LASF210
 4612 1261 01       		.byte	0x1
 4613 1262 90       		.byte	0x90
 4614 1263 41140000 		.4byte	0x1441
 4615 1267 BC020000 		.4byte	.LLST14
ARM GAS  /var/folders/c6/c789hm653lg9vtl73krp73tm0000gn/T//cc3LgWEg.s 			page 134


 4616 126b 33       		.uleb128 0x33
 4617 126c 63696400 		.ascii	"cid\000"
 4618 1270 01       		.byte	0x1
 4619 1271 91       		.byte	0x91
 4620 1272 D10F0000 		.4byte	0xfd1
 4621 1276 F0020000 		.4byte	.LLST15
 4622 127a 27       		.uleb128 0x27
 4623 127b 040B0000 		.4byte	.LASF211
 4624 127f 57140000 		.4byte	0x1457
 4625 1283 05       		.uleb128 0x5
 4626 1284 03       		.byte	0x3
 4627 1285 00000000 		.4byte	__func__.7827
 4628 1289 31       		.uleb128 0x31
 4629 128a 1A000000 		.4byte	.LVL41
 4630 128e F10F0000 		.4byte	0xff1
 4631 1292 A7120000 		.4byte	0x12a7
 4632 1296 29       		.uleb128 0x29
 4633 1297 01       		.uleb128 0x1
 4634 1298 52       		.byte	0x52
 4635 1299 01       		.uleb128 0x1
 4636 129a 31       		.byte	0x31
 4637 129b 29       		.uleb128 0x29
 4638 129c 01       		.uleb128 0x1
 4639 129d 51       		.byte	0x51
 4640 129e 01       		.uleb128 0x1
 4641 129f 37       		.byte	0x37
 4642 12a0 29       		.uleb128 0x29
 4643 12a1 01       		.uleb128 0x1
 4644 12a2 50       		.byte	0x50
 4645 12a3 02       		.uleb128 0x2
 4646 12a4 75       		.byte	0x75
 4647 12a5 00       		.sleb128 0
 4648 12a6 00       		.byte	0
 4649 12a7 31       		.uleb128 0x31
 4650 12a8 26000000 		.4byte	.LVL42
 4651 12ac F10F0000 		.4byte	0xff1
 4652 12b0 C5120000 		.4byte	0x12c5
 4653 12b4 29       		.uleb128 0x29
 4654 12b5 01       		.uleb128 0x1
 4655 12b6 52       		.byte	0x52
 4656 12b7 01       		.uleb128 0x1
 4657 12b8 3C       		.byte	0x3c
 4658 12b9 29       		.uleb128 0x29
 4659 12ba 01       		.uleb128 0x1
 4660 12bb 51       		.byte	0x51
 4661 12bc 01       		.uleb128 0x1
 4662 12bd 43       		.byte	0x43
 4663 12be 29       		.uleb128 0x29
 4664 12bf 01       		.uleb128 0x1
 4665 12c0 50       		.byte	0x50
 4666 12c1 02       		.uleb128 0x2
 4667 12c2 75       		.byte	0x75
 4668 12c3 00       		.sleb128 0
 4669 12c4 00       		.byte	0
 4670 12c5 31       		.uleb128 0x31
 4671 12c6 36000000 		.4byte	.LVL43
 4672 12ca F10F0000 		.4byte	0xff1
ARM GAS  /var/folders/c6/c789hm653lg9vtl73krp73tm0000gn/T//cc3LgWEg.s 			page 135


 4673 12ce E3120000 		.4byte	0x12e3
 4674 12d2 29       		.uleb128 0x29
 4675 12d3 01       		.uleb128 0x1
 4676 12d4 52       		.byte	0x52
 4677 12d5 01       		.uleb128 0x1
 4678 12d6 38       		.byte	0x38
 4679 12d7 29       		.uleb128 0x29
 4680 12d8 01       		.uleb128 0x1
 4681 12d9 51       		.byte	0x51
 4682 12da 01       		.uleb128 0x1
 4683 12db 3B       		.byte	0x3b
 4684 12dc 29       		.uleb128 0x29
 4685 12dd 01       		.uleb128 0x1
 4686 12de 50       		.byte	0x50
 4687 12df 02       		.uleb128 0x2
 4688 12e0 75       		.byte	0x75
 4689 12e1 00       		.sleb128 0
 4690 12e2 00       		.byte	0
 4691 12e3 31       		.uleb128 0x31
 4692 12e4 42000000 		.4byte	.LVL44
 4693 12e8 F10F0000 		.4byte	0xff1
 4694 12ec 03130000 		.4byte	0x1303
 4695 12f0 29       		.uleb128 0x29
 4696 12f1 01       		.uleb128 0x1
 4697 12f2 52       		.byte	0x52
 4698 12f3 02       		.uleb128 0x2
 4699 12f4 08       		.byte	0x8
 4700 12f5 78       		.byte	0x78
 4701 12f6 29       		.uleb128 0x29
 4702 12f7 01       		.uleb128 0x1
 4703 12f8 51       		.byte	0x51
 4704 12f9 02       		.uleb128 0x2
 4705 12fa 08       		.byte	0x8
 4706 12fb 7F       		.byte	0x7f
 4707 12fc 29       		.uleb128 0x29
 4708 12fd 01       		.uleb128 0x1
 4709 12fe 50       		.byte	0x50
 4710 12ff 02       		.uleb128 0x2
 4711 1300 75       		.byte	0x75
 4712 1301 00       		.sleb128 0
 4713 1302 00       		.byte	0
 4714 1303 31       		.uleb128 0x31
 4715 1304 4E000000 		.4byte	.LVL45
 4716 1308 F10F0000 		.4byte	0xff1
 4717 130c 23130000 		.4byte	0x1323
 4718 1310 29       		.uleb128 0x29
 4719 1311 01       		.uleb128 0x1
 4720 1312 52       		.byte	0x52
 4721 1313 02       		.uleb128 0x2
 4722 1314 08       		.byte	0x8
 4723 1315 68       		.byte	0x68
 4724 1316 29       		.uleb128 0x29
 4725 1317 01       		.uleb128 0x1
 4726 1318 51       		.byte	0x51
 4727 1319 02       		.uleb128 0x2
 4728 131a 08       		.byte	0x8
 4729 131b 77       		.byte	0x77
ARM GAS  /var/folders/c6/c789hm653lg9vtl73krp73tm0000gn/T//cc3LgWEg.s 			page 136


 4730 131c 29       		.uleb128 0x29
 4731 131d 01       		.uleb128 0x1
 4732 131e 50       		.byte	0x50
 4733 131f 02       		.uleb128 0x2
 4734 1320 75       		.byte	0x75
 4735 1321 00       		.sleb128 0
 4736 1322 00       		.byte	0
 4737 1323 31       		.uleb128 0x31
 4738 1324 5A000000 		.4byte	.LVL46
 4739 1328 F10F0000 		.4byte	0xff1
 4740 132c 43130000 		.4byte	0x1343
 4741 1330 29       		.uleb128 0x29
 4742 1331 01       		.uleb128 0x1
 4743 1332 52       		.byte	0x52
 4744 1333 02       		.uleb128 0x2
 4745 1334 08       		.byte	0x8
 4746 1335 40       		.byte	0x40
 4747 1336 29       		.uleb128 0x29
 4748 1337 01       		.uleb128 0x1
 4749 1338 51       		.byte	0x51
 4750 1339 02       		.uleb128 0x2
 4751 133a 08       		.byte	0x8
 4752 133b 47       		.byte	0x47
 4753 133c 29       		.uleb128 0x29
 4754 133d 01       		.uleb128 0x1
 4755 133e 50       		.byte	0x50
 4756 133f 02       		.uleb128 0x2
 4757 1340 75       		.byte	0x75
 4758 1341 00       		.sleb128 0
 4759 1342 00       		.byte	0
 4760 1343 31       		.uleb128 0x31
 4761 1344 66000000 		.4byte	.LVL47
 4762 1348 F10F0000 		.4byte	0xff1
 4763 134c 63130000 		.4byte	0x1363
 4764 1350 29       		.uleb128 0x29
 4765 1351 01       		.uleb128 0x1
 4766 1352 52       		.byte	0x52
 4767 1353 02       		.uleb128 0x2
 4768 1354 08       		.byte	0x8
 4769 1355 48       		.byte	0x48
 4770 1356 29       		.uleb128 0x29
 4771 1357 01       		.uleb128 0x1
 4772 1358 51       		.byte	0x51
 4773 1359 02       		.uleb128 0x2
 4774 135a 08       		.byte	0x8
 4775 135b 4F       		.byte	0x4f
 4776 135c 29       		.uleb128 0x29
 4777 135d 01       		.uleb128 0x1
 4778 135e 50       		.byte	0x50
 4779 135f 02       		.uleb128 0x2
 4780 1360 75       		.byte	0x75
 4781 1361 00       		.sleb128 0
 4782 1362 00       		.byte	0
 4783 1363 31       		.uleb128 0x31
 4784 1364 72000000 		.4byte	.LVL48
 4785 1368 F10F0000 		.4byte	0xff1
 4786 136c 83130000 		.4byte	0x1383
ARM GAS  /var/folders/c6/c789hm653lg9vtl73krp73tm0000gn/T//cc3LgWEg.s 			page 137


 4787 1370 29       		.uleb128 0x29
 4788 1371 01       		.uleb128 0x1
 4789 1372 52       		.byte	0x52
 4790 1373 02       		.uleb128 0x2
 4791 1374 08       		.byte	0x8
 4792 1375 50       		.byte	0x50
 4793 1376 29       		.uleb128 0x29
 4794 1377 01       		.uleb128 0x1
 4795 1378 51       		.byte	0x51
 4796 1379 02       		.uleb128 0x2
 4797 137a 08       		.byte	0x8
 4798 137b 57       		.byte	0x57
 4799 137c 29       		.uleb128 0x29
 4800 137d 01       		.uleb128 0x1
 4801 137e 50       		.byte	0x50
 4802 137f 02       		.uleb128 0x2
 4803 1380 75       		.byte	0x75
 4804 1381 00       		.sleb128 0
 4805 1382 00       		.byte	0
 4806 1383 31       		.uleb128 0x31
 4807 1384 7E000000 		.4byte	.LVL49
 4808 1388 F10F0000 		.4byte	0xff1
 4809 138c A3130000 		.4byte	0x13a3
 4810 1390 29       		.uleb128 0x29
 4811 1391 01       		.uleb128 0x1
 4812 1392 52       		.byte	0x52
 4813 1393 02       		.uleb128 0x2
 4814 1394 08       		.byte	0x8
 4815 1395 58       		.byte	0x58
 4816 1396 29       		.uleb128 0x29
 4817 1397 01       		.uleb128 0x1
 4818 1398 51       		.byte	0x51
 4819 1399 02       		.uleb128 0x2
 4820 139a 08       		.byte	0x8
 4821 139b 5F       		.byte	0x5f
 4822 139c 29       		.uleb128 0x29
 4823 139d 01       		.uleb128 0x1
 4824 139e 50       		.byte	0x50
 4825 139f 02       		.uleb128 0x2
 4826 13a0 75       		.byte	0x75
 4827 13a1 00       		.sleb128 0
 4828 13a2 00       		.byte	0
 4829 13a3 31       		.uleb128 0x31
 4830 13a4 8A000000 		.4byte	.LVL50
 4831 13a8 F10F0000 		.4byte	0xff1
 4832 13ac C3130000 		.4byte	0x13c3
 4833 13b0 29       		.uleb128 0x29
 4834 13b1 01       		.uleb128 0x1
 4835 13b2 52       		.byte	0x52
 4836 13b3 02       		.uleb128 0x2
 4837 13b4 08       		.byte	0x8
 4838 13b5 60       		.byte	0x60
 4839 13b6 29       		.uleb128 0x29
 4840 13b7 01       		.uleb128 0x1
 4841 13b8 51       		.byte	0x51
 4842 13b9 02       		.uleb128 0x2
 4843 13ba 08       		.byte	0x8
ARM GAS  /var/folders/c6/c789hm653lg9vtl73krp73tm0000gn/T//cc3LgWEg.s 			page 138


 4844 13bb 67       		.byte	0x67
 4845 13bc 29       		.uleb128 0x29
 4846 13bd 01       		.uleb128 0x1
 4847 13be 50       		.byte	0x50
 4848 13bf 02       		.uleb128 0x2
 4849 13c0 75       		.byte	0x75
 4850 13c1 00       		.sleb128 0
 4851 13c2 00       		.byte	0
 4852 13c3 31       		.uleb128 0x31
 4853 13c4 96000000 		.4byte	.LVL51
 4854 13c8 F10F0000 		.4byte	0xff1
 4855 13cc E3130000 		.4byte	0x13e3
 4856 13d0 29       		.uleb128 0x29
 4857 13d1 01       		.uleb128 0x1
 4858 13d2 52       		.byte	0x52
 4859 13d3 02       		.uleb128 0x2
 4860 13d4 08       		.byte	0x8
 4861 13d5 3C       		.byte	0x3c
 4862 13d6 29       		.uleb128 0x29
 4863 13d7 01       		.uleb128 0x1
 4864 13d8 51       		.byte	0x51
 4865 13d9 02       		.uleb128 0x2
 4866 13da 08       		.byte	0x8
 4867 13db 3F       		.byte	0x3f
 4868 13dc 29       		.uleb128 0x29
 4869 13dd 01       		.uleb128 0x1
 4870 13de 50       		.byte	0x50
 4871 13df 02       		.uleb128 0x2
 4872 13e0 75       		.byte	0x75
 4873 13e1 00       		.sleb128 0
 4874 13e2 00       		.byte	0
 4875 13e3 31       		.uleb128 0x31
 4876 13e4 A2000000 		.4byte	.LVL52
 4877 13e8 F10F0000 		.4byte	0xff1
 4878 13ec 03140000 		.4byte	0x1403
 4879 13f0 29       		.uleb128 0x29
 4880 13f1 01       		.uleb128 0x1
 4881 13f2 52       		.byte	0x52
 4882 13f3 02       		.uleb128 0x2
 4883 13f4 08       		.byte	0x8
 4884 13f5 38       		.byte	0x38
 4885 13f6 29       		.uleb128 0x29
 4886 13f7 01       		.uleb128 0x1
 4887 13f8 51       		.byte	0x51
 4888 13f9 02       		.uleb128 0x2
 4889 13fa 08       		.byte	0x8
 4890 13fb 3B       		.byte	0x3b
 4891 13fc 29       		.uleb128 0x29
 4892 13fd 01       		.uleb128 0x1
 4893 13fe 50       		.byte	0x50
 4894 13ff 02       		.uleb128 0x2
 4895 1400 75       		.byte	0x75
 4896 1401 00       		.sleb128 0
 4897 1402 00       		.byte	0
 4898 1403 31       		.uleb128 0x31
 4899 1404 AE000000 		.4byte	.LVL53
 4900 1408 F10F0000 		.4byte	0xff1
ARM GAS  /var/folders/c6/c789hm653lg9vtl73krp73tm0000gn/T//cc3LgWEg.s 			page 139


 4901 140c 22140000 		.4byte	0x1422
 4902 1410 29       		.uleb128 0x29
 4903 1411 01       		.uleb128 0x1
 4904 1412 52       		.byte	0x52
 4905 1413 01       		.uleb128 0x1
 4906 1414 48       		.byte	0x48
 4907 1415 29       		.uleb128 0x29
 4908 1416 01       		.uleb128 0x1
 4909 1417 51       		.byte	0x51
 4910 1418 02       		.uleb128 0x2
 4911 1419 08       		.byte	0x8
 4912 141a 37       		.byte	0x37
 4913 141b 29       		.uleb128 0x29
 4914 141c 01       		.uleb128 0x1
 4915 141d 50       		.byte	0x50
 4916 141e 02       		.uleb128 0x2
 4917 141f 75       		.byte	0x75
 4918 1420 00       		.sleb128 0
 4919 1421 00       		.byte	0
 4920 1422 28       		.uleb128 0x28
 4921 1423 B8000000 		.4byte	.LVL56
 4922 1427 B3210000 		.4byte	0x21b3
 4923 142b 29       		.uleb128 0x29
 4924 142c 01       		.uleb128 0x1
 4925 142d 50       		.byte	0x50
 4926 142e 05       		.uleb128 0x5
 4927 142f 03       		.byte	0x3
 4928 1430 00000000 		.4byte	.LANCHOR3
 4929 1434 00       		.byte	0
 4930 1435 00       		.byte	0
 4931 1436 0A       		.uleb128 0xa
 4932 1437 04       		.byte	0x4
 4933 1438 3C140000 		.4byte	0x143c
 4934 143c 19       		.uleb128 0x19
 4935 143d AB090000 		.4byte	0x9ab
 4936 1441 0A       		.uleb128 0xa
 4937 1442 04       		.byte	0x4
 4938 1443 460A0000 		.4byte	0xa46
 4939 1447 12       		.uleb128 0x12
 4940 1448 9B070000 		.4byte	0x79b
 4941 144c 57140000 		.4byte	0x1457
 4942 1450 13       		.uleb128 0x13
 4943 1451 BF040000 		.4byte	0x4bf
 4944 1455 15       		.byte	0x15
 4945 1456 00       		.byte	0
 4946 1457 19       		.uleb128 0x19
 4947 1458 47140000 		.4byte	0x1447
 4948 145c 32       		.uleb128 0x32
 4949 145d 51060000 		.4byte	.LASF213
 4950 1461 01       		.byte	0x1
 4951 1462 AE       		.byte	0xae
 4952 1463 00000000 		.4byte	.LFB264
 4953 1467 CC000000 		.4byte	.LFE264-.LFB264
 4954 146b 01       		.uleb128 0x1
 4955 146c 9C       		.byte	0x9c
 4956 146d 7A160000 		.4byte	0x167a
 4957 1471 24       		.uleb128 0x24
ARM GAS  /var/folders/c6/c789hm653lg9vtl73krp73tm0000gn/T//cc3LgWEg.s 			page 140


 4958 1472 9F010000 		.4byte	.LASF209
 4959 1476 01       		.byte	0x1
 4960 1477 AE       		.byte	0xae
 4961 1478 36140000 		.4byte	0x1436
 4962 147c 03030000 		.4byte	.LLST16
 4963 1480 24       		.uleb128 0x24
 4964 1481 48050000 		.4byte	.LASF214
 4965 1485 01       		.byte	0x1
 4966 1486 AF       		.byte	0xaf
 4967 1487 7A160000 		.4byte	0x167a
 4968 148b 44030000 		.4byte	.LLST17
 4969 148f 33       		.uleb128 0x33
 4970 1490 63696400 		.ascii	"cid\000"
 4971 1494 01       		.byte	0x1
 4972 1495 B0       		.byte	0xb0
 4973 1496 D10F0000 		.4byte	0xfd1
 4974 149a 78030000 		.4byte	.LLST18
 4975 149e 27       		.uleb128 0x27
 4976 149f 00000000 		.4byte	.LASF215
 4977 14a3 80160000 		.4byte	0x1680
 4978 14a7 05       		.uleb128 0x5
 4979 14a8 03       		.byte	0x3
 4980 14a9 00000000 		.4byte	__func__.7833
 4981 14ad 31       		.uleb128 0x31
 4982 14ae 1A000000 		.4byte	.LVL60
 4983 14b2 F10F0000 		.4byte	0xff1
 4984 14b6 CB140000 		.4byte	0x14cb
 4985 14ba 29       		.uleb128 0x29
 4986 14bb 01       		.uleb128 0x1
 4987 14bc 52       		.byte	0x52
 4988 14bd 01       		.uleb128 0x1
 4989 14be 31       		.byte	0x31
 4990 14bf 29       		.uleb128 0x29
 4991 14c0 01       		.uleb128 0x1
 4992 14c1 51       		.byte	0x51
 4993 14c2 01       		.uleb128 0x1
 4994 14c3 37       		.byte	0x37
 4995 14c4 29       		.uleb128 0x29
 4996 14c5 01       		.uleb128 0x1
 4997 14c6 50       		.byte	0x50
 4998 14c7 02       		.uleb128 0x2
 4999 14c8 75       		.byte	0x75
 5000 14c9 00       		.sleb128 0
 5001 14ca 00       		.byte	0
 5002 14cb 31       		.uleb128 0x31
 5003 14cc 26000000 		.4byte	.LVL61
 5004 14d0 F10F0000 		.4byte	0xff1
 5005 14d4 E9140000 		.4byte	0x14e9
 5006 14d8 29       		.uleb128 0x29
 5007 14d9 01       		.uleb128 0x1
 5008 14da 52       		.byte	0x52
 5009 14db 01       		.uleb128 0x1
 5010 14dc 38       		.byte	0x38
 5011 14dd 29       		.uleb128 0x29
 5012 14de 01       		.uleb128 0x1
 5013 14df 51       		.byte	0x51
 5014 14e0 01       		.uleb128 0x1
ARM GAS  /var/folders/c6/c789hm653lg9vtl73krp73tm0000gn/T//cc3LgWEg.s 			page 141


 5015 14e1 3B       		.byte	0x3b
 5016 14e2 29       		.uleb128 0x29
 5017 14e3 01       		.uleb128 0x1
 5018 14e4 50       		.byte	0x50
 5019 14e5 02       		.uleb128 0x2
 5020 14e6 75       		.byte	0x75
 5021 14e7 00       		.sleb128 0
 5022 14e8 00       		.byte	0
 5023 14e9 31       		.uleb128 0x31
 5024 14ea 36000000 		.4byte	.LVL62
 5025 14ee F10F0000 		.4byte	0xff1
 5026 14f2 07150000 		.4byte	0x1507
 5027 14f6 29       		.uleb128 0x29
 5028 14f7 01       		.uleb128 0x1
 5029 14f8 52       		.byte	0x52
 5030 14f9 01       		.uleb128 0x1
 5031 14fa 3C       		.byte	0x3c
 5032 14fb 29       		.uleb128 0x29
 5033 14fc 01       		.uleb128 0x1
 5034 14fd 51       		.byte	0x51
 5035 14fe 01       		.uleb128 0x1
 5036 14ff 3F       		.byte	0x3f
 5037 1500 29       		.uleb128 0x29
 5038 1501 01       		.uleb128 0x1
 5039 1502 50       		.byte	0x50
 5040 1503 02       		.uleb128 0x2
 5041 1504 75       		.byte	0x75
 5042 1505 00       		.sleb128 0
 5043 1506 00       		.byte	0
 5044 1507 31       		.uleb128 0x31
 5045 1508 42000000 		.4byte	.LVL63
 5046 150c F10F0000 		.4byte	0xff1
 5047 1510 27150000 		.4byte	0x1527
 5048 1514 29       		.uleb128 0x29
 5049 1515 01       		.uleb128 0x1
 5050 1516 52       		.byte	0x52
 5051 1517 02       		.uleb128 0x2
 5052 1518 08       		.byte	0x8
 5053 1519 78       		.byte	0x78
 5054 151a 29       		.uleb128 0x29
 5055 151b 01       		.uleb128 0x1
 5056 151c 51       		.byte	0x51
 5057 151d 02       		.uleb128 0x2
 5058 151e 08       		.byte	0x8
 5059 151f 7F       		.byte	0x7f
 5060 1520 29       		.uleb128 0x29
 5061 1521 01       		.uleb128 0x1
 5062 1522 50       		.byte	0x50
 5063 1523 02       		.uleb128 0x2
 5064 1524 75       		.byte	0x75
 5065 1525 00       		.sleb128 0
 5066 1526 00       		.byte	0
 5067 1527 31       		.uleb128 0x31
 5068 1528 4E000000 		.4byte	.LVL64
 5069 152c F10F0000 		.4byte	0xff1
 5070 1530 47150000 		.4byte	0x1547
 5071 1534 29       		.uleb128 0x29
ARM GAS  /var/folders/c6/c789hm653lg9vtl73krp73tm0000gn/T//cc3LgWEg.s 			page 142


 5072 1535 01       		.uleb128 0x1
 5073 1536 52       		.byte	0x52
 5074 1537 02       		.uleb128 0x2
 5075 1538 08       		.byte	0x8
 5076 1539 68       		.byte	0x68
 5077 153a 29       		.uleb128 0x29
 5078 153b 01       		.uleb128 0x1
 5079 153c 51       		.byte	0x51
 5080 153d 02       		.uleb128 0x2
 5081 153e 08       		.byte	0x8
 5082 153f 77       		.byte	0x77
 5083 1540 29       		.uleb128 0x29
 5084 1541 01       		.uleb128 0x1
 5085 1542 50       		.byte	0x50
 5086 1543 02       		.uleb128 0x2
 5087 1544 75       		.byte	0x75
 5088 1545 00       		.sleb128 0
 5089 1546 00       		.byte	0
 5090 1547 31       		.uleb128 0x31
 5091 1548 5A000000 		.4byte	.LVL65
 5092 154c F10F0000 		.4byte	0xff1
 5093 1550 67150000 		.4byte	0x1567
 5094 1554 29       		.uleb128 0x29
 5095 1555 01       		.uleb128 0x1
 5096 1556 52       		.byte	0x52
 5097 1557 02       		.uleb128 0x2
 5098 1558 08       		.byte	0x8
 5099 1559 38       		.byte	0x38
 5100 155a 29       		.uleb128 0x29
 5101 155b 01       		.uleb128 0x1
 5102 155c 51       		.byte	0x51
 5103 155d 02       		.uleb128 0x2
 5104 155e 08       		.byte	0x8
 5105 155f 3F       		.byte	0x3f
 5106 1560 29       		.uleb128 0x29
 5107 1561 01       		.uleb128 0x1
 5108 1562 50       		.byte	0x50
 5109 1563 02       		.uleb128 0x2
 5110 1564 75       		.byte	0x75
 5111 1565 00       		.sleb128 0
 5112 1566 00       		.byte	0
 5113 1567 31       		.uleb128 0x31
 5114 1568 66000000 		.4byte	.LVL66
 5115 156c F10F0000 		.4byte	0xff1
 5116 1570 87150000 		.4byte	0x1587
 5117 1574 29       		.uleb128 0x29
 5118 1575 01       		.uleb128 0x1
 5119 1576 52       		.byte	0x52
 5120 1577 02       		.uleb128 0x2
 5121 1578 08       		.byte	0x8
 5122 1579 40       		.byte	0x40
 5123 157a 29       		.uleb128 0x29
 5124 157b 01       		.uleb128 0x1
 5125 157c 51       		.byte	0x51
 5126 157d 02       		.uleb128 0x2
 5127 157e 08       		.byte	0x8
 5128 157f 47       		.byte	0x47
ARM GAS  /var/folders/c6/c789hm653lg9vtl73krp73tm0000gn/T//cc3LgWEg.s 			page 143


 5129 1580 29       		.uleb128 0x29
 5130 1581 01       		.uleb128 0x1
 5131 1582 50       		.byte	0x50
 5132 1583 02       		.uleb128 0x2
 5133 1584 75       		.byte	0x75
 5134 1585 00       		.sleb128 0
 5135 1586 00       		.byte	0
 5136 1587 31       		.uleb128 0x31
 5137 1588 72000000 		.4byte	.LVL67
 5138 158c F10F0000 		.4byte	0xff1
 5139 1590 A7150000 		.4byte	0x15a7
 5140 1594 29       		.uleb128 0x29
 5141 1595 01       		.uleb128 0x1
 5142 1596 52       		.byte	0x52
 5143 1597 02       		.uleb128 0x2
 5144 1598 08       		.byte	0x8
 5145 1599 48       		.byte	0x48
 5146 159a 29       		.uleb128 0x29
 5147 159b 01       		.uleb128 0x1
 5148 159c 51       		.byte	0x51
 5149 159d 02       		.uleb128 0x2
 5150 159e 08       		.byte	0x8
 5151 159f 4F       		.byte	0x4f
 5152 15a0 29       		.uleb128 0x29
 5153 15a1 01       		.uleb128 0x1
 5154 15a2 50       		.byte	0x50
 5155 15a3 02       		.uleb128 0x2
 5156 15a4 75       		.byte	0x75
 5157 15a5 00       		.sleb128 0
 5158 15a6 00       		.byte	0
 5159 15a7 31       		.uleb128 0x31
 5160 15a8 7E000000 		.4byte	.LVL68
 5161 15ac F10F0000 		.4byte	0xff1
 5162 15b0 C7150000 		.4byte	0x15c7
 5163 15b4 29       		.uleb128 0x29
 5164 15b5 01       		.uleb128 0x1
 5165 15b6 52       		.byte	0x52
 5166 15b7 02       		.uleb128 0x2
 5167 15b8 08       		.byte	0x8
 5168 15b9 50       		.byte	0x50
 5169 15ba 29       		.uleb128 0x29
 5170 15bb 01       		.uleb128 0x1
 5171 15bc 51       		.byte	0x51
 5172 15bd 02       		.uleb128 0x2
 5173 15be 08       		.byte	0x8
 5174 15bf 57       		.byte	0x57
 5175 15c0 29       		.uleb128 0x29
 5176 15c1 01       		.uleb128 0x1
 5177 15c2 50       		.byte	0x50
 5178 15c3 02       		.uleb128 0x2
 5179 15c4 75       		.byte	0x75
 5180 15c5 00       		.sleb128 0
 5181 15c6 00       		.byte	0
 5182 15c7 31       		.uleb128 0x31
 5183 15c8 8A000000 		.4byte	.LVL69
 5184 15cc F10F0000 		.4byte	0xff1
 5185 15d0 E7150000 		.4byte	0x15e7
ARM GAS  /var/folders/c6/c789hm653lg9vtl73krp73tm0000gn/T//cc3LgWEg.s 			page 144


 5186 15d4 29       		.uleb128 0x29
 5187 15d5 01       		.uleb128 0x1
 5188 15d6 52       		.byte	0x52
 5189 15d7 02       		.uleb128 0x2
 5190 15d8 08       		.byte	0x8
 5191 15d9 58       		.byte	0x58
 5192 15da 29       		.uleb128 0x29
 5193 15db 01       		.uleb128 0x1
 5194 15dc 51       		.byte	0x51
 5195 15dd 02       		.uleb128 0x2
 5196 15de 08       		.byte	0x8
 5197 15df 5F       		.byte	0x5f
 5198 15e0 29       		.uleb128 0x29
 5199 15e1 01       		.uleb128 0x1
 5200 15e2 50       		.byte	0x50
 5201 15e3 02       		.uleb128 0x2
 5202 15e4 75       		.byte	0x75
 5203 15e5 00       		.sleb128 0
 5204 15e6 00       		.byte	0
 5205 15e7 31       		.uleb128 0x31
 5206 15e8 96000000 		.4byte	.LVL70
 5207 15ec F10F0000 		.4byte	0xff1
 5208 15f0 07160000 		.4byte	0x1607
 5209 15f4 29       		.uleb128 0x29
 5210 15f5 01       		.uleb128 0x1
 5211 15f6 52       		.byte	0x52
 5212 15f7 02       		.uleb128 0x2
 5213 15f8 08       		.byte	0x8
 5214 15f9 60       		.byte	0x60
 5215 15fa 29       		.uleb128 0x29
 5216 15fb 01       		.uleb128 0x1
 5217 15fc 51       		.byte	0x51
 5218 15fd 02       		.uleb128 0x2
 5219 15fe 08       		.byte	0x8
 5220 15ff 67       		.byte	0x67
 5221 1600 29       		.uleb128 0x29
 5222 1601 01       		.uleb128 0x1
 5223 1602 50       		.byte	0x50
 5224 1603 02       		.uleb128 0x2
 5225 1604 75       		.byte	0x75
 5226 1605 00       		.sleb128 0
 5227 1606 00       		.byte	0
 5228 1607 31       		.uleb128 0x31
 5229 1608 A2000000 		.4byte	.LVL71
 5230 160c F10F0000 		.4byte	0xff1
 5231 1610 27160000 		.4byte	0x1627
 5232 1614 29       		.uleb128 0x29
 5233 1615 01       		.uleb128 0x1
 5234 1616 52       		.byte	0x52
 5235 1617 02       		.uleb128 0x2
 5236 1618 08       		.byte	0x8
 5237 1619 34       		.byte	0x34
 5238 161a 29       		.uleb128 0x29
 5239 161b 01       		.uleb128 0x1
 5240 161c 51       		.byte	0x51
 5241 161d 02       		.uleb128 0x2
 5242 161e 08       		.byte	0x8
ARM GAS  /var/folders/c6/c789hm653lg9vtl73krp73tm0000gn/T//cc3LgWEg.s 			page 145


 5243 161f 37       		.byte	0x37
 5244 1620 29       		.uleb128 0x29
 5245 1621 01       		.uleb128 0x1
 5246 1622 50       		.byte	0x50
 5247 1623 02       		.uleb128 0x2
 5248 1624 75       		.byte	0x75
 5249 1625 00       		.sleb128 0
 5250 1626 00       		.byte	0
 5251 1627 31       		.uleb128 0x31
 5252 1628 AE000000 		.4byte	.LVL72
 5253 162c F10F0000 		.4byte	0xff1
 5254 1630 47160000 		.4byte	0x1647
 5255 1634 29       		.uleb128 0x29
 5256 1635 01       		.uleb128 0x1
 5257 1636 52       		.byte	0x52
 5258 1637 02       		.uleb128 0x2
 5259 1638 08       		.byte	0x8
 5260 1639 30       		.byte	0x30
 5261 163a 29       		.uleb128 0x29
 5262 163b 01       		.uleb128 0x1
 5263 163c 51       		.byte	0x51
 5264 163d 02       		.uleb128 0x2
 5265 163e 08       		.byte	0x8
 5266 163f 33       		.byte	0x33
 5267 1640 29       		.uleb128 0x29
 5268 1641 01       		.uleb128 0x1
 5269 1642 50       		.byte	0x50
 5270 1643 02       		.uleb128 0x2
 5271 1644 75       		.byte	0x75
 5272 1645 00       		.sleb128 0
 5273 1646 00       		.byte	0
 5274 1647 31       		.uleb128 0x31
 5275 1648 BA000000 		.4byte	.LVL73
 5276 164c F10F0000 		.4byte	0xff1
 5277 1650 66160000 		.4byte	0x1666
 5278 1654 29       		.uleb128 0x29
 5279 1655 01       		.uleb128 0x1
 5280 1656 52       		.byte	0x52
 5281 1657 01       		.uleb128 0x1
 5282 1658 40       		.byte	0x40
 5283 1659 29       		.uleb128 0x29
 5284 165a 01       		.uleb128 0x1
 5285 165b 51       		.byte	0x51
 5286 165c 02       		.uleb128 0x2
 5287 165d 08       		.byte	0x8
 5288 165e 2F       		.byte	0x2f
 5289 165f 29       		.uleb128 0x29
 5290 1660 01       		.uleb128 0x1
 5291 1661 50       		.byte	0x50
 5292 1662 02       		.uleb128 0x2
 5293 1663 75       		.byte	0x75
 5294 1664 00       		.sleb128 0
 5295 1665 00       		.byte	0
 5296 1666 28       		.uleb128 0x28
 5297 1667 C4000000 		.4byte	.LVL76
 5298 166b B3210000 		.4byte	0x21b3
 5299 166f 29       		.uleb128 0x29
ARM GAS  /var/folders/c6/c789hm653lg9vtl73krp73tm0000gn/T//cc3LgWEg.s 			page 146


 5300 1670 01       		.uleb128 0x1
 5301 1671 50       		.byte	0x50
 5302 1672 05       		.uleb128 0x5
 5303 1673 03       		.byte	0x3
 5304 1674 00000000 		.4byte	.LANCHOR4
 5305 1678 00       		.byte	0
 5306 1679 00       		.byte	0
 5307 167a 0A       		.uleb128 0xa
 5308 167b 04       		.byte	0x4
 5309 167c E10A0000 		.4byte	0xae1
 5310 1680 19       		.uleb128 0x19
 5311 1681 47140000 		.4byte	0x1447
 5312 1685 32       		.uleb128 0x32
 5313 1686 65010000 		.4byte	.LASF216
 5314 168a 01       		.byte	0x1
 5315 168b CE       		.byte	0xce
 5316 168c 00000000 		.4byte	.LFB265
 5317 1690 A0010000 		.4byte	.LFE265-.LFB265
 5318 1694 01       		.uleb128 0x1
 5319 1695 9C       		.byte	0x9c
 5320 1696 B41A0000 		.4byte	0x1ab4
 5321 169a 24       		.uleb128 0x24
 5322 169b 9F010000 		.4byte	.LASF209
 5323 169f 01       		.byte	0x1
 5324 16a0 CE       		.byte	0xce
 5325 16a1 36140000 		.4byte	0x1436
 5326 16a5 8B030000 		.4byte	.LLST19
 5327 16a9 24       		.uleb128 0x24
 5328 16aa AE0A0000 		.4byte	.LASF217
 5329 16ae 01       		.byte	0x1
 5330 16af CF       		.byte	0xcf
 5331 16b0 B41A0000 		.4byte	0x1ab4
 5332 16b4 CC030000 		.4byte	.LLST20
 5333 16b8 33       		.uleb128 0x33
 5334 16b9 63736400 		.ascii	"csd\000"
 5335 16bd 01       		.byte	0x1
 5336 16be D0       		.byte	0xd0
 5337 16bf D10F0000 		.4byte	0xfd1
 5338 16c3 00040000 		.4byte	.LLST21
 5339 16c7 27       		.uleb128 0x27
 5340 16c8 58020000 		.4byte	.LASF218
 5341 16cc BA1A0000 		.4byte	0x1aba
 5342 16d0 05       		.uleb128 0x5
 5343 16d1 03       		.byte	0x3
 5344 16d2 00000000 		.4byte	__func__.7839
 5345 16d6 31       		.uleb128 0x31
 5346 16d7 1E000000 		.4byte	.LVL80
 5347 16db F10F0000 		.4byte	0xff1
 5348 16df F6160000 		.4byte	0x16f6
 5349 16e3 29       		.uleb128 0x29
 5350 16e4 01       		.uleb128 0x1
 5351 16e5 52       		.byte	0x52
 5352 16e6 02       		.uleb128 0x2
 5353 16e7 08       		.byte	0x8
 5354 16e8 3E       		.byte	0x3e
 5355 16e9 29       		.uleb128 0x29
 5356 16ea 01       		.uleb128 0x1
ARM GAS  /var/folders/c6/c789hm653lg9vtl73krp73tm0000gn/T//cc3LgWEg.s 			page 147


 5357 16eb 51       		.byte	0x51
 5358 16ec 02       		.uleb128 0x2
 5359 16ed 08       		.byte	0x8
 5360 16ee 49       		.byte	0x49
 5361 16ef 29       		.uleb128 0x29
 5362 16f0 01       		.uleb128 0x1
 5363 16f1 50       		.byte	0x50
 5364 16f2 02       		.uleb128 0x2
 5365 16f3 75       		.byte	0x75
 5366 16f4 00       		.sleb128 0
 5367 16f5 00       		.byte	0
 5368 16f6 31       		.uleb128 0x31
 5369 16f7 2A000000 		.4byte	.LVL81
 5370 16fb F10F0000 		.4byte	0xff1
 5371 16ff 16170000 		.4byte	0x1716
 5372 1703 29       		.uleb128 0x29
 5373 1704 01       		.uleb128 0x1
 5374 1705 52       		.byte	0x52
 5375 1706 02       		.uleb128 0x2
 5376 1707 08       		.byte	0x8
 5377 1708 2F       		.byte	0x2f
 5378 1709 29       		.uleb128 0x29
 5379 170a 01       		.uleb128 0x1
 5380 170b 51       		.byte	0x51
 5381 170c 02       		.uleb128 0x2
 5382 170d 08       		.byte	0x8
 5383 170e 31       		.byte	0x31
 5384 170f 29       		.uleb128 0x29
 5385 1710 01       		.uleb128 0x1
 5386 1711 50       		.byte	0x50
 5387 1712 02       		.uleb128 0x2
 5388 1713 75       		.byte	0x75
 5389 1714 00       		.sleb128 0
 5390 1715 00       		.byte	0
 5391 1716 31       		.uleb128 0x31
 5392 1717 36000000 		.4byte	.LVL82
 5393 171b F10F0000 		.4byte	0xff1
 5394 171f 36170000 		.4byte	0x1736
 5395 1723 29       		.uleb128 0x29
 5396 1724 01       		.uleb128 0x1
 5397 1725 52       		.byte	0x52
 5398 1726 02       		.uleb128 0x2
 5399 1727 08       		.byte	0x8
 5400 1728 54       		.byte	0x54
 5401 1729 29       		.uleb128 0x29
 5402 172a 01       		.uleb128 0x1
 5403 172b 51       		.byte	0x51
 5404 172c 02       		.uleb128 0x2
 5405 172d 08       		.byte	0x8
 5406 172e 5F       		.byte	0x5f
 5407 172f 29       		.uleb128 0x29
 5408 1730 01       		.uleb128 0x1
 5409 1731 50       		.byte	0x50
 5410 1732 02       		.uleb128 0x2
 5411 1733 75       		.byte	0x75
 5412 1734 00       		.sleb128 0
 5413 1735 00       		.byte	0
ARM GAS  /var/folders/c6/c789hm653lg9vtl73krp73tm0000gn/T//cc3LgWEg.s 			page 148


 5414 1736 31       		.uleb128 0x31
 5415 1737 42000000 		.4byte	.LVL83
 5416 173b F10F0000 		.4byte	0xff1
 5417 173f 54170000 		.4byte	0x1754
 5418 1743 29       		.uleb128 0x29
 5419 1744 01       		.uleb128 0x1
 5420 1745 52       		.byte	0x52
 5421 1746 01       		.uleb128 0x1
 5422 1747 3E       		.byte	0x3e
 5423 1748 29       		.uleb128 0x29
 5424 1749 01       		.uleb128 0x1
 5425 174a 51       		.byte	0x51
 5426 174b 01       		.uleb128 0x1
 5427 174c 3E       		.byte	0x3e
 5428 174d 29       		.uleb128 0x29
 5429 174e 01       		.uleb128 0x1
 5430 174f 50       		.byte	0x50
 5431 1750 02       		.uleb128 0x2
 5432 1751 75       		.byte	0x75
 5433 1752 00       		.sleb128 0
 5434 1753 00       		.byte	0
 5435 1754 31       		.uleb128 0x31
 5436 1755 4E000000 		.4byte	.LVL84
 5437 1759 F10F0000 		.4byte	0xff1
 5438 175d 72170000 		.4byte	0x1772
 5439 1761 29       		.uleb128 0x29
 5440 1762 01       		.uleb128 0x1
 5441 1763 52       		.byte	0x52
 5442 1764 01       		.uleb128 0x1
 5443 1765 31       		.byte	0x31
 5444 1766 29       		.uleb128 0x29
 5445 1767 01       		.uleb128 0x1
 5446 1768 51       		.byte	0x51
 5447 1769 01       		.uleb128 0x1
 5448 176a 37       		.byte	0x37
 5449 176b 29       		.uleb128 0x29
 5450 176c 01       		.uleb128 0x1
 5451 176d 50       		.byte	0x50
 5452 176e 02       		.uleb128 0x2
 5453 176f 75       		.byte	0x75
 5454 1770 00       		.sleb128 0
 5455 1771 00       		.byte	0
 5456 1772 31       		.uleb128 0x31
 5457 1773 5C000000 		.4byte	.LVL85
 5458 1777 F10F0000 		.4byte	0xff1
 5459 177b 92170000 		.4byte	0x1792
 5460 177f 29       		.uleb128 0x29
 5461 1780 01       		.uleb128 0x1
 5462 1781 52       		.byte	0x52
 5463 1782 02       		.uleb128 0x2
 5464 1783 08       		.byte	0x8
 5465 1784 7E       		.byte	0x7e
 5466 1785 29       		.uleb128 0x29
 5467 1786 01       		.uleb128 0x1
 5468 1787 51       		.byte	0x51
 5469 1788 02       		.uleb128 0x2
 5470 1789 08       		.byte	0x8
ARM GAS  /var/folders/c6/c789hm653lg9vtl73krp73tm0000gn/T//cc3LgWEg.s 			page 149


 5471 178a 7F       		.byte	0x7f
 5472 178b 29       		.uleb128 0x29
 5473 178c 01       		.uleb128 0x1
 5474 178d 50       		.byte	0x50
 5475 178e 02       		.uleb128 0x2
 5476 178f 75       		.byte	0x75
 5477 1790 00       		.sleb128 0
 5478 1791 00       		.byte	0
 5479 1792 31       		.uleb128 0x31
 5480 1793 68000000 		.4byte	.LVL86
 5481 1797 F10F0000 		.4byte	0xff1
 5482 179b B2170000 		.4byte	0x17b2
 5483 179f 29       		.uleb128 0x29
 5484 17a0 01       		.uleb128 0x1
 5485 17a1 52       		.byte	0x52
 5486 17a2 02       		.uleb128 0x2
 5487 17a3 08       		.byte	0x8
 5488 17a4 4C       		.byte	0x4c
 5489 17a5 29       		.uleb128 0x29
 5490 17a6 01       		.uleb128 0x1
 5491 17a7 51       		.byte	0x51
 5492 17a8 02       		.uleb128 0x2
 5493 17a9 08       		.byte	0x8
 5494 17aa 4C       		.byte	0x4c
 5495 17ab 29       		.uleb128 0x29
 5496 17ac 01       		.uleb128 0x1
 5497 17ad 50       		.byte	0x50
 5498 17ae 02       		.uleb128 0x2
 5499 17af 75       		.byte	0x75
 5500 17b0 00       		.sleb128 0
 5501 17b1 00       		.byte	0
 5502 17b2 31       		.uleb128 0x31
 5503 17b3 74000000 		.4byte	.LVL87
 5504 17b7 F10F0000 		.4byte	0xff1
 5505 17bb D0170000 		.4byte	0x17d0
 5506 17bf 29       		.uleb128 0x29
 5507 17c0 01       		.uleb128 0x1
 5508 17c1 52       		.byte	0x52
 5509 17c2 01       		.uleb128 0x1
 5510 17c3 38       		.byte	0x38
 5511 17c4 29       		.uleb128 0x29
 5512 17c5 01       		.uleb128 0x1
 5513 17c6 51       		.byte	0x51
 5514 17c7 01       		.uleb128 0x1
 5515 17c8 39       		.byte	0x39
 5516 17c9 29       		.uleb128 0x29
 5517 17ca 01       		.uleb128 0x1
 5518 17cb 50       		.byte	0x50
 5519 17cc 02       		.uleb128 0x2
 5520 17cd 75       		.byte	0x75
 5521 17ce 00       		.sleb128 0
 5522 17cf 00       		.byte	0
 5523 17d0 31       		.uleb128 0x31
 5524 17d1 82000000 		.4byte	.LVL88
 5525 17d5 F10F0000 		.4byte	0xff1
 5526 17d9 F0170000 		.4byte	0x17f0
 5527 17dd 29       		.uleb128 0x29
ARM GAS  /var/folders/c6/c789hm653lg9vtl73krp73tm0000gn/T//cc3LgWEg.s 			page 150


 5528 17de 01       		.uleb128 0x1
 5529 17df 52       		.byte	0x52
 5530 17e0 02       		.uleb128 0x2
 5531 17e1 08       		.byte	0x8
 5532 17e2 25       		.byte	0x25
 5533 17e3 29       		.uleb128 0x29
 5534 17e4 01       		.uleb128 0x1
 5535 17e5 51       		.byte	0x51
 5536 17e6 02       		.uleb128 0x2
 5537 17e7 08       		.byte	0x8
 5538 17e8 29       		.byte	0x29
 5539 17e9 29       		.uleb128 0x29
 5540 17ea 01       		.uleb128 0x1
 5541 17eb 50       		.byte	0x50
 5542 17ec 02       		.uleb128 0x2
 5543 17ed 75       		.byte	0x75
 5544 17ee 00       		.sleb128 0
 5545 17ef 00       		.byte	0
 5546 17f0 31       		.uleb128 0x31
 5547 17f1 8E000000 		.4byte	.LVL89
 5548 17f5 F10F0000 		.4byte	0xff1
 5549 17f9 10180000 		.4byte	0x1810
 5550 17fd 29       		.uleb128 0x29
 5551 17fe 01       		.uleb128 0x1
 5552 17ff 52       		.byte	0x52
 5553 1800 02       		.uleb128 0x2
 5554 1801 08       		.byte	0x8
 5555 1802 2A       		.byte	0x2a
 5556 1803 29       		.uleb128 0x29
 5557 1804 01       		.uleb128 0x1
 5558 1805 51       		.byte	0x51
 5559 1806 02       		.uleb128 0x2
 5560 1807 08       		.byte	0x8
 5561 1808 2E       		.byte	0x2e
 5562 1809 29       		.uleb128 0x29
 5563 180a 01       		.uleb128 0x1
 5564 180b 50       		.byte	0x50
 5565 180c 02       		.uleb128 0x2
 5566 180d 75       		.byte	0x75
 5567 180e 00       		.sleb128 0
 5568 180f 00       		.byte	0
 5569 1810 31       		.uleb128 0x31
 5570 1811 9A000000 		.4byte	.LVL90
 5571 1815 F10F0000 		.4byte	0xff1
 5572 1819 2E180000 		.4byte	0x182e
 5573 181d 29       		.uleb128 0x29
 5574 181e 01       		.uleb128 0x1
 5575 181f 52       		.byte	0x52
 5576 1820 01       		.uleb128 0x1
 5577 1821 3A       		.byte	0x3a
 5578 1822 29       		.uleb128 0x29
 5579 1823 01       		.uleb128 0x1
 5580 1824 51       		.byte	0x51
 5581 1825 01       		.uleb128 0x1
 5582 1826 3B       		.byte	0x3b
 5583 1827 29       		.uleb128 0x29
 5584 1828 01       		.uleb128 0x1
ARM GAS  /var/folders/c6/c789hm653lg9vtl73krp73tm0000gn/T//cc3LgWEg.s 			page 151


 5585 1829 50       		.byte	0x50
 5586 182a 02       		.uleb128 0x2
 5587 182b 75       		.byte	0x75
 5588 182c 00       		.sleb128 0
 5589 182d 00       		.byte	0
 5590 182e 31       		.uleb128 0x31
 5591 182f A8000000 		.4byte	.LVL91
 5592 1833 F10F0000 		.4byte	0xff1
 5593 1837 4C180000 		.4byte	0x184c
 5594 183b 29       		.uleb128 0x29
 5595 183c 01       		.uleb128 0x1
 5596 183d 52       		.byte	0x52
 5597 183e 01       		.uleb128 0x1
 5598 183f 3F       		.byte	0x3f
 5599 1840 29       		.uleb128 0x29
 5600 1841 01       		.uleb128 0x1
 5601 1842 51       		.byte	0x51
 5602 1843 01       		.uleb128 0x1
 5603 1844 3F       		.byte	0x3f
 5604 1845 29       		.uleb128 0x29
 5605 1846 01       		.uleb128 0x1
 5606 1847 50       		.byte	0x50
 5607 1848 02       		.uleb128 0x2
 5608 1849 75       		.byte	0x75
 5609 184a 00       		.sleb128 0
 5610 184b 00       		.byte	0
 5611 184c 31       		.uleb128 0x31
 5612 184d B4000000 		.4byte	.LVL92
 5613 1851 F10F0000 		.4byte	0xff1
 5614 1855 6C180000 		.4byte	0x186c
 5615 1859 29       		.uleb128 0x29
 5616 185a 01       		.uleb128 0x1
 5617 185b 52       		.byte	0x52
 5618 185c 02       		.uleb128 0x2
 5619 185d 08       		.byte	0x8
 5620 185e 68       		.byte	0x68
 5621 185f 29       		.uleb128 0x29
 5622 1860 01       		.uleb128 0x1
 5623 1861 51       		.byte	0x51
 5624 1862 02       		.uleb128 0x2
 5625 1863 08       		.byte	0x8
 5626 1864 6F       		.byte	0x6f
 5627 1865 29       		.uleb128 0x29
 5628 1866 01       		.uleb128 0x1
 5629 1867 50       		.byte	0x50
 5630 1868 02       		.uleb128 0x2
 5631 1869 75       		.byte	0x75
 5632 186a 00       		.sleb128 0
 5633 186b 00       		.byte	0
 5634 186c 31       		.uleb128 0x31
 5635 186d C0000000 		.4byte	.LVL93
 5636 1871 F10F0000 		.4byte	0xff1
 5637 1875 8A180000 		.4byte	0x188a
 5638 1879 29       		.uleb128 0x29
 5639 187a 01       		.uleb128 0x1
 5640 187b 52       		.byte	0x52
 5641 187c 01       		.uleb128 0x1
ARM GAS  /var/folders/c6/c789hm653lg9vtl73krp73tm0000gn/T//cc3LgWEg.s 			page 152


 5642 187d 3D       		.byte	0x3d
 5643 187e 29       		.uleb128 0x29
 5644 187f 01       		.uleb128 0x1
 5645 1880 51       		.byte	0x51
 5646 1881 01       		.uleb128 0x1
 5647 1882 3D       		.byte	0x3d
 5648 1883 29       		.uleb128 0x29
 5649 1884 01       		.uleb128 0x1
 5650 1885 50       		.byte	0x50
 5651 1886 02       		.uleb128 0x2
 5652 1887 75       		.byte	0x75
 5653 1888 00       		.sleb128 0
 5654 1889 00       		.byte	0
 5655 188a 31       		.uleb128 0x31
 5656 188b CE000000 		.4byte	.LVL94
 5657 188f F10F0000 		.4byte	0xff1
 5658 1893 A8180000 		.4byte	0x18a8
 5659 1897 29       		.uleb128 0x29
 5660 1898 01       		.uleb128 0x1
 5661 1899 52       		.byte	0x52
 5662 189a 01       		.uleb128 0x1
 5663 189b 4A       		.byte	0x4a
 5664 189c 29       		.uleb128 0x29
 5665 189d 01       		.uleb128 0x1
 5666 189e 51       		.byte	0x51
 5667 189f 01       		.uleb128 0x1
 5668 18a0 4C       		.byte	0x4c
 5669 18a1 29       		.uleb128 0x29
 5670 18a2 01       		.uleb128 0x1
 5671 18a3 50       		.byte	0x50
 5672 18a4 02       		.uleb128 0x2
 5673 18a5 75       		.byte	0x75
 5674 18a6 00       		.sleb128 0
 5675 18a7 00       		.byte	0
 5676 18a8 31       		.uleb128 0x31
 5677 18a9 DA000000 		.4byte	.LVL95
 5678 18ad F10F0000 		.4byte	0xff1
 5679 18b1 C8180000 		.4byte	0x18c8
 5680 18b5 29       		.uleb128 0x29
 5681 18b6 01       		.uleb128 0x1
 5682 18b7 52       		.byte	0x52
 5683 18b8 02       		.uleb128 0x2
 5684 18b9 08       		.byte	0x8
 5685 18ba 50       		.byte	0x50
 5686 18bb 29       		.uleb128 0x29
 5687 18bc 01       		.uleb128 0x1
 5688 18bd 51       		.byte	0x51
 5689 18be 02       		.uleb128 0x2
 5690 18bf 08       		.byte	0x8
 5691 18c0 53       		.byte	0x53
 5692 18c1 29       		.uleb128 0x29
 5693 18c2 01       		.uleb128 0x1
 5694 18c3 50       		.byte	0x50
 5695 18c4 02       		.uleb128 0x2
 5696 18c5 75       		.byte	0x75
 5697 18c6 00       		.sleb128 0
 5698 18c7 00       		.byte	0
ARM GAS  /var/folders/c6/c789hm653lg9vtl73krp73tm0000gn/T//cc3LgWEg.s 			page 153


 5699 18c8 31       		.uleb128 0x31
 5700 18c9 E6000000 		.4byte	.LVL96
 5701 18cd F10F0000 		.4byte	0xff1
 5702 18d1 E8180000 		.4byte	0x18e8
 5703 18d5 29       		.uleb128 0x29
 5704 18d6 01       		.uleb128 0x1
 5705 18d7 52       		.byte	0x52
 5706 18d8 02       		.uleb128 0x2
 5707 18d9 08       		.byte	0x8
 5708 18da 4F       		.byte	0x4f
 5709 18db 29       		.uleb128 0x29
 5710 18dc 01       		.uleb128 0x1
 5711 18dd 51       		.byte	0x51
 5712 18de 02       		.uleb128 0x2
 5713 18df 08       		.byte	0x8
 5714 18e0 4F       		.byte	0x4f
 5715 18e1 29       		.uleb128 0x29
 5716 18e2 01       		.uleb128 0x1
 5717 18e3 50       		.byte	0x50
 5718 18e4 02       		.uleb128 0x2
 5719 18e5 75       		.byte	0x75
 5720 18e6 00       		.sleb128 0
 5721 18e7 00       		.byte	0
 5722 18e8 31       		.uleb128 0x31
 5723 18e9 F2000000 		.4byte	.LVL97
 5724 18ed F10F0000 		.4byte	0xff1
 5725 18f1 08190000 		.4byte	0x1908
 5726 18f5 29       		.uleb128 0x29
 5727 18f6 01       		.uleb128 0x1
 5728 18f7 52       		.byte	0x52
 5729 18f8 02       		.uleb128 0x2
 5730 18f9 08       		.byte	0x8
 5731 18fa 4D       		.byte	0x4d
 5732 18fb 29       		.uleb128 0x29
 5733 18fc 01       		.uleb128 0x1
 5734 18fd 51       		.byte	0x51
 5735 18fe 02       		.uleb128 0x2
 5736 18ff 08       		.byte	0x8
 5737 1900 4D       		.byte	0x4d
 5738 1901 29       		.uleb128 0x29
 5739 1902 01       		.uleb128 0x1
 5740 1903 50       		.byte	0x50
 5741 1904 02       		.uleb128 0x2
 5742 1905 75       		.byte	0x75
 5743 1906 00       		.sleb128 0
 5744 1907 00       		.byte	0
 5745 1908 31       		.uleb128 0x31
 5746 1909 FE000000 		.4byte	.LVL98
 5747 190d F10F0000 		.4byte	0xff1
 5748 1911 28190000 		.4byte	0x1928
 5749 1915 29       		.uleb128 0x29
 5750 1916 01       		.uleb128 0x1
 5751 1917 52       		.byte	0x52
 5752 1918 02       		.uleb128 0x2
 5753 1919 08       		.byte	0x8
 5754 191a 7A       		.byte	0x7a
 5755 191b 29       		.uleb128 0x29
ARM GAS  /var/folders/c6/c789hm653lg9vtl73krp73tm0000gn/T//cc3LgWEg.s 			page 154


 5756 191c 01       		.uleb128 0x1
 5757 191d 51       		.byte	0x51
 5758 191e 02       		.uleb128 0x2
 5759 191f 08       		.byte	0x8
 5760 1920 7D       		.byte	0x7d
 5761 1921 29       		.uleb128 0x29
 5762 1922 01       		.uleb128 0x1
 5763 1923 50       		.byte	0x50
 5764 1924 02       		.uleb128 0x2
 5765 1925 75       		.byte	0x75
 5766 1926 00       		.sleb128 0
 5767 1927 00       		.byte	0
 5768 1928 31       		.uleb128 0x31
 5769 1929 0A010000 		.4byte	.LVL99
 5770 192d F10F0000 		.4byte	0xff1
 5771 1931 48190000 		.4byte	0x1948
 5772 1935 29       		.uleb128 0x29
 5773 1936 01       		.uleb128 0x1
 5774 1937 52       		.byte	0x52
 5775 1938 02       		.uleb128 0x2
 5776 1939 08       		.byte	0x8
 5777 193a 70       		.byte	0x70
 5778 193b 29       		.uleb128 0x29
 5779 193c 01       		.uleb128 0x1
 5780 193d 51       		.byte	0x51
 5781 193e 02       		.uleb128 0x2
 5782 193f 08       		.byte	0x8
 5783 1940 77       		.byte	0x77
 5784 1941 29       		.uleb128 0x29
 5785 1942 01       		.uleb128 0x1
 5786 1943 50       		.byte	0x50
 5787 1944 02       		.uleb128 0x2
 5788 1945 75       		.byte	0x75
 5789 1946 00       		.sleb128 0
 5790 1947 00       		.byte	0
 5791 1948 31       		.uleb128 0x31
 5792 1949 16010000 		.4byte	.LVL100
 5793 194d F10F0000 		.4byte	0xff1
 5794 1951 66190000 		.4byte	0x1966
 5795 1955 29       		.uleb128 0x29
 5796 1956 01       		.uleb128 0x1
 5797 1957 52       		.byte	0x52
 5798 1958 01       		.uleb128 0x1
 5799 1959 3C       		.byte	0x3c
 5800 195a 29       		.uleb128 0x29
 5801 195b 01       		.uleb128 0x1
 5802 195c 51       		.byte	0x51
 5803 195d 01       		.uleb128 0x1
 5804 195e 3C       		.byte	0x3c
 5805 195f 29       		.uleb128 0x29
 5806 1960 01       		.uleb128 0x1
 5807 1961 50       		.byte	0x50
 5808 1962 02       		.uleb128 0x2
 5809 1963 75       		.byte	0x75
 5810 1964 00       		.sleb128 0
 5811 1965 00       		.byte	0
 5812 1966 31       		.uleb128 0x31
ARM GAS  /var/folders/c6/c789hm653lg9vtl73krp73tm0000gn/T//cc3LgWEg.s 			page 155


 5813 1967 24010000 		.4byte	.LVL101
 5814 196b F10F0000 		.4byte	0xff1
 5815 196f 86190000 		.4byte	0x1986
 5816 1973 29       		.uleb128 0x29
 5817 1974 01       		.uleb128 0x1
 5818 1975 52       		.byte	0x52
 5819 1976 02       		.uleb128 0x2
 5820 1977 08       		.byte	0x8
 5821 1978 60       		.byte	0x60
 5822 1979 29       		.uleb128 0x29
 5823 197a 01       		.uleb128 0x1
 5824 197b 51       		.byte	0x51
 5825 197c 02       		.uleb128 0x2
 5826 197d 08       		.byte	0x8
 5827 197e 67       		.byte	0x67
 5828 197f 29       		.uleb128 0x29
 5829 1980 01       		.uleb128 0x1
 5830 1981 50       		.byte	0x50
 5831 1982 02       		.uleb128 0x2
 5832 1983 75       		.byte	0x75
 5833 1984 00       		.sleb128 0
 5834 1985 00       		.byte	0
 5835 1986 31       		.uleb128 0x31
 5836 1987 30010000 		.4byte	.LVL102
 5837 198b F10F0000 		.4byte	0xff1
 5838 198f A6190000 		.4byte	0x19a6
 5839 1993 29       		.uleb128 0x29
 5840 1994 01       		.uleb128 0x1
 5841 1995 52       		.byte	0x52
 5842 1996 02       		.uleb128 0x2
 5843 1997 08       		.byte	0x8
 5844 1998 38       		.byte	0x38
 5845 1999 29       		.uleb128 0x29
 5846 199a 01       		.uleb128 0x1
 5847 199b 51       		.byte	0x51
 5848 199c 02       		.uleb128 0x2
 5849 199d 08       		.byte	0x8
 5850 199e 3A       		.byte	0x3a
 5851 199f 29       		.uleb128 0x29
 5852 19a0 01       		.uleb128 0x1
 5853 19a1 50       		.byte	0x50
 5854 19a2 02       		.uleb128 0x2
 5855 19a3 75       		.byte	0x75
 5856 19a4 00       		.sleb128 0
 5857 19a5 00       		.byte	0
 5858 19a6 31       		.uleb128 0x31
 5859 19a7 3C010000 		.4byte	.LVL103
 5860 19ab F10F0000 		.4byte	0xff1
 5861 19af C6190000 		.4byte	0x19c6
 5862 19b3 29       		.uleb128 0x29
 5863 19b4 01       		.uleb128 0x1
 5864 19b5 52       		.byte	0x52
 5865 19b6 02       		.uleb128 0x2
 5866 19b7 08       		.byte	0x8
 5867 19b8 3B       		.byte	0x3b
 5868 19b9 29       		.uleb128 0x29
 5869 19ba 01       		.uleb128 0x1
ARM GAS  /var/folders/c6/c789hm653lg9vtl73krp73tm0000gn/T//cc3LgWEg.s 			page 156


 5870 19bb 51       		.byte	0x51
 5871 19bc 02       		.uleb128 0x2
 5872 19bd 08       		.byte	0x8
 5873 19be 3D       		.byte	0x3d
 5874 19bf 29       		.uleb128 0x29
 5875 19c0 01       		.uleb128 0x1
 5876 19c1 50       		.byte	0x50
 5877 19c2 02       		.uleb128 0x2
 5878 19c3 75       		.byte	0x75
 5879 19c4 00       		.sleb128 0
 5880 19c5 00       		.byte	0
 5881 19c6 31       		.uleb128 0x31
 5882 19c7 48010000 		.4byte	.LVL104
 5883 19cb F10F0000 		.4byte	0xff1
 5884 19cf E6190000 		.4byte	0x19e6
 5885 19d3 29       		.uleb128 0x29
 5886 19d4 01       		.uleb128 0x1
 5887 19d5 52       		.byte	0x52
 5888 19d6 02       		.uleb128 0x2
 5889 19d7 08       		.byte	0x8
 5890 19d8 32       		.byte	0x32
 5891 19d9 29       		.uleb128 0x29
 5892 19da 01       		.uleb128 0x1
 5893 19db 51       		.byte	0x51
 5894 19dc 02       		.uleb128 0x2
 5895 19dd 08       		.byte	0x8
 5896 19de 34       		.byte	0x34
 5897 19df 29       		.uleb128 0x29
 5898 19e0 01       		.uleb128 0x1
 5899 19e1 50       		.byte	0x50
 5900 19e2 02       		.uleb128 0x2
 5901 19e3 75       		.byte	0x75
 5902 19e4 00       		.sleb128 0
 5903 19e5 00       		.byte	0
 5904 19e6 31       		.uleb128 0x31
 5905 19e7 54010000 		.4byte	.LVL105
 5906 19eb F10F0000 		.4byte	0xff1
 5907 19ef 061A0000 		.4byte	0x1a06
 5908 19f3 29       		.uleb128 0x29
 5909 19f4 01       		.uleb128 0x1
 5910 19f5 52       		.byte	0x52
 5911 19f6 02       		.uleb128 0x2
 5912 19f7 08       		.byte	0x8
 5913 19f8 35       		.byte	0x35
 5914 19f9 29       		.uleb128 0x29
 5915 19fa 01       		.uleb128 0x1
 5916 19fb 51       		.byte	0x51
 5917 19fc 02       		.uleb128 0x2
 5918 19fd 08       		.byte	0x8
 5919 19fe 37       		.byte	0x37
 5920 19ff 29       		.uleb128 0x29
 5921 1a00 01       		.uleb128 0x1
 5922 1a01 50       		.byte	0x50
 5923 1a02 02       		.uleb128 0x2
 5924 1a03 75       		.byte	0x75
 5925 1a04 00       		.sleb128 0
 5926 1a05 00       		.byte	0
ARM GAS  /var/folders/c6/c789hm653lg9vtl73krp73tm0000gn/T//cc3LgWEg.s 			page 157


 5927 1a06 31       		.uleb128 0x31
 5928 1a07 60010000 		.4byte	.LVL106
 5929 1a0b F10F0000 		.4byte	0xff1
 5930 1a0f 241A0000 		.4byte	0x1a24
 5931 1a13 29       		.uleb128 0x29
 5932 1a14 01       		.uleb128 0x1
 5933 1a15 52       		.byte	0x52
 5934 1a16 01       		.uleb128 0x1
 5935 1a17 4F       		.byte	0x4f
 5936 1a18 29       		.uleb128 0x29
 5937 1a19 01       		.uleb128 0x1
 5938 1a1a 51       		.byte	0x51
 5939 1a1b 01       		.uleb128 0x1
 5940 1a1c 4F       		.byte	0x4f
 5941 1a1d 29       		.uleb128 0x29
 5942 1a1e 01       		.uleb128 0x1
 5943 1a1f 50       		.byte	0x50
 5944 1a20 02       		.uleb128 0x2
 5945 1a21 75       		.byte	0x75
 5946 1a22 00       		.sleb128 0
 5947 1a23 00       		.byte	0
 5948 1a24 31       		.uleb128 0x31
 5949 1a25 6C010000 		.4byte	.LVL107
 5950 1a29 F10F0000 		.4byte	0xff1
 5951 1a2d 441A0000 		.4byte	0x1a44
 5952 1a31 29       		.uleb128 0x29
 5953 1a32 01       		.uleb128 0x1
 5954 1a33 52       		.byte	0x52
 5955 1a34 02       		.uleb128 0x2
 5956 1a35 08       		.byte	0x8
 5957 1a36 20       		.byte	0x20
 5958 1a37 29       		.uleb128 0x29
 5959 1a38 01       		.uleb128 0x1
 5960 1a39 51       		.byte	0x51
 5961 1a3a 02       		.uleb128 0x2
 5962 1a3b 08       		.byte	0x8
 5963 1a3c 24       		.byte	0x24
 5964 1a3d 29       		.uleb128 0x29
 5965 1a3e 01       		.uleb128 0x1
 5966 1a3f 50       		.byte	0x50
 5967 1a40 02       		.uleb128 0x2
 5968 1a41 75       		.byte	0x75
 5969 1a42 00       		.sleb128 0
 5970 1a43 00       		.byte	0
 5971 1a44 31       		.uleb128 0x31
 5972 1a45 78010000 		.4byte	.LVL108
 5973 1a49 F10F0000 		.4byte	0xff1
 5974 1a4d 621A0000 		.4byte	0x1a62
 5975 1a51 29       		.uleb128 0x29
 5976 1a52 01       		.uleb128 0x1
 5977 1a53 52       		.byte	0x52
 5978 1a54 01       		.uleb128 0x1
 5979 1a55 46       		.byte	0x46
 5980 1a56 29       		.uleb128 0x29
 5981 1a57 01       		.uleb128 0x1
 5982 1a58 51       		.byte	0x51
 5983 1a59 01       		.uleb128 0x1
ARM GAS  /var/folders/c6/c789hm653lg9vtl73krp73tm0000gn/T//cc3LgWEg.s 			page 158


 5984 1a5a 49       		.byte	0x49
 5985 1a5b 29       		.uleb128 0x29
 5986 1a5c 01       		.uleb128 0x1
 5987 1a5d 50       		.byte	0x50
 5988 1a5e 02       		.uleb128 0x2
 5989 1a5f 75       		.byte	0x75
 5990 1a60 00       		.sleb128 0
 5991 1a61 00       		.byte	0
 5992 1a62 31       		.uleb128 0x31
 5993 1a63 84010000 		.4byte	.LVL109
 5994 1a67 F10F0000 		.4byte	0xff1
 5995 1a6b 801A0000 		.4byte	0x1a80
 5996 1a6f 29       		.uleb128 0x29
 5997 1a70 01       		.uleb128 0x1
 5998 1a71 52       		.byte	0x52
 5999 1a72 01       		.uleb128 0x1
 6000 1a73 45       		.byte	0x45
 6001 1a74 29       		.uleb128 0x29
 6002 1a75 01       		.uleb128 0x1
 6003 1a76 51       		.byte	0x51
 6004 1a77 01       		.uleb128 0x1
 6005 1a78 45       		.byte	0x45
 6006 1a79 29       		.uleb128 0x29
 6007 1a7a 01       		.uleb128 0x1
 6008 1a7b 50       		.byte	0x50
 6009 1a7c 02       		.uleb128 0x2
 6010 1a7d 75       		.byte	0x75
 6011 1a7e 00       		.sleb128 0
 6012 1a7f 00       		.byte	0
 6013 1a80 31       		.uleb128 0x31
 6014 1a81 90010000 		.4byte	.LVL110
 6015 1a85 F10F0000 		.4byte	0xff1
 6016 1a89 A01A0000 		.4byte	0x1aa0
 6017 1a8d 29       		.uleb128 0x29
 6018 1a8e 01       		.uleb128 0x1
 6019 1a8f 52       		.byte	0x52
 6020 1a90 02       		.uleb128 0x2
 6021 1a91 08       		.byte	0x8
 6022 1a92 4E       		.byte	0x4e
 6023 1a93 29       		.uleb128 0x29
 6024 1a94 01       		.uleb128 0x1
 6025 1a95 51       		.byte	0x51
 6026 1a96 02       		.uleb128 0x2
 6027 1a97 08       		.byte	0x8
 6028 1a98 4E       		.byte	0x4e
 6029 1a99 29       		.uleb128 0x29
 6030 1a9a 01       		.uleb128 0x1
 6031 1a9b 50       		.byte	0x50
 6032 1a9c 02       		.uleb128 0x2
 6033 1a9d 75       		.byte	0x75
 6034 1a9e 00       		.sleb128 0
 6035 1a9f 00       		.byte	0
 6036 1aa0 28       		.uleb128 0x28
 6037 1aa1 9A010000 		.4byte	.LVL113
 6038 1aa5 B3210000 		.4byte	0x21b3
 6039 1aa9 29       		.uleb128 0x29
 6040 1aaa 01       		.uleb128 0x1
ARM GAS  /var/folders/c6/c789hm653lg9vtl73krp73tm0000gn/T//cc3LgWEg.s 			page 159


 6041 1aab 50       		.byte	0x50
 6042 1aac 05       		.uleb128 0x5
 6043 1aad 03       		.byte	0x3
 6044 1aae 00000000 		.4byte	.LANCHOR5
 6045 1ab2 00       		.byte	0
 6046 1ab3 00       		.byte	0
 6047 1ab4 0A       		.uleb128 0xa
 6048 1ab5 04       		.byte	0x4
 6049 1ab6 810F0000 		.4byte	0xf81
 6050 1aba 19       		.uleb128 0x19
 6051 1abb 47140000 		.4byte	0x1447
 6052 1abf 32       		.uleb128 0x32
 6053 1ac0 580A0000 		.4byte	.LASF219
 6054 1ac4 01       		.byte	0x1
 6055 1ac5 FE       		.byte	0xfe
 6056 1ac6 00000000 		.4byte	.LFB266
 6057 1aca 48010000 		.4byte	.LFE266-.LFB266
 6058 1ace 01       		.uleb128 0x1
 6059 1acf 9C       		.byte	0x9c
 6060 1ad0 311E0000 		.4byte	0x1e31
 6061 1ad4 24       		.uleb128 0x24
 6062 1ad5 9F010000 		.4byte	.LASF209
 6063 1ad9 01       		.byte	0x1
 6064 1ada FE       		.byte	0xfe
 6065 1adb 36140000 		.4byte	0x1436
 6066 1adf 13040000 		.4byte	.LLST22
 6067 1ae3 24       		.uleb128 0x24
 6068 1ae4 5F010000 		.4byte	.LASF220
 6069 1ae8 01       		.byte	0x1
 6070 1ae9 FF       		.byte	0xff
 6071 1aea 311E0000 		.4byte	0x1e31
 6072 1aee 54040000 		.4byte	.LLST23
 6073 1af2 34       		.uleb128 0x34
 6074 1af3 63736400 		.ascii	"csd\000"
 6075 1af7 01       		.byte	0x1
 6076 1af8 0001     		.2byte	0x100
 6077 1afa D10F0000 		.4byte	0xfd1
 6078 1afe 88040000 		.4byte	.LLST24
 6079 1b02 27       		.uleb128 0x27
 6080 1b03 65000000 		.4byte	.LASF221
 6081 1b07 371E0000 		.4byte	0x1e37
 6082 1b0b 05       		.uleb128 0x5
 6083 1b0c 03       		.byte	0x3
 6084 1b0d 00000000 		.4byte	__func__.7845
 6085 1b11 31       		.uleb128 0x31
 6086 1b12 18000000 		.4byte	.LVL117
 6087 1b16 F10F0000 		.4byte	0xff1
 6088 1b1a 311B0000 		.4byte	0x1b31
 6089 1b1e 29       		.uleb128 0x29
 6090 1b1f 01       		.uleb128 0x1
 6091 1b20 52       		.byte	0x52
 6092 1b21 02       		.uleb128 0x2
 6093 1b22 08       		.byte	0x8
 6094 1b23 3E       		.byte	0x3e
 6095 1b24 29       		.uleb128 0x29
 6096 1b25 01       		.uleb128 0x1
 6097 1b26 51       		.byte	0x51
ARM GAS  /var/folders/c6/c789hm653lg9vtl73krp73tm0000gn/T//cc3LgWEg.s 			page 160


 6098 1b27 02       		.uleb128 0x2
 6099 1b28 08       		.byte	0x8
 6100 1b29 49       		.byte	0x49
 6101 1b2a 29       		.uleb128 0x29
 6102 1b2b 01       		.uleb128 0x1
 6103 1b2c 50       		.byte	0x50
 6104 1b2d 02       		.uleb128 0x2
 6105 1b2e 75       		.byte	0x75
 6106 1b2f 00       		.sleb128 0
 6107 1b30 00       		.byte	0
 6108 1b31 31       		.uleb128 0x31
 6109 1b32 24000000 		.4byte	.LVL118
 6110 1b36 F10F0000 		.4byte	0xff1
 6111 1b3a 511B0000 		.4byte	0x1b51
 6112 1b3e 29       		.uleb128 0x29
 6113 1b3f 01       		.uleb128 0x1
 6114 1b40 52       		.byte	0x52
 6115 1b41 02       		.uleb128 0x2
 6116 1b42 08       		.byte	0x8
 6117 1b43 2F       		.byte	0x2f
 6118 1b44 29       		.uleb128 0x29
 6119 1b45 01       		.uleb128 0x1
 6120 1b46 51       		.byte	0x51
 6121 1b47 02       		.uleb128 0x2
 6122 1b48 08       		.byte	0x8
 6123 1b49 31       		.byte	0x31
 6124 1b4a 29       		.uleb128 0x29
 6125 1b4b 01       		.uleb128 0x1
 6126 1b4c 50       		.byte	0x50
 6127 1b4d 02       		.uleb128 0x2
 6128 1b4e 75       		.byte	0x75
 6129 1b4f 00       		.sleb128 0
 6130 1b50 00       		.byte	0
 6131 1b51 31       		.uleb128 0x31
 6132 1b52 30000000 		.4byte	.LVL119
 6133 1b56 F10F0000 		.4byte	0xff1
 6134 1b5a 711B0000 		.4byte	0x1b71
 6135 1b5e 29       		.uleb128 0x29
 6136 1b5f 01       		.uleb128 0x1
 6137 1b60 52       		.byte	0x52
 6138 1b61 02       		.uleb128 0x2
 6139 1b62 08       		.byte	0x8
 6140 1b63 54       		.byte	0x54
 6141 1b64 29       		.uleb128 0x29
 6142 1b65 01       		.uleb128 0x1
 6143 1b66 51       		.byte	0x51
 6144 1b67 02       		.uleb128 0x2
 6145 1b68 08       		.byte	0x8
 6146 1b69 5F       		.byte	0x5f
 6147 1b6a 29       		.uleb128 0x29
 6148 1b6b 01       		.uleb128 0x1
 6149 1b6c 50       		.byte	0x50
 6150 1b6d 02       		.uleb128 0x2
 6151 1b6e 75       		.byte	0x75
 6152 1b6f 00       		.sleb128 0
 6153 1b70 00       		.byte	0
 6154 1b71 31       		.uleb128 0x31
ARM GAS  /var/folders/c6/c789hm653lg9vtl73krp73tm0000gn/T//cc3LgWEg.s 			page 161


 6155 1b72 3C000000 		.4byte	.LVL120
 6156 1b76 F10F0000 		.4byte	0xff1
 6157 1b7a 8F1B0000 		.4byte	0x1b8f
 6158 1b7e 29       		.uleb128 0x29
 6159 1b7f 01       		.uleb128 0x1
 6160 1b80 52       		.byte	0x52
 6161 1b81 01       		.uleb128 0x1
 6162 1b82 3E       		.byte	0x3e
 6163 1b83 29       		.uleb128 0x29
 6164 1b84 01       		.uleb128 0x1
 6165 1b85 51       		.byte	0x51
 6166 1b86 01       		.uleb128 0x1
 6167 1b87 3E       		.byte	0x3e
 6168 1b88 29       		.uleb128 0x29
 6169 1b89 01       		.uleb128 0x1
 6170 1b8a 50       		.byte	0x50
 6171 1b8b 02       		.uleb128 0x2
 6172 1b8c 75       		.byte	0x75
 6173 1b8d 00       		.sleb128 0
 6174 1b8e 00       		.byte	0
 6175 1b8f 31       		.uleb128 0x31
 6176 1b90 48000000 		.4byte	.LVL121
 6177 1b94 F10F0000 		.4byte	0xff1
 6178 1b98 AD1B0000 		.4byte	0x1bad
 6179 1b9c 29       		.uleb128 0x29
 6180 1b9d 01       		.uleb128 0x1
 6181 1b9e 52       		.byte	0x52
 6182 1b9f 01       		.uleb128 0x1
 6183 1ba0 31       		.byte	0x31
 6184 1ba1 29       		.uleb128 0x29
 6185 1ba2 01       		.uleb128 0x1
 6186 1ba3 51       		.byte	0x51
 6187 1ba4 01       		.uleb128 0x1
 6188 1ba5 37       		.byte	0x37
 6189 1ba6 29       		.uleb128 0x29
 6190 1ba7 01       		.uleb128 0x1
 6191 1ba8 50       		.byte	0x50
 6192 1ba9 02       		.uleb128 0x2
 6193 1baa 75       		.byte	0x75
 6194 1bab 00       		.sleb128 0
 6195 1bac 00       		.byte	0
 6196 1bad 31       		.uleb128 0x31
 6197 1bae 54000000 		.4byte	.LVL122
 6198 1bb2 F10F0000 		.4byte	0xff1
 6199 1bb6 CD1B0000 		.4byte	0x1bcd
 6200 1bba 29       		.uleb128 0x29
 6201 1bbb 01       		.uleb128 0x1
 6202 1bbc 52       		.byte	0x52
 6203 1bbd 02       		.uleb128 0x2
 6204 1bbe 08       		.byte	0x8
 6205 1bbf 7E       		.byte	0x7e
 6206 1bc0 29       		.uleb128 0x29
 6207 1bc1 01       		.uleb128 0x1
 6208 1bc2 51       		.byte	0x51
 6209 1bc3 02       		.uleb128 0x2
 6210 1bc4 08       		.byte	0x8
 6211 1bc5 7F       		.byte	0x7f
ARM GAS  /var/folders/c6/c789hm653lg9vtl73krp73tm0000gn/T//cc3LgWEg.s 			page 162


 6212 1bc6 29       		.uleb128 0x29
 6213 1bc7 01       		.uleb128 0x1
 6214 1bc8 50       		.byte	0x50
 6215 1bc9 02       		.uleb128 0x2
 6216 1bca 75       		.byte	0x75
 6217 1bcb 00       		.sleb128 0
 6218 1bcc 00       		.byte	0
 6219 1bcd 31       		.uleb128 0x31
 6220 1bce 60000000 		.4byte	.LVL123
 6221 1bd2 F10F0000 		.4byte	0xff1
 6222 1bd6 ED1B0000 		.4byte	0x1bed
 6223 1bda 29       		.uleb128 0x29
 6224 1bdb 01       		.uleb128 0x1
 6225 1bdc 52       		.byte	0x52
 6226 1bdd 02       		.uleb128 0x2
 6227 1bde 08       		.byte	0x8
 6228 1bdf 4C       		.byte	0x4c
 6229 1be0 29       		.uleb128 0x29
 6230 1be1 01       		.uleb128 0x1
 6231 1be2 51       		.byte	0x51
 6232 1be3 02       		.uleb128 0x2
 6233 1be4 08       		.byte	0x8
 6234 1be5 4C       		.byte	0x4c
 6235 1be6 29       		.uleb128 0x29
 6236 1be7 01       		.uleb128 0x1
 6237 1be8 50       		.byte	0x50
 6238 1be9 02       		.uleb128 0x2
 6239 1bea 75       		.byte	0x75
 6240 1beb 00       		.sleb128 0
 6241 1bec 00       		.byte	0
 6242 1bed 31       		.uleb128 0x31
 6243 1bee 6C000000 		.4byte	.LVL124
 6244 1bf2 F10F0000 		.4byte	0xff1
 6245 1bf6 0D1C0000 		.4byte	0x1c0d
 6246 1bfa 29       		.uleb128 0x29
 6247 1bfb 01       		.uleb128 0x1
 6248 1bfc 52       		.byte	0x52
 6249 1bfd 02       		.uleb128 0x2
 6250 1bfe 08       		.byte	0x8
 6251 1bff 2E       		.byte	0x2e
 6252 1c00 29       		.uleb128 0x29
 6253 1c01 01       		.uleb128 0x1
 6254 1c02 51       		.byte	0x51
 6255 1c03 02       		.uleb128 0x2
 6256 1c04 08       		.byte	0x8
 6257 1c05 2E       		.byte	0x2e
 6258 1c06 29       		.uleb128 0x29
 6259 1c07 01       		.uleb128 0x1
 6260 1c08 50       		.byte	0x50
 6261 1c09 02       		.uleb128 0x2
 6262 1c0a 75       		.byte	0x75
 6263 1c0b 00       		.sleb128 0
 6264 1c0c 00       		.byte	0
 6265 1c0d 31       		.uleb128 0x31
 6266 1c0e 78000000 		.4byte	.LVL125
 6267 1c12 F10F0000 		.4byte	0xff1
 6268 1c16 2D1C0000 		.4byte	0x1c2d
ARM GAS  /var/folders/c6/c789hm653lg9vtl73krp73tm0000gn/T//cc3LgWEg.s 			page 163


 6269 1c1a 29       		.uleb128 0x29
 6270 1c1b 01       		.uleb128 0x1
 6271 1c1c 52       		.byte	0x52
 6272 1c1d 02       		.uleb128 0x2
 6273 1c1e 08       		.byte	0x8
 6274 1c1f 27       		.byte	0x27
 6275 1c20 29       		.uleb128 0x29
 6276 1c21 01       		.uleb128 0x1
 6277 1c22 51       		.byte	0x51
 6278 1c23 02       		.uleb128 0x2
 6279 1c24 08       		.byte	0x8
 6280 1c25 2D       		.byte	0x2d
 6281 1c26 29       		.uleb128 0x29
 6282 1c27 01       		.uleb128 0x1
 6283 1c28 50       		.byte	0x50
 6284 1c29 02       		.uleb128 0x2
 6285 1c2a 75       		.byte	0x75
 6286 1c2b 00       		.sleb128 0
 6287 1c2c 00       		.byte	0
 6288 1c2d 31       		.uleb128 0x31
 6289 1c2e 84000000 		.4byte	.LVL126
 6290 1c32 F10F0000 		.4byte	0xff1
 6291 1c36 4B1C0000 		.4byte	0x1c4b
 6292 1c3a 29       		.uleb128 0x29
 6293 1c3b 01       		.uleb128 0x1
 6294 1c3c 52       		.byte	0x52
 6295 1c3d 01       		.uleb128 0x1
 6296 1c3e 3A       		.byte	0x3a
 6297 1c3f 29       		.uleb128 0x29
 6298 1c40 01       		.uleb128 0x1
 6299 1c41 51       		.byte	0x51
 6300 1c42 01       		.uleb128 0x1
 6301 1c43 3B       		.byte	0x3b
 6302 1c44 29       		.uleb128 0x29
 6303 1c45 01       		.uleb128 0x1
 6304 1c46 50       		.byte	0x50
 6305 1c47 02       		.uleb128 0x2
 6306 1c48 75       		.byte	0x75
 6307 1c49 00       		.sleb128 0
 6308 1c4a 00       		.byte	0
 6309 1c4b 31       		.uleb128 0x31
 6310 1c4c 90000000 		.4byte	.LVL127
 6311 1c50 F10F0000 		.4byte	0xff1
 6312 1c54 691C0000 		.4byte	0x1c69
 6313 1c58 29       		.uleb128 0x29
 6314 1c59 01       		.uleb128 0x1
 6315 1c5a 52       		.byte	0x52
 6316 1c5b 01       		.uleb128 0x1
 6317 1c5c 3F       		.byte	0x3f
 6318 1c5d 29       		.uleb128 0x29
 6319 1c5e 01       		.uleb128 0x1
 6320 1c5f 51       		.byte	0x51
 6321 1c60 01       		.uleb128 0x1
 6322 1c61 3F       		.byte	0x3f
 6323 1c62 29       		.uleb128 0x29
 6324 1c63 01       		.uleb128 0x1
 6325 1c64 50       		.byte	0x50
ARM GAS  /var/folders/c6/c789hm653lg9vtl73krp73tm0000gn/T//cc3LgWEg.s 			page 164


 6326 1c65 02       		.uleb128 0x2
 6327 1c66 75       		.byte	0x75
 6328 1c67 00       		.sleb128 0
 6329 1c68 00       		.byte	0
 6330 1c69 31       		.uleb128 0x31
 6331 1c6a 9C000000 		.4byte	.LVL128
 6332 1c6e F10F0000 		.4byte	0xff1
 6333 1c72 891C0000 		.4byte	0x1c89
 6334 1c76 29       		.uleb128 0x29
 6335 1c77 01       		.uleb128 0x1
 6336 1c78 52       		.byte	0x52
 6337 1c79 02       		.uleb128 0x2
 6338 1c7a 08       		.byte	0x8
 6339 1c7b 68       		.byte	0x68
 6340 1c7c 29       		.uleb128 0x29
 6341 1c7d 01       		.uleb128 0x1
 6342 1c7e 51       		.byte	0x51
 6343 1c7f 02       		.uleb128 0x2
 6344 1c80 08       		.byte	0x8
 6345 1c81 6F       		.byte	0x6f
 6346 1c82 29       		.uleb128 0x29
 6347 1c83 01       		.uleb128 0x1
 6348 1c84 50       		.byte	0x50
 6349 1c85 02       		.uleb128 0x2
 6350 1c86 75       		.byte	0x75
 6351 1c87 00       		.sleb128 0
 6352 1c88 00       		.byte	0
 6353 1c89 31       		.uleb128 0x31
 6354 1c8a A8000000 		.4byte	.LVL129
 6355 1c8e F10F0000 		.4byte	0xff1
 6356 1c92 A71C0000 		.4byte	0x1ca7
 6357 1c96 29       		.uleb128 0x29
 6358 1c97 01       		.uleb128 0x1
 6359 1c98 52       		.byte	0x52
 6360 1c99 01       		.uleb128 0x1
 6361 1c9a 3D       		.byte	0x3d
 6362 1c9b 29       		.uleb128 0x29
 6363 1c9c 01       		.uleb128 0x1
 6364 1c9d 51       		.byte	0x51
 6365 1c9e 01       		.uleb128 0x1
 6366 1c9f 3D       		.byte	0x3d
 6367 1ca0 29       		.uleb128 0x29
 6368 1ca1 01       		.uleb128 0x1
 6369 1ca2 50       		.byte	0x50
 6370 1ca3 02       		.uleb128 0x2
 6371 1ca4 75       		.byte	0x75
 6372 1ca5 00       		.sleb128 0
 6373 1ca6 00       		.byte	0
 6374 1ca7 31       		.uleb128 0x31
 6375 1ca8 B4000000 		.4byte	.LVL130
 6376 1cac F10F0000 		.4byte	0xff1
 6377 1cb0 C51C0000 		.4byte	0x1cc5
 6378 1cb4 29       		.uleb128 0x29
 6379 1cb5 01       		.uleb128 0x1
 6380 1cb6 52       		.byte	0x52
 6381 1cb7 01       		.uleb128 0x1
 6382 1cb8 4A       		.byte	0x4a
ARM GAS  /var/folders/c6/c789hm653lg9vtl73krp73tm0000gn/T//cc3LgWEg.s 			page 165


 6383 1cb9 29       		.uleb128 0x29
 6384 1cba 01       		.uleb128 0x1
 6385 1cbb 51       		.byte	0x51
 6386 1cbc 01       		.uleb128 0x1
 6387 1cbd 4C       		.byte	0x4c
 6388 1cbe 29       		.uleb128 0x29
 6389 1cbf 01       		.uleb128 0x1
 6390 1cc0 50       		.byte	0x50
 6391 1cc1 02       		.uleb128 0x2
 6392 1cc2 75       		.byte	0x75
 6393 1cc3 00       		.sleb128 0
 6394 1cc4 00       		.byte	0
 6395 1cc5 31       		.uleb128 0x31
 6396 1cc6 C0000000 		.4byte	.LVL131
 6397 1cca F10F0000 		.4byte	0xff1
 6398 1cce E51C0000 		.4byte	0x1ce5
 6399 1cd2 29       		.uleb128 0x29
 6400 1cd3 01       		.uleb128 0x1
 6401 1cd4 52       		.byte	0x52
 6402 1cd5 02       		.uleb128 0x2
 6403 1cd6 08       		.byte	0x8
 6404 1cd7 50       		.byte	0x50
 6405 1cd8 29       		.uleb128 0x29
 6406 1cd9 01       		.uleb128 0x1
 6407 1cda 51       		.byte	0x51
 6408 1cdb 02       		.uleb128 0x2
 6409 1cdc 08       		.byte	0x8
 6410 1cdd 53       		.byte	0x53
 6411 1cde 29       		.uleb128 0x29
 6412 1cdf 01       		.uleb128 0x1
 6413 1ce0 50       		.byte	0x50
 6414 1ce1 02       		.uleb128 0x2
 6415 1ce2 75       		.byte	0x75
 6416 1ce3 00       		.sleb128 0
 6417 1ce4 00       		.byte	0
 6418 1ce5 31       		.uleb128 0x31
 6419 1ce6 CC000000 		.4byte	.LVL132
 6420 1cea F10F0000 		.4byte	0xff1
 6421 1cee 051D0000 		.4byte	0x1d05
 6422 1cf2 29       		.uleb128 0x29
 6423 1cf3 01       		.uleb128 0x1
 6424 1cf4 52       		.byte	0x52
 6425 1cf5 02       		.uleb128 0x2
 6426 1cf6 08       		.byte	0x8
 6427 1cf7 4F       		.byte	0x4f
 6428 1cf8 29       		.uleb128 0x29
 6429 1cf9 01       		.uleb128 0x1
 6430 1cfa 51       		.byte	0x51
 6431 1cfb 02       		.uleb128 0x2
 6432 1cfc 08       		.byte	0x8
 6433 1cfd 4F       		.byte	0x4f
 6434 1cfe 29       		.uleb128 0x29
 6435 1cff 01       		.uleb128 0x1
 6436 1d00 50       		.byte	0x50
 6437 1d01 02       		.uleb128 0x2
 6438 1d02 75       		.byte	0x75
 6439 1d03 00       		.sleb128 0
ARM GAS  /var/folders/c6/c789hm653lg9vtl73krp73tm0000gn/T//cc3LgWEg.s 			page 166


 6440 1d04 00       		.byte	0
 6441 1d05 31       		.uleb128 0x31
 6442 1d06 D8000000 		.4byte	.LVL133
 6443 1d0a F10F0000 		.4byte	0xff1
 6444 1d0e 251D0000 		.4byte	0x1d25
 6445 1d12 29       		.uleb128 0x29
 6446 1d13 01       		.uleb128 0x1
 6447 1d14 52       		.byte	0x52
 6448 1d15 02       		.uleb128 0x2
 6449 1d16 08       		.byte	0x8
 6450 1d17 4D       		.byte	0x4d
 6451 1d18 29       		.uleb128 0x29
 6452 1d19 01       		.uleb128 0x1
 6453 1d1a 51       		.byte	0x51
 6454 1d1b 02       		.uleb128 0x2
 6455 1d1c 08       		.byte	0x8
 6456 1d1d 4D       		.byte	0x4d
 6457 1d1e 29       		.uleb128 0x29
 6458 1d1f 01       		.uleb128 0x1
 6459 1d20 50       		.byte	0x50
 6460 1d21 02       		.uleb128 0x2
 6461 1d22 75       		.byte	0x75
 6462 1d23 00       		.sleb128 0
 6463 1d24 00       		.byte	0
 6464 1d25 31       		.uleb128 0x31
 6465 1d26 E4000000 		.4byte	.LVL134
 6466 1d2a F10F0000 		.4byte	0xff1
 6467 1d2e 451D0000 		.4byte	0x1d45
 6468 1d32 29       		.uleb128 0x29
 6469 1d33 01       		.uleb128 0x1
 6470 1d34 52       		.byte	0x52
 6471 1d35 02       		.uleb128 0x2
 6472 1d36 08       		.byte	0x8
 6473 1d37 70       		.byte	0x70
 6474 1d38 29       		.uleb128 0x29
 6475 1d39 01       		.uleb128 0x1
 6476 1d3a 51       		.byte	0x51
 6477 1d3b 02       		.uleb128 0x2
 6478 1d3c 08       		.byte	0x8
 6479 1d3d 77       		.byte	0x77
 6480 1d3e 29       		.uleb128 0x29
 6481 1d3f 01       		.uleb128 0x1
 6482 1d40 50       		.byte	0x50
 6483 1d41 02       		.uleb128 0x2
 6484 1d42 75       		.byte	0x75
 6485 1d43 00       		.sleb128 0
 6486 1d44 00       		.byte	0
 6487 1d45 31       		.uleb128 0x31
 6488 1d46 F0000000 		.4byte	.LVL135
 6489 1d4a F10F0000 		.4byte	0xff1
 6490 1d4e 631D0000 		.4byte	0x1d63
 6491 1d52 29       		.uleb128 0x29
 6492 1d53 01       		.uleb128 0x1
 6493 1d54 52       		.byte	0x52
 6494 1d55 01       		.uleb128 0x1
 6495 1d56 3C       		.byte	0x3c
 6496 1d57 29       		.uleb128 0x29
ARM GAS  /var/folders/c6/c789hm653lg9vtl73krp73tm0000gn/T//cc3LgWEg.s 			page 167


 6497 1d58 01       		.uleb128 0x1
 6498 1d59 51       		.byte	0x51
 6499 1d5a 01       		.uleb128 0x1
 6500 1d5b 3C       		.byte	0x3c
 6501 1d5c 29       		.uleb128 0x29
 6502 1d5d 01       		.uleb128 0x1
 6503 1d5e 50       		.byte	0x50
 6504 1d5f 02       		.uleb128 0x2
 6505 1d60 75       		.byte	0x75
 6506 1d61 00       		.sleb128 0
 6507 1d62 00       		.byte	0
 6508 1d63 31       		.uleb128 0x31
 6509 1d64 FC000000 		.4byte	.LVL136
 6510 1d68 F10F0000 		.4byte	0xff1
 6511 1d6c 831D0000 		.4byte	0x1d83
 6512 1d70 29       		.uleb128 0x29
 6513 1d71 01       		.uleb128 0x1
 6514 1d72 52       		.byte	0x52
 6515 1d73 02       		.uleb128 0x2
 6516 1d74 08       		.byte	0x8
 6517 1d75 60       		.byte	0x60
 6518 1d76 29       		.uleb128 0x29
 6519 1d77 01       		.uleb128 0x1
 6520 1d78 51       		.byte	0x51
 6521 1d79 02       		.uleb128 0x2
 6522 1d7a 08       		.byte	0x8
 6523 1d7b 67       		.byte	0x67
 6524 1d7c 29       		.uleb128 0x29
 6525 1d7d 01       		.uleb128 0x1
 6526 1d7e 50       		.byte	0x50
 6527 1d7f 02       		.uleb128 0x2
 6528 1d80 75       		.byte	0x75
 6529 1d81 00       		.sleb128 0
 6530 1d82 00       		.byte	0
 6531 1d83 31       		.uleb128 0x31
 6532 1d84 08010000 		.4byte	.LVL137
 6533 1d88 F10F0000 		.4byte	0xff1
 6534 1d8c A11D0000 		.4byte	0x1da1
 6535 1d90 29       		.uleb128 0x29
 6536 1d91 01       		.uleb128 0x1
 6537 1d92 52       		.byte	0x52
 6538 1d93 01       		.uleb128 0x1
 6539 1d94 4F       		.byte	0x4f
 6540 1d95 29       		.uleb128 0x29
 6541 1d96 01       		.uleb128 0x1
 6542 1d97 51       		.byte	0x51
 6543 1d98 01       		.uleb128 0x1
 6544 1d99 4F       		.byte	0x4f
 6545 1d9a 29       		.uleb128 0x29
 6546 1d9b 01       		.uleb128 0x1
 6547 1d9c 50       		.byte	0x50
 6548 1d9d 02       		.uleb128 0x2
 6549 1d9e 75       		.byte	0x75
 6550 1d9f 00       		.sleb128 0
 6551 1da0 00       		.byte	0
 6552 1da1 31       		.uleb128 0x31
 6553 1da2 14010000 		.4byte	.LVL138
ARM GAS  /var/folders/c6/c789hm653lg9vtl73krp73tm0000gn/T//cc3LgWEg.s 			page 168


 6554 1da6 F10F0000 		.4byte	0xff1
 6555 1daa C11D0000 		.4byte	0x1dc1
 6556 1dae 29       		.uleb128 0x29
 6557 1daf 01       		.uleb128 0x1
 6558 1db0 52       		.byte	0x52
 6559 1db1 02       		.uleb128 0x2
 6560 1db2 08       		.byte	0x8
 6561 1db3 20       		.byte	0x20
 6562 1db4 29       		.uleb128 0x29
 6563 1db5 01       		.uleb128 0x1
 6564 1db6 51       		.byte	0x51
 6565 1db7 02       		.uleb128 0x2
 6566 1db8 08       		.byte	0x8
 6567 1db9 26       		.byte	0x26
 6568 1dba 29       		.uleb128 0x29
 6569 1dbb 01       		.uleb128 0x1
 6570 1dbc 50       		.byte	0x50
 6571 1dbd 02       		.uleb128 0x2
 6572 1dbe 75       		.byte	0x75
 6573 1dbf 00       		.sleb128 0
 6574 1dc0 00       		.byte	0
 6575 1dc1 31       		.uleb128 0x31
 6576 1dc2 20010000 		.4byte	.LVL139
 6577 1dc6 F10F0000 		.4byte	0xff1
 6578 1dca DF1D0000 		.4byte	0x1ddf
 6579 1dce 29       		.uleb128 0x29
 6580 1dcf 01       		.uleb128 0x1
 6581 1dd0 52       		.byte	0x52
 6582 1dd1 01       		.uleb128 0x1
 6583 1dd2 3C       		.byte	0x3c
 6584 1dd3 29       		.uleb128 0x29
 6585 1dd4 01       		.uleb128 0x1
 6586 1dd5 51       		.byte	0x51
 6587 1dd6 01       		.uleb128 0x1
 6588 1dd7 49       		.byte	0x49
 6589 1dd8 29       		.uleb128 0x29
 6590 1dd9 01       		.uleb128 0x1
 6591 1dda 50       		.byte	0x50
 6592 1ddb 02       		.uleb128 0x2
 6593 1ddc 75       		.byte	0x75
 6594 1ddd 00       		.sleb128 0
 6595 1dde 00       		.byte	0
 6596 1ddf 31       		.uleb128 0x31
 6597 1de0 2C010000 		.4byte	.LVL140
 6598 1de4 F10F0000 		.4byte	0xff1
 6599 1de8 FD1D0000 		.4byte	0x1dfd
 6600 1dec 29       		.uleb128 0x29
 6601 1ded 01       		.uleb128 0x1
 6602 1dee 52       		.byte	0x52
 6603 1def 01       		.uleb128 0x1
 6604 1df0 45       		.byte	0x45
 6605 1df1 29       		.uleb128 0x29
 6606 1df2 01       		.uleb128 0x1
 6607 1df3 51       		.byte	0x51
 6608 1df4 01       		.uleb128 0x1
 6609 1df5 45       		.byte	0x45
 6610 1df6 29       		.uleb128 0x29
ARM GAS  /var/folders/c6/c789hm653lg9vtl73krp73tm0000gn/T//cc3LgWEg.s 			page 169


 6611 1df7 01       		.uleb128 0x1
 6612 1df8 50       		.byte	0x50
 6613 1df9 02       		.uleb128 0x2
 6614 1dfa 75       		.byte	0x75
 6615 1dfb 00       		.sleb128 0
 6616 1dfc 00       		.byte	0
 6617 1dfd 31       		.uleb128 0x31
 6618 1dfe 38010000 		.4byte	.LVL141
 6619 1e02 F10F0000 		.4byte	0xff1
 6620 1e06 1D1E0000 		.4byte	0x1e1d
 6621 1e0a 29       		.uleb128 0x29
 6622 1e0b 01       		.uleb128 0x1
 6623 1e0c 52       		.byte	0x52
 6624 1e0d 02       		.uleb128 0x2
 6625 1e0e 08       		.byte	0x8
 6626 1e0f 4E       		.byte	0x4e
 6627 1e10 29       		.uleb128 0x29
 6628 1e11 01       		.uleb128 0x1
 6629 1e12 51       		.byte	0x51
 6630 1e13 02       		.uleb128 0x2
 6631 1e14 08       		.byte	0x8
 6632 1e15 4E       		.byte	0x4e
 6633 1e16 29       		.uleb128 0x29
 6634 1e17 01       		.uleb128 0x1
 6635 1e18 50       		.byte	0x50
 6636 1e19 02       		.uleb128 0x2
 6637 1e1a 75       		.byte	0x75
 6638 1e1b 00       		.sleb128 0
 6639 1e1c 00       		.byte	0
 6640 1e1d 28       		.uleb128 0x28
 6641 1e1e 42010000 		.4byte	.LVL144
 6642 1e22 B3210000 		.4byte	0x21b3
 6643 1e26 29       		.uleb128 0x29
 6644 1e27 01       		.uleb128 0x1
 6645 1e28 50       		.byte	0x50
 6646 1e29 05       		.uleb128 0x5
 6647 1e2a 03       		.byte	0x3
 6648 1e2b 00000000 		.4byte	.LANCHOR6
 6649 1e2f 00       		.byte	0
 6650 1e30 00       		.byte	0
 6651 1e31 0A       		.uleb128 0xa
 6652 1e32 04       		.byte	0x4
 6653 1e33 700C0000 		.4byte	0xc70
 6654 1e37 19       		.uleb128 0x19
 6655 1e38 47140000 		.4byte	0x1447
 6656 1e3c 35       		.uleb128 0x35
 6657 1e3d E00A0000 		.4byte	.LASF222
 6658 1e41 01       		.byte	0x1
 6659 1e42 2801     		.2byte	0x128
 6660 1e44 00000000 		.4byte	.LFB267
 6661 1e48 3C010000 		.4byte	.LFE267-.LFB267
 6662 1e4c 01       		.uleb128 0x1
 6663 1e4d 9C       		.byte	0x9c
 6664 1e4e 91210000 		.4byte	0x2191
 6665 1e52 36       		.uleb128 0x36
 6666 1e53 9F010000 		.4byte	.LASF209
 6667 1e57 01       		.byte	0x1
ARM GAS  /var/folders/c6/c789hm653lg9vtl73krp73tm0000gn/T//cc3LgWEg.s 			page 170


 6668 1e58 2801     		.2byte	0x128
 6669 1e5a 36140000 		.4byte	0x1436
 6670 1e5e 9B040000 		.4byte	.LLST25
 6671 1e62 36       		.uleb128 0x36
 6672 1e63 B7010000 		.4byte	.LASF223
 6673 1e67 01       		.byte	0x1
 6674 1e68 2901     		.2byte	0x129
 6675 1e6a 91210000 		.4byte	0x2191
 6676 1e6e DC040000 		.4byte	.LLST26
 6677 1e72 34       		.uleb128 0x34
 6678 1e73 63736400 		.ascii	"csd\000"
 6679 1e77 01       		.byte	0x1
 6680 1e78 2A01     		.2byte	0x12a
 6681 1e7a D10F0000 		.4byte	0xfd1
 6682 1e7e 10050000 		.4byte	.LLST27
 6683 1e82 27       		.uleb128 0x27
 6684 1e83 AF000000 		.4byte	.LASF224
 6685 1e87 97210000 		.4byte	0x2197
 6686 1e8b 05       		.uleb128 0x5
 6687 1e8c 03       		.byte	0x3
 6688 1e8d 00000000 		.4byte	__func__.7851
 6689 1e91 31       		.uleb128 0x31
 6690 1e92 18000000 		.4byte	.LVL148
 6691 1e96 F10F0000 		.4byte	0xff1
 6692 1e9a B11E0000 		.4byte	0x1eb1
 6693 1e9e 29       		.uleb128 0x29
 6694 1e9f 01       		.uleb128 0x1
 6695 1ea0 52       		.byte	0x52
 6696 1ea1 02       		.uleb128 0x2
 6697 1ea2 08       		.byte	0x8
 6698 1ea3 30       		.byte	0x30
 6699 1ea4 29       		.uleb128 0x29
 6700 1ea5 01       		.uleb128 0x1
 6701 1ea6 51       		.byte	0x51
 6702 1ea7 02       		.uleb128 0x2
 6703 1ea8 08       		.byte	0x8
 6704 1ea9 45       		.byte	0x45
 6705 1eaa 29       		.uleb128 0x29
 6706 1eab 01       		.uleb128 0x1
 6707 1eac 50       		.byte	0x50
 6708 1ead 02       		.uleb128 0x2
 6709 1eae 75       		.byte	0x75
 6710 1eaf 00       		.sleb128 0
 6711 1eb0 00       		.byte	0
 6712 1eb1 31       		.uleb128 0x31
 6713 1eb2 24000000 		.4byte	.LVL149
 6714 1eb6 F10F0000 		.4byte	0xff1
 6715 1eba CF1E0000 		.4byte	0x1ecf
 6716 1ebe 29       		.uleb128 0x29
 6717 1ebf 01       		.uleb128 0x1
 6718 1ec0 52       		.byte	0x52
 6719 1ec1 01       		.uleb128 0x1
 6720 1ec2 31       		.byte	0x31
 6721 1ec3 29       		.uleb128 0x29
 6722 1ec4 01       		.uleb128 0x1
 6723 1ec5 51       		.byte	0x51
 6724 1ec6 01       		.uleb128 0x1
ARM GAS  /var/folders/c6/c789hm653lg9vtl73krp73tm0000gn/T//cc3LgWEg.s 			page 171


 6725 1ec7 37       		.byte	0x37
 6726 1ec8 29       		.uleb128 0x29
 6727 1ec9 01       		.uleb128 0x1
 6728 1eca 50       		.byte	0x50
 6729 1ecb 02       		.uleb128 0x2
 6730 1ecc 75       		.byte	0x75
 6731 1ecd 00       		.sleb128 0
 6732 1ece 00       		.byte	0
 6733 1ecf 31       		.uleb128 0x31
 6734 1ed0 30000000 		.4byte	.LVL150
 6735 1ed4 F10F0000 		.4byte	0xff1
 6736 1ed8 EF1E0000 		.4byte	0x1eef
 6737 1edc 29       		.uleb128 0x29
 6738 1edd 01       		.uleb128 0x1
 6739 1ede 52       		.byte	0x52
 6740 1edf 02       		.uleb128 0x2
 6741 1ee0 08       		.byte	0x8
 6742 1ee1 54       		.byte	0x54
 6743 1ee2 29       		.uleb128 0x29
 6744 1ee3 01       		.uleb128 0x1
 6745 1ee4 51       		.byte	0x51
 6746 1ee5 02       		.uleb128 0x2
 6747 1ee6 08       		.byte	0x8
 6748 1ee7 5F       		.byte	0x5f
 6749 1ee8 29       		.uleb128 0x29
 6750 1ee9 01       		.uleb128 0x1
 6751 1eea 50       		.byte	0x50
 6752 1eeb 02       		.uleb128 0x2
 6753 1eec 75       		.byte	0x75
 6754 1eed 00       		.sleb128 0
 6755 1eee 00       		.byte	0
 6756 1eef 31       		.uleb128 0x31
 6757 1ef0 3C000000 		.4byte	.LVL151
 6758 1ef4 F10F0000 		.4byte	0xff1
 6759 1ef8 0D1F0000 		.4byte	0x1f0d
 6760 1efc 29       		.uleb128 0x29
 6761 1efd 01       		.uleb128 0x1
 6762 1efe 52       		.byte	0x52
 6763 1eff 01       		.uleb128 0x1
 6764 1f00 3E       		.byte	0x3e
 6765 1f01 29       		.uleb128 0x29
 6766 1f02 01       		.uleb128 0x1
 6767 1f03 51       		.byte	0x51
 6768 1f04 01       		.uleb128 0x1
 6769 1f05 3E       		.byte	0x3e
 6770 1f06 29       		.uleb128 0x29
 6771 1f07 01       		.uleb128 0x1
 6772 1f08 50       		.byte	0x50
 6773 1f09 02       		.uleb128 0x2
 6774 1f0a 75       		.byte	0x75
 6775 1f0b 00       		.sleb128 0
 6776 1f0c 00       		.byte	0
 6777 1f0d 31       		.uleb128 0x31
 6778 1f0e 48000000 		.4byte	.LVL152
 6779 1f12 F10F0000 		.4byte	0xff1
 6780 1f16 2D1F0000 		.4byte	0x1f2d
 6781 1f1a 29       		.uleb128 0x29
ARM GAS  /var/folders/c6/c789hm653lg9vtl73krp73tm0000gn/T//cc3LgWEg.s 			page 172


 6782 1f1b 01       		.uleb128 0x1
 6783 1f1c 52       		.byte	0x52
 6784 1f1d 02       		.uleb128 0x2
 6785 1f1e 08       		.byte	0x8
 6786 1f1f 7E       		.byte	0x7e
 6787 1f20 29       		.uleb128 0x29
 6788 1f21 01       		.uleb128 0x1
 6789 1f22 51       		.byte	0x51
 6790 1f23 02       		.uleb128 0x2
 6791 1f24 08       		.byte	0x8
 6792 1f25 7F       		.byte	0x7f
 6793 1f26 29       		.uleb128 0x29
 6794 1f27 01       		.uleb128 0x1
 6795 1f28 50       		.byte	0x50
 6796 1f29 02       		.uleb128 0x2
 6797 1f2a 75       		.byte	0x75
 6798 1f2b 00       		.sleb128 0
 6799 1f2c 00       		.byte	0
 6800 1f2d 31       		.uleb128 0x31
 6801 1f2e 54000000 		.4byte	.LVL153
 6802 1f32 F10F0000 		.4byte	0xff1
 6803 1f36 4D1F0000 		.4byte	0x1f4d
 6804 1f3a 29       		.uleb128 0x29
 6805 1f3b 01       		.uleb128 0x1
 6806 1f3c 52       		.byte	0x52
 6807 1f3d 02       		.uleb128 0x2
 6808 1f3e 08       		.byte	0x8
 6809 1f3f 4C       		.byte	0x4c
 6810 1f40 29       		.uleb128 0x29
 6811 1f41 01       		.uleb128 0x1
 6812 1f42 51       		.byte	0x51
 6813 1f43 02       		.uleb128 0x2
 6814 1f44 08       		.byte	0x8
 6815 1f45 4C       		.byte	0x4c
 6816 1f46 29       		.uleb128 0x29
 6817 1f47 01       		.uleb128 0x1
 6818 1f48 50       		.byte	0x50
 6819 1f49 02       		.uleb128 0x2
 6820 1f4a 75       		.byte	0x75
 6821 1f4b 00       		.sleb128 0
 6822 1f4c 00       		.byte	0
 6823 1f4d 31       		.uleb128 0x31
 6824 1f4e 60000000 		.4byte	.LVL154
 6825 1f52 F10F0000 		.4byte	0xff1
 6826 1f56 6D1F0000 		.4byte	0x1f6d
 6827 1f5a 29       		.uleb128 0x29
 6828 1f5b 01       		.uleb128 0x1
 6829 1f5c 52       		.byte	0x52
 6830 1f5d 02       		.uleb128 0x2
 6831 1f5e 08       		.byte	0x8
 6832 1f5f 2E       		.byte	0x2e
 6833 1f60 29       		.uleb128 0x29
 6834 1f61 01       		.uleb128 0x1
 6835 1f62 51       		.byte	0x51
 6836 1f63 02       		.uleb128 0x2
 6837 1f64 08       		.byte	0x8
 6838 1f65 2E       		.byte	0x2e
ARM GAS  /var/folders/c6/c789hm653lg9vtl73krp73tm0000gn/T//cc3LgWEg.s 			page 173


 6839 1f66 29       		.uleb128 0x29
 6840 1f67 01       		.uleb128 0x1
 6841 1f68 50       		.byte	0x50
 6842 1f69 02       		.uleb128 0x2
 6843 1f6a 75       		.byte	0x75
 6844 1f6b 00       		.sleb128 0
 6845 1f6c 00       		.byte	0
 6846 1f6d 31       		.uleb128 0x31
 6847 1f6e 6C000000 		.4byte	.LVL155
 6848 1f72 F10F0000 		.4byte	0xff1
 6849 1f76 8B1F0000 		.4byte	0x1f8b
 6850 1f7a 29       		.uleb128 0x29
 6851 1f7b 01       		.uleb128 0x1
 6852 1f7c 52       		.byte	0x52
 6853 1f7d 01       		.uleb128 0x1
 6854 1f7e 3A       		.byte	0x3a
 6855 1f7f 29       		.uleb128 0x29
 6856 1f80 01       		.uleb128 0x1
 6857 1f81 51       		.byte	0x51
 6858 1f82 01       		.uleb128 0x1
 6859 1f83 3B       		.byte	0x3b
 6860 1f84 29       		.uleb128 0x29
 6861 1f85 01       		.uleb128 0x1
 6862 1f86 50       		.byte	0x50
 6863 1f87 02       		.uleb128 0x2
 6864 1f88 75       		.byte	0x75
 6865 1f89 00       		.sleb128 0
 6866 1f8a 00       		.byte	0
 6867 1f8b 31       		.uleb128 0x31
 6868 1f8c 78000000 		.4byte	.LVL156
 6869 1f90 F10F0000 		.4byte	0xff1
 6870 1f94 A91F0000 		.4byte	0x1fa9
 6871 1f98 29       		.uleb128 0x29
 6872 1f99 01       		.uleb128 0x1
 6873 1f9a 52       		.byte	0x52
 6874 1f9b 01       		.uleb128 0x1
 6875 1f9c 3F       		.byte	0x3f
 6876 1f9d 29       		.uleb128 0x29
 6877 1f9e 01       		.uleb128 0x1
 6878 1f9f 51       		.byte	0x51
 6879 1fa0 01       		.uleb128 0x1
 6880 1fa1 3F       		.byte	0x3f
 6881 1fa2 29       		.uleb128 0x29
 6882 1fa3 01       		.uleb128 0x1
 6883 1fa4 50       		.byte	0x50
 6884 1fa5 02       		.uleb128 0x2
 6885 1fa6 75       		.byte	0x75
 6886 1fa7 00       		.sleb128 0
 6887 1fa8 00       		.byte	0
 6888 1fa9 31       		.uleb128 0x31
 6889 1faa 84000000 		.4byte	.LVL157
 6890 1fae F10F0000 		.4byte	0xff1
 6891 1fb2 C91F0000 		.4byte	0x1fc9
 6892 1fb6 29       		.uleb128 0x29
 6893 1fb7 01       		.uleb128 0x1
 6894 1fb8 52       		.byte	0x52
 6895 1fb9 02       		.uleb128 0x2
ARM GAS  /var/folders/c6/c789hm653lg9vtl73krp73tm0000gn/T//cc3LgWEg.s 			page 174


 6896 1fba 08       		.byte	0x8
 6897 1fbb 68       		.byte	0x68
 6898 1fbc 29       		.uleb128 0x29
 6899 1fbd 01       		.uleb128 0x1
 6900 1fbe 51       		.byte	0x51
 6901 1fbf 02       		.uleb128 0x2
 6902 1fc0 08       		.byte	0x8
 6903 1fc1 6F       		.byte	0x6f
 6904 1fc2 29       		.uleb128 0x29
 6905 1fc3 01       		.uleb128 0x1
 6906 1fc4 50       		.byte	0x50
 6907 1fc5 02       		.uleb128 0x2
 6908 1fc6 75       		.byte	0x75
 6909 1fc7 00       		.sleb128 0
 6910 1fc8 00       		.byte	0
 6911 1fc9 31       		.uleb128 0x31
 6912 1fca 90000000 		.4byte	.LVL158
 6913 1fce F10F0000 		.4byte	0xff1
 6914 1fd2 E71F0000 		.4byte	0x1fe7
 6915 1fd6 29       		.uleb128 0x29
 6916 1fd7 01       		.uleb128 0x1
 6917 1fd8 52       		.byte	0x52
 6918 1fd9 01       		.uleb128 0x1
 6919 1fda 3D       		.byte	0x3d
 6920 1fdb 29       		.uleb128 0x29
 6921 1fdc 01       		.uleb128 0x1
 6922 1fdd 51       		.byte	0x51
 6923 1fde 01       		.uleb128 0x1
 6924 1fdf 3D       		.byte	0x3d
 6925 1fe0 29       		.uleb128 0x29
 6926 1fe1 01       		.uleb128 0x1
 6927 1fe2 50       		.byte	0x50
 6928 1fe3 02       		.uleb128 0x2
 6929 1fe4 75       		.byte	0x75
 6930 1fe5 00       		.sleb128 0
 6931 1fe6 00       		.byte	0
 6932 1fe7 31       		.uleb128 0x31
 6933 1fe8 9C000000 		.4byte	.LVL159
 6934 1fec F10F0000 		.4byte	0xff1
 6935 1ff0 05200000 		.4byte	0x2005
 6936 1ff4 29       		.uleb128 0x29
 6937 1ff5 01       		.uleb128 0x1
 6938 1ff6 52       		.byte	0x52
 6939 1ff7 01       		.uleb128 0x1
 6940 1ff8 4A       		.byte	0x4a
 6941 1ff9 29       		.uleb128 0x29
 6942 1ffa 01       		.uleb128 0x1
 6943 1ffb 51       		.byte	0x51
 6944 1ffc 01       		.uleb128 0x1
 6945 1ffd 4C       		.byte	0x4c
 6946 1ffe 29       		.uleb128 0x29
 6947 1fff 01       		.uleb128 0x1
 6948 2000 50       		.byte	0x50
 6949 2001 02       		.uleb128 0x2
 6950 2002 75       		.byte	0x75
 6951 2003 00       		.sleb128 0
 6952 2004 00       		.byte	0
ARM GAS  /var/folders/c6/c789hm653lg9vtl73krp73tm0000gn/T//cc3LgWEg.s 			page 175


 6953 2005 31       		.uleb128 0x31
 6954 2006 A8000000 		.4byte	.LVL160
 6955 200a F10F0000 		.4byte	0xff1
 6956 200e 25200000 		.4byte	0x2025
 6957 2012 29       		.uleb128 0x29
 6958 2013 01       		.uleb128 0x1
 6959 2014 52       		.byte	0x52
 6960 2015 02       		.uleb128 0x2
 6961 2016 08       		.byte	0x8
 6962 2017 50       		.byte	0x50
 6963 2018 29       		.uleb128 0x29
 6964 2019 01       		.uleb128 0x1
 6965 201a 51       		.byte	0x51
 6966 201b 02       		.uleb128 0x2
 6967 201c 08       		.byte	0x8
 6968 201d 53       		.byte	0x53
 6969 201e 29       		.uleb128 0x29
 6970 201f 01       		.uleb128 0x1
 6971 2020 50       		.byte	0x50
 6972 2021 02       		.uleb128 0x2
 6973 2022 75       		.byte	0x75
 6974 2023 00       		.sleb128 0
 6975 2024 00       		.byte	0
 6976 2025 31       		.uleb128 0x31
 6977 2026 B4000000 		.4byte	.LVL161
 6978 202a F10F0000 		.4byte	0xff1
 6979 202e 45200000 		.4byte	0x2045
 6980 2032 29       		.uleb128 0x29
 6981 2033 01       		.uleb128 0x1
 6982 2034 52       		.byte	0x52
 6983 2035 02       		.uleb128 0x2
 6984 2036 08       		.byte	0x8
 6985 2037 4F       		.byte	0x4f
 6986 2038 29       		.uleb128 0x29
 6987 2039 01       		.uleb128 0x1
 6988 203a 51       		.byte	0x51
 6989 203b 02       		.uleb128 0x2
 6990 203c 08       		.byte	0x8
 6991 203d 4F       		.byte	0x4f
 6992 203e 29       		.uleb128 0x29
 6993 203f 01       		.uleb128 0x1
 6994 2040 50       		.byte	0x50
 6995 2041 02       		.uleb128 0x2
 6996 2042 75       		.byte	0x75
 6997 2043 00       		.sleb128 0
 6998 2044 00       		.byte	0
 6999 2045 31       		.uleb128 0x31
 7000 2046 C0000000 		.4byte	.LVL162
 7001 204a F10F0000 		.4byte	0xff1
 7002 204e 65200000 		.4byte	0x2065
 7003 2052 29       		.uleb128 0x29
 7004 2053 01       		.uleb128 0x1
 7005 2054 52       		.byte	0x52
 7006 2055 02       		.uleb128 0x2
 7007 2056 08       		.byte	0x8
 7008 2057 4D       		.byte	0x4d
 7009 2058 29       		.uleb128 0x29
ARM GAS  /var/folders/c6/c789hm653lg9vtl73krp73tm0000gn/T//cc3LgWEg.s 			page 176


 7010 2059 01       		.uleb128 0x1
 7011 205a 51       		.byte	0x51
 7012 205b 02       		.uleb128 0x2
 7013 205c 08       		.byte	0x8
 7014 205d 4D       		.byte	0x4d
 7015 205e 29       		.uleb128 0x29
 7016 205f 01       		.uleb128 0x1
 7017 2060 50       		.byte	0x50
 7018 2061 02       		.uleb128 0x2
 7019 2062 75       		.byte	0x75
 7020 2063 00       		.sleb128 0
 7021 2064 00       		.byte	0
 7022 2065 31       		.uleb128 0x31
 7023 2066 CC000000 		.4byte	.LVL163
 7024 206a F10F0000 		.4byte	0xff1
 7025 206e 85200000 		.4byte	0x2085
 7026 2072 29       		.uleb128 0x29
 7027 2073 01       		.uleb128 0x1
 7028 2074 52       		.byte	0x52
 7029 2075 02       		.uleb128 0x2
 7030 2076 08       		.byte	0x8
 7031 2077 27       		.byte	0x27
 7032 2078 29       		.uleb128 0x29
 7033 2079 01       		.uleb128 0x1
 7034 207a 51       		.byte	0x51
 7035 207b 02       		.uleb128 0x2
 7036 207c 08       		.byte	0x8
 7037 207d 2D       		.byte	0x2d
 7038 207e 29       		.uleb128 0x29
 7039 207f 01       		.uleb128 0x1
 7040 2080 50       		.byte	0x50
 7041 2081 02       		.uleb128 0x2
 7042 2082 75       		.byte	0x75
 7043 2083 00       		.sleb128 0
 7044 2084 00       		.byte	0
 7045 2085 31       		.uleb128 0x31
 7046 2086 D8000000 		.4byte	.LVL164
 7047 208a F10F0000 		.4byte	0xff1
 7048 208e A5200000 		.4byte	0x20a5
 7049 2092 29       		.uleb128 0x29
 7050 2093 01       		.uleb128 0x1
 7051 2094 52       		.byte	0x52
 7052 2095 02       		.uleb128 0x2
 7053 2096 08       		.byte	0x8
 7054 2097 70       		.byte	0x70
 7055 2098 29       		.uleb128 0x29
 7056 2099 01       		.uleb128 0x1
 7057 209a 51       		.byte	0x51
 7058 209b 02       		.uleb128 0x2
 7059 209c 08       		.byte	0x8
 7060 209d 77       		.byte	0x77
 7061 209e 29       		.uleb128 0x29
 7062 209f 01       		.uleb128 0x1
 7063 20a0 50       		.byte	0x50
 7064 20a1 02       		.uleb128 0x2
 7065 20a2 75       		.byte	0x75
 7066 20a3 00       		.sleb128 0
ARM GAS  /var/folders/c6/c789hm653lg9vtl73krp73tm0000gn/T//cc3LgWEg.s 			page 177


 7067 20a4 00       		.byte	0
 7068 20a5 31       		.uleb128 0x31
 7069 20a6 E4000000 		.4byte	.LVL165
 7070 20aa F10F0000 		.4byte	0xff1
 7071 20ae C3200000 		.4byte	0x20c3
 7072 20b2 29       		.uleb128 0x29
 7073 20b3 01       		.uleb128 0x1
 7074 20b4 52       		.byte	0x52
 7075 20b5 01       		.uleb128 0x1
 7076 20b6 3C       		.byte	0x3c
 7077 20b7 29       		.uleb128 0x29
 7078 20b8 01       		.uleb128 0x1
 7079 20b9 51       		.byte	0x51
 7080 20ba 01       		.uleb128 0x1
 7081 20bb 3C       		.byte	0x3c
 7082 20bc 29       		.uleb128 0x29
 7083 20bd 01       		.uleb128 0x1
 7084 20be 50       		.byte	0x50
 7085 20bf 02       		.uleb128 0x2
 7086 20c0 75       		.byte	0x75
 7087 20c1 00       		.sleb128 0
 7088 20c2 00       		.byte	0
 7089 20c3 31       		.uleb128 0x31
 7090 20c4 F0000000 		.4byte	.LVL166
 7091 20c8 F10F0000 		.4byte	0xff1
 7092 20cc E3200000 		.4byte	0x20e3
 7093 20d0 29       		.uleb128 0x29
 7094 20d1 01       		.uleb128 0x1
 7095 20d2 52       		.byte	0x52
 7096 20d3 02       		.uleb128 0x2
 7097 20d4 08       		.byte	0x8
 7098 20d5 60       		.byte	0x60
 7099 20d6 29       		.uleb128 0x29
 7100 20d7 01       		.uleb128 0x1
 7101 20d8 51       		.byte	0x51
 7102 20d9 02       		.uleb128 0x2
 7103 20da 08       		.byte	0x8
 7104 20db 67       		.byte	0x67
 7105 20dc 29       		.uleb128 0x29
 7106 20dd 01       		.uleb128 0x1
 7107 20de 50       		.byte	0x50
 7108 20df 02       		.uleb128 0x2
 7109 20e0 75       		.byte	0x75
 7110 20e1 00       		.sleb128 0
 7111 20e2 00       		.byte	0
 7112 20e3 31       		.uleb128 0x31
 7113 20e4 FC000000 		.4byte	.LVL167
 7114 20e8 F10F0000 		.4byte	0xff1
 7115 20ec 01210000 		.4byte	0x2101
 7116 20f0 29       		.uleb128 0x29
 7117 20f1 01       		.uleb128 0x1
 7118 20f2 52       		.byte	0x52
 7119 20f3 01       		.uleb128 0x1
 7120 20f4 4F       		.byte	0x4f
 7121 20f5 29       		.uleb128 0x29
 7122 20f6 01       		.uleb128 0x1
 7123 20f7 51       		.byte	0x51
ARM GAS  /var/folders/c6/c789hm653lg9vtl73krp73tm0000gn/T//cc3LgWEg.s 			page 178


 7124 20f8 01       		.uleb128 0x1
 7125 20f9 4F       		.byte	0x4f
 7126 20fa 29       		.uleb128 0x29
 7127 20fb 01       		.uleb128 0x1
 7128 20fc 50       		.byte	0x50
 7129 20fd 02       		.uleb128 0x2
 7130 20fe 75       		.byte	0x75
 7131 20ff 00       		.sleb128 0
 7132 2100 00       		.byte	0
 7133 2101 31       		.uleb128 0x31
 7134 2102 08010000 		.4byte	.LVL168
 7135 2106 F10F0000 		.4byte	0xff1
 7136 210a 21210000 		.4byte	0x2121
 7137 210e 29       		.uleb128 0x29
 7138 210f 01       		.uleb128 0x1
 7139 2110 52       		.byte	0x52
 7140 2111 02       		.uleb128 0x2
 7141 2112 08       		.byte	0x8
 7142 2113 20       		.byte	0x20
 7143 2114 29       		.uleb128 0x29
 7144 2115 01       		.uleb128 0x1
 7145 2116 51       		.byte	0x51
 7146 2117 02       		.uleb128 0x2
 7147 2118 08       		.byte	0x8
 7148 2119 26       		.byte	0x26
 7149 211a 29       		.uleb128 0x29
 7150 211b 01       		.uleb128 0x1
 7151 211c 50       		.byte	0x50
 7152 211d 02       		.uleb128 0x2
 7153 211e 75       		.byte	0x75
 7154 211f 00       		.sleb128 0
 7155 2120 00       		.byte	0
 7156 2121 31       		.uleb128 0x31
 7157 2122 14010000 		.4byte	.LVL169
 7158 2126 F10F0000 		.4byte	0xff1
 7159 212a 3F210000 		.4byte	0x213f
 7160 212e 29       		.uleb128 0x29
 7161 212f 01       		.uleb128 0x1
 7162 2130 52       		.byte	0x52
 7163 2131 01       		.uleb128 0x1
 7164 2132 3C       		.byte	0x3c
 7165 2133 29       		.uleb128 0x29
 7166 2134 01       		.uleb128 0x1
 7167 2135 51       		.byte	0x51
 7168 2136 01       		.uleb128 0x1
 7169 2137 49       		.byte	0x49
 7170 2138 29       		.uleb128 0x29
 7171 2139 01       		.uleb128 0x1
 7172 213a 50       		.byte	0x50
 7173 213b 02       		.uleb128 0x2
 7174 213c 75       		.byte	0x75
 7175 213d 00       		.sleb128 0
 7176 213e 00       		.byte	0
 7177 213f 31       		.uleb128 0x31
 7178 2140 20010000 		.4byte	.LVL170
 7179 2144 F10F0000 		.4byte	0xff1
 7180 2148 5D210000 		.4byte	0x215d
ARM GAS  /var/folders/c6/c789hm653lg9vtl73krp73tm0000gn/T//cc3LgWEg.s 			page 179


 7181 214c 29       		.uleb128 0x29
 7182 214d 01       		.uleb128 0x1
 7183 214e 52       		.byte	0x52
 7184 214f 01       		.uleb128 0x1
 7185 2150 45       		.byte	0x45
 7186 2151 29       		.uleb128 0x29
 7187 2152 01       		.uleb128 0x1
 7188 2153 51       		.byte	0x51
 7189 2154 01       		.uleb128 0x1
 7190 2155 45       		.byte	0x45
 7191 2156 29       		.uleb128 0x29
 7192 2157 01       		.uleb128 0x1
 7193 2158 50       		.byte	0x50
 7194 2159 02       		.uleb128 0x2
 7195 215a 75       		.byte	0x75
 7196 215b 00       		.sleb128 0
 7197 215c 00       		.byte	0
 7198 215d 31       		.uleb128 0x31
 7199 215e 2C010000 		.4byte	.LVL171
 7200 2162 F10F0000 		.4byte	0xff1
 7201 2166 7D210000 		.4byte	0x217d
 7202 216a 29       		.uleb128 0x29
 7203 216b 01       		.uleb128 0x1
 7204 216c 52       		.byte	0x52
 7205 216d 02       		.uleb128 0x2
 7206 216e 08       		.byte	0x8
 7207 216f 4E       		.byte	0x4e
 7208 2170 29       		.uleb128 0x29
 7209 2171 01       		.uleb128 0x1
 7210 2172 51       		.byte	0x51
 7211 2173 02       		.uleb128 0x2
 7212 2174 08       		.byte	0x8
 7213 2175 4E       		.byte	0x4e
 7214 2176 29       		.uleb128 0x29
 7215 2177 01       		.uleb128 0x1
 7216 2178 50       		.byte	0x50
 7217 2179 02       		.uleb128 0x2
 7218 217a 75       		.byte	0x75
 7219 217b 00       		.sleb128 0
 7220 217c 00       		.byte	0
 7221 217d 28       		.uleb128 0x28
 7222 217e 36010000 		.4byte	.LVL174
 7223 2182 B3210000 		.4byte	0x21b3
 7224 2186 29       		.uleb128 0x29
 7225 2187 01       		.uleb128 0x1
 7226 2188 50       		.byte	0x50
 7227 2189 05       		.uleb128 0x5
 7228 218a 03       		.byte	0x3
 7229 218b 00000000 		.4byte	.LANCHOR7
 7230 218f 00       		.byte	0
 7231 2190 00       		.byte	0
 7232 2191 0A       		.uleb128 0xa
 7233 2192 04       		.byte	0x4
 7234 2193 BE0D0000 		.4byte	0xdbe
 7235 2197 19       		.uleb128 0x19
 7236 2198 47140000 		.4byte	0x1447
 7237 219c 37       		.uleb128 0x37
ARM GAS  /var/folders/c6/c789hm653lg9vtl73krp73tm0000gn/T//cc3LgWEg.s 			page 180


 7238 219d 8A050000 		.4byte	.LASF225
 7239 21a1 10       		.byte	0x10
 7240 21a2 A706     		.2byte	0x6a7
 7241 21a4 D9000000 		.4byte	0xd9
 7242 21a8 38       		.uleb128 0x38
 7243 21a9 636800   		.ascii	"ch\000"
 7244 21ac 06       		.byte	0x6
 7245 21ad 0902     		.2byte	0x209
 7246 21af 47040000 		.4byte	0x447
 7247 21b3 39       		.uleb128 0x39
 7248 21b4 13090000 		.4byte	.LASF230
 7249 21b8 11       		.byte	0x11
 7250 21b9 1601     		.2byte	0x116
 7251 21bb 0D       		.uleb128 0xd
 7252 21bc 90070000 		.4byte	0x790
 7253 21c0 00       		.byte	0
 7254 21c1 00       		.byte	0
 7255              		.section	.debug_abbrev,"",%progbits
 7256              	.Ldebug_abbrev0:
 7257 0000 01       		.uleb128 0x1
 7258 0001 11       		.uleb128 0x11
 7259 0002 01       		.byte	0x1
 7260 0003 25       		.uleb128 0x25
 7261 0004 0E       		.uleb128 0xe
 7262 0005 13       		.uleb128 0x13
 7263 0006 0B       		.uleb128 0xb
 7264 0007 03       		.uleb128 0x3
 7265 0008 0E       		.uleb128 0xe
 7266 0009 1B       		.uleb128 0x1b
 7267 000a 0E       		.uleb128 0xe
 7268 000b 55       		.uleb128 0x55
 7269 000c 17       		.uleb128 0x17
 7270 000d 11       		.uleb128 0x11
 7271 000e 01       		.uleb128 0x1
 7272 000f 10       		.uleb128 0x10
 7273 0010 17       		.uleb128 0x17
 7274 0011 00       		.byte	0
 7275 0012 00       		.byte	0
 7276 0013 02       		.uleb128 0x2
 7277 0014 24       		.uleb128 0x24
 7278 0015 00       		.byte	0
 7279 0016 0B       		.uleb128 0xb
 7280 0017 0B       		.uleb128 0xb
 7281 0018 3E       		.uleb128 0x3e
 7282 0019 0B       		.uleb128 0xb
 7283 001a 03       		.uleb128 0x3
 7284 001b 08       		.uleb128 0x8
 7285 001c 00       		.byte	0
 7286 001d 00       		.byte	0
 7287 001e 03       		.uleb128 0x3
 7288 001f 24       		.uleb128 0x24
 7289 0020 00       		.byte	0
 7290 0021 0B       		.uleb128 0xb
 7291 0022 0B       		.uleb128 0xb
 7292 0023 3E       		.uleb128 0x3e
 7293 0024 0B       		.uleb128 0xb
 7294 0025 03       		.uleb128 0x3
ARM GAS  /var/folders/c6/c789hm653lg9vtl73krp73tm0000gn/T//cc3LgWEg.s 			page 181


 7295 0026 0E       		.uleb128 0xe
 7296 0027 00       		.byte	0
 7297 0028 00       		.byte	0
 7298 0029 04       		.uleb128 0x4
 7299 002a 16       		.uleb128 0x16
 7300 002b 00       		.byte	0
 7301 002c 03       		.uleb128 0x3
 7302 002d 0E       		.uleb128 0xe
 7303 002e 3A       		.uleb128 0x3a
 7304 002f 0B       		.uleb128 0xb
 7305 0030 3B       		.uleb128 0x3b
 7306 0031 0B       		.uleb128 0xb
 7307 0032 49       		.uleb128 0x49
 7308 0033 13       		.uleb128 0x13
 7309 0034 00       		.byte	0
 7310 0035 00       		.byte	0
 7311 0036 05       		.uleb128 0x5
 7312 0037 35       		.uleb128 0x35
 7313 0038 00       		.byte	0
 7314 0039 49       		.uleb128 0x49
 7315 003a 13       		.uleb128 0x13
 7316 003b 00       		.byte	0
 7317 003c 00       		.byte	0
 7318 003d 06       		.uleb128 0x6
 7319 003e 13       		.uleb128 0x13
 7320 003f 01       		.byte	0x1
 7321 0040 03       		.uleb128 0x3
 7322 0041 0E       		.uleb128 0xe
 7323 0042 0B       		.uleb128 0xb
 7324 0043 0B       		.uleb128 0xb
 7325 0044 3A       		.uleb128 0x3a
 7326 0045 0B       		.uleb128 0xb
 7327 0046 3B       		.uleb128 0x3b
 7328 0047 0B       		.uleb128 0xb
 7329 0048 01       		.uleb128 0x1
 7330 0049 13       		.uleb128 0x13
 7331 004a 00       		.byte	0
 7332 004b 00       		.byte	0
 7333 004c 07       		.uleb128 0x7
 7334 004d 0D       		.uleb128 0xd
 7335 004e 00       		.byte	0
 7336 004f 03       		.uleb128 0x3
 7337 0050 0E       		.uleb128 0xe
 7338 0051 3A       		.uleb128 0x3a
 7339 0052 0B       		.uleb128 0xb
 7340 0053 3B       		.uleb128 0x3b
 7341 0054 0B       		.uleb128 0xb
 7342 0055 49       		.uleb128 0x49
 7343 0056 13       		.uleb128 0x13
 7344 0057 38       		.uleb128 0x38
 7345 0058 0B       		.uleb128 0xb
 7346 0059 00       		.byte	0
 7347 005a 00       		.byte	0
 7348 005b 08       		.uleb128 0x8
 7349 005c 0D       		.uleb128 0xd
 7350 005d 00       		.byte	0
 7351 005e 03       		.uleb128 0x3
ARM GAS  /var/folders/c6/c789hm653lg9vtl73krp73tm0000gn/T//cc3LgWEg.s 			page 182


 7352 005f 08       		.uleb128 0x8
 7353 0060 3A       		.uleb128 0x3a
 7354 0061 0B       		.uleb128 0xb
 7355 0062 3B       		.uleb128 0x3b
 7356 0063 05       		.uleb128 0x5
 7357 0064 49       		.uleb128 0x49
 7358 0065 13       		.uleb128 0x13
 7359 0066 38       		.uleb128 0x38
 7360 0067 0B       		.uleb128 0xb
 7361 0068 00       		.byte	0
 7362 0069 00       		.byte	0
 7363 006a 09       		.uleb128 0x9
 7364 006b 0D       		.uleb128 0xd
 7365 006c 00       		.byte	0
 7366 006d 03       		.uleb128 0x3
 7367 006e 0E       		.uleb128 0xe
 7368 006f 3A       		.uleb128 0x3a
 7369 0070 0B       		.uleb128 0xb
 7370 0071 3B       		.uleb128 0x3b
 7371 0072 05       		.uleb128 0x5
 7372 0073 49       		.uleb128 0x49
 7373 0074 13       		.uleb128 0x13
 7374 0075 38       		.uleb128 0x38
 7375 0076 0B       		.uleb128 0xb
 7376 0077 00       		.byte	0
 7377 0078 00       		.byte	0
 7378 0079 0A       		.uleb128 0xa
 7379 007a 0F       		.uleb128 0xf
 7380 007b 00       		.byte	0
 7381 007c 0B       		.uleb128 0xb
 7382 007d 0B       		.uleb128 0xb
 7383 007e 49       		.uleb128 0x49
 7384 007f 13       		.uleb128 0x13
 7385 0080 00       		.byte	0
 7386 0081 00       		.byte	0
 7387 0082 0B       		.uleb128 0xb
 7388 0083 13       		.uleb128 0x13
 7389 0084 01       		.byte	0x1
 7390 0085 03       		.uleb128 0x3
 7391 0086 0E       		.uleb128 0xe
 7392 0087 0B       		.uleb128 0xb
 7393 0088 0B       		.uleb128 0xb
 7394 0089 3A       		.uleb128 0x3a
 7395 008a 0B       		.uleb128 0xb
 7396 008b 3B       		.uleb128 0x3b
 7397 008c 05       		.uleb128 0x5
 7398 008d 01       		.uleb128 0x1
 7399 008e 13       		.uleb128 0x13
 7400 008f 00       		.byte	0
 7401 0090 00       		.byte	0
 7402 0091 0C       		.uleb128 0xc
 7403 0092 15       		.uleb128 0x15
 7404 0093 01       		.byte	0x1
 7405 0094 27       		.uleb128 0x27
 7406 0095 19       		.uleb128 0x19
 7407 0096 01       		.uleb128 0x1
 7408 0097 13       		.uleb128 0x13
ARM GAS  /var/folders/c6/c789hm653lg9vtl73krp73tm0000gn/T//cc3LgWEg.s 			page 183


 7409 0098 00       		.byte	0
 7410 0099 00       		.byte	0
 7411 009a 0D       		.uleb128 0xd
 7412 009b 05       		.uleb128 0x5
 7413 009c 00       		.byte	0
 7414 009d 49       		.uleb128 0x49
 7415 009e 13       		.uleb128 0x13
 7416 009f 00       		.byte	0
 7417 00a0 00       		.byte	0
 7418 00a1 0E       		.uleb128 0xe
 7419 00a2 0F       		.uleb128 0xf
 7420 00a3 00       		.byte	0
 7421 00a4 0B       		.uleb128 0xb
 7422 00a5 0B       		.uleb128 0xb
 7423 00a6 00       		.byte	0
 7424 00a7 00       		.byte	0
 7425 00a8 0F       		.uleb128 0xf
 7426 00a9 13       		.uleb128 0x13
 7427 00aa 01       		.byte	0x1
 7428 00ab 03       		.uleb128 0x3
 7429 00ac 0E       		.uleb128 0xe
 7430 00ad 0B       		.uleb128 0xb
 7431 00ae 05       		.uleb128 0x5
 7432 00af 3A       		.uleb128 0x3a
 7433 00b0 0B       		.uleb128 0xb
 7434 00b1 3B       		.uleb128 0x3b
 7435 00b2 05       		.uleb128 0x5
 7436 00b3 01       		.uleb128 0x1
 7437 00b4 13       		.uleb128 0x13
 7438 00b5 00       		.byte	0
 7439 00b6 00       		.byte	0
 7440 00b7 10       		.uleb128 0x10
 7441 00b8 0D       		.uleb128 0xd
 7442 00b9 00       		.byte	0
 7443 00ba 03       		.uleb128 0x3
 7444 00bb 0E       		.uleb128 0xe
 7445 00bc 3A       		.uleb128 0x3a
 7446 00bd 0B       		.uleb128 0xb
 7447 00be 3B       		.uleb128 0x3b
 7448 00bf 05       		.uleb128 0x5
 7449 00c0 49       		.uleb128 0x49
 7450 00c1 13       		.uleb128 0x13
 7451 00c2 38       		.uleb128 0x38
 7452 00c3 05       		.uleb128 0x5
 7453 00c4 00       		.byte	0
 7454 00c5 00       		.byte	0
 7455 00c6 11       		.uleb128 0x11
 7456 00c7 0D       		.uleb128 0xd
 7457 00c8 00       		.byte	0
 7458 00c9 03       		.uleb128 0x3
 7459 00ca 08       		.uleb128 0x8
 7460 00cb 3A       		.uleb128 0x3a
 7461 00cc 0B       		.uleb128 0xb
 7462 00cd 3B       		.uleb128 0x3b
 7463 00ce 05       		.uleb128 0x5
 7464 00cf 49       		.uleb128 0x49
 7465 00d0 13       		.uleb128 0x13
ARM GAS  /var/folders/c6/c789hm653lg9vtl73krp73tm0000gn/T//cc3LgWEg.s 			page 184


 7466 00d1 38       		.uleb128 0x38
 7467 00d2 05       		.uleb128 0x5
 7468 00d3 00       		.byte	0
 7469 00d4 00       		.byte	0
 7470 00d5 12       		.uleb128 0x12
 7471 00d6 01       		.uleb128 0x1
 7472 00d7 01       		.byte	0x1
 7473 00d8 49       		.uleb128 0x49
 7474 00d9 13       		.uleb128 0x13
 7475 00da 01       		.uleb128 0x1
 7476 00db 13       		.uleb128 0x13
 7477 00dc 00       		.byte	0
 7478 00dd 00       		.byte	0
 7479 00de 13       		.uleb128 0x13
 7480 00df 21       		.uleb128 0x21
 7481 00e0 00       		.byte	0
 7482 00e1 49       		.uleb128 0x49
 7483 00e2 13       		.uleb128 0x13
 7484 00e3 2F       		.uleb128 0x2f
 7485 00e4 0B       		.uleb128 0xb
 7486 00e5 00       		.byte	0
 7487 00e6 00       		.byte	0
 7488 00e7 14       		.uleb128 0x14
 7489 00e8 0D       		.uleb128 0xd
 7490 00e9 00       		.byte	0
 7491 00ea 03       		.uleb128 0x3
 7492 00eb 08       		.uleb128 0x8
 7493 00ec 3A       		.uleb128 0x3a
 7494 00ed 0B       		.uleb128 0xb
 7495 00ee 3B       		.uleb128 0x3b
 7496 00ef 0B       		.uleb128 0xb
 7497 00f0 49       		.uleb128 0x49
 7498 00f1 13       		.uleb128 0x13
 7499 00f2 38       		.uleb128 0x38
 7500 00f3 0B       		.uleb128 0xb
 7501 00f4 00       		.byte	0
 7502 00f5 00       		.byte	0
 7503 00f6 15       		.uleb128 0x15
 7504 00f7 13       		.uleb128 0x13
 7505 00f8 01       		.byte	0x1
 7506 00f9 0B       		.uleb128 0xb
 7507 00fa 0B       		.uleb128 0xb
 7508 00fb 3A       		.uleb128 0x3a
 7509 00fc 0B       		.uleb128 0xb
 7510 00fd 3B       		.uleb128 0x3b
 7511 00fe 0B       		.uleb128 0xb
 7512 00ff 01       		.uleb128 0x1
 7513 0100 13       		.uleb128 0x13
 7514 0101 00       		.byte	0
 7515 0102 00       		.byte	0
 7516 0103 16       		.uleb128 0x16
 7517 0104 13       		.uleb128 0x13
 7518 0105 01       		.byte	0x1
 7519 0106 0B       		.uleb128 0xb
 7520 0107 05       		.uleb128 0x5
 7521 0108 3A       		.uleb128 0x3a
 7522 0109 0B       		.uleb128 0xb
ARM GAS  /var/folders/c6/c789hm653lg9vtl73krp73tm0000gn/T//cc3LgWEg.s 			page 185


 7523 010a 3B       		.uleb128 0x3b
 7524 010b 0B       		.uleb128 0xb
 7525 010c 01       		.uleb128 0x1
 7526 010d 13       		.uleb128 0x13
 7527 010e 00       		.byte	0
 7528 010f 00       		.byte	0
 7529 0110 17       		.uleb128 0x17
 7530 0111 17       		.uleb128 0x17
 7531 0112 01       		.byte	0x1
 7532 0113 0B       		.uleb128 0xb
 7533 0114 0B       		.uleb128 0xb
 7534 0115 3A       		.uleb128 0x3a
 7535 0116 0B       		.uleb128 0xb
 7536 0117 3B       		.uleb128 0x3b
 7537 0118 0B       		.uleb128 0xb
 7538 0119 01       		.uleb128 0x1
 7539 011a 13       		.uleb128 0x13
 7540 011b 00       		.byte	0
 7541 011c 00       		.byte	0
 7542 011d 18       		.uleb128 0x18
 7543 011e 0D       		.uleb128 0xd
 7544 011f 00       		.byte	0
 7545 0120 03       		.uleb128 0x3
 7546 0121 0E       		.uleb128 0xe
 7547 0122 3A       		.uleb128 0x3a
 7548 0123 0B       		.uleb128 0xb
 7549 0124 3B       		.uleb128 0x3b
 7550 0125 05       		.uleb128 0x5
 7551 0126 49       		.uleb128 0x49
 7552 0127 13       		.uleb128 0x13
 7553 0128 00       		.byte	0
 7554 0129 00       		.byte	0
 7555 012a 19       		.uleb128 0x19
 7556 012b 26       		.uleb128 0x26
 7557 012c 00       		.byte	0
 7558 012d 49       		.uleb128 0x49
 7559 012e 13       		.uleb128 0x13
 7560 012f 00       		.byte	0
 7561 0130 00       		.byte	0
 7562 0131 1A       		.uleb128 0x1a
 7563 0132 04       		.uleb128 0x4
 7564 0133 01       		.byte	0x1
 7565 0134 0B       		.uleb128 0xb
 7566 0135 0B       		.uleb128 0xb
 7567 0136 3A       		.uleb128 0x3a
 7568 0137 0B       		.uleb128 0xb
 7569 0138 3B       		.uleb128 0x3b
 7570 0139 0B       		.uleb128 0xb
 7571 013a 01       		.uleb128 0x1
 7572 013b 13       		.uleb128 0x13
 7573 013c 00       		.byte	0
 7574 013d 00       		.byte	0
 7575 013e 1B       		.uleb128 0x1b
 7576 013f 28       		.uleb128 0x28
 7577 0140 00       		.byte	0
 7578 0141 03       		.uleb128 0x3
 7579 0142 0E       		.uleb128 0xe
ARM GAS  /var/folders/c6/c789hm653lg9vtl73krp73tm0000gn/T//cc3LgWEg.s 			page 186


 7580 0143 1C       		.uleb128 0x1c
 7581 0144 0D       		.uleb128 0xd
 7582 0145 00       		.byte	0
 7583 0146 00       		.byte	0
 7584 0147 1C       		.uleb128 0x1c
 7585 0148 15       		.uleb128 0x15
 7586 0149 01       		.byte	0x1
 7587 014a 27       		.uleb128 0x27
 7588 014b 19       		.uleb128 0x19
 7589 014c 49       		.uleb128 0x49
 7590 014d 13       		.uleb128 0x13
 7591 014e 01       		.uleb128 0x1
 7592 014f 13       		.uleb128 0x13
 7593 0150 00       		.byte	0
 7594 0151 00       		.byte	0
 7595 0152 1D       		.uleb128 0x1d
 7596 0153 13       		.uleb128 0x13
 7597 0154 01       		.byte	0x1
 7598 0155 0B       		.uleb128 0xb
 7599 0156 0B       		.uleb128 0xb
 7600 0157 3A       		.uleb128 0x3a
 7601 0158 0B       		.uleb128 0xb
 7602 0159 3B       		.uleb128 0x3b
 7603 015a 05       		.uleb128 0x5
 7604 015b 01       		.uleb128 0x1
 7605 015c 13       		.uleb128 0x13
 7606 015d 00       		.byte	0
 7607 015e 00       		.byte	0
 7608 015f 1E       		.uleb128 0x1e
 7609 0160 16       		.uleb128 0x16
 7610 0161 00       		.byte	0
 7611 0162 03       		.uleb128 0x3
 7612 0163 0E       		.uleb128 0xe
 7613 0164 3A       		.uleb128 0x3a
 7614 0165 0B       		.uleb128 0xb
 7615 0166 3B       		.uleb128 0x3b
 7616 0167 05       		.uleb128 0x5
 7617 0168 49       		.uleb128 0x49
 7618 0169 13       		.uleb128 0x13
 7619 016a 00       		.byte	0
 7620 016b 00       		.byte	0
 7621 016c 1F       		.uleb128 0x1f
 7622 016d 2E       		.uleb128 0x2e
 7623 016e 01       		.byte	0x1
 7624 016f 3F       		.uleb128 0x3f
 7625 0170 19       		.uleb128 0x19
 7626 0171 03       		.uleb128 0x3
 7627 0172 0E       		.uleb128 0xe
 7628 0173 3A       		.uleb128 0x3a
 7629 0174 0B       		.uleb128 0xb
 7630 0175 3B       		.uleb128 0x3b
 7631 0176 0B       		.uleb128 0xb
 7632 0177 27       		.uleb128 0x27
 7633 0178 19       		.uleb128 0x19
 7634 0179 49       		.uleb128 0x49
 7635 017a 13       		.uleb128 0x13
 7636 017b 20       		.uleb128 0x20
ARM GAS  /var/folders/c6/c789hm653lg9vtl73krp73tm0000gn/T//cc3LgWEg.s 			page 187


 7637 017c 0B       		.uleb128 0xb
 7638 017d 01       		.uleb128 0x1
 7639 017e 13       		.uleb128 0x13
 7640 017f 00       		.byte	0
 7641 0180 00       		.byte	0
 7642 0181 20       		.uleb128 0x20
 7643 0182 05       		.uleb128 0x5
 7644 0183 00       		.byte	0
 7645 0184 03       		.uleb128 0x3
 7646 0185 08       		.uleb128 0x8
 7647 0186 3A       		.uleb128 0x3a
 7648 0187 0B       		.uleb128 0xb
 7649 0188 3B       		.uleb128 0x3b
 7650 0189 0B       		.uleb128 0xb
 7651 018a 49       		.uleb128 0x49
 7652 018b 13       		.uleb128 0x13
 7653 018c 00       		.byte	0
 7654 018d 00       		.byte	0
 7655 018e 21       		.uleb128 0x21
 7656 018f 34       		.uleb128 0x34
 7657 0190 00       		.byte	0
 7658 0191 03       		.uleb128 0x3
 7659 0192 08       		.uleb128 0x8
 7660 0193 3A       		.uleb128 0x3a
 7661 0194 0B       		.uleb128 0xb
 7662 0195 3B       		.uleb128 0x3b
 7663 0196 0B       		.uleb128 0xb
 7664 0197 49       		.uleb128 0x49
 7665 0198 13       		.uleb128 0x13
 7666 0199 00       		.byte	0
 7667 019a 00       		.byte	0
 7668 019b 22       		.uleb128 0x22
 7669 019c 34       		.uleb128 0x34
 7670 019d 00       		.byte	0
 7671 019e 03       		.uleb128 0x3
 7672 019f 0E       		.uleb128 0xe
 7673 01a0 49       		.uleb128 0x49
 7674 01a1 13       		.uleb128 0x13
 7675 01a2 34       		.uleb128 0x34
 7676 01a3 19       		.uleb128 0x19
 7677 01a4 1C       		.uleb128 0x1c
 7678 01a5 0E       		.uleb128 0xe
 7679 01a6 00       		.byte	0
 7680 01a7 00       		.byte	0
 7681 01a8 23       		.uleb128 0x23
 7682 01a9 2E       		.uleb128 0x2e
 7683 01aa 01       		.byte	0x1
 7684 01ab 3F       		.uleb128 0x3f
 7685 01ac 19       		.uleb128 0x19
 7686 01ad 03       		.uleb128 0x3
 7687 01ae 0E       		.uleb128 0xe
 7688 01af 3A       		.uleb128 0x3a
 7689 01b0 0B       		.uleb128 0xb
 7690 01b1 3B       		.uleb128 0x3b
 7691 01b2 0B       		.uleb128 0xb
 7692 01b3 27       		.uleb128 0x27
 7693 01b4 19       		.uleb128 0x19
ARM GAS  /var/folders/c6/c789hm653lg9vtl73krp73tm0000gn/T//cc3LgWEg.s 			page 188


 7694 01b5 49       		.uleb128 0x49
 7695 01b6 13       		.uleb128 0x13
 7696 01b7 11       		.uleb128 0x11
 7697 01b8 01       		.uleb128 0x1
 7698 01b9 12       		.uleb128 0x12
 7699 01ba 06       		.uleb128 0x6
 7700 01bb 40       		.uleb128 0x40
 7701 01bc 18       		.uleb128 0x18
 7702 01bd 9742     		.uleb128 0x2117
 7703 01bf 19       		.uleb128 0x19
 7704 01c0 01       		.uleb128 0x1
 7705 01c1 13       		.uleb128 0x13
 7706 01c2 00       		.byte	0
 7707 01c3 00       		.byte	0
 7708 01c4 24       		.uleb128 0x24
 7709 01c5 05       		.uleb128 0x5
 7710 01c6 00       		.byte	0
 7711 01c7 03       		.uleb128 0x3
 7712 01c8 0E       		.uleb128 0xe
 7713 01c9 3A       		.uleb128 0x3a
 7714 01ca 0B       		.uleb128 0xb
 7715 01cb 3B       		.uleb128 0x3b
 7716 01cc 0B       		.uleb128 0xb
 7717 01cd 49       		.uleb128 0x49
 7718 01ce 13       		.uleb128 0x13
 7719 01cf 02       		.uleb128 0x2
 7720 01d0 17       		.uleb128 0x17
 7721 01d1 00       		.byte	0
 7722 01d2 00       		.byte	0
 7723 01d3 25       		.uleb128 0x25
 7724 01d4 05       		.uleb128 0x5
 7725 01d5 00       		.byte	0
 7726 01d6 03       		.uleb128 0x3
 7727 01d7 08       		.uleb128 0x8
 7728 01d8 3A       		.uleb128 0x3a
 7729 01d9 0B       		.uleb128 0xb
 7730 01da 3B       		.uleb128 0x3b
 7731 01db 0B       		.uleb128 0xb
 7732 01dc 49       		.uleb128 0x49
 7733 01dd 13       		.uleb128 0x13
 7734 01de 02       		.uleb128 0x2
 7735 01df 17       		.uleb128 0x17
 7736 01e0 00       		.byte	0
 7737 01e1 00       		.byte	0
 7738 01e2 26       		.uleb128 0x26
 7739 01e3 34       		.uleb128 0x34
 7740 01e4 00       		.byte	0
 7741 01e5 03       		.uleb128 0x3
 7742 01e6 0E       		.uleb128 0xe
 7743 01e7 3A       		.uleb128 0x3a
 7744 01e8 0B       		.uleb128 0xb
 7745 01e9 3B       		.uleb128 0x3b
 7746 01ea 0B       		.uleb128 0xb
 7747 01eb 49       		.uleb128 0x49
 7748 01ec 13       		.uleb128 0x13
 7749 01ed 02       		.uleb128 0x2
 7750 01ee 17       		.uleb128 0x17
ARM GAS  /var/folders/c6/c789hm653lg9vtl73krp73tm0000gn/T//cc3LgWEg.s 			page 189


 7751 01ef 00       		.byte	0
 7752 01f0 00       		.byte	0
 7753 01f1 27       		.uleb128 0x27
 7754 01f2 34       		.uleb128 0x34
 7755 01f3 00       		.byte	0
 7756 01f4 03       		.uleb128 0x3
 7757 01f5 0E       		.uleb128 0xe
 7758 01f6 49       		.uleb128 0x49
 7759 01f7 13       		.uleb128 0x13
 7760 01f8 34       		.uleb128 0x34
 7761 01f9 19       		.uleb128 0x19
 7762 01fa 02       		.uleb128 0x2
 7763 01fb 18       		.uleb128 0x18
 7764 01fc 00       		.byte	0
 7765 01fd 00       		.byte	0
 7766 01fe 28       		.uleb128 0x28
 7767 01ff 898201   		.uleb128 0x4109
 7768 0202 01       		.byte	0x1
 7769 0203 11       		.uleb128 0x11
 7770 0204 01       		.uleb128 0x1
 7771 0205 31       		.uleb128 0x31
 7772 0206 13       		.uleb128 0x13
 7773 0207 00       		.byte	0
 7774 0208 00       		.byte	0
 7775 0209 29       		.uleb128 0x29
 7776 020a 8A8201   		.uleb128 0x410a
 7777 020d 00       		.byte	0
 7778 020e 02       		.uleb128 0x2
 7779 020f 18       		.uleb128 0x18
 7780 0210 9142     		.uleb128 0x2111
 7781 0212 18       		.uleb128 0x18
 7782 0213 00       		.byte	0
 7783 0214 00       		.byte	0
 7784 0215 2A       		.uleb128 0x2a
 7785 0216 2E       		.uleb128 0x2e
 7786 0217 01       		.byte	0x1
 7787 0218 31       		.uleb128 0x31
 7788 0219 13       		.uleb128 0x13
 7789 021a 11       		.uleb128 0x11
 7790 021b 01       		.uleb128 0x1
 7791 021c 12       		.uleb128 0x12
 7792 021d 06       		.uleb128 0x6
 7793 021e 40       		.uleb128 0x40
 7794 021f 18       		.uleb128 0x18
 7795 0220 9742     		.uleb128 0x2117
 7796 0222 19       		.uleb128 0x19
 7797 0223 01       		.uleb128 0x1
 7798 0224 13       		.uleb128 0x13
 7799 0225 00       		.byte	0
 7800 0226 00       		.byte	0
 7801 0227 2B       		.uleb128 0x2b
 7802 0228 05       		.uleb128 0x5
 7803 0229 00       		.byte	0
 7804 022a 31       		.uleb128 0x31
 7805 022b 13       		.uleb128 0x13
 7806 022c 02       		.uleb128 0x2
 7807 022d 17       		.uleb128 0x17
ARM GAS  /var/folders/c6/c789hm653lg9vtl73krp73tm0000gn/T//cc3LgWEg.s 			page 190


 7808 022e 00       		.byte	0
 7809 022f 00       		.byte	0
 7810 0230 2C       		.uleb128 0x2c
 7811 0231 34       		.uleb128 0x34
 7812 0232 00       		.byte	0
 7813 0233 31       		.uleb128 0x31
 7814 0234 13       		.uleb128 0x13
 7815 0235 00       		.byte	0
 7816 0236 00       		.byte	0
 7817 0237 2D       		.uleb128 0x2d
 7818 0238 34       		.uleb128 0x34
 7819 0239 00       		.byte	0
 7820 023a 31       		.uleb128 0x31
 7821 023b 13       		.uleb128 0x13
 7822 023c 02       		.uleb128 0x2
 7823 023d 18       		.uleb128 0x18
 7824 023e 00       		.byte	0
 7825 023f 00       		.byte	0
 7826 0240 2E       		.uleb128 0x2e
 7827 0241 0B       		.uleb128 0xb
 7828 0242 01       		.byte	0x1
 7829 0243 11       		.uleb128 0x11
 7830 0244 01       		.uleb128 0x1
 7831 0245 12       		.uleb128 0x12
 7832 0246 06       		.uleb128 0x6
 7833 0247 01       		.uleb128 0x1
 7834 0248 13       		.uleb128 0x13
 7835 0249 00       		.byte	0
 7836 024a 00       		.byte	0
 7837 024b 2F       		.uleb128 0x2f
 7838 024c 0B       		.uleb128 0xb
 7839 024d 01       		.byte	0x1
 7840 024e 11       		.uleb128 0x11
 7841 024f 01       		.uleb128 0x1
 7842 0250 12       		.uleb128 0x12
 7843 0251 06       		.uleb128 0x6
 7844 0252 00       		.byte	0
 7845 0253 00       		.byte	0
 7846 0254 30       		.uleb128 0x30
 7847 0255 34       		.uleb128 0x34
 7848 0256 00       		.byte	0
 7849 0257 31       		.uleb128 0x31
 7850 0258 13       		.uleb128 0x13
 7851 0259 02       		.uleb128 0x2
 7852 025a 17       		.uleb128 0x17
 7853 025b 00       		.byte	0
 7854 025c 00       		.byte	0
 7855 025d 31       		.uleb128 0x31
 7856 025e 898201   		.uleb128 0x4109
 7857 0261 01       		.byte	0x1
 7858 0262 11       		.uleb128 0x11
 7859 0263 01       		.uleb128 0x1
 7860 0264 31       		.uleb128 0x31
 7861 0265 13       		.uleb128 0x13
 7862 0266 01       		.uleb128 0x1
 7863 0267 13       		.uleb128 0x13
 7864 0268 00       		.byte	0
ARM GAS  /var/folders/c6/c789hm653lg9vtl73krp73tm0000gn/T//cc3LgWEg.s 			page 191


 7865 0269 00       		.byte	0
 7866 026a 32       		.uleb128 0x32
 7867 026b 2E       		.uleb128 0x2e
 7868 026c 01       		.byte	0x1
 7869 026d 3F       		.uleb128 0x3f
 7870 026e 19       		.uleb128 0x19
 7871 026f 03       		.uleb128 0x3
 7872 0270 0E       		.uleb128 0xe
 7873 0271 3A       		.uleb128 0x3a
 7874 0272 0B       		.uleb128 0xb
 7875 0273 3B       		.uleb128 0x3b
 7876 0274 0B       		.uleb128 0xb
 7877 0275 27       		.uleb128 0x27
 7878 0276 19       		.uleb128 0x19
 7879 0277 11       		.uleb128 0x11
 7880 0278 01       		.uleb128 0x1
 7881 0279 12       		.uleb128 0x12
 7882 027a 06       		.uleb128 0x6
 7883 027b 40       		.uleb128 0x40
 7884 027c 18       		.uleb128 0x18
 7885 027d 9742     		.uleb128 0x2117
 7886 027f 19       		.uleb128 0x19
 7887 0280 01       		.uleb128 0x1
 7888 0281 13       		.uleb128 0x13
 7889 0282 00       		.byte	0
 7890 0283 00       		.byte	0
 7891 0284 33       		.uleb128 0x33
 7892 0285 34       		.uleb128 0x34
 7893 0286 00       		.byte	0
 7894 0287 03       		.uleb128 0x3
 7895 0288 08       		.uleb128 0x8
 7896 0289 3A       		.uleb128 0x3a
 7897 028a 0B       		.uleb128 0xb
 7898 028b 3B       		.uleb128 0x3b
 7899 028c 0B       		.uleb128 0xb
 7900 028d 49       		.uleb128 0x49
 7901 028e 13       		.uleb128 0x13
 7902 028f 02       		.uleb128 0x2
 7903 0290 17       		.uleb128 0x17
 7904 0291 00       		.byte	0
 7905 0292 00       		.byte	0
 7906 0293 34       		.uleb128 0x34
 7907 0294 34       		.uleb128 0x34
 7908 0295 00       		.byte	0
 7909 0296 03       		.uleb128 0x3
 7910 0297 08       		.uleb128 0x8
 7911 0298 3A       		.uleb128 0x3a
 7912 0299 0B       		.uleb128 0xb
 7913 029a 3B       		.uleb128 0x3b
 7914 029b 05       		.uleb128 0x5
 7915 029c 49       		.uleb128 0x49
 7916 029d 13       		.uleb128 0x13
 7917 029e 02       		.uleb128 0x2
 7918 029f 17       		.uleb128 0x17
 7919 02a0 00       		.byte	0
 7920 02a1 00       		.byte	0
 7921 02a2 35       		.uleb128 0x35
ARM GAS  /var/folders/c6/c789hm653lg9vtl73krp73tm0000gn/T//cc3LgWEg.s 			page 192


 7922 02a3 2E       		.uleb128 0x2e
 7923 02a4 01       		.byte	0x1
 7924 02a5 3F       		.uleb128 0x3f
 7925 02a6 19       		.uleb128 0x19
 7926 02a7 03       		.uleb128 0x3
 7927 02a8 0E       		.uleb128 0xe
 7928 02a9 3A       		.uleb128 0x3a
 7929 02aa 0B       		.uleb128 0xb
 7930 02ab 3B       		.uleb128 0x3b
 7931 02ac 05       		.uleb128 0x5
 7932 02ad 27       		.uleb128 0x27
 7933 02ae 19       		.uleb128 0x19
 7934 02af 11       		.uleb128 0x11
 7935 02b0 01       		.uleb128 0x1
 7936 02b1 12       		.uleb128 0x12
 7937 02b2 06       		.uleb128 0x6
 7938 02b3 40       		.uleb128 0x40
 7939 02b4 18       		.uleb128 0x18
 7940 02b5 9742     		.uleb128 0x2117
 7941 02b7 19       		.uleb128 0x19
 7942 02b8 01       		.uleb128 0x1
 7943 02b9 13       		.uleb128 0x13
 7944 02ba 00       		.byte	0
 7945 02bb 00       		.byte	0
 7946 02bc 36       		.uleb128 0x36
 7947 02bd 05       		.uleb128 0x5
 7948 02be 00       		.byte	0
 7949 02bf 03       		.uleb128 0x3
 7950 02c0 0E       		.uleb128 0xe
 7951 02c1 3A       		.uleb128 0x3a
 7952 02c2 0B       		.uleb128 0xb
 7953 02c3 3B       		.uleb128 0x3b
 7954 02c4 05       		.uleb128 0x5
 7955 02c5 49       		.uleb128 0x49
 7956 02c6 13       		.uleb128 0x13
 7957 02c7 02       		.uleb128 0x2
 7958 02c8 17       		.uleb128 0x17
 7959 02c9 00       		.byte	0
 7960 02ca 00       		.byte	0
 7961 02cb 37       		.uleb128 0x37
 7962 02cc 34       		.uleb128 0x34
 7963 02cd 00       		.byte	0
 7964 02ce 03       		.uleb128 0x3
 7965 02cf 0E       		.uleb128 0xe
 7966 02d0 3A       		.uleb128 0x3a
 7967 02d1 0B       		.uleb128 0xb
 7968 02d2 3B       		.uleb128 0x3b
 7969 02d3 05       		.uleb128 0x5
 7970 02d4 49       		.uleb128 0x49
 7971 02d5 13       		.uleb128 0x13
 7972 02d6 3F       		.uleb128 0x3f
 7973 02d7 19       		.uleb128 0x19
 7974 02d8 3C       		.uleb128 0x3c
 7975 02d9 19       		.uleb128 0x19
 7976 02da 00       		.byte	0
 7977 02db 00       		.byte	0
 7978 02dc 38       		.uleb128 0x38
ARM GAS  /var/folders/c6/c789hm653lg9vtl73krp73tm0000gn/T//cc3LgWEg.s 			page 193


 7979 02dd 34       		.uleb128 0x34
 7980 02de 00       		.byte	0
 7981 02df 03       		.uleb128 0x3
 7982 02e0 08       		.uleb128 0x8
 7983 02e1 3A       		.uleb128 0x3a
 7984 02e2 0B       		.uleb128 0xb
 7985 02e3 3B       		.uleb128 0x3b
 7986 02e4 05       		.uleb128 0x5
 7987 02e5 49       		.uleb128 0x49
 7988 02e6 13       		.uleb128 0x13
 7989 02e7 3F       		.uleb128 0x3f
 7990 02e8 19       		.uleb128 0x19
 7991 02e9 3C       		.uleb128 0x3c
 7992 02ea 19       		.uleb128 0x19
 7993 02eb 00       		.byte	0
 7994 02ec 00       		.byte	0
 7995 02ed 39       		.uleb128 0x39
 7996 02ee 2E       		.uleb128 0x2e
 7997 02ef 01       		.byte	0x1
 7998 02f0 3F       		.uleb128 0x3f
 7999 02f1 19       		.uleb128 0x19
 8000 02f2 03       		.uleb128 0x3
 8001 02f3 0E       		.uleb128 0xe
 8002 02f4 3A       		.uleb128 0x3a
 8003 02f5 0B       		.uleb128 0xb
 8004 02f6 3B       		.uleb128 0x3b
 8005 02f7 05       		.uleb128 0x5
 8006 02f8 27       		.uleb128 0x27
 8007 02f9 19       		.uleb128 0x19
 8008 02fa 3C       		.uleb128 0x3c
 8009 02fb 19       		.uleb128 0x19
 8010 02fc 00       		.byte	0
 8011 02fd 00       		.byte	0
 8012 02fe 00       		.byte	0
 8013              		.section	.debug_loc,"",%progbits
 8014              	.Ldebug_loc0:
 8015              	.LLST0:
 8016 0000 00000000 		.4byte	.LVL0
 8017 0004 12000000 		.4byte	.LVL1
 8018 0008 0100     		.2byte	0x1
 8019 000a 50       		.byte	0x50
 8020 000b 12000000 		.4byte	.LVL1
 8021 000f 38000000 		.4byte	.LVL5
 8022 0013 0100     		.2byte	0x1
 8023 0015 56       		.byte	0x56
 8024 0016 38000000 		.4byte	.LVL5
 8025 001a 3A000000 		.4byte	.LVL6
 8026 001e 0100     		.2byte	0x1
 8027 0020 50       		.byte	0x50
 8028 0021 3A000000 		.4byte	.LVL6
 8029 0025 58000000 		.4byte	.LVL11
 8030 0029 0100     		.2byte	0x1
 8031 002b 56       		.byte	0x56
 8032 002c 58000000 		.4byte	.LVL11
 8033 0030 5C000000 		.4byte	.LFE260
 8034 0034 0400     		.2byte	0x4
 8035 0036 F3       		.byte	0xf3
ARM GAS  /var/folders/c6/c789hm653lg9vtl73krp73tm0000gn/T//cc3LgWEg.s 			page 194


 8036 0037 01       		.uleb128 0x1
 8037 0038 50       		.byte	0x50
 8038 0039 9F       		.byte	0x9f
 8039 003a 00000000 		.4byte	0
 8040 003e 00000000 		.4byte	0
 8041              	.LLST1:
 8042 0042 00000000 		.4byte	.LVL0
 8043 0046 12000000 		.4byte	.LVL1
 8044 004a 0100     		.2byte	0x1
 8045 004c 51       		.byte	0x51
 8046 004d 12000000 		.4byte	.LVL1
 8047 0051 1E000000 		.4byte	.LVL3
 8048 0055 0100     		.2byte	0x1
 8049 0057 54       		.byte	0x54
 8050 0058 1E000000 		.4byte	.LVL3
 8051 005c 38000000 		.4byte	.LVL5
 8052 0060 0400     		.2byte	0x4
 8053 0062 F3       		.byte	0xf3
 8054 0063 01       		.uleb128 0x1
 8055 0064 51       		.byte	0x51
 8056 0065 9F       		.byte	0x9f
 8057 0066 38000000 		.4byte	.LVL5
 8058 006a 3D000000 		.4byte	.LVL7-1
 8059 006e 0100     		.2byte	0x1
 8060 0070 51       		.byte	0x51
 8061 0071 3D000000 		.4byte	.LVL7-1
 8062 0075 40000000 		.4byte	.LVL8
 8063 0079 0100     		.2byte	0x1
 8064 007b 54       		.byte	0x54
 8065 007c 40000000 		.4byte	.LVL8
 8066 0080 5C000000 		.4byte	.LFE260
 8067 0084 0400     		.2byte	0x4
 8068 0086 F3       		.byte	0xf3
 8069 0087 01       		.uleb128 0x1
 8070 0088 51       		.byte	0x51
 8071 0089 9F       		.byte	0x9f
 8072 008a 00000000 		.4byte	0
 8073 008e 00000000 		.4byte	0
 8074              	.LLST2:
 8075 0092 00000000 		.4byte	.LVL0
 8076 0096 12000000 		.4byte	.LVL1
 8077 009a 0100     		.2byte	0x1
 8078 009c 52       		.byte	0x52
 8079 009d 12000000 		.4byte	.LVL1
 8080 00a1 2C000000 		.4byte	.LVL4
 8081 00a5 0100     		.2byte	0x1
 8082 00a7 55       		.byte	0x55
 8083 00a8 2C000000 		.4byte	.LVL4
 8084 00ac 38000000 		.4byte	.LVL5
 8085 00b0 0400     		.2byte	0x4
 8086 00b2 F3       		.byte	0xf3
 8087 00b3 01       		.uleb128 0x1
 8088 00b4 52       		.byte	0x52
 8089 00b5 9F       		.byte	0x9f
 8090 00b6 38000000 		.4byte	.LVL5
 8091 00ba 3D000000 		.4byte	.LVL7-1
 8092 00be 0100     		.2byte	0x1
ARM GAS  /var/folders/c6/c789hm653lg9vtl73krp73tm0000gn/T//cc3LgWEg.s 			page 195


 8093 00c0 52       		.byte	0x52
 8094 00c1 3D000000 		.4byte	.LVL7-1
 8095 00c5 40000000 		.4byte	.LVL8
 8096 00c9 0100     		.2byte	0x1
 8097 00cb 55       		.byte	0x55
 8098 00cc 40000000 		.4byte	.LVL8
 8099 00d0 5C000000 		.4byte	.LFE260
 8100 00d4 0400     		.2byte	0x4
 8101 00d6 F3       		.byte	0xf3
 8102 00d7 01       		.uleb128 0x1
 8103 00d8 52       		.byte	0x52
 8104 00d9 9F       		.byte	0x9f
 8105 00da 00000000 		.4byte	0
 8106 00de 00000000 		.4byte	0
 8107              	.LLST3:
 8108 00e2 18000000 		.4byte	.LVL2
 8109 00e6 38000000 		.4byte	.LVL5
 8110 00ea 0100     		.2byte	0x1
 8111 00ec 53       		.byte	0x53
 8112 00ed 40000000 		.4byte	.LVL8
 8113 00f1 4E000000 		.4byte	.LVL9
 8114 00f5 0100     		.2byte	0x1
 8115 00f7 53       		.byte	0x53
 8116 00f8 4E000000 		.4byte	.LVL9
 8117 00fc 5C000000 		.4byte	.LFE260
 8118 0100 0600     		.2byte	0x6
 8119 0102 F3       		.byte	0xf3
 8120 0103 01       		.uleb128 0x1
 8121 0104 52       		.byte	0x52
 8122 0105 35       		.byte	0x35
 8123 0106 25       		.byte	0x25
 8124 0107 9F       		.byte	0x9f
 8125 0108 00000000 		.4byte	0
 8126 010c 00000000 		.4byte	0
 8127              	.LLST4:
 8128 0110 2C000000 		.4byte	.LVL4
 8129 0114 38000000 		.4byte	.LVL5
 8130 0118 0100     		.2byte	0x1
 8131 011a 54       		.byte	0x54
 8132 011b 40000000 		.4byte	.LVL8
 8133 011f 58000000 		.4byte	.LVL11
 8134 0123 0100     		.2byte	0x1
 8135 0125 54       		.byte	0x54
 8136 0126 58000000 		.4byte	.LVL11
 8137 012a 5C000000 		.4byte	.LFE260
 8138 012e 0600     		.2byte	0x6
 8139 0130 F3       		.byte	0xf3
 8140 0131 01       		.uleb128 0x1
 8141 0132 51       		.byte	0x51
 8142 0133 35       		.byte	0x35
 8143 0134 25       		.byte	0x25
 8144 0135 9F       		.byte	0x9f
 8145 0136 00000000 		.4byte	0
 8146 013a 00000000 		.4byte	0
 8147              	.LLST5:
 8148 013e 2C000000 		.4byte	.LVL4
 8149 0142 38000000 		.4byte	.LVL5
ARM GAS  /var/folders/c6/c789hm653lg9vtl73krp73tm0000gn/T//cc3LgWEg.s 			page 196


 8150 0146 0100     		.2byte	0x1
 8151 0148 55       		.byte	0x55
 8152 0149 40000000 		.4byte	.LVL8
 8153 014d 54000000 		.4byte	.LVL10
 8154 0151 0100     		.2byte	0x1
 8155 0153 55       		.byte	0x55
 8156 0154 54000000 		.4byte	.LVL10
 8157 0158 5C000000 		.4byte	.LFE260
 8158 015c 0600     		.2byte	0x6
 8159 015e F3       		.byte	0xf3
 8160 015f 01       		.uleb128 0x1
 8161 0160 52       		.byte	0x52
 8162 0161 4F       		.byte	0x4f
 8163 0162 1A       		.byte	0x1a
 8164 0163 9F       		.byte	0x9f
 8165 0164 00000000 		.4byte	0
 8166 0168 00000000 		.4byte	0
 8167              	.LLST6:
 8168 016c 2C000000 		.4byte	.LVL4
 8169 0170 38000000 		.4byte	.LVL5
 8170 0174 0100     		.2byte	0x1
 8171 0176 52       		.byte	0x52
 8172 0177 40000000 		.4byte	.LVL8
 8173 017b 5C000000 		.4byte	.LFE260
 8174 017f 0100     		.2byte	0x1
 8175 0181 52       		.byte	0x52
 8176 0182 00000000 		.4byte	0
 8177 0186 00000000 		.4byte	0
 8178              	.LLST7:
 8179 018a 00000000 		.4byte	.LVL12
 8180 018e 06000000 		.4byte	.LVL13
 8181 0192 0100     		.2byte	0x1
 8182 0194 50       		.byte	0x50
 8183 0195 06000000 		.4byte	.LVL13
 8184 0199 5C000000 		.4byte	.LVL30
 8185 019d 0100     		.2byte	0x1
 8186 019f 54       		.byte	0x54
 8187 01a0 5C000000 		.4byte	.LVL30
 8188 01a4 5E000000 		.4byte	.LVL31
 8189 01a8 0100     		.2byte	0x1
 8190 01aa 50       		.byte	0x50
 8191 01ab 5E000000 		.4byte	.LVL31
 8192 01af 68000000 		.4byte	.LFE261
 8193 01b3 0100     		.2byte	0x1
 8194 01b5 54       		.byte	0x54
 8195 01b6 00000000 		.4byte	0
 8196 01ba 00000000 		.4byte	0
 8197              	.LLST8:
 8198 01be 2A000000 		.4byte	.LVL17
 8199 01c2 5C000000 		.4byte	.LVL30
 8200 01c6 0100     		.2byte	0x1
 8201 01c8 54       		.byte	0x54
 8202 01c9 00000000 		.4byte	0
 8203 01cd 00000000 		.4byte	0
 8204              	.LLST9:
 8205 01d1 38000000 		.4byte	.LVL19
 8206 01d5 3C000000 		.4byte	.LVL20
ARM GAS  /var/folders/c6/c789hm653lg9vtl73krp73tm0000gn/T//cc3LgWEg.s 			page 197


 8207 01d9 0100     		.2byte	0x1
 8208 01db 50       		.byte	0x50
 8209 01dc 3C000000 		.4byte	.LVL20
 8210 01e0 4E000000 		.4byte	.LVL25
 8211 01e4 0100     		.2byte	0x1
 8212 01e6 56       		.byte	0x56
 8213 01e7 4E000000 		.4byte	.LVL25
 8214 01eb 5C000000 		.4byte	.LVL30
 8215 01ef 0300     		.2byte	0x3
 8216 01f1 76       		.byte	0x76
 8217 01f2 7F       		.sleb128 -1
 8218 01f3 9F       		.byte	0x9f
 8219 01f4 00000000 		.4byte	0
 8220 01f8 00000000 		.4byte	0
 8221              	.LLST10:
 8222 01fc 44000000 		.4byte	.LVL22
 8223 0200 48000000 		.4byte	.LVL23
 8224 0204 0100     		.2byte	0x1
 8225 0206 50       		.byte	0x50
 8226 0207 48000000 		.4byte	.LVL23
 8227 020b 50000000 		.4byte	.LVL26
 8228 020f 0100     		.2byte	0x1
 8229 0211 55       		.byte	0x55
 8230 0212 50000000 		.4byte	.LVL26
 8231 0216 54000000 		.4byte	.LVL27
 8232 021a 0300     		.2byte	0x3
 8233 021c 75       		.byte	0x75
 8234 021d 7E       		.sleb128 -2
 8235 021e 9F       		.byte	0x9f
 8236 021f 00000000 		.4byte	0
 8237 0223 00000000 		.4byte	0
 8238              	.LLST11:
 8239 0227 4C000000 		.4byte	.LVL24
 8240 022b 56000000 		.4byte	.LVL28
 8241 022f 0100     		.2byte	0x1
 8242 0231 50       		.byte	0x50
 8243 0232 56000000 		.4byte	.LVL28
 8244 0236 5A000000 		.4byte	.LVL29
 8245 023a 0300     		.2byte	0x3
 8246 023c 70       		.byte	0x70
 8247 023d 09       		.sleb128 9
 8248 023e 9F       		.byte	0x9f
 8249 023f 00000000 		.4byte	0
 8250 0243 00000000 		.4byte	0
 8251              	.LLST12:
 8252 0247 00000000 		.4byte	.LVL33
 8253 024b 06000000 		.4byte	.LVL34
 8254 024f 0100     		.2byte	0x1
 8255 0251 50       		.byte	0x50
 8256 0252 06000000 		.4byte	.LVL34
 8257 0256 24000000 		.4byte	.LVL35
 8258 025a 0100     		.2byte	0x1
 8259 025c 54       		.byte	0x54
 8260 025d 24000000 		.4byte	.LVL35
 8261 0261 26000000 		.4byte	.LVL36
 8262 0265 0100     		.2byte	0x1
 8263 0267 50       		.byte	0x50
ARM GAS  /var/folders/c6/c789hm653lg9vtl73krp73tm0000gn/T//cc3LgWEg.s 			page 198


 8264 0268 26000000 		.4byte	.LVL36
 8265 026c 30000000 		.4byte	.LFE262
 8266 0270 0100     		.2byte	0x1
 8267 0272 54       		.byte	0x54
 8268 0273 00000000 		.4byte	0
 8269 0277 00000000 		.4byte	0
 8270              	.LLST13:
 8271 027b 00000000 		.4byte	.LVL38
 8272 027f 0E000000 		.4byte	.LVL39
 8273 0283 0100     		.2byte	0x1
 8274 0285 50       		.byte	0x50
 8275 0286 0E000000 		.4byte	.LVL39
 8276 028a 10000000 		.4byte	.LVL40
 8277 028e 0100     		.2byte	0x1
 8278 0290 55       		.byte	0x55
 8279 0291 10000000 		.4byte	.LVL40
 8280 0295 B2000000 		.4byte	.LVL54
 8281 0299 0300     		.2byte	0x3
 8282 029b 75       		.byte	0x75
 8283 029c 78       		.sleb128 -8
 8284 029d 9F       		.byte	0x9f
 8285 029e B2000000 		.4byte	.LVL54
 8286 02a2 B4000000 		.4byte	.LVL55
 8287 02a6 0100     		.2byte	0x1
 8288 02a8 50       		.byte	0x50
 8289 02a9 B4000000 		.4byte	.LVL55
 8290 02ad C0000000 		.4byte	.LFE263
 8291 02b1 0100     		.2byte	0x1
 8292 02b3 55       		.byte	0x55
 8293 02b4 00000000 		.4byte	0
 8294 02b8 00000000 		.4byte	0
 8295              	.LLST14:
 8296 02bc 00000000 		.4byte	.LVL38
 8297 02c0 0E000000 		.4byte	.LVL39
 8298 02c4 0100     		.2byte	0x1
 8299 02c6 51       		.byte	0x51
 8300 02c7 0E000000 		.4byte	.LVL39
 8301 02cb B2000000 		.4byte	.LVL54
 8302 02cf 0100     		.2byte	0x1
 8303 02d1 54       		.byte	0x54
 8304 02d2 B2000000 		.4byte	.LVL54
 8305 02d6 B7000000 		.4byte	.LVL56-1
 8306 02da 0100     		.2byte	0x1
 8307 02dc 51       		.byte	0x51
 8308 02dd B7000000 		.4byte	.LVL56-1
 8309 02e1 C0000000 		.4byte	.LFE263
 8310 02e5 0100     		.2byte	0x1
 8311 02e7 54       		.byte	0x54
 8312 02e8 00000000 		.4byte	0
 8313 02ec 00000000 		.4byte	0
 8314              	.LLST15:
 8315 02f0 10000000 		.4byte	.LVL40
 8316 02f4 B2000000 		.4byte	.LVL54
 8317 02f8 0100     		.2byte	0x1
 8318 02fa 55       		.byte	0x55
 8319 02fb 00000000 		.4byte	0
 8320 02ff 00000000 		.4byte	0
ARM GAS  /var/folders/c6/c789hm653lg9vtl73krp73tm0000gn/T//cc3LgWEg.s 			page 199


 8321              	.LLST16:
 8322 0303 00000000 		.4byte	.LVL57
 8323 0307 0E000000 		.4byte	.LVL58
 8324 030b 0100     		.2byte	0x1
 8325 030d 50       		.byte	0x50
 8326 030e 0E000000 		.4byte	.LVL58
 8327 0312 10000000 		.4byte	.LVL59
 8328 0316 0100     		.2byte	0x1
 8329 0318 55       		.byte	0x55
 8330 0319 10000000 		.4byte	.LVL59
 8331 031d BE000000 		.4byte	.LVL74
 8332 0321 0300     		.2byte	0x3
 8333 0323 75       		.byte	0x75
 8334 0324 78       		.sleb128 -8
 8335 0325 9F       		.byte	0x9f
 8336 0326 BE000000 		.4byte	.LVL74
 8337 032a C0000000 		.4byte	.LVL75
 8338 032e 0100     		.2byte	0x1
 8339 0330 50       		.byte	0x50
 8340 0331 C0000000 		.4byte	.LVL75
 8341 0335 CC000000 		.4byte	.LFE264
 8342 0339 0100     		.2byte	0x1
 8343 033b 55       		.byte	0x55
 8344 033c 00000000 		.4byte	0
 8345 0340 00000000 		.4byte	0
 8346              	.LLST17:
 8347 0344 00000000 		.4byte	.LVL57
 8348 0348 0E000000 		.4byte	.LVL58
 8349 034c 0100     		.2byte	0x1
 8350 034e 51       		.byte	0x51
 8351 034f 0E000000 		.4byte	.LVL58
 8352 0353 BE000000 		.4byte	.LVL74
 8353 0357 0100     		.2byte	0x1
 8354 0359 54       		.byte	0x54
 8355 035a BE000000 		.4byte	.LVL74
 8356 035e C3000000 		.4byte	.LVL76-1
 8357 0362 0100     		.2byte	0x1
 8358 0364 51       		.byte	0x51
 8359 0365 C3000000 		.4byte	.LVL76-1
 8360 0369 CC000000 		.4byte	.LFE264
 8361 036d 0100     		.2byte	0x1
 8362 036f 54       		.byte	0x54
 8363 0370 00000000 		.4byte	0
 8364 0374 00000000 		.4byte	0
 8365              	.LLST18:
 8366 0378 10000000 		.4byte	.LVL59
 8367 037c BE000000 		.4byte	.LVL74
 8368 0380 0100     		.2byte	0x1
 8369 0382 55       		.byte	0x55
 8370 0383 00000000 		.4byte	0
 8371 0387 00000000 		.4byte	0
 8372              	.LLST19:
 8373 038b 00000000 		.4byte	.LVL77
 8374 038f 12000000 		.4byte	.LVL78
 8375 0393 0100     		.2byte	0x1
 8376 0395 50       		.byte	0x50
 8377 0396 12000000 		.4byte	.LVL78
ARM GAS  /var/folders/c6/c789hm653lg9vtl73krp73tm0000gn/T//cc3LgWEg.s 			page 200


 8378 039a 14000000 		.4byte	.LVL79
 8379 039e 0100     		.2byte	0x1
 8380 03a0 55       		.byte	0x55
 8381 03a1 14000000 		.4byte	.LVL79
 8382 03a5 94010000 		.4byte	.LVL111
 8383 03a9 0300     		.2byte	0x3
 8384 03ab 75       		.byte	0x75
 8385 03ac 68       		.sleb128 -24
 8386 03ad 9F       		.byte	0x9f
 8387 03ae 94010000 		.4byte	.LVL111
 8388 03b2 96010000 		.4byte	.LVL112
 8389 03b6 0100     		.2byte	0x1
 8390 03b8 50       		.byte	0x50
 8391 03b9 96010000 		.4byte	.LVL112
 8392 03bd A0010000 		.4byte	.LFE265
 8393 03c1 0100     		.2byte	0x1
 8394 03c3 55       		.byte	0x55
 8395 03c4 00000000 		.4byte	0
 8396 03c8 00000000 		.4byte	0
 8397              	.LLST20:
 8398 03cc 00000000 		.4byte	.LVL77
 8399 03d0 12000000 		.4byte	.LVL78
 8400 03d4 0100     		.2byte	0x1
 8401 03d6 51       		.byte	0x51
 8402 03d7 12000000 		.4byte	.LVL78
 8403 03db 94010000 		.4byte	.LVL111
 8404 03df 0100     		.2byte	0x1
 8405 03e1 54       		.byte	0x54
 8406 03e2 94010000 		.4byte	.LVL111
 8407 03e6 99010000 		.4byte	.LVL113-1
 8408 03ea 0100     		.2byte	0x1
 8409 03ec 51       		.byte	0x51
 8410 03ed 99010000 		.4byte	.LVL113-1
 8411 03f1 A0010000 		.4byte	.LFE265
 8412 03f5 0100     		.2byte	0x1
 8413 03f7 54       		.byte	0x54
 8414 03f8 00000000 		.4byte	0
 8415 03fc 00000000 		.4byte	0
 8416              	.LLST21:
 8417 0400 14000000 		.4byte	.LVL79
 8418 0404 94010000 		.4byte	.LVL111
 8419 0408 0100     		.2byte	0x1
 8420 040a 55       		.byte	0x55
 8421 040b 00000000 		.4byte	0
 8422 040f 00000000 		.4byte	0
 8423              	.LLST22:
 8424 0413 00000000 		.4byte	.LVL114
 8425 0417 0C000000 		.4byte	.LVL115
 8426 041b 0100     		.2byte	0x1
 8427 041d 50       		.byte	0x50
 8428 041e 0C000000 		.4byte	.LVL115
 8429 0422 0E000000 		.4byte	.LVL116
 8430 0426 0100     		.2byte	0x1
 8431 0428 55       		.byte	0x55
 8432 0429 0E000000 		.4byte	.LVL116
 8433 042d 3C010000 		.4byte	.LVL142
 8434 0431 0300     		.2byte	0x3
ARM GAS  /var/folders/c6/c789hm653lg9vtl73krp73tm0000gn/T//cc3LgWEg.s 			page 201


 8435 0433 75       		.byte	0x75
 8436 0434 68       		.sleb128 -24
 8437 0435 9F       		.byte	0x9f
 8438 0436 3C010000 		.4byte	.LVL142
 8439 043a 3E010000 		.4byte	.LVL143
 8440 043e 0100     		.2byte	0x1
 8441 0440 50       		.byte	0x50
 8442 0441 3E010000 		.4byte	.LVL143
 8443 0445 48010000 		.4byte	.LFE266
 8444 0449 0100     		.2byte	0x1
 8445 044b 55       		.byte	0x55
 8446 044c 00000000 		.4byte	0
 8447 0450 00000000 		.4byte	0
 8448              	.LLST23:
 8449 0454 00000000 		.4byte	.LVL114
 8450 0458 0C000000 		.4byte	.LVL115
 8451 045c 0100     		.2byte	0x1
 8452 045e 51       		.byte	0x51
 8453 045f 0C000000 		.4byte	.LVL115
 8454 0463 3C010000 		.4byte	.LVL142
 8455 0467 0100     		.2byte	0x1
 8456 0469 54       		.byte	0x54
 8457 046a 3C010000 		.4byte	.LVL142
 8458 046e 41010000 		.4byte	.LVL144-1
 8459 0472 0100     		.2byte	0x1
 8460 0474 51       		.byte	0x51
 8461 0475 41010000 		.4byte	.LVL144-1
 8462 0479 48010000 		.4byte	.LFE266
 8463 047d 0100     		.2byte	0x1
 8464 047f 54       		.byte	0x54
 8465 0480 00000000 		.4byte	0
 8466 0484 00000000 		.4byte	0
 8467              	.LLST24:
 8468 0488 0E000000 		.4byte	.LVL116
 8469 048c 3C010000 		.4byte	.LVL142
 8470 0490 0100     		.2byte	0x1
 8471 0492 55       		.byte	0x55
 8472 0493 00000000 		.4byte	0
 8473 0497 00000000 		.4byte	0
 8474              	.LLST25:
 8475 049b 00000000 		.4byte	.LVL145
 8476 049f 0C000000 		.4byte	.LVL146
 8477 04a3 0100     		.2byte	0x1
 8478 04a5 50       		.byte	0x50
 8479 04a6 0C000000 		.4byte	.LVL146
 8480 04aa 0E000000 		.4byte	.LVL147
 8481 04ae 0100     		.2byte	0x1
 8482 04b0 55       		.byte	0x55
 8483 04b1 0E000000 		.4byte	.LVL147
 8484 04b5 30010000 		.4byte	.LVL172
 8485 04b9 0300     		.2byte	0x3
 8486 04bb 75       		.byte	0x75
 8487 04bc 68       		.sleb128 -24
 8488 04bd 9F       		.byte	0x9f
 8489 04be 30010000 		.4byte	.LVL172
 8490 04c2 32010000 		.4byte	.LVL173
 8491 04c6 0100     		.2byte	0x1
ARM GAS  /var/folders/c6/c789hm653lg9vtl73krp73tm0000gn/T//cc3LgWEg.s 			page 202


 8492 04c8 50       		.byte	0x50
 8493 04c9 32010000 		.4byte	.LVL173
 8494 04cd 3C010000 		.4byte	.LFE267
 8495 04d1 0100     		.2byte	0x1
 8496 04d3 55       		.byte	0x55
 8497 04d4 00000000 		.4byte	0
 8498 04d8 00000000 		.4byte	0
 8499              	.LLST26:
 8500 04dc 00000000 		.4byte	.LVL145
 8501 04e0 0C000000 		.4byte	.LVL146
 8502 04e4 0100     		.2byte	0x1
 8503 04e6 51       		.byte	0x51
 8504 04e7 0C000000 		.4byte	.LVL146
 8505 04eb 30010000 		.4byte	.LVL172
 8506 04ef 0100     		.2byte	0x1
 8507 04f1 54       		.byte	0x54
 8508 04f2 30010000 		.4byte	.LVL172
 8509 04f6 35010000 		.4byte	.LVL174-1
 8510 04fa 0100     		.2byte	0x1
 8511 04fc 51       		.byte	0x51
 8512 04fd 35010000 		.4byte	.LVL174-1
 8513 0501 3C010000 		.4byte	.LFE267
 8514 0505 0100     		.2byte	0x1
 8515 0507 54       		.byte	0x54
 8516 0508 00000000 		.4byte	0
 8517 050c 00000000 		.4byte	0
 8518              	.LLST27:
 8519 0510 0E000000 		.4byte	.LVL147
 8520 0514 30010000 		.4byte	.LVL172
 8521 0518 0100     		.2byte	0x1
 8522 051a 55       		.byte	0x55
 8523 051b 00000000 		.4byte	0
 8524 051f 00000000 		.4byte	0
 8525              		.section	.debug_aranges,"",%progbits
 8526 0000 54000000 		.4byte	0x54
 8527 0004 0200     		.2byte	0x2
 8528 0006 00000000 		.4byte	.Ldebug_info0
 8529 000a 04       		.byte	0x4
 8530 000b 00       		.byte	0
 8531 000c 0000     		.2byte	0
 8532 000e 0000     		.2byte	0
 8533 0010 00000000 		.4byte	.LFB260
 8534 0014 5C000000 		.4byte	.LFE260-.LFB260
 8535 0018 00000000 		.4byte	.LFB261
 8536 001c 68000000 		.4byte	.LFE261-.LFB261
 8537 0020 00000000 		.4byte	.LFB262
 8538 0024 30000000 		.4byte	.LFE262-.LFB262
 8539 0028 00000000 		.4byte	.LFB263
 8540 002c C0000000 		.4byte	.LFE263-.LFB263
 8541 0030 00000000 		.4byte	.LFB264
 8542 0034 CC000000 		.4byte	.LFE264-.LFB264
 8543 0038 00000000 		.4byte	.LFB265
 8544 003c A0010000 		.4byte	.LFE265-.LFB265
 8545 0040 00000000 		.4byte	.LFB266
 8546 0044 48010000 		.4byte	.LFE266-.LFB266
 8547 0048 00000000 		.4byte	.LFB267
 8548 004c 3C010000 		.4byte	.LFE267-.LFB267
ARM GAS  /var/folders/c6/c789hm653lg9vtl73krp73tm0000gn/T//cc3LgWEg.s 			page 203


 8549 0050 00000000 		.4byte	0
 8550 0054 00000000 		.4byte	0
 8551              		.section	.debug_ranges,"",%progbits
 8552              	.Ldebug_ranges0:
 8553 0000 00000000 		.4byte	.LFB260
 8554 0004 5C000000 		.4byte	.LFE260
 8555 0008 00000000 		.4byte	.LFB261
 8556 000c 68000000 		.4byte	.LFE261
 8557 0010 00000000 		.4byte	.LFB262
 8558 0014 30000000 		.4byte	.LFE262
 8559 0018 00000000 		.4byte	.LFB263
 8560 001c C0000000 		.4byte	.LFE263
 8561 0020 00000000 		.4byte	.LFB264
 8562 0024 CC000000 		.4byte	.LFE264
 8563 0028 00000000 		.4byte	.LFB265
 8564 002c A0010000 		.4byte	.LFE265
 8565 0030 00000000 		.4byte	.LFB266
 8566 0034 48010000 		.4byte	.LFE266
 8567 0038 00000000 		.4byte	.LFB267
 8568 003c 3C010000 		.4byte	.LFE267
 8569 0040 00000000 		.4byte	0
 8570 0044 00000000 		.4byte	0
 8571              		.section	.debug_line,"",%progbits
 8572              	.Ldebug_line0:
 8573 0000 7E040000 		.section	.debug_str,"MS",%progbits,1
 8573      02002F02 
 8573      00000201 
 8573      FB0E0D00 
 8573      01010101 
 8574              	.LASF215:
 8575 0000 5F5F6675 		.ascii	"__func__.7833\000"
 8575      6E635F5F 
 8575      2E373833 
 8575      3300
 8576              	.LASF49:
 8577 000e 705F7374 		.ascii	"p_stats\000"
 8577      61747300 
 8578              	.LASF88:
 8579 0016 73697A65 		.ascii	"sizetype\000"
 8579      74797065 
 8579      00
 8580              	.LASF118:
 8581 001f 77747365 		.ascii	"wtsemp\000"
 8581      6D7000
 8582              	.LASF29:
 8583 0026 73797374 		.ascii	"systime_t\000"
 8583      696D655F 
 8583      7400
 8584              	.LASF34:
 8585 0030 705F6374 		.ascii	"p_ctx\000"
 8585      7800
 8586              	.LASF152:
 8587 0036 6765745F 		.ascii	"get_info\000"
 8587      696E666F 
 8587      00
 8588              	.LASF24:
 8589 003f 74707269 		.ascii	"tprio_t\000"
ARM GAS  /var/folders/c6/c789hm653lg9vtl73krp73tm0000gn/T//cc3LgWEg.s 			page 204


 8589      6F5F7400 
 8590              	.LASF43:
 8591 0047 705F6D73 		.ascii	"p_msgqueue\000"
 8591      67717565 
 8591      756500
 8592              	.LASF60:
 8593 0052 725F6374 		.ascii	"r_ctx\000"
 8593      7800
 8594              	.LASF164:
 8595 0058 6E736163 		.ascii	"nsac\000"
 8595      00
 8596              	.LASF16:
 8597 005d 696E7433 		.ascii	"int32_t\000"
 8597      325F7400 
 8598              	.LASF221:
 8599 0065 5F5F6675 		.ascii	"__func__.7845\000"
 8599      6E635F5F 
 8599      2E373834 
 8599      3500
 8600              	.LASF139:
 8601 0073 626C6B73 		.ascii	"blkstate_t\000"
 8601      74617465 
 8601      5F7400
 8602              	.LASF64:
 8603 007e 76746675 		.ascii	"vtfunc_t\000"
 8603      6E635F74 
 8603      00
 8604              	.LASF165:
 8605 0087 7472616E 		.ascii	"tran_speed\000"
 8605      5F737065 
 8605      656400
 8606              	.LASF73:
 8607 0092 63685F76 		.ascii	"ch_virtual_timers_list\000"
 8607      69727475 
 8607      616C5F74 
 8607      696D6572 
 8607      735F6C69 
 8608              	.LASF150:
 8609 00a9 77726974 		.ascii	"write\000"
 8609      6500
 8610              	.LASF224:
 8611 00af 5F5F6675 		.ascii	"__func__.7851\000"
 8611      6E635F5F 
 8611      2E373835 
 8611      3100
 8612              	.LASF153:
 8613 00bd 73746174 		.ascii	"state\000"
 8613      6500
 8614              	.LASF79:
 8615 00c3 6C6F636B 		.ascii	"lock_cnt\000"
 8615      5F636E74 
 8615      00
 8616              	.LASF228:
 8617 00cc 2F557365 		.ascii	"/Users/savonetj/Downloads/ChibiOS_3.0.2/demos/STM32"
 8617      72732F73 
 8617      61766F6E 
 8617      65746A2F 
ARM GAS  /var/folders/c6/c789hm653lg9vtl73krp73tm0000gn/T//cc3LgWEg.s 			page 205


 8617      446F776E 
 8618 00ff 2F52542D 		.ascii	"/RT-STM32F407-OLIMEX_E407-LWIP-FATFS-USB\000"
 8618      53544D33 
 8618      32463430 
 8618      372D4F4C 
 8618      494D4558 
 8619              	.LASF187:
 8620 0128 746D705F 		.ascii	"tmp_write_protect\000"
 8620      77726974 
 8620      655F7072 
 8620      6F746563 
 8620      7400
 8621              	.LASF145:
 8622 013a 69735F69 		.ascii	"is_inserted\000"
 8622      6E736572 
 8622      74656400 
 8623              	.LASF94:
 8624 0146 73655F74 		.ascii	"se_tp\000"
 8624      7000
 8625              	.LASF108:
 8626 014c 74696D65 		.ascii	"time_measurement_t\000"
 8626      5F6D6561 
 8626      73757265 
 8626      6D656E74 
 8626      5F7400
 8627              	.LASF220:
 8628 015f 63736431 		.ascii	"csd10\000"
 8628      3000
 8629              	.LASF216:
 8630 0165 5F6D6D63 		.ascii	"_mmcsd_unpack_csd_mmc\000"
 8630      73645F75 
 8630      6E706163 
 8630      6B5F6373 
 8630      645F6D6D 
 8631              	.LASF157:
 8632 017b 7072765F 		.ascii	"prv_m\000"
 8632      6D00
 8633              	.LASF173:
 8634 0181 7664645F 		.ascii	"vdd_r_curr_max\000"
 8634      725F6375 
 8634      72725F6D 
 8634      617800
 8635              	.LASF126:
 8636 0190 6D5F6F77 		.ascii	"m_owner\000"
 8636      6E657200 
 8637              	.LASF71:
 8638 0198 76745F70 		.ascii	"vt_par\000"
 8638      617200
 8639              	.LASF209:
 8640 019f 73646370 		.ascii	"sdcp\000"
 8640      00
 8641              	.LASF115:
 8642 01a4 65786974 		.ascii	"exitcode\000"
 8642      636F6465 
 8642      00
 8643              	.LASF4:
 8644 01ad 5F5F7569 		.ascii	"__uint8_t\000"
ARM GAS  /var/folders/c6/c789hm653lg9vtl73krp73tm0000gn/T//cc3LgWEg.s 			page 206


 8644      6E74385F 
 8644      7400
 8645              	.LASF223:
 8646 01b7 63736432 		.ascii	"csd20\000"
 8646      3000
 8647              	.LASF180:
 8648 01bd 77705F67 		.ascii	"wp_grp_enable\000"
 8648      72705F65 
 8648      6E61626C 
 8648      6500
 8649              	.LASF174:
 8650 01cb 7664645F 		.ascii	"vdd_w_curr_min\000"
 8650      775F6375 
 8650      72725F6D 
 8650      696E00
 8651              	.LASF35:
 8652 01da 705F6E65 		.ascii	"p_newer\000"
 8652      77657200 
 8653              	.LASF8:
 8654 01e2 6C6F6E67 		.ascii	"long int\000"
 8654      20696E74 
 8654      00
 8655              	.LASF31:
 8656 01eb 705F6E65 		.ascii	"p_next\000"
 8656      787400
 8657              	.LASF183:
 8658 01f2 77726974 		.ascii	"write_bl_partial\000"
 8658      655F626C 
 8658      5F706172 
 8658      7469616C 
 8658      00
 8659              	.LASF32:
 8660 0203 705F7072 		.ascii	"p_prev\000"
 8660      657600
 8661              	.LASF22:
 8662 020a 74737461 		.ascii	"tstate_t\000"
 8662      74655F74 
 8662      00
 8663              	.LASF20:
 8664 0213 72747469 		.ascii	"rttime_t\000"
 8664      6D655F74 
 8664      00
 8665              	.LASF54:
 8666 021c 74687265 		.ascii	"threads_queue_t\000"
 8666      6164735F 
 8666      71756575 
 8666      655F7400 
 8667              	.LASF46:
 8668 022c 705F6D74 		.ascii	"p_mtxlist\000"
 8668      786C6973 
 8668      7400
 8669              	.LASF185:
 8670 0236 636F7079 		.ascii	"copy\000"
 8670      00
 8671              	.LASF89:
 8672 023b 72656761 		.ascii	"regarm_t\000"
 8672      726D5F74 
ARM GAS  /var/folders/c6/c789hm653lg9vtl73krp73tm0000gn/T//cc3LgWEg.s 			page 207


 8672      00
 8673              	.LASF201:
 8674 0244 656E6469 		.ascii	"endidx\000"
 8674      647800
 8675              	.LASF146:
 8676 024b 69735F70 		.ascii	"is_protected\000"
 8676      726F7465 
 8676      63746564 
 8676      00
 8677              	.LASF218:
 8678 0258 5F5F6675 		.ascii	"__func__.7839\000"
 8678      6E635F5F 
 8678      2E373833 
 8678      3900
 8679              	.LASF107:
 8680 0266 63756D75 		.ascii	"cumulative\000"
 8680      6C617469 
 8680      766500
 8681              	.LASF1:
 8682 0271 7369676E 		.ascii	"signed char\000"
 8682      65642063 
 8682      68617200 
 8683              	.LASF120:
 8684 027d 65776D61 		.ascii	"ewmask\000"
 8684      736B00
 8685              	.LASF14:
 8686 0284 75696E74 		.ascii	"uint8_t\000"
 8686      385F7400 
 8687              	.LASF166:
 8688 028c 72656164 		.ascii	"read_bl_len\000"
 8688      5F626C5F 
 8688      6C656E00 
 8689              	.LASF26:
 8690 0298 6576656E 		.ascii	"eventmask_t\000"
 8690      746D6173 
 8690      6B5F7400 
 8691              	.LASF91:
 8692 02a4 636F6E74 		.ascii	"context\000"
 8692      65787400 
 8693              	.LASF117:
 8694 02ac 77747472 		.ascii	"wttrp\000"
 8694      7000
 8695              	.LASF2:
 8696 02b2 756E7369 		.ascii	"unsigned char\000"
 8696      676E6564 
 8696      20636861 
 8696      7200
 8697              	.LASF194:
 8698 02c0 64656661 		.ascii	"default_ecc\000"
 8698      756C745F 
 8698      65636300 
 8699              	.LASF77:
 8700 02cc 70616E69 		.ascii	"panic_msg\000"
 8700      635F6D73 
 8700      6700
 8701              	.LASF171:
 8702 02d6 635F7369 		.ascii	"c_size\000"
ARM GAS  /var/folders/c6/c789hm653lg9vtl73krp73tm0000gn/T//cc3LgWEg.s 			page 208


 8702      7A6500
 8703              	.LASF80:
 8704 02dd 74726163 		.ascii	"trace_buffer\000"
 8704      655F6275 
 8704      66666572 
 8704      00
 8705              	.LASF61:
 8706 02ea 725F6E65 		.ascii	"r_newer\000"
 8706      77657200 
 8707              	.LASF130:
 8708 02f2 424C4B5F 		.ascii	"BLK_UNINIT\000"
 8708      554E494E 
 8708      495400
 8709              	.LASF75:
 8710 02fd 73797374 		.ascii	"system_debug_t\000"
 8710      656D5F64 
 8710      65627567 
 8710      5F7400
 8711              	.LASF143:
 8712 030c 5F426F6F 		.ascii	"_Bool\000"
 8712      6C00
 8713              	.LASF128:
 8714 0312 63686172 		.ascii	"char\000"
 8714      00
 8715              	.LASF170:
 8716 0317 6473725F 		.ascii	"dsr_imp\000"
 8716      696D7000 
 8717              	.LASF200:
 8718 031f 73746172 		.ascii	"startidx\000"
 8718      74696478 
 8718      00
 8719              	.LASF206:
 8720 0328 5F6D6D63 		.ascii	"_mmcsd_get_capacity_ext\000"
 8720      73645F67 
 8720      65745F63 
 8720      61706163 
 8720      6974795F 
 8721              	.LASF161:
 8722 0340 756E7061 		.ascii	"unpacked_mmc_cid_t\000"
 8722      636B6564 
 8722      5F6D6D63 
 8722      5F636964 
 8722      5F7400
 8723              	.LASF154:
 8724 0353 63617061 		.ascii	"capacity\000"
 8724      63697479 
 8724      00
 8725              	.LASF33:
 8726 035c 705F7072 		.ascii	"p_prio\000"
 8726      696F00
 8727              	.LASF5:
 8728 0363 5F5F7569 		.ascii	"__uint16_t\000"
 8728      6E743136 
 8728      5F7400
 8729              	.LASF135:
 8730 036e 424C4B5F 		.ascii	"BLK_READY\000"
 8730      52454144 
ARM GAS  /var/folders/c6/c789hm653lg9vtl73krp73tm0000gn/T//cc3LgWEg.s 			page 209


 8730      5900
 8731              	.LASF116:
 8732 0378 77746F62 		.ascii	"wtobjp\000"
 8732      6A7000
 8733              	.LASF110:
 8734 037f 6E5F6374 		.ascii	"n_ctxswc\000"
 8734      78737763 
 8734      00
 8735              	.LASF227:
 8736 0388 2E2E2F2E 		.ascii	"../../../os/hal/src/hal_mmcsd.c\000"
 8736      2E2F2E2E 
 8736      2F6F732F 
 8736      68616C2F 
 8736      7372632F 
 8737              	.LASF90:
 8738 03a8 73746B61 		.ascii	"stkalign_t\000"
 8738      6C69676E 
 8738      5F7400
 8739              	.LASF191:
 8740 03b3 73706563 		.ascii	"spec_vers\000"
 8740      5F766572 
 8740      7300
 8741              	.LASF105:
 8742 03bd 776F7273 		.ascii	"worst\000"
 8742      7400
 8743              	.LASF196:
 8744 03c3 756E7061 		.ascii	"unpacked_mmc_csd_t\000"
 8744      636B6564 
 8744      5F6D6D63 
 8744      5F637364 
 8744      5F7400
 8745              	.LASF178:
 8746 03d6 65726173 		.ascii	"erase_sector_size\000"
 8746      655F7365 
 8746      63746F72 
 8746      5F73697A 
 8746      6500
 8747              	.LASF27:
 8748 03e8 636E745F 		.ascii	"cnt_t\000"
 8748      7400
 8749              	.LASF70:
 8750 03ee 76745F66 		.ascii	"vt_func\000"
 8750      756E6300 
 8751              	.LASF101:
 8752 03f6 63685F74 		.ascii	"ch_trace_buffer_t\000"
 8752      72616365 
 8752      5F627566 
 8752      6665725F 
 8752      7400
 8753              	.LASF45:
 8754 0408 705F6570 		.ascii	"p_epending\000"
 8754      656E6469 
 8754      6E6700
 8755              	.LASF119:
 8756 0413 77746D74 		.ascii	"wtmtxp\000"
 8756      787000
 8757              	.LASF57:
ARM GAS  /var/folders/c6/c789hm653lg9vtl73krp73tm0000gn/T//cc3LgWEg.s 			page 210


 8758 041a 63685F72 		.ascii	"ch_ready_list\000"
 8758      65616479 
 8758      5F6C6973 
 8758      7400
 8759              	.LASF140:
 8760 0428 626C6B5F 		.ascii	"blk_size\000"
 8760      73697A65 
 8760      00
 8761              	.LASF168:
 8762 0431 77726974 		.ascii	"write_blk_misalign\000"
 8762      655F626C 
 8762      6B5F6D69 
 8762      73616C69 
 8762      676E00
 8763              	.LASF212:
 8764 0444 5F6D6D63 		.ascii	"_mmcsd_unpack_sdc_cid\000"
 8764      73645F75 
 8764      6E706163 
 8764      6B5F7364 
 8764      635F6369 
 8765              	.LASF78:
 8766 045a 6973725F 		.ascii	"isr_cnt\000"
 8766      636E7400 
 8767              	.LASF189:
 8768 0462 756E7061 		.ascii	"unpacked_sdc_csd_10_t\000"
 8768      636B6564 
 8768      5F736463 
 8768      5F637364 
 8768      5F31305F 
 8769              	.LASF112:
 8770 0478 6D5F6372 		.ascii	"m_crit_isr\000"
 8770      69745F69 
 8770      737200
 8771              	.LASF96:
 8772 0483 73655F73 		.ascii	"se_state\000"
 8772      74617465 
 8772      00
 8773              	.LASF210:
 8774 048c 63696473 		.ascii	"cidsdc\000"
 8774      646300
 8775              	.LASF111:
 8776 0493 6D5F6372 		.ascii	"m_crit_thd\000"
 8776      69745F74 
 8776      686400
 8777              	.LASF12:
 8778 049e 5F5F7569 		.ascii	"__uint64_t\000"
 8778      6E743634 
 8778      5F7400
 8779              	.LASF10:
 8780 04a9 6C6F6E67 		.ascii	"long unsigned int\000"
 8780      20756E73 
 8780      69676E65 
 8780      6420696E 
 8780      7400
 8781              	.LASF121:
 8782 04bb 63685F73 		.ascii	"ch_semaphore\000"
 8782      656D6170 
ARM GAS  /var/folders/c6/c789hm653lg9vtl73krp73tm0000gn/T//cc3LgWEg.s 			page 211


 8782      686F7265 
 8782      00
 8783              	.LASF52:
 8784 04c8 63685F74 		.ascii	"ch_thread\000"
 8784      68726561 
 8784      6400
 8785              	.LASF72:
 8786 04d2 76697274 		.ascii	"virtual_timers_list_t\000"
 8786      75616C5F 
 8786      74696D65 
 8786      72735F6C 
 8786      6973745F 
 8787              	.LASF65:
 8788 04e8 76697274 		.ascii	"virtual_timer_t\000"
 8788      75616C5F 
 8788      74696D65 
 8788      725F7400 
 8789              	.LASF56:
 8790 04f8 72656164 		.ascii	"ready_list_t\000"
 8790      795F6C69 
 8790      73745F74 
 8790      00
 8791              	.LASF28:
 8792 0505 75636E74 		.ascii	"ucnt_t\000"
 8792      5F7400
 8793              	.LASF53:
 8794 050c 63685F74 		.ascii	"ch_threads_list\000"
 8794      68726561 
 8794      64735F6C 
 8794      69737400 
 8795              	.LASF97:
 8796 051c 63685F73 		.ascii	"ch_swc_event_t\000"
 8796      77635F65 
 8796      76656E74 
 8796      5F7400
 8797              	.LASF109:
 8798 052b 6E5F6972 		.ascii	"n_irq\000"
 8798      7100
 8799              	.LASF137:
 8800 0531 424C4B5F 		.ascii	"BLK_WRITING\000"
 8800      57524954 
 8800      494E4700 
 8801              	.LASF9:
 8802 053d 5F5F7569 		.ascii	"__uint32_t\000"
 8802      6E743332 
 8802      5F7400
 8803              	.LASF214:
 8804 0548 6369646D 		.ascii	"cidmmc\000"
 8804      6D6300
 8805              	.LASF11:
 8806 054f 6C6F6E67 		.ascii	"long long int\000"
 8806      206C6F6E 
 8806      6720696E 
 8806      7400
 8807              	.LASF147:
 8808 055d 636F6E6E 		.ascii	"connect\000"
 8808      65637400 
ARM GAS  /var/folders/c6/c789hm653lg9vtl73krp73tm0000gn/T//cc3LgWEg.s 			page 212


 8809              	.LASF125:
 8810 0565 6D5F7175 		.ascii	"m_queue\000"
 8810      65756500 
 8811              	.LASF67:
 8812 056d 76745F6E 		.ascii	"vt_next\000"
 8812      65787400 
 8813              	.LASF68:
 8814 0575 76745F70 		.ascii	"vt_prev\000"
 8814      72657600 
 8815              	.LASF151:
 8816 057d 73796E63 		.ascii	"sync\000"
 8816      00
 8817              	.LASF98:
 8818 0582 74625F73 		.ascii	"tb_size\000"
 8818      697A6500 
 8819              	.LASF225:
 8820 058a 49544D5F 		.ascii	"ITM_RxBuffer\000"
 8820      52784275 
 8820      66666572 
 8820      00
 8821              	.LASF202:
 8822 0597 73746172 		.ascii	"startoff\000"
 8822      746F6666 
 8822      00
 8823              	.LASF42:
 8824 05a0 705F7761 		.ascii	"p_waiting\000"
 8824      6974696E 
 8824      6700
 8825              	.LASF95:
 8826 05aa 73655F77 		.ascii	"se_wtobjp\000"
 8826      746F626A 
 8826      7000
 8827              	.LASF40:
 8828 05b4 705F666C 		.ascii	"p_flags\000"
 8828      61677300 
 8829              	.LASF149:
 8830 05bc 72656164 		.ascii	"read\000"
 8830      00
 8831              	.LASF87:
 8832 05c1 69646C65 		.ascii	"idle_thread_wa\000"
 8832      5F746872 
 8832      6561645F 
 8832      776100
 8833              	.LASF160:
 8834 05d0 756E7061 		.ascii	"unpacked_sdc_cid_t\000"
 8834      636B6564 
 8834      5F736463 
 8834      5F636964 
 8834      5F7400
 8835              	.LASF0:
 8836 05e3 756E7369 		.ascii	"unsigned int\000"
 8836      676E6564 
 8836      20696E74 
 8836      00
 8837              	.LASF141:
 8838 05f0 626C6B5F 		.ascii	"blk_num\000"
 8838      6E756D00 
ARM GAS  /var/folders/c6/c789hm653lg9vtl73krp73tm0000gn/T//cc3LgWEg.s 			page 213


 8839              	.LASF167:
 8840 05f8 72656164 		.ascii	"read_bl_partial\000"
 8840      5F626C5F 
 8840      70617274 
 8840      69616C00 
 8841              	.LASF19:
 8842 0608 7274636E 		.ascii	"rtcnt_t\000"
 8842      745F7400 
 8843              	.LASF48:
 8844 0610 705F6D70 		.ascii	"p_mpool\000"
 8844      6F6F6C00 
 8845              	.LASF41:
 8846 0618 705F7265 		.ascii	"p_refs\000"
 8846      667300
 8847              	.LASF113:
 8848 061f 6B65726E 		.ascii	"kernel_stats_t\000"
 8848      656C5F73 
 8848      74617473 
 8848      5F7400
 8849              	.LASF172:
 8850 062e 7664645F 		.ascii	"vdd_r_curr_min\000"
 8850      725F6375 
 8850      72725F6D 
 8850      696E00
 8851              	.LASF229:
 8852 063d 5F6D6D63 		.ascii	"_mmcsd_get_capacity\000"
 8852      73645F67 
 8852      65745F63 
 8852      61706163 
 8852      69747900 
 8853              	.LASF213:
 8854 0651 5F6D6D63 		.ascii	"_mmcsd_unpack_mmc_cid\000"
 8854      73645F75 
 8854      6E706163 
 8854      6B5F6D6D 
 8854      635F6369 
 8855              	.LASF182:
 8856 0667 77726974 		.ascii	"write_bl_len\000"
 8856      655F626C 
 8856      5F6C656E 
 8856      00
 8857              	.LASF102:
 8858 0674 6F666673 		.ascii	"offset\000"
 8858      657400
 8859              	.LASF100:
 8860 067b 74625F62 		.ascii	"tb_buffer\000"
 8860      75666665 
 8860      7200
 8861              	.LASF205:
 8862 0685 5F6D6D63 		.ascii	"_mmcsd_get_slice\000"
 8862      73645F67 
 8862      65745F73 
 8862      6C696365 
 8862      00
 8863              	.LASF179:
 8864 0696 77705F67 		.ascii	"wp_grp_size\000"
 8864      72705F73 
ARM GAS  /var/folders/c6/c789hm653lg9vtl73krp73tm0000gn/T//cc3LgWEg.s 			page 214


 8864      697A6500 
 8865              	.LASF142:
 8866 06a2 426C6F63 		.ascii	"BlockDeviceInfo\000"
 8866      6B446576 
 8866      69636549 
 8866      6E666F00 
 8867              	.LASF162:
 8868 06b2 6373645F 		.ascii	"csd_structure\000"
 8868      73747275 
 8868      63747572 
 8868      6500
 8869              	.LASF30:
 8870 06c0 74687265 		.ascii	"thread_t\000"
 8870      61645F74 
 8870      00
 8871              	.LASF50:
 8872 06c9 74687265 		.ascii	"thread_reference_t\000"
 8872      61645F72 
 8872      65666572 
 8872      656E6365 
 8872      5F7400
 8873              	.LASF47:
 8874 06dc 705F7265 		.ascii	"p_realprio\000"
 8874      616C7072 
 8874      696F00
 8875              	.LASF92:
 8876 06e7 706F7274 		.ascii	"port_intctx\000"
 8876      5F696E74 
 8876      63747800 
 8877              	.LASF132:
 8878 06f3 424C4B5F 		.ascii	"BLK_ACTIVE\000"
 8878      41435449 
 8878      564500
 8879              	.LASF69:
 8880 06fe 76745F64 		.ascii	"vt_delta\000"
 8880      656C7461 
 8880      00
 8881              	.LASF148:
 8882 0707 64697363 		.ascii	"disconnect\000"
 8882      6F6E6E65 
 8882      637400
 8883              	.LASF133:
 8884 0712 424C4B5F 		.ascii	"BLK_CONNECTING\000"
 8884      434F4E4E 
 8884      45435449 
 8884      4E4700
 8885              	.LASF66:
 8886 0721 63685F76 		.ascii	"ch_virtual_timer\000"
 8886      69727475 
 8886      616C5F74 
 8886      696D6572 
 8886      00
 8887              	.LASF123:
 8888 0732 735F636E 		.ascii	"s_cnt\000"
 8888      7400
 8889              	.LASF86:
 8890 0738 6B65726E 		.ascii	"kernel_stats\000"
ARM GAS  /var/folders/c6/c789hm653lg9vtl73krp73tm0000gn/T//cc3LgWEg.s 			page 215


 8890      656C5F73 
 8890      74617473 
 8890      00
 8891              	.LASF138:
 8892 0745 424C4B5F 		.ascii	"BLK_SYNCING\000"
 8892      53594E43 
 8892      494E4700 
 8893              	.LASF181:
 8894 0751 7232775F 		.ascii	"r2w_factor\000"
 8894      66616374 
 8894      6F7200
 8895              	.LASF13:
 8896 075c 6C6F6E67 		.ascii	"long long unsigned int\000"
 8896      206C6F6E 
 8896      6720756E 
 8896      7369676E 
 8896      65642069 
 8897              	.LASF36:
 8898 0773 705F6F6C 		.ascii	"p_older\000"
 8898      64657200 
 8899              	.LASF186:
 8900 077b 7065726D 		.ascii	"perm_write_protect\000"
 8900      5F777269 
 8900      74655F70 
 8900      726F7465 
 8900      637400
 8901              	.LASF15:
 8902 078e 75696E74 		.ascii	"uint16_t\000"
 8902      31365F74 
 8902      00
 8903              	.LASF25:
 8904 0797 6D73675F 		.ascii	"msg_t\000"
 8904      7400
 8905              	.LASF55:
 8906 079d 63685F74 		.ascii	"ch_threads_queue\000"
 8906      68726561 
 8906      64735F71 
 8906      75657565 
 8906      00
 8907              	.LASF207:
 8908 07ae 6578745F 		.ascii	"ext_csd\000"
 8908      63736400 
 8909              	.LASF63:
 8910 07b6 725F6375 		.ascii	"r_current\000"
 8910      7272656E 
 8910      7400
 8911              	.LASF85:
 8912 07c0 6D61696E 		.ascii	"mainthread\000"
 8912      74687265 
 8912      616400
 8913              	.LASF203:
 8914 07cb 656E646D 		.ascii	"endmask\000"
 8914      61736B00 
 8915              	.LASF158:
 8916 07d3 6D64745F 		.ascii	"mdt_m\000"
 8916      6D00
 8917              	.LASF159:
ARM GAS  /var/folders/c6/c789hm653lg9vtl73krp73tm0000gn/T//cc3LgWEg.s 			page 216


 8918 07d9 6D64745F 		.ascii	"mdt_y\000"
 8918      7900
 8919              	.LASF104:
 8920 07df 62657374 		.ascii	"best\000"
 8920      00
 8921              	.LASF58:
 8922 07e4 725F7175 		.ascii	"r_queue\000"
 8922      65756500 
 8923              	.LASF156:
 8924 07ec 7072765F 		.ascii	"prv_n\000"
 8924      6E00
 8925              	.LASF163:
 8926 07f2 74616163 		.ascii	"taac\000"
 8926      00
 8927              	.LASF195:
 8928 07f7 636F6E74 		.ascii	"content_prot_app\000"
 8928      656E745F 
 8928      70726F74 
 8928      5F617070 
 8928      00
 8929              	.LASF176:
 8930 0808 635F7369 		.ascii	"c_size_mult\000"
 8930      7A655F6D 
 8930      756C7400 
 8931              	.LASF83:
 8932 0814 726C6973 		.ascii	"rlist\000"
 8932      7400
 8933              	.LASF21:
 8934 081a 746D6F64 		.ascii	"tmode_t\000"
 8934      655F7400 
 8935              	.LASF177:
 8936 0822 65726173 		.ascii	"erase_blk_en\000"
 8936      655F626C 
 8936      6B5F656E 
 8936      00
 8937              	.LASF62:
 8938 082f 725F6F6C 		.ascii	"r_older\000"
 8938      64657200 
 8939              	.LASF103:
 8940 0837 746D5F63 		.ascii	"tm_calibration_t\000"
 8940      616C6962 
 8940      72617469 
 8940      6F6E5F74 
 8940      00
 8941              	.LASF169:
 8942 0848 72656164 		.ascii	"read_blk_misalign\000"
 8942      5F626C6B 
 8942      5F6D6973 
 8942      616C6967 
 8942      6E00
 8943              	.LASF122:
 8944 085a 735F7175 		.ascii	"s_queue\000"
 8944      65756500 
 8945              	.LASF193:
 8946 0862 65726173 		.ascii	"erase_grp_mult\000"
 8946      655F6772 
 8946      705F6D75 
ARM GAS  /var/folders/c6/c789hm653lg9vtl73krp73tm0000gn/T//cc3LgWEg.s 			page 217


 8946      6C7400
 8947              	.LASF3:
 8948 0871 73686F72 		.ascii	"short int\000"
 8948      7420696E 
 8948      7400
 8949              	.LASF18:
 8950 087b 75696E74 		.ascii	"uint64_t\000"
 8950      36345F74 
 8950      00
 8951              	.LASF124:
 8952 0884 63685F6D 		.ascii	"ch_mutex\000"
 8952      75746578 
 8952      00
 8953              	.LASF188:
 8954 088d 66696C65 		.ascii	"file_format\000"
 8954      5F666F72 
 8954      6D617400 
 8955              	.LASF144:
 8956 0899 4D4D4353 		.ascii	"MMCSDBlockDeviceVMT\000"
 8956      44426C6F 
 8956      636B4465 
 8956      76696365 
 8956      564D5400 
 8957              	.LASF184:
 8958 08ad 66696C65 		.ascii	"file_format_grp\000"
 8958      5F666F72 
 8958      6D61745F 
 8958      67727000 
 8959              	.LASF134:
 8960 08bd 424C4B5F 		.ascii	"BLK_DISCONNECTING\000"
 8960      44495343 
 8960      4F4E4E45 
 8960      4354494E 
 8960      4700
 8961              	.LASF199:
 8962 08cf 73746172 		.ascii	"start\000"
 8962      7400
 8963              	.LASF59:
 8964 08d5 725F7072 		.ascii	"r_prio\000"
 8964      696F00
 8965              	.LASF76:
 8966 08dc 63685F73 		.ascii	"ch_system_debug\000"
 8966      79737465 
 8966      6D5F6465 
 8966      62756700 
 8967              	.LASF155:
 8968 08ec 4D4D4353 		.ascii	"MMCSDBlockDevice\000"
 8968      44426C6F 
 8968      636B4465 
 8968      76696365 
 8968      00
 8969              	.LASF84:
 8970 08fd 76746C69 		.ascii	"vtlist\000"
 8970      737400
 8971              	.LASF192:
 8972 0904 65726173 		.ascii	"erase_grp_size\000"
 8972      655F6772 
ARM GAS  /var/folders/c6/c789hm653lg9vtl73krp73tm0000gn/T//cc3LgWEg.s 			page 218


 8972      705F7369 
 8972      7A6500
 8973              	.LASF230:
 8974 0913 63685379 		.ascii	"chSysHalt\000"
 8974      7348616C 
 8974      7400
 8975              	.LASF129:
 8976 091d 6D757465 		.ascii	"mutex_t\000"
 8976      785F7400 
 8977              	.LASF23:
 8978 0925 74726566 		.ascii	"trefs_t\000"
 8978      735F7400 
 8979              	.LASF175:
 8980 092d 7664645F 		.ascii	"vdd_w_curr_max\000"
 8980      775F6375 
 8980      72725F6D 
 8980      617800
 8981              	.LASF51:
 8982 093c 74687265 		.ascii	"threads_list_t\000"
 8982      6164735F 
 8982      6C697374 
 8982      5F7400
 8983              	.LASF82:
 8984 094b 63685F73 		.ascii	"ch_system\000"
 8984      79737465 
 8984      6D00
 8985              	.LASF136:
 8986 0955 424C4B5F 		.ascii	"BLK_READING\000"
 8986      52454144 
 8986      494E4700 
 8987              	.LASF17:
 8988 0961 75696E74 		.ascii	"uint32_t\000"
 8988      33325F74 
 8988      00
 8989              	.LASF204:
 8990 096a 5F5F6675 		.ascii	"__func__.7806\000"
 8990      6E635F5F 
 8990      2E373830 
 8990      3600
 8991              	.LASF226:
 8992 0978 474E5520 		.ascii	"GNU C 4.8.4 20140725 (release) [ARM/embedded-4_8-br"
 8992      4320342E 
 8992      382E3420 
 8992      32303134 
 8992      30373235 
 8993 09ab 616E6368 		.ascii	"anch revision 213147] -mcpu=cortex-m4 -mno-thumb-in"
 8993      20726576 
 8993      6973696F 
 8993      6E203231 
 8993      33313437 
 8994 09de 74657277 		.ascii	"terwork -mthumb -ggdb -O2 -fomit-frame-pointer -fal"
 8994      6F726B20 
 8994      2D6D7468 
 8994      756D6220 
 8994      2D676764 
 8995 0a11 69676E2D 		.ascii	"ign-functions=16 -ffunction-sections -fdata-section"
 8995      66756E63 
ARM GAS  /var/folders/c6/c789hm653lg9vtl73krp73tm0000gn/T//cc3LgWEg.s 			page 219


 8995      74696F6E 
 8995      733D3136 
 8995      202D6666 
 8996 0a44 73202D66 		.ascii	"s -fno-common -flto\000"
 8996      6E6F2D63 
 8996      6F6D6D6F 
 8996      6E202D66 
 8996      6C746F00 
 8997              	.LASF219:
 8998 0a58 5F6D6D63 		.ascii	"_mmcsd_unpack_csd_v10\000"
 8998      73645F75 
 8998      6E706163 
 8998      6B5F6373 
 8998      645F7631 
 8999              	.LASF114:
 9000 0a6e 7264796D 		.ascii	"rdymsg\000"
 9000      736700
 9001              	.LASF74:
 9002 0a75 76745F6C 		.ascii	"vt_lasttime\000"
 9002      61737474 
 9002      696D6500 
 9003              	.LASF6:
 9004 0a81 73686F72 		.ascii	"short unsigned int\000"
 9004      7420756E 
 9004      7369676E 
 9004      65642069 
 9004      6E7400
 9005              	.LASF197:
 9006 0a94 5F5F6675 		.ascii	"__func__.7813\000"
 9006      6E635F5F 
 9006      2E373831 
 9006      3300
 9007              	.LASF81:
 9008 0aa2 63685F73 		.ascii	"ch_system_t\000"
 9008      79737465 
 9008      6D5F7400 
 9009              	.LASF217:
 9010 0aae 6373646D 		.ascii	"csdmmc\000"
 9010      6D6300
 9011              	.LASF38:
 9012 0ab5 705F7374 		.ascii	"p_stklimit\000"
 9012      6B6C696D 
 9012      697400
 9013              	.LASF190:
 9014 0ac0 756E7061 		.ascii	"unpacked_sdc_csd_20_t\000"
 9014      636B6564 
 9014      5F736463 
 9014      5F637364 
 9014      5F32305F 
 9015              	.LASF7:
 9016 0ad6 5F5F696E 		.ascii	"__int32_t\000"
 9016      7433325F 
 9016      7400
 9017              	.LASF222:
 9018 0ae0 5F6D6D63 		.ascii	"_mmcsd_unpack_csd_v20\000"
 9018      73645F75 
 9018      6E706163 
ARM GAS  /var/folders/c6/c789hm653lg9vtl73krp73tm0000gn/T//cc3LgWEg.s 			page 220


 9018      6B5F6373 
 9018      645F7632 
 9019              	.LASF208:
 9020 0af6 5F5F6675 		.ascii	"__func__.7821\000"
 9020      6E635F5F 
 9020      2E373832 
 9020      3100
 9021              	.LASF211:
 9022 0b04 5F5F6675 		.ascii	"__func__.7827\000"
 9022      6E635F5F 
 9022      2E373832 
 9022      3700
 9023              	.LASF93:
 9024 0b12 73655F74 		.ascii	"se_time\000"
 9024      696D6500 
 9025              	.LASF37:
 9026 0b1a 705F6E61 		.ascii	"p_name\000"
 9026      6D6500
 9027              	.LASF198:
 9028 0b21 64617461 		.ascii	"data\000"
 9028      00
 9029              	.LASF127:
 9030 0b26 6D5F6E65 		.ascii	"m_next\000"
 9030      787400
 9031              	.LASF99:
 9032 0b2d 74625F70 		.ascii	"tb_ptr\000"
 9032      747200
 9033              	.LASF131:
 9034 0b34 424C4B5F 		.ascii	"BLK_STOP\000"
 9034      53544F50 
 9034      00
 9035              	.LASF106:
 9036 0b3d 6C617374 		.ascii	"last\000"
 9036      00
 9037              	.LASF44:
 9038 0b42 705F6D73 		.ascii	"p_msg\000"
 9038      6700
 9039              	.LASF39:
 9040 0b48 705F7374 		.ascii	"p_state\000"
 9040      61746500 
 9041              		.comm	__gnu_lto_v1,1,1
 9042              		.ident	"GCC: (GNU Tools for ARM Embedded Processors) 4.8.4 20140725 (release) [ARM/embedded-4_8-br
ARM GAS  /var/folders/c6/c789hm653lg9vtl73krp73tm0000gn/T//cc3LgWEg.s 			page 221


DEFINED SYMBOLS
                            *ABS*:0000000000000000 hal_mmcsd.c
/var/folders/c6/c789hm653lg9vtl73krp73tm0000gn/T//cc3LgWEg.s:838    .text._mmcsd_get_slice:0000000000000000 $t
/var/folders/c6/c789hm653lg9vtl73krp73tm0000gn/T//cc3LgWEg.s:844    .text._mmcsd_get_slice:0000000000000000 _mmcsd_get_slice
/var/folders/c6/c789hm653lg9vtl73krp73tm0000gn/T//cc3LgWEg.s:929    .text._mmcsd_get_slice:0000000000000058 $d
/var/folders/c6/c789hm653lg9vtl73krp73tm0000gn/T//cc3LgWEg.s:934    .text._mmcsd_get_capacity:0000000000000000 $t
/var/folders/c6/c789hm653lg9vtl73krp73tm0000gn/T//cc3LgWEg.s:940    .text._mmcsd_get_capacity:0000000000000000 _mmcsd_get_capacity
/var/folders/c6/c789hm653lg9vtl73krp73tm0000gn/T//cc3LgWEg.s:1039   .text._mmcsd_get_capacity:0000000000000064 $d
/var/folders/c6/c789hm653lg9vtl73krp73tm0000gn/T//cc3LgWEg.s:1044   .text._mmcsd_get_capacity_ext:0000000000000000 $t
/var/folders/c6/c789hm653lg9vtl73krp73tm0000gn/T//cc3LgWEg.s:1050   .text._mmcsd_get_capacity_ext:0000000000000000 _mmcsd_get_capacity_ext
/var/folders/c6/c789hm653lg9vtl73krp73tm0000gn/T//cc3LgWEg.s:1094   .text._mmcsd_get_capacity_ext:000000000000002c $d
/var/folders/c6/c789hm653lg9vtl73krp73tm0000gn/T//cc3LgWEg.s:1099   .text._mmcsd_unpack_sdc_cid:0000000000000000 $t
/var/folders/c6/c789hm653lg9vtl73krp73tm0000gn/T//cc3LgWEg.s:1105   .text._mmcsd_unpack_sdc_cid:0000000000000000 _mmcsd_unpack_sdc_cid
/var/folders/c6/c789hm653lg9vtl73krp73tm0000gn/T//cc3LgWEg.s:1259   .text._mmcsd_unpack_sdc_cid:00000000000000bc $d
/var/folders/c6/c789hm653lg9vtl73krp73tm0000gn/T//cc3LgWEg.s:1264   .text._mmcsd_unpack_mmc_cid:0000000000000000 $t
/var/folders/c6/c789hm653lg9vtl73krp73tm0000gn/T//cc3LgWEg.s:1270   .text._mmcsd_unpack_mmc_cid:0000000000000000 _mmcsd_unpack_mmc_cid
/var/folders/c6/c789hm653lg9vtl73krp73tm0000gn/T//cc3LgWEg.s:1433   .text._mmcsd_unpack_mmc_cid:00000000000000c8 $d
/var/folders/c6/c789hm653lg9vtl73krp73tm0000gn/T//cc3LgWEg.s:1438   .text._mmcsd_unpack_csd_mmc:0000000000000000 $t
/var/folders/c6/c789hm653lg9vtl73krp73tm0000gn/T//cc3LgWEg.s:1444   .text._mmcsd_unpack_csd_mmc:0000000000000000 _mmcsd_unpack_csd_mmc
/var/folders/c6/c789hm653lg9vtl73krp73tm0000gn/T//cc3LgWEg.s:1761   .text._mmcsd_unpack_csd_mmc:000000000000019c $d
/var/folders/c6/c789hm653lg9vtl73krp73tm0000gn/T//cc3LgWEg.s:1766   .text._mmcsd_unpack_csd_v10:0000000000000000 $t
/var/folders/c6/c789hm653lg9vtl73krp73tm0000gn/T//cc3LgWEg.s:1772   .text._mmcsd_unpack_csd_v10:0000000000000000 _mmcsd_unpack_csd_v10
/var/folders/c6/c789hm653lg9vtl73krp73tm0000gn/T//cc3LgWEg.s:2032   .text._mmcsd_unpack_csd_v10:0000000000000144 $d
/var/folders/c6/c789hm653lg9vtl73krp73tm0000gn/T//cc3LgWEg.s:2037   .text._mmcsd_unpack_csd_v20:0000000000000000 $t
/var/folders/c6/c789hm653lg9vtl73krp73tm0000gn/T//cc3LgWEg.s:2043   .text._mmcsd_unpack_csd_v20:0000000000000000 _mmcsd_unpack_csd_v20
/var/folders/c6/c789hm653lg9vtl73krp73tm0000gn/T//cc3LgWEg.s:2294   .text._mmcsd_unpack_csd_v20:0000000000000138 $d
/var/folders/c6/c789hm653lg9vtl73krp73tm0000gn/T//cc3LgWEg.s:2299   .rodata.__func__.7813:0000000000000000 $d
/var/folders/c6/c789hm653lg9vtl73krp73tm0000gn/T//cc3LgWEg.s:2303   .rodata.__func__.7813:0000000000000000 __func__.7813
/var/folders/c6/c789hm653lg9vtl73krp73tm0000gn/T//cc3LgWEg.s:2306   .rodata.__func__.7821:0000000000000000 $d
/var/folders/c6/c789hm653lg9vtl73krp73tm0000gn/T//cc3LgWEg.s:2310   .rodata.__func__.7821:0000000000000000 __func__.7821
/var/folders/c6/c789hm653lg9vtl73krp73tm0000gn/T//cc3LgWEg.s:2313   .rodata.__func__.7827:0000000000000000 $d
/var/folders/c6/c789hm653lg9vtl73krp73tm0000gn/T//cc3LgWEg.s:2317   .rodata.__func__.7827:0000000000000000 __func__.7827
/var/folders/c6/c789hm653lg9vtl73krp73tm0000gn/T//cc3LgWEg.s:2320   .rodata.__func__.7833:0000000000000000 $d
/var/folders/c6/c789hm653lg9vtl73krp73tm0000gn/T//cc3LgWEg.s:2324   .rodata.__func__.7833:0000000000000000 __func__.7833
/var/folders/c6/c789hm653lg9vtl73krp73tm0000gn/T//cc3LgWEg.s:2327   .rodata.__func__.7839:0000000000000000 $d
/var/folders/c6/c789hm653lg9vtl73krp73tm0000gn/T//cc3LgWEg.s:2331   .rodata.__func__.7839:0000000000000000 __func__.7839
/var/folders/c6/c789hm653lg9vtl73krp73tm0000gn/T//cc3LgWEg.s:2334   .rodata.__func__.7845:0000000000000000 $d
/var/folders/c6/c789hm653lg9vtl73krp73tm0000gn/T//cc3LgWEg.s:2338   .rodata.__func__.7845:0000000000000000 __func__.7845
/var/folders/c6/c789hm653lg9vtl73krp73tm0000gn/T//cc3LgWEg.s:2341   .rodata.__func__.7851:0000000000000000 $d
/var/folders/c6/c789hm653lg9vtl73krp73tm0000gn/T//cc3LgWEg.s:2345   .rodata.__func__.7851:0000000000000000 __func__.7851
/var/folders/c6/c789hm653lg9vtl73krp73tm0000gn/T//cc3LgWEg.s:2348   .rodata.__func__.7806:0000000000000000 $d
/var/folders/c6/c789hm653lg9vtl73krp73tm0000gn/T//cc3LgWEg.s:2352   .rodata.__func__.7806:0000000000000000 __func__.7806
                            *COM*:0000000000000001 __gnu_lto_v1
                     .debug_frame:0000000000000010 $d
/var/folders/c6/c789hm653lg9vtl73krp73tm0000gn/T//cc3LgWEg.s:933    .text._mmcsd_get_slice:000000000000005c $t
/var/folders/c6/c789hm653lg9vtl73krp73tm0000gn/T//cc3LgWEg.s:1043   .text._mmcsd_get_capacity:0000000000000068 $t
/var/folders/c6/c789hm653lg9vtl73krp73tm0000gn/T//cc3LgWEg.s:1437   .text._mmcsd_unpack_mmc_cid:00000000000000cc $t
/var/folders/c6/c789hm653lg9vtl73krp73tm0000gn/T//cc3LgWEg.s:2036   .text._mmcsd_unpack_csd_v10:0000000000000148 $t
/var/folders/c6/c789hm653lg9vtl73krp73tm0000gn/T//cc3LgWEg.s:2298   .text._mmcsd_unpack_csd_v20:000000000000013c $t

UNDEFINED SYMBOLS
chSysHalt
