ARM GAS  /var/folders/c6/c789hm653lg9vtl73krp73tm0000gn/T//ccfdOrSk.s 			page 1


   1              		.syntax unified
   2              		.cpu cortex-m4
   3              		.fpu softvfp
   4              		.eabi_attribute 20, 1
   5              		.eabi_attribute 21, 1
   6              		.eabi_attribute 23, 3
   7              		.eabi_attribute 24, 1
   8              		.eabi_attribute 25, 1
   9              		.eabi_attribute 26, 1
  10              		.eabi_attribute 30, 2
  11              		.eabi_attribute 34, 1
  12              		.eabi_attribute 18, 4
  13              		.thumb
  14              		.file	"pal.c"
  15              		.text
  16              	.Ltext0:
  17              		.section	.gnu.lto_.jmpfuncs.192e1caca23cee51,"",%progbits
  18 0000 789C6362 		.ascii	"x\234cb`b\300\006|\24143\003##S5\303\257\206\031\015"
  18      6062C006 
  18      7CA13433 
  18      03232353 
  18      35C3AF86 
  19 0016 02998C0C 		.ascii	"\002\231\214\014\271\214`Q&f$A\306\\F\260(\01333D\007"
  19      B98C6051 
  19      26662441 
  19      C65C46B0 
  19      280B3333 
  20 002c 03631910 		.ascii	"\003c\031\020#\0240\3452B,\001\000*\267\014\315"
  20      231430E5 
  20      32422C01 
  20      002AB70C 
  20      CD
  21              		.text
  22              		.section	.gnu.lto_.inline.192e1caca23cee51,"",%progbits
  23 0000 789C6362 		.ascii	"x\234cb`b\300\006\234\030!43\003\203\200\010#\033Cz"
  23      6062C006 
  23      9C182134 
  23      33038380 
  23      08231B43 
  24 0015 04632623 		.ascii	"\004c&#3H$\003\316J\005\261X\370\031\230\035\030R\020"
  24      33482403 
  24      CE4A05B1 
  24      58F81998 
  24      1D185210 
  25 0029 4CB04620 		.ascii	"L\260F \301\354\300\312\271\302\215\201\363\206\031"
  25      C1ECC0CA 
  25      B9C28D81 
  25      F38619
  26 0038 1303CB02 		.ascii	"\023\003\313\002y\240\304\022\366\006F\016&\006\326"
  26      79A0C412 
  26      F606460E 
  26      2606D6
  27 0047 2D2A401A 		.ascii	"-*@\032\244\212\211\233A\004\250\224\211AT\222\221\235"
  27      A48A899B 
  27      4104A894 
  27      89415492 
  27      919D
ARM GAS  /var/folders/c6/c789hm653lg9vtl73krp73tm0000gn/T//ccfdOrSk.s 			page 2


  28 0059 2C2B1841 		.ascii	",+\030AL6\301\027-\214\270-b\272\300\337\300\204d\035"
  28      4C36C117 
  28      2D8CB82D 
  28      62BAC0DF 
  28      C084641D 
  29 006d 0B83903C 		.ascii	"\013\203\220<\271>b\355P\307\353#\026^\240\262\011~"
  29      B93E62ED 
  29      50C7EB23 
  29      165EA0B2 
  29      097E
  30 007f 2008B58D 		.ascii	" \010\265\215\001\000H\016'\230"
  30      0100480E 
  30      2798
  31              		.text
  32              		.section	.gnu.lto_.pureconst.192e1caca23cee51,"",%progbits
  33 0000 789C6362 		.ascii	"x\234cb`b`g\200\000f\006)&)\026I\000\001\322\000b"
  33      60626067 
  33      80006606 
  33      29262916 
  33      490001D2 
  34              		.text
  35              		.section	.gnu.lto_palReadBus.192e1caca23cee51,"",%progbits
  36 0000 789C8D90 		.ascii	"x\234\215\220=K\003A\020\206g\366\343r_QK\021\021k\003"
  36      3D4B0341 
  36      108667F6 
  36      E3725F51 
  36      4B11116B 
  37 0015 39FC0BFE 		.ascii	"9\374\013\376\005\023P\273xE<HPLi\221\323\244\260\014"
  37      051350BB 
  37      78453C48 
  37      504C6991 
  37      D3A4B00C 
  38 0029 368A36DA 		.ascii	"6\2126\332X\244\210\255\240\205\212\2044\361\003\254"
  38      58A488AD 
  38      A0858A84 
  38      34F103AC 
  39 0039 52098236 		.ascii	"R\011\2026\"\3266q\366.\267\032I\341r7\2733\274\357"
  39      22D63671 
  39      F62EB71A 
  39      49E17237 
  39      BB33BCEF 
  40 004d B333CB80 		.ascii	"\2633\313\200\301\337\265@\377\"\225\247iG\003\2205"
  40      C1DFB540 
  40      FF2295A7 
  40      69470390 
  40      35
  41 005e EE00B64D 		.ascii	"\356\000\266M\306\304\261\204\320\346\237\035\200\320"
  41      C6C4B184 
  41      D0E69F1D 
  41      80D0
  42 006c E54C3C79 		.ascii	"\345L<y\224\312\313\031\312\004\312X%\021\325\001\020"
  42      94CACB19 
  42      CA04CA58 
  42      2511D501 
  42      10
  43 007d AA8C0B89 		.ascii	"\252\214\013\211\325eTL,#\234\261\253\347~\277\265\327"
  43      D565544C 
ARM GAS  /var/folders/c6/c789hm653lg9vtl73krp73tm0000gn/T//ccfdOrSk.s 			page 3


  43      2C239CB1 
  43      ABE77EBF 
  43      B5D7
  44 008f 3E7DC703 		.ascii	">}\307\003\226fTC\001\001\202A\001S\024\230\251R\213"
  44      96665443 
  44      01018241 
  44      01531498 
  44      A9528B
  45 00a2 02B755EA 		.ascii	"\002\267U\352\250\340R\020\204\220P\017\303\306lY\361"
  45      A8E05210 
  45      8490500F 
  45      C3C66C59 
  45      F1
  46 00b3 FC089AA3 		.ascii	"\374\010\232\243\250.\313#S;\357\300\355\333\365~\033"
  46      A82ECB23 
  46      533BEFC0 
  46      EDDBF57E 
  46      1B
  47 00c4 0B788212 		.ascii	"\013x\202\022\212\310\2260\240\303\257\225G\016\324"
  47      8AC89630 
  47      A0C3AF95 
  47      470ED4
  48 00d3 3EEFC2CE 		.ascii	">\357\302\316J\242\022\031\230\013\3208\202CR\247\206"
  48      4AA21219 
  48      980BD038 
  48      824352A7 
  48      86
  49 00e4 5CAB9818 		.ascii	"\\\253\230\030\011\375\252\271B)\214\361!\256\200\336"
  49      09FDAAB9 
  49      42298CF1 
  49      21AE80DE 
  50 00f4 3CBF0711 		.ascii	"<\277\007\021k\000\266\340+\334\015'\0024}\214)\252"
  50      6B00B6E0 
  50      2BDC0D27 
  50      02347D8C 
  50      29AA
  51 0106 3219A045 		.ascii	"2\031\240E\003\014D\001\332\211]F\003P[\275\363\227"
  51      030C4401 
  51      DA895D46 
  51      03505BBD 
  51      F397
  52 0118 077D9111 		.ascii	"\007}\221\021\265\346\214n-\351\255\0137z\226T\006\232"
  52      B5E68C6E 
  52      2DE9AD0B 
  52      377A9654 
  52      069A
  53 012a 619D446E 		.ascii	"a\235Dn\354I\023Cy\234\201\207i\317\317\374\346\177"
  53      EC491343 
  53      799C8187 
  53      69CFCFFC 
  53      E67F
  54 013c E627C307 		.ascii	"\346'\303\007O\034\026\231T\251\326\322%\273\250\254"
  54      4F1C1699 
  54      54A9D6D2 
  54      25BBA8AC 
  55 014c D630D989 		.ascii	"\3260\331\211\310b4\231kr\355\2426\226X\334\010E\355"
  55      C8623499 
ARM GAS  /var/folders/c6/c789hm653lg9vtl73krp73tm0000gn/T//ccfdOrSk.s 			page 4


  55      6B72EDA2 
  55      369658DC 
  55      0845ED
  56 015f 3E827E05 		.ascii	">\202~\0057\026\346hbz$5\302T6\353\305\337z\305[+\224"
  56      3716E668 
  56      627A2435 
  56      C25436EB 
  56      C5DF7AC5 
  57 0176 BCCAA6EF 		.ascii	"\274\312\246\357m\024JY\037\276\001\024\310}\327"
  57      6D144A59 
  57      1FBE0114 
  57      C87DD7
  58              		.text
  59              		.section	.gnu.lto_palWriteBus.192e1caca23cee51,"",%progbits
  60 0000 789C8D51 		.ascii	"x\234\215Q\277K\034A\024\376\336\374\330\273\333\273"
  60      BF4B1C41 
  60      14FEDEFC 
  60      D8BBDBBB 
  61 0010 F3F62445 		.ascii	"\363\366$E\020\011\201t\021n\361_\260\263WH\322]\256"
  61      10098174 
  61      116EF15F 
  61      B0B35748 
  61      D25DAE
  62 0023 D0050F43 		.ascii	"\320\005\017C,S\270&\026\226\326\261\211\255`\322\330"
  62      2C53B826 
  62      1696D6B1 
  62      89AD60D2 
  62      D8
  63 0034 88822604 		.ascii	"\210\202&\004\271&\011\202\225\225U\354\202\205\215"
  63      B9260982 
  63      959555EC 
  63      82858D
  64 0043 229CEFCD 		.ascii	"\"\234\357\315\334lr\207E\206\33573\337|\357{\337\233"
  64      DC6C7287 
  64      4586DD37 
  64      33DF7CEF 
  64      7BDF9B
  65 0056 5150181D 		.ascii	"QP\030\0353\374k\015L\362L\021Hm\376\004\326\312J\231"
  65      33FC6B0D 
  65      4CF24C11 
  65      486DFE04 
  65      D6CA4A99 
  66 006a 4F1679AC 		.ascii	"O\026y\254\257z@^\323\312\234\245\274\265\207Oxg\310"
  66      AF7A405E 
  66      D3CA9CA5 
  66      BCB5874F 
  66      7867C8
  67 007d 7A962592 		.ascii	"z\226%\222\005\010\253J\033K\253/I4\251K\370\242\216"
  67      0508AB4A 
  67      1B4BAB2F 
  67      4934A94B 
  67      F8A28E
  68 0090 2FFAFDCF 		.ascii	"/\372\375\317\327'{w\264\245\036)\306\310 #D\034\250"
  68      D7277B77 
  68      B4A51E29 
  68      C6C82023 
  68      441CA8
ARM GAS  /var/folders/c6/c789hm653lg9vtl73krp73tm0000gn/T//ccfdOrSk.s 			page 5


  69 00a3 C45B55E6 		.ascii	"\304[U\346\225\252H\210%T\345\264&\241\316A\217\011"
  69      95AA4888 
  69      2554E5B4 
  69      26A1CE41 
  69      8F09
  70 00b5 D69090C8 		.ascii	"\326\220\220\310\266)\253q\011\\\300b=\3177\237v\245"
  70      B629AB71 
  70      095CC062 
  70      3DCF379F 
  70      76A5
  71 00c7 5AC7959C 		.ascii	"Z\307\225\234\343(V\346\371\234g\335\303\367\313\257"
  71      E32856E6 
  71      F99C67DD 
  71      C3F7CBAF 
  72 00d7 3727D4A6 		.ascii	"7'\324\246m\262X \365\2022\256\377\317\230'\015nN\377"
  72      6DB25820 
  72      F58232AE 
  72      FFCF9827 
  72      0D6E4EFF 
  73 00eb C0FB5781 		.ascii	"\300\373W\201e\246\360<#\273\205\217\314\216\206\262"
  73      65A6F03C 
  73      23BB858F 
  73      CC8E86B2 
  74 00fb 5E534864 		.ascii	"^SHd\351\337\205\256\021\206m\014\351\032\234O\353_"
  74      E9DF85AE 
  74      11866D0C 
  74      E91A9C4F 
  74      EB5F
  75 010d 309E03BC 		.ascii	"0\236\003\274\303m\276\221'\031\225:\344U\004y\234Q"
  75      C36DBE91 
  75      2719953A 
  75      E4550479 
  75      9C51
  76 011f 991B1890 		.ascii	"\231\033\030\2202\252\204t\353\032`[\347\275\345P&r"
  76      32AA8474 
  76      EB1A605B 
  76      E7BDE550 
  76      2672
  77 0131 C6E2878D 		.ascii	"\306\342\207\215\005g\234r\250CFy\201J\016*\232\253"
  77      05679C72 
  77      A8434679 
  77      814A0E2A 
  77      9AAB
  78 0143 388DEAC3 		.ascii	"8\215\352\303\032\252\320\370pPh\304N\2462,S\375\237"
  78      1AAAD0F8 
  78      705068C4 
  78      4EA6322C 
  78      53FD9F
  79 0156 3B62998D 		.ascii	";b\231\215B\246\306IBB\342M\376)N\352|\350\310\273\005"
  79      42A6C649 
  79      4242E24D 
  79      FE294EEA 
  79      7CE8C8BB 
  80 016b 34E6CAD6 		.ascii	"4\346\312\326G\2344\270\233\340\344oz\302\302#\351M"
  80      479C34B8 
  80      9BE0E46F 
  80      7AC2C223 
ARM GAS  /var/folders/c6/c789hm653lg9vtl73krp73tm0000gn/T//ccfdOrSk.s 			page 6


  80      E94D
  81 017d C74D1CBA 		.ascii	"\307M\034\272_\240\343N\267)\350\267Y\017Na'_gS\265"
  81      5FA0E34E 
  81      B729E8B7 
  81      590F4E61 
  81      275F6753 
  82 0192 B0A8FB8E 		.ascii	"\260\250\373\216\230\027\211\331x\320\221\036\314\276"
  82      981789D9 
  82      78D0911E 
  82      CCBE
  83 01a0 4396024E 		.ascii	"C\226\002N\261vq\364,\274\256\037s\374\012\374lr\215"
  83      B17671F4 
  83      2CBCAE1F 
  83      73FC0AFC 
  83      6C728D
  84 01b3 13AD56EA 		.ascii	"\023\255V\352\277\345\225t\261\275\224\256\274\355\244"
  84      BFE59574 
  84      B1BD94AE 
  84      BCEDA4
  85 01c2 6FDA4BAD 		.ascii	"o\332K\255\016\356\001u\177\236A"
  85      0EEE0175 
  85      7F9E41
  86              		.text
  87              		.section	.gnu.lto_palSetBusMode.192e1caca23cee51,"",%progbits
  88 0000 789C8D50 		.ascii	"x\234\215P=K\303P\024=\367}\244i\332\242\243\210\210"
  88      3D4BC350 
  88      143DF77D 
  88      A469DAA2 
  88      A38888
  89 0013 E0A690E0 		.ascii	"\340\246\220\340_\3607\264\240n5C\015\264(v\354\320"
  89      5FF037B4 
  89      A06E3543 
  89      0DB42876 
  89      ECD0
  90 0025 541D1C3B 		.ascii	"T\035\034;+\210n.\352\037pP\020\332E\213\"\010\235:"
  90      2B886E2E 
  90      EA1F7050 
  90      10DA458B 
  90      22089D3A 
  91 0039 E922C5D9 		.ascii	"\351\"\305\331\245\336\2274\245\325\016^\222\373ro\316"
  91      A5DE9734 
  91      A5D50E5E 
  91      92FB726F 
  91      CE
  92 004a 39F79E27 		.ascii	"9\367\236' \360;\326\371u\271\275\300'Y \321|\002\032"
  92      20F03BD6 
  92      F975B9BD 
  92      C0275920 
  92      D17C021A 
  93 005e B610EA5C 		.ascii	"\266\020\352\\#t\344W\033\010\263R\250W\217K}\273\310"
  93      2374E457 
  93      1B08B352 
  93      A8578F4B 
  93      7DBBC8
  94 0071 95221DA3 		.ascii	"\225\"\035\2434\221\371\000\241.\244\322T\337$\243I"
  94      3491F900 
  94      A12EA4D2 
ARM GAS  /var/folders/c6/c789hm653lg9vtl73krp73tm0000gn/T//ccfdOrSk.s 			page 7


  94      54DF24A3 
  94      49
  95 0082 15C28DB8 		.ascii	"\025\302\215\270\353\015\006\327/\255\233O:\0239\301"
  95      EB0D06D7 
  95      2FAD9B4F 
  95      3A1339C1 
  96 0092 3D520808 		.ascii	"=R\010\010\026'Jq\022\266)\323\234\244c\312\014C\314"
  96      16274A71 
  96      12B629D3 
  96      9CA463CA 
  96      0C43CC
  97 00a5 7E1A4761 		.ascii	"~\032Ga\330\\\252\030)?\322\313s6s\012\374\237O\331"
  97      D85CAA18 
  97      293FD2CB 
  97      7336730A 
  97      FC9F4FD9 
  98 00b9 C6C3C7FD 		.ascii	"\306\303\307\375[\213\212tA\032%\022\033\024\260\370"
  98      5B8B8A74 
  98      411A2512 
  98      1B14B0F8 
  99 00c9 58144882 		.ascii	"X\024H\2027\227\2178\330JPj\025+\001\351S\2340\332\232"
  99      37978F38 
  99      D84A506A 
  99      152B01E9 
  99      539C30DA 
 100 00de 606D5342 		.ascii	"`mSBd\351\367\221\2562\010=3\241\253\320]\223\035\250"
 100      64E9F791 
 100      AE32083D 
 100      33A1ABD0 
 100      5D931DA8 
 101 00f2 1803D4F0 		.ascii	"\030\003\324\360\035\036\207\263\001\245|\212ULg. \233"
 101      1D1E87B3 
 101      01A57C8A 
 101      554C672E 
 101      209B
 102 0104 0D0C4101 		.ascii	"\015\014A\001\245\023\272\216\014\360Z\335\313Z2\306"
 102      A513BA8E 
 102      0CF05ADD 
 102      CB5A32C6 
 103 0114 8A1673A6 		.ascii	"\212\026s\246/\226l6\356$\025\0212\323\011b\012\301"
 103      2F966C36 
 103      EE241511 
 103      32D30962 
 103      0AC1
 104 0126 FE8F7526 		.ascii	"\376\217u&\364e\302H3\311\264\016\257F-\207\007\227"
 104      F465C248 
 104      33C9B40E 
 104      AF462D87 
 104      0797
 105 0138 8C930EAC 		.ascii	"\214\223\016\254?\356\263\376pp\311\35034\023P\016x"
 105      3FEEB3FE 
 105      7070C9E8 
 105      33341350 
 105      0E78
 106 014a 46A3D75F 		.ascii	"F\243\327_N\320q\344\331\023_\202\201\317\273\256\027"
 106      4ED071E4 
 106      D9135F82 
ARM GAS  /var/folders/c6/c789hm653lg9vtl73krp73tm0000gn/T//ccfdOrSk.s 			page 8


 106      81CFBBAE 
 106      17
 107 015b 3FBB556F 		.ascii	"?\273Uo\247X\366\252\373\276\267W,\273>~\000\\\232x"
 107      A758F6AA 
 107      FBBEB757 
 107      2CBB3E7E 
 107      005C9A78 
 108 016f 07       		.ascii	"\007"
 109              		.text
 110              		.section	.gnu.lto_.symbol_nodes.192e1caca23cee51,"",%progbits
 111 0000 789C4DC8 		.ascii	"x\234M\310\261\025@@\020\204\341\331\331C\031J\335\013"
 111      B1154040 
 111      1084E1D9 
 111      D943194A 
 111      DD0B
 112 0012 38874405 		.ascii	"8\207D\005\022\375P\204T\240\004<\307\273I\3767\037"
 112      12FD5084 
 112      54A0043C 
 112      C7BB49FE 
 112      371F
 113 0024 4178A4B1 		.ascii	"Ax\244\261\241\001\323\012\230\315Q\212H8S\2664\311"
 113      A101D30A 
 113      98CD518A 
 113      483853B6 
 113      34C9
 114 0036 B4A73C1A 		.ascii	"\264\247<\032h\314t o\225\216\246\257z/2\322\334\377"
 114      68CC7420 
 114      6F958EA6 
 114      AF7A2F32 
 114      D2DCFF
 115 0049 1425F673 		.ascii	"\024%\366s\023e\252\373Za\011G\215\013\252w#\223"
 115      1365AAFB 
 115      5A610947 
 115      8D0BAA77 
 115      2393
 116              		.text
 117              		.section	.gnu.lto_.refs.192e1caca23cee51,"",%progbits
 118 0000 789C6362 		.ascii	"x\234cb`b\340e\200\000F\006&FF&&fF\026&V\006\000\002"
 118      6062E065 
 118      80004606 
 118      26464626 
 118      26664616 
 119 0019 15002A   		.ascii	"\025\000*"
 120              		.text
 121              		.section	.gnu.lto_.decls.192e1caca23cee51,"",%progbits
 122 0000 789CAD58 		.ascii	"x\234\255X{l\024E\030\237\331\335\203^{\024\320\200"
 122      7B6C1445 
 122      189FD9DD 
 122      835E7B14 
 122      D080
 123 0012 C5185A8D 		.ascii	"\305\030Z\215\032\202\322k\361\205\377\370\200\242E"
 123      1A82D26B 
 123      F185FFF8 
 123      80A245
 124 0021 8B6DAE12 		.ascii	"\213m\256\02251Y\207\353\225^\274\366\232\273\255\011"
 124      35315987 
 124      EB955EBC 
ARM GAS  /var/folders/c6/c789hm653lg9vtl73krp73tm0000gn/T//ccfdOrSk.s 			page 9


 124      F69ABBAD 
 124      09
 125 0032 7F397D88 		.ascii	"\1779}\210\240)\026|\200\210\322Z\252\240\362(\306\""
 125      A029167C 
 125      8088D25A 
 125      AAA0F228 
 125      C622
 126 0044 04F02022 		.ascii	"\004\360 \"\350\031m@\212$>N\2431\306\030\251-\012*"
 126      E8196D40 
 126      8A243E4E 
 126      A331C618 
 126      A92D0A2A 
 127 0058 9EDFCCEE 		.ascii	"\236\337\314\356\336\355nw\357A\334tf\347v\277\357\367"
 127      DEED6E77 
 127      EF41DC74 
 127      66E776BF 
 127      EFF7
 128 006a FD7EF3CD 		.ascii	"\375~\363\315|\273]\001\011h\030#\224\204c\356L\204"
 128      7CBB5D01 
 128      09681823 
 128      948463EE 
 128      4C84
 129 007c 86048424 		.ascii	"\206\004\204$\204\320\035\320\\\320\372\240m\207\266"
 129      84D01DD0 
 129      5CD0FAA0 
 129      6D87B6
 130 008b 03DA20B4 		.ascii	"\003\332 \264\013H=\330\275\213\320$\360\235\002m\026"
 130      0B483DD8 
 130      BD8BD024 
 130      F09D026D 
 130      16
 131 009c B4D9D044 		.ascii	"\264\331\320D\270v-\234\347@\273\001#\323\301\354\213"
 131      B8762D9C 
 131      E740BB01 
 131      23D3C1EC 
 131      8B
 132 00ad 35DF5168 		.ascii	"5\337Qh\223\221\032k\334\200\275\007Z9V\343^\011\347"
 132      93911A6B 
 132      DC80BD07 
 132      5A3956E3 
 132      5E09E7
 133 00c0 7D708E41 		.ascii	"}p\216A\333\257\331\236\207\366>\264\317\240\215A\023"
 133      DBAFD99E 
 133      87F63EB4 
 133      CFA08D41 
 133      13
 134 00d1 345C165F 		.ascii	"4\\\026_\320bcK\\\306q\252M\\k\314\355\206\230\343Z"
 134      D062634B 
 134      5CC671AA 
 134      4D5C6BCC 
 134      ED8698E3 
 135 00e6 DC935A6C 		.ascii	"\334\223Zl\227!6\213{\002\332\210\026_\322\3643\355"
 135      9721368B 
 135      7B02DA88 
 135      165FD2F4 
 135      33ED
 136 00f8 4CB71B5A 		.ascii	"L\267\033Z\241\205\003\233#;\355V\016;,\034\2740.\325"
ARM GAS  /var/folders/c6/c789hm653lg9vtl73krp73tm0000gn/T//ccfdOrSk.s 			page 10


 136      A185039B 
 136      233BED56 
 136      0E3B2C1C 
 136      BC302ED5 
 137 010c B08DF145 		.ascii	"\260\215\361E4q\336\331|\317\2006\323\022\273\010=C"
 137      3471DED9 
 137      7CCF8036 
 137      D312BB08 
 137      3D43
 138 011e 6907ED5D 		.ascii	"i\007\355]E\253\217\027OG=\024\216\262\215\305n\264"
 138      45AB8F17 
 138      4F473D14 
 138      8EB28DC5 
 138      6EB4
 139 0130 9A5D4E0C 		.ascii	"\232]N\014\304J6\002\265\2071\301p\255\200\017<n\304"
 139      C44A3602 
 139      B58731C1 
 139      70AD800F 
 139      3C6EC4
 140 0143 40AE435B 		.ascii	"@\256C[\301\026\034\204\2241-)\261\267%x+\276\016\372"
 140      C1161C84 
 140      94312D29 
 140      B1B72578 
 140      2BBE0EFA 
 141 0157 01ECE651 		.ascii	"\001\354\346Q\331-u\254\217\222<G\202\205\235~d\363"
 141      D92D75AC 
 141      8F923C47 
 141      82859D7E 
 141      64F3
 142 0169 D4623EAC 		.ascii	"\324b>\254\307,\342\266i9\252\245\275\025\301o\342\351"
 142      C72CE2B6 
 142      6939AAA5 
 142      BD15C16F 
 142      E2E9
 143 017b 7CC47550 		.ascii	"|\304uPm.\270\205\346Q\246{H\232\3076\003\033\217;="
 143      6D2EB885 
 143      E651A67B 
 143      489AC736 
 143      031B8F3B 
 144 0190 283471D6 		.ascii	"(4q\326\255\034a\372pQ\226<\020\334\237&\376\230\356"
 144      AD1C61FA 
 144      7051963C 
 144      10DC9F26 
 144      FE98EE
 145 01a3 EFC924CF 		.ascii	"\357\311$\317bE\360\333y\313{\307A^\212\255\311\312"
 145      6245F0DB 
 145      79CB7BC7 
 145      415E8AAD 
 145      C9CA
 146 01b5 11667B7E 		.ascii	"\021f{~\362Zu\377\342L\362,V\004\357\312[\336n\007y"
 146      F25A75FF 
 146      E24CF22C 
 146      5604EFCA 
 146      5BDE6E07 
 147 01ca 534CF276 		.ascii	"SL\362vg\223\267\303A\336eh\035'~<\275qL9\341\033\247"
 147      6793B7C3 
 147      41DE6568 
ARM GAS  /var/folders/c6/c789hm653lg9vtl73krp73tm0000gn/T//ccfdOrSk.s 			page 11


 147      1D277E3C 
 147      BD714C39 
 148 01e1 27B1EB8D 		.ascii	"'\261\353\215YT\"x\017\276\014\026\376\365\030\315E"
 148      59542278 
 148      0FBE0C16 
 148      FEF518CD 
 148      45
 149 01f2 DBD5FDD4 		.ascii	"\333\325\375\324q\005\232xd\003e\204\206\000\212\340"
 149      71059A78 
 149      64036584 
 149      86008AE0 
 150 0202 F7F05C6D 		.ascii	"\367\360\\mo\306\316\035\363\260\020\354:\322\356\330"
 150      6FC6CE1D 
 150      F3B010EC 
 150      3AD2EED8 
 151 0212 1C57A35E 		.ascii	"\034W\243^\010\032\273xl\363,\332{\004g\323\222\020"
 151      081ABB78 
 151      6CF32CDA 
 151      7B0467D3 
 151      9210
 152 0224 F4B837A6 		.ascii	"\364\2707\246\305\234\036\335 RZ@\360~.'\200M\341\262"
 152      C59C1EDD 
 152      20525A40 
 152      F07E2E27 
 152      804DE1B2 
 153 0238 A2307607 		.ascii	"\2420v\007\255\354\337\215s\366\007\263\263\357\352"
 153      ADECDF8D 
 153      73F607B3 
 153      B3EFEA
 154 0247 8CED8DAB 		.ascii	"\214\355\215\253\354\371*\350\324\330\333\347N\243|"
 154      ECF92AE8 
 154      D4D8DBE7 
 154      4EA37C
 155 0256 EAE9A387 		.ascii	"\352\351\243\207q\007\245X+_\231\\\010>\314\353\327"
 155      7107A558 
 155      2B5F995C 
 155      083ECCEB 
 155      D7
 156 0267 64778A08 		.ascii	"dw\212\010\273;\331\235\036\260\207\344TV\303>\300f"
 156      BB3BD99D 
 156      1EB087E4 
 156      5456C33E 
 156      C066
 157 0279 F139C06B 		.ascii	"\3619\300k\214\006\327\036\270\235O\342\207\300I@\003"
 157      8C06D71E 
 157      B89D4FE2 
 157      87C04940 
 157      03
 158 028a 8219488B 		.ascii	"\202\031H\213gX\242\331\351\344i.\240\335<(\233s;\242"
 158      6758A2D9 
 158      E9E4692E 
 158      A0DD3C28 
 158      9B733BA2 
 159 029e A91D63D8 		.ascii	"\251\035c\330\027\246<$FF_\342y 8\306E\014\345\215W"
 159      17A63C24 
 159      46465FE2 
 159      792038C6 
ARM GAS  /var/folders/c6/c789hm653lg9vtl73krp73tm0000gn/T//ccfdOrSk.s 			page 12


 159      450CE58D 
 160 02b3 66CAEBFE 		.ascii	"f\312\353\376\270\247\207\350`\007s\001+p$\027;`\004"
 160      B8A787E8 
 160      60077301 
 160      2B702417 
 160      3B6004
 161 02c6 3B9A3798 		.ascii	";\2327\230\231\331!#X<\027\260i\316\314\206\215`\237"
 161      99D92123 
 161      583C17B0 
 161      69CECC86 
 161      8D609F
 162 02d9 E70D6664 		.ascii	"\347\015fd\326\036\3736\376\011\246\353=\227\243\365"
 162      D61EFB36 
 162      FE09A6EB 
 162      3D97A3F5 
 163 02e9 94B6D3DE 		.ascii	"\224\266\323\336IN\313\016!nB3\232\020\374\005\276\334"
 163      494ECB0E 
 163      216E4233 
 163      9A10FC05 
 163      BEDC
 164 02fb BC314F3E 		.ascii	"\2741O>[\3146&\273\236\275\254\234\3226&\301G\270\270"
 164      5BCC3626 
 164      BB9EBDAC 
 164      9CD23626 
 164      C147B8B8 
 165 030f 935C1CF3 		.ascii	"\223\\\034\363\275\204\005\006\301\277\216\027\321g"
 165      BD840506 
 165      C1BF8E17 
 165      D167
 166 031d 3C5A45E9 		.ascii	"<ZE\351\275k[\006\342g\254\025\345t\\(S/g\347}&\276"
 166      BD6B5B06 
 166      E267AC15 
 166      E5745C28 
 166      532F67E7 
 167 0334 B984F61E 		.ascii	"\271\204\366\036\326\253\003]E\347\030bM\323c\261w\274"
 167      D6AB035D 
 167      45E71862 
 167      4DD363B1 
 167      77BC
 168 0346 5441D97B 		.ascii	"TA\331{#\337\276_q\241\247\004\333:\220\003\320\340"
 168      23DFBE5F 
 168      71A1A704 
 168      DB3A9003 
 168      D0E0
 169 0358 DA37D53A 		.ascii	"\3327\325:\360-\007\372fB\035\020-u@4ol\321\235\036"
 169      F02D07FA 
 169      66421D10 
 169      2D754034 
 169      6F6CD19D 
 170 036d 249322CA 		.ascii	"$\223\"\312\317X@?\363\200g\322\353\317D2[\212:\022"
 170      CF58403F 
 170      F38067D2 
 170      EBCF4432 
 170      5B8A3A12 
 171 0381 23EF6DE0 		.ascii	"#\357m\340S\247\317\304\257y\343M\263\344D@c\227\272"
 171      53A7CFC4 
 171      AF79E34D 
ARM GAS  /var/folders/c6/c789hm653lg9vtl73krp73tm0000gn/T//ccfdOrSk.s 			page 13


 171      B3E44440 
 171      6397BA
 172 0394 6C0CCA55 		.ascii	"l\014\312U\321\004\217\340\253\241\377\022zC\200s\271"
 172      D1048FE0 
 172      ABA1FF12 
 172      7A438073 
 172      B9
 173 03a5 6CBA1207 		.ascii	"l\272\022\007\321\260\203\317\032w\360_y\203\225\231"
 173      D1B083CF 
 173      1A77F05F 
 173      79839599 
 174 03b5 C07E3782 		.ascii	"\300~7\202%s\001+sf6n\004\353\022\363\00533\373\303"
 174      2573012B 
 174      7366366E 
 174      04EB12F3 
 174      053333FB 
 175 03ca 08B62617 		.ascii	"\010\266&\027\2609\231\222b\312O\372\015\200\340C\374"
 175      B0399992 
 175      62CA4FFA 
 175      0D80E043 
 175      FC
 176 03db 79FB01CF 		.ascii	"y\373\001\317\324q\336\177\302\373Oy\377\031\357\207"
 176      D471DE7F 
 176      C2FB4F79 
 176      FF19EF87 
 177 03eb 797F82F7 		.ascii	"y\177\202\367?\361\376g\336\377\302\373_\215\371u~\352"
 177      3FF1FE67 
 177      DEFFC2FB 
 177      5F8DF975 
 177      7EEA
 178 03fd C6FE5C7F 		.ascii	"\306\376\\\177\025\253f\373\340\305G@\335\242y\257\231"
 178      15AB66FB 
 178      E0C54740 
 178      DDA279AF 
 178      99
 179 040e 5E86D4B7 		.ascii	"^\206\324\267\033\247j3\012\000\366Ee\302=\001m\344"
 179      1BA76A33 
 179      0A00F645 
 179      65C23D01 
 179      6DE4
 180 0420 71862EED 		.ascii	"q\206.\3551\013[\354\271\376\217\305\227i\254K\314\375"
 180      310B5BEC 
 180      B9FE8FC5 
 180      9769AC4B 
 180      CCFD
 181 0432 EDE2F485 		.ascii	"\355\342\364\205\255syU\031\347\271\333\"Z\253\312\021"
 181      AD737955 
 181      19E7B9DB 
 181      225AABCA 
 181      11
 182 0443 9CF7EB85 		.ascii	"\234\367\353\205\200\336\311[H\231Y\310\033y\0139\365"
 182      80DEC95B 
 182      489959C8 
 182      1B790B39 
 182      F5
 183 0454 F40FA3B8 		.ascii	"\364\017\243\270\023^\334\010\276\300\245\014N\220\342"
 183      135EDC08 
ARM GAS  /var/folders/c6/c789hm653lg9vtl73krp73tm0000gn/T//ccfdOrSk.s 			page 14


 183      BEC0A50C 
 183      4E90E2
 184 0463 B2287199 		.ascii	"\262(q\231\225\270\334\351AJ\311\241\\\224\330\275\\"
 184      95B8DCE9 
 184      414AC9A1 
 184      5C94D8BD 
 184      5C
 185 0474 D82FE621 		.ascii	"\330/\346!\303b\336\313\027\363\373|Y\216\361\376|\266"
 185      C362DECB 
 185      17F3FB7C 
 185      598EF1FE 
 185      7CB6
 186 0486 C5C92006 		.ascii	"\305\311 \006\323\377`\224\242\327ho\"\361\3127\037"
 186      D3FF6094 
 186      A2D7686F 
 186      22F1CA37 
 186      1F
 187 0497 7E87D775 		.ascii	"~\207\327u\322\343\364,c=\023\275\250\375\313C\261\242"
 187      D2E3F42C 
 187      633D13BD 
 187      A8FDCB43 
 187      B1A2
 188 04a9 26D609EB 		.ascii	"&\326\011\353_<\223\217D^s5p\202\227\245\237\016\002"
 188      5F3C938F 
 188      445E7335 
 188      708297A5 
 188      9F0E02
 189 04bc 4A58E6F1 		.ascii	"JX\346\361Z\324O\351z\272.P\255\232\013\350\027nq\021"
 189      5AD44FE9 
 189      7ABA2E50 
 189      AD9A0BE8 
 189      176E7111 
 190 04d0 973ABC25 		.ascii	"\227:\274%k\214\257G\003,\227\007\177\250\253VY\241"
 190      6B8CAF47 
 190      032C9707 
 190      7FA8AB56 
 190      59A1
 191 04e2 0C5E1A41 		.ascii	"\014^\032A*\010\306\011T\005\307\316\255\212\303\253"
 191      2A08C609 
 191      5405C7CE 
 191      AD8AC3AB 
 192 04f2 0CFD873D 		.ascii	"\014\375\207=\231,j\357\230\341(\366)\301Fl\352\207"
 192      992C6AEF 
 192      98E128F6 
 192      29C1466C 
 192      EA87
 193 0504 4AC82AFE 		.ascii	"J\310*\3767{\361c\015\325\372\\u\000C\202\273\204\214"
 193      377BF163 
 193      0DD5FA5C 
 193      75004382 
 193      BB848C
 194 0517 E235B7BD 		.ascii	"\3425\267\275\201j}\243\375\315\201\235\3354:|\316("
 194      816A7DA3 
 194      FDCD819D 
 194      DD343A7C 
 194      CE28
 195 0529 EDA64F4D 		.ascii	"\355\246OM\303\\\034\322\274L\253j\265\355,\2358\346"
ARM GAS  /var/folders/c6/c789hm653lg9vtl73krp73tm0000gn/T//ccfdOrSk.s 			page 15


 195      C35C1CD2 
 195      BC4CAB6A 
 195      B5ED2C9D 
 195      38E6
 196 053b E9694F24 		.ascii	"\351iO$\223\245\271O\321\332\014S\224GM\3311\240\326"
 196      93A5B94F 
 196      D1DA0C53 
 196      94474DD9 
 196      31A0D6
 197 054e 94750293 		.ascii	"\224u\002\223J\245\377\241\246LL\315\032\311.5\260\031"
 197      4AA5FFA1 
 197      A64C4CCD 
 197      1AC92E35 
 197      B019
 198 0560 C607F1F3 		.ascii	"\306\007\361\363\235\324\222\240\356\234\022\364.K\220"
 198      9DD492A0 
 198      EE9C12F4 
 198      2E4B90
 199 056f CA7A0387 		.ascii	"\312z\003\207wvcVN\011\352\266&\350\205\211\011J\364"
 199      77766356 
 199      4E09EAB6 
 199      26E88589 
 199      094AF4
 200 0582 242E7C7F 		.ascii	"$.|\177\366\276\215{h\327\032\372o\362I\234{\2266\231"
 200      F6BE8D7B 
 200      68D71AFA 
 200      6FF2499C 
 200      7B963699 
 201 0596 B364791A 		.ascii	"\263dy\032\365g\330\357\233\205\2424)\323l\036\260\314"
 201      F567D8EF 
 201      9B85A234 
 201      29D36C1E 
 201      B0CC
 202 05a8 A66EF4AA 		.ascii	"\246n\364\252-\363\221\276C\263h_G,\231\2743\217\015"
 202      2DF391BE 
 202      43B3685F 
 202      472C99BC 
 202      338F0D
 203 05bb B8C5BABA 		.ascii	"\270\305\272\272\366\331l\300\324om\202-<?r\340\331"
 203      F6D96CC0 
 203      D46F6D82 
 203      2D3C3F72 
 203      E0D9
 204 05cd 6FE6790D 		.ascii	"o\346y\015\352\243\303\303\260\030\216V\266\367\304"
 204      EAA3C3C3 
 204      B0188E56 
 204      B6F7C4
 205 05dc BA7A59AD 		.ascii	"\272zY\255\300\300\346u<\035@\276\222,\005\313\362\361"
 205      C0C0E675 
 205      3C1D40BE 
 205      922C05CB 
 205      F2F1
 206 05ee 4F403F4A 		.ascii	"O@?J\3527\307\331hLz\225-\345\327\371\367$\0256v\376"
 206      EA37C7D9 
 206      684C7A95 
 206      2DE5D7F9 
 206      F7241536 
ARM GAS  /var/folders/c6/c789hm653lg9vtl73krp73tm0000gn/T//ccfdOrSk.s 			page 16


 207 0604 235AD0D3 		.ascii	"#Z\320\323\276\232&\223O\022\374\026\334!x\300Z\006"
 207      BE9A2693 
 207      4F12FC16 
 207      DC2178C0 
 207      5A06
 208 0616 2CDF61E0 		.ascii	",\337a\340\205-\005\331\355\342\220o\031!G\216\031 "
 208      852D05D9 
 208      EDE2906F 
 208      1921478E 
 208      1920
 209 0628 771A200D 		.ascii	"w\032 \015+\320\362\221K@\233\\:\3446\025r'\207\264"
 209      2BD0F291 
 209      4B409B5C 
 209      3AE43615 
 209      722787B4 
 210 063c 2C08B65C 		.ascii	",\010\266\\\234R\262S\260\377Z\245&\313\311kW\332\013"
 210      9C52B253 
 210      B0FF5AA5 
 210      26CBC96B 
 210      57DA0B
 211 064f 49FE2612 		.ascii	"I\376&\022\231]^\356U\377\302Qo\023\011y\203-\376P["
 211      995D5EEE 
 211      55FFC251 
 211      6F130979 
 211      832DFE50 
 212 0664 43C0DB4A 		.ascii	"C\300\333JB\345M\310\265\244va[t\322\275\017,+[\204"
 212      42E54DC8 
 212      B5A47661 
 212      5B74D2BD 
 212      0F2C2B5B 
 213 0679 2AADB6AD 		.ascii	"*\255\266\255\341\210\022\365\326?\270\364\246\371\336"
 213      E18812F5 
 213      D63FB8F4 
 213      A6F9DE
 214 0688 9A9A2AEF 		.ascii	"\232\232*\357\275uKj\237\230\317\\\345P\250\001\334"
 214      BD754B6A 
 214      9F98CF5C 
 214      E550A801 
 214      DC
 215 0699 3D51A5F9 		.ascii	"=Q\245\371\246\371\362\212\326`XVj\274m\321\2107\024"
 215      A6F9F28A 
 215      D6605856 
 215      6ABC6DD1 
 215      883714
 216 06ac F683E7A2 		.ascii	"\366\203\347\242@(D\"\336\025~\377<\022i\236\327\022"
 216      40284422 
 216      DE157EFF 
 216      3C12699E 
 216      D712
 217 06be 6E09CC0B 		.ascii	"n\011\314\013\220\345A\357\374\212\312\233+\026T\334"
 217      90E541EF 
 217      FC8ACA9B 
 217      2B1654DC 
 218 06ce E2355FD6 		.ascii	"\3425_\326YE\225\206`\213\002\310\005mp\006h\345\321"
 218      59459586 
 218      608B02C8 
 218      056D7006 
ARM GAS  /var/folders/c6/c789hm653lg9vtl73krp73tm0000gn/T//ccfdOrSk.s 			page 17


 218      68E5D1
 219 06e1 FF01B599 		.ascii	"\377\001\265\231\370\233\202-\001\257\334\020h$m!EV"
 219      F89B822D 
 219      01AFDC10 
 219      68246D21 
 219      4556
 220 06f3 56B606A2 		.ascii	"V\266\006\242\020\245P\226\3658\256\245\265U\213}\223"
 220      10A55096 
 220      F538AEA5 
 220      B5558B7D 
 220      93
 221 0704 6A1F7CA4 		.ascii	"j\037|\244n\261orm}\335\342\305U>W\335\262\272*\237"
 221      6EB16F72 
 221      6D7DDDE2 
 221      C5553E57 
 221      DDB2BA2A 
 222 0719 B8045A6D 		.ascii	"\270\004Zm\225\017?\304YU\336*+\232#\033\212\321\200"
 222      950F3FC4 
 222      5955DE2A 
 222      2B9A231B 
 222      8AD180
 223 072c E2F28702 		.ascii	"\342\362\207\002$\202\253\245\205\365>\237T\263\350"
 223      2482ABA5 
 223      85F53E9F 
 223      54B3E8
 224 073b 7E9F74F7 		.ascii	"~\237t\367=\276\032\326U\213\013}\276\302`\230\315e"
 224      3DBE1AD6 
 224      558B0B7D 
 224      BEC26098 
 224      CD65
 225 074d B0415626 		.ascii	"\260AV&\251\003\217z\245\231D\037\227\025\211\235<\014"
 225      A9038F7A 
 225      A599441F 
 225      9715899D 
 225      3C0C
 226 075f 506E2451 		.ascii	"Pn$Qe\001X\205\033\033\001\367JkF\242\021?\317\234\037"
 226      65015885 
 226      1B1B01F7 
 226      4A6B46A2 
 226      113FCF9C 
 227 0774 15C2C917 		.ascii	"\025\302\311\027 \015\220>qy[\264\010~>\024\011*\001"
 227      200D903E 
 227      71795BB4 
 227      087E3E14 
 227      092A01
 228 0787 F82D2D0F 		.ascii	"\370--\017*\321\202`\2709\334\020\220\225)p\247>\240"
 228      2AD18260 
 228      B839DC10 
 228      90952970 
 228      A73EA0
 229 079a C0F5A5F0 		.ascii	"\300\365\245\360[b\027K\215\260\021%5O\376\246\350J"
 229      5B62174B 
 229      8DB01125 
 229      354FFEA6 
 229      E84A
 230 07ac 362D6E7F 		.ascii	"6-n\177S\375\312h5\011)3d-\3312\260Y\021\011\267\265"
 230      53FDCA68 
ARM GAS  /var/folders/c6/c789hm653lg9vtl73krp73tm0000gn/T//ccfdOrSk.s 			page 18


 230      35092933 
 230      642DD932 
 230      B0591109 
 231 07c2 32FF0259 		.ascii	"2\377\002Ynlk\361\313\362\024}P~"
 231      6E6C6BF1 
 231      CBF2147D 
 231      507E
 232 07d0 DB828A8A 		.ascii	"\333\202\212\212\2424%d\272s\213\307\300\316t\253\262"
 232      A2342564 
 232      BA738BC7 
 232      C0CE74AB 
 232      B2
 233 07e1 A2D8440F 		.ascii	"\242\330D\017\375\007O\"\000F"
 233      FD074F22 
 233      0046
 234              		.text
 235              		.section	.gnu.lto_.symtab.192e1caca23cee51,"",%progbits
 236 0000 70616C52 		.ascii	"palReadBus\000\000\000\000\000\000\000\000\000\000\000"
 236      65616442 
 236      75730000 
 236      00000000 
 236      00000000 
 237 0015 00FD0000 		.ascii	"\000\375\000\000\000palWriteBus\000\000\000\000\000"
 237      0070616C 
 237      57726974 
 237      65427573 
 237      00000000 
 238 002a 00000000 		.ascii	"\000\000\000\000\000\000\000\004\001\000\000palSetB"
 238      00000004 
 238      01000070 
 238      616C5365 
 238      7442
 239 003c 75734D6F 		.ascii	"usMode\000\000\000\000\000\000\000\000\000\000\000\000"
 239      64650000 
 239      00000000 
 239      00000000 
 239      0000
 240 004e 0D010000 		.ascii	"\015\001\000\000chSysHalt\000\000\002\000\000\000\000"
 240      63685379 
 240      7348616C 
 240      74000002 
 240      00000000 
 241 0062 00000000 		.ascii	"\000\000\000\000\000\031\001\000\000_pal_lld_setgro"
 241      00190100 
 241      005F7061 
 241      6C5F6C6C 
 241      645F7365 
 242 007a 75706D6F 		.ascii	"upmode\000\000\002\000\000\000\000\000\000\000\000\000"
 242      64650000 
 242      02000000 
 242      00000000 
 242      0000
 243 008c 1E010000 		.ascii	"\036\001\000\000"
 244              		.text
 245              		.section	.gnu.lto_.opts,"",%progbits
 246 0000 272D6D63 		.ascii	"'-mcpu=cortex-m4' '-mno-thumb-interwork' '-mthumb' "
 246      70753D63 
ARM GAS  /var/folders/c6/c789hm653lg9vtl73krp73tm0000gn/T//ccfdOrSk.s 			page 19


 246      6F727465 
 246      782D6D34 
 246      2720272D 
 247 0033 272D6767 		.ascii	"'-ggdb' '-O2' '-fomit-frame-pointer' '-falign-funct"
 247      64622720 
 247      272D4F32 
 247      2720272D 
 247      666F6D69 
 248 0066 696F6E73 		.ascii	"ions=16' '-ffunction-sections' '-fdata-sections' '-"
 248      3D313627 
 248      20272D66 
 248      66756E63 
 248      74696F6E 
 249 0099 666E6F2D 		.ascii	"fno-common' '-flto'\000"
 249      636F6D6D 
 249      6F6E2720 
 249      272D666C 
 249      746F2700 
 250              		.text
 251              		.cfi_sections	.debug_frame
 252              		.section	.text.palReadBus,"ax",%progbits
 253              		.align	2
 254              		.p2align 4,,15
 255              		.global	palReadBus
 256              		.thumb
 257              		.thumb_func
 258              		.type	palReadBus, %function
 259              	palReadBus:
 260              	.LFB260:
 261              		.file 1 "../../../os/hal/src/pal.c"
 262              		.loc 1 65 0
 263              		.cfi_startproc
 264              		@ args = 0, pretend = 0, frame = 0
 265              		@ frame_needed = 0, uses_anonymous_args = 0
 266              	.LVL0:
 267 0000 10B5     		push	{r4, lr}
 268              		.cfi_def_cfa_offset 8
 269              		.cfi_offset 4, -8
 270              		.cfi_offset 14, -4
 271              		.loc 1 67 0
 272 0002 0446     		mov	r4, r0
 273 0004 10B1     		cbz	r0, .L2
 274              		.loc 1 67 0 is_stmt 0 discriminator 2
 275 0006 8368     		ldr	r3, [r0, #8]
 276 0008 0F2B     		cmp	r3, #15
 277 000a 03D9     		bls	.L3
 278              	.L2:
 279              		.loc 1 67 0 discriminator 1
 280 000c 0548     		ldr	r0, .L8
 281              	.LVL1:
 282 000e FFF7FEFF 		bl	chSysHalt
 283              	.LVL2:
 284 0012 A368     		ldr	r3, [r4, #8]
 285              	.L3:
 286              		.loc 1 69 0 is_stmt 1
 287 0014 2168     		ldr	r1, [r4]
 288 0016 6068     		ldr	r0, [r4, #4]
ARM GAS  /var/folders/c6/c789hm653lg9vtl73krp73tm0000gn/T//ccfdOrSk.s 			page 20


 289 0018 0969     		ldr	r1, [r1, #16]
 290 001a 21FA03F3 		lsr	r3, r1, r3
 291              		.loc 1 70 0
 292 001e 1840     		ands	r0, r0, r3
 293 0020 10BD     		pop	{r4, pc}
 294              	.LVL3:
 295              	.L9:
 296 0022 00BF     		.align	2
 297              	.L8:
 298 0024 00000000 		.word	.LANCHOR0
 299              		.cfi_endproc
 300              	.LFE260:
 301              		.size	palReadBus, .-palReadBus
 302 0028 AFF30080 		.section	.text.palWriteBus,"ax",%progbits
 302      AFF30080 
 303              		.align	2
 304              		.p2align 4,,15
 305              		.global	palWriteBus
 306              		.thumb
 307              		.thumb_func
 308              		.type	palWriteBus, %function
 309              	palWriteBus:
 310              	.LFB261:
 311              		.loc 1 90 0
 312              		.cfi_startproc
 313              		@ args = 0, pretend = 0, frame = 0
 314              		@ frame_needed = 0, uses_anonymous_args = 0
 315              	.LVL4:
 316 0000 38B5     		push	{r3, r4, r5, lr}
 317              		.cfi_def_cfa_offset 16
 318              		.cfi_offset 3, -16
 319              		.cfi_offset 4, -12
 320              		.cfi_offset 5, -8
 321              		.cfi_offset 14, -4
 322              		.loc 1 92 0
 323 0002 0446     		mov	r4, r0
 324              		.loc 1 90 0
 325 0004 0D46     		mov	r5, r1
 326              		.loc 1 92 0
 327 0006 10B1     		cbz	r0, .L11
 328              		.loc 1 92 0 is_stmt 0 discriminator 2
 329 0008 8368     		ldr	r3, [r0, #8]
 330 000a 0F2B     		cmp	r3, #15
 331 000c 03D9     		bls	.L12
 332              	.L11:
 333              		.loc 1 92 0 discriminator 1
 334 000e 0948     		ldr	r0, .L16
 335              	.LVL5:
 336 0010 FFF7FEFF 		bl	chSysHalt
 337              	.LVL6:
 338 0014 A368     		ldr	r3, [r4, #8]
 339              	.L12:
 340              		.loc 1 94 0 is_stmt 1
 341 0016 94E80600 		ldmia	r4, {r1, r2}
 342 001a 03F11000 		add	r0, r3, #16
 343 001e 22EA0504 		bic	r4, r2, r5
 344              	.LVL7:
ARM GAS  /var/folders/c6/c789hm653lg9vtl73krp73tm0000gn/T//ccfdOrSk.s 			page 21


 345 0022 1540     		ands	r5, r5, r2
 346              	.LVL8:
 347 0024 05FA03F3 		lsl	r3, r5, r3
 348 0028 04FA00F2 		lsl	r2, r4, r0
 349 002c 1343     		orrs	r3, r3, r2
 350 002e 8B61     		str	r3, [r1, #24]
 351 0030 38BD     		pop	{r3, r4, r5, pc}
 352              	.L17:
 353 0032 00BF     		.align	2
 354              	.L16:
 355 0034 00000000 		.word	.LANCHOR1
 356              		.cfi_endproc
 357              	.LFE261:
 358              		.size	palWriteBus, .-palWriteBus
 359 0038 AFF30080 		.section	.text.palSetBusMode,"ax",%progbits
 359      AFF30080 
 360              		.align	2
 361              		.p2align 4,,15
 362              		.global	palSetBusMode
 363              		.thumb
 364              		.thumb_func
 365              		.type	palSetBusMode, %function
 366              	palSetBusMode:
 367              	.LFB262:
 368              		.loc 1 113 0
 369              		.cfi_startproc
 370              		@ args = 0, pretend = 0, frame = 0
 371              		@ frame_needed = 0, uses_anonymous_args = 0
 372              	.LVL9:
 373 0000 70B5     		push	{r4, r5, r6, lr}
 374              		.cfi_def_cfa_offset 16
 375              		.cfi_offset 4, -16
 376              		.cfi_offset 5, -12
 377              		.cfi_offset 6, -8
 378              		.cfi_offset 14, -4
 379              		.loc 1 115 0
 380 0002 0446     		mov	r4, r0
 381              		.loc 1 113 0
 382 0004 0E46     		mov	r6, r1
 383              		.loc 1 115 0
 384 0006 10B1     		cbz	r0, .L19
 385              		.loc 1 115 0 is_stmt 0 discriminator 2
 386 0008 8168     		ldr	r1, [r0, #8]
 387              	.LVL10:
 388 000a 0F29     		cmp	r1, #15
 389 000c 03D9     		bls	.L20
 390              	.L19:
 391              		.loc 1 115 0 discriminator 1
 392 000e 0648     		ldr	r0, .L24
 393              	.LVL11:
 394 0010 FFF7FEFF 		bl	chSysHalt
 395              	.LVL12:
 396 0014 A168     		ldr	r1, [r4, #8]
 397              	.L20:
 398              		.loc 1 117 0 is_stmt 1
 399 0016 94E82100 		ldmia	r4, {r0, r5}
 400 001a 3246     		mov	r2, r6
ARM GAS  /var/folders/c6/c789hm653lg9vtl73krp73tm0000gn/T//ccfdOrSk.s 			page 22


 401 001c 05FA01F1 		lsl	r1, r5, r1
 402              		.loc 1 118 0
 403 0020 BDE87040 		pop	{r4, r5, r6, lr}
 404              	.LVL13:
 405              		.loc 1 117 0
 406 0024 FFF7FEBF 		b	_pal_lld_setgroupmode
 407              	.LVL14:
 408              	.L25:
 409              		.align	2
 410              	.L24:
 411 0028 00000000 		.word	.LANCHOR2
 412              		.cfi_endproc
 413              	.LFE262:
 414              		.size	palSetBusMode, .-palSetBusMode
 415 002c AFF30080 		.section	.rodata.__func__.7810,"a",%progbits
 416              		.align	2
 417              		.set	.LANCHOR2,. + 0
 418              		.type	__func__.7810, %object
 419              		.size	__func__.7810, 14
 420              	__func__.7810:
 421 0000 70616C53 		.ascii	"palSetBusMode\000"
 421      65744275 
 421      734D6F64 
 421      6500
 422 000e 0000     		.section	.rodata.__func__.7800,"a",%progbits
 423              		.align	2
 424              		.set	.LANCHOR0,. + 0
 425              		.type	__func__.7800, %object
 426              		.size	__func__.7800, 11
 427              	__func__.7800:
 428 0000 70616C52 		.ascii	"palReadBus\000"
 428      65616442 
 428      757300
 429 000b 00       		.section	.rodata.__func__.7805,"a",%progbits
 430              		.align	2
 431              		.set	.LANCHOR1,. + 0
 432              		.type	__func__.7805, %object
 433              		.size	__func__.7805, 12
 434              	__func__.7805:
 435 0000 70616C57 		.ascii	"palWriteBus\000"
 435      72697465 
 435      42757300 
 436              		.text
 437              	.Letext0:
 438              		.file 2 "/usr/local/Cellar/gcc-arm-none-eabi/20140805/arm-none-eabi/include/machine/_default_types
 439              		.file 3 "/usr/local/Cellar/gcc-arm-none-eabi/20140805/arm-none-eabi/include/stdint.h"
 440              		.file 4 "../../../os/rt/ports/ARMCMx/compilers/GCC/chtypes.h"
 441              		.file 5 "../../../os/rt/include/chsystypes.h"
 442              		.file 6 "../../../os/rt/include/chschd.h"
 443              		.file 7 "../../../os/rt/ports/ARMCMx/chcore.h"
 444              		.file 8 "../../../os/rt/ports/ARMCMx/chcore_v7m.h"
 445              		.file 9 "../../../os/rt/include/chdebug.h"
 446              		.file 10 "../../../os/rt/include/chtm.h"
 447              		.file 11 "../../../os/rt/include/chstats.h"
 448              		.file 12 "../../../os/rt/include/chsem.h"
 449              		.file 13 "../../../os/rt/include/chmtx.h"
 450              		.file 14 "../../../os/hal/ports/STM32/LLD/GPIOv2/pal_lld.h"
ARM GAS  /var/folders/c6/c789hm653lg9vtl73krp73tm0000gn/T//ccfdOrSk.s 			page 23


 451              		.file 15 "../../../os/hal/include/pal.h"
 452              		.file 16 "../../../os/ext/CMSIS/include/core_cm4.h"
 453              		.file 17 "../../../os/rt/include/chsys.h"