ARM GAS  /var/folders/c6/c789hm653lg9vtl73krp73tm0000gn/T//ccfdOrSk.s 			page 1


   1              		.syntax unified
   2              		.cpu cortex-m4
   3              		.fpu softvfp
   4              		.eabi_attribute 20, 1
   5              		.eabi_attribute 21, 1
   6              		.eabi_attribute 23, 3
   7              		.eabi_attribute 24, 1
   8              		.eabi_attribute 25, 1
   9              		.eabi_attribute 26, 1
  10              		.eabi_attribute 30, 2
  11              		.eabi_attribute 34, 1
  12              		.eabi_attribute 18, 4
  13              		.thumb
  14              		.file	"pal.c"
  15              		.text
  16              	.Ltext0:
  17              		.section	.gnu.lto_.jmpfuncs.192e1caca23cee51,"",%progbits
  18 0000 789C6362 		.ascii	"x\234cb`b\300\006|\24143\003##S5\303\257\206\031\015"
  18      6062C006 
  18      7CA13433 
  18      03232353 
  18      35C3AF86 
  19 0016 02998C0C 		.ascii	"\002\231\214\014\271\214`Q&f$A\306\\F\260(\01333D\007"
  19      B98C6051 
  19      26662441 
  19      C65C46B0 
  19      280B3333 
  20 002c 03631910 		.ascii	"\003c\031\020#\0240\3452B,\001\000*\267\014\315"
  20      231430E5 
  20      32422C01 
  20      002AB70C 
  20      CD
  21              		.text
  22              		.section	.gnu.lto_.inline.192e1caca23cee51,"",%progbits
  23 0000 789C6362 		.ascii	"x\234cb`b\300\006\234\030!43\003\203\200\010#\033Cz"
  23      6062C006 
  23      9C182134 
  23      33038380 
  23      08231B43 
  24 0015 04632623 		.ascii	"\004c&#3H$\003\316J\005\261X\370\031\230\035\030R\020"
  24      33482403 
  24      CE4A05B1 
  24      58F81998 
  24      1D185210 
  25 0029 4CB04620 		.ascii	"L\260F \301\354\300\312\271\302\215\201\363\206\031"
  25      C1ECC0CA 
  25      B9C28D81 
  25      F38619
  26 0038 1303CB02 		.ascii	"\023\003\313\002y\240\304\022\366\006F\016&\006\326"
  26      79A0C412 
  26      F606460E 
  26      2606D6
  27 0047 2D2A401A 		.ascii	"-*@\032\244\212\211\233A\004\250\224\211AT\222\221\235"
  27      A48A899B 
  27      4104A894 
  27      89415492 
  27      919D
ARM GAS  /var/folders/c6/c789hm653lg9vtl73krp73tm0000gn/T//ccfdOrSk.s 			page 2


  28 0059 2C2B1841 		.ascii	",+\030AL6\301\027-\214\270-b\272\300\337\300\204d\035"
  28      4C36C117 
  28      2D8CB82D 
  28      62BAC0DF 
  28      C084641D 
  29 006d 0B83903C 		.ascii	"\013\203\220<\271>b\355P\307\353#\026^\240\262\011~"
  29      B93E62ED 
  29      50C7EB23 
  29      165EA0B2 
  29      097E
  30 007f 2008B58D 		.ascii	" \010\265\215\001\000H\016'\230"
  30      0100480E 
  30      2798
  31              		.text
  32              		.section	.gnu.lto_.pureconst.192e1caca23cee51,"",%progbits
  33 0000 789C6362 		.ascii	"x\234cb`b`g\200\000f\006)&)\026I\000\001\322\000b"
  33      60626067 
  33      80006606 
  33      29262916 
  33      490001D2 
  34              		.text
  35              		.section	.gnu.lto_palReadBus.192e1caca23cee51,"",%progbits
  36 0000 789C8D90 		.ascii	"x\234\215\220=K\003A\020\206g\366\343r_QK\021\021k\003"
  36      3D4B0341 
  36      108667F6 
  36      E3725F51 
  36      4B11116B 
  37 0015 39FC0BFE 		.ascii	"9\374\013\376\005\023P\273xE<HPLi\221\323\244\260\014"
  37      051350BB 
  37      78453C48 
  37      504C6991 
  37      D3A4B00C 
  38 0029 368A36DA 		.ascii	"6\2126\332X\244\210\255\240\205\212\2044\361\003\254"
  38      58A488AD 
  38      A0858A84 
  38      34F103AC 
  39 0039 52098236 		.ascii	"R\011\2026\"\3266q\366.\267\032I\341r7\2733\274\357"
  39      22D63671 
  39      F62EB71A 
  39      49E17237 
  39      BB33BCEF 
  40 004d B333CB80 		.ascii	"\2633\313\200\301\337\265@\377\"\225\247iG\003\2205"
  40      C1DFB540 
  40      FF2295A7 
  40      69470390 
  40      35
  41 005e EE00B64D 		.ascii	"\356\000\266M\306\304\261\204\320\346\237\035\200\320"
  41      C6C4B184 
  41      D0E69F1D 
  41      80D0
  42 006c E54C3C79 		.ascii	"\345L<y\224\312\313\031\312\004\312X%\021\325\001\020"
  42      94CACB19 
  42      CA04CA58 
  42      2511D501 
  42      10
  43 007d AA8C0B89 		.ascii	"\252\214\013\211\325eTL,#\234\261\253\347~\277\265\327"
  43      D565544C 
ARM GAS  /var/folders/c6/c789hm653lg9vtl73krp73tm0000gn/T//ccfdOrSk.s 			page 3


  43      2C239CB1 
  43      ABE77EBF 
  43      B5D7
  44 008f 3E7DC703 		.ascii	">}\307\003\226fTC\001\001\202A\001S\024\230\251R\213"
  44      96665443 
  44      01018241 
  44      01531498 
  44      A9528B
  45 00a2 02B755EA 		.ascii	"\002\267U\352\250\340R\020\204\220P\017\303\306lY\361"
  45      A8E05210 
  45      8490500F 
  45      C3C66C59 
  45      F1
  46 00b3 FC089AA3 		.ascii	"\374\010\232\243\250.\313#S;\357\300\355\333\365~\033"
  46      A82ECB23 
  46      533BEFC0 
  46      EDDBF57E 
  46      1B
  47 00c4 0B788212 		.ascii	"\013x\202\022\212\310\2260\240\303\257\225G\016\324"
  47      8AC89630 
  47      A0C3AF95 
  47      470ED4
  48 00d3 3EEFC2CE 		.ascii	">\357\302\316J\242\022\031\230\013\3208\202CR\247\206"
  48      4AA21219 
  48      980BD038 
  48      824352A7 
  48      86
  49 00e4 5CAB9818 		.ascii	"\\\253\230\030\011\375\252\271B)\214\361!\256\200\336"
  49      09FDAAB9 
  49      42298CF1 
  49      21AE80DE 
  50 00f4 3CBF0711 		.ascii	"<\277\007\021k\000\266\340+\334\015'\0024}\214)\252"
  50      6B00B6E0 
  50      2BDC0D27 
  50      02347D8C 
  50      29AA
  51 0106 3219A045 		.ascii	"2\031\240E\003\014D\001\332\211]F\003P[\275\363\227"
  51      030C4401 
  51      DA895D46 
  51      03505BBD 
  51      F397
  52 0118 077D9111 		.ascii	"\007}\221\021\265\346\214n-\351\255\0137z\226T\006\232"
  52      B5E68C6E 
  52      2DE9AD0B 
  52      377A9654 
  52      069A
  53 012a 619D446E 		.ascii	"a\235Dn\354I\023Cy\234\201\207i\317\317\374\346\177"
  53      EC491343 
  53      799C8187 
  53      69CFCFFC 
  53      E67F
  54 013c E627C307 		.ascii	"\346'\303\007O\034\026\231T\251\326\322%\273\250\254"
  54      4F1C1699 
  54      54A9D6D2 
  54      25BBA8AC 
  55 014c D630D989 		.ascii	"\3260\331\211\310b4\231kr\355\2426\226X\334\010E\355"
  55      C8623499 
ARM GAS  /var/folders/c6/c789hm653lg9vtl73krp73tm0000gn/T//ccfdOrSk.s 			page 4


  55      6B72EDA2 
  55      369658DC 
  55      0845ED
  56 015f 3E827E05 		.ascii	">\202~\0057\026\346hbz$5\302T6\353\305\337z\305[+\224"
  56      3716E668 
  56      627A2435 
  56      C25436EB 
  56      C5DF7AC5 
  57 0176 BCCAA6EF 		.ascii	"\274\312\246\357m\024JY\037\276\001\024\310}\327"
  57      6D144A59 
  57      1FBE0114 
  57      C87DD7
  58              		.text
  59              		.section	.gnu.lto_palWriteBus.192e1caca23cee51,"",%progbits
  60 0000 789C8D51 		.ascii	"x\234\215Q\277K\034A\024\376\336\374\330\273\333\273"
  60      BF4B1C41 
  60      14FEDEFC 
  60      D8BBDBBB 
  61 0010 F3F62445 		.ascii	"\363\366$E\020\011\201t\021n\361_\260\263WH\322]\256"
  61      10098174 
  61      116EF15F 
  61      B0B35748 
  61      D25DAE
  62 0023 D0050F43 		.ascii	"\320\005\017C,S\270&\026\226\326\261\211\255`\322\330"
  62      2C53B826 
  62      1696D6B1 
  62      89AD60D2 
  62      D8
  63 0034 88822604 		.ascii	"\210\202&\004\271&\011\202\225\225U\354\202\205\215"
  63      B9260982 
  63      959555EC 
  63      82858D
  64 0043 229CEFCD 		.ascii	"\"\234\357\315\334lr\207E\206\33573\337|\357{\337\233"
  64      DC6C7287 
  64      4586DD37 
  64      33DF7CEF 
  64      7BDF9B
  65 0056 5150181D 		.ascii	"QP\030\0353\374k\015L\362L\021Hm\376\004\326\312J\231"
  65      33FC6B0D 
  65      4CF24C11 
  65      486DFE04 
  65      D6CA4A99 
  66 006a 4F1679AC 		.ascii	"O\026y\254\257z@^\323\312\234\245\274\265\207Oxg\310"
  66      AF7A405E 
  66      D3CA9CA5 
  66      BCB5874F 
  66      7867C8
  67 007d 7A962592 		.ascii	"z\226%\222\005\010\253J\033K\253/I4\251K\370\242\216"
  67      0508AB4A 
  67      1B4BAB2F 
  67      4934A94B 
  67      F8A28E
  68 0090 2FFAFDCF 		.ascii	"/\372\375\317\327'{w\264\245\036)\306\310 #D\034\250"
  68      D7277B77 
  68      B4A51E29 
  68      C6C82023 
  68      441CA8
ARM GAS  /var/folders/c6/c789hm653lg9vtl73krp73tm0000gn/T//ccfdOrSk.s 			page 5


  69 00a3 C45B55E6 		.ascii	"\304[U\346\225\252H\210%T\345\264&\241\316A\217\011"
  69      95AA4888 
  69      2554E5B4 
  69      26A1CE41 
  69      8F09
  70 00b5 D69090C8 		.ascii	"\326\220\220\310\266)\253q\011\\\300b=\3177\237v\245"
  70      B629AB71 
  70      095CC062 
  70      3DCF379F 
  70      76A5
  71 00c7 5AC7959C 		.ascii	"Z\307\225\234\343(V\346\371\234g\335\303\367\313\257"
  71      E32856E6 
  71      F99C67DD 
  71      C3F7CBAF 
  72 00d7 3727D4A6 		.ascii	"7'\324\246m\262X \365\2022\256\377\317\230'\015nN\377"
  72      6DB25820 
  72      F58232AE 
  72      FFCF9827 
  72      0D6E4EFF 
  73 00eb C0FB5781 		.ascii	"\300\373W\201e\246\360<#\273\205\217\314\216\206\262"
  73      65A6F03C 
  73      23BB858F 
  73      CC8E86B2 
  74 00fb 5E534864 		.ascii	"^SHd\351\337\205\256\021\206m\014\351\032\234O\353_"
  74      E9DF85AE 
  74      11866D0C 
  74      E91A9C4F 
  74      EB5F
  75 010d 309E03BC 		.ascii	"0\236\003\274\303m\276\221'\031\225:\344U\004y\234Q"
  75      C36DBE91 
  75      2719953A 
  75      E4550479 
  75      9C51
  76 011f 991B1890 		.ascii	"\231\033\030\2202\252\204t\353\032`[\347\275\345P&r"
  76      32AA8474 
  76      EB1A605B 
  76      E7BDE550 
  76      2672
  77 0131 C6E2878D 		.ascii	"\306\342\207\215\005g\234r\250CFy\201J\016*\232\253"
  77      05679C72 
  77      A8434679 
  77      814A0E2A 
  77      9AAB
  78 0143 388DEAC3 		.ascii	"8\215\352\303\032\252\320\370pPh\304N\2462,S\375\237"
  78      1AAAD0F8 
  78      705068C4 
  78      4EA6322C 
  78      53FD9F
  79 0156 3B62998D 		.ascii	";b\231\215B\246\306IBB\342M\376)N\352|\350\310\273\005"
  79      42A6C649 
  79      4242E24D 
  79      FE294EEA 
  79      7CE8C8BB 
  80 016b 34E6CAD6 		.ascii	"4\346\312\326G\2344\270\233\340\344oz\302\302#\351M"
  80      479C34B8 
  80      9BE0E46F 
  80      7AC2C223 
ARM GAS  /var/folders/c6/c789hm653lg9vtl73krp73tm0000gn/T//ccfdOrSk.s 			page 6


  80      E94D
  81 017d C74D1CBA 		.ascii	"\307M\034\272_\240\343N\267)\350\267Y\017Na'_gS\265"
  81      5FA0E34E 
  81      B729E8B7 
  81      590F4E61 
  81      275F6753 
  82 0192 B0A8FB8E 		.ascii	"\260\250\373\216\230\027\211\331x\320\221\036\314\276"
  82      981789D9 
  82      78D0911E 
  82      CCBE
  83 01a0 4396024E 		.ascii	"C\226\002N\261vq\364,\274\256\037s\374\012\374lr\215"
  83      B17671F4 
  83      2CBCAE1F 
  83      73FC0AFC 
  83      6C728D
  84 01b3 13AD56EA 		.ascii	"\023\255V\352\277\345\225t\261\275\224\256\274\355\244"
  84      BFE59574 
  84      B1BD94AE 
  84      BCEDA4
  85 01c2 6FDA4BAD 		.ascii	"o\332K\255\016\356\001u\177\236A"
  85      0EEE0175 
  85      7F9E41
  86              		.text
  87              		.section	.gnu.lto_palSetBusMode.192e1caca23cee51,"",%progbits
  88 0000 789C8D50 		.ascii	"x\234\215P=K\303P\024=\367}\244i\332\242\243\210\210"
  88      3D4BC350 
  88      143DF77D 
  88      A469DAA2 
  88      A38888
  89 0013 E0A690E0 		.ascii	"\340\246\220\340_\3607\264\240n5C\015\264(v\354\320"
  89      5FF037B4 
  89      A06E3543 
  89      0DB42876 
  89      ECD0
  90 0025 541D1C3B 		.ascii	"T\035\034;+\210n.\352\037pP\020\332E\213\"\010\235:"
  90      2B886E2E 
  90      EA1F7050 
  90      10DA458B 
  90      22089D3A 
  91 0039 E922C5D9 		.ascii	"\351\"\305\331\245\336\2274\245\325\016^\222\373ro\316"
  91      A5DE9734 
  91      A5D50E5E 
  91      92FB726F 
  91      CE
  92 004a 39F79E27 		.ascii	"9\367\236' \360;\326\371u\271\275\300'Y \321|\002\032"
  92      20F03BD6 
  92      F975B9BD 
  92      C0275920 
  92      D17C021A 
  93 005e B610EA5C 		.ascii	"\266\020\352\\#t\344W\033\010\263R\250W\217K}\273\310"
  93      2374E457 
  93      1B08B352 
  93      A8578F4B 
  93      7DBBC8
  94 0071 95221DA3 		.ascii	"\225\"\035\2434\221\371\000\241.\244\322T\337$\243I"
  94      3491F900 
  94      A12EA4D2 
ARM GAS  /var/folders/c6/c789hm653lg9vtl73krp73tm0000gn/T//ccfdOrSk.s 			page 7


  94      54DF24A3 
  94      49
  95 0082 15C28DB8 		.ascii	"\025\302\215\270\353\015\006\327/\255\233O:\0239\301"
  95      EB0D06D7 
  95      2FAD9B4F 
  95      3A1339C1 
  96 0092 3D520808 		.ascii	"=R\010\010\026'Jq\022\266)\323\234\244c\312\014C\314"
  96      16274A71 
  96      12B629D3 
  96      9CA463CA 
  96      0C43CC
  97 00a5 7E1A4761 		.ascii	"~\032Ga\330\\\252\030)?\322\313s6s\012\374\237O\331"
  97      D85CAA18 
  97      293FD2CB 
  97      7336730A 
  97      FC9F4FD9 
  98 00b9 C6C3C7FD 		.ascii	"\306\303\307\375[\213\212tA\032%\022\033\024\260\370"
  98      5B8B8A74 
  98      411A2512 
  98      1B14B0F8 
  99 00c9 58144882 		.ascii	"X\024H\2027\227\2178\330JPj\025+\001\351S\2340\332\232"
  99      37978F38 
  99      D84A506A 
  99      152B01E9 
  99      539C30DA 
 100 00de 606D5342 		.ascii	"`mSBd\351\367\221\2562\010=3\241\253\320]\223\035\250"
 100      64E9F791 
 100      AE32083D 
 100      33A1ABD0 
 100      5D931DA8 
 101 00f2 1803D4F0 		.ascii	"\030\003\324\360\035\036\207\263\001\245|\212ULg. \233"
 101      1D1E87B3 
 101      01A57C8A 
 101      554C672E 
 101      209B
 102 0104 0D0C4101 		.ascii	"\015\014A\001\245\023\272\216\014\360Z\335\313Z2\306"
 102      A513BA8E 
 102      0CF05ADD 
 102      CB5A32C6 
 103 0114 8A1673A6 		.ascii	"\212\026s\246/\226l6\356$\025\0212\323\011b\012\301"
 103      2F966C36 
 103      EE241511 
 103      32D30962 
 103      0AC1
 104 0126 FE8F7526 		.ascii	"\376\217u&\364e\302H3\311\264\016\257F-\207\007\227"
 104      F465C248 
 104      33C9B40E 
 104      AF462D87 
 104      0797
 105 0138 8C930EAC 		.ascii	"\214\223\016\254?\356\263\376pp\311\35034\023P\016x"
 105      3FEEB3FE 
 105      7070C9E8 
 105      33341350 
 105      0E78
 106 014a 46A3D75F 		.ascii	"F\243\327_N\320q\344\331\023_\202\201\317\273\256\027"
 106      4ED071E4 
 106      D9135F82 
ARM GAS  /var/folders/c6/c789hm653lg9vtl73krp73tm0000gn/T//ccfdOrSk.s 			page 8


 106      81CFBBAE 
 106      17
 107 015b 3FBB556F 		.ascii	"?\273Uo\247X\366\252\373\276\267W,\273>~\000\\\232x"
 107      A758F6AA 
 107      FBBEB757 
 107      2CBB3E7E 
 107      005C9A78 
 108 016f 07       		.ascii	"\007"
 109              		.text
 110              		.section	.gnu.lto_.symbol_nodes.192e1caca23cee51,"",%progbits
 111 0000 789C4DC8 		.ascii	"x\234M\310\261\025@@\020\204\341\331\331C\031J\335\013"
 111      B1154040 
 111      1084E1D9 
 111      D943194A 
 111      DD0B
 112 0012 38874405 		.ascii	"8\207D\005\022\375P\204T\240\004<\307\273I\3767\037"
 112      12FD5084 
 112      54A0043C 
 112      C7BB49FE 
 112      371F
 113 0024 4178A4B1 		.ascii	"Ax\244\261\241\001\323\012\230\315Q\212H8S\2664\311"
 113      A101D30A 
 113      98CD518A 
 113      483853B6 
 113      34C9
 114 0036 B4A73C1A 		.ascii	"\264\247<\032h\314t o\225\216\246\257z/2\322\334\377"
 114      68CC7420 
 114      6F958EA6 
 114      AF7A2F32 
 114      D2DCFF
 115 0049 1425F673 		.ascii	"\024%\366s\023e\252\373Za\011G\215\013\252w#\223"
 115      1365AAFB 
 115      5A610947 
 115      8D0BAA77 
 115      2393
 116              		.text
 117              		.section	.gnu.lto_.refs.192e1caca23cee51,"",%progbits
 118 0000 789C6362 		.ascii	"x\234cb`b\340e\200\000F\006&FF&&fF\026&V\006\000\002"
 118      6062E065 
 118      80004606 
 118      26464626 
 118      26664616 
 119 0019 15002A   		.ascii	"\025\000*"
 120              		.text
 121              		.section	.gnu.lto_.decls.192e1caca23cee51,"",%progbits
 122 0000 789CAD58 		.ascii	"x\234\255X{l\024E\030\237\331\335\203^{\024\320\200"
 122      7B6C1445 
 122      189FD9DD 
 122      835E7B14 
 122      D080
 123 0012 C5185A8D 		.ascii	"\305\030Z\215\032\202\322k\361\205\377\370\200\242E"
 123      1A82D26B 
 123      F185FFF8 
 123      80A245
 124 0021 8B6DAE12 		.ascii	"\213m\256\02251Y\207\353\225^\274\366\232\273\255\011"
 124      35315987 
 124      EB955EBC 
ARM GAS  /var/folders/c6/c789hm653lg9vtl73krp73tm0000gn/T//ccfdOrSk.s 			page 9


 124      F69ABBAD 
 124      09
 125 0032 7F397D88 		.ascii	"\1779}\210\240)\026|\200\210\322Z\252\240\362(\306\""
 125      A029167C 
 125      8088D25A 
 125      AAA0F228 
 125      C622
 126 0044 04F02022 		.ascii	"\004\360 \"\350\031m@\212$>N\2431\306\030\251-\012*"
 126      E8196D40 
 126      8A243E4E 
 126      A331C618 
 126      A92D0A2A 
 127 0058 9EDFCCEE 		.ascii	"\236\337\314\356\336\355nw\357A\334tf\347v\277\357\367"
 127      DEED6E77 
 127      EF41DC74 
 127      66E776BF 
 127      EFF7
 128 006a FD7EF3CD 		.ascii	"\375~\363\315|\273]\001\011h\030#\224\204c\356L\204"
 128      7CBB5D01 
 128      09681823 
 128      948463EE 
 128      4C84
 129 007c 86048424 		.ascii	"\206\004\204$\204\320\035\320\\\320\372\240m\207\266"
 129      84D01DD0 
 129      5CD0FAA0 
 129      6D87B6
 130 008b 03DA20B4 		.ascii	"\003\332 \264\013H=\330\275\213\320$\360\235\002m\026"
 130      0B483DD8 
 130      BD8BD024 
 130      F09D026D 
 130      16
 131 009c B4D9D044 		.ascii	"\264\331\320D\270v-\234\347@\273\001#\323\301\354\213"
 131      B8762D9C 
 131      E740BB01 
 131      23D3C1EC 
 131      8B
 132 00ad 35DF5168 		.ascii	"5\337Qh\223\221\032k\334\200\275\007Z9V\343^\011\347"
 132      93911A6B 
 132      DC80BD07 
 132      5A3956E3 
 132      5E09E7
 133 00c0 7D708E41 		.ascii	"}p\216A\333\257\331\236\207\366>\264\317\240\215A\023"
 133      DBAFD99E 
 133      87F63EB4 
 133      CFA08D41 
 133      13
 134 00d1 345C165F 		.ascii	"4\\\026_\320bcK\\\306q\252M\\k\314\355\206\230\343Z"
 134      D062634B 
 134      5CC671AA 
 134      4D5C6BCC 
 134      ED8698E3 
 135 00e6 DC935A6C 		.ascii	"\334\223Zl\227!6\213{\002\332\210\026_\322\3643\355"
 135      9721368B 
 135      7B02DA88 
 135      165FD2F4 
 135      33ED
 136 00f8 4CB71B5A 		.ascii	"L\267\033Z\241\205\003\233#;\355V\016;,\034\2740.\325"
ARM GAS  /var/folders/c6/c789hm653lg9vtl73krp73tm0000gn/T//ccfdOrSk.s 			page 10


 136      A185039B 
 136      233BED56 
 136      0E3B2C1C 
 136      BC302ED5 
 137 010c B08DF145 		.ascii	"\260\215\361E4q\336\331|\317\2006\323\022\273\010=C"
 137      3471DED9 
 137      7CCF8036 
 137      D312BB08 
 137      3D43
 138 011e 6907ED5D 		.ascii	"i\007\355]E\253\217\027OG=\024\216\262\215\305n\264"
 138      45AB8F17 
 138      4F473D14 
 138      8EB28DC5 
 138      6EB4
 139 0130 9A5D4E0C 		.ascii	"\232]N\014\304J6\002\265\2071\301p\255\200\017<n\304"
 139      C44A3602 
 139      B58731C1 
 139      70AD800F 
 139      3C6EC4
 140 0143 40AE435B 		.ascii	"@\256C[\301\026\034\204\2241-)\261\267%x+\276\016\372"
 140      C1161C84 
 140      94312D29 
 140      B1B72578 
 140      2BBE0EFA 
 141 0157 01ECE651 		.ascii	"\001\354\346Q\331-u\254\217\222<G\202\205\235~d\363"
 141      D92D75AC 
 141      8F923C47 
 141      82859D7E 
 141      64F3
 142 0169 D4623EAC 		.ascii	"\324b>\254\307,\342\266i9\252\245\275\025\301o\342\351"
 142      C72CE2B6 
 142      6939AAA5 
 142      BD15C16F 
 142      E2E9
 143 017b 7CC47550 		.ascii	"|\304uPm.\270\205\346Q\246{H\232\3076\003\033\217;="
 143      6D2EB885 
 143      E651A67B 
 143      489AC736 
 143      031B8F3B 
 144 0190 283471D6 		.ascii	"(4q\326\255\034a\372pQ\226<\020\334\237&\376\230\356"
 144      AD1C61FA 
 144      7051963C 
 144      10DC9F26 
 144      FE98EE
 145 01a3 EFC924CF 		.ascii	"\357\311$\317bE\360\333y\313{\307A^\212\255\311\312"
 145      6245F0DB 
 145      79CB7BC7 
 145      415E8AAD 
 145      C9CA
 146 01b5 11667B7E 		.ascii	"\021f{~\362Zu\377\342L\362,V\004\357\312[\336n\007y"
 146      F25A75FF 
 146      E24CF22C 
 146      5604EFCA 
 146      5BDE6E07 
 147 01ca 534CF276 		.ascii	"SL\362vg\223\267\303A\336eh\035'~<\275qL9\341\033\247"
 147      6793B7C3 
 147      41DE6568 
ARM GAS  /var/folders/c6/c789hm653lg9vtl73krp73tm0000gn/T//ccfdOrSk.s 			page 11


 147      1D277E3C 
 147      BD714C39 
 148 01e1 27B1EB8D 		.ascii	"'\261\353\215YT\"x\017\276\014\026\376\365\030\315E"
 148      59542278 
 148      0FBE0C16 
 148      FEF518CD 
 148      45
 149 01f2 DBD5FDD4 		.ascii	"\333\325\375\324q\005\232xd\003e\204\206\000\212\340"
 149      71059A78 
 149      64036584 
 149      86008AE0 
 150 0202 F7F05C6D 		.ascii	"\367\360\\mo\306\316\035\363\260\020\354:\322\356\330"
 150      6FC6CE1D 
 150      F3B010EC 
 150      3AD2EED8 
 151 0212 1C57A35E 		.ascii	"\034W\243^\010\032\273xl\363,\332{\004g\323\222\020"
 151      081ABB78 
 151      6CF32CDA 
 151      7B0467D3 
 151      9210
 152 0224 F4B837A6 		.ascii	"\364\2707\246\305\234\036\335 RZ@\360~.'\200M\341\262"
 152      C59C1EDD 
 152      20525A40 
 152      F07E2E27 
 152      804DE1B2 
 153 0238 A2307607 		.ascii	"\2420v\007\255\354\337\215s\366\007\263\263\357\352"
 153      ADECDF8D 
 153      73F607B3 
 153      B3EFEA
 154 0247 8CED8DAB 		.ascii	"\214\355\215\253\354\371*\350\324\330\333\347N\243|"
 154      ECF92AE8 
 154      D4D8DBE7 
 154      4EA37C
 155 0256 EAE9A387 		.ascii	"\352\351\243\207q\007\245X+_\231\\\010>\314\353\327"
 155      7107A558 
 155      2B5F995C 
 155      083ECCEB 
 155      D7
 156 0267 64778A08 		.ascii	"dw\212\010\273;\331\235\036\260\207\344TV\303>\300f"
 156      BB3BD99D 
 156      1EB087E4 
 156      5456C33E 
 156      C066
 157 0279 F139C06B 		.ascii	"\3619\300k\214\006\327\036\270\235O\342\207\300I@\003"
 157      8C06D71E 
 157      B89D4FE2 
 157      87C04940 
 157      03
 158 028a 8219488B 		.ascii	"\202\031H\213gX\242\331\351\344i.\240\335<(\233s;\242"
 158      6758A2D9 
 158      E9E4692E 
 158      A0DD3C28 
 158      9B733BA2 
 159 029e A91D63D8 		.ascii	"\251\035c\330\027\246<$FF_\342y 8\306E\014\345\215W"
 159      17A63C24 
 159      46465FE2 
 159      792038C6 
ARM GAS  /var/folders/c6/c789hm653lg9vtl73krp73tm0000gn/T//ccfdOrSk.s 			page 12


 159      450CE58D 
 160 02b3 66CAEBFE 		.ascii	"f\312\353\376\270\247\207\350`\007s\001+p$\027;`\004"
 160      B8A787E8 
 160      60077301 
 160      2B702417 
 160      3B6004
 161 02c6 3B9A3798 		.ascii	";\2327\230\231\331!#X<\027\260i\316\314\206\215`\237"
 161      99D92123 
 161      583C17B0 
 161      69CECC86 
 161      8D609F
 162 02d9 E70D6664 		.ascii	"\347\015fd\326\036\3736\376\011\246\353=\227\243\365"
 162      D61EFB36 
 162      FE09A6EB 
 162      3D97A3F5 
 163 02e9 94B6D3DE 		.ascii	"\224\266\323\336IN\313\016!nB3\232\020\374\005\276\334"
 163      494ECB0E 
 163      216E4233 
 163      9A10FC05 
 163      BEDC
 164 02fb BC314F3E 		.ascii	"\2741O>[\3146&\273\236\275\254\234\3226&\301G\270\270"
 164      5BCC3626 
 164      BB9EBDAC 
 164      9CD23626 
 164      C147B8B8 
 165 030f 935C1CF3 		.ascii	"\223\\\034\363\275\204\005\006\301\277\216\027\321g"
 165      BD840506 
 165      C1BF8E17 
 165      D167
 166 031d 3C5A45E9 		.ascii	"<ZE\351\275k[\006\342g\254\025\345t\\(S/g\347}&\276"
 166      BD6B5B06 
 166      E267AC15 
 166      E5745C28 
 166      532F67E7 
 167 0334 B984F61E 		.ascii	"\271\204\366\036\326\253\003]E\347\030bM\323c\261w\274"
 167      D6AB035D 
 167      45E71862 
 167      4DD363B1 
 167      77BC
 168 0346 5441D97B 		.ascii	"TA\331{#\337\276_q\241\247\004\333:\220\003\320\340"
 168      23DFBE5F 
 168      71A1A704 
 168      DB3A9003 
 168      D0E0
 169 0358 DA37D53A 		.ascii	"\3327\325:\360-\007\372fB\035\020-u@4ol\321\235\036"
 169      F02D07FA 
 169      66421D10 
 169      2D754034 
 169      6F6CD19D 
 170 036d 249322CA 		.ascii	"$\223\"\312\317X@?\363\200g\322\353\317D2[\212:\022"
 170      CF58403F 
 170      F38067D2 
 170      EBCF4432 
 170      5B8A3A12 
 171 0381 23EF6DE0 		.ascii	"#\357m\340S\247\317\304\257y\343M\263\344D@c\227\272"
 171      53A7CFC4 
 171      AF79E34D 
ARM GAS  /var/folders/c6/c789hm653lg9vtl73krp73tm0000gn/T//ccfdOrSk.s 			page 13


 171      B3E44440 
 171      6397BA
 172 0394 6C0CCA55 		.ascii	"l\014\312U\321\004\217\340\253\241\377\022zC\200s\271"
 172      D1048FE0 
 172      ABA1FF12 
 172      7A438073 
 172      B9
 173 03a5 6CBA1207 		.ascii	"l\272\022\007\321\260\203\317\032w\360_y\203\225\231"
 173      D1B083CF 
 173      1A77F05F 
 173      79839599 
 174 03b5 C07E3782 		.ascii	"\300~7\202%s\001+sf6n\004\353\022\363\00533\373\303"
 174      2573012B 
 174      7366366E 
 174      04EB12F3 
 174      053333FB 
 175 03ca 08B62617 		.ascii	"\010\266&\027\2609\231\222b\312O\372\015\200\340C\374"
 175      B0399992 
 175      62CA4FFA 
 175      0D80E043 
 175      FC
 176 03db 79FB01CF 		.ascii	"y\373\001\317\324q\336\177\302\373Oy\377\031\357\207"
 176      D471DE7F 
 176      C2FB4F79 
 176      FF19EF87 
 177 03eb 797F82F7 		.ascii	"y\177\202\367?\361\376g\336\377\302\373_\215\371u~\352"
 177      3FF1FE67 
 177      DEFFC2FB 
 177      5F8DF975 
 177      7EEA
 178 03fd C6FE5C7F 		.ascii	"\306\376\\\177\025\253f\373\340\305G@\335\242y\257\231"
 178      15AB66FB 
 178      E0C54740 
 178      DDA279AF 
 178      99
 179 040e 5E86D4B7 		.ascii	"^\206\324\267\033\247j3\012\000\366Ee\302=\001m\344"
 179      1BA76A33 
 179      0A00F645 
 179      65C23D01 
 179      6DE4
 180 0420 71862EED 		.ascii	"q\206.\3551\013[\354\271\376\217\305\227i\254K\314\375"
 180      310B5BEC 
 180      B9FE8FC5 
 180      9769AC4B 
 180      CCFD
 181 0432 EDE2F485 		.ascii	"\355\342\364\205\255syU\031\347\271\333\"Z\253\312\021"
 181      AD737955 
 181      19E7B9DB 
 181      225AABCA 
 181      11
 182 0443 9CF7EB85 		.ascii	"\234\367\353\205\200\336\311[H\231Y\310\033y\0139\365"
 182      80DEC95B 
 182      489959C8 
 182      1B790B39 
 182      F5
 183 0454 F40FA3B8 		.ascii	"\364\017\243\270\023^\334\010\276\300\245\014N\220\342"
 183      135EDC08 
ARM GAS  /var/folders/c6/c789hm653lg9vtl73krp73tm0000gn/T//ccfdOrSk.s 			page 14


 183      BEC0A50C 
 183      4E90E2
 184 0463 B2287199 		.ascii	"\262(q\231\225\270\334\351AJ\311\241\\\224\330\275\\"
 184      95B8DCE9 
 184      414AC9A1 
 184      5C94D8BD 
 184      5C
 185 0474 D82FE621 		.ascii	"\330/\346!\303b\336\313\027\363\373|Y\216\361\376|\266"
 185      C362DECB 
 185      17F3FB7C 
 185      598EF1FE 
 185      7CB6
 186 0486 C5C92006 		.ascii	"\305\311 \006\323\377`\224\242\327ho\"\361\3127\037"
 186      D3FF6094 
 186      A2D7686F 
 186      22F1CA37 
 186      1F
 187 0497 7E87D775 		.ascii	"~\207\327u\322\343\364,c=\023\275\250\375\313C\261\242"
 187      D2E3F42C 
 187      633D13BD 
 187      A8FDCB43 
 187      B1A2
 188 04a9 26D609EB 		.ascii	"&\326\011\353_<\223\217D^s5p\202\227\245\237\016\002"
 188      5F3C938F 
 188      445E7335 
 188      708297A5 
 188      9F0E02
 189 04bc 4A58E6F1 		.ascii	"JX\346\361Z\324O\351z\272.P\255\232\013\350\027nq\021"
 189      5AD44FE9 
 189      7ABA2E50 
 189      AD9A0BE8 
 189      176E7111 
 190 04d0 973ABC25 		.ascii	"\227:\274%k\214\257G\003,\227\007\177\250\253VY\241"
 190      6B8CAF47 
 190      032C9707 
 190      7FA8AB56 
 190      59A1
 191 04e2 0C5E1A41 		.ascii	"\014^\032A*\010\306\011T\005\307\316\255\212\303\253"
 191      2A08C609 
 191      5405C7CE 
 191      AD8AC3AB 
 192 04f2 0CFD873D 		.ascii	"\014\375\207=\231,j\357\230\341(\366)\301Fl\352\207"
 192      992C6AEF 
 192      98E128F6 
 192      29C1466C 
 192      EA87
 193 0504 4AC82AFE 		.ascii	"J\310*\3767{\361c\015\325\372\\u\000C\202\273\204\214"
 193      377BF163 
 193      0DD5FA5C 
 193      75004382 
 193      BB848C
 194 0517 E235B7BD 		.ascii	"\3425\267\275\201j}\243\375\315\201\235\3354:|\316("
 194      816A7DA3 
 194      FDCD819D 
 194      DD343A7C 
 194      CE28
 195 0529 EDA64F4D 		.ascii	"\355\246OM\303\\\034\322\274L\253j\265\355,\2358\346"
ARM GAS  /var/folders/c6/c789hm653lg9vtl73krp73tm0000gn/T//ccfdOrSk.s 			page 15


 195      C35C1CD2 
 195      BC4CAB6A 
 195      B5ED2C9D 
 195      38E6
 196 053b E9694F24 		.ascii	"\351iO$\223\245\271O\321\332\014S\224GM\3311\240\326"
 196      93A5B94F 
 196      D1DA0C53 
 196      94474DD9 
 196      31A0D6
 197 054e 94750293 		.ascii	"\224u\002\223J\245\377\241\246LL\315\032\311.5\260\031"
 197      4AA5FFA1 
 197      A64C4CCD 
 197      1AC92E35 
 197      B019
 198 0560 C607F1F3 		.ascii	"\306\007\361\363\235\324\222\240\356\234\022\364.K\220"
 198      9DD492A0 
 198      EE9C12F4 
 198      2E4B90
 199 056f CA7A0387 		.ascii	"\312z\003\207wvcVN\011\352\266&\350\205\211\011J\364"
 199      77766356 
 199      4E09EAB6 
 199      26E88589 
 199      094AF4
 200 0582 242E7C7F 		.ascii	"$.|\177\366\276\215{h\327\032\372o\362I\234{\2266\231"
 200      F6BE8D7B 
 200      68D71AFA 
 200      6FF2499C 
 200      7B963699 
 201 0596 B364791A 		.ascii	"\263dy\032\365g\330\357\233\205\2424)\323l\036\260\314"
 201      F567D8EF 
 201      9B85A234 
 201      29D36C1E 
 201      B0CC
 202 05a8 A66EF4AA 		.ascii	"\246n\364\252-\363\221\276C\263h_G,\231\2743\217\015"
 202      2DF391BE 
 202      43B3685F 
 202      472C99BC 
 202      338F0D
 203 05bb B8C5BABA 		.ascii	"\270\305\272\272\366\331l\300\324om\202-<?r\340\331"
 203      F6D96CC0 
 203      D46F6D82 
 203      2D3C3F72 
 203      E0D9
 204 05cd 6FE6790D 		.ascii	"o\346y\015\352\243\303\303\260\030\216V\266\367\304"
 204      EAA3C3C3 
 204      B0188E56 
 204      B6F7C4
 205 05dc BA7A59AD 		.ascii	"\272zY\255\300\300\346u<\035@\276\222,\005\313\362\361"
 205      C0C0E675 
 205      3C1D40BE 
 205      922C05CB 
 205      F2F1
 206 05ee 4F403F4A 		.ascii	"O@?J\3527\307\331hLz\225-\345\327\371\367$\0256v\376"
 206      EA37C7D9 
 206      684C7A95 
 206      2DE5D7F9 
 206      F7241536 
ARM GAS  /var/folders/c6/c789hm653lg9vtl73krp73tm0000gn/T//ccfdOrSk.s 			page 16


 207 0604 235AD0D3 		.ascii	"#Z\320\323\276\232&\223O\022\374\026\334!x\300Z\006"
 207      BE9A2693 
 207      4F12FC16 
 207      DC2178C0 
 207      5A06
 208 0616 2CDF61E0 		.ascii	",\337a\340\205-\005\331\355\342\220o\031!G\216\031 "
 208      852D05D9 
 208      EDE2906F 
 208      1921478E 
 208      1920
 209 0628 771A200D 		.ascii	"w\032 \015+\320\362\221K@\233\\:\3446\025r'\207\264"
 209      2BD0F291 
 209      4B409B5C 
 209      3AE43615 
 209      722787B4 
 210 063c 2C08B65C 		.ascii	",\010\266\\\234R\262S\260\377Z\245&\313\311kW\332\013"
 210      9C52B253 
 210      B0FF5AA5 
 210      26CBC96B 
 210      57DA0B
 211 064f 49FE2612 		.ascii	"I\376&\022\231]^\356U\377\302Qo\023\011y\203-\376P["
 211      995D5EEE 
 211      55FFC251 
 211      6F130979 
 211      832DFE50 
 212 0664 43C0DB4A 		.ascii	"C\300\333JB\345M\310\265\244va[t\322\275\017,+[\204"
 212      42E54DC8 
 212      B5A47661 
 212      5B74D2BD 
 212      0F2C2B5B 
 213 0679 2AADB6AD 		.ascii	"*\255\266\255\341\210\022\365\326?\270\364\246\371\336"
 213      E18812F5 
 213      D63FB8F4 
 213      A6F9DE
 214 0688 9A9A2AEF 		.ascii	"\232\232*\357\275uKj\237\230\317\\\345P\250\001\334"
 214      BD754B6A 
 214      9F98CF5C 
 214      E550A801 
 214      DC
 215 0699 3D51A5F9 		.ascii	"=Q\245\371\246\371\362\212\326`XVj\274m\321\2107\024"
 215      A6F9F28A 
 215      D6605856 
 215      6ABC6DD1 
 215      883714
 216 06ac F683E7A2 		.ascii	"\366\203\347\242@(D\"\336\025~\377<\022i\236\327\022"
 216      40284422 
 216      DE157EFF 
 216      3C12699E 
 216      D712
 217 06be 6E09CC0B 		.ascii	"n\011\314\013\220\345A\357\374\212\312\233+\026T\334"
 217      90E541EF 
 217      FC8ACA9B 
 217      2B1654DC 
 218 06ce E2355FD6 		.ascii	"\3425_\326YE\225\206`\213\002\310\005mp\006h\345\321"
 218      59459586 
 218      608B02C8 
 218      056D7006 
ARM GAS  /var/folders/c6/c789hm653lg9vtl73krp73tm0000gn/T//ccfdOrSk.s 			page 17


 218      68E5D1
 219 06e1 FF01B599 		.ascii	"\377\001\265\231\370\233\202-\001\257\334\020h$m!EV"
 219      F89B822D 
 219      01AFDC10 
 219      68246D21 
 219      4556
 220 06f3 56B606A2 		.ascii	"V\266\006\242\020\245P\226\3658\256\245\265U\213}\223"
 220      10A55096 
 220      F538AEA5 
 220      B5558B7D 
 220      93
 221 0704 6A1F7CA4 		.ascii	"j\037|\244n\261orm}\335\342\305U>W\335\262\272*\237"
 221      6EB16F72 
 221      6D7DDDE2 
 221      C5553E57 
 221      DDB2BA2A 
 222 0719 B8045A6D 		.ascii	"\270\004Zm\225\017?\304YU\336*+\232#\033\212\321\200"
 222      950F3FC4 
 222      5955DE2A 
 222      2B9A231B 
 222      8AD180
 223 072c E2F28702 		.ascii	"\342\362\207\002$\202\253\245\205\365>\237T\263\350"
 223      2482ABA5 
 223      85F53E9F 
 223      54B3E8
 224 073b 7E9F74F7 		.ascii	"~\237t\367=\276\032\326U\213\013}\276\302`\230\315e"
 224      3DBE1AD6 
 224      558B0B7D 
 224      BEC26098 
 224      CD65
 225 074d B0415626 		.ascii	"\260AV&\251\003\217z\245\231D\037\227\025\211\235<\014"
 225      A9038F7A 
 225      A599441F 
 225      9715899D 
 225      3C0C
 226 075f 506E2451 		.ascii	"Pn$Qe\001X\205\033\033\001\367JkF\242\021?\317\234\037"
 226      65015885 
 226      1B1B01F7 
 226      4A6B46A2 
 226      113FCF9C 
 227 0774 15C2C917 		.ascii	"\025\302\311\027 \015\220>qy[\264\010~>\024\011*\001"
 227      200D903E 
 227      71795BB4 
 227      087E3E14 
 227      092A01
 228 0787 F82D2D0F 		.ascii	"\370--\017*\321\202`\2709\334\020\220\225)p\247>\240"
 228      2AD18260 
 228      B839DC10 
 228      90952970 
 228      A73EA0
 229 079a C0F5A5F0 		.ascii	"\300\365\245\360[b\027K\215\260\021%5O\376\246\350J"
 229      5B62174B 
 229      8DB01125 
 229      354FFEA6 
 229      E84A
 230 07ac 362D6E7F 		.ascii	"6-n\177S\375\312h5\011)3d-\3312\260Y\021\011\267\265"
 230      53FDCA68 
ARM GAS  /var/folders/c6/c789hm653lg9vtl73krp73tm0000gn/T//ccfdOrSk.s 			page 18


 230      35092933 
 230      642DD932 
 230      B0591109 
 231 07c2 32FF0259 		.ascii	"2\377\002Ynlk\361\313\362\024}P~"
 231      6E6C6BF1 
 231      CBF2147D 
 231      507E
 232 07d0 DB828A8A 		.ascii	"\333\202\212\212\2424%d\272s\213\307\300\316t\253\262"
 232      A2342564 
 232      BA738BC7 
 232      C0CE74AB 
 232      B2
 233 07e1 A2D8440F 		.ascii	"\242\330D\017\375\007O\"\000F"
 233      FD074F22 
 233      0046
 234              		.text
 235              		.section	.gnu.lto_.symtab.192e1caca23cee51,"",%progbits
 236 0000 70616C52 		.ascii	"palReadBus\000\000\000\000\000\000\000\000\000\000\000"
 236      65616442 
 236      75730000 
 236      00000000 
 236      00000000 
 237 0015 00FD0000 		.ascii	"\000\375\000\000\000palWriteBus\000\000\000\000\000"
 237      0070616C 
 237      57726974 
 237      65427573 
 237      00000000 
 238 002a 00000000 		.ascii	"\000\000\000\000\000\000\000\004\001\000\000palSetB"
 238      00000004 
 238      01000070 
 238      616C5365 
 238      7442
 239 003c 75734D6F 		.ascii	"usMode\000\000\000\000\000\000\000\000\000\000\000\000"
 239      64650000 
 239      00000000 
 239      00000000 
 239      0000
 240 004e 0D010000 		.ascii	"\015\001\000\000chSysHalt\000\000\002\000\000\000\000"
 240      63685379 
 240      7348616C 
 240      74000002 
 240      00000000 
 241 0062 00000000 		.ascii	"\000\000\000\000\000\031\001\000\000_pal_lld_setgro"
 241      00190100 
 241      005F7061 
 241      6C5F6C6C 
 241      645F7365 
 242 007a 75706D6F 		.ascii	"upmode\000\000\002\000\000\000\000\000\000\000\000\000"
 242      64650000 
 242      02000000 
 242      00000000 
 242      0000
 243 008c 1E010000 		.ascii	"\036\001\000\000"
 244              		.text
 245              		.section	.gnu.lto_.opts,"",%progbits
 246 0000 272D6D63 		.ascii	"'-mcpu=cortex-m4' '-mno-thumb-interwork' '-mthumb' "
 246      70753D63 
ARM GAS  /var/folders/c6/c789hm653lg9vtl73krp73tm0000gn/T//ccfdOrSk.s 			page 19


 246      6F727465 
 246      782D6D34 
 246      2720272D 
 247 0033 272D6767 		.ascii	"'-ggdb' '-O2' '-fomit-frame-pointer' '-falign-funct"
 247      64622720 
 247      272D4F32 
 247      2720272D 
 247      666F6D69 
 248 0066 696F6E73 		.ascii	"ions=16' '-ffunction-sections' '-fdata-sections' '-"
 248      3D313627 
 248      20272D66 
 248      66756E63 
 248      74696F6E 
 249 0099 666E6F2D 		.ascii	"fno-common' '-flto'\000"
 249      636F6D6D 
 249      6F6E2720 
 249      272D666C 
 249      746F2700 
 250              		.text
 251              		.cfi_sections	.debug_frame
 252              		.section	.text.palReadBus,"ax",%progbits
 253              		.align	2
 254              		.p2align 4,,15
 255              		.global	palReadBus
 256              		.thumb
 257              		.thumb_func
 258              		.type	palReadBus, %function
 259              	palReadBus:
 260              	.LFB260:
 261              		.file 1 "../../../os/hal/src/pal.c"
 262              		.loc 1 65 0
 263              		.cfi_startproc
 264              		@ args = 0, pretend = 0, frame = 0
 265              		@ frame_needed = 0, uses_anonymous_args = 0
 266              	.LVL0:
 267 0000 10B5     		push	{r4, lr}
 268              		.cfi_def_cfa_offset 8
 269              		.cfi_offset 4, -8
 270              		.cfi_offset 14, -4
 271              		.loc 1 67 0
 272 0002 0446     		mov	r4, r0
 273 0004 10B1     		cbz	r0, .L2
 274              		.loc 1 67 0 is_stmt 0 discriminator 2
 275 0006 8368     		ldr	r3, [r0, #8]
 276 0008 0F2B     		cmp	r3, #15
 277 000a 03D9     		bls	.L3
 278              	.L2:
 279              		.loc 1 67 0 discriminator 1
 280 000c 0548     		ldr	r0, .L8
 281              	.LVL1:
 282 000e FFF7FEFF 		bl	chSysHalt
 283              	.LVL2:
 284 0012 A368     		ldr	r3, [r4, #8]
 285              	.L3:
 286              		.loc 1 69 0 is_stmt 1
 287 0014 2168     		ldr	r1, [r4]
 288 0016 6068     		ldr	r0, [r4, #4]
ARM GAS  /var/folders/c6/c789hm653lg9vtl73krp73tm0000gn/T//ccfdOrSk.s 			page 20


 289 0018 0969     		ldr	r1, [r1, #16]
 290 001a 21FA03F3 		lsr	r3, r1, r3
 291              		.loc 1 70 0
 292 001e 1840     		ands	r0, r0, r3
 293 0020 10BD     		pop	{r4, pc}
 294              	.LVL3:
 295              	.L9:
 296 0022 00BF     		.align	2
 297              	.L8:
 298 0024 00000000 		.word	.LANCHOR0
 299              		.cfi_endproc
 300              	.LFE260:
 301              		.size	palReadBus, .-palReadBus
 302 0028 AFF30080 		.section	.text.palWriteBus,"ax",%progbits
 302      AFF30080 
 303              		.align	2
 304              		.p2align 4,,15
 305              		.global	palWriteBus
 306              		.thumb
 307              		.thumb_func
 308              		.type	palWriteBus, %function
 309              	palWriteBus:
 310              	.LFB261:
 311              		.loc 1 90 0
 312              		.cfi_startproc
 313              		@ args = 0, pretend = 0, frame = 0
 314              		@ frame_needed = 0, uses_anonymous_args = 0
 315              	.LVL4:
 316 0000 38B5     		push	{r3, r4, r5, lr}
 317              		.cfi_def_cfa_offset 16
 318              		.cfi_offset 3, -16
 319              		.cfi_offset 4, -12
 320              		.cfi_offset 5, -8
 321              		.cfi_offset 14, -4
 322              		.loc 1 92 0
 323 0002 0446     		mov	r4, r0
 324              		.loc 1 90 0
 325 0004 0D46     		mov	r5, r1
 326              		.loc 1 92 0
 327 0006 10B1     		cbz	r0, .L11
 328              		.loc 1 92 0 is_stmt 0 discriminator 2
 329 0008 8368     		ldr	r3, [r0, #8]
 330 000a 0F2B     		cmp	r3, #15
 331 000c 03D9     		bls	.L12
 332              	.L11:
 333              		.loc 1 92 0 discriminator 1
 334 000e 0948     		ldr	r0, .L16
 335              	.LVL5:
 336 0010 FFF7FEFF 		bl	chSysHalt
 337              	.LVL6:
 338 0014 A368     		ldr	r3, [r4, #8]
 339              	.L12:
 340              		.loc 1 94 0 is_stmt 1
 341 0016 94E80600 		ldmia	r4, {r1, r2}
 342 001a 03F11000 		add	r0, r3, #16
 343 001e 22EA0504 		bic	r4, r2, r5
 344              	.LVL7:
ARM GAS  /var/folders/c6/c789hm653lg9vtl73krp73tm0000gn/T//ccfdOrSk.s 			page 21


 345 0022 1540     		ands	r5, r5, r2
 346              	.LVL8:
 347 0024 05FA03F3 		lsl	r3, r5, r3
 348 0028 04FA00F2 		lsl	r2, r4, r0
 349 002c 1343     		orrs	r3, r3, r2
 350 002e 8B61     		str	r3, [r1, #24]
 351 0030 38BD     		pop	{r3, r4, r5, pc}
 352              	.L17:
 353 0032 00BF     		.align	2
 354              	.L16:
 355 0034 00000000 		.word	.LANCHOR1
 356              		.cfi_endproc
 357              	.LFE261:
 358              		.size	palWriteBus, .-palWriteBus
 359 0038 AFF30080 		.section	.text.palSetBusMode,"ax",%progbits
 359      AFF30080 
 360              		.align	2
 361              		.p2align 4,,15
 362              		.global	palSetBusMode
 363              		.thumb
 364              		.thumb_func
 365              		.type	palSetBusMode, %function
 366              	palSetBusMode:
 367              	.LFB262:
 368              		.loc 1 113 0
 369              		.cfi_startproc
 370              		@ args = 0, pretend = 0, frame = 0
 371              		@ frame_needed = 0, uses_anonymous_args = 0
 372              	.LVL9:
 373 0000 70B5     		push	{r4, r5, r6, lr}
 374              		.cfi_def_cfa_offset 16
 375              		.cfi_offset 4, -16
 376              		.cfi_offset 5, -12
 377              		.cfi_offset 6, -8
 378              		.cfi_offset 14, -4
 379              		.loc 1 115 0
 380 0002 0446     		mov	r4, r0
 381              		.loc 1 113 0
 382 0004 0E46     		mov	r6, r1
 383              		.loc 1 115 0
 384 0006 10B1     		cbz	r0, .L19
 385              		.loc 1 115 0 is_stmt 0 discriminator 2
 386 0008 8168     		ldr	r1, [r0, #8]
 387              	.LVL10:
 388 000a 0F29     		cmp	r1, #15
 389 000c 03D9     		bls	.L20
 390              	.L19:
 391              		.loc 1 115 0 discriminator 1
 392 000e 0648     		ldr	r0, .L24
 393              	.LVL11:
 394 0010 FFF7FEFF 		bl	chSysHalt
 395              	.LVL12:
 396 0014 A168     		ldr	r1, [r4, #8]
 397              	.L20:
 398              		.loc 1 117 0 is_stmt 1
 399 0016 94E82100 		ldmia	r4, {r0, r5}
 400 001a 3246     		mov	r2, r6
ARM GAS  /var/folders/c6/c789hm653lg9vtl73krp73tm0000gn/T//ccfdOrSk.s 			page 22


 401 001c 05FA01F1 		lsl	r1, r5, r1
 402              		.loc 1 118 0
 403 0020 BDE87040 		pop	{r4, r5, r6, lr}
 404              	.LVL13:
 405              		.loc 1 117 0
 406 0024 FFF7FEBF 		b	_pal_lld_setgroupmode
 407              	.LVL14:
 408              	.L25:
 409              		.align	2
 410              	.L24:
 411 0028 00000000 		.word	.LANCHOR2
 412              		.cfi_endproc
 413              	.LFE262:
 414              		.size	palSetBusMode, .-palSetBusMode
 415 002c AFF30080 		.section	.rodata.__func__.7810,"a",%progbits
 416              		.align	2
 417              		.set	.LANCHOR2,. + 0
 418              		.type	__func__.7810, %object
 419              		.size	__func__.7810, 14
 420              	__func__.7810:
 421 0000 70616C53 		.ascii	"palSetBusMode\000"
 421      65744275 
 421      734D6F64 
 421      6500
 422 000e 0000     		.section	.rodata.__func__.7800,"a",%progbits
 423              		.align	2
 424              		.set	.LANCHOR0,. + 0
 425              		.type	__func__.7800, %object
 426              		.size	__func__.7800, 11
 427              	__func__.7800:
 428 0000 70616C52 		.ascii	"palReadBus\000"
 428      65616442 
 428      757300
 429 000b 00       		.section	.rodata.__func__.7805,"a",%progbits
 430              		.align	2
 431              		.set	.LANCHOR1,. + 0
 432              		.type	__func__.7805, %object
 433              		.size	__func__.7805, 12
 434              	__func__.7805:
 435 0000 70616C57 		.ascii	"palWriteBus\000"
 435      72697465 
 435      42757300 
 436              		.text
 437              	.Letext0:
 438              		.file 2 "/usr/local/Cellar/gcc-arm-none-eabi/20140805/arm-none-eabi/include/machine/_default_types
 439              		.file 3 "/usr/local/Cellar/gcc-arm-none-eabi/20140805/arm-none-eabi/include/stdint.h"
 440              		.file 4 "../../../os/rt/ports/ARMCMx/compilers/GCC/chtypes.h"
 441              		.file 5 "../../../os/rt/include/chsystypes.h"
 442              		.file 6 "../../../os/rt/include/chschd.h"
 443              		.file 7 "../../../os/rt/ports/ARMCMx/chcore.h"
 444              		.file 8 "../../../os/rt/ports/ARMCMx/chcore_v7m.h"
 445              		.file 9 "../../../os/rt/include/chdebug.h"
 446              		.file 10 "../../../os/rt/include/chtm.h"
 447              		.file 11 "../../../os/rt/include/chstats.h"
 448              		.file 12 "../../../os/rt/include/chsem.h"
 449              		.file 13 "../../../os/rt/include/chmtx.h"
 450              		.file 14 "../../../os/hal/ports/STM32/LLD/GPIOv2/pal_lld.h"
ARM GAS  /var/folders/c6/c789hm653lg9vtl73krp73tm0000gn/T//ccfdOrSk.s 			page 23


 451              		.file 15 "../../../os/hal/include/pal.h"
 452              		.file 16 "../../../os/ext/CMSIS/include/core_cm4.h"
 453              		.file 17 "../../../os/rt/include/chsys.h"
 454              		.section	.debug_info,"",%progbits
 455              	.Ldebug_info0:
 456 0000 A50A0000 		.4byte	0xaa5
 457 0004 0400     		.2byte	0x4
 458 0006 00000000 		.4byte	.Ldebug_abbrev0
 459 000a 04       		.byte	0x4
 460 000b 01       		.uleb128 0x1
 461 000c 00000000 		.4byte	.LASF156
 462 0010 01       		.byte	0x1
 463 0011 C8020000 		.4byte	.LASF157
 464 0015 42030000 		.4byte	.LASF158
 465 0019 00000000 		.4byte	.Ldebug_ranges0+0
 466 001d 00000000 		.4byte	0
 467 0021 00000000 		.4byte	.Ldebug_line0
 468 0025 02       		.uleb128 0x2
 469 0026 04       		.byte	0x4
 470 0027 05       		.byte	0x5
 471 0028 696E7400 		.ascii	"int\000"
 472 002c 03       		.uleb128 0x3
 473 002d 04       		.byte	0x4
 474 002e 07       		.byte	0x7
 475 002f 0A030000 		.4byte	.LASF0
 476 0033 03       		.uleb128 0x3
 477 0034 01       		.byte	0x1
 478 0035 06       		.byte	0x6
 479 0036 15020000 		.4byte	.LASF1
 480 003a 04       		.uleb128 0x4
 481 003b 1F010000 		.4byte	.LASF4
 482 003f 02       		.byte	0x2
 483 0040 1C       		.byte	0x1c
 484 0041 45000000 		.4byte	0x45
 485 0045 03       		.uleb128 0x3
 486 0046 01       		.byte	0x1
 487 0047 08       		.byte	0x8
 488 0048 6F050000 		.4byte	.LASF2
 489 004c 03       		.uleb128 0x3
 490 004d 02       		.byte	0x2
 491 004e 05       		.byte	0x5
 492 004f 87050000 		.4byte	.LASF3
 493 0053 04       		.uleb128 0x4
 494 0054 56060000 		.4byte	.LASF5
 495 0058 02       		.byte	0x2
 496 0059 26       		.byte	0x26
 497 005a 5E000000 		.4byte	0x5e
 498 005e 03       		.uleb128 0x3
 499 005f 02       		.byte	0x2
 500 0060 07       		.byte	0x7
 501 0061 9E030000 		.4byte	.LASF6
 502 0065 04       		.uleb128 0x4
 503 0066 31040000 		.4byte	.LASF7
 504 006a 02       		.byte	0x2
 505 006b 37       		.byte	0x37
 506 006c 70000000 		.4byte	0x70
 507 0070 03       		.uleb128 0x3
ARM GAS  /var/folders/c6/c789hm653lg9vtl73krp73tm0000gn/T//ccfdOrSk.s 			page 24


 508 0071 04       		.byte	0x4
 509 0072 05       		.byte	0x5
 510 0073 42020000 		.4byte	.LASF8
 511 0077 04       		.uleb128 0x4
 512 0078 94060000 		.4byte	.LASF9
 513 007c 02       		.byte	0x2
 514 007d 38       		.byte	0x38
 515 007e 82000000 		.4byte	0x82
 516 0082 03       		.uleb128 0x3
 517 0083 04       		.byte	0x4
 518 0084 07       		.byte	0x7
 519 0085 2F060000 		.4byte	.LASF10
 520 0089 03       		.uleb128 0x3
 521 008a 08       		.byte	0x8
 522 008b 05       		.byte	0x5
 523 008c 07020000 		.4byte	.LASF11
 524 0090 04       		.uleb128 0x4
 525 0091 55040000 		.4byte	.LASF12
 526 0095 02       		.byte	0x2
 527 0096 4E       		.byte	0x4e
 528 0097 9B000000 		.4byte	0x9b
 529 009b 03       		.uleb128 0x3
 530 009c 08       		.byte	0x8
 531 009d 07       		.byte	0x7
 532 009e 88010000 		.4byte	.LASF13
 533 00a2 04       		.uleb128 0x4
 534 00a3 22070000 		.4byte	.LASF14
 535 00a7 03       		.byte	0x3
 536 00a8 2A       		.byte	0x2a
 537 00a9 3A000000 		.4byte	0x3a
 538 00ad 04       		.uleb128 0x4
 539 00ae 5A020000 		.4byte	.LASF15
 540 00b2 03       		.byte	0x3
 541 00b3 36       		.byte	0x36
 542 00b4 53000000 		.4byte	0x53
 543 00b8 04       		.uleb128 0x4
 544 00b9 67050000 		.4byte	.LASF16
 545 00bd 03       		.byte	0x3
 546 00be 41       		.byte	0x41
 547 00bf 65000000 		.4byte	0x65
 548 00c3 04       		.uleb128 0x4
 549 00c4 FE050000 		.4byte	.LASF17
 550 00c8 03       		.byte	0x3
 551 00c9 42       		.byte	0x42
 552 00ca 77000000 		.4byte	0x77
 553 00ce 04       		.uleb128 0x4
 554 00cf 09010000 		.4byte	.LASF18
 555 00d3 03       		.byte	0x3
 556 00d4 4E       		.byte	0x4e
 557 00d5 90000000 		.4byte	0x90
 558 00d9 04       		.uleb128 0x4
 559 00da AE050000 		.4byte	.LASF19
 560 00de 03       		.byte	0x3
 561 00df 60       		.byte	0x60
 562 00e0 2C000000 		.4byte	0x2c
 563 00e4 05       		.uleb128 0x5
 564 00e5 B8000000 		.4byte	0xb8
ARM GAS  /var/folders/c6/c789hm653lg9vtl73krp73tm0000gn/T//ccfdOrSk.s 			page 25


 565 00e9 05       		.uleb128 0x5
 566 00ea C3000000 		.4byte	0xc3
 567 00ee 04       		.uleb128 0x4
 568 00ef D9060000 		.4byte	.LASF20
 569 00f3 04       		.byte	0x4
 570 00f4 45       		.byte	0x45
 571 00f5 C3000000 		.4byte	0xc3
 572 00f9 04       		.uleb128 0x4
 573 00fa F7010000 		.4byte	.LASF21
 574 00fe 04       		.byte	0x4
 575 00ff 46       		.byte	0x46
 576 0100 CE000000 		.4byte	0xce
 577 0104 04       		.uleb128 0x4
 578 0105 F6030000 		.4byte	.LASF22
 579 0109 04       		.byte	0x4
 580 010a 48       		.byte	0x48
 581 010b A2000000 		.4byte	0xa2
 582 010f 04       		.uleb128 0x4
 583 0110 4B020000 		.4byte	.LASF23
 584 0114 04       		.byte	0x4
 585 0115 49       		.byte	0x49
 586 0116 A2000000 		.4byte	0xa2
 587 011a 04       		.uleb128 0x4
 588 011b 27050000 		.4byte	.LASF24
 589 011f 04       		.byte	0x4
 590 0120 4A       		.byte	0x4a
 591 0121 A2000000 		.4byte	0xa2
 592 0125 04       		.uleb128 0x4
 593 0126 50050000 		.4byte	.LASF25
 594 012a 04       		.byte	0x4
 595 012b 4C       		.byte	0x4c
 596 012c C3000000 		.4byte	0xc3
 597 0130 04       		.uleb128 0x4
 598 0131 CA030000 		.4byte	.LASF26
 599 0135 04       		.byte	0x4
 600 0136 4D       		.byte	0x4d
 601 0137 B8000000 		.4byte	0xb8
 602 013b 04       		.uleb128 0x4
 603 013c 25040000 		.4byte	.LASF27
 604 0140 04       		.byte	0x4
 605 0141 4F       		.byte	0x4f
 606 0142 C3000000 		.4byte	0xc3
 607 0146 04       		.uleb128 0x4
 608 0147 F9020000 		.4byte	.LASF28
 609 014b 04       		.byte	0x4
 610 014c 51       		.byte	0x51
 611 014d B8000000 		.4byte	0xb8
 612 0151 04       		.uleb128 0x4
 613 0152 D5030000 		.4byte	.LASF29
 614 0156 04       		.byte	0x4
 615 0157 52       		.byte	0x52
 616 0158 C3000000 		.4byte	0xc3
 617 015c 04       		.uleb128 0x4
 618 015d 76060000 		.4byte	.LASF30
 619 0161 05       		.byte	0x5
 620 0162 33       		.byte	0x33
 621 0163 C3000000 		.4byte	0xc3
ARM GAS  /var/folders/c6/c789hm653lg9vtl73krp73tm0000gn/T//ccfdOrSk.s 			page 26


 622 0167 04       		.uleb128 0x4
 623 0168 61060000 		.4byte	.LASF31
 624 016c 05       		.byte	0x5
 625 016d 3F       		.byte	0x3f
 626 016e 72010000 		.4byte	0x172
 627 0172 06       		.uleb128 0x6
 628 0173 C0030000 		.4byte	.LASF53
 629 0177 60       		.byte	0x60
 630 0178 06       		.byte	0x6
 631 0179 C2       		.byte	0xc2
 632 017a 78020000 		.4byte	0x278
 633 017e 07       		.uleb128 0x7
 634 017f A7050000 		.4byte	.LASF32
 635 0183 06       		.byte	0x6
 636 0184 C3       		.byte	0xc3
 637 0185 83020000 		.4byte	0x283
 638 0189 00       		.byte	0
 639 018a 07       		.uleb128 0x7
 640 018b 49050000 		.4byte	.LASF33
 641 018f 06       		.byte	0x6
 642 0190 C5       		.byte	0xc5
 643 0191 83020000 		.4byte	0x283
 644 0195 04       		.byte	0x4
 645 0196 07       		.uleb128 0x7
 646 0197 00020000 		.4byte	.LASF34
 647 019b 06       		.byte	0x6
 648 019c C7       		.byte	0xc7
 649 019d 25010000 		.4byte	0x125
 650 01a1 08       		.byte	0x8
 651 01a2 07       		.uleb128 0x7
 652 01a3 80070000 		.4byte	.LASF35
 653 01a7 06       		.byte	0x6
 654 01a8 C8       		.byte	0xc8
 655 01a9 EC040000 		.4byte	0x4ec
 656 01ad 0C       		.byte	0xc
 657 01ae 07       		.uleb128 0x7
 658 01af 63020000 		.4byte	.LASF36
 659 01b3 06       		.byte	0x6
 660 01b4 CA       		.byte	0xca
 661 01b5 83020000 		.4byte	0x283
 662 01b9 10       		.byte	0x10
 663 01ba 07       		.uleb128 0x7
 664 01bb BE040000 		.4byte	.LASF37
 665 01bf 06       		.byte	0x6
 666 01c0 CB       		.byte	0xcb
 667 01c1 83020000 		.4byte	0x283
 668 01c5 14       		.byte	0x14
 669 01c6 07       		.uleb128 0x7
 670 01c7 31070000 		.4byte	.LASF38
 671 01cb 06       		.byte	0x6
 672 01cc D2       		.byte	0xd2
 673 01cd 90070000 		.4byte	0x790
 674 01d1 18       		.byte	0x18
 675 01d2 07       		.uleb128 0x7
 676 01d3 FF020000 		.4byte	.LASF39
 677 01d7 06       		.byte	0x6
 678 01d8 D8       		.byte	0xd8
ARM GAS  /var/folders/c6/c789hm653lg9vtl73krp73tm0000gn/T//ccfdOrSk.s 			page 27


 679 01d9 A2070000 		.4byte	0x7a2
 680 01dd 1C       		.byte	0x1c
 681 01de 07       		.uleb128 0x7
 682 01df 91050000 		.4byte	.LASF40
 683 01e3 06       		.byte	0x6
 684 01e4 DD       		.byte	0xdd
 685 01e5 0F010000 		.4byte	0x10f
 686 01e9 20       		.byte	0x20
 687 01ea 07       		.uleb128 0x7
 688 01eb BB050000 		.4byte	.LASF41
 689 01ef 06       		.byte	0x6
 690 01f0 E1       		.byte	0xe1
 691 01f1 04010000 		.4byte	0x104
 692 01f5 21       		.byte	0x21
 693 01f6 07       		.uleb128 0x7
 694 01f7 0D070000 		.4byte	.LASF42
 695 01fb 06       		.byte	0x6
 696 01fc E6       		.byte	0xe6
 697 01fd 1A010000 		.4byte	0x11a
 698 0201 22       		.byte	0x22
 699 0202 08       		.uleb128 0x8
 700 0203 705F7500 		.ascii	"p_u\000"
 701 0207 06       		.byte	0x6
 702 0208 3101     		.2byte	0x131
 703 020a CB060000 		.4byte	0x6cb
 704 020e 24       		.byte	0x24
 705 020f 09       		.uleb128 0x9
 706 0210 60040000 		.4byte	.LASF43
 707 0214 06       		.byte	0x6
 708 0215 3601     		.2byte	0x136
 709 0217 89020000 		.4byte	0x289
 710 021b 28       		.byte	0x28
 711 021c 09       		.uleb128 0x9
 712 021d 26030000 		.4byte	.LASF44
 713 0221 06       		.byte	0x6
 714 0222 3C01     		.2byte	0x13c
 715 0224 AD020000 		.4byte	0x2ad
 716 0228 2C       		.byte	0x2c
 717 0229 09       		.uleb128 0x9
 718 022a 54070000 		.4byte	.LASF45
 719 022e 06       		.byte	0x6
 720 022f 4001     		.2byte	0x140
 721 0231 30010000 		.4byte	0x130
 722 0235 34       		.byte	0x34
 723 0236 09       		.uleb128 0x9
 724 0237 F3050000 		.4byte	.LASF46
 725 023b 06       		.byte	0x6
 726 023c 4601     		.2byte	0x146
 727 023e 3B010000 		.4byte	0x13b
 728 0242 38       		.byte	0x38
 729 0243 09       		.uleb128 0x9
 730 0244 7D050000 		.4byte	.LASF47
 731 0248 06       		.byte	0x6
 732 0249 4D01     		.2byte	0x14d
 733 024b 8A070000 		.4byte	0x78a
 734 024f 3C       		.byte	0x3c
 735 0250 09       		.uleb128 0x9
ARM GAS  /var/folders/c6/c789hm653lg9vtl73krp73tm0000gn/T//ccfdOrSk.s 			page 28


 736 0251 80060000 		.4byte	.LASF48
 737 0255 06       		.byte	0x6
 738 0256 5101     		.2byte	0x151
 739 0258 25010000 		.4byte	0x125
 740 025c 40       		.byte	0x40
 741 025d 09       		.uleb128 0x9
 742 025e 26020000 		.4byte	.LASF49
 743 0262 06       		.byte	0x6
 744 0263 5801     		.2byte	0x158
 745 0265 60030000 		.4byte	0x360
 746 0269 44       		.byte	0x44
 747 026a 09       		.uleb128 0x9
 748 026b C3050000 		.4byte	.LASF50
 749 026f 06       		.byte	0x6
 750 0270 5E01     		.2byte	0x15e
 751 0272 7C060000 		.4byte	0x67c
 752 0276 48       		.byte	0x48
 753 0277 00       		.byte	0
 754 0278 04       		.uleb128 0x4
 755 0279 73040000 		.4byte	.LASF51
 756 027d 05       		.byte	0x5
 757 027e 44       		.byte	0x44
 758 027f 83020000 		.4byte	0x283
 759 0283 0A       		.uleb128 0xa
 760 0284 04       		.byte	0x4
 761 0285 67010000 		.4byte	0x167
 762 0289 04       		.uleb128 0x4
 763 028a 38070000 		.4byte	.LASF52
 764 028e 05       		.byte	0x5
 765 028f 49       		.byte	0x49
 766 0290 94020000 		.4byte	0x294
 767 0294 06       		.uleb128 0x6
 768 0295 1F060000 		.4byte	.LASF54
 769 0299 04       		.byte	0x4
 770 029a 06       		.byte	0x6
 771 029b B0       		.byte	0xb0
 772 029c AD020000 		.4byte	0x2ad
 773 02a0 07       		.uleb128 0x7
 774 02a1 A7050000 		.4byte	.LASF32
 775 02a5 06       		.byte	0x6
 776 02a6 B1       		.byte	0xb1
 777 02a7 83020000 		.4byte	0x283
 778 02ab 00       		.byte	0
 779 02ac 00       		.byte	0
 780 02ad 04       		.uleb128 0x4
 781 02ae F4060000 		.4byte	.LASF55
 782 02b2 05       		.byte	0x5
 783 02b3 50       		.byte	0x50
 784 02b4 B8020000 		.4byte	0x2b8
 785 02b8 06       		.uleb128 0x6
 786 02b9 3C010000 		.4byte	.LASF56
 787 02bd 08       		.byte	0x8
 788 02be 06       		.byte	0x6
 789 02bf B7       		.byte	0xb7
 790 02c0 DD020000 		.4byte	0x2dd
 791 02c4 07       		.uleb128 0x7
 792 02c5 A7050000 		.4byte	.LASF32
ARM GAS  /var/folders/c6/c789hm653lg9vtl73krp73tm0000gn/T//ccfdOrSk.s 			page 29


 793 02c9 06       		.byte	0x6
 794 02ca B8       		.byte	0xb8
 795 02cb 83020000 		.4byte	0x283
 796 02cf 00       		.byte	0
 797 02d0 07       		.uleb128 0x7
 798 02d1 49050000 		.4byte	.LASF33
 799 02d5 06       		.byte	0x6
 800 02d6 B9       		.byte	0xb9
 801 02d7 83020000 		.4byte	0x283
 802 02db 04       		.byte	0x4
 803 02dc 00       		.byte	0
 804 02dd 04       		.uleb128 0x4
 805 02de E7000000 		.4byte	.LASF57
 806 02e2 05       		.byte	0x5
 807 02e3 57       		.byte	0x57
 808 02e4 E8020000 		.4byte	0x2e8
 809 02e8 0B       		.uleb128 0xb
 810 02e9 17040000 		.4byte	.LASF58
 811 02ed 1C       		.byte	0x1c
 812 02ee 06       		.byte	0x6
 813 02ef 9001     		.2byte	0x190
 814 02f1 44030000 		.4byte	0x344
 815 02f5 09       		.uleb128 0x9
 816 02f6 0E060000 		.4byte	.LASF59
 817 02fa 06       		.byte	0x6
 818 02fb 9101     		.2byte	0x191
 819 02fd AD020000 		.4byte	0x2ad
 820 0301 00       		.byte	0
 821 0302 09       		.uleb128 0x9
 822 0303 99050000 		.4byte	.LASF60
 823 0307 06       		.byte	0x6
 824 0308 9201     		.2byte	0x192
 825 030a 25010000 		.4byte	0x125
 826 030e 08       		.byte	0x8
 827 030f 09       		.uleb128 0x9
 828 0310 C6040000 		.4byte	.LASF61
 829 0314 06       		.byte	0x6
 830 0315 9401     		.2byte	0x194
 831 0317 EC040000 		.4byte	0x4ec
 832 031b 0C       		.byte	0xc
 833 031c 09       		.uleb128 0x9
 834 031d 83020000 		.4byte	.LASF62
 835 0321 06       		.byte	0x6
 836 0322 9701     		.2byte	0x197
 837 0324 83020000 		.4byte	0x283
 838 0328 10       		.byte	0x10
 839 0329 09       		.uleb128 0x9
 840 032a F5040000 		.4byte	.LASF63
 841 032e 06       		.byte	0x6
 842 032f 9801     		.2byte	0x198
 843 0331 83020000 		.4byte	0x283
 844 0335 14       		.byte	0x14
 845 0336 09       		.uleb128 0x9
 846 0337 EB040000 		.4byte	.LASF64
 847 033b 06       		.byte	0x6
 848 033c 9B01     		.2byte	0x19b
 849 033e 83020000 		.4byte	0x283
ARM GAS  /var/folders/c6/c789hm653lg9vtl73krp73tm0000gn/T//ccfdOrSk.s 			page 30


 850 0342 18       		.byte	0x18
 851 0343 00       		.byte	0
 852 0344 04       		.uleb128 0x4
 853 0345 8B060000 		.4byte	.LASF65
 854 0349 05       		.byte	0x5
 855 034a 5C       		.byte	0x5c
 856 034b 4F030000 		.4byte	0x34f
 857 034f 0A       		.uleb128 0xa
 858 0350 04       		.byte	0x4
 859 0351 55030000 		.4byte	0x355
 860 0355 0C       		.uleb128 0xc
 861 0356 60030000 		.4byte	0x360
 862 035a 0D       		.uleb128 0xd
 863 035b 60030000 		.4byte	0x360
 864 035f 00       		.byte	0
 865 0360 0E       		.uleb128 0xe
 866 0361 04       		.byte	0x4
 867 0362 04       		.uleb128 0x4
 868 0363 39050000 		.4byte	.LASF66
 869 0367 05       		.byte	0x5
 870 0368 61       		.byte	0x61
 871 0369 6D030000 		.4byte	0x36d
 872 036d 0B       		.uleb128 0xb
 873 036e D5050000 		.4byte	.LASF67
 874 0372 14       		.byte	0x14
 875 0373 06       		.byte	0x6
 876 0374 6B01     		.2byte	0x16b
 877 0376 BC030000 		.4byte	0x3bc
 878 037a 09       		.uleb128 0x9
 879 037b 17030000 		.4byte	.LASF68
 880 037f 06       		.byte	0x6
 881 0380 6C01     		.2byte	0x16c
 882 0382 A8070000 		.4byte	0x7a8
 883 0386 00       		.byte	0
 884 0387 09       		.uleb128 0x9
 885 0388 99020000 		.4byte	.LASF69
 886 038c 06       		.byte	0x6
 887 038d 6D01     		.2byte	0x16d
 888 038f A8070000 		.4byte	0x7a8
 889 0393 04       		.byte	0x4
 890 0394 09       		.uleb128 0x9
 891 0395 16060000 		.4byte	.LASF70
 892 0399 06       		.byte	0x6
 893 039a 6E01     		.2byte	0x16e
 894 039c 5C010000 		.4byte	0x15c
 895 03a0 08       		.byte	0x8
 896 03a1 09       		.uleb128 0x9
 897 03a2 86070000 		.4byte	.LASF71
 898 03a6 06       		.byte	0x6
 899 03a7 6F01     		.2byte	0x16f
 900 03a9 44030000 		.4byte	0x344
 901 03ad 0C       		.byte	0xc
 902 03ae 09       		.uleb128 0x9
 903 03af E1060000 		.4byte	.LASF72
 904 03b3 06       		.byte	0x6
 905 03b4 7101     		.2byte	0x171
 906 03b6 60030000 		.4byte	0x360
ARM GAS  /var/folders/c6/c789hm653lg9vtl73krp73tm0000gn/T//ccfdOrSk.s 			page 31


 907 03ba 10       		.byte	0x10
 908 03bb 00       		.byte	0
 909 03bc 04       		.uleb128 0x4
 910 03bd D4010000 		.4byte	.LASF73
 911 03c1 05       		.byte	0x5
 912 03c2 66       		.byte	0x66
 913 03c3 C7030000 		.4byte	0x3c7
 914 03c7 0B       		.uleb128 0xb
 915 03c8 86040000 		.4byte	.LASF74
 916 03cc 10       		.byte	0x10
 917 03cd 06       		.byte	0x6
 918 03ce 7B01     		.2byte	0x17b
 919 03d0 09040000 		.4byte	0x409
 920 03d4 09       		.uleb128 0x9
 921 03d5 17030000 		.4byte	.LASF68
 922 03d9 06       		.byte	0x6
 923 03da 7C01     		.2byte	0x17c
 924 03dc A8070000 		.4byte	0x7a8
 925 03e0 00       		.byte	0
 926 03e1 09       		.uleb128 0x9
 927 03e2 99020000 		.4byte	.LASF69
 928 03e6 06       		.byte	0x6
 929 03e7 7E01     		.2byte	0x17e
 930 03e9 A8070000 		.4byte	0x7a8
 931 03ed 04       		.byte	0x4
 932 03ee 09       		.uleb128 0x9
 933 03ef 16060000 		.4byte	.LASF70
 934 03f3 06       		.byte	0x6
 935 03f4 8001     		.2byte	0x180
 936 03f6 5C010000 		.4byte	0x15c
 937 03fa 08       		.byte	0x8
 938 03fb 09       		.uleb128 0x9
 939 03fc B2040000 		.4byte	.LASF75
 940 0400 06       		.byte	0x6
 941 0401 8801     		.2byte	0x188
 942 0403 5C010000 		.4byte	0x15c
 943 0407 0C       		.byte	0xc
 944 0408 00       		.byte	0
 945 0409 04       		.uleb128 0x4
 946 040a 4D010000 		.4byte	.LASF76
 947 040e 05       		.byte	0x5
 948 040f 6B       		.byte	0x6b
 949 0410 14040000 		.4byte	0x414
 950 0414 0F       		.uleb128 0xf
 951 0415 AB020000 		.4byte	.LASF77
 952 0419 1404     		.2byte	0x414
 953 041b 06       		.byte	0x6
 954 041c A201     		.2byte	0x1a2
 955 041e 57040000 		.4byte	0x457
 956 0422 09       		.uleb128 0x9
 957 0423 9F060000 		.4byte	.LASF78
 958 0427 06       		.byte	0x6
 959 0428 AA01     		.2byte	0x1aa
 960 042a AE070000 		.4byte	0x7ae
 961 042e 00       		.byte	0
 962 042f 09       		.uleb128 0x9
 963 0430 14070000 		.4byte	.LASF79
ARM GAS  /var/folders/c6/c789hm653lg9vtl73krp73tm0000gn/T//ccfdOrSk.s 			page 32


 964 0434 06       		.byte	0x6
 965 0435 AF01     		.2byte	0x1af
 966 0437 46010000 		.4byte	0x146
 967 043b 04       		.byte	0x4
 968 043c 09       		.uleb128 0x9
 969 043d EA020000 		.4byte	.LASF80
 970 0441 06       		.byte	0x6
 971 0442 B301     		.2byte	0x1b3
 972 0444 46010000 		.4byte	0x146
 973 0448 08       		.byte	0x8
 974 0449 09       		.uleb128 0x9
 975 044a 47070000 		.4byte	.LASF81
 976 044e 06       		.byte	0x6
 977 044f B901     		.2byte	0x1b9
 978 0451 0E060000 		.4byte	0x60e
 979 0455 0C       		.byte	0xc
 980 0456 00       		.byte	0
 981 0457 04       		.uleb128 0x4
 982 0458 DC030000 		.4byte	.LASF82
 983 045c 05       		.byte	0x5
 984 045d 70       		.byte	0x70
 985 045e 62040000 		.4byte	0x462
 986 0462 0F       		.uleb128 0xf
 987 0463 CB050000 		.4byte	.LASF83
 988 0467 D805     		.2byte	0x5d8
 989 0469 06       		.byte	0x6
 990 046a C201     		.2byte	0x1c2
 991 046c CF040000 		.4byte	0x4cf
 992 0470 09       		.uleb128 0x9
 993 0471 1C070000 		.4byte	.LASF84
 994 0475 06       		.byte	0x6
 995 0476 C601     		.2byte	0x1c6
 996 0478 DD020000 		.4byte	0x2dd
 997 047c 00       		.byte	0
 998 047d 09       		.uleb128 0x9
 999 047e 36020000 		.4byte	.LASF85
 1000 0482 06       		.byte	0x6
 1001 0483 CA01     		.2byte	0x1ca
 1002 0485 BC030000 		.4byte	0x3bc
 1003 0489 1C       		.byte	0x1c
 1004 048a 08       		.uleb128 0x8
 1005 048b 64626700 		.ascii	"dbg\000"
 1006 048f 06       		.byte	0x6
 1007 0490 CE01     		.2byte	0x1ce
 1008 0492 09040000 		.4byte	0x409
 1009 0496 2C       		.byte	0x2c
 1010 0497 10       		.uleb128 0x10
 1011 0498 C9010000 		.4byte	.LASF86
 1012 049c 06       		.byte	0x6
 1013 049d D201     		.2byte	0x1d2
 1014 049f 67010000 		.4byte	0x167
 1015 04a3 4004     		.2byte	0x440
 1016 04a5 11       		.uleb128 0x11
 1017 04a6 746D00   		.ascii	"tm\000"
 1018 04a9 06       		.byte	0x6
 1019 04aa D701     		.2byte	0x1d7
 1020 04ac 2E060000 		.4byte	0x62e
ARM GAS  /var/folders/c6/c789hm653lg9vtl73krp73tm0000gn/T//ccfdOrSk.s 			page 33


 1021 04b0 A004     		.2byte	0x4a0
 1022 04b2 10       		.uleb128 0x10
 1023 04b3 12010000 		.4byte	.LASF87
 1024 04b7 06       		.byte	0x6
 1025 04b8 DD01     		.2byte	0x1dd
 1026 04ba C0060000 		.4byte	0x6c0
 1027 04be A804     		.2byte	0x4a8
 1028 04c0 10       		.uleb128 0x10
 1029 04c1 3B040000 		.4byte	.LASF88
 1030 04c5 06       		.byte	0x6
 1031 04c6 E301     		.2byte	0x1e3
 1032 04c8 B3070000 		.4byte	0x7b3
 1033 04cc E004     		.2byte	0x4e0
 1034 04ce 00       		.byte	0
 1035 04cf 03       		.uleb128 0x3
 1036 04d0 04       		.byte	0x4
 1037 04d1 07       		.byte	0x7
 1038 04d2 6A040000 		.4byte	.LASF89
 1039 04d6 04       		.uleb128 0x4
 1040 04d7 90020000 		.4byte	.LASF90
 1041 04db 07       		.byte	0x7
 1042 04dc 65       		.byte	0x65
 1043 04dd 60030000 		.4byte	0x360
 1044 04e1 04       		.uleb128 0x4
 1045 04e2 4A040000 		.4byte	.LASF91
 1046 04e6 07       		.byte	0x7
 1047 04e7 6D       		.byte	0x6d
 1048 04e8 CE000000 		.4byte	0xce
 1049 04ec 06       		.uleb128 0x6
 1050 04ed BB060000 		.4byte	.LASF92
 1051 04f1 04       		.byte	0x4
 1052 04f2 07       		.byte	0x7
 1053 04f3 89       		.byte	0x89
 1054 04f4 05050000 		.4byte	0x505
 1055 04f8 12       		.uleb128 0x12
 1056 04f9 72313300 		.ascii	"r13\000"
 1057 04fd 07       		.byte	0x7
 1058 04fe 8A       		.byte	0x8a
 1059 04ff 80050000 		.4byte	0x580
 1060 0503 00       		.byte	0
 1061 0504 00       		.byte	0
 1062 0505 06       		.uleb128 0x6
 1063 0506 30010000 		.4byte	.LASF93
 1064 050a 24       		.byte	0x24
 1065 050b 08       		.byte	0x8
 1066 050c F4       		.byte	0xf4
 1067 050d 80050000 		.4byte	0x580
 1068 0511 08       		.uleb128 0x8
 1069 0512 723400   		.ascii	"r4\000"
 1070 0515 08       		.byte	0x8
 1071 0516 0701     		.2byte	0x107
 1072 0518 D6040000 		.4byte	0x4d6
 1073 051c 00       		.byte	0
 1074 051d 08       		.uleb128 0x8
 1075 051e 723500   		.ascii	"r5\000"
 1076 0521 08       		.byte	0x8
 1077 0522 0801     		.2byte	0x108
ARM GAS  /var/folders/c6/c789hm653lg9vtl73krp73tm0000gn/T//ccfdOrSk.s 			page 34


 1078 0524 D6040000 		.4byte	0x4d6
 1079 0528 04       		.byte	0x4
 1080 0529 08       		.uleb128 0x8
 1081 052a 723600   		.ascii	"r6\000"
 1082 052d 08       		.byte	0x8
 1083 052e 0901     		.2byte	0x109
 1084 0530 D6040000 		.4byte	0x4d6
 1085 0534 08       		.byte	0x8
 1086 0535 08       		.uleb128 0x8
 1087 0536 723700   		.ascii	"r7\000"
 1088 0539 08       		.byte	0x8
 1089 053a 0A01     		.2byte	0x10a
 1090 053c D6040000 		.4byte	0x4d6
 1091 0540 0C       		.byte	0xc
 1092 0541 08       		.uleb128 0x8
 1093 0542 723800   		.ascii	"r8\000"
 1094 0545 08       		.byte	0x8
 1095 0546 0B01     		.2byte	0x10b
 1096 0548 D6040000 		.4byte	0x4d6
 1097 054c 10       		.byte	0x10
 1098 054d 08       		.uleb128 0x8
 1099 054e 723900   		.ascii	"r9\000"
 1100 0551 08       		.byte	0x8
 1101 0552 0C01     		.2byte	0x10c
 1102 0554 D6040000 		.4byte	0x4d6
 1103 0558 14       		.byte	0x14
 1104 0559 08       		.uleb128 0x8
 1105 055a 72313000 		.ascii	"r10\000"
 1106 055e 08       		.byte	0x8
 1107 055f 0D01     		.2byte	0x10d
 1108 0561 D6040000 		.4byte	0x4d6
 1109 0565 18       		.byte	0x18
 1110 0566 08       		.uleb128 0x8
 1111 0567 72313100 		.ascii	"r11\000"
 1112 056b 08       		.byte	0x8
 1113 056c 0E01     		.2byte	0x10e
 1114 056e D6040000 		.4byte	0x4d6
 1115 0572 1C       		.byte	0x1c
 1116 0573 08       		.uleb128 0x8
 1117 0574 6C7200   		.ascii	"lr\000"
 1118 0577 08       		.byte	0x8
 1119 0578 0F01     		.2byte	0x10f
 1120 057a D6040000 		.4byte	0x4d6
 1121 057e 20       		.byte	0x20
 1122 057f 00       		.byte	0
 1123 0580 0A       		.uleb128 0xa
 1124 0581 04       		.byte	0x4
 1125 0582 05050000 		.4byte	0x505
 1126 0586 13       		.uleb128 0x13
 1127 0587 10       		.byte	0x10
 1128 0588 09       		.byte	0x9
 1129 0589 51       		.byte	0x51
 1130 058a BF050000 		.4byte	0x5bf
 1131 058e 07       		.uleb128 0x7
 1132 058f F4000000 		.4byte	.LASF94
 1133 0593 09       		.byte	0x9
 1134 0594 55       		.byte	0x55
ARM GAS  /var/folders/c6/c789hm653lg9vtl73krp73tm0000gn/T//ccfdOrSk.s 			page 35


 1135 0595 5C010000 		.4byte	0x15c
 1136 0599 00       		.byte	0
 1137 059a 07       		.uleb128 0x7
 1138 059b 54020000 		.4byte	.LASF95
 1139 059f 09       		.byte	0x9
 1140 05a0 59       		.byte	0x59
 1141 05a1 83020000 		.4byte	0x283
 1142 05a5 04       		.byte	0x4
 1143 05a6 07       		.uleb128 0x7
 1144 05a7 76070000 		.4byte	.LASF96
 1145 05ab 09       		.byte	0x9
 1146 05ac 5D       		.byte	0x5d
 1147 05ad 60030000 		.4byte	0x360
 1148 05b1 08       		.byte	0x8
 1149 05b2 07       		.uleb128 0x7
 1150 05b3 B1010000 		.4byte	.LASF97
 1151 05b7 09       		.byte	0x9
 1152 05b8 61       		.byte	0x61
 1153 05b9 A2000000 		.4byte	0xa2
 1154 05bd 0C       		.byte	0xc
 1155 05be 00       		.byte	0
 1156 05bf 04       		.uleb128 0x4
 1157 05c0 A3040000 		.4byte	.LASF98
 1158 05c4 09       		.byte	0x9
 1159 05c5 62       		.byte	0x62
 1160 05c6 86050000 		.4byte	0x586
 1161 05ca 14       		.uleb128 0x14
 1162 05cb 0804     		.2byte	0x408
 1163 05cd 09       		.byte	0x9
 1164 05ce 67       		.byte	0x67
 1165 05cf F8050000 		.4byte	0x5f8
 1166 05d3 07       		.uleb128 0x7
 1167 05d4 73020000 		.4byte	.LASF99
 1168 05d8 09       		.byte	0x9
 1169 05d9 6B       		.byte	0x6b
 1170 05da 2C000000 		.4byte	0x2c
 1171 05de 00       		.byte	0
 1172 05df 07       		.uleb128 0x7
 1173 05e0 E0000000 		.4byte	.LASF100
 1174 05e4 09       		.byte	0x9
 1175 05e5 6F       		.byte	0x6f
 1176 05e6 F8050000 		.4byte	0x5f8
 1177 05ea 04       		.byte	0x4
 1178 05eb 07       		.uleb128 0x7
 1179 05ec 2F050000 		.4byte	.LASF101
 1180 05f0 09       		.byte	0x9
 1181 05f1 73       		.byte	0x73
 1182 05f2 FE050000 		.4byte	0x5fe
 1183 05f6 08       		.byte	0x8
 1184 05f7 00       		.byte	0
 1185 05f8 0A       		.uleb128 0xa
 1186 05f9 04       		.byte	0x4
 1187 05fa BF050000 		.4byte	0x5bf
 1188 05fe 15       		.uleb128 0x15
 1189 05ff BF050000 		.4byte	0x5bf
 1190 0603 0E060000 		.4byte	0x60e
 1191 0607 16       		.uleb128 0x16
ARM GAS  /var/folders/c6/c789hm653lg9vtl73krp73tm0000gn/T//ccfdOrSk.s 			page 36


 1192 0608 CF040000 		.4byte	0x4cf
 1193 060c 3F       		.byte	0x3f
 1194 060d 00       		.byte	0
 1195 060e 04       		.uleb128 0x4
 1196 060f 9F010000 		.4byte	.LASF102
 1197 0613 09       		.byte	0x9
 1198 0614 74       		.byte	0x74
 1199 0615 CA050000 		.4byte	0x5ca
 1200 0619 13       		.uleb128 0x13
 1201 061a 04       		.byte	0x4
 1202 061b 0A       		.byte	0xa
 1203 061c 38       		.byte	0x38
 1204 061d 2E060000 		.4byte	0x62e
 1205 0621 07       		.uleb128 0x7
 1206 0622 A9060000 		.4byte	.LASF103
 1207 0626 0A       		.byte	0xa
 1208 0627 3C       		.byte	0x3c
 1209 0628 EE000000 		.4byte	0xee
 1210 062c 00       		.byte	0
 1211 062d 00       		.byte	0
 1212 062e 04       		.uleb128 0x4
 1213 062f DA040000 		.4byte	.LASF104
 1214 0633 0A       		.byte	0xa
 1215 0634 3D       		.byte	0x3d
 1216 0635 19060000 		.4byte	0x619
 1217 0639 13       		.uleb128 0x13
 1218 063a 18       		.byte	0x18
 1219 063b 0A       		.byte	0xa
 1220 063c 48       		.byte	0x48
 1221 063d 7C060000 		.4byte	0x67c
 1222 0641 07       		.uleb128 0x7
 1223 0642 6A060000 		.4byte	.LASF105
 1224 0646 0A       		.byte	0xa
 1225 0647 49       		.byte	0x49
 1226 0648 EE000000 		.4byte	0xee
 1227 064c 00       		.byte	0
 1228 064d 07       		.uleb128 0x7
 1229 064e 69010000 		.4byte	.LASF106
 1230 0652 0A       		.byte	0xa
 1231 0653 4A       		.byte	0x4a
 1232 0654 EE000000 		.4byte	0xee
 1233 0658 04       		.byte	0x4
 1234 0659 07       		.uleb128 0x7
 1235 065a D0030000 		.4byte	.LASF107
 1236 065e 0A       		.byte	0xa
 1237 065f 4B       		.byte	0x4b
 1238 0660 EE000000 		.4byte	0xee
 1239 0664 08       		.byte	0x8
 1240 0665 12       		.uleb128 0x12
 1241 0666 6E00     		.ascii	"n\000"
 1242 0668 0A       		.byte	0xa
 1243 0669 4C       		.byte	0x4c
 1244 066a 51010000 		.4byte	0x151
 1245 066e 0C       		.byte	0xc
 1246 066f 07       		.uleb128 0x7
 1247 0670 09050000 		.4byte	.LASF108
 1248 0674 0A       		.byte	0xa
ARM GAS  /var/folders/c6/c789hm653lg9vtl73krp73tm0000gn/T//ccfdOrSk.s 			page 37


 1249 0675 4D       		.byte	0x4d
 1250 0676 F9000000 		.4byte	0xf9
 1251 067a 10       		.byte	0x10
 1252 067b 00       		.byte	0
 1253 067c 04       		.uleb128 0x4
 1254 067d 6F010000 		.4byte	.LASF109
 1255 0681 0A       		.byte	0xa
 1256 0682 4E       		.byte	0x4e
 1257 0683 39060000 		.4byte	0x639
 1258 0687 13       		.uleb128 0x13
 1259 0688 38       		.byte	0x38
 1260 0689 0B       		.byte	0xb
 1261 068a 38       		.byte	0x38
 1262 068b C0060000 		.4byte	0x6c0
 1263 068f 07       		.uleb128 0x7
 1264 0690 36030000 		.4byte	.LASF110
 1265 0694 0B       		.byte	0xb
 1266 0695 39       		.byte	0x39
 1267 0696 51010000 		.4byte	0x151
 1268 069a 00       		.byte	0
 1269 069b 07       		.uleb128 0x7
 1270 069c 58050000 		.4byte	.LASF111
 1271 06a0 0B       		.byte	0xb
 1272 06a1 3A       		.byte	0x3a
 1273 06a2 51010000 		.4byte	0x151
 1274 06a6 04       		.byte	0x4
 1275 06a7 07       		.uleb128 0x7
 1276 06a8 63070000 		.4byte	.LASF112
 1277 06ac 0B       		.byte	0xb
 1278 06ad 3B       		.byte	0x3b
 1279 06ae 7C060000 		.4byte	0x67c
 1280 06b2 08       		.byte	0x8
 1281 06b3 07       		.uleb128 0x7
 1282 06b4 0C040000 		.4byte	.LASF113
 1283 06b8 0B       		.byte	0xb
 1284 06b9 3D       		.byte	0x3d
 1285 06ba 7C060000 		.4byte	0x67c
 1286 06be 20       		.byte	0x20
 1287 06bf 00       		.byte	0
 1288 06c0 04       		.uleb128 0x4
 1289 06c1 B1030000 		.4byte	.LASF114
 1290 06c5 0B       		.byte	0xb
 1291 06c6 3F       		.byte	0x3f
 1292 06c7 87060000 		.4byte	0x687
 1293 06cb 17       		.uleb128 0x17
 1294 06cc 04       		.byte	0x4
 1295 06cd 06       		.byte	0x6
 1296 06ce FA       		.byte	0xfa
 1297 06cf 28070000 		.4byte	0x728
 1298 06d3 18       		.uleb128 0x18
 1299 06d4 02010000 		.4byte	.LASF115
 1300 06d8 06       		.byte	0x6
 1301 06d9 0101     		.2byte	0x101
 1302 06db 30010000 		.4byte	0x130
 1303 06df 18       		.uleb128 0x18
 1304 06e0 C0010000 		.4byte	.LASF116
 1305 06e4 06       		.byte	0x6
ARM GAS  /var/folders/c6/c789hm653lg9vtl73krp73tm0000gn/T//ccfdOrSk.s 			page 38


 1306 06e5 0801     		.2byte	0x108
 1307 06e7 30010000 		.4byte	0x130
 1308 06eb 18       		.uleb128 0x18
 1309 06ec 2A070000 		.4byte	.LASF117
 1310 06f0 06       		.byte	0x6
 1311 06f1 0F01     		.2byte	0x10f
 1312 06f3 60030000 		.4byte	0x360
 1313 06f7 18       		.uleb128 0x18
 1314 06f8 FC000000 		.4byte	.LASF118
 1315 06fc 06       		.byte	0x6
 1316 06fd 1601     		.2byte	0x116
 1317 06ff 28070000 		.4byte	0x728
 1318 0703 18       		.uleb128 0x18
 1319 0704 1F030000 		.4byte	.LASF119
 1320 0708 06       		.byte	0x6
 1321 0709 1E01     		.2byte	0x11e
 1322 070b 53070000 		.4byte	0x753
 1323 070f 18       		.uleb128 0x18
 1324 0710 07060000 		.4byte	.LASF120
 1325 0714 06       		.byte	0x6
 1326 0715 2701     		.2byte	0x127
 1327 0717 8A070000 		.4byte	0x78a
 1328 071b 18       		.uleb128 0x18
 1329 071c A0050000 		.4byte	.LASF121
 1330 0720 06       		.byte	0x6
 1331 0721 2F01     		.2byte	0x12f
 1332 0723 3B010000 		.4byte	0x13b
 1333 0727 00       		.byte	0
 1334 0728 0A       		.uleb128 0xa
 1335 0729 04       		.byte	0x4
 1336 072a 78020000 		.4byte	0x278
 1337 072e 06       		.uleb128 0x6
 1338 072f E6050000 		.4byte	.LASF122
 1339 0733 0C       		.byte	0xc
 1340 0734 0C       		.byte	0xc
 1341 0735 34       		.byte	0x34
 1342 0736 53070000 		.4byte	0x753
 1343 073a 07       		.uleb128 0x7
 1344 073b 6B020000 		.4byte	.LASF123
 1345 073f 0C       		.byte	0xc
 1346 0740 35       		.byte	0x35
 1347 0741 AD020000 		.4byte	0x2ad
 1348 0745 00       		.byte	0
 1349 0746 07       		.uleb128 0x7
 1350 0747 3C030000 		.4byte	.LASF124
 1351 074b 0C       		.byte	0xc
 1352 074c 37       		.byte	0x37
 1353 074d 46010000 		.4byte	0x146
 1354 0751 08       		.byte	0x8
 1355 0752 00       		.byte	0
 1356 0753 0A       		.uleb128 0xa
 1357 0754 04       		.byte	0x4
 1358 0755 2E070000 		.4byte	0x72e
 1359 0759 06       		.uleb128 0x6
 1360 075a 04070000 		.4byte	.LASF125
 1361 075e 10       		.byte	0x10
 1362 075f 0D       		.byte	0xd
ARM GAS  /var/folders/c6/c789hm653lg9vtl73krp73tm0000gn/T//ccfdOrSk.s 			page 39


 1363 0760 39       		.byte	0x39
 1364 0761 8A070000 		.4byte	0x78a
 1365 0765 07       		.uleb128 0x7
 1366 0766 2E020000 		.4byte	.LASF126
 1367 076a 0D       		.byte	0xd
 1368 076b 3A       		.byte	0x3a
 1369 076c AD020000 		.4byte	0x2ad
 1370 0770 00       		.byte	0
 1371 0771 07       		.uleb128 0x7
 1372 0772 6E070000 		.4byte	.LASF127
 1373 0776 0D       		.byte	0xd
 1374 0777 3C       		.byte	0x3c
 1375 0778 83020000 		.4byte	0x283
 1376 077c 08       		.byte	0x8
 1377 077d 07       		.uleb128 0x7
 1378 077e 6F060000 		.4byte	.LASF128
 1379 0782 0D       		.byte	0xd
 1380 0783 3E       		.byte	0x3e
 1381 0784 CE070000 		.4byte	0x7ce
 1382 0788 0C       		.byte	0xc
 1383 0789 00       		.byte	0
 1384 078a 0A       		.uleb128 0xa
 1385 078b 04       		.byte	0x4
 1386 078c 59070000 		.4byte	0x759
 1387 0790 0A       		.uleb128 0xa
 1388 0791 04       		.byte	0x4
 1389 0792 96070000 		.4byte	0x796
 1390 0796 19       		.uleb128 0x19
 1391 0797 9B070000 		.4byte	0x79b
 1392 079b 03       		.uleb128 0x3
 1393 079c 01       		.byte	0x1
 1394 079d 08       		.byte	0x8
 1395 079e 41060000 		.4byte	.LASF129
 1396 07a2 0A       		.uleb128 0xa
 1397 07a3 04       		.byte	0x4
 1398 07a4 E1040000 		.4byte	0x4e1
 1399 07a8 0A       		.uleb128 0xa
 1400 07a9 04       		.byte	0x4
 1401 07aa 62030000 		.4byte	0x362
 1402 07ae 05       		.uleb128 0x5
 1403 07af 90070000 		.4byte	0x790
 1404 07b3 15       		.uleb128 0x15
 1405 07b4 E1040000 		.4byte	0x4e1
 1406 07b8 C3070000 		.4byte	0x7c3
 1407 07bc 16       		.uleb128 0x16
 1408 07bd CF040000 		.4byte	0x4cf
 1409 07c1 1E       		.byte	0x1e
 1410 07c2 00       		.byte	0
 1411 07c3 04       		.uleb128 0x4
 1412 07c4 E2020000 		.4byte	.LASF130
 1413 07c8 0D       		.byte	0xd
 1414 07c9 34       		.byte	0x34
 1415 07ca 59070000 		.4byte	0x759
 1416 07ce 0A       		.uleb128 0xa
 1417 07cf 04       		.byte	0x4
 1418 07d0 C3070000 		.4byte	0x7c3
 1419 07d4 03       		.uleb128 0x3
ARM GAS  /var/folders/c6/c789hm653lg9vtl73krp73tm0000gn/T//ccfdOrSk.s 			page 40


 1420 07d5 01       		.byte	0x1
 1421 07d6 02       		.byte	0x2
 1422 07d7 61050000 		.4byte	.LASF131
 1423 07db 13       		.uleb128 0x13
 1424 07dc 04       		.byte	0x4
 1425 07dd 0E       		.byte	0xe
 1426 07de B3       		.byte	0xb3
 1427 07df FC070000 		.4byte	0x7fc
 1428 07e3 12       		.uleb128 0x12
 1429 07e4 73657400 		.ascii	"set\000"
 1430 07e8 0E       		.byte	0xe
 1431 07e9 B4       		.byte	0xb4
 1432 07ea AD000000 		.4byte	0xad
 1433 07ee 00       		.byte	0
 1434 07ef 07       		.uleb128 0x7
 1435 07f0 9D040000 		.4byte	.LASF132
 1436 07f4 0E       		.byte	0xe
 1437 07f5 B5       		.byte	0xb5
 1438 07f6 AD000000 		.4byte	0xad
 1439 07fa 02       		.byte	0x2
 1440 07fb 00       		.byte	0
 1441 07fc 17       		.uleb128 0x17
 1442 07fd 04       		.byte	0x4
 1443 07fe 0E       		.byte	0xe
 1444 07ff B1       		.byte	0xb1
 1445 0800 17080000 		.4byte	0x817
 1446 0804 1A       		.uleb128 0x1a
 1447 0805 5700     		.ascii	"W\000"
 1448 0807 0E       		.byte	0xe
 1449 0808 B2       		.byte	0xb2
 1450 0809 C3000000 		.4byte	0xc3
 1451 080d 1A       		.uleb128 0x1a
 1452 080e 4800     		.ascii	"H\000"
 1453 0810 0E       		.byte	0xe
 1454 0811 B6       		.byte	0xb6
 1455 0812 DB070000 		.4byte	0x7db
 1456 0816 00       		.byte	0
 1457 0817 13       		.uleb128 0x13
 1458 0818 2C       		.byte	0x2c
 1459 0819 0E       		.byte	0xe
 1460 081a A9       		.byte	0xa9
 1461 081b A4080000 		.4byte	0x8a4
 1462 081f 07       		.uleb128 0x7
 1463 0820 82010000 		.4byte	.LASF133
 1464 0824 0E       		.byte	0xe
 1465 0825 AB       		.byte	0xab
 1466 0826 E9000000 		.4byte	0xe9
 1467 082a 00       		.byte	0
 1468 082b 07       		.uleb128 0x7
 1469 082c 29010000 		.4byte	.LASF134
 1470 0830 0E       		.byte	0xe
 1471 0831 AC       		.byte	0xac
 1472 0832 E9000000 		.4byte	0xe9
 1473 0836 04       		.byte	0x4
 1474 0837 07       		.uleb128 0x7
 1475 0838 7B020000 		.4byte	.LASF135
 1476 083c 0E       		.byte	0xe
ARM GAS  /var/folders/c6/c789hm653lg9vtl73krp73tm0000gn/T//ccfdOrSk.s 			page 41


 1477 083d AD       		.byte	0xad
 1478 083e E9000000 		.4byte	0xe9
 1479 0842 08       		.byte	0x8
 1480 0843 07       		.uleb128 0x7
 1481 0844 BA010000 		.4byte	.LASF136
 1482 0848 0E       		.byte	0xe
 1483 0849 AE       		.byte	0xae
 1484 084a E9000000 		.4byte	0xe9
 1485 084e 0C       		.byte	0xc
 1486 084f 12       		.uleb128 0x12
 1487 0850 49445200 		.ascii	"IDR\000"
 1488 0854 0E       		.byte	0xe
 1489 0855 AF       		.byte	0xaf
 1490 0856 E9000000 		.4byte	0xe9
 1491 085a 10       		.byte	0x10
 1492 085b 12       		.uleb128 0x12
 1493 085c 4F445200 		.ascii	"ODR\000"
 1494 0860 0E       		.byte	0xe
 1495 0861 B0       		.byte	0xb0
 1496 0862 E9000000 		.4byte	0xe9
 1497 0866 14       		.byte	0x14
 1498 0867 07       		.uleb128 0x7
 1499 0868 21020000 		.4byte	.LASF137
 1500 086c 0E       		.byte	0xe
 1501 086d B7       		.byte	0xb7
 1502 086e A4080000 		.4byte	0x8a4
 1503 0872 18       		.byte	0x18
 1504 0873 07       		.uleb128 0x7
 1505 0874 31030000 		.4byte	.LASF138
 1506 0878 0E       		.byte	0xe
 1507 0879 B8       		.byte	0xb8
 1508 087a E9000000 		.4byte	0xe9
 1509 087e 1C       		.byte	0x1c
 1510 087f 07       		.uleb128 0x7
 1511 0880 22050000 		.4byte	.LASF139
 1512 0884 0E       		.byte	0xe
 1513 0885 B9       		.byte	0xb9
 1514 0886 E9000000 		.4byte	0xe9
 1515 088a 20       		.byte	0x20
 1516 088b 07       		.uleb128 0x7
 1517 088c 04050000 		.4byte	.LASF140
 1518 0890 0E       		.byte	0xe
 1519 0891 BA       		.byte	0xba
 1520 0892 E9000000 		.4byte	0xe9
 1521 0896 24       		.byte	0x24
 1522 0897 12       		.uleb128 0x12
 1523 0898 42525200 		.ascii	"BRR\000"
 1524 089c 0E       		.byte	0xe
 1525 089d BB       		.byte	0xbb
 1526 089e E9000000 		.4byte	0xe9
 1527 08a2 28       		.byte	0x28
 1528 08a3 00       		.byte	0
 1529 08a4 05       		.uleb128 0x5
 1530 08a5 FC070000 		.4byte	0x7fc
 1531 08a9 04       		.uleb128 0x4
 1532 08aa BB020000 		.4byte	.LASF141
 1533 08ae 0E       		.byte	0xe
ARM GAS  /var/folders/c6/c789hm653lg9vtl73krp73tm0000gn/T//ccfdOrSk.s 			page 42


 1534 08af BC       		.byte	0xbc
 1535 08b0 17080000 		.4byte	0x817
 1536 08b4 1B       		.uleb128 0x1b
 1537 08b5 5C010000 		.4byte	.LASF142
 1538 08b9 0E       		.byte	0xe
 1539 08ba 0E01     		.2byte	0x10e
 1540 08bc C3000000 		.4byte	0xc3
 1541 08c0 1B       		.uleb128 0x1b
 1542 08c1 5A070000 		.4byte	.LASF143
 1543 08c5 0E       		.byte	0xe
 1544 08c6 1301     		.2byte	0x113
 1545 08c8 C3000000 		.4byte	0xc3
 1546 08cc 1B       		.uleb128 0x1b
 1547 08cd B0060000 		.4byte	.LASF144
 1548 08d1 0E       		.byte	0xe
 1549 08d2 1B01     		.2byte	0x11b
 1550 08d4 D8080000 		.4byte	0x8d8
 1551 08d8 0A       		.uleb128 0xa
 1552 08d9 04       		.byte	0x4
 1553 08da A9080000 		.4byte	0x8a9
 1554 08de 13       		.uleb128 0x13
 1555 08df 0C       		.byte	0xc
 1556 08e0 0F       		.byte	0xf
 1557 08e1 7A       		.byte	0x7a
 1558 08e2 0B090000 		.4byte	0x90b
 1559 08e6 07       		.uleb128 0x7
 1560 08e7 FD040000 		.4byte	.LASF145
 1561 08eb 0F       		.byte	0xf
 1562 08ec 7E       		.byte	0x7e
 1563 08ed CC080000 		.4byte	0x8cc
 1564 08f1 00       		.byte	0
 1565 08f2 07       		.uleb128 0x7
 1566 08f3 8B020000 		.4byte	.LASF146
 1567 08f7 0F       		.byte	0xf
 1568 08f8 84       		.byte	0x84
 1569 08f9 B4080000 		.4byte	0x8b4
 1570 08fd 04       		.byte	0x4
 1571 08fe 07       		.uleb128 0x7
 1572 08ff A9060000 		.4byte	.LASF103
 1573 0903 0F       		.byte	0xf
 1574 0904 88       		.byte	0x88
 1575 0905 D9000000 		.4byte	0xd9
 1576 0909 08       		.byte	0x8
 1577 090a 00       		.byte	0
 1578 090b 04       		.uleb128 0x4
 1579 090c F3020000 		.4byte	.LASF147
 1580 0910 0F       		.byte	0xf
 1581 0911 89       		.byte	0x89
 1582 0912 DE080000 		.4byte	0x8de
 1583 0916 1C       		.uleb128 0x1c
 1584 0917 4B060000 		.4byte	.LASF159
 1585 091b 01       		.byte	0x1
 1586 091c 41       		.byte	0x41
 1587 091d B4080000 		.4byte	0x8b4
 1588 0921 00000000 		.4byte	.LFB260
 1589 0925 28000000 		.4byte	.LFE260-.LFB260
 1590 0929 01       		.uleb128 0x1
ARM GAS  /var/folders/c6/c789hm653lg9vtl73krp73tm0000gn/T//ccfdOrSk.s 			page 43


 1591 092a 9C       		.byte	0x9c
 1592 092b 61090000 		.4byte	0x961
 1593 092f 1D       		.uleb128 0x1d
 1594 0930 62757300 		.ascii	"bus\000"
 1595 0934 01       		.byte	0x1
 1596 0935 41       		.byte	0x41
 1597 0936 61090000 		.4byte	0x961
 1598 093a 00000000 		.4byte	.LLST0
 1599 093e 1E       		.uleb128 0x1e
 1600 093f E8030000 		.4byte	.LASF149
 1601 0943 77090000 		.4byte	0x977
 1602 0947 05       		.uleb128 0x5
 1603 0948 03       		.byte	0x3
 1604 0949 00000000 		.4byte	__func__.7800
 1605 094d 1F       		.uleb128 0x1f
 1606 094e 12000000 		.4byte	.LVL2
 1607 0952 7E0A0000 		.4byte	0xa7e
 1608 0956 20       		.uleb128 0x20
 1609 0957 01       		.uleb128 0x1
 1610 0958 50       		.byte	0x50
 1611 0959 05       		.uleb128 0x5
 1612 095a 03       		.byte	0x3
 1613 095b 00000000 		.4byte	.LANCHOR0
 1614 095f 00       		.byte	0
 1615 0960 00       		.byte	0
 1616 0961 0A       		.uleb128 0xa
 1617 0962 04       		.byte	0x4
 1618 0963 0B090000 		.4byte	0x90b
 1619 0967 15       		.uleb128 0x15
 1620 0968 9B070000 		.4byte	0x79b
 1621 096c 77090000 		.4byte	0x977
 1622 0970 16       		.uleb128 0x16
 1623 0971 CF040000 		.4byte	0x4cf
 1624 0975 0A       		.byte	0xa
 1625 0976 00       		.byte	0
 1626 0977 19       		.uleb128 0x19
 1627 0978 67090000 		.4byte	0x967
 1628 097c 21       		.uleb128 0x21
 1629 097d E8060000 		.4byte	.LASF151
 1630 0981 01       		.byte	0x1
 1631 0982 5A       		.byte	0x5a
 1632 0983 00000000 		.4byte	.LFB261
 1633 0987 38000000 		.4byte	.LFE261-.LFB261
 1634 098b 01       		.uleb128 0x1
 1635 098c 9C       		.byte	0x9c
 1636 098d D2090000 		.4byte	0x9d2
 1637 0991 1D       		.uleb128 0x1d
 1638 0992 62757300 		.ascii	"bus\000"
 1639 0996 01       		.byte	0x1
 1640 0997 5A       		.byte	0x5a
 1641 0998 61090000 		.4byte	0x961
 1642 099c 2C000000 		.4byte	.LLST1
 1643 09a0 22       		.uleb128 0x22
 1644 09a1 3D020000 		.4byte	.LASF148
 1645 09a5 01       		.byte	0x1
 1646 09a6 5A       		.byte	0x5a
 1647 09a7 B4080000 		.4byte	0x8b4
ARM GAS  /var/folders/c6/c789hm653lg9vtl73krp73tm0000gn/T//ccfdOrSk.s 			page 44


 1648 09ab 58000000 		.4byte	.LLST2
 1649 09af 1E       		.uleb128 0x1e
 1650 09b0 FE030000 		.4byte	.LASF150
 1651 09b4 E2090000 		.4byte	0x9e2
 1652 09b8 05       		.uleb128 0x5
 1653 09b9 03       		.byte	0x3
 1654 09ba 00000000 		.4byte	__func__.7805
 1655 09be 1F       		.uleb128 0x1f
 1656 09bf 14000000 		.4byte	.LVL6
 1657 09c3 7E0A0000 		.4byte	0xa7e
 1658 09c7 20       		.uleb128 0x20
 1659 09c8 01       		.uleb128 0x1
 1660 09c9 50       		.byte	0x50
 1661 09ca 05       		.uleb128 0x5
 1662 09cb 03       		.byte	0x3
 1663 09cc 00000000 		.4byte	.LANCHOR1
 1664 09d0 00       		.byte	0
 1665 09d1 00       		.byte	0
 1666 09d2 15       		.uleb128 0x15
 1667 09d3 9B070000 		.4byte	0x79b
 1668 09d7 E2090000 		.4byte	0x9e2
 1669 09db 16       		.uleb128 0x16
 1670 09dc CF040000 		.4byte	0x4cf
 1671 09e0 0B       		.byte	0xb
 1672 09e1 00       		.byte	0
 1673 09e2 19       		.uleb128 0x19
 1674 09e3 D2090000 		.4byte	0x9d2
 1675 09e7 21       		.uleb128 0x21
 1676 09e8 14050000 		.4byte	.LASF152
 1677 09ec 01       		.byte	0x1
 1678 09ed 71       		.byte	0x71
 1679 09ee 00000000 		.4byte	.LFB262
 1680 09f2 2C000000 		.4byte	.LFE262-.LFB262
 1681 09f6 01       		.uleb128 0x1
 1682 09f7 9C       		.byte	0x9c
 1683 09f8 520A0000 		.4byte	0xa52
 1684 09fc 1D       		.uleb128 0x1d
 1685 09fd 62757300 		.ascii	"bus\000"
 1686 0a01 01       		.byte	0x1
 1687 0a02 71       		.byte	0x71
 1688 0a03 61090000 		.4byte	0x961
 1689 0a07 84000000 		.4byte	.LLST3
 1690 0a0b 22       		.uleb128 0x22
 1691 0a0c 46060000 		.4byte	.LASF153
 1692 0a10 01       		.byte	0x1
 1693 0a11 71       		.byte	0x71
 1694 0a12 C0080000 		.4byte	0x8c0
 1695 0a16 B0000000 		.4byte	.LLST4
 1696 0a1a 1E       		.uleb128 0x1e
 1697 0a1b CC040000 		.4byte	.LASF154
 1698 0a1f 620A0000 		.4byte	0xa62
 1699 0a23 05       		.uleb128 0x5
 1700 0a24 03       		.byte	0x3
 1701 0a25 00000000 		.4byte	__func__.7810
 1702 0a29 23       		.uleb128 0x23
 1703 0a2a 14000000 		.4byte	.LVL12
 1704 0a2e 7E0A0000 		.4byte	0xa7e
ARM GAS  /var/folders/c6/c789hm653lg9vtl73krp73tm0000gn/T//ccfdOrSk.s 			page 45


 1705 0a32 400A0000 		.4byte	0xa40
 1706 0a36 20       		.uleb128 0x20
 1707 0a37 01       		.uleb128 0x1
 1708 0a38 50       		.byte	0x50
 1709 0a39 05       		.uleb128 0x5
 1710 0a3a 03       		.byte	0x3
 1711 0a3b 00000000 		.4byte	.LANCHOR2
 1712 0a3f 00       		.byte	0
 1713 0a40 24       		.uleb128 0x24
 1714 0a41 28000000 		.4byte	.LVL14
 1715 0a45 900A0000 		.4byte	0xa90
 1716 0a49 20       		.uleb128 0x20
 1717 0a4a 01       		.uleb128 0x1
 1718 0a4b 52       		.byte	0x52
 1719 0a4c 03       		.uleb128 0x3
 1720 0a4d F3       		.byte	0xf3
 1721 0a4e 01       		.uleb128 0x1
 1722 0a4f 51       		.byte	0x51
 1723 0a50 00       		.byte	0
 1724 0a51 00       		.byte	0
 1725 0a52 15       		.uleb128 0x15
 1726 0a53 9B070000 		.4byte	0x79b
 1727 0a57 620A0000 		.4byte	0xa62
 1728 0a5b 16       		.uleb128 0x16
 1729 0a5c CF040000 		.4byte	0x4cf
 1730 0a60 0D       		.byte	0xd
 1731 0a61 00       		.byte	0
 1732 0a62 19       		.uleb128 0x19
 1733 0a63 520A0000 		.4byte	0xa52
 1734 0a67 25       		.uleb128 0x25
 1735 0a68 EA010000 		.4byte	.LASF155
 1736 0a6c 10       		.byte	0x10
 1737 0a6d A706     		.2byte	0x6a7
 1738 0a6f E4000000 		.4byte	0xe4
 1739 0a73 26       		.uleb128 0x26
 1740 0a74 636800   		.ascii	"ch\000"
 1741 0a77 06       		.byte	0x6
 1742 0a78 0902     		.2byte	0x209
 1743 0a7a 57040000 		.4byte	0x457
 1744 0a7e 27       		.uleb128 0x27
 1745 0a7f A1020000 		.4byte	.LASF160
 1746 0a83 11       		.byte	0x11
 1747 0a84 1601     		.2byte	0x116
 1748 0a86 900A0000 		.4byte	0xa90
 1749 0a8a 0D       		.uleb128 0xd
 1750 0a8b 90070000 		.4byte	0x790
 1751 0a8f 00       		.byte	0
 1752 0a90 28       		.uleb128 0x28
 1753 0a91 C3060000 		.4byte	.LASF161
 1754 0a95 0E       		.byte	0xe
 1755 0a96 E001     		.2byte	0x1e0
 1756 0a98 0D       		.uleb128 0xd
 1757 0a99 CC080000 		.4byte	0x8cc
 1758 0a9d 0D       		.uleb128 0xd
 1759 0a9e B4080000 		.4byte	0x8b4
 1760 0aa2 0D       		.uleb128 0xd
 1761 0aa3 C0080000 		.4byte	0x8c0
ARM GAS  /var/folders/c6/c789hm653lg9vtl73krp73tm0000gn/T//ccfdOrSk.s 			page 46


 1762 0aa7 00       		.byte	0
 1763 0aa8 00       		.byte	0
 1764              		.section	.debug_abbrev,"",%progbits
 1765              	.Ldebug_abbrev0:
 1766 0000 01       		.uleb128 0x1
 1767 0001 11       		.uleb128 0x11
 1768 0002 01       		.byte	0x1
 1769 0003 25       		.uleb128 0x25
 1770 0004 0E       		.uleb128 0xe
 1771 0005 13       		.uleb128 0x13
 1772 0006 0B       		.uleb128 0xb
 1773 0007 03       		.uleb128 0x3
 1774 0008 0E       		.uleb128 0xe
 1775 0009 1B       		.uleb128 0x1b
 1776 000a 0E       		.uleb128 0xe
 1777 000b 55       		.uleb128 0x55
 1778 000c 17       		.uleb128 0x17
 1779 000d 11       		.uleb128 0x11
 1780 000e 01       		.uleb128 0x1
 1781 000f 10       		.uleb128 0x10
 1782 0010 17       		.uleb128 0x17
 1783 0011 00       		.byte	0
 1784 0012 00       		.byte	0
 1785 0013 02       		.uleb128 0x2
 1786 0014 24       		.uleb128 0x24
 1787 0015 00       		.byte	0
 1788 0016 0B       		.uleb128 0xb
 1789 0017 0B       		.uleb128 0xb
 1790 0018 3E       		.uleb128 0x3e
 1791 0019 0B       		.uleb128 0xb
 1792 001a 03       		.uleb128 0x3
 1793 001b 08       		.uleb128 0x8
 1794 001c 00       		.byte	0
 1795 001d 00       		.byte	0
 1796 001e 03       		.uleb128 0x3
 1797 001f 24       		.uleb128 0x24
 1798 0020 00       		.byte	0
 1799 0021 0B       		.uleb128 0xb
 1800 0022 0B       		.uleb128 0xb
 1801 0023 3E       		.uleb128 0x3e
 1802 0024 0B       		.uleb128 0xb
 1803 0025 03       		.uleb128 0x3
 1804 0026 0E       		.uleb128 0xe
 1805 0027 00       		.byte	0
 1806 0028 00       		.byte	0
 1807 0029 04       		.uleb128 0x4
 1808 002a 16       		.uleb128 0x16
 1809 002b 00       		.byte	0
 1810 002c 03       		.uleb128 0x3
 1811 002d 0E       		.uleb128 0xe
 1812 002e 3A       		.uleb128 0x3a
 1813 002f 0B       		.uleb128 0xb
 1814 0030 3B       		.uleb128 0x3b
 1815 0031 0B       		.uleb128 0xb
 1816 0032 49       		.uleb128 0x49
 1817 0033 13       		.uleb128 0x13
 1818 0034 00       		.byte	0
ARM GAS  /var/folders/c6/c789hm653lg9vtl73krp73tm0000gn/T//ccfdOrSk.s 			page 47


 1819 0035 00       		.byte	0
 1820 0036 05       		.uleb128 0x5
 1821 0037 35       		.uleb128 0x35
 1822 0038 00       		.byte	0
 1823 0039 49       		.uleb128 0x49
 1824 003a 13       		.uleb128 0x13
 1825 003b 00       		.byte	0
 1826 003c 00       		.byte	0
 1827 003d 06       		.uleb128 0x6
 1828 003e 13       		.uleb128 0x13
 1829 003f 01       		.byte	0x1
 1830 0040 03       		.uleb128 0x3
 1831 0041 0E       		.uleb128 0xe
 1832 0042 0B       		.uleb128 0xb
 1833 0043 0B       		.uleb128 0xb
 1834 0044 3A       		.uleb128 0x3a
 1835 0045 0B       		.uleb128 0xb
 1836 0046 3B       		.uleb128 0x3b
 1837 0047 0B       		.uleb128 0xb
 1838 0048 01       		.uleb128 0x1
 1839 0049 13       		.uleb128 0x13
 1840 004a 00       		.byte	0
 1841 004b 00       		.byte	0
 1842 004c 07       		.uleb128 0x7
 1843 004d 0D       		.uleb128 0xd
 1844 004e 00       		.byte	0
 1845 004f 03       		.uleb128 0x3
 1846 0050 0E       		.uleb128 0xe
 1847 0051 3A       		.uleb128 0x3a
 1848 0052 0B       		.uleb128 0xb
 1849 0053 3B       		.uleb128 0x3b
 1850 0054 0B       		.uleb128 0xb
 1851 0055 49       		.uleb128 0x49
 1852 0056 13       		.uleb128 0x13
 1853 0057 38       		.uleb128 0x38
 1854 0058 0B       		.uleb128 0xb
 1855 0059 00       		.byte	0
 1856 005a 00       		.byte	0
 1857 005b 08       		.uleb128 0x8
 1858 005c 0D       		.uleb128 0xd
 1859 005d 00       		.byte	0
 1860 005e 03       		.uleb128 0x3
 1861 005f 08       		.uleb128 0x8
 1862 0060 3A       		.uleb128 0x3a
 1863 0061 0B       		.uleb128 0xb
 1864 0062 3B       		.uleb128 0x3b
 1865 0063 05       		.uleb128 0x5
 1866 0064 49       		.uleb128 0x49
 1867 0065 13       		.uleb128 0x13
 1868 0066 38       		.uleb128 0x38
 1869 0067 0B       		.uleb128 0xb
 1870 0068 00       		.byte	0
 1871 0069 00       		.byte	0
 1872 006a 09       		.uleb128 0x9
 1873 006b 0D       		.uleb128 0xd
 1874 006c 00       		.byte	0
 1875 006d 03       		.uleb128 0x3
ARM GAS  /var/folders/c6/c789hm653lg9vtl73krp73tm0000gn/T//ccfdOrSk.s 			page 48


 1876 006e 0E       		.uleb128 0xe
 1877 006f 3A       		.uleb128 0x3a
 1878 0070 0B       		.uleb128 0xb
 1879 0071 3B       		.uleb128 0x3b
 1880 0072 05       		.uleb128 0x5
 1881 0073 49       		.uleb128 0x49
 1882 0074 13       		.uleb128 0x13
 1883 0075 38       		.uleb128 0x38
 1884 0076 0B       		.uleb128 0xb
 1885 0077 00       		.byte	0
 1886 0078 00       		.byte	0
 1887 0079 0A       		.uleb128 0xa
 1888 007a 0F       		.uleb128 0xf
 1889 007b 00       		.byte	0
 1890 007c 0B       		.uleb128 0xb
 1891 007d 0B       		.uleb128 0xb
 1892 007e 49       		.uleb128 0x49
 1893 007f 13       		.uleb128 0x13
 1894 0080 00       		.byte	0
 1895 0081 00       		.byte	0
 1896 0082 0B       		.uleb128 0xb
 1897 0083 13       		.uleb128 0x13
 1898 0084 01       		.byte	0x1
 1899 0085 03       		.uleb128 0x3
 1900 0086 0E       		.uleb128 0xe
 1901 0087 0B       		.uleb128 0xb
 1902 0088 0B       		.uleb128 0xb
 1903 0089 3A       		.uleb128 0x3a
 1904 008a 0B       		.uleb128 0xb
 1905 008b 3B       		.uleb128 0x3b
 1906 008c 05       		.uleb128 0x5
 1907 008d 01       		.uleb128 0x1
 1908 008e 13       		.uleb128 0x13
 1909 008f 00       		.byte	0
 1910 0090 00       		.byte	0
 1911 0091 0C       		.uleb128 0xc
 1912 0092 15       		.uleb128 0x15
 1913 0093 01       		.byte	0x1
 1914 0094 27       		.uleb128 0x27
 1915 0095 19       		.uleb128 0x19
 1916 0096 01       		.uleb128 0x1
 1917 0097 13       		.uleb128 0x13
 1918 0098 00       		.byte	0
 1919 0099 00       		.byte	0
 1920 009a 0D       		.uleb128 0xd
 1921 009b 05       		.uleb128 0x5
 1922 009c 00       		.byte	0
 1923 009d 49       		.uleb128 0x49
 1924 009e 13       		.uleb128 0x13
 1925 009f 00       		.byte	0
 1926 00a0 00       		.byte	0
 1927 00a1 0E       		.uleb128 0xe
 1928 00a2 0F       		.uleb128 0xf
 1929 00a3 00       		.byte	0
 1930 00a4 0B       		.uleb128 0xb
 1931 00a5 0B       		.uleb128 0xb
 1932 00a6 00       		.byte	0
ARM GAS  /var/folders/c6/c789hm653lg9vtl73krp73tm0000gn/T//ccfdOrSk.s 			page 49


 1933 00a7 00       		.byte	0
 1934 00a8 0F       		.uleb128 0xf
 1935 00a9 13       		.uleb128 0x13
 1936 00aa 01       		.byte	0x1
 1937 00ab 03       		.uleb128 0x3
 1938 00ac 0E       		.uleb128 0xe
 1939 00ad 0B       		.uleb128 0xb
 1940 00ae 05       		.uleb128 0x5
 1941 00af 3A       		.uleb128 0x3a
 1942 00b0 0B       		.uleb128 0xb
 1943 00b1 3B       		.uleb128 0x3b
 1944 00b2 05       		.uleb128 0x5
 1945 00b3 01       		.uleb128 0x1
 1946 00b4 13       		.uleb128 0x13
 1947 00b5 00       		.byte	0
 1948 00b6 00       		.byte	0
 1949 00b7 10       		.uleb128 0x10
 1950 00b8 0D       		.uleb128 0xd
 1951 00b9 00       		.byte	0
 1952 00ba 03       		.uleb128 0x3
 1953 00bb 0E       		.uleb128 0xe
 1954 00bc 3A       		.uleb128 0x3a
 1955 00bd 0B       		.uleb128 0xb
 1956 00be 3B       		.uleb128 0x3b
 1957 00bf 05       		.uleb128 0x5
 1958 00c0 49       		.uleb128 0x49
 1959 00c1 13       		.uleb128 0x13
 1960 00c2 38       		.uleb128 0x38
 1961 00c3 05       		.uleb128 0x5
 1962 00c4 00       		.byte	0
 1963 00c5 00       		.byte	0
 1964 00c6 11       		.uleb128 0x11
 1965 00c7 0D       		.uleb128 0xd
 1966 00c8 00       		.byte	0
 1967 00c9 03       		.uleb128 0x3
 1968 00ca 08       		.uleb128 0x8
 1969 00cb 3A       		.uleb128 0x3a
 1970 00cc 0B       		.uleb128 0xb
 1971 00cd 3B       		.uleb128 0x3b
 1972 00ce 05       		.uleb128 0x5
 1973 00cf 49       		.uleb128 0x49
 1974 00d0 13       		.uleb128 0x13
 1975 00d1 38       		.uleb128 0x38
 1976 00d2 05       		.uleb128 0x5
 1977 00d3 00       		.byte	0
 1978 00d4 00       		.byte	0
 1979 00d5 12       		.uleb128 0x12
 1980 00d6 0D       		.uleb128 0xd
 1981 00d7 00       		.byte	0
 1982 00d8 03       		.uleb128 0x3
 1983 00d9 08       		.uleb128 0x8
 1984 00da 3A       		.uleb128 0x3a
 1985 00db 0B       		.uleb128 0xb
 1986 00dc 3B       		.uleb128 0x3b
 1987 00dd 0B       		.uleb128 0xb
 1988 00de 49       		.uleb128 0x49
 1989 00df 13       		.uleb128 0x13
ARM GAS  /var/folders/c6/c789hm653lg9vtl73krp73tm0000gn/T//ccfdOrSk.s 			page 50


 1990 00e0 38       		.uleb128 0x38
 1991 00e1 0B       		.uleb128 0xb
 1992 00e2 00       		.byte	0
 1993 00e3 00       		.byte	0
 1994 00e4 13       		.uleb128 0x13
 1995 00e5 13       		.uleb128 0x13
 1996 00e6 01       		.byte	0x1
 1997 00e7 0B       		.uleb128 0xb
 1998 00e8 0B       		.uleb128 0xb
 1999 00e9 3A       		.uleb128 0x3a
 2000 00ea 0B       		.uleb128 0xb
 2001 00eb 3B       		.uleb128 0x3b
 2002 00ec 0B       		.uleb128 0xb
 2003 00ed 01       		.uleb128 0x1
 2004 00ee 13       		.uleb128 0x13
 2005 00ef 00       		.byte	0
 2006 00f0 00       		.byte	0
 2007 00f1 14       		.uleb128 0x14
 2008 00f2 13       		.uleb128 0x13
 2009 00f3 01       		.byte	0x1
 2010 00f4 0B       		.uleb128 0xb
 2011 00f5 05       		.uleb128 0x5
 2012 00f6 3A       		.uleb128 0x3a
 2013 00f7 0B       		.uleb128 0xb
 2014 00f8 3B       		.uleb128 0x3b
 2015 00f9 0B       		.uleb128 0xb
 2016 00fa 01       		.uleb128 0x1
 2017 00fb 13       		.uleb128 0x13
 2018 00fc 00       		.byte	0
 2019 00fd 00       		.byte	0
 2020 00fe 15       		.uleb128 0x15
 2021 00ff 01       		.uleb128 0x1
 2022 0100 01       		.byte	0x1
 2023 0101 49       		.uleb128 0x49
 2024 0102 13       		.uleb128 0x13
 2025 0103 01       		.uleb128 0x1
 2026 0104 13       		.uleb128 0x13
 2027 0105 00       		.byte	0
 2028 0106 00       		.byte	0
 2029 0107 16       		.uleb128 0x16
 2030 0108 21       		.uleb128 0x21
 2031 0109 00       		.byte	0
 2032 010a 49       		.uleb128 0x49
 2033 010b 13       		.uleb128 0x13
 2034 010c 2F       		.uleb128 0x2f
 2035 010d 0B       		.uleb128 0xb
 2036 010e 00       		.byte	0
 2037 010f 00       		.byte	0
 2038 0110 17       		.uleb128 0x17
 2039 0111 17       		.uleb128 0x17
 2040 0112 01       		.byte	0x1
 2041 0113 0B       		.uleb128 0xb
 2042 0114 0B       		.uleb128 0xb
 2043 0115 3A       		.uleb128 0x3a
 2044 0116 0B       		.uleb128 0xb
 2045 0117 3B       		.uleb128 0x3b
 2046 0118 0B       		.uleb128 0xb
ARM GAS  /var/folders/c6/c789hm653lg9vtl73krp73tm0000gn/T//ccfdOrSk.s 			page 51


 2047 0119 01       		.uleb128 0x1
 2048 011a 13       		.uleb128 0x13
 2049 011b 00       		.byte	0
 2050 011c 00       		.byte	0
 2051 011d 18       		.uleb128 0x18
 2052 011e 0D       		.uleb128 0xd
 2053 011f 00       		.byte	0
 2054 0120 03       		.uleb128 0x3
 2055 0121 0E       		.uleb128 0xe
 2056 0122 3A       		.uleb128 0x3a
 2057 0123 0B       		.uleb128 0xb
 2058 0124 3B       		.uleb128 0x3b
 2059 0125 05       		.uleb128 0x5
 2060 0126 49       		.uleb128 0x49
 2061 0127 13       		.uleb128 0x13
 2062 0128 00       		.byte	0
 2063 0129 00       		.byte	0
 2064 012a 19       		.uleb128 0x19
 2065 012b 26       		.uleb128 0x26
 2066 012c 00       		.byte	0
 2067 012d 49       		.uleb128 0x49
 2068 012e 13       		.uleb128 0x13
 2069 012f 00       		.byte	0
 2070 0130 00       		.byte	0
 2071 0131 1A       		.uleb128 0x1a
 2072 0132 0D       		.uleb128 0xd
 2073 0133 00       		.byte	0
 2074 0134 03       		.uleb128 0x3
 2075 0135 08       		.uleb128 0x8
 2076 0136 3A       		.uleb128 0x3a
 2077 0137 0B       		.uleb128 0xb
 2078 0138 3B       		.uleb128 0x3b
 2079 0139 0B       		.uleb128 0xb
 2080 013a 49       		.uleb128 0x49
 2081 013b 13       		.uleb128 0x13
 2082 013c 00       		.byte	0
 2083 013d 00       		.byte	0
 2084 013e 1B       		.uleb128 0x1b
 2085 013f 16       		.uleb128 0x16
 2086 0140 00       		.byte	0
 2087 0141 03       		.uleb128 0x3
 2088 0142 0E       		.uleb128 0xe
 2089 0143 3A       		.uleb128 0x3a
 2090 0144 0B       		.uleb128 0xb
 2091 0145 3B       		.uleb128 0x3b
 2092 0146 05       		.uleb128 0x5
 2093 0147 49       		.uleb128 0x49
 2094 0148 13       		.uleb128 0x13
 2095 0149 00       		.byte	0
 2096 014a 00       		.byte	0
 2097 014b 1C       		.uleb128 0x1c
 2098 014c 2E       		.uleb128 0x2e
 2099 014d 01       		.byte	0x1
 2100 014e 3F       		.uleb128 0x3f
 2101 014f 19       		.uleb128 0x19
 2102 0150 03       		.uleb128 0x3
 2103 0151 0E       		.uleb128 0xe
ARM GAS  /var/folders/c6/c789hm653lg9vtl73krp73tm0000gn/T//ccfdOrSk.s 			page 52


 2104 0152 3A       		.uleb128 0x3a
 2105 0153 0B       		.uleb128 0xb
 2106 0154 3B       		.uleb128 0x3b
 2107 0155 0B       		.uleb128 0xb
 2108 0156 27       		.uleb128 0x27
 2109 0157 19       		.uleb128 0x19
 2110 0158 49       		.uleb128 0x49
 2111 0159 13       		.uleb128 0x13
 2112 015a 11       		.uleb128 0x11
 2113 015b 01       		.uleb128 0x1
 2114 015c 12       		.uleb128 0x12
 2115 015d 06       		.uleb128 0x6
 2116 015e 40       		.uleb128 0x40
 2117 015f 18       		.uleb128 0x18
 2118 0160 9742     		.uleb128 0x2117
 2119 0162 19       		.uleb128 0x19
 2120 0163 01       		.uleb128 0x1
 2121 0164 13       		.uleb128 0x13
 2122 0165 00       		.byte	0
 2123 0166 00       		.byte	0
 2124 0167 1D       		.uleb128 0x1d
 2125 0168 05       		.uleb128 0x5
 2126 0169 00       		.byte	0
 2127 016a 03       		.uleb128 0x3
 2128 016b 08       		.uleb128 0x8
 2129 016c 3A       		.uleb128 0x3a
 2130 016d 0B       		.uleb128 0xb
 2131 016e 3B       		.uleb128 0x3b
 2132 016f 0B       		.uleb128 0xb
 2133 0170 49       		.uleb128 0x49
 2134 0171 13       		.uleb128 0x13
 2135 0172 02       		.uleb128 0x2
 2136 0173 17       		.uleb128 0x17
 2137 0174 00       		.byte	0
 2138 0175 00       		.byte	0
 2139 0176 1E       		.uleb128 0x1e
 2140 0177 34       		.uleb128 0x34
 2141 0178 00       		.byte	0
 2142 0179 03       		.uleb128 0x3
 2143 017a 0E       		.uleb128 0xe
 2144 017b 49       		.uleb128 0x49
 2145 017c 13       		.uleb128 0x13
 2146 017d 34       		.uleb128 0x34
 2147 017e 19       		.uleb128 0x19
 2148 017f 02       		.uleb128 0x2
 2149 0180 18       		.uleb128 0x18
 2150 0181 00       		.byte	0
 2151 0182 00       		.byte	0
 2152 0183 1F       		.uleb128 0x1f
 2153 0184 898201   		.uleb128 0x4109
 2154 0187 01       		.byte	0x1
 2155 0188 11       		.uleb128 0x11
 2156 0189 01       		.uleb128 0x1
 2157 018a 31       		.uleb128 0x31
 2158 018b 13       		.uleb128 0x13
 2159 018c 00       		.byte	0
 2160 018d 00       		.byte	0
ARM GAS  /var/folders/c6/c789hm653lg9vtl73krp73tm0000gn/T//ccfdOrSk.s 			page 53


 2161 018e 20       		.uleb128 0x20
 2162 018f 8A8201   		.uleb128 0x410a
 2163 0192 00       		.byte	0
 2164 0193 02       		.uleb128 0x2
 2165 0194 18       		.uleb128 0x18
 2166 0195 9142     		.uleb128 0x2111
 2167 0197 18       		.uleb128 0x18
 2168 0198 00       		.byte	0
 2169 0199 00       		.byte	0
 2170 019a 21       		.uleb128 0x21
 2171 019b 2E       		.uleb128 0x2e
 2172 019c 01       		.byte	0x1
 2173 019d 3F       		.uleb128 0x3f
 2174 019e 19       		.uleb128 0x19
 2175 019f 03       		.uleb128 0x3
 2176 01a0 0E       		.uleb128 0xe
 2177 01a1 3A       		.uleb128 0x3a
 2178 01a2 0B       		.uleb128 0xb
 2179 01a3 3B       		.uleb128 0x3b
 2180 01a4 0B       		.uleb128 0xb
 2181 01a5 27       		.uleb128 0x27
 2182 01a6 19       		.uleb128 0x19
 2183 01a7 11       		.uleb128 0x11
 2184 01a8 01       		.uleb128 0x1
 2185 01a9 12       		.uleb128 0x12
 2186 01aa 06       		.uleb128 0x6
 2187 01ab 40       		.uleb128 0x40
 2188 01ac 18       		.uleb128 0x18
 2189 01ad 9742     		.uleb128 0x2117
 2190 01af 19       		.uleb128 0x19
 2191 01b0 01       		.uleb128 0x1
 2192 01b1 13       		.uleb128 0x13
 2193 01b2 00       		.byte	0
 2194 01b3 00       		.byte	0
 2195 01b4 22       		.uleb128 0x22
 2196 01b5 05       		.uleb128 0x5
 2197 01b6 00       		.byte	0
 2198 01b7 03       		.uleb128 0x3
 2199 01b8 0E       		.uleb128 0xe
 2200 01b9 3A       		.uleb128 0x3a
 2201 01ba 0B       		.uleb128 0xb
 2202 01bb 3B       		.uleb128 0x3b
 2203 01bc 0B       		.uleb128 0xb
 2204 01bd 49       		.uleb128 0x49
 2205 01be 13       		.uleb128 0x13
 2206 01bf 02       		.uleb128 0x2
 2207 01c0 17       		.uleb128 0x17
 2208 01c1 00       		.byte	0
 2209 01c2 00       		.byte	0
 2210 01c3 23       		.uleb128 0x23
 2211 01c4 898201   		.uleb128 0x4109
 2212 01c7 01       		.byte	0x1
 2213 01c8 11       		.uleb128 0x11
 2214 01c9 01       		.uleb128 0x1
 2215 01ca 31       		.uleb128 0x31
 2216 01cb 13       		.uleb128 0x13
 2217 01cc 01       		.uleb128 0x1
ARM GAS  /var/folders/c6/c789hm653lg9vtl73krp73tm0000gn/T//ccfdOrSk.s 			page 54


 2218 01cd 13       		.uleb128 0x13
 2219 01ce 00       		.byte	0
 2220 01cf 00       		.byte	0
 2221 01d0 24       		.uleb128 0x24
 2222 01d1 898201   		.uleb128 0x4109
 2223 01d4 01       		.byte	0x1
 2224 01d5 11       		.uleb128 0x11
 2225 01d6 01       		.uleb128 0x1
 2226 01d7 9542     		.uleb128 0x2115
 2227 01d9 19       		.uleb128 0x19
 2228 01da 31       		.uleb128 0x31
 2229 01db 13       		.uleb128 0x13
 2230 01dc 00       		.byte	0
 2231 01dd 00       		.byte	0
 2232 01de 25       		.uleb128 0x25
 2233 01df 34       		.uleb128 0x34
 2234 01e0 00       		.byte	0
 2235 01e1 03       		.uleb128 0x3
 2236 01e2 0E       		.uleb128 0xe
 2237 01e3 3A       		.uleb128 0x3a
 2238 01e4 0B       		.uleb128 0xb
 2239 01e5 3B       		.uleb128 0x3b
 2240 01e6 05       		.uleb128 0x5
 2241 01e7 49       		.uleb128 0x49
 2242 01e8 13       		.uleb128 0x13
 2243 01e9 3F       		.uleb128 0x3f
 2244 01ea 19       		.uleb128 0x19
 2245 01eb 3C       		.uleb128 0x3c
 2246 01ec 19       		.uleb128 0x19
 2247 01ed 00       		.byte	0
 2248 01ee 00       		.byte	0
 2249 01ef 26       		.uleb128 0x26
 2250 01f0 34       		.uleb128 0x34
 2251 01f1 00       		.byte	0
 2252 01f2 03       		.uleb128 0x3
 2253 01f3 08       		.uleb128 0x8
 2254 01f4 3A       		.uleb128 0x3a
 2255 01f5 0B       		.uleb128 0xb
 2256 01f6 3B       		.uleb128 0x3b
 2257 01f7 05       		.uleb128 0x5
 2258 01f8 49       		.uleb128 0x49
 2259 01f9 13       		.uleb128 0x13
 2260 01fa 3F       		.uleb128 0x3f
 2261 01fb 19       		.uleb128 0x19
 2262 01fc 3C       		.uleb128 0x3c
 2263 01fd 19       		.uleb128 0x19
 2264 01fe 00       		.byte	0
 2265 01ff 00       		.byte	0
 2266 0200 27       		.uleb128 0x27
 2267 0201 2E       		.uleb128 0x2e
 2268 0202 01       		.byte	0x1
 2269 0203 3F       		.uleb128 0x3f
 2270 0204 19       		.uleb128 0x19
 2271 0205 03       		.uleb128 0x3
 2272 0206 0E       		.uleb128 0xe
 2273 0207 3A       		.uleb128 0x3a
 2274 0208 0B       		.uleb128 0xb
ARM GAS  /var/folders/c6/c789hm653lg9vtl73krp73tm0000gn/T//ccfdOrSk.s 			page 55


 2275 0209 3B       		.uleb128 0x3b
 2276 020a 05       		.uleb128 0x5
 2277 020b 27       		.uleb128 0x27
 2278 020c 19       		.uleb128 0x19
 2279 020d 3C       		.uleb128 0x3c
 2280 020e 19       		.uleb128 0x19
 2281 020f 01       		.uleb128 0x1
 2282 0210 13       		.uleb128 0x13
 2283 0211 00       		.byte	0
 2284 0212 00       		.byte	0
 2285 0213 28       		.uleb128 0x28
 2286 0214 2E       		.uleb128 0x2e
 2287 0215 01       		.byte	0x1
 2288 0216 3F       		.uleb128 0x3f
 2289 0217 19       		.uleb128 0x19
 2290 0218 03       		.uleb128 0x3
 2291 0219 0E       		.uleb128 0xe
 2292 021a 3A       		.uleb128 0x3a
 2293 021b 0B       		.uleb128 0xb
 2294 021c 3B       		.uleb128 0x3b
 2295 021d 05       		.uleb128 0x5
 2296 021e 27       		.uleb128 0x27
 2297 021f 19       		.uleb128 0x19
 2298 0220 3C       		.uleb128 0x3c
 2299 0221 19       		.uleb128 0x19
 2300 0222 00       		.byte	0
 2301 0223 00       		.byte	0
 2302 0224 00       		.byte	0
 2303              		.section	.debug_loc,"",%progbits
 2304              	.Ldebug_loc0:
 2305              	.LLST0:
 2306 0000 00000000 		.4byte	.LVL0
 2307 0004 0E000000 		.4byte	.LVL1
 2308 0008 0100     		.2byte	0x1
 2309 000a 50       		.byte	0x50
 2310 000b 0E000000 		.4byte	.LVL1
 2311 000f 22000000 		.4byte	.LVL3
 2312 0013 0100     		.2byte	0x1
 2313 0015 54       		.byte	0x54
 2314 0016 22000000 		.4byte	.LVL3
 2315 001a 28000000 		.4byte	.LFE260
 2316 001e 0400     		.2byte	0x4
 2317 0020 F3       		.byte	0xf3
 2318 0021 01       		.uleb128 0x1
 2319 0022 50       		.byte	0x50
 2320 0023 9F       		.byte	0x9f
 2321 0024 00000000 		.4byte	0
 2322 0028 00000000 		.4byte	0
 2323              	.LLST1:
 2324 002c 00000000 		.4byte	.LVL4
 2325 0030 10000000 		.4byte	.LVL5
 2326 0034 0100     		.2byte	0x1
 2327 0036 50       		.byte	0x50
 2328 0037 10000000 		.4byte	.LVL5
 2329 003b 22000000 		.4byte	.LVL7
 2330 003f 0100     		.2byte	0x1
 2331 0041 54       		.byte	0x54
ARM GAS  /var/folders/c6/c789hm653lg9vtl73krp73tm0000gn/T//ccfdOrSk.s 			page 56


 2332 0042 22000000 		.4byte	.LVL7
 2333 0046 38000000 		.4byte	.LFE261
 2334 004a 0400     		.2byte	0x4
 2335 004c F3       		.byte	0xf3
 2336 004d 01       		.uleb128 0x1
 2337 004e 50       		.byte	0x50
 2338 004f 9F       		.byte	0x9f
 2339 0050 00000000 		.4byte	0
 2340 0054 00000000 		.4byte	0
 2341              	.LLST2:
 2342 0058 00000000 		.4byte	.LVL4
 2343 005c 13000000 		.4byte	.LVL6-1
 2344 0060 0100     		.2byte	0x1
 2345 0062 51       		.byte	0x51
 2346 0063 13000000 		.4byte	.LVL6-1
 2347 0067 24000000 		.4byte	.LVL8
 2348 006b 0100     		.2byte	0x1
 2349 006d 55       		.byte	0x55
 2350 006e 24000000 		.4byte	.LVL8
 2351 0072 38000000 		.4byte	.LFE261
 2352 0076 0400     		.2byte	0x4
 2353 0078 F3       		.byte	0xf3
 2354 0079 01       		.uleb128 0x1
 2355 007a 51       		.byte	0x51
 2356 007b 9F       		.byte	0x9f
 2357 007c 00000000 		.4byte	0
 2358 0080 00000000 		.4byte	0
 2359              	.LLST3:
 2360 0084 00000000 		.4byte	.LVL9
 2361 0088 10000000 		.4byte	.LVL11
 2362 008c 0100     		.2byte	0x1
 2363 008e 50       		.byte	0x50
 2364 008f 10000000 		.4byte	.LVL11
 2365 0093 24000000 		.4byte	.LVL13
 2366 0097 0100     		.2byte	0x1
 2367 0099 54       		.byte	0x54
 2368 009a 24000000 		.4byte	.LVL13
 2369 009e 2C000000 		.4byte	.LFE262
 2370 00a2 0400     		.2byte	0x4
 2371 00a4 F3       		.byte	0xf3
 2372 00a5 01       		.uleb128 0x1
 2373 00a6 50       		.byte	0x50
 2374 00a7 9F       		.byte	0x9f
 2375 00a8 00000000 		.4byte	0
 2376 00ac 00000000 		.4byte	0
 2377              	.LLST4:
 2378 00b0 00000000 		.4byte	.LVL9
 2379 00b4 0A000000 		.4byte	.LVL10
 2380 00b8 0100     		.2byte	0x1
 2381 00ba 51       		.byte	0x51
 2382 00bb 0A000000 		.4byte	.LVL10
 2383 00bf 24000000 		.4byte	.LVL13
 2384 00c3 0100     		.2byte	0x1
 2385 00c5 56       		.byte	0x56
 2386 00c6 24000000 		.4byte	.LVL13
 2387 00ca 27000000 		.4byte	.LVL14-1
 2388 00ce 0100     		.2byte	0x1
ARM GAS  /var/folders/c6/c789hm653lg9vtl73krp73tm0000gn/T//ccfdOrSk.s 			page 57


 2389 00d0 52       		.byte	0x52
 2390 00d1 27000000 		.4byte	.LVL14-1
 2391 00d5 2C000000 		.4byte	.LFE262
 2392 00d9 0400     		.2byte	0x4
 2393 00db F3       		.byte	0xf3
 2394 00dc 01       		.uleb128 0x1
 2395 00dd 51       		.byte	0x51
 2396 00de 9F       		.byte	0x9f
 2397 00df 00000000 		.4byte	0
 2398 00e3 00000000 		.4byte	0
 2399              		.section	.debug_aranges,"",%progbits
 2400 0000 2C000000 		.4byte	0x2c
 2401 0004 0200     		.2byte	0x2
 2402 0006 00000000 		.4byte	.Ldebug_info0
 2403 000a 04       		.byte	0x4
 2404 000b 00       		.byte	0
 2405 000c 0000     		.2byte	0
 2406 000e 0000     		.2byte	0
 2407 0010 00000000 		.4byte	.LFB260
 2408 0014 28000000 		.4byte	.LFE260-.LFB260
 2409 0018 00000000 		.4byte	.LFB261
 2410 001c 38000000 		.4byte	.LFE261-.LFB261
 2411 0020 00000000 		.4byte	.LFB262
 2412 0024 2C000000 		.4byte	.LFE262-.LFB262
 2413 0028 00000000 		.4byte	0
 2414 002c 00000000 		.4byte	0
 2415              		.section	.debug_ranges,"",%progbits
 2416              	.Ldebug_ranges0:
 2417 0000 00000000 		.4byte	.LFB260
 2418 0004 28000000 		.4byte	.LFE260
 2419 0008 00000000 		.4byte	.LFB261
 2420 000c 38000000 		.4byte	.LFE261
 2421 0010 00000000 		.4byte	.LFB262
 2422 0014 2C000000 		.4byte	.LFE262
 2423 0018 00000000 		.4byte	0
 2424 001c 00000000 		.4byte	0
 2425              		.section	.debug_line,"",%progbits
 2426              	.Ldebug_line0:
 2427 0000 AC020000 		.section	.debug_str,"MS",%progbits,1
 2427      02004602 
 2427      00000201 
 2427      FB0E0D00 
 2427      01010101 
 2428              	.LASF156:
 2429 0000 474E5520 		.ascii	"GNU C 4.8.4 20140725 (release) [ARM/embedded-4_8-br"
 2429      4320342E 
 2429      382E3420 
 2429      32303134 
 2429      30373235 
 2430 0033 616E6368 		.ascii	"anch revision 213147] -mcpu=cortex-m4 -mno-thumb-in"
 2430      20726576 
 2430      6973696F 
 2430      6E203231 
 2430      33313437 
 2431 0066 74657277 		.ascii	"terwork -mthumb -ggdb -O2 -fomit-frame-pointer -fal"
 2431      6F726B20 
 2431      2D6D7468 
ARM GAS  /var/folders/c6/c789hm653lg9vtl73krp73tm0000gn/T//ccfdOrSk.s 			page 58


 2431      756D6220 
 2431      2D676764 
 2432 0099 69676E2D 		.ascii	"ign-functions=16 -ffunction-sections -fdata-section"
 2432      66756E63 
 2432      74696F6E 
 2432      733D3136 
 2432      202D6666 
 2433 00cc 73202D66 		.ascii	"s -fno-common -flto\000"
 2433      6E6F2D63 
 2433      6F6D6D6F 
 2433      6E202D66 
 2433      6C746F00 
 2434              	.LASF100:
 2435 00e0 74625F70 		.ascii	"tb_ptr\000"
 2435      747200
 2436              	.LASF57:
 2437 00e7 72656164 		.ascii	"ready_list_t\000"
 2437      795F6C69 
 2437      73745F74 
 2437      00
 2438              	.LASF94:
 2439 00f4 73655F74 		.ascii	"se_time\000"
 2439      696D6500 
 2440              	.LASF118:
 2441 00fc 77747472 		.ascii	"wttrp\000"
 2441      7000
 2442              	.LASF115:
 2443 0102 7264796D 		.ascii	"rdymsg\000"
 2443      736700
 2444              	.LASF18:
 2445 0109 75696E74 		.ascii	"uint64_t\000"
 2445      36345F74 
 2445      00
 2446              	.LASF87:
 2447 0112 6B65726E 		.ascii	"kernel_stats\000"
 2447      656C5F73 
 2447      74617473 
 2447      00
 2448              	.LASF4:
 2449 011f 5F5F7569 		.ascii	"__uint8_t\000"
 2449      6E74385F 
 2449      7400
 2450              	.LASF134:
 2451 0129 4F545950 		.ascii	"OTYPER\000"
 2451      455200
 2452              	.LASF93:
 2453 0130 706F7274 		.ascii	"port_intctx\000"
 2453      5F696E74 
 2453      63747800 
 2454              	.LASF56:
 2455 013c 63685F74 		.ascii	"ch_threads_queue\000"
 2455      68726561 
 2455      64735F71 
 2455      75657565 
 2455      00
 2456              	.LASF76:
 2457 014d 73797374 		.ascii	"system_debug_t\000"
ARM GAS  /var/folders/c6/c789hm653lg9vtl73krp73tm0000gn/T//ccfdOrSk.s 			page 59


 2457      656D5F64 
 2457      65627567 
 2457      5F7400
 2458              	.LASF142:
 2459 015c 696F706F 		.ascii	"ioportmask_t\000"
 2459      72746D61 
 2459      736B5F74 
 2459      00
 2460              	.LASF106:
 2461 0169 776F7273 		.ascii	"worst\000"
 2461      7400
 2462              	.LASF109:
 2463 016f 74696D65 		.ascii	"time_measurement_t\000"
 2463      5F6D6561 
 2463      73757265 
 2463      6D656E74 
 2463      5F7400
 2464              	.LASF133:
 2465 0182 4D4F4445 		.ascii	"MODER\000"
 2465      5200
 2466              	.LASF13:
 2467 0188 6C6F6E67 		.ascii	"long long unsigned int\000"
 2467      206C6F6E 
 2467      6720756E 
 2467      7369676E 
 2467      65642069 
 2468              	.LASF102:
 2469 019f 63685F74 		.ascii	"ch_trace_buffer_t\000"
 2469      72616365 
 2469      5F627566 
 2469      6665725F 
 2469      7400
 2470              	.LASF97:
 2471 01b1 73655F73 		.ascii	"se_state\000"
 2471      74617465 
 2471      00
 2472              	.LASF136:
 2473 01ba 50555044 		.ascii	"PUPDR\000"
 2473      5200
 2474              	.LASF116:
 2475 01c0 65786974 		.ascii	"exitcode\000"
 2475      636F6465 
 2475      00
 2476              	.LASF86:
 2477 01c9 6D61696E 		.ascii	"mainthread\000"
 2477      74687265 
 2477      616400
 2478              	.LASF73:
 2479 01d4 76697274 		.ascii	"virtual_timers_list_t\000"
 2479      75616C5F 
 2479      74696D65 
 2479      72735F6C 
 2479      6973745F 
 2480              	.LASF155:
 2481 01ea 49544D5F 		.ascii	"ITM_RxBuffer\000"
 2481      52784275 
 2481      66666572 
ARM GAS  /var/folders/c6/c789hm653lg9vtl73krp73tm0000gn/T//ccfdOrSk.s 			page 60


 2481      00
 2482              	.LASF21:
 2483 01f7 72747469 		.ascii	"rttime_t\000"
 2483      6D655F74 
 2483      00
 2484              	.LASF34:
 2485 0200 705F7072 		.ascii	"p_prio\000"
 2485      696F00
 2486              	.LASF11:
 2487 0207 6C6F6E67 		.ascii	"long long int\000"
 2487      206C6F6E 
 2487      6720696E 
 2487      7400
 2488              	.LASF1:
 2489 0215 7369676E 		.ascii	"signed char\000"
 2489      65642063 
 2489      68617200 
 2490              	.LASF137:
 2491 0221 42535252 		.ascii	"BSRR\000"
 2491      00
 2492              	.LASF49:
 2493 0226 705F6D70 		.ascii	"p_mpool\000"
 2493      6F6F6C00 
 2494              	.LASF126:
 2495 022e 6D5F7175 		.ascii	"m_queue\000"
 2495      65756500 
 2496              	.LASF85:
 2497 0236 76746C69 		.ascii	"vtlist\000"
 2497      737400
 2498              	.LASF148:
 2499 023d 62697473 		.ascii	"bits\000"
 2499      00
 2500              	.LASF8:
 2501 0242 6C6F6E67 		.ascii	"long int\000"
 2501      20696E74 
 2501      00
 2502              	.LASF23:
 2503 024b 74737461 		.ascii	"tstate_t\000"
 2503      74655F74 
 2503      00
 2504              	.LASF95:
 2505 0254 73655F74 		.ascii	"se_tp\000"
 2505      7000
 2506              	.LASF15:
 2507 025a 75696E74 		.ascii	"uint16_t\000"
 2507      31365F74 
 2507      00
 2508              	.LASF36:
 2509 0263 705F6E65 		.ascii	"p_newer\000"
 2509      77657200 
 2510              	.LASF123:
 2511 026b 735F7175 		.ascii	"s_queue\000"
 2511      65756500 
 2512              	.LASF99:
 2513 0273 74625F73 		.ascii	"tb_size\000"
 2513      697A6500 
 2514              	.LASF135:
ARM GAS  /var/folders/c6/c789hm653lg9vtl73krp73tm0000gn/T//ccfdOrSk.s 			page 61


 2515 027b 4F535045 		.ascii	"OSPEEDR\000"
 2515      45445200 
 2516              	.LASF62:
 2517 0283 725F6E65 		.ascii	"r_newer\000"
 2517      77657200 
 2518              	.LASF146:
 2519 028b 6D61736B 		.ascii	"mask\000"
 2519      00
 2520              	.LASF90:
 2521 0290 72656761 		.ascii	"regarm_t\000"
 2521      726D5F74 
 2521      00
 2522              	.LASF69:
 2523 0299 76745F70 		.ascii	"vt_prev\000"
 2523      72657600 
 2524              	.LASF160:
 2525 02a1 63685379 		.ascii	"chSysHalt\000"
 2525      7348616C 
 2525      7400
 2526              	.LASF77:
 2527 02ab 63685F73 		.ascii	"ch_system_debug\000"
 2527      79737465 
 2527      6D5F6465 
 2527      62756700 
 2528              	.LASF141:
 2529 02bb 73746D33 		.ascii	"stm32_gpio_t\000"
 2529      325F6770 
 2529      696F5F74 
 2529      00
 2530              	.LASF157:
 2531 02c8 2E2E2F2E 		.ascii	"../../../os/hal/src/pal.c\000"
 2531      2E2F2E2E 
 2531      2F6F732F 
 2531      68616C2F 
 2531      7372632F 
 2532              	.LASF130:
 2533 02e2 6D757465 		.ascii	"mutex_t\000"
 2533      785F7400 
 2534              	.LASF80:
 2535 02ea 6C6F636B 		.ascii	"lock_cnt\000"
 2535      5F636E74 
 2535      00
 2536              	.LASF147:
 2537 02f3 494F4275 		.ascii	"IOBus\000"
 2537      7300
 2538              	.LASF28:
 2539 02f9 636E745F 		.ascii	"cnt_t\000"
 2539      7400
 2540              	.LASF39:
 2541 02ff 705F7374 		.ascii	"p_stklimit\000"
 2541      6B6C696D 
 2541      697400
 2542              	.LASF0:
 2543 030a 756E7369 		.ascii	"unsigned int\000"
 2543      676E6564 
 2543      20696E74 
 2543      00
ARM GAS  /var/folders/c6/c789hm653lg9vtl73krp73tm0000gn/T//ccfdOrSk.s 			page 62


 2544              	.LASF68:
 2545 0317 76745F6E 		.ascii	"vt_next\000"
 2545      65787400 
 2546              	.LASF119:
 2547 031f 77747365 		.ascii	"wtsemp\000"
 2547      6D7000
 2548              	.LASF44:
 2549 0326 705F6D73 		.ascii	"p_msgqueue\000"
 2549      67717565 
 2549      756500
 2550              	.LASF138:
 2551 0331 4C434B52 		.ascii	"LCKR\000"
 2551      00
 2552              	.LASF110:
 2553 0336 6E5F6972 		.ascii	"n_irq\000"
 2553      7100
 2554              	.LASF124:
 2555 033c 735F636E 		.ascii	"s_cnt\000"
 2555      7400
 2556              	.LASF158:
 2557 0342 2F557365 		.ascii	"/Users/savonetj/Downloads/ChibiOS_3.0.2/demos/STM32"
 2557      72732F73 
 2557      61766F6E 
 2557      65746A2F 
 2557      446F776E 
 2558 0375 2F52542D 		.ascii	"/RT-STM32F407-OLIMEX_E407-LWIP-FATFS-USB\000"
 2558      53544D33 
 2558      32463430 
 2558      372D4F4C 
 2558      494D4558 
 2559              	.LASF6:
 2560 039e 73686F72 		.ascii	"short unsigned int\000"
 2560      7420756E 
 2560      7369676E 
 2560      65642069 
 2560      6E7400
 2561              	.LASF114:
 2562 03b1 6B65726E 		.ascii	"kernel_stats_t\000"
 2562      656C5F73 
 2562      74617473 
 2562      5F7400
 2563              	.LASF53:
 2564 03c0 63685F74 		.ascii	"ch_thread\000"
 2564      68726561 
 2564      6400
 2565              	.LASF26:
 2566 03ca 6D73675F 		.ascii	"msg_t\000"
 2566      7400
 2567              	.LASF107:
 2568 03d0 6C617374 		.ascii	"last\000"
 2568      00
 2569              	.LASF29:
 2570 03d5 75636E74 		.ascii	"ucnt_t\000"
 2570      5F7400
 2571              	.LASF82:
 2572 03dc 63685F73 		.ascii	"ch_system_t\000"
 2572      79737465 
ARM GAS  /var/folders/c6/c789hm653lg9vtl73krp73tm0000gn/T//ccfdOrSk.s 			page 63


 2572      6D5F7400 
 2573              	.LASF149:
 2574 03e8 5F5F6675 		.ascii	"__func__.7800\000"
 2574      6E635F5F 
 2574      2E373830 
 2574      3000
 2575              	.LASF22:
 2576 03f6 746D6F64 		.ascii	"tmode_t\000"
 2576      655F7400 
 2577              	.LASF150:
 2578 03fe 5F5F6675 		.ascii	"__func__.7805\000"
 2578      6E635F5F 
 2578      2E373830 
 2578      3500
 2579              	.LASF113:
 2580 040c 6D5F6372 		.ascii	"m_crit_isr\000"
 2580      69745F69 
 2580      737200
 2581              	.LASF58:
 2582 0417 63685F72 		.ascii	"ch_ready_list\000"
 2582      65616479 
 2582      5F6C6973 
 2582      7400
 2583              	.LASF27:
 2584 0425 6576656E 		.ascii	"eventmask_t\000"
 2584      746D6173 
 2584      6B5F7400 
 2585              	.LASF7:
 2586 0431 5F5F696E 		.ascii	"__int32_t\000"
 2586      7433325F 
 2586      7400
 2587              	.LASF88:
 2588 043b 69646C65 		.ascii	"idle_thread_wa\000"
 2588      5F746872 
 2588      6561645F 
 2588      776100
 2589              	.LASF91:
 2590 044a 73746B61 		.ascii	"stkalign_t\000"
 2590      6C69676E 
 2590      5F7400
 2591              	.LASF12:
 2592 0455 5F5F7569 		.ascii	"__uint64_t\000"
 2592      6E743634 
 2592      5F7400
 2593              	.LASF43:
 2594 0460 705F7761 		.ascii	"p_waiting\000"
 2594      6974696E 
 2594      6700
 2595              	.LASF89:
 2596 046a 73697A65 		.ascii	"sizetype\000"
 2596      74797065 
 2596      00
 2597              	.LASF51:
 2598 0473 74687265 		.ascii	"thread_reference_t\000"
 2598      61645F72 
 2598      65666572 
 2598      656E6365 
ARM GAS  /var/folders/c6/c789hm653lg9vtl73krp73tm0000gn/T//ccfdOrSk.s 			page 64


 2598      5F7400
 2599              	.LASF74:
 2600 0486 63685F76 		.ascii	"ch_virtual_timers_list\000"
 2600      69727475 
 2600      616C5F74 
 2600      696D6572 
 2600      735F6C69 
 2601              	.LASF132:
 2602 049d 636C6561 		.ascii	"clear\000"
 2602      7200
 2603              	.LASF98:
 2604 04a3 63685F73 		.ascii	"ch_swc_event_t\000"
 2604      77635F65 
 2604      76656E74 
 2604      5F7400
 2605              	.LASF75:
 2606 04b2 76745F6C 		.ascii	"vt_lasttime\000"
 2606      61737474 
 2606      696D6500 
 2607              	.LASF37:
 2608 04be 705F6F6C 		.ascii	"p_older\000"
 2608      64657200 
 2609              	.LASF61:
 2610 04c6 725F6374 		.ascii	"r_ctx\000"
 2610      7800
 2611              	.LASF154:
 2612 04cc 5F5F6675 		.ascii	"__func__.7810\000"
 2612      6E635F5F 
 2612      2E373831 
 2612      3000
 2613              	.LASF104:
 2614 04da 746D5F63 		.ascii	"tm_calibration_t\000"
 2614      616C6962 
 2614      72617469 
 2614      6F6E5F74 
 2614      00
 2615              	.LASF64:
 2616 04eb 725F6375 		.ascii	"r_current\000"
 2616      7272656E 
 2616      7400
 2617              	.LASF63:
 2618 04f5 725F6F6C 		.ascii	"r_older\000"
 2618      64657200 
 2619              	.LASF145:
 2620 04fd 706F7274 		.ascii	"portid\000"
 2620      696400
 2621              	.LASF140:
 2622 0504 41465248 		.ascii	"AFRH\000"
 2622      00
 2623              	.LASF108:
 2624 0509 63756D75 		.ascii	"cumulative\000"
 2624      6C617469 
 2624      766500
 2625              	.LASF152:
 2626 0514 70616C53 		.ascii	"palSetBusMode\000"
 2626      65744275 
 2626      734D6F64 
ARM GAS  /var/folders/c6/c789hm653lg9vtl73krp73tm0000gn/T//ccfdOrSk.s 			page 65


 2626      6500
 2627              	.LASF139:
 2628 0522 4146524C 		.ascii	"AFRL\000"
 2628      00
 2629              	.LASF24:
 2630 0527 74726566 		.ascii	"trefs_t\000"
 2630      735F7400 
 2631              	.LASF101:
 2632 052f 74625F62 		.ascii	"tb_buffer\000"
 2632      75666665 
 2632      7200
 2633              	.LASF66:
 2634 0539 76697274 		.ascii	"virtual_timer_t\000"
 2634      75616C5F 
 2634      74696D65 
 2634      725F7400 
 2635              	.LASF33:
 2636 0549 705F7072 		.ascii	"p_prev\000"
 2636      657600
 2637              	.LASF25:
 2638 0550 74707269 		.ascii	"tprio_t\000"
 2638      6F5F7400 
 2639              	.LASF111:
 2640 0558 6E5F6374 		.ascii	"n_ctxswc\000"
 2640      78737763 
 2640      00
 2641              	.LASF131:
 2642 0561 5F426F6F 		.ascii	"_Bool\000"
 2642      6C00
 2643              	.LASF16:
 2644 0567 696E7433 		.ascii	"int32_t\000"
 2644      325F7400 
 2645              	.LASF2:
 2646 056f 756E7369 		.ascii	"unsigned char\000"
 2646      676E6564 
 2646      20636861 
 2646      7200
 2647              	.LASF47:
 2648 057d 705F6D74 		.ascii	"p_mtxlist\000"
 2648      786C6973 
 2648      7400
 2649              	.LASF3:
 2650 0587 73686F72 		.ascii	"short int\000"
 2650      7420696E 
 2650      7400
 2651              	.LASF40:
 2652 0591 705F7374 		.ascii	"p_state\000"
 2652      61746500 
 2653              	.LASF60:
 2654 0599 725F7072 		.ascii	"r_prio\000"
 2654      696F00
 2655              	.LASF121:
 2656 05a0 65776D61 		.ascii	"ewmask\000"
 2656      736B00
 2657              	.LASF32:
 2658 05a7 705F6E65 		.ascii	"p_next\000"
 2658      787400
ARM GAS  /var/folders/c6/c789hm653lg9vtl73krp73tm0000gn/T//ccfdOrSk.s 			page 66


 2659              	.LASF19:
 2660 05ae 75696E74 		.ascii	"uint_fast8_t\000"
 2660      5F666173 
 2660      74385F74 
 2660      00
 2661              	.LASF41:
 2662 05bb 705F666C 		.ascii	"p_flags\000"
 2662      61677300 
 2663              	.LASF50:
 2664 05c3 705F7374 		.ascii	"p_stats\000"
 2664      61747300 
 2665              	.LASF83:
 2666 05cb 63685F73 		.ascii	"ch_system\000"
 2666      79737465 
 2666      6D00
 2667              	.LASF67:
 2668 05d5 63685F76 		.ascii	"ch_virtual_timer\000"
 2668      69727475 
 2668      616C5F74 
 2668      696D6572 
 2668      00
 2669              	.LASF122:
 2670 05e6 63685F73 		.ascii	"ch_semaphore\000"
 2670      656D6170 
 2670      686F7265 
 2670      00
 2671              	.LASF46:
 2672 05f3 705F6570 		.ascii	"p_epending\000"
 2672      656E6469 
 2672      6E6700
 2673              	.LASF17:
 2674 05fe 75696E74 		.ascii	"uint32_t\000"
 2674      33325F74 
 2674      00
 2675              	.LASF120:
 2676 0607 77746D74 		.ascii	"wtmtxp\000"
 2676      787000
 2677              	.LASF59:
 2678 060e 725F7175 		.ascii	"r_queue\000"
 2678      65756500 
 2679              	.LASF70:
 2680 0616 76745F64 		.ascii	"vt_delta\000"
 2680      656C7461 
 2680      00
 2681              	.LASF54:
 2682 061f 63685F74 		.ascii	"ch_threads_list\000"
 2682      68726561 
 2682      64735F6C 
 2682      69737400 
 2683              	.LASF10:
 2684 062f 6C6F6E67 		.ascii	"long unsigned int\000"
 2684      20756E73 
 2684      69676E65 
 2684      6420696E 
 2684      7400
 2685              	.LASF129:
 2686 0641 63686172 		.ascii	"char\000"
ARM GAS  /var/folders/c6/c789hm653lg9vtl73krp73tm0000gn/T//ccfdOrSk.s 			page 67


 2686      00
 2687              	.LASF153:
 2688 0646 6D6F6465 		.ascii	"mode\000"
 2688      00
 2689              	.LASF159:
 2690 064b 70616C52 		.ascii	"palReadBus\000"
 2690      65616442 
 2690      757300
 2691              	.LASF5:
 2692 0656 5F5F7569 		.ascii	"__uint16_t\000"
 2692      6E743136 
 2692      5F7400
 2693              	.LASF31:
 2694 0661 74687265 		.ascii	"thread_t\000"
 2694      61645F74 
 2694      00
 2695              	.LASF105:
 2696 066a 62657374 		.ascii	"best\000"
 2696      00
 2697              	.LASF128:
 2698 066f 6D5F6E65 		.ascii	"m_next\000"
 2698      787400
 2699              	.LASF30:
 2700 0676 73797374 		.ascii	"systime_t\000"
 2700      696D655F 
 2700      7400
 2701              	.LASF48:
 2702 0680 705F7265 		.ascii	"p_realprio\000"
 2702      616C7072 
 2702      696F00
 2703              	.LASF65:
 2704 068b 76746675 		.ascii	"vtfunc_t\000"
 2704      6E635F74 
 2704      00
 2705              	.LASF9:
 2706 0694 5F5F7569 		.ascii	"__uint32_t\000"
 2706      6E743332 
 2706      5F7400
 2707              	.LASF78:
 2708 069f 70616E69 		.ascii	"panic_msg\000"
 2708      635F6D73 
 2708      6700
 2709              	.LASF103:
 2710 06a9 6F666673 		.ascii	"offset\000"
 2710      657400
 2711              	.LASF144:
 2712 06b0 696F706F 		.ascii	"ioportid_t\000"
 2712      72746964 
 2712      5F7400
 2713              	.LASF92:
 2714 06bb 636F6E74 		.ascii	"context\000"
 2714      65787400 
 2715              	.LASF161:
 2716 06c3 5F70616C 		.ascii	"_pal_lld_setgroupmode\000"
 2716      5F6C6C64 
 2716      5F736574 
 2716      67726F75 
ARM GAS  /var/folders/c6/c789hm653lg9vtl73krp73tm0000gn/T//ccfdOrSk.s 			page 68


 2716      706D6F64 
 2717              	.LASF20:
 2718 06d9 7274636E 		.ascii	"rtcnt_t\000"
 2718      745F7400 
 2719              	.LASF72:
 2720 06e1 76745F70 		.ascii	"vt_par\000"
 2720      617200
 2721              	.LASF151:
 2722 06e8 70616C57 		.ascii	"palWriteBus\000"
 2722      72697465 
 2722      42757300 
 2723              	.LASF55:
 2724 06f4 74687265 		.ascii	"threads_queue_t\000"
 2724      6164735F 
 2724      71756575 
 2724      655F7400 
 2725              	.LASF125:
 2726 0704 63685F6D 		.ascii	"ch_mutex\000"
 2726      75746578 
 2726      00
 2727              	.LASF42:
 2728 070d 705F7265 		.ascii	"p_refs\000"
 2728      667300
 2729              	.LASF79:
 2730 0714 6973725F 		.ascii	"isr_cnt\000"
 2730      636E7400 
 2731              	.LASF84:
 2732 071c 726C6973 		.ascii	"rlist\000"
 2732      7400
 2733              	.LASF14:
 2734 0722 75696E74 		.ascii	"uint8_t\000"
 2734      385F7400 
 2735              	.LASF117:
 2736 072a 77746F62 		.ascii	"wtobjp\000"
 2736      6A7000
 2737              	.LASF38:
 2738 0731 705F6E61 		.ascii	"p_name\000"
 2738      6D6500
 2739              	.LASF52:
 2740 0738 74687265 		.ascii	"threads_list_t\000"
 2740      6164735F 
 2740      6C697374 
 2740      5F7400
 2741              	.LASF81:
 2742 0747 74726163 		.ascii	"trace_buffer\000"
 2742      655F6275 
 2742      66666572 
 2742      00
 2743              	.LASF45:
 2744 0754 705F6D73 		.ascii	"p_msg\000"
 2744      6700
 2745              	.LASF143:
 2746 075a 696F6D6F 		.ascii	"iomode_t\000"
 2746      64655F74 
 2746      00
 2747              	.LASF112:
 2748 0763 6D5F6372 		.ascii	"m_crit_thd\000"
ARM GAS  /var/folders/c6/c789hm653lg9vtl73krp73tm0000gn/T//ccfdOrSk.s 			page 69


 2748      69745F74 
 2748      686400
 2749              	.LASF127:
 2750 076e 6D5F6F77 		.ascii	"m_owner\000"
 2750      6E657200 
 2751              	.LASF96:
 2752 0776 73655F77 		.ascii	"se_wtobjp\000"
 2752      746F626A 
 2752      7000
 2753              	.LASF35:
 2754 0780 705F6374 		.ascii	"p_ctx\000"
 2754      7800
 2755              	.LASF71:
 2756 0786 76745F66 		.ascii	"vt_func\000"
 2756      756E6300 
 2757              		.comm	__gnu_lto_v1,1,1
 2758              		.ident	"GCC: (GNU Tools for ARM Embedded Processors) 4.8.4 20140725 (release) [ARM/embedded-4_8-br
ARM GAS  /var/folders/c6/c789hm653lg9vtl73krp73tm0000gn/T//ccfdOrSk.s 			page 70


DEFINED SYMBOLS
                            *ABS*:0000000000000000 pal.c
/var/folders/c6/c789hm653lg9vtl73krp73tm0000gn/T//ccfdOrSk.s:253    .text.palReadBus:0000000000000000 $t
/var/folders/c6/c789hm653lg9vtl73krp73tm0000gn/T//ccfdOrSk.s:259    .text.palReadBus:0000000000000000 palReadBus
/var/folders/c6/c789hm653lg9vtl73krp73tm0000gn/T//ccfdOrSk.s:298    .text.palReadBus:0000000000000024 $d
/var/folders/c6/c789hm653lg9vtl73krp73tm0000gn/T//ccfdOrSk.s:303    .text.palWriteBus:0000000000000000 $t
/var/folders/c6/c789hm653lg9vtl73krp73tm0000gn/T//ccfdOrSk.s:309    .text.palWriteBus:0000000000000000 palWriteBus
/var/folders/c6/c789hm653lg9vtl73krp73tm0000gn/T//ccfdOrSk.s:355    .text.palWriteBus:0000000000000034 $d
/var/folders/c6/c789hm653lg9vtl73krp73tm0000gn/T//ccfdOrSk.s:360    .text.palSetBusMode:0000000000000000 $t
/var/folders/c6/c789hm653lg9vtl73krp73tm0000gn/T//ccfdOrSk.s:366    .text.palSetBusMode:0000000000000000 palSetBusMode
/var/folders/c6/c789hm653lg9vtl73krp73tm0000gn/T//ccfdOrSk.s:411    .text.palSetBusMode:0000000000000028 $d
/var/folders/c6/c789hm653lg9vtl73krp73tm0000gn/T//ccfdOrSk.s:416    .rodata.__func__.7810:0000000000000000 $d
/var/folders/c6/c789hm653lg9vtl73krp73tm0000gn/T//ccfdOrSk.s:420    .rodata.__func__.7810:0000000000000000 __func__.7810
/var/folders/c6/c789hm653lg9vtl73krp73tm0000gn/T//ccfdOrSk.s:423    .rodata.__func__.7800:0000000000000000 $d
/var/folders/c6/c789hm653lg9vtl73krp73tm0000gn/T//ccfdOrSk.s:427    .rodata.__func__.7800:0000000000000000 __func__.7800
/var/folders/c6/c789hm653lg9vtl73krp73tm0000gn/T//ccfdOrSk.s:430    .rodata.__func__.7805:0000000000000000 $d
/var/folders/c6/c789hm653lg9vtl73krp73tm0000gn/T//ccfdOrSk.s:434    .rodata.__func__.7805:0000000000000000 __func__.7805
                            *COM*:0000000000000001 __gnu_lto_v1
                     .debug_frame:0000000000000010 $d
/var/folders/c6/c789hm653lg9vtl73krp73tm0000gn/T//ccfdOrSk.s:302    .text.palReadBus:0000000000000028 $t
/var/folders/c6/c789hm653lg9vtl73krp73tm0000gn/T//ccfdOrSk.s:359    .text.palWriteBus:0000000000000038 $t
/var/folders/c6/c789hm653lg9vtl73krp73tm0000gn/T//ccfdOrSk.s:415    .text.palSetBusMode:000000000000002c $t

UNDEFINED SYMBOLS
chSysHalt
_pal_lld_setgroupmode
