ARM GAS  /var/folders/c6/c789hm653lg9vtl73krp73tm0000gn/T//ccHN0jlm.s 			page 1


   1              		.syntax unified
   2              		.cpu cortex-m4
   3              		.fpu softvfp
   4              		.eabi_attribute 20, 1
   5              		.eabi_attribute 21, 1
   6              		.eabi_attribute 23, 3
   7              		.eabi_attribute 24, 1
   8              		.eabi_attribute 25, 1
   9              		.eabi_attribute 26, 1
  10              		.eabi_attribute 30, 2
  11              		.eabi_attribute 34, 1
  12              		.eabi_attribute 18, 4
  13              		.thumb
  14              		.file	"pal_lld.c"
  15              		.text
  16              	.Ltext0:
  17              		.section	.gnu.lto_.jmpfuncs.374e03f3a3ccc29e,"",%progbits
  18 0000 789C6362 		.ascii	"x\234cb`b\300\006\330\2404\023\003##;\003\000\001/\000"
  18      6062C006 
  18      D8A03413 
  18      0323233B 
  18      0300012F 
  19 0015 16       		.ascii	"\026"
  20              		.text
  21              		.section	.gnu.lto_.inline.374e03f3a3ccc29e,"",%progbits
  22 0000 789C6362 		.ascii	"x\234cb`b\300\006vBi\240l;c\033##;\003#\003\003\263"
  22      6062C006 
  22      764269A0 
  22      6C3B631B 
  22      23233B03 
  23 0018 02987400 		.ascii	"\002\230t\000\223\011`\262\201\021L-\200P\007 \024\203"
  23      930960B2 
  23      81114C2D 
  23      80500720 
  23      1483
  24 002a C021C60B 		.ascii	"\300!\306\013\257\271\031\354\036\\afb`|\301\316\002"
  24      AFB919EC 
  24      1E5C6166 
  24      62607CC1 
  24      CE02
  25 003c 21410407 		.ascii	"!A\004\007\230\311\001\"\004\300L\001\020\241\000f*"
  25      98C90122 
  25      04C04C01 
  25      10A10066 
  25      2A
  26 004d 80080730 		.ascii	"\200\010\0070\323\001D402A(0\311\004\341\200\335\313"
  26      D3014434 
  26      30324128 
  26      30C904E1 
  26      80DDCB
  27 0060 C860B389 		.ascii	"\310`\263\211\211\221\221\011h\033\003sH\313y\005\006"
  27      89919109 
  27      681B0373 
  27      48CB7905 
  27      06
  28 0071 A1391781 		.ascii	"\2419\027\201v\011]\350ad\001;\034\000j\333\037\011"
  28      76095DE8 
ARM GAS  /var/folders/c6/c789hm653lg9vtl73krp73tm0000gn/T//ccHN0jlm.s 			page 2


  28      6164013B 
  28      1C006ADB 
  28      1F09
  29              		.text
  30              		.section	.gnu.lto_.pureconst.374e03f3a3ccc29e,"",%progbits
  31 0000 789C6362 		.ascii	"x\234cb`b`e\200\000&\006)F)\000\001\006\000A"
  31      60626065 
  31      80002606 
  31      29462900 
  31      01060041 
  32              		.text
  33              		.section	.gnu.lto__pal_lld_init.374e03f3a3ccc29e,"",%progbits
  34 0000 789CB5DA 		.ascii	"x\234\265\332[l\024U\034\307\361sfwgg\357+\275\323\026"
  34      5B6C1455 
  34      1CC7F173 
  34      66776767 
  34      EF2BBDD3 
  35 0015 4AA1DC4A 		.ascii	"J\241\334J\273\364\002\224r+P(\205\2266\261&\032\037"
  35      BBF40294 
  35      722B5028 
  35      859636B1 
  35      261A1F
  36 0028 4CAD71DD 		.ascii	"L\255q\335\244\265\215(/>0\005B\232`\260!&\026y\201"
  36      A4B58D28 
  36      2F3E3005 
  36      429A60B0 
  36      21261679 
  37 003d A8504D04 		.ascii	"\250PM\004\324\227\032.6\204(\305@\252Bbx\320\"Qc$\201"
  37      D4971A2E 
  37      368428C5 
  37      40AA4262 
  37      78D02251 
  38 0054 17A19290 		.ascii	"\027\241\222\220:\377\371o;\377%\263{\226\354i\243\277"
  38      3AFFF96F 
  38      3BFF25B3 
  38      7B96EC69 
  38      A3BF
  39 0066 B6424F3F 		.ascii	"\266BO?\3353\375>\2510\205=\375V`\374\373r\005c\015"
  39      DD33FD3E 
  39      A930853D 
  39      FD5660FC 
  39      FB720563 
  40 007b C67BEE60 		.ascii	"\306{\356`\\\031\274\301X\277\246p\016\0370\316\366"
  40      5C19BCC1 
  40      58BFA670 
  40      0E1F30CE 
  40      F6
  41 008c 297CDF4B 		.ascii	")|\337K\334\374\273g\225\321\211\251\2513\223\337\235"
  41      DCFCBB67 
  41      95D189A9 
  41      A93393DF 
  41      9D
  42 009d B9C03F53 		.ascii	"\271\300?S\006\271\302b\2349`\\0*\214\306{8\233\003"
  42      06B9C262 
  42      9C39605C 
  42      302A8CC6 
  42      7B389B03 
ARM GAS  /var/folders/c6/c789hm653lg9vtl73krp73tm0000gn/T//ccHN0jlm.s 			page 3


  43 00b1 1F65C164 		.ascii	"\037e\301d\303\344\300\344\302\344\301\344\303\024\300"
  43      C3E4C0E4 
  43      C2E4C1E4 
  43      C314C0
  44 00c0 CC852984 		.ascii	"\314\205)\204)\202)\206\231\0073\037\246\004f\001L)"
  44      29822986 
  44      9907331F 
  44      A6046601 
  44      4C29
  45 00d2 CC429845 		.ascii	"\314B\230E0e0\213a\226\300,\205Y\006\263\034\246\034"
  45      3065308B 
  45      6196C02C 
  45      855906B3 
  45      1CA61C
  46 00e5 66054C05 		.ascii	"f\005L\005L%L\004f%L\025L5L\015L-\314*\230\3250k`\352"
  46      4C254C04 
  46      66254C15 
  46      4C354C0D 
  46      4C2DCC2A 
  47 00ff 60D6C2D4 		.ascii	"`\326\302\324\303\254\203Y\017\263\001f#\314&\230\006"
  47      C3AC8359 
  47      0FB30166 
  47      23CC2698 
  47      06
  48 0110 98CD305B 		.ascii	"\230\3150[`\266\3024\302l\203\331\016\323\004\263\003"
  48      60B6C234 
  48      C26C83D9 
  48      0ED304B3 
  48      03
  49 0121 A6196627 		.ascii	"\246\031f'\314.\230\026\230V\230\3350m0\3550\306\233"
  49      CC2E9816 
  49      985698DD 
  49      306D30ED 
  49      30C69B
  50 0134 8B1DD4F5 		.ascii	"\213\035\324\365\301\022\306\272\314O;\214\205\273x"
  50      C112C6BA 
  50      CC4F3B8C 
  50      85BB78
  51 0143 C178BD8D 		.ascii	"\301x\275\215\367\216\353\354\362\355\221\207\343J'"
  51      F78EEBEC 
  51      F2ED9187 
  51      E34A27
  52 0152 3FC95D2C 		.ascii	"?\311],\312\225r\366\271~\260?\034\343\3748\373\210"
  52      CA9572F6 
  52      B97EB03F 
  52      1CE3FC38 
  52      FB88
  53 0164 C7B8F2A2 		.ascii	"\307\270\362\2421\016\375\301\200\356d\346\207\346\345"
  53      310EFDC1 
  53      80EE64E6 
  53      87E6E5
  54 0173 BDCAA7AF 		.ascii	"\275\312\247\257\374:;\360\215c\372\253\035Q\374\373"
  54      FC3A3BF0 
  54      8D63FAAB 
  54      1D51FCFB 
  55 0183 6CCA61FE 		.ascii	"l\312a\376\321\345f\374\223g;4\012\237\003\354\352\336"
  55      D1E566FC 
ARM GAS  /var/folders/c6/c789hm653lg9vtl73krp73tm0000gn/T//ccHN0jlm.s 			page 4


  55      93673B34 
  55      0A9F03EC 
  55      EADE
  56 0195 E9835DE9 		.ascii	"\351\203]\351\236\300\355X\252q@&,\036g\251\214\215"
  56      9EC0ED58 
  56      AA714026 
  56      2C1E67A9 
  56      8C8D
  57 01a7 B1FD137F 		.ascii	"\261\375\023\177\337U\361\353{8\177\227=\326\215\003"
  57      DF55F1EB 
  57      7B387F97 
  57      3DD68D03 
  58 01b7 9C70D4A0 		.ascii	"\234p\324\240\256\277\023\343.<\313\370\236\032\234"
  58      AEBF13E3 
  58      2E3CCBF8 
  58      9E1A9C
  59 01c6 E18E9F81 		.ascii	"\341\216\237\201\277,\370u\314<g\264\020?+e'u\375\350"
  59      BF2CF875 
  59      CC3C67B4 
  59      103F2B65 
  59      2775FDE8 
  60 01da E87F877E 		.ascii	"\350\177\207~\340\372Q\275\377\301\324T(\3065\205\325"
  60      E0FA51BD 
  60      FFC1D454 
  60      28C63585 
  60      D5
  61 01eb 72B83338 		.ascii	"r\27038\303Sb\276\363:\023\177\333\340\277i\272\016"
  61      C35362BE 
  61      F33A137F 
  61      DBE0BF69 
  61      BA0E
  62 01fd DAA760B6 		.ascii	"\332\247`\266G:\025V/:\262\007~\326\353l\377\355\311"
  62      473A1556 
  62      2F3AB207 
  62      7ED6EB6C 
  62      FFEDC9
  63 0210 DFC71D33 		.ascii	"\337\307\0353\217\016~\240\237~\337\020\237\345\245"
  63      8F0E7EA0 
  63      9F7EDF10 
  63      9FE5A5
  64 021f C64FF185 		.ascii	"\306O\361\205\261\323?M\027\276>Q>\007_\204\321\017"
  64      B1D33F4D 
  64      17BE3E51 
  64      3E075F84 
  64      D10F
  65 0231 0F15C7B8 		.ascii	"\017\025\307\270\317x\031\372uxm\374\361W\302\031\177"
  65      CF7819FA 
  65      75786DFC 
  65      F157C219 
  65      7F
  66 0242 251CF085 		.ascii	"%\034\360\205_\341\313`\334\305\330\270\267\223\177"
  66      5FE1CB60 
  66      DCC5D8B8 
  66      B7937F
  67 0251 39731B7A 		.ascii	"9s\033z\025^G\377 |m\200\374\214\346\207\3613\2343g"
  67      155E47FF 
  67      207C6D80 
ARM GAS  /var/folders/c6/c789hm653lg9vtl73krp73tm0000gn/T//ccHN0jlm.s 			page 5


  67      FC8CE687 
  67      F1339C33 
  68 0266 18DF16C5 		.ascii	"\030\337\026\305Cw\307\035xP\224g\301Y\341T\010\227"
  68      4377C71D 
  68      78509467 
  68      C159E154 
  68      0897
  69 0278 04844A10 		.ascii	"\004\204J\020Y\210\030!\210l!\302-\001\241\021D6\"~"
  69      59881821 
  69      886C21C2 
  69      2D01A111 
  69      4436227E 
  70 028c 21881C21 		.ascii	"!\210\034!\302#\001\341%\210\234\370\003D\020\271B\204"
  70      C22301E1 
  70      25889CF8 
  70      034410B9 
  70      4284
  71 029e 4F02C24F 		.ascii	"O\002\302O\020\271\361g\342O\013\221'D\004$ \202\004"
  71      10B9F167 
  71      E24F0B91 
  71      27440424 
  71      208204
  72 02b1 91177F26 		.ascii	"\221\027\177&\010\"_\210\010I@\204\011\"\037\323p\317"
  72      08225F88 
  72      08494084 
  72      09221FD3 
  72      70CF
  73 02c3 6A969276 		.ascii	"j\226\222v\263\236{\306fu\3623F\347\322\211\326\200"
  73      B39E7BC6 
  73      6675F233 
  73      46E7D289 
  73      D680
  74 02d5 15AD7BA9 		.ascii	"\025\255{\251\243\325\311\317\011\317\354\201\272&\253"
  74      A3D5C9CF 
  74      09CFEC81 
  74      BA26AB
  75 02e4 D6D750AD 		.ascii	"\326\327P\255\237\315j\375dW\255\002A\265\212H\265n"
  75      9FCD6AFD 
  75      6457AD02 
  75      41B58A48 
  75      B56E
  76 02f6 25DECBCD 		.ascii	"%\336\313\315\324\3672`[\255[x/\005\264Z7\315\207cn"
  76      D4F73260 
  76      5BAD5B78 
  76      2F05B45A 
  76      37CD8763 
  77 030b F287A388 		.ascii	"\362\207\243\210T+C\204J\020si\265\020Q(D\270% 4\202"
  77      542B4384 
  77      4A107369 
  77      B5105128 
  77      44B82520 
  78 0321 28A4D542 		.ascii	"(\244\325BD\221\020\341\221\200\360\022D\021\255\026"
  78      449110E1 
  78      9180F012 
  78      4411AD16 
  79 0331 228A8508 		.ascii	"\"\212\205\010\237\004\204\237 \212i\265\0201O\210\010"
  79      9F04849F 
ARM GAS  /var/folders/c6/c789hm653lg9vtl73krp73tm0000gn/T//ccHN0jlm.s 			page 6


  79      208A69B5 
  79      10314F88 
  79      08
  80 0342 48400409 		.ascii	"H@\004\011b\036\255\026\"\346\013\021!\011\2100A\314"
  80      621EAD16 
  80      22E60B11 
  80      21098830 
  80      41CC
  81 0354 C736DCB7 		.ascii	"\3076\334\267\252\345H\273Zsf\255Z\203V\265\356\313"
  81      AAE548BB 
  81      5A7366AD 
  81      5A8356B5 
  81      EECB
  82 0366 A8962379 		.ascii	"\250\226#y\265\276\205j=4\253\365\257]\265J\004\325"
  82      B5BE856A 
  82      3D34ABF5 
  82      AF5DB54A 
  82      04D5
  83 0378 AA23D59A 		.ascii	"\252#\325\232L\274\227G\251\357e\320\266Z\223x/%\264"
  83      4CBC9747 
  83      A9EF65D0 
  83      B65A9378 
  83      2F25B4
  84 038b 5A8FCC87 		.ascii	"Z\217\314\207cA\362\207\243\216T+C\204J\020\013h\265"
  84      6341F287 
  84      A38E542B 
  84      43844A10 
  84      0B68B5
  85 039e 10512A44 		.ascii	"\020Q*D\270% 4\202(\245\325B\304B!\302#\001\341%\210"
  85      B8252034 
  85      8228A5D5 
  85      42C44221 
  85      C22301E1 
  86 03b4 85B45A88 		.ascii	"\205\264Z\210X$D\370$ \374\004\261\210V\013\021eBD@"
  86      582444F8 
  86      2420FC04 
  86      B188560B 
  86      11654244 
  87 03c9 02224810 		.ascii	"\002\"H\020e\264Z\210X,D\204$ \302\004\261\030\333\360"
  87      65B45A88 
  87      582C4484 
  87      2420C204 
  87      B118DBF0 
  88 03dd D8AA9633 		.ascii	"\330\252\2263\355je\315Z\265\206\254j=\226Q-g\362j\375"
  88      ED6A65CD 
  88      5AB586AC 
  88      6A3D9651 
  88      2D67F26A 
  89 03f2 03D53AA6 		.ascii	"\003\325:\246@\265\206\024\233j-\021T\253\203T\353\270"
  89      40B58614 
  89      9B6A2D11 
  89      54AB8354 
  89      EBB8
  90 0404 92702F1F 		.ascii	"\222p/\037))\357e\310\266Z\346\031\306\267\245\325\202"
  90      2929EF65 
  90      C8B65AE6 
  90      19C6B7A5 
ARM GAS  /var/folders/c6/c789hm653lg9vtl73krp73tm0000gn/T//ccHN0jlm.s 			page 7


  90      D582
  91 0416 83A27C69 		.ascii	"\203\242|i\362\207\243\203T+C\204J\020Ki\265\020\261"
  91      F287A383 
  91      542B4384 
  91      4A104B69 
  91      B510B1
  92 0429 4C88704B 		.ascii	"L\210pK@h\004\261\214V\013\021\313\205\010\217\004\204"
  92      406804B1 
  92      8C560B11 
  92      CB85088F 
  92      0484
  93 043b 972096D3 		.ascii	"\227 \226\323j!\242\\\210\360I@\370\011\242\234V\013"
  93      6A21A25C 
  93      88F04940 
  93      F809A29C 
  93      560B
  94 044d 112B8488 		.ascii	"\021+\204\210\200\004D\220 V\320j!\242B\210\010I@\204"
  94      80044490 
  94      2056D06A 
  94      21A24288 
  94      08494084 
  95 0461 09A202DB 		.ascii	"\011\242\002\333\360\304\252\226+\355je\317Z\265NX\325"
  95      F0C4AA96 
  95      2BED6A65 
  95      CF5AB54E 
  95      58D5
  96 0473 7A22A35A 		.ascii	"z\"\243Z\256\344\325z\004\325\272`V\353\274]\265*\005"
  96      AEE4D57A 
  96      04D5BA60 
  96      56EBBC5D 
  96      B52A05
  97 0486 D5EA23D5 		.ascii	"\325\352#\325\272\224x/\027S\337\313\011\333j]\302{"
  97      BA94782F 
  97      1753DFCB 
  97      09DB6A5D 
  97      C27B
  98 0498 A9A4D5BA 		.ascii	"\251\244\325\272h>\034\221\344\017G\037\251V\206\010"
  98      683E1C91 
  98      E40F471F 
  98      A9568608 
  99 04a8 952022B4 		.ascii	"\225 \"\264Z\210X)D\270% 4\202XI\253\205\210*!\302#"
  99      5A885829 
  99      44B82520 
  99      34825849 
  99      AB85882A 
 100 04bf 01E12588 		.ascii	"\001\341%\210*Z-DT\013\021>\011\010?AT\323j!\242F\210"
 100      2A5A2D44 
 100      540B113E 
 100      09083F41 
 100      54D36A21 
 101 04d6 08484004 		.ascii	"\010H@\004\011\242\206V\013\021\265BDH\002\"L\020\265"
 101      09A28656 
 101      0B11B542 
 101      44480222 
 101      4C10B5
 102 04e9 D886813F 		.ascii	"\330\206\201?f\252\245\246]\255\234Y\253\326\260U\255"
 102      66AAA5A6 
ARM GAS  /var/folders/c6/c789hm653lg9vtl73krp73tm0000gn/T//ccHN0jlm.s 			page 8


 102      5DAD9C59 
 102      ABD6B055 
 102      AD
 103 04fa 195926D5 		.ascii	"\031Y&\325R\223W\353\343\017\014\363of\265~\265\253"
 103      529357EB 
 103      E30F0CF3 
 103      6F66B57E 
 103      B5AB
 104 050c D62A41B5 		.ascii	"\326*A\265\336\343$[w\022/f\"\365\305\014\333f\353\016"
 104      DEE3245B 
 104      77122F66 
 104      22F5C50C 
 104      DB66EB0E 
 105 0520 5ECC2A9A 		.ascii	"^\314*\232\255\011\363\351X\235\374\351\230V\270$(T"
 105      AD09F3E9 
 105      589DFCE9 
 105      9856B824 
 105      2854
 106 0532 A2584DBB 		.ascii	"\242XM\273\205\2125b\205[\202B#\21254\\\250\250\023"
 106      858A3562 
 106      855B8242 
 106      238A3534 
 106      5CA8A813 
 107 0546 2B3C1214 		.ascii	"+<\022\024^\242\250\243\345B\305Z\261\302'A\341'\212"
 107      5EA2A8A3 
 107      E542C55A 
 107      B1C22741 
 107      E1278A
 108 0559 B5345DA8 		.ascii	"\2654]\250\250\027+\002\022\024A\242\250\247\355B\305"
 108      A8172B02 
 108      121441A2 
 108      A8A7ED42 
 108      C5
 109 056a 3AB12224 		.ascii	":\261\"$A\021&\212u\230\210\303V\274\334i\307+w\326"
 109      4111268A 
 109      759888C3 
 109      56BCDC69 
 109      C72B77D6 
 110 057e E275CE8A 		.ascii	"\342u\316\212\327a\031\361r'\217\327Y\210\327~\007\304"
 110      D76119F1 
 110      72278FD7 
 110      5988D77E 
 110      07C4
 111 0590 ABDF6113 		.ascii	"\253\337a\023\257\365\202x\015\323x\035t$\\\314\001"
 111      AFF58278 
 111      0DD3781D 
 111      74245CCC 
 111      01
 112 05a1 47CA8B39 		.ascii	"G\312\2139g\033/\363\014\343\373\322x\301AQ\276!\371"
 112      671B2FF3 
 112      0CE3FBD2 
 112      78C14151 
 112      BE21F9
 113 05b4 E3314CE3 		.ascii	"\3431L\343\225\241B%\212\0154^\250\330(V\270%(4\242"
 113      95A14225 
 113      8A0D345E 
 113      A8D82856 
ARM GAS  /var/folders/c6/c789hm653lg9vtl73krp73tm0000gn/T//ccHN0jlm.s 			page 9


 113      B8252834 
 114 05c9 D848E385 		.ascii	"\330H\343\205\212Mb\205G\202\302K\024\233h\274P\321"
 114      8A4D6285 
 114      4782C24B 
 114      149B68BC 
 114      50D1
 115 05db 2056F824 		.ascii	" V\370$(\374D\321@\343\205\212\315bE@\202\"H\024\233"
 115      28FC44D1 
 115      40E3858A 
 115      CD624540 
 115      82224814 
 116 05f0 69BC50B1 		.ascii	"i\274P\261E\254\010IP\204\211b\013&\342\210\025/-\355"
 116      45AC0849 
 116      50848962 
 116      0B26E288 
 116      152F2DED 
 117 0604 78E5CD5A 		.ascii	"x\345\315Z\274F\254x\035\221\021/-y\274\316C\274>5\343"
 117      BC46AC78 
 117      1D91112F 
 117      2D79BCCE 
 117      43BC3E35 
 118 0619 F5895DBC 		.ascii	"\365\211]\274\266\012\342u\205\306\353t\342\305\234"
 118      B60AE275 
 118      85C6EB74 
 118      E2C59C
 119 0628 4A7D3123 		.ascii	"J}1#\266\361:\215\027\263\225\306\353\224\371x4&\177"
 119      B6F13A8D 
 119      17B395C6 
 119      EB94F978 
 119      34267F
 120 063b 3CAED078 		.ascii	"<\256\320xe\250P\211\242\221\306\013\025\333\304\012"
 120      65A85089 
 120      A291C60B 
 120      15DBC40A 
 121 064b B7048546 		.ascii	"\267\004\205F\024\333h\274P\261]\254\360HPx\211b;\215"
 121      14DB68BC 
 121      50B15DAC 
 121      F0485078 
 121      89623B8D 
 122 065f 172A9AC4 		.ascii	"\027*\232\304\012\237\004\205\237(\232h\274P\261C\254"
 122      0A9F0485 
 122      9F289A68 
 122      BC50B143 
 122      AC
 123 0670 08485004 		.ascii	"\010HP\004\211b\007\215\027*\232\305\212\220\004E\230"
 123      8962078D 
 123      172A9AC5 
 123      8A900445 
 123      98
 124 0681 289A3111 		.ascii	"(\2321\021\307\254xy\322\216W\376\254\305k\324\212\327"
 124      C7AC7879 
 124      D28E57FE 
 124      ACC56BD4 
 124      8AD7
 125 0693 3119F1F2 		.ascii	"1\031\361\362$\217\327_\020\257\253f\274\276\267\213"
 125      248FD75F 
 125      10AFAB66 
ARM GAS  /var/folders/c6/c789hm653lg9vtl73krp73tm0000gn/T//ccHN0jlm.s 			page 10


 125      BCBEB78B 
 126 06a3 D74E41BC 		.ascii	"\327NA\274&h\274\256%^\314X\352\213\031\265\215\327"
 126      2668BCAE 
 126      255ECC58 
 126      EA8B19B5 
 126      8DD7
 127 06b5 35BC989D 		.ascii	"5\274\230\2354^c\346\343\261+\371\3431A\343\225\241"
 127      345E63E6 
 127      E3B12BF9 
 127      E33141E3 
 127      95A1
 128 06c7 42258A5D 		.ascii	"B%\212]4^\250h\021+\334\022\024\032Q\264\320x\241\242"
 128      345EA868 
 128      112BDC12 
 128      141A51B4 
 128      D078A1A2 
 129 06db 55ACF048 		.ascii	"U\254\360HPx\211\242\225\306\013\025\273\305\012\237"
 129      507889A2 
 129      95C60B15 
 129      BBC50A9F 
 130 06eb 04859F28 		.ascii	"\004\205\237(v\323x\241\242M\254\010HP\004\211\242\215"
 130      76D378A1 
 130      A24DAC08 
 130      48500489 
 130      A28D
 131 06fd C60B15ED 		.ascii	"\306\013\025\355bEH\202\"L\024\355\214\375\310\372'"
 131      62454882 
 131      224C14ED 
 131      8CFDC8FA 
 131      27
 132 070e 8E97CD34 		.ascii	"\216\227\3154\310|\3530~w\007o\230\377;vUee\004\377"
 132      C87CEB30 
 132      7E77076F 
 132      98FF3B76 
 132      55656504 
 133 0723 E9DD1379 		.ascii	"\351\335\023y\243\263;\322\327\373\326\333{\"\317w\264"
 133      A3B33BD2 
 133      D7FBD6DB 
 133      7B22CF77 
 133      B4
 134 0734 D654475A 		.ascii	"\326TGZZ\032#M\355\315m{\253#}\235\335\257tw\277V\331"
 134      5A1A234D 
 134      EDCD6D7B 
 134      AB237D9D 
 134      DDAF7477 
 135 074b C55CD1BE 		.ascii	"\305\\\321\276Xo\237\332\325\373\346\353\261\350\377"
 135      586F9FDA 
 135      D5FBE6EB 
 135      B1E8FF
 136 075a 57DAC6D0 		.ascii	"W\332\306\320"
 137              		.text
 138              		.section	.gnu.lto__pal_lld_setgroupmode.374e03f3a3ccc29e,"",%progbits
 139 0000 789C9557 		.ascii	"x\234\225W[hTW\024=\347\334{\347\225h\324\210&1j|\277"
 139      5B685457 
 139      143DE7DC 
 139      7BE79568 
 139      D4882631 
ARM GAS  /var/folders/c6/c789hm653lg9vtl73krp73tm0000gn/T//ccHN0jlm.s 			page 11


 140 0017 27E6A141 		.ascii	"'\346\241A\323\230\346i\013\026\0135\240\375\250F\023"
 140      D398E669 
 140      0B160B35 
 140      A0FDA846 
 140      13
 141 0028 C6D80C19 		.ascii	"\306\330\014\031&i\301\3768q\346#\250\224 1\261\355"
 141      2669C1FE 
 141      3871E623 
 141      A8942031 
 141      B1ED
 142 003a 875A91E0 		.ascii	"\207Z\221\340\253\251\025\0375\"Q\204*\265\205~\351"
 142      ABA9151F 
 142      35225184 
 142      2AB5857E 
 142      E9
 143 004b 88255650 		.ascii	"\210%VP?*\026\013m\375\260\235\356\275\3179w\036\011"
 143      3F2A160B 
 143      6DFDB09D 
 143      EEBDCF39 
 143      771E09
 144 005e CC64D07D 		.ascii	"\314d\320}\356\331{\257u\367Y\347u#\230`\251\277\275"
 144      EED97BAF 
 144      75F759E7 
 144      75239860 
 144      A9BFBD
 145 0071 F0BF6A32 		.ascii	"\360\277j2c\035\320\362,\306E\357\317\214u\273\0047"
 145      631DD0F2 
 145      2CC645EF 
 145      CF8C75BB 
 145      0437
 146 0083 E48321CC 		.ascii	"\344\203!\314\236%,\344q\241\3156\205E=\007\365,\356"
 146      9E252CE4 
 146      71A1CD36 
 146      85453D07 
 146      F52CEE
 147 0096 94490EFD 		.ascii	"\224I\016\375\340\344.\371\340\022\236\210\023\022\335"
 147      E0E42EF9 
 147      E0129E88 
 147      1312DD
 148 00a5 877E6090 		.ascii	"\207~`\220\351\226t7]\036\316\361\201q\266O\030\246"
 148      E9967437 
 148      5D1ECEF1 
 148      8171B64F 
 148      18A6
 149 00b7 E570BADC 		.ascii	"\345p\272\334\036\276o\033\307R\262\346\263\023\241"
 149      1EBE6F1B 
 149      C752B2E6 
 149      B313A1
 150 00c6 50EFE3A7 		.ascii	"P\357\343\247W^\361/\372F\"\307Cob1\316\3338\224]\316"
 150      575EF12F 
 150      FA4622C7 
 150      436F6231 
 150      CEDB3894 
 151 00dc D92ECEB6 		.ascii	"\331.\316\266B\207\027Q#\314\344q\020\366\360H\354\300"
 151      42871751 
 151      23CCE471 
 151      10F6F048 
ARM GAS  /var/folders/c6/c789hm653lg9vtl73krp73tm0000gn/T//ccHN0jlm.s 			page 12


 151      ECC0
 152 00ee E7F9A1E3 		.ascii	"\347\371\241\343\373{C\377\001\264\215\033\202\255\317"
 152      FB7B43FF 
 152      01B48D1B 
 152      82ADCF
 153 00fd 10D9FB63 		.ascii	"\020\331\373cvowO(\026\333G\260\2673\204\035N\206m\314"
 153      766F774F 
 153      2816DB47 
 153      B0B73384 
 153      1D4E866D 
 154 0112 10D6970C 		.ascii	"\020\326\227\014\333\234!\254?\031\326\224!\354h2\354"
 154      DB9C21AC 
 154      3F19D694 
 154      21EC6832 
 154      EC
 155 0123 C30C61C7 		.ascii	"\303\014a\307\016\366\245\210\371Qf\310\320_-wB\221"
 155      0EF6A588 
 155      F95166C8 
 155      D05F2D77 
 155      4291
 156 0135 9158AC9A 		.ascii	"\221X\254\232P\276\014Q\377&\241\366d\210:\322\232\210"
 156      50BE0C51 
 156      FF26A1F6 
 156      64883AD2 
 156      9A88
 157 0147 F2A7430D 		.ascii	"\362\247C\015\211\221\307\261\330\243\373/\236\304\370"
 157      8991C7B1 
 157      D8A3FB2F 
 157      9EC4F8
 158 0156 34982E3F 		.ascii	"4\230.?.\257f~\222\317g\006\264\247\2405\241\035\204"
 158      2EAF667E 
 158      92CF6706 
 158      B4A7A035 
 158      A11D84
 159 0169 D682F634 		.ascii	"\326\202\3664\264\016h\317C\353\341~\016{D&g\2636nN"
 159      B40E68CF 
 159      43EBE17E 
 159      0E7B4426 
 159      67B3366E 
 160 017e 5288C9D8 		.ascii	"R\210\311\330\311Q\260)\330\231\252\260\323\260\223"
 160      C951B029 
 160      D899AAB0 
 160      D3B093
 161 018d 0B9DB3D0 		.ascii	"\013\235\263\320\231\016\004l\006zf\242\311C\223\017"
 161      990E046C 
 161      067A66A2 
 161      C943930F 
 162 019d 861540C2 		.ascii	"\206\025@\302\020$\314\302N!t.Ag6d\2139\2303\027M\021"
 162      1024CCC2 
 162      4E21742E 
 162      41673664 
 162      8B399833 
 163 01b4 9A796816 		.ascii	"\232yh\026\240Y\210f\021\232\305h\226\002\350\004\200"
 163      A0598866 
 163      119AC568 
 163      9602E804 
 163      80
ARM GAS  /var/folders/c6/c789hm653lg9vtl73krp73tm0000gn/T//ccHN0jlm.s 			page 13


 164 01c5 9621C372 		.ascii	"\226!\303r\350\\\200\316\012\214\254D\263\012\215\027"
 164      E85C80CE 
 164      0A8CAC44 
 164      B30A8D17 
 165 01d5 CD6A3425 		.ascii	"\315j4%\230U\212\246\014R/Bj9\272\327\240Y\213\246\002"
 165      98558AA6 
 165      0C522F42 
 165      6A39BAD7 
 165      A0598BA6 
 166 01ea CD3A34EB 		.ascii	"\315:4\353\321T\242\251B\263\001M5\232\032\224\256V"
 166      D154A2A9 
 166      42B3014D 
 166      359A1A94 
 166      AE56
 167 01fc 0950A7C6 		.ascii	"\011P\247\306^\257\206\335\240TjT\322\301\317b\021\330"
 167      5EAF86DD 
 167      A0546A54 
 167      D2C1CF62 
 167      11D8
 168 020e DD45D22F 		.ascii	"\335E\322/Q\022#\021R!\235\275\213N\204-`\341\030i\342"
 168      51122311 
 168      52219DBD 
 168      8B4E842D 
 168      60E11869 
 169 0223 021AE327 		.ascii	"\002\032\343'\026\036\016\307\216\0246\363+\334\202"
 169      161E0EC7 
 169      8E1436F3 
 169      2BDC82
 170 0232 4595E5E3 		.ascii	"E\225\345\343\036\234a\323\200\324\273LH\277\344\207"
 170      1E9C61D3 
 170      80D4BB4C 
 170      48BFE487 
 171 0242 28630438 		.ascii	"(c\0048\331\377\226\006dk\000.\011\010~\023\016\352"
 171      D9FF9606 
 171      646B002E 
 171      09087E13 
 171      0EEA
 172 0254 D024886E 		.ascii	"\320$\210n\225GM\022\327)\342\232\244\270\006\343\\"
 172      95474D12 
 172      D729E29A 
 172      A4B806E3 
 172      5C
 173 0265 933557DE 		.ascii	"\2235W\336\030\256\034\210\022WJ]\203\304\225\243\270"
 173      18AE1C88 
 173      12574A5D 
 173      83C495A3 
 173      B8
 174 0276 CEC6B9A6 		.ascii	"\316\306\271\246h\256\035c\270\246B\224\270\254d\256"
 174      68AE1D63 
 174      B8A64294 
 174      B8AC64AE 
 175 0286 D3C43555 		.ascii	"\323\3045Uq\015\305\271\246i\256P\316\030\262\\\010"
 175      710DC5B9 
 175      A669AE50 
 175      CE18B25C 
 175      08
 176 0297 13993399 		.ascii	"\023\2313\231\354,\221\345\242o\377\361{\226v\343L`"
ARM GAS  /var/folders/c6/c789hm653lg9vtl73krp73tm0000gn/T//ccHN0jlm.s 			page 14


 176      EC2C91E5 
 176      A26FFFF1 
 176      7B9676E3 
 176      4C60
 177 02a9 BAA1B74E 		.ascii	"\272\241\267N\023<\302\351m@\232\213\251\004\037w\020"
 177      133CC2E9 
 177      6D409A8B 
 177      A9041F77 
 177      10
 178 02ba 8E1CB22A 		.ascii	"\216\034\262*+\356\220C6\343\016\251\247\021w\310\311"
 178      2BEE9043 
 178      36E30EA9 
 178      A71177C8 
 178      C9
 179 02cb 12DA014B 		.ascii	"\022\332\001K\312\307\271\032\326p\377\\]\372\014\360"
 179      CAC7B91A 
 179      D670FF5C 
 179      5DFA0CF0 
 180 02db D2B0705D 		.ascii	"\322\260p]\334a\221\027\335%v\210\374\361\015\036e\334"
 180      DC619117 
 180      DD257688 
 180      FCF10D1E 
 180      65DC
 181 02ed C7A70B30 		.ascii	"\307\247\01305\356\027\277\356\2162\001\213A\274\271"
 181      35EE17BF 
 181      EE8E3201 
 181      8B41BCB9 
 182 02fd 1FF0F106 		.ascii	"\037\360\361\006\367\275\321\366(3`F\305\241(8j\335"
 182      F7BDD1F6 
 182      28336046 
 182      C5A12838 
 182      6ADD
 183 030f 7DDBA3CC 		.ascii	"}\333\243\314\204Y\021}\333|\274\316}n\264+\312,PV\234"
 183      8459117D 
 183      DB7CBCCE 
 183      7D6EB42B 
 183      CA2C5056 
 184 0324 C378BDFB 		.ascii	"\303x\275\373:\002\034J\006q\017\235\215\356G\243;P"
 184      3A021C4A 
 184      06710F9D 
 184      8DEE47A3 
 184      3B50
 185 0336 0D93F52C 		.ascii	"\015\223\365,\221\253\362y\377;\366\362\036\242e|\201"
 185      91ABF279 
 185      FF3BF6F2 
 185      1EA2657C 
 185      81
 186 0347 EC45B297 		.ascii	"\354E\262\227hI\313z\341\347\3433A5\252\332)\347\350"
 186      6849CB7A 
 186      E1E7E333 
 186      4135AADA 
 186      29E7E8
 187 035a 40F8324C 		.ascii	"@\3702L\306U\032N\036\204\023\026\351\376\227\341\033"
 187      C6551A4E 
 187      1E841316 
 187      E9FE97E1 
 187      1B
ARM GAS  /var/folders/c6/c789hm653lg9vtl73krp73tm0000gn/T//ccHN0jlm.s 			page 15


 188 036b 5CC7F221 		.ascii	"\\\307\362!L\200\363\341\257mg\001Ml\276\232\321\253"
 188      4C80F3E1 
 188      AF6D6701 
 188      4D6CBE9A 
 188      D1AB
 189 037d 347543A4 		.ascii	"4uC\244j\201\312\375\035u\224\311\263h\376s\030\001"
 189      6A81CAFD 
 189      1D7594C9 
 189      B368FE73 
 189      1801
 190 038f 887D8F0E 		.ascii	"\210}\217\016\025B4\211\344\022\221\024\222\336\317"
 190      15423489 
 190      E4129114 
 190      92DECF
 191 039e 6E5ECED2 		.ascii	"n^\316\322\211R\015g\302\231\332\004\376\333\271 \305"
 191      89520D67 
 191      C299DA04 
 191      FEDBB920 
 191      C5
 192 03af AD8747AF 		.ascii	"\255\207G\257D\015\2358g\005;\023\212@\262\365\025\373"
 192      440D9D38 
 192      67053B13 
 192      8A40B2F5 
 192      15FB
 193 03c1 121A878F 		.ascii	"\022\032\207\217\317F\254\204\356\344\032\016u\\\017"
 193      CF46AC84 
 193      EEE41A0E 
 193      755C0F
 194 03d0 7F672B30 		.ascii	"\177g+0\227^J\272\236\261\235E@\007!\362\177\037~f\373"
 194      975E4ABA 
 194      9EB19D45 
 194      400721F2 
 194      7F1F7E66 
 195 03e5 E7518846 		.ascii	"\347Q\210Fz\353n\257\252\221\336\333\035\252L\363f@"
 195      7AEB6EAF 
 195      AA91DEDB 
 195      1DAA4CF3 
 195      6640
 196 03f7 EBFA1DBA 		.ascii	"\353\372\035\272\376\007\011\365/HS?\037\277\376\205"
 196      FE0709F5 
 196      2F48533F 
 196      1FBFFE85 
 197 0407 E3D5BF08 		.ascii	"\343\325\277\010\350 4\246\376\305\024\232h\375\\\325"
 197      E82034A6 
 197      FEC5149A 
 197      68FD5CD5 
 198 0417 BF58D7EF 		.ascii	"\277X\327\357\224K\021\3463\326?Gs/\245\315\211K\300"
 198      944B11E6 
 198      33D63F47 
 198      732FA5CD 
 198      894BC0
 199 042a 1ED2329A 		.ascii	"\036\3222\232\177\334dKS\347\1779D\223\346\377\002\315"
 199      7FDC644B 
 199      53E77F39 
 199      4493E6FF 
 199      02CD
 200 043c FF722AED 		.ascii	"\377r*\355\341\321k\277\331$+\322\350\"\022u\271a\017"
ARM GAS  /var/folders/c6/c789hm653lg9vtl73krp73tm0000gn/T//ccHN0jlm.s 			page 16


 200      E1D16BBF 
 200      D9242BD2 
 200      E8221275 
 200      B9610F
 201 044f 75A52203 		.ascii	"u\245\"\003]\342\313}\025\320AH\351\362\247\355\367"
 201      5DE2CB7D 
 201      15D04148 
 201      E9F2A7ED 
 201      F7
 202 0460 52C890BA 		.ascii	"R\310\220\272|\233\254KE\2327\003Zm\253\301\001\257"
 202      7C9BAC4B 
 202      459A3703 
 202      5A6DABC1 
 202      01AF
 203 0472 265CADF7 		.ascii	"&\\\255\367\234\320\373\3523\035*\201h\212N\245\352"
 203      9CD0FBEA 
 203      331D2A81 
 203      688A4EA5 
 203      EA
 204 0483 008760AA 		.ascii	"\000\207`\252Ne\020M\322\351\"\351T&uz\220\240Sy\032"
 204      4E65104D 
 204      D2E922E9 
 204      5426757A 
 204      90A05379 
 205 0498 9D8C449D 		.ascii	"\235\214D\235\236\330C_\243\310@\247k\266s-\320AH\351"
 205      9ED8435F 
 205      A3C840A7 
 205      6BB6732D 
 205      D04148E9 
 206 04ac F4B7EDAF 		.ascii	"\364\267\355\257\240\2209A\235\014\245S\205,\372uB\321"
 206      A0903941 
 206      9D0CA553 
 206      852CFA75 
 206      42D1
 207 04be EBD2146D 		.ascii	"\353\322\024m\332EC}\361E\277\236\352^\247\352{i\373"
 207      DA45437D 
 207      F145BF9E 
 207      EA5EA7EA 
 207      7B69FB
 208 04d1 2B29644D 		.ascii	"+)dM\260>S\325W\251\026\337p\274\276\2524\365Y\343\327"
 208      B03E53D5 
 208      57A916DF 
 208      70BCBEAA 
 208      34F559E3 
 209 04e6 B781EAAB 		.ascii	"\267\201\352\253\032S_5\205\304\004\353\263T}\325z\377"
 209      1A535F35 
 209      85C404EB 
 209      B3547DD5 
 209      7AFF
 210 04f8 B9E862A4 		.ascii	"\271\350b\244\353vx\240@_M5\352\326b\270_\355\013\227"
 210      EB7678A0 
 210      405F4D35 
 210      EAD662B8 
 210      5FED0B97 
 211 050c EEB81A3C 		.ascii	"\356\270\032<Vo?\2779z0\333\316N\271\310\220\327\315"
 211      566F3FBF 
 211      397A30DB 
ARM GAS  /var/folders/c6/c789hm653lg9vtl73krp73tm0000gn/T//ccHN0jlm.s 			page 17


 211      CE4EB9C8 
 211      90D7CD
 212 051f E00F2883 		.ascii	"\340\017(\203N\361\347\003\366\227O-\354\214\261\274"
 212      4EF1E703 
 212      F6974F2D 
 212      EC8CB1BC 
 213 052f FA76ADD5 		.ascii	"\372v\255\325\307\376\300l\015\250\203%2\336\347\215"
 213      C7FEC06C 
 213      0DA88325 
 213      32DEE78D 
 214 053f BC9FEB14 		.ascii	"\274\237\353\024\340\217\201Y\032P\017s6\036@\336\360"
 214      E08F8159 
 214      1A500F73 
 214      361E40DE 
 214      F0
 215 0550 F50AF06A 		.ascii	"\365\012\360j\246\316o\000\015\307\313\227\327{\003"
 215      A6CE6F00 
 215      0DC7CB97 
 215      D77B03
 216 055f E5F784FF 		.ascii	"\345\367\204\377\031\310\323\200F}\217\244\014A~S4\352"
 216      19C8D380 
 216      467D8FA4 
 216      0C417E53 
 216      34EA
 217 0571 F17BF0C3 		.ascii	"\361{\360\303\357\027\326\375\370\365Sn_\240\364\333"
 217      EF17D6FD 
 217      F8F5536E 
 217      5FA0F4DB 
 218 0581 028760C4 		.ascii	"\002\207`\304\211\257+\361z\213\345\277\216\316\342"
 218      89AF2BF1 
 218      7A8BE5BF 
 218      8ECEE2
 219 0590 DDCDEDC5 		.ascii	"\335\315\355\305\201\216`Wg\361\007[\336++-\336\264"
 219      818E6057 
 219      67F1075B 
 219      DE2B2B2D 
 219      DEB4
 220 05a2 A9BE78E3 		.ascii	"\251\276x\343\373\357n\376\264\2648\320\334\276\275"
 220      FBEF6EFE 
 220      B4B438D0 
 220      DCBEBD
 221 05b1 BDBDC5BB 		.ascii	"\275\275\305\273\213Y;\333\272\274\253-\177GKk\320\321"
 221      8B593BDB 
 221      BABCAB2D 
 221      7F474B6B 
 221      D0D1
 222 05c3 D1B537D0 		.ascii	"\321\2657\320\032tvt\006Z[[\202V\340\223@K\320ln\357"
 222      1A747674 
 222      065A5B5B 
 222      8256E093 
 222      404BD06C 
 223 05d9 0A1A90E5 		.ascii	"\012\032\220\345\302\007\177s\347\307\302_\"\374\245"
 223      C2077F73 
 223      E7C7C25F 
 223      22FCA5
 224 05e8 C25FFE3F 		.ascii	"\302_\376?\032`H\244"
 224      1A6048A4 
ARM GAS  /var/folders/c6/c789hm653lg9vtl73krp73tm0000gn/T//ccHN0jlm.s 			page 18


 225              		.text
 226              		.section	.gnu.lto_.symbol_nodes.374e03f3a3ccc29e,"",%progbits
 227 0000 789C6362 		.ascii	"x\234cb`bP`\200\002\246V\246z\006\206\011\347\030\030"
 227      60625060 
 227      8002A656 
 227      A67A0686 
 227      09E71818 
 228 0014 EAEBE775 		.ascii	"\352\353\347u02\2651\3253\"\270\014\000\223\326\011"
 228      3032B531 
 228      D53322B8 
 228      0C0093D6 
 228      09
 229 0025 3D       		.ascii	"="
 230              		.text
 231              		.section	.gnu.lto_.refs.374e03f3a3ccc29e,"",%progbits
 232 0000 789C6362 		.ascii	"x\234cb`b`d\200\002\000\000F\000\006"
 232      60626064 
 232      80020000 
 232      460006
 233              		.text
 234              		.section	.gnu.lto_.decls.374e03f3a3ccc29e,"",%progbits
 235 0000 789CDD5A 		.ascii	"x\234\335Z}p\023\307\025\337=\311\266\214U\342\220!"
 235      7D7013C7 
 235      15DF3DC9 
 235      B68C55E2 
 235      9021
 236 0012 031DA688 		.ascii	"\003\035\246\210I\323d2\001\031\233\244\351?) \033\354"
 236      49D36432 
 236      01199BA4 
 236      E93F2920 
 236      1BEC
 237 0024 A9893512 		.ascii	"\251\2115\022\264\351Lg\324\253-cMeK#\313)\351?= 0\324"
 237      B4E94C67 
 237      D4AB2D63 
 237      4D654B23 
 237      CB29E93F 
 238 003c 69A9711A 		.ascii	"i\251q\032>Z\032L\013\256\011$\030C\010\230\217\010"
 238      3E5A1A4C 
 238      0BAE0924 
 238      18430898 
 238      8F08
 239 004e 42A8C7A6 		.ascii	"B\250\307\246\256K(1\341\313\343B\035\240\024H\370l"
 239      AE4B2831 
 239      E1CBE342 
 239      1DA01448 
 239      F86C
 240 0060 18DCB7EF 		.ascii	"\030\334\267\357\356\244\333Cg\335\021\376\352\015\357"
 240      EEA4DB43 
 240      67DD11FE 
 240      EA0DEF
 241 006f EDFAEEED 		.ascii	"\355\372\356\355o\177o\367\335\356\333\023\002\021\210"
 241      6F7F6FF7 
 241      DDEEDB13 
 241      021188
 242 007e 44091986 		.ascii	"D\011\031\206\353\211'\010\351\260\021\002\377\310\213"
 242      EB892708 
 242      E9B01102 
ARM GAS  /var/folders/c6/c789hm653lg9vtl73krp73tm0000gn/T//ccHN0jlm.s 			page 19


 242      FFC88B
 243 008d 24750920 		.ascii	"$u\011 \353AN\222\373/v\1774H\016\310y\220I\200U\005"
 243      EB414E92 
 243      FB2F767F 
 243      34480EC8 
 243      79904980 
 244 00a3 1204990F 		.ascii	"\022\004\231\017\262\021\356m\000\311\247\262\235\023"
 244      B211EE6D 
 244      00C9A7B2 
 244      9D13
 245 00b1 A406EAD5 		.ascii	"\244\006\352\325 g\241>\236\365\005\365r\220\315P\337"
 245      2067A13E 
 245      9EF505F5 
 245      7290CD50 
 245      DF
 246 00c2 0D3204B2 		.ascii	"\0152\004\262\007\344\002\310>\220K \037\200\\\0019"
 246      07E402C8 
 246      3E904B20 
 246      1F805C01 
 246      39
 247 00d3 00E200DB 		.ascii	"\000\342\000\333\017\241\034\005\3456(\317\201\034\006"
 247      0FA11C05 
 247      E53628CF 
 247      811C06
 248 00e2 E902E906 		.ascii	"\351\002\351\0069\002\322\013\322\007r\024\344\230\306"
 248      3902D20B 
 248      D2077214 
 248      E498C6
 249 00f1 8710B419 		.ascii	"\207\020\264\031\005e?H\014\352\365 q\220\006\220W@"
 249      05653F48 
 249      0CEAF520 
 249      71900690 
 249      5740
 250 0103 7E06B200 		.ascii	"~\006\262\000\344U\220\237S\336W\346\277\003\304NR\276"
 250      E455909F 
 250      53DE57E6 
 250      BF03C44E 
 250      52BE
 251 0115 74687C67 		.ascii	"th|g\376\234\001\311V82~C\212\037\227\024\236T\301a"
 251      FE9C01C9 
 251      5638327E 
 251      438A1F97 
 251      149E54C1 
 252 012a 633C01FE 		.ascii	"c<\001\376\370\006\310\327u\375L$oI-\003\003K\256\264"
 252      F806C8D7 
 252      75FD4C24 
 252      6F492D03 
 252      034BAEB4 
 253 013e 8F975A16 		.ascii	"\217\227Z\026%\206\207\277K\036'oJp\265,\225$\032\027"
 253      258687BF 
 253      4B1E276F 
 253      4A70B52C 
 253      95241A17 
 254 0152 E98B63C9 		.ascii	"\351\213c\311\313T\244\243s\211\013+\316\\$E\210H\377"
 254      CB54A4A3 
 254      73890B2B 
 254      CE5C2445 
ARM GAS  /var/folders/c6/c789hm653lg9vtl73krp73tm0000gn/T//ccHN0jlm.s 			page 20


 254      8848FF
 255 0165 481FC79A 		.ascii	"H\037\307\232\015]&y\244Q\222\026\261\206\245]\243\307"
 255      0D5D2679 
 255      A4519216 
 255      B186A55D 
 255      A3C7
 256 0177 90158802 		.ascii	"\220\025\210\002 ]\340\200\0021\360\210\212q\227\021"
 256      205DE080 
 256      0231F088 
 256      8A719711 
 257 0187 79926C90 		.ascii	"y\222l\220\244\246\201\023w\326\331$\311\2414q\031\333"
 257      A4A68113 
 257      77D6D924 
 257      C9A13471 
 257      19DB
 258 0199 8BB4953E 		.ascii	"\213\264\225>I2\3331\3136:\206<C6\201a\223$\035,\342"
 258      4932DB31 
 258      CB363A86 
 258      3C433681 
 258      6193241D 
 259 01af FDC68EA5 		.ascii	"\375\306\216\245\304\027\275N\311.\233\262&\233\350"
 259      C417BD4E 
 259      C92E9BB2 
 259      269BE8
 260 01be 3369C28E 		.ascii	"3i\302\216L\"-\314\370N\357Z*\265\034\244\351\272\247"
 260      4C222DCC 
 260      F84EEF5A 
 260      2AB51CA4 
 260      E9BAA7
 261 01d1 6AF71392 		.ascii	"j\367\023\222^%\376\336K]\"\335\002\366\002\251\245"
 261      5E25FEDE 
 261      4B5D22DD 
 261      02F602A9 
 261      A5
 262 01e2 1C7C4608 		.ascii	"\034|F\010\306f+\264\224\033)l\337\220\331n5\301vQb"
 262      C6662BB4 
 262      941B296C 
 262      DF90D96E 
 262      35C17651 
 263 01f7 55EFDAF1 		.ascii	"U\357\332\361\214m.Y\226\232\024\222v*\225YX\321\370"
 263      8C6D2E59 
 263      969A1492 
 263      762A9559 
 263      58D1F8
 264 020a D101BA08 		.ascii	"\321\001\272\010\346K\244\035\320L \177\245<k\363P\247"
 264      E64BA41D 
 264      D04C207F 
 264      A53C6BF3 
 264      50A7
 265 021c 97EFFD0E 		.ascii	"\227\357\375\016L\250H\337C\240\355\002\017$\322\234"
 265      4CA848DF 
 265      43A0ED02 
 265      0F24D29C 
 266 022c 5C2D65FC 		.ascii	"\\-e\374[5`h\370X\251\260\325\342\021b\325\\ \373\261"
 266      5B356068 
 266      F858A9B0 
 266      D5E21162 
ARM GAS  /var/folders/c6/c789hm653lg9vtl73krp73tm0000gn/T//ccHN0jlm.s 			page 21


 266      D55C20FB 
 267 0241 533658E9 		.ascii	"S6X\351\210*U\371R\014\270\001\034\350\177O\036@u4\016"
 267      882A55F9 
 267      520CB801 
 267      1CE87F4F 
 267      1E407534 
 268 0256 59C67371 		.ascii	"Y\306sq\023\362V\257\263IT\301z\314\2009\014\311%:\264"
 268      13F256AF 
 268      B34954C1 
 268      7ACC8039 
 268      0CC9253A 
 269 026b 601F5B06 		.ascii	"`\037[\006\343\231\355\324\202\2350\003\226o\314\254"
 269      E399EDD4 
 269      829D3003 
 269      966FCCAC 
 270 027b 530B76DA 		.ascii	"S\013v\3322\030\317l\277\026l\320\014\330\2704\314\322"
 270      3218CF6C 
 270      BF166CD0 
 270      0CD8B834 
 270      CCD2
 271 028d 5DDAD74B 		.ascii	"]\332\327K\244\355\260\252\210t\033\235\004z7\352=\250"
 271      A4EDB0AA 
 271      88741B9D 
 271      047A37EA 
 271      3DA8
 272 029f F7A1FE00 		.ascii	"\367\241\376\000\365\001\324\037\202N^\002\031BNm)N"
 272      F501D41F 
 272      824E5E02 
 272      19424E6D 
 272      294E
 273 02b1 FC6B9C29 		.ascii	"\374k\234)\312\244DS\005sP^$\376c\012\214\363\320\305"
 273      CAA44453 
 273      0573505E 
 273      24FE630A 
 273      8CF3D0C5 
 274 02c5 81ADD680 		.ascii	"\201\255\326\200\3350\005\366\2021\263v\015\330]S`^"
 274      DD3005F6 
 274      8231B376 
 274      0DD85D53 
 274      605E
 275 02d7 6366BB34 		.ascii	"cf\2734`\213mf\300\242\306\314\3724`\215\246\300\226"
 275      608B6D66 
 275      C0A2C6CC 
 275      FA34608D 
 275      A6C096
 276 02ea 51636AFD 		.ascii	"Qcj\375\032\264\025\246\320\332\2501\267\253\032\264"
 276      1AB415A6 
 276      D0DAA831 
 276      B7AB1AB4 
 277 02fa D5A6D012 		.ascii	"\325\246\320\022#p\273\255A[g\012m \0357M\324\313\361"
 277      2370BBAD 
 277      415B670A 
 277      6D201D37 
 277      4DD4CBF1 
 278 030e FE36C6FB 		.ascii	"\3766\306\373f\214\350\303\250\273Pw\243>\202\272\027"
 278      668CE8C3 
 278      A8BB5077 
ARM GAS  /var/folders/c6/c789hm653lg9vtl73krp73tm0000gn/T//ccHN0jlm.s 			page 22


 278      A33E82BA 
 278      17
 279 031f 751FEAA3 		.ascii	"u\037\352\243\250\217\361\261\337j\323\257\352\362>"
 279      A88FF1B1 
 279      DF6AD3AF 
 279      EAF23E
 280 032e AAE9AD2D 		.ascii	"\252\351\255-\371\216\221\257\332\237Q\016\262\201\346"
 280      F98E91AF 
 280      DA9F510E 
 280      B281E6
 281 033d A5FA9B67 		.ascii	"\245\372\233g\323\360k\327\361\373&\371\223$5C\252\363"
 281      D3F06BD7 
 281      F1FB26F9 
 281      93243543 
 281      AAF3
 282 034f 997D8D94 		.ascii	"\231}\215\224\260\313Ma\237@\263\365tb\332.\222\035"
 282      B0CB4D61 
 282      9F40B3F5 
 282      7462DA2E 
 282      921D
 283 0361 7C8B6C64 		.ascii	"|\213ld[\366\257\245%\371\024\223\"\242\264\342\034"
 283      5BF6AFA5 
 283      25F91493 
 283      22A2B4E2 
 283      1C
 284 0372 FE840ADA 		.ascii	"\376\204\012\332\033rv\225\270\331\355lZ80<<\321|ju"
 284      1B727695 
 284      B8D9ED6C 
 284      5A38303C 
 284      3CD17C6A 
 285 0387 2A736AC5 		.ascii	"*sj\305e\017\202\012\360,I\245U\327V\331p\027>\213\001"
 285      650F820A 
 285      F02C49A5 
 285      55D756D9 
 285      70173E8B 
 286 039c F4916E3C 		.ascii	"\364\221n<2\3020\036\203\372$d{\017&!\203\231\223\220"
 286      32C2301E 
 286      83FA2464 
 286      7B0F2621 
 286      83999390 
 287 03b0 D71627DE 		.ascii	"\327\026'\336\357\321$!\213G\314\034D\272\035\203\322"
 287      EFD12421 
 287      8B47CC1C 
 287      44BA1D83 
 287      D2
 288 03c1 CCD67E14 		.ascii	"\314\326~\024=\031|\260\255\035h\355\352\301m\345<n"
 288      3D197CB0 
 288      AD1D68ED 
 288      EAC16DE5 
 288      3C6E
 289 03d3 2BFD96C1 		.ascii	"+\375\226\301\\\034X\247\026\354\254\0310\243}\035\300"
 289      5C1C58A7 
 289      16ECAC19 
 289      30A37D1D 
 289      C0
 290 03e4 F66AC186 		.ascii	"\366j\301\206,\203\361\314\366k\301.\233\0013\332\327"
 290      2C83F1CC 
ARM GAS  /var/folders/c6/c789hm653lg9vtl73krp73tm0000gn/T//ccHN0jlm.s 			page 23


 290      F66BC12E 
 290      9B0133DA 
 290      D7
 291 03f5 01AC4F0B 		.ascii	"\001\254O\013v\3152\230\226\331\302\304\331\236n*5;"
 291      76CD3298 
 291      96D9C2C4 
 291      D99E6E2A 
 291      353B
 292 0407 1F23CD92 		.ascii	"\037#\315\222\264Pj\3116\012\012B\320D\032\321D\244"
 292      B4506AC9 
 292      360A0A42 
 292      D0441AD1 
 292      44A4
 293 0419 5FD0C7F8 		.ascii	"_\320\307\370 \375\370\365\321,H\331\375\314\231\362"
 293      20FDF8F5 
 293      D12C48D9 
 293      FDCC99F2 
 294 0429 3F7AF844 		.ascii	"?z\370D\357\006:\307\332>H\342(%N\367\344I\215N\365"
 294      EF063AC7 
 294      DA3E48E2 
 294      28254EF7 
 294      E4498D4E 
 295 043e FC33BD6D 		.ascii	"\3743\275m\004\342\267\365o\327'=\202K\276\235\231\367"
 295      04E2B7F5 
 295      6FD7273D 
 295      824BBE9D 
 295      99F7
 296 0450 899EB5E3 		.ascii	"\211\236\265\343\244\226\003j\206/-\225\236\326\364"
 296      A496036A 
 296      862F2D95 
 296      9ED6F4
 297 045f 95AFF6C5 		.ascii	"\225\257\366\305\326\217d\206\377\376\263\270 |\211"
 297      D68F6486 
 297      FFFEB3B8 
 297      207C89
 298 046e 8EDED22D 		.ascii	"\216\336\322-\010\346\201N/\377\263\234\337\337C \311"
 298      08E6814E 
 298      2FFFB39C 
 298      DFDF4320 
 298      C9
 299 047f AEDF096C 		.ascii	"\256\337\011l\272\374\336\306\277\325\266\334Tex\330"
 299      BAFCDEC6 
 299      BFD5B6DC 
 299      546578D8 
 300 048f 46AC190B 		.ascii	"F\254\031\013\344u\354\360v*\3768\222fr\373U8t\352H"
 300      E475ECF0 
 300      762AFE38 
 300      926672FB 
 300      553874EA 
 301 04a4 FCC6325E 		.ascii	"\374\3062^\276nN\004\362\246\375\001\303F\343\271\272"
 301      BE6E4E04 
 301      F2A6FD01 
 301      C346E3B9 
 301      BA
 302 04b5 53DEC0FD 		.ascii	"S\336\300\375\357\026\277\337\256\262\233x\351\322\345"
 302      EF16BFDF 
 302      AEB29B78 
ARM GAS  /var/folders/c6/c789hm653lg9vtl73krp73tm0000gn/T//ccHN0jlm.s 			page 24


 302      E9D2E5
 303 04c4 BFCA1B7C 		.ascii	"\277\312\033|U\373\006\257\265\014\346\342\300>\327"
 303      55FB06AF 
 303      B50CE6E2 
 303      C03ED7
 304 04d3 82AD3703 		.ascii	"\202\2557\003\3462fv]\013\326j\031\214gvS\013\266\331"
 304      E6326676 
 304      5D0BD66A 
 304      198C6776 
 304      530BB6D9 
 305 04e7 0CD8D323 		.ascii	"\014\330\323#M\0127?\251\335P\244\377\304\355\352\034"
 305      4D0A373F 
 305      A9DD50A4 
 305      FFC4EDEA 
 305      1C
 306 04f8 CED410EA 		.ascii	"\316\324\020\352\013\250/\241\276\214\372\012\352k\250"
 306      0BA82FA1 
 306      BE8CFA0A 
 306      EA6BA8
 307 0507 970A4C2F 		.ascii	"\227\012L/C\335\210\372WB\206\374F\371\220p\253y\002"
 307      43DD88FA 
 307      574286FC 
 307      46F99070 
 307      AB7902
 308 051a 5BCDCE60 		.ascii	"[\315\316`\272\262U\367\256q\231\201\274\325\033\255"
 308      BAB255F7 
 308      AE719981 
 308      BCD51BAD 
 309 052a 364D429E 		.ascii	"6MB\236\301\242r\3373%\3550}\342O\354k\036\31386\013"
 309      C1A272DF 
 309      3325ED30 
 309      7DE24FEC 
 309      6B1ECB38 
 310 0540 6CD43BEF 		.ascii	"l\324;\357[\017\330\312\312\365g\352\300o\231\305\361"
 310      5B0FD8CA 
 310      CAF567EA 
 310      C06F99C5 
 310      F1
 311 0551 31824857 		.ascii	"1\202HW\"\207\277<$\016\272\244\262O\007\253$\225\347"
 311      2287BF3C 
 311      240EBAA4 
 311      B24F07AB 
 311      2495E7
 312 0564 DFBDA324 		.ascii	"\337\275\243$\225\362,\375\013\315N\032&\225\314Ji\233"
 312      95F22CFD 
 312      0BCD4E1A 
 312      2695CC4A 
 312      699B
 313 0576 B8D3BD05 		.ascii	"\270\323\275\005\366\037A\035\274K\031\2322+\265\351"
 313      F61F411D 
 313      BC4B199A 
 313      322BB5E9 
 314 0586 97DDAD72 		.ascii	"\227\335\255rS\331\347\253\031\2322+\242\246\262\211"
 314      53D9E7AB 
 314      199A322B 
 314      A2A6B289 
 315 0596 5B8D8B5B 		.ascii	"[\215\213[\250\224\235LfO\352\223\3315\002\227\314\246"
ARM GAS  /var/folders/c6/c789hm653lg9vtl73krp73tm0000gn/T//ccHN0jlm.s 			page 25


 315      A8949D4C 
 315      664FEA93 
 315      D9350297 
 315      CCA6
 316 05a8 C917130E 		.ascii	"\311\027\023\016\356\204\245\354\016'\207\022\233\350"
 316      EE84A5EC 
 316      0E278712 
 316      9BE8
 317 05b6 3649CA87 		.ascii	"6I\312\207\004Y`\231\347\037\2622f\236:$L\274\005\335"
 317      04596099 
 317      E71FB232 
 317      669E3A24 
 317      4CBC05DD 
 318 05ca E6B86EA8 		.ascii	"\346\270n\250\213\342\256\303\236dN>\267\017u\0110'"
 318      8BE2AEC3 
 318      9E644E3E 
 318      B70F7509 
 318      3027
 319 05dc AFD9D4C5 		.ascii	"\257\331\324\305`\023\322`\215\037,m\334\301\372ov\252"
 319      6013D260 
 319      8D1F2C6D 
 319      DCC1FA6F 
 319      76AA
 320 05ee 705B2CC3 		.ascii	"p[,\303\2718\270\235<\334\0163p#\244\216\273x\270\335"
 320      B938B89D 
 320      3CDC0E33 
 320      7023A48E 
 320      BB78B8DD 
 321 0602 96E17876 		.ascii	"\226\341xv\235<\334>3p#\244\217{y\270\303\226\341xv"
 321      9D3CDC3E 
 321      337023A4 
 321      8F7B79B8 
 321      C396E178 
 322 0617 FB79B8BF 		.ascii	"\373y\270\277\231\2013\332\032!\225\352S\341\344\014"
 322      998133DA 
 322      1A2195EA 
 322      53E1E40C 
 323 0627 B0DF321C 		.ascii	"\260\3372\034\317\356(\317n\320\014\234\313x\354\216"
 323      CFEE28CF 
 323      6ED00C9C 
 323      CB78EC8E 
 324 0637 F170972C 		.ascii	"\361p\227,\303i\330\301kt|\310\001h\217\222&9?e\273"
 324      C369D8C1 
 324      6B747CC8 
 324      01688F92 
 324      26393F65 
 325 064c 06735BB1 		.ascii	"\006s[\261\235\316\307\206H\367\010\217b\015Wa)\271"
 325      9DCEC786 
 325      48F7088F 
 325      620D5761 
 325      29B9
 326 065e D13873D3 		.ascii	"\3218s\323v\317Z\354\225\227\231\324+\240T\324O\360"
 326      76CF5AEC 
 326      959799D4 
 326      2BA054D4 
 326      4FF0
 327 0670 02B9AE77 		.ascii	"\002\271\256w\201\353u\204mY\031\221~~D\356\231\031"
ARM GAS  /var/folders/c6/c789hm653lg9vtl73krp73tm0000gn/T//ccHN0jlm.s 			page 26


 327      81EB7584 
 327      6D591991 
 327      7E7E44EE 
 327      9919
 328 0682 910263B8 		.ascii	"\221\002c\270Oy\270\245\331V\341\370\351?\305\303-7"
 328      4F79B8A5 
 328      D956E1F8 
 328      E93FC5C3 
 328      2D37
 329 0694 0367F821 		.ascii	"\003g\370!nQ\342\014\037\234+-\303\361\354\256\362\354"
 329      6E51E20C 
 329      1F9C2B2D 
 329      C3F1ECAE 
 329      F2EC
 330 06a6 5ACCC04D 		.ascii	"Z\314\300M7\036\273\317y\2706\313p|p^\307\340\224\243"
 330      371EBBCF 
 330      79B836CB 
 330      707C705E 
 330      C7E094A3 
 331 06ba 4E20ED7A 		.ascii	"N \355z\264tqRjL\356&O\256\323\0149\2571\334m\036\356"
 331      B4747152 
 331      6A4CEE26 
 331      4FAED30C 
 331      39AF31DC 
 332 06d1 9065387E 		.ascii	"\220e8~&\376\313\303\365\232\201{\3318N\356\352\026"
 332      26FECBC3 
 332      F59A817B 
 332      D9384EEE 
 332      EA16
 333 06e3 31CB703C 		.ascii	"1\313p<\273{\272E\314\014\334\217\215\307\256\351\""
 333      BB7BBA45 
 333      CC0CDC8F 
 333      8DC7AEE9 
 333      22
 334 06f4 07F76FCB 		.ascii	"\007\367o\313p|\2344_\324\306\311M3qRcL\356\267<9)\307"
 334      707C9C34 
 334      5FD4C6C9 
 334      4D337152 
 334      634CEEB7 
 335 070c 0439A30F 		.ascii	"\0049\243\017\324\000\267\222\207[b\031\216\367u5\347"
 335      D400B792 
 335      875B6219 
 335      8EF77535 
 335      E7
 336 071d EB2FF568 		.ascii	"\353/\365h\351|]`L\356w<\2717\314\220\223\214\276x\003"
 336      E97C5D60 
 336      4CEE773C 
 336      B937CC90 
 336      938CBE78 
 337 0732 DE5A1E6F 		.ascii	"\336Z\036o\215u<\0271\274\264Y\240H7\012\354\310\325"
 337      8D753C17 
 337      31BCB459 
 337      A048370A 
 337      ECC8D5
 338 0745 8A87A736 		.ascii	"\212\207\2476\324o\243\336\202\372]\324\355\250;P\357"
 338      D46FA3DE 
 338      82FA5DD4 
ARM GAS  /var/folders/c6/c789hm653lg9vtl73krp73tm0000gn/T//ccHN0jlm.s 			page 27


 338      EDA83B50 
 338      EF
 339 0756 40BD13F5 		.ascii	"@\275\023\365.\324\235\250\367\243N\240>\210\372\020"
 339      2ED49DA8 
 339      F7A34EA0 
 339      3E88FA10 
 340 0766 EAC3A8BB 		.ascii	"\352\303\250\273Pw\243>\202\272\027u\037\352\243\250"
 340      5077A33E 
 340      82BA1775 
 340      1FEAA3A8 
 341 0776 8FA13E8E 		.ascii	"\217\241>\216\272\037\365\247\250O\241>\203z\000\365"
 341      BA1FF5A7 
 341      A84FA13E 
 341      837A00F5 
 342 0786 A0F690A7 		.ascii	"\240\366\220\247;\254\2557\030%\346\3679!/m+\203\337"
 342      3BACAD37 
 342      1825E6F7 
 342      39212F6D 
 342      2B83DF
 343 0799 D5B9DF02 		.ascii	"\325\271\337\002D\372\016\036N\267r\237\337-\377\274"
 343      44FA0E1E 
 343      4EB7729F 
 343      DF2DFFBC 
 344 07a9 6544ED7C 		.ascii	"eD\355|\212\232\0316\344\2533I\236\000\023\017\341\373"
 344      8A9A1936 
 344      E4AB3349 
 344      9E00130F 
 344      E1FB
 345 07bb 31FB289F 		.ascii	"1\373(\237\270:\260q\3603\312\216\007\322\360\360/\250"
 345      B83AB071 
 345      F033CA8E 
 345      07D2F0F0 
 345      2FA8
 346 07cd F90FF3   		.ascii	"\371\017\363"
 347 07d0 1705EEC3 		.ascii	"\027\005\356\303\274|rN\376\241\014\215\356\320\270"
 347      BC7C724E 
 347      FEA10C8D 
 347      EED0B8
 348 07df 2127DDA1 		.ascii	"!'\335\241QZ\023,\225\233\013\344\035\264\270 \030\235"
 348      515A132C 
 348      959B0BE4 
 348      1DB4B820 
 348      189D
 349 07f1 DC9895DA 		.ascii	"\334\230\225\332\354\367\207\235MT\356J\244'\2500bC"
 349      ECF7879D 
 349      4D54EE4A 
 349      A427A830 
 349      6243
 350 0803 8590F2EB 		.ascii	"\205\220\362\353\305\036\311;.y\336c\215\270W\3552\177"
 350      C51EC93B 
 350      2E79DE63 
 350      8DB857ED 
 350      327F
 351 0815 DE7B8AB4 		.ascii	"\336{\212\264\262\325g\270\247k!\373\217\014\232Y\327"
 351      B2D567B8 
 351      A76B21FB 
 351      8F0C9A59 
ARM GAS  /var/folders/c6/c789hm653lg9vtl73krp73tm0000gn/T//ccHN0jlm.s 			page 28


 351      D7
 352 0826 3E973A5A 		.ascii	">\227:Z\362\377\277\037\222\251S\246\270\345\177\221"
 352      F2FFBF1F 
 352      92A953A6 
 352      B8E57F91 
 353 0836 7A778D18 		.ascii	"zw\215\030vG#\261x\275\333?wNQ\241\273\274\274\330="
 353      764723B1 
 353      78BDDB3F 
 353      774E51A1 
 353      BBBCBCD8 
 354 084b DB5B56F1 		.ascii	"\333[V\361J\241;*\206\003\341p\325\224J\313-jH\366\354"
 354      4AA13B2A 
 354      8603E170 
 354      D5944ACB 
 354      2D6A48F6 
 355 0860 97E6B93C 		.ascii	"\227\346\271<dL}\274\266\25000?\032\212\004\352\203"
 355      644C7DBC 
 355      B6A83030 
 355      3F1A8A04 
 355      EA83
 356 0872 F1866820 		.ascii	"\361\206h ^\356n\250\217\271\303\221J\200\361\004\303"
 356      5EEE6EA8 
 356      8FB9C391 
 356      4A80F104 
 356      C3
 357 0883 6131E69E 		.ascii	"a1\346\236_Y9Y\214\325N\256\213\324\005'\007\305\237"
 357      5F593959 
 357      8CD54EAE 
 357      8BD40527 
 357      07C59F
 358 0896 84DC8505 		.ascii	"\204\334\205\005S\247\025\274P\360\234\233\277\035\252"
 358      53A715BC 
 358      50F09C9B 
 358      BF1DAA
 359 08a5 AB0C3754 		.ascii	"\253\0147T\005\335\365\361\252P]\034\272q4@\011\035"
 359      05DDF5F1 
 359      AA505D1C 
 359      BA713440 
 359      091D
 360 08b7 C47FF410 		.ascii	"\304\177\364\020Pk\305\312\232P]\320\035\250\012V\213"
 360      506BC5CA 
 360      9A505DD0 
 360      1DA80A56 
 360      8B
 361 08c8 0DE17820 		.ascii	"\015\341x \376j4X\017\275\214\012\004\324~\262j#U\301"
 361      FE6A3458 
 361      0FBD8C0A 
 361      04D47EB2 
 361      6A2355C1 
 362 08dc 5876843D 		.ascii	"Xv\204=\212\345D\352\243\301`U,+\332\020\255\212\331"
 362      8AE544EA 
 362      A3C16055 
 362      2C2BDA10 
 362      AD8AD9
 363 08ef 225531BB 		.ascii	"\"U1\273X\035\0133U\223\355\235Q,\306\305l\357L\271"
 363      581D0B33 
 363      5593ED9D 
ARM GAS  /var/folders/c6/c789hm653lg9vtl73krp73tm0000gn/T//ccHN0jlm.s 			page 29


 363      512CC6C5 
 363      6CEF4CB9 
 364 0903 F0C845B1 		.ascii	"\360\310E\261\\\224\310\305,\271\230-\027\245rQ\306"
 364      5C94C8C5 
 364      2CB9982D 
 364      17A57251 
 364      C6
 365 0914 8A5CEF8C 		.ascii	"\212\\\357\214rO\244\256:4\377k\001eT\003\241\272P<"
 365      724FA4AE 
 365      3A34FF6B 
 365      01655403 
 365      A1BA503C 
 366 0928 BB126F3A 		.ascii	"\273\022o:5\343\032\317\232SQ\\\342\313\256\230\373"
 366      35E31ACF 
 366      9A53515C 
 366      E2CBAE98 
 366      FB
 367 0939 436F892F 		.ascii	"Co\211/\247\302\357-))\366ey\347y\213}\2662\220\212"
 367      A7C2EF2D 
 367      2929F665 
 367      79E7798B 
 367      7DB63290 
 368 094e 621FFD01 		.ascii	"b\037\375\001\216\324\324\347\003q\305\031V\265\301"
 368      8ED4D4E7 
 368      0371C519 
 368      56B5C1
 369 095d 94645586 		.ascii	"\224dU\206\203b\214\226\332g\372}>{\271\347{>\373\214"
 369      83628C96 
 369      DA67FA7D 
 369      3E7BB9E7 
 369      7B3EFB8C 
 370 0971 59BE72A6 		.ascii	"Y\276r\246Jm3}\276Q\241\010\233\354PU \356\224\253\265"
 370      4A6D337D 
 370      BE51A108 
 370      9BEC5055 
 370      20EE94AB 
 371 0986 62FD4F03 		.ascii	"b\375O\003qG(\302\206\"\020\037\233\344\007h\363c\221"
 371      714728C2 
 371      8622101F 
 371      9BE40768 
 371      F36391
 372 0999 8628BB6F 		.ascii	"\206(\273og\226vfjg\177>\245\015\240\340\202\270\333"
 372      67967666 
 372      6A677F3E 
 372      A50DA0E0 
 372      82B8DB
 373 09ac 33C75FE6 		.ascii	"3\307_\346\207\000r\243#\325\323\012\276\275`\001\214"
 373      870072A3 
 373      23D5D30A 
 373      BEBD6001 
 373      8C
 374 09bd 749ECFE3 		.ascii	"t\236\317\343\011\314\205\261-\016V\013\036_\216\267"
 374      09CC85B1 
 374      2D0E560B 
 374      1E5F8EB7 
 375 09cd BCDC336B 		.ascii	"\274\3343k\266\317\316\224\315S\346s\314(\2359\325\347"
 375      B6CFCE94 
ARM GAS  /var/folders/c6/c789hm653lg9vtl73krp73tm0000gn/T//ccHN0jlm.s 			page 30


 375      CD53E673 
 375      CC289D39 
 375      D5E7
 376 09df 9F8B9542 		.ascii	"\237\213\225B\265R\304*\271\276\022\177\211\357\373"
 376      B552C42A 
 376      B9BE127F 
 376      89EFFB
 377 09ee 25C5058E 		.ascii	"%\305\005\216\031^\325\310+\033%\237M\315a\000%/\371"
 377      195ED5C8 
 377      2B1B259F 
 377      4DCD6100 
 377      252FF9
 378 0a01 5859A894 		.ascii	"XY\250\224EP&-\012sXk|\342E\213\344\223\242\\\326\266"
 378      4550262D 
 378      0A73586B 
 378      7CE2458B 
 378      E493A25C 
 379 0a17 DCCBEEB1 		.ascii	"\334\313\356\261\326\311Z\221\\S\355\246\3452\004\345"
 379      D6C95A91 
 379      5C53EDA6 
 379      E53204E5 
 380 0a27 A957B553 		.ascii	"\251W\265S\237>g\237Y\354\001_\374\251[\317g\371\375"
 380      9F3E679F 
 380      59EC015F 
 380      FCA95BCF 
 380      67F9FD
 381 0a3a 9ED9BE51 		.ascii	"\236\331\276Q\340lY\241\237\271\352`S\315&7\213\251"
 381      E06C59A1 
 381      9FB9EA60 
 381      53CD2637 
 381      8BA9
 382 0a4c E8FF005E 		.ascii	"\350\377\000^\316\201\357"
 382      CE81EF
 383              		.text
 384              		.section	.gnu.lto_.symtab.374e03f3a3ccc29e,"",%progbits
 385 0000 5F70616C 		.ascii	"_pal_lld_init\000\000\000\000\000\000\000\000\000\000"
 385      5F6C6C64 
 385      5F696E69 
 385      74000000 
 385      00000000 
 386 0017 0000A100 		.ascii	"\000\000\241\000\000\000_pal_lld_setgroupmode\000\000"
 386      00005F70 
 386      616C5F6C 
 386      6C645F73 
 386      65746772 
 387 0034 00000000 		.ascii	"\000\000\000\000\000\000\000\000\000\000\333\000\000"
 387      00000000 
 387      0000DB00 
 387      00
 388 0041 00       		.ascii	"\000"
 389              		.text
 390              		.section	.gnu.lto_.opts,"",%progbits
 391 0000 272D6D63 		.ascii	"'-mcpu=cortex-m4' '-mno-thumb-interwork' '-mthumb' "
 391      70753D63 
 391      6F727465 
 391      782D6D34 
 391      2720272D 
ARM GAS  /var/folders/c6/c789hm653lg9vtl73krp73tm0000gn/T//ccHN0jlm.s 			page 31


 392 0033 272D6767 		.ascii	"'-ggdb' '-O2' '-fomit-frame-pointer' '-falign-funct"
 392      64622720 
 392      272D4F32 
 392      2720272D 
 392      666F6D69 
 393 0066 696F6E73 		.ascii	"ions=16' '-ffunction-sections' '-fdata-sections' '-"
 393      3D313627 
 393      20272D66 
 393      66756E63 
 393      74696F6E 
 394 0099 666E6F2D 		.ascii	"fno-common' '-flto'\000"
 394      636F6D6D 
 394      6F6E2720 
 394      272D666C 
 394      746F2700 
 395              		.text
 396              		.cfi_sections	.debug_frame
 397              		.section	.text._pal_lld_init,"ax",%progbits
 398              		.align	2
 399              		.p2align 4,,15
 400              		.global	_pal_lld_init
 401              		.thumb
 402              		.thumb_func
 403              		.type	_pal_lld_init, %function
 404              	_pal_lld_init:
 405              	.LFB261:
 406              		.file 1 "../../../os/hal/ports/STM32/LLD/GPIOv2/pal_lld.c"
 407              		.loc 1 92 0
 408              		.cfi_startproc
 409              		@ args = 0, pretend = 0, frame = 0
 410              		@ frame_needed = 0, uses_anonymous_args = 0
 411              		@ link register save eliminated.
 412              	.LVL0:
 413 0000 2DE9F00F 		push	{r4, r5, r6, r7, r8, r9, r10, fp}
 414              		.cfi_def_cfa_offset 32
 415              		.cfi_offset 4, -32
 416              		.cfi_offset 5, -28
 417              		.cfi_offset 6, -24
 418              		.cfi_offset 7, -20
 419              		.cfi_offset 8, -16
 420              		.cfi_offset 9, -12
 421              		.cfi_offset 10, -8
 422              		.cfi_offset 11, -4
 423              		.loc 1 105 0
 424 0004 DFF8AC91 		ldr	r9, .L2+28
 425              	.LBB20:
 426              	.LBB21:
 427              		.loc 1 67 0
 428 0008 DFF8AC81 		ldr	r8, .L2+32
 429              	.LBE21:
 430              	.LBE20:
 431              		.loc 1 105 0
 432 000c D9F830B0 		ldr	fp, [r9, #48]
 433              	.LBB23:
 434              	.LBB24:
 435              		.loc 1 67 0
 436 0010 DFF8A8C1 		ldr	ip, .L2+36
ARM GAS  /var/folders/c6/c789hm653lg9vtl73krp73tm0000gn/T//ccHN0jlm.s 			page 32


 437              	.LBE24:
 438              	.LBE23:
 439              	.LBB26:
 440              	.LBB27:
 441 0014 604F     		ldr	r7, .L2
 442              	.LBE27:
 443              	.LBE26:
 444              	.LBB29:
 445              	.LBB30:
 446 0016 614E     		ldr	r6, .L2+4
 447              	.LBE30:
 448              	.LBE29:
 449              	.LBB32:
 450              	.LBB33:
 451 0018 614D     		ldr	r5, .L2+8
 452              	.LBE33:
 453              	.LBE32:
 454              	.LBB35:
 455              	.LBB36:
 456 001a 624C     		ldr	r4, .L2+12
 457              	.LBE36:
 458              	.LBE35:
 459              	.LBB38:
 460              	.LBB39:
 461 001c 6249     		ldr	r1, .L2+16
 462              	.LBE39:
 463              	.LBE38:
 464              	.LBB41:
 465              	.LBB42:
 466 001e 634A     		ldr	r2, .L2+20
 467              	.LBE42:
 468              	.LBE41:
 469              		.loc 1 105 0
 470 0020 40F2FF1A 		movw	r10, #511
 471 0024 4BEA0A0B 		orr	fp, fp, r10
 472 0028 C9F830B0 		str	fp, [r9, #48]
 473              		.loc 1 106 0
 474 002c D9F850B0 		ldr	fp, [r9, #80]
 475 0030 4BEA0A0A 		orr	r10, fp, r10
 476 0034 C9F850A0 		str	r10, [r9, #80]
 477              	.LVL1:
 478              	.LBB44:
 479              	.LBB22:
 480              		.loc 1 67 0
 481 0038 4368     		ldr	r3, [r0, #4]
 482 003a C8F80430 		str	r3, [r8, #4]
 483              		.loc 1 68 0
 484 003e 8368     		ldr	r3, [r0, #8]
 485 0040 C8F80830 		str	r3, [r8, #8]
 486              		.loc 1 69 0
 487 0044 C368     		ldr	r3, [r0, #12]
 488 0046 C8F80C30 		str	r3, [r8, #12]
 489              		.loc 1 70 0
 490 004a 0369     		ldr	r3, [r0, #16]
 491 004c C8F81430 		str	r3, [r8, #20]
 492              		.loc 1 71 0
 493 0050 4369     		ldr	r3, [r0, #20]
ARM GAS  /var/folders/c6/c789hm653lg9vtl73krp73tm0000gn/T//ccHN0jlm.s 			page 33


 494 0052 C8F82030 		str	r3, [r8, #32]
 495              		.loc 1 72 0
 496 0056 8369     		ldr	r3, [r0, #24]
 497 0058 C8F82430 		str	r3, [r8, #36]
 498              		.loc 1 73 0
 499 005c 0368     		ldr	r3, [r0]
 500 005e C8F80030 		str	r3, [r8]
 501              	.LVL2:
 502              	.LBE22:
 503              	.LBE44:
 504              	.LBB45:
 505              	.LBB25:
 506              		.loc 1 67 0
 507 0062 036A     		ldr	r3, [r0, #32]
 508 0064 CCF80430 		str	r3, [ip, #4]
 509              		.loc 1 68 0
 510 0068 436A     		ldr	r3, [r0, #36]
 511 006a CCF80830 		str	r3, [ip, #8]
 512              		.loc 1 69 0
 513 006e 836A     		ldr	r3, [r0, #40]
 514 0070 CCF80C30 		str	r3, [ip, #12]
 515              		.loc 1 70 0
 516 0074 C36A     		ldr	r3, [r0, #44]
 517 0076 CCF81430 		str	r3, [ip, #20]
 518              		.loc 1 71 0
 519 007a 036B     		ldr	r3, [r0, #48]
 520 007c CCF82030 		str	r3, [ip, #32]
 521              		.loc 1 72 0
 522 0080 436B     		ldr	r3, [r0, #52]
 523 0082 CCF82430 		str	r3, [ip, #36]
 524              		.loc 1 73 0
 525 0086 C369     		ldr	r3, [r0, #28]
 526 0088 CCF80030 		str	r3, [ip]
 527              	.LVL3:
 528              	.LBE25:
 529              	.LBE45:
 530              	.LBB46:
 531              	.LBB28:
 532              		.loc 1 67 0
 533 008c C36B     		ldr	r3, [r0, #60]
 534 008e 7B60     		str	r3, [r7, #4]
 535              		.loc 1 68 0
 536 0090 036C     		ldr	r3, [r0, #64]
 537 0092 BB60     		str	r3, [r7, #8]
 538              		.loc 1 69 0
 539 0094 436C     		ldr	r3, [r0, #68]
 540 0096 FB60     		str	r3, [r7, #12]
 541              		.loc 1 70 0
 542 0098 836C     		ldr	r3, [r0, #72]
 543 009a 7B61     		str	r3, [r7, #20]
 544              		.loc 1 71 0
 545 009c C36C     		ldr	r3, [r0, #76]
 546 009e 3B62     		str	r3, [r7, #32]
 547              		.loc 1 72 0
 548 00a0 036D     		ldr	r3, [r0, #80]
 549 00a2 7B62     		str	r3, [r7, #36]
 550              		.loc 1 73 0
ARM GAS  /var/folders/c6/c789hm653lg9vtl73krp73tm0000gn/T//ccHN0jlm.s 			page 34


 551 00a4 836B     		ldr	r3, [r0, #56]
 552 00a6 3B60     		str	r3, [r7]
 553              	.LVL4:
 554              	.LBE28:
 555              	.LBE46:
 556              	.LBB47:
 557              	.LBB31:
 558              		.loc 1 67 0
 559 00a8 876D     		ldr	r7, [r0, #88]
 560 00aa 7760     		str	r7, [r6, #4]
 561              		.loc 1 68 0
 562 00ac C76D     		ldr	r7, [r0, #92]
 563 00ae B760     		str	r7, [r6, #8]
 564              		.loc 1 69 0
 565 00b0 076E     		ldr	r7, [r0, #96]
 566 00b2 F760     		str	r7, [r6, #12]
 567              		.loc 1 70 0
 568 00b4 476E     		ldr	r7, [r0, #100]
 569 00b6 7761     		str	r7, [r6, #20]
 570              		.loc 1 71 0
 571 00b8 876E     		ldr	r7, [r0, #104]
 572 00ba 3762     		str	r7, [r6, #32]
 573              		.loc 1 72 0
 574 00bc C76E     		ldr	r7, [r0, #108]
 575 00be 7762     		str	r7, [r6, #36]
 576              		.loc 1 73 0
 577 00c0 476D     		ldr	r7, [r0, #84]
 578 00c2 3760     		str	r7, [r6]
 579              	.LVL5:
 580              	.LBE31:
 581              	.LBE47:
 582              	.LBB48:
 583              	.LBB34:
 584              		.loc 1 67 0
 585 00c4 466F     		ldr	r6, [r0, #116]
 586 00c6 6E60     		str	r6, [r5, #4]
 587              		.loc 1 68 0
 588 00c8 866F     		ldr	r6, [r0, #120]
 589 00ca AE60     		str	r6, [r5, #8]
 590              		.loc 1 69 0
 591 00cc C66F     		ldr	r6, [r0, #124]
 592 00ce EE60     		str	r6, [r5, #12]
 593              		.loc 1 70 0
 594 00d0 D0F88060 		ldr	r6, [r0, #128]
 595 00d4 6E61     		str	r6, [r5, #20]
 596              		.loc 1 71 0
 597 00d6 D0F88460 		ldr	r6, [r0, #132]
 598 00da 2E62     		str	r6, [r5, #32]
 599              		.loc 1 72 0
 600 00dc D0F88860 		ldr	r6, [r0, #136]
 601 00e0 6E62     		str	r6, [r5, #36]
 602              		.loc 1 73 0
 603 00e2 066F     		ldr	r6, [r0, #112]
 604 00e4 2E60     		str	r6, [r5]
 605              	.LVL6:
 606              	.LBE34:
 607              	.LBE48:
ARM GAS  /var/folders/c6/c789hm653lg9vtl73krp73tm0000gn/T//ccHN0jlm.s 			page 35


 608              	.LBB49:
 609              	.LBB37:
 610              		.loc 1 67 0
 611 00e6 D0F89050 		ldr	r5, [r0, #144]
 612 00ea 6560     		str	r5, [r4, #4]
 613              		.loc 1 68 0
 614 00ec D0F89450 		ldr	r5, [r0, #148]
 615 00f0 A560     		str	r5, [r4, #8]
 616              		.loc 1 69 0
 617 00f2 D0F89850 		ldr	r5, [r0, #152]
 618 00f6 E560     		str	r5, [r4, #12]
 619              		.loc 1 70 0
 620 00f8 D0F89C50 		ldr	r5, [r0, #156]
 621 00fc 6561     		str	r5, [r4, #20]
 622              		.loc 1 71 0
 623 00fe D0F8A050 		ldr	r5, [r0, #160]
 624 0102 2562     		str	r5, [r4, #32]
 625              		.loc 1 72 0
 626 0104 D0F8A450 		ldr	r5, [r0, #164]
 627 0108 6562     		str	r5, [r4, #36]
 628              		.loc 1 73 0
 629 010a D0F88C50 		ldr	r5, [r0, #140]
 630 010e 2560     		str	r5, [r4]
 631              	.LVL7:
 632              	.LBE37:
 633              	.LBE49:
 634              	.LBB50:
 635              	.LBB40:
 636              		.loc 1 67 0
 637 0110 D0F8AC40 		ldr	r4, [r0, #172]
 638 0114 4C60     		str	r4, [r1, #4]
 639              		.loc 1 68 0
 640 0116 D0F8B040 		ldr	r4, [r0, #176]
 641 011a 8C60     		str	r4, [r1, #8]
 642              		.loc 1 69 0
 643 011c D0F8B440 		ldr	r4, [r0, #180]
 644 0120 CC60     		str	r4, [r1, #12]
 645              		.loc 1 70 0
 646 0122 D0F8B840 		ldr	r4, [r0, #184]
 647 0126 4C61     		str	r4, [r1, #20]
 648              		.loc 1 71 0
 649 0128 D0F8BC40 		ldr	r4, [r0, #188]
 650 012c 0C62     		str	r4, [r1, #32]
 651              		.loc 1 72 0
 652 012e D0F8C040 		ldr	r4, [r0, #192]
 653 0132 4C62     		str	r4, [r1, #36]
 654              		.loc 1 73 0
 655 0134 D0F8A840 		ldr	r4, [r0, #168]
 656 0138 0C60     		str	r4, [r1]
 657              	.LVL8:
 658              	.LBE40:
 659              	.LBE50:
 660              	.LBB51:
 661              	.LBB43:
 662              		.loc 1 67 0
 663 013a D0F8C810 		ldr	r1, [r0, #200]
 664 013e 5160     		str	r1, [r2, #4]
ARM GAS  /var/folders/c6/c789hm653lg9vtl73krp73tm0000gn/T//ccHN0jlm.s 			page 36


 665              		.loc 1 68 0
 666 0140 D0F8CC10 		ldr	r1, [r0, #204]
 667 0144 9160     		str	r1, [r2, #8]
 668              		.loc 1 69 0
 669 0146 D0F8D010 		ldr	r1, [r0, #208]
 670 014a D160     		str	r1, [r2, #12]
 671              		.loc 1 70 0
 672 014c D0F8D410 		ldr	r1, [r0, #212]
 673 0150 5161     		str	r1, [r2, #20]
 674              		.loc 1 71 0
 675 0152 D0F8D810 		ldr	r1, [r0, #216]
 676 0156 1162     		str	r1, [r2, #32]
 677              		.loc 1 72 0
 678 0158 D0F8DC10 		ldr	r1, [r0, #220]
 679 015c 5162     		str	r1, [r2, #36]
 680              		.loc 1 73 0
 681 015e D0F8C410 		ldr	r1, [r0, #196]
 682 0162 1160     		str	r1, [r2]
 683              	.LVL9:
 684              	.LBE43:
 685              	.LBE51:
 686              	.LBB52:
 687              	.LBB53:
 688              		.loc 1 67 0
 689 0164 124B     		ldr	r3, .L2+24
 690 0166 D0F8E420 		ldr	r2, [r0, #228]
 691 016a 5A60     		str	r2, [r3, #4]
 692              		.loc 1 68 0
 693 016c D0F8E820 		ldr	r2, [r0, #232]
 694 0170 9A60     		str	r2, [r3, #8]
 695              		.loc 1 69 0
 696 0172 D0F8EC20 		ldr	r2, [r0, #236]
 697 0176 DA60     		str	r2, [r3, #12]
 698              		.loc 1 70 0
 699 0178 D0F8F020 		ldr	r2, [r0, #240]
 700 017c 5A61     		str	r2, [r3, #20]
 701              		.loc 1 71 0
 702 017e D0F8F420 		ldr	r2, [r0, #244]
 703 0182 1A62     		str	r2, [r3, #32]
 704              		.loc 1 72 0
 705 0184 D0F8F820 		ldr	r2, [r0, #248]
 706 0188 5A62     		str	r2, [r3, #36]
 707              		.loc 1 73 0
 708 018a D0F8E020 		ldr	r2, [r0, #224]
 709 018e 1A60     		str	r2, [r3]
 710              	.LBE53:
 711              	.LBE52:
 712              		.loc 1 139 0
 713 0190 BDE8F00F 		pop	{r4, r5, r6, r7, r8, r9, r10, fp}
 714 0194 7047     		bx	lr
 715              	.L3:
 716 0196 00BF     		.align	2
 717              	.L2:
 718 0198 00080240 		.word	1073874944
 719 019c 000C0240 		.word	1073875968
 720 01a0 00100240 		.word	1073876992
 721 01a4 00140240 		.word	1073878016
ARM GAS  /var/folders/c6/c789hm653lg9vtl73krp73tm0000gn/T//ccHN0jlm.s 			page 37


 722 01a8 00180240 		.word	1073879040
 723 01ac 001C0240 		.word	1073880064
 724 01b0 00200240 		.word	1073881088
 725 01b4 00380240 		.word	1073887232
 726 01b8 00000240 		.word	1073872896
 727 01bc 00040240 		.word	1073873920
 728              		.cfi_endproc
 729              	.LFE261:
 730              		.size	_pal_lld_init, .-_pal_lld_init
 731              		.section	.text._pal_lld_setgroupmode,"ax",%progbits
 732              		.align	2
 733              		.p2align 4,,15
 734              		.global	_pal_lld_setgroupmode
 735              		.thumb
 736              		.thumb_func
 737              		.type	_pal_lld_setgroupmode, %function
 738              	_pal_lld_setgroupmode:
 739              	.LFB262:
 740              		.loc 1 157 0
 741              		.cfi_startproc
 742              		@ args = 0, pretend = 0, frame = 0
 743              		@ frame_needed = 0, uses_anonymous_args = 0
 744              		@ link register save eliminated.
 745              	.LVL10:
 746 0000 2DE9F00F 		push	{r4, r5, r6, r7, r8, r9, r10, fp}
 747              		.cfi_def_cfa_offset 32
 748              		.cfi_offset 4, -32
 749              		.cfi_offset 5, -28
 750              		.cfi_offset 6, -24
 751              		.cfi_offset 7, -20
 752              		.cfi_offset 8, -16
 753              		.cfi_offset 9, -12
 754              		.cfi_offset 10, -8
 755              		.cfi_offset 11, -4
 756              		.loc 1 164 0
 757 0004 0023     		movs	r3, #0
 758              		.loc 1 159 0
 759 0006 02F00307 		and	r7, r2, #3
 760              	.LVL11:
 761              		.loc 1 160 0
 762 000a C2F38006 		ubfx	r6, r2, #2, #1
 763              	.LVL12:
 764              		.loc 1 161 0
 765 000e C2F3C105 		ubfx	r5, r2, #3, #2
 766              	.LVL13:
 767              		.loc 1 162 0
 768 0012 C2F34114 		ubfx	r4, r2, #5, #2
 769              	.LVL14:
 770              	.LBB54:
 771              		.loc 1 170 0
 772 0016 4FF00F09 		mov	r9, #15
 773              	.LBE54:
 774              		.loc 1 163 0
 775 001a C2F3C312 		ubfx	r2, r2, #7, #4
 776              	.LVL15:
 777              	.LBB55:
 778              		.loc 1 175 0
ARM GAS  /var/folders/c6/c789hm653lg9vtl73krp73tm0000gn/T//ccHN0jlm.s 			page 38


 779 001e 4FF0010A 		mov	r10, #1
 780 0022 38E0     		b	.L9
 781              	.LVL16:
 782              	.L14:
 783              		.loc 1 172 0
 784 0024 D0F820B0 		ldr	fp, [r0, #32]
 785 0028 2BEA0C0C 		bic	ip, fp, ip
 786              	.LVL17:
 787 002c 4CEA0808 		orr	r8, ip, r8
 788              	.LVL18:
 789 0030 C0F82080 		str	r8, [r0, #32]
 790              	.L7:
 791              	.LVL19:
 792              		.loc 1 176 0
 793 0034 D0F804C0 		ldr	ip, [r0, #4]
 794              		.loc 1 175 0
 795 0038 0AFA03F8 		lsl	r8, r10, r3
 796              		.loc 1 176 0
 797 003c 2CEA080C 		bic	ip, ip, r8
 798 0040 4CEA060C 		orr	ip, ip, r6
 799 0044 C0F804C0 		str	ip, [r0, #4]
 800              	.LVL20:
 801              		.loc 1 177 0
 802 0048 4FF0030B 		mov	fp, #3
 803 004c 4FEA430C 		lsl	ip, r3, #1
 804              		.loc 1 178 0
 805 0050 D0F80880 		ldr	r8, [r0, #8]
 806              		.loc 1 177 0
 807 0054 0BFA0CFC 		lsl	ip, fp, ip
 808              	.LVL21:
 809              		.loc 1 178 0
 810 0058 6FEA0C0C 		mvn	ip, ip
 811              	.LVL22:
 812 005c 0CEA0808 		and	r8, ip, r8
 813 0060 48EA0508 		orr	r8, r8, r5
 814 0064 C0F80880 		str	r8, [r0, #8]
 815              		.loc 1 179 0
 816 0068 D0F80C80 		ldr	r8, [r0, #12]
 817 006c 0CEA0808 		and	r8, ip, r8
 818 0070 48EA0408 		orr	r8, r8, r4
 819 0074 C0F80C80 		str	r8, [r0, #12]
 820              		.loc 1 180 0
 821 0078 D0F80080 		ldr	r8, [r0]
 822 007c 0CEA080C 		and	ip, ip, r8
 823              	.LVL23:
 824 0080 4CEA070C 		orr	ip, ip, r7
 825 0084 C0F800C0 		str	ip, [r0]
 826              	.LVL24:
 827              	.L5:
 828              	.LBE55:
 829              		.loc 1 183 0
 830 0088 4908     		lsrs	r1, r1, #1
 831              	.LVL25:
 832 008a 1AD0     		beq	.L4
 833              		.loc 1 185 0
 834 008c 7600     		lsls	r6, r6, #1
 835              	.LVL26:
ARM GAS  /var/folders/c6/c789hm653lg9vtl73krp73tm0000gn/T//ccHN0jlm.s 			page 39


 836              		.loc 1 186 0
 837 008e AD00     		lsls	r5, r5, #2
 838              	.LVL27:
 839              		.loc 1 187 0
 840 0090 A400     		lsls	r4, r4, #2
 841              	.LVL28:
 842              		.loc 1 188 0
 843 0092 BF00     		lsls	r7, r7, #2
 844              	.LVL29:
 845              		.loc 1 189 0
 846 0094 0133     		adds	r3, r3, #1
 847              	.LVL30:
 848              	.L9:
 849              	.LBB56:
 850              		.loc 1 169 0
 851 0096 03F0070C 		and	ip, r3, #7
 852 009a 4FEA8C0C 		lsl	ip, ip, #2
 853              	.LBE56:
 854              		.loc 1 166 0
 855 009e 11F0010F 		tst	r1, #1
 856              	.LBB57:
 857              		.loc 1 169 0
 858 00a2 02FA0CF8 		lsl	r8, r2, ip
 859              	.LVL31:
 860              		.loc 1 170 0
 861 00a6 09FA0CFC 		lsl	ip, r9, ip
 862              	.LVL32:
 863              	.LBE57:
 864              		.loc 1 166 0
 865 00aa EDD0     		beq	.L5
 866              	.LBB58:
 867              		.loc 1 171 0
 868 00ac 072B     		cmp	r3, #7
 869 00ae B9D9     		bls	.L14
 870              		.loc 1 174 0
 871 00b0 D0F824B0 		ldr	fp, [r0, #36]
 872 00b4 2BEA0C0C 		bic	ip, fp, ip
 873              	.LVL33:
 874 00b8 4CEA0808 		orr	r8, ip, r8
 875              	.LVL34:
 876 00bc C0F82480 		str	r8, [r0, #36]
 877 00c0 B8E7     		b	.L7
 878              	.L4:
 879              	.LBE58:
 880              		.loc 1 191 0
 881 00c2 BDE8F00F 		pop	{r4, r5, r6, r7, r8, r9, r10, fp}
 882              	.LVL35:
 883 00c6 7047     		bx	lr
 884              		.cfi_endproc
 885              	.LFE262:
 886              		.size	_pal_lld_setgroupmode, .-_pal_lld_setgroupmode
 887 00c8 AFF30080 		.text
 887      AFF30080 
 888              	.Letext0:
 889              		.file 2 "/usr/local/Cellar/gcc-arm-none-eabi/20140805/arm-none-eabi/include/machine/_default_types
 890              		.file 3 "/usr/local/Cellar/gcc-arm-none-eabi/20140805/arm-none-eabi/include/stdint.h"
 891              		.file 4 "../../../os/rt/ports/ARMCMx/compilers/GCC/chtypes.h"
ARM GAS  /var/folders/c6/c789hm653lg9vtl73krp73tm0000gn/T//ccHN0jlm.s 			page 40


 892              		.file 5 "../../../os/rt/include/chsystypes.h"
 893              		.file 6 "../../../os/rt/include/chschd.h"
 894              		.file 7 "../../../os/ext/CMSIS/ST/stm32f407xx.h"
 895              		.file 8 "../../../os/rt/ports/ARMCMx/chcore.h"
 896              		.file 9 "../../../os/rt/ports/ARMCMx/chcore_v7m.h"
 897              		.file 10 "../../../os/rt/include/chdebug.h"
 898              		.file 11 "../../../os/rt/include/chtm.h"
 899              		.file 12 "../../../os/rt/include/chstats.h"
 900              		.file 13 "../../../os/rt/include/chsem.h"
 901              		.file 14 "../../../os/rt/include/chmtx.h"
 902              		.file 15 "../../../os/hal/ports/STM32/LLD/GPIOv2/pal_lld.h"
 903              		.file 16 "../../../os/ext/CMSIS/include/core_cm4.h"