ARM GAS  /var/folders/c6/c789hm653lg9vtl73krp73tm0000gn/T//ccHN0jlm.s 			page 1


   1              		.syntax unified
   2              		.cpu cortex-m4
   3              		.fpu softvfp
   4              		.eabi_attribute 20, 1
   5              		.eabi_attribute 21, 1
   6              		.eabi_attribute 23, 3
   7              		.eabi_attribute 24, 1
   8              		.eabi_attribute 25, 1
   9              		.eabi_attribute 26, 1
  10              		.eabi_attribute 30, 2
  11              		.eabi_attribute 34, 1
  12              		.eabi_attribute 18, 4
  13              		.thumb
  14              		.file	"pal_lld.c"
  15              		.text
  16              	.Ltext0:
  17              		.section	.gnu.lto_.jmpfuncs.374e03f3a3ccc29e,"",%progbits
  18 0000 789C6362 		.ascii	"x\234cb`b\300\006\330\2404\023\003##;\003\000\001/\000"
  18      6062C006 
  18      D8A03413 
  18      0323233B 
  18      0300012F 
  19 0015 16       		.ascii	"\026"
  20              		.text
  21              		.section	.gnu.lto_.inline.374e03f3a3ccc29e,"",%progbits
  22 0000 789C6362 		.ascii	"x\234cb`b\300\006vBi\240l;c\033##;\003#\003\003\263"
  22      6062C006 
  22      764269A0 
  22      6C3B631B 
  22      23233B03 
  23 0018 02987400 		.ascii	"\002\230t\000\223\011`\262\201\021L-\200P\007 \024\203"
  23      930960B2 
  23      81114C2D 
  23      80500720 
  23      1483
  24 002a C021C60B 		.ascii	"\300!\306\013\257\271\031\354\036\\afb`|\301\316\002"
  24      AFB919EC 
  24      1E5C6166 
  24      62607CC1 
  24      CE02
  25 003c 21410407 		.ascii	"!A\004\007\230\311\001\"\004\300L\001\020\241\000f*"
  25      98C90122 
  25      04C04C01 
  25      10A10066 
  25      2A
  26 004d 80080730 		.ascii	"\200\010\0070\323\001D402A(0\311\004\341\200\335\313"
  26      D3014434 
  26      30324128 
  26      30C904E1 
  26      80DDCB
  27 0060 C860B389 		.ascii	"\310`\263\211\211\221\221\011h\033\003sH\313y\005\006"
  27      89919109 
  27      681B0373 
  27      48CB7905 
  27      06
  28 0071 A1391781 		.ascii	"\2419\027\201v\011]\350ad\001;\034\000j\333\037\011"
  28      76095DE8 
ARM GAS  /var/folders/c6/c789hm653lg9vtl73krp73tm0000gn/T//ccHN0jlm.s 			page 2


  28      6164013B 
  28      1C006ADB 
  28      1F09
  29              		.text
  30              		.section	.gnu.lto_.pureconst.374e03f3a3ccc29e,"",%progbits
  31 0000 789C6362 		.ascii	"x\234cb`b`e\200\000&\006)F)\000\001\006\000A"
  31      60626065 
  31      80002606 
  31      29462900 
  31      01060041 
  32              		.text
  33              		.section	.gnu.lto__pal_lld_init.374e03f3a3ccc29e,"",%progbits
  34 0000 789CB5DA 		.ascii	"x\234\265\332[l\024U\034\307\361sfwgg\357+\275\323\026"
  34      5B6C1455 
  34      1CC7F173 
  34      66776767 
  34      EF2BBDD3 
  35 0015 4AA1DC4A 		.ascii	"J\241\334J\273\364\002\224r+P(\205\2266\261&\032\037"
  35      BBF40294 
  35      722B5028 
  35      859636B1 
  35      261A1F
  36 0028 4CAD71DD 		.ascii	"L\255q\335\244\265\215(/>0\005B\232`\260!&\026y\201"
  36      A4B58D28 
  36      2F3E3005 
  36      429A60B0 
  36      21261679 
  37 003d A8504D04 		.ascii	"\250PM\004\324\227\032.6\204(\305@\252Bbx\320\"Qc$\201"
  37      D4971A2E 
  37      368428C5 
  37      40AA4262 
  37      78D02251 
  38 0054 17A19290 		.ascii	"\027\241\222\220:\377\371o;\377%\263{\226\354i\243\277"
  38      3AFFF96F 
  38      3BFF25B3 
  38      7B96EC69 
  38      A3BF
  39 0066 B6424F3F 		.ascii	"\266BO?\3353\375>\2510\205=\375V`\374\373r\005c\015"
  39      DD33FD3E 
  39      A930853D 
  39      FD5660FC 
  39      FB720563 
  40 007b C67BEE60 		.ascii	"\306{\356`\\\031\274\301X\277\246p\016\0370\316\366"
  40      5C19BCC1 
  40      58BFA670 
  40      0E1F30CE 
  40      F6
  41 008c 297CDF4B 		.ascii	")|\337K\334\374\273g\225\321\211\251\2513\223\337\235"
  41      DCFCBB67 
  41      95D189A9 
  41      A93393DF 
  41      9D
  42 009d B9C03F53 		.ascii	"\271\300?S\006\271\302b\2349`\\0*\214\306{8\233\003"
  42      06B9C262 
  42      9C39605C 
  42      302A8CC6 
  42      7B389B03 
ARM GAS  /var/folders/c6/c789hm653lg9vtl73krp73tm0000gn/T//ccHN0jlm.s 			page 3


  43 00b1 1F65C164 		.ascii	"\037e\301d\303\344\300\344\302\344\301\344\303\024\300"
  43      C3E4C0E4 
  43      C2E4C1E4 
  43      C314C0
  44 00c0 CC852984 		.ascii	"\314\205)\204)\202)\206\231\0073\037\246\004f\001L)"
  44      29822986 
  44      9907331F 
  44      A6046601 
  44      4C29
  45 00d2 CC429845 		.ascii	"\314B\230E0e0\213a\226\300,\205Y\006\263\034\246\034"
  45      3065308B 
  45      6196C02C 
  45      855906B3 
  45      1CA61C
  46 00e5 66054C05 		.ascii	"f\005L\005L%L\004f%L\025L5L\015L-\314*\230\3250k`\352"
  46      4C254C04 
  46      66254C15 
  46      4C354C0D 
  46      4C2DCC2A 
  47 00ff 60D6C2D4 		.ascii	"`\326\302\324\303\254\203Y\017\263\001f#\314&\230\006"
  47      C3AC8359 
  47      0FB30166 
  47      23CC2698 
  47      06
  48 0110 98CD305B 		.ascii	"\230\3150[`\266\3024\302l\203\331\016\323\004\263\003"
  48      60B6C234 
  48      C26C83D9 
  48      0ED304B3 
  48      03
  49 0121 A6196627 		.ascii	"\246\031f'\314.\230\026\230V\230\3350m0\3550\306\233"
  49      CC2E9816 
  49      985698DD 
  49      306D30ED 
  49      30C69B
  50 0134 8B1DD4F5 		.ascii	"\213\035\324\365\301\022\306\272\314O;\214\205\273x"
  50      C112C6BA 
  50      CC4F3B8C 
  50      85BB78
  51 0143 C178BD8D 		.ascii	"\301x\275\215\367\216\353\354\362\355\221\207\343J'"
  51      F78EEBEC 
  51      F2ED9187 
  51      E34A27
  52 0152 3FC95D2C 		.ascii	"?\311],\312\225r\366\271~\260?\034\343\3748\373\210"
  52      CA9572F6 
  52      B97EB03F 
  52      1CE3FC38 
  52      FB88
  53 0164 C7B8F2A2 		.ascii	"\307\270\362\2421\016\375\301\200\356d\346\207\346\345"
  53      310EFDC1 
  53      80EE64E6 
  53      87E6E5
  54 0173 BDCAA7AF 		.ascii	"\275\312\247\257\374:;\360\215c\372\253\035Q\374\373"
  54      FC3A3BF0 
  54      8D63FAAB 
  54      1D51FCFB 
  55 0183 6CCA61FE 		.ascii	"l\312a\376\321\345f\374\223g;4\012\237\003\354\352\336"
  55      D1E566FC 
ARM GAS  /var/folders/c6/c789hm653lg9vtl73krp73tm0000gn/T//ccHN0jlm.s 			page 4


  55      93673B34 
  55      0A9F03EC 
  55      EADE
  56 0195 E9835DE9 		.ascii	"\351\203]\351\236\300\355X\252q@&,\036g\251\214\215"
  56      9EC0ED58 
  56      AA714026 
  56      2C1E67A9 
  56      8C8D
  57 01a7 B1FD137F 		.ascii	"\261\375\023\177\337U\361\353{8\177\227=\326\215\003"
  57      DF55F1EB 
  57      7B387F97 
  57      3DD68D03 
  58 01b7 9C70D4A0 		.ascii	"\234p\324\240\256\277\023\343.<\313\370\236\032\234"
  58      AEBF13E3 
  58      2E3CCBF8 
  58      9E1A9C
  59 01c6 E18E9F81 		.ascii	"\341\216\237\201\277,\370u\314<g\264\020?+e'u\375\350"
  59      BF2CF875 
  59      CC3C67B4 
  59      103F2B65 
  59      2775FDE8 
  60 01da E87F877E 		.ascii	"\350\177\207~\340\372Q\275\377\301\324T(\3065\205\325"
  60      E0FA51BD 
  60      FFC1D454 
  60      28C63585 
  60      D5
  61 01eb 72B83338 		.ascii	"r\27038\303Sb\276\363:\023\177\333\340\277i\272\016"
  61      C35362BE 
  61      F33A137F 
  61      DBE0BF69 
  61      BA0E
  62 01fd DAA760B6 		.ascii	"\332\247`\266G:\025V/:\262\007~\326\353l\377\355\311"
  62      473A1556 
  62      2F3AB207 
  62      7ED6EB6C 
  62      FFEDC9
  63 0210 DFC71D33 		.ascii	"\337\307\0353\217\016~\240\237~\337\020\237\345\245"
  63      8F0E7EA0 
  63      9F7EDF10 
  63      9FE5A5
  64 021f C64FF185 		.ascii	"\306O\361\205\261\323?M\027\276>Q>\007_\204\321\017"
  64      B1D33F4D 
  64      17BE3E51 
  64      3E075F84 
  64      D10F
  65 0231 0F15C7B8 		.ascii	"\017\025\307\270\317x\031\372uxm\374\361W\302\031\177"
  65      CF7819FA 
  65      75786DFC 
  65      F157C219 
  65      7F
  66 0242 251CF085 		.ascii	"%\034\360\205_\341\313`\334\305\330\270\267\223\177"
  66      5FE1CB60 
  66      DCC5D8B8 
  66      B7937F
  67 0251 39731B7A 		.ascii	"9s\033z\025^G\377 |m\200\374\214\346\207\3613\2343g"
  67      155E47FF 
  67      207C6D80 
ARM GAS  /var/folders/c6/c789hm653lg9vtl73krp73tm0000gn/T//ccHN0jlm.s 			page 5


  67      FC8CE687 
  67      F1339C33 
  68 0266 18DF16C5 		.ascii	"\030\337\026\305Cw\307\035xP\224g\301Y\341T\010\227"
  68      4377C71D 
  68      78509467 
  68      C159E154 
  68      0897
  69 0278 04844A10 		.ascii	"\004\204J\020Y\210\030!\210l!\302-\001\241\021D6\"~"
  69      59881821 
  69      886C21C2 
  69      2D01A111 
  69      4436227E 
  70 028c 21881C21 		.ascii	"!\210\034!\302#\001\341%\210\234\370\003D\020\271B\204"
  70      C22301E1 
  70      25889CF8 
  70      034410B9 
  70      4284
  71 029e 4F02C24F 		.ascii	"O\002\302O\020\271\361g\342O\013\221'D\004$ \202\004"
  71      10B9F167 
  71      E24F0B91 
  71      27440424 
  71      208204
  72 02b1 91177F26 		.ascii	"\221\027\177&\010\"_\210\010I@\204\011\"\037\323p\317"
  72      08225F88 
  72      08494084 
  72      09221FD3 
  72      70CF
  73 02c3 6A969276 		.ascii	"j\226\222v\263\236{\306fu\3623F\347\322\211\326\200"
  73      B39E7BC6 
  73      6675F233 
  73      46E7D289 
  73      D680
  74 02d5 15AD7BA9 		.ascii	"\025\255{\251\243\325\311\317\011\317\354\201\272&\253"
  74      A3D5C9CF 
  74      09CFEC81 
  74      BA26AB
  75 02e4 D6D750AD 		.ascii	"\326\327P\255\237\315j\375dW\255\002A\265\212H\265n"
  75      9FCD6AFD 
  75      6457AD02 
  75      41B58A48 
  75      B56E
  76 02f6 25DECBCD 		.ascii	"%\336\313\315\324\3672`[\255[x/\005\264Z7\315\207cn"
  76      D4F73260 
  76      5BAD5B78 
  76      2F05B45A 
  76      37CD8763 
  77 030b F287A388 		.ascii	"\362\207\243\210T+C\204J\020si\265\020Q(D\270% 4\202"
  77      542B4384 
  77      4A107369 
  77      B5105128 
  77      44B82520 
  78 0321 28A4D542 		.ascii	"(\244\325BD\221\020\341\221\200\360\022D\021\255\026"
  78      449110E1 
  78      9180F012 
  78      4411AD16 
  79 0331 228A8508 		.ascii	"\"\212\205\010\237\004\204\237 \212i\265\0201O\210\010"
  79      9F04849F 
ARM GAS  /var/folders/c6/c789hm653lg9vtl73krp73tm0000gn/T//ccHN0jlm.s 			page 6


  79      208A69B5 
  79      10314F88 
  79      08
  80 0342 48400409 		.ascii	"H@\004\011b\036\255\026\"\346\013\021!\011\2100A\314"
  80      621EAD16 
  80      22E60B11 
  80      21098830 
  80      41CC
  81 0354 C736DCB7 		.ascii	"\3076\334\267\252\345H\273Zsf\255Z\203V\265\356\313"
  81      AAE548BB 
  81      5A7366AD 
  81      5A8356B5 
  81      EECB
  82 0366 A8962379 		.ascii	"\250\226#y\265\276\205j=4\253\365\257]\265J\004\325"
  82      B5BE856A 
  82      3D34ABF5 
  82      AF5DB54A 
  82      04D5
  83 0378 AA23D59A 		.ascii	"\252#\325\232L\274\227G\251\357e\320\266Z\223x/%\264"
  83      4CBC9747 
  83      A9EF65D0 
  83      B65A9378 
  83      2F25B4
  84 038b 5A8FCC87 		.ascii	"Z\217\314\207cA\362\207\243\216T+C\204J\020\013h\265"
  84      6341F287 
  84      A38E542B 
  84      43844A10 
  84      0B68B5
  85 039e 10512A44 		.ascii	"\020Q*D\270% 4\202(\245\325B\304B!\302#\001\341%\210"
  85      B8252034 
  85      8228A5D5 
  85      42C44221 
  85      C22301E1 
  86 03b4 85B45A88 		.ascii	"\205\264Z\210X$D\370$ \374\004\261\210V\013\021eBD@"
  86      582444F8 
  86      2420FC04 
  86      B188560B 
  86      11654244 
  87 03c9 02224810 		.ascii	"\002\"H\020e\264Z\210X,D\204$ \302\004\261\030\333\360"
  87      65B45A88 
  87      582C4484 
  87      2420C204 
  87      B118DBF0 
  88 03dd D8AA9633 		.ascii	"\330\252\2263\355je\315Z\265\206\254j=\226Q-g\362j\375"
  88      ED6A65CD 
  88      5AB586AC 
  88      6A3D9651 
  88      2D67F26A 
  89 03f2 03D53AA6 		.ascii	"\003\325:\246@\265\206\024\233j-\021T\253\203T\353\270"
  89      40B58614 
  89      9B6A2D11 
  89      54AB8354 
  89      EBB8
  90 0404 92702F1F 		.ascii	"\222p/\037))\357e\310\266Z\346\031\306\267\245\325\202"
  90      2929EF65 
  90      C8B65AE6 
  90      19C6B7A5 
ARM GAS  /var/folders/c6/c789hm653lg9vtl73krp73tm0000gn/T//ccHN0jlm.s 			page 7


  90      D582
  91 0416 83A27C69 		.ascii	"\203\242|i\362\207\243\203T+C\204J\020Ki\265\020\261"
  91      F287A383 
  91      542B4384 
  91      4A104B69 
  91      B510B1
  92 0429 4C88704B 		.ascii	"L\210pK@h\004\261\214V\013\021\313\205\010\217\004\204"
  92      406804B1 
  92      8C560B11 
  92      CB85088F 
  92      0484
  93 043b 972096D3 		.ascii	"\227 \226\323j!\242\\\210\360I@\370\011\242\234V\013"
  93      6A21A25C 
  93      88F04940 
  93      F809A29C 
  93      560B
  94 044d 112B8488 		.ascii	"\021+\204\210\200\004D\220 V\320j!\242B\210\010I@\204"
  94      80044490 
  94      2056D06A 
  94      21A24288 
  94      08494084 
  95 0461 09A202DB 		.ascii	"\011\242\002\333\360\304\252\226+\355je\317Z\265NX\325"
  95      F0C4AA96 
  95      2BED6A65 
  95      CF5AB54E 
  95      58D5
  96 0473 7A22A35A 		.ascii	"z\"\243Z\256\344\325z\004\325\272`V\353\274]\265*\005"
  96      AEE4D57A 
  96      04D5BA60 
  96      56EBBC5D 
  96      B52A05
  97 0486 D5EA23D5 		.ascii	"\325\352#\325\272\224x/\027S\337\313\011\333j]\302{"
  97      BA94782F 
  97      1753DFCB 
  97      09DB6A5D 
  97      C27B
  98 0498 A9A4D5BA 		.ascii	"\251\244\325\272h>\034\221\344\017G\037\251V\206\010"
  98      683E1C91 
  98      E40F471F 
  98      A9568608 
  99 04a8 952022B4 		.ascii	"\225 \"\264Z\210X)D\270% 4\202XI\253\205\210*!\302#"
  99      5A885829 
  99      44B82520 
  99      34825849 
  99      AB85882A 
 100 04bf 01E12588 		.ascii	"\001\341%\210*Z-DT\013\021>\011\010?AT\323j!\242F\210"
 100      2A5A2D44 
 100      540B113E 
 100      09083F41 
 100      54D36A21 
 101 04d6 08484004 		.ascii	"\010H@\004\011\242\206V\013\021\265BDH\002\"L\020\265"
 101      09A28656 
 101      0B11B542 
 101      44480222 
 101      4C10B5
 102 04e9 D886813F 		.ascii	"\330\206\201?f\252\245\246]\255\234Y\253\326\260U\255"
 102      66AAA5A6 
ARM GAS  /var/folders/c6/c789hm653lg9vtl73krp73tm0000gn/T//ccHN0jlm.s 			page 8


 102      5DAD9C59 
 102      ABD6B055 
 102      AD
 103 04fa 195926D5 		.ascii	"\031Y&\325R\223W\353\343\017\014\363of\265~\265\253"
 103      529357EB 
 103      E30F0CF3 
 103      6F66B57E 
 103      B5AB
 104 050c D62A41B5 		.ascii	"\326*A\265\336\343$[w\022/f\"\365\305\014\333f\353\016"
 104      DEE3245B 
 104      77122F66 
 104      22F5C50C 
 104      DB66EB0E 
 105 0520 5ECC2A9A 		.ascii	"^\314*\232\255\011\363\351X\235\374\351\230V\270$(T"
 105      AD09F3E9 
 105      589DFCE9 
 105      9856B824 
 105      2854
 106 0532 A2584DBB 		.ascii	"\242XM\273\205\2125b\205[\202B#\21254\\\250\250\023"
 106      858A3562 
 106      855B8242 
 106      238A3534 
 106      5CA8A813 
 107 0546 2B3C1214 		.ascii	"+<\022\024^\242\250\243\345B\305Z\261\302'A\341'\212"
 107      5EA2A8A3 
 107      E542C55A 
 107      B1C22741 
 107      E1278A
 108 0559 B5345DA8 		.ascii	"\2654]\250\250\027+\002\022\024A\242\250\247\355B\305"
 108      A8172B02 
 108      121441A2 
 108      A8A7ED42 
 108      C5
 109 056a 3AB12224 		.ascii	":\261\"$A\021&\212u\230\210\303V\274\334i\307+w\326"
 109      4111268A 
 109      759888C3 
 109      56BCDC69 
 109      C72B77D6 
 110 057e E275CE8A 		.ascii	"\342u\316\212\327a\031\361r'\217\327Y\210\327~\007\304"
 110      D76119F1 
 110      72278FD7 
 110      5988D77E 
 110      07C4
 111 0590 ABDF6113 		.ascii	"\253\337a\023\257\365\202x\015\323x\035t$\\\314\001"
 111      AFF58278 
 111      0DD3781D 
 111      74245CCC 
 111      01
 112 05a1 47CA8B39 		.ascii	"G\312\2139g\033/\363\014\343\373\322x\301AQ\276!\371"
 112      671B2FF3 
 112      0CE3FBD2 
 112      78C14151 
 112      BE21F9
 113 05b4 E3314CE3 		.ascii	"\3431L\343\225\241B%\212\0154^\250\330(V\270%(4\242"
 113      95A14225 
 113      8A0D345E 
 113      A8D82856 
ARM GAS  /var/folders/c6/c789hm653lg9vtl73krp73tm0000gn/T//ccHN0jlm.s 			page 9


 113      B8252834 
 114 05c9 D848E385 		.ascii	"\330H\343\205\212Mb\205G\202\302K\024\233h\274P\321"
 114      8A4D6285 
 114      4782C24B 
 114      149B68BC 
 114      50D1
 115 05db 2056F824 		.ascii	" V\370$(\374D\321@\343\205\212\315bE@\202\"H\024\233"
 115      28FC44D1 
 115      40E3858A 
 115      CD624540 
 115      82224814 
 116 05f0 69BC50B1 		.ascii	"i\274P\261E\254\010IP\204\211b\013&\342\210\025/-\355"
 116      45AC0849 
 116      50848962 
 116      0B26E288 
 116      152F2DED 
 117 0604 78E5CD5A 		.ascii	"x\345\315Z\274F\254x\035\221\021/-y\274\316C\274>5\343"
 117      BC46AC78 
 117      1D91112F 
 117      2D79BCCE 
 117      43BC3E35 
 118 0619 F5895DBC 		.ascii	"\365\211]\274\266\012\342u\205\306\353t\342\305\234"
 118      B60AE275 
 118      85C6EB74 
 118      E2C59C
 119 0628 4A7D3123 		.ascii	"J}1#\266\361:\215\027\263\225\306\353\224\371x4&\177"
 119      B6F13A8D 
 119      17B395C6 
 119      EB94F978 
 119      34267F
 120 063b 3CAED078 		.ascii	"<\256\320xe\250P\211\242\221\306\013\025\333\304\012"
 120      65A85089 
 120      A291C60B 
 120      15DBC40A 
 121 064b B7048546 		.ascii	"\267\004\205F\024\333h\274P\261]\254\360HPx\211b;\215"
 121      14DB68BC 
 121      50B15DAC 
 121      F0485078 
 121      89623B8D 
 122 065f 172A9AC4 		.ascii	"\027*\232\304\012\237\004\205\237(\232h\274P\261C\254"
 122      0A9F0485 
 122      9F289A68 
 122      BC50B143 
 122      AC
 123 0670 08485004 		.ascii	"\010HP\004\211b\007\215\027*\232\305\212\220\004E\230"
 123      8962078D 
 123      172A9AC5 
 123      8A900445 
 123      98
 124 0681 289A3111 		.ascii	"(\2321\021\307\254xy\322\216W\376\254\305k\324\212\327"
 124      C7AC7879 
 124      D28E57FE 
 124      ACC56BD4 
 124      8AD7
 125 0693 3119F1F2 		.ascii	"1\031\361\362$\217\327_\020\257\253f\274\276\267\213"
 125      248FD75F 
 125      10AFAB66 
ARM GAS  /var/folders/c6/c789hm653lg9vtl73krp73tm0000gn/T//ccHN0jlm.s 			page 10


 125      BCBEB78B 
 126 06a3 D74E41BC 		.ascii	"\327NA\274&h\274\256%^\314X\352\213\031\265\215\327"
 126      2668BCAE 
 126      255ECC58 
 126      EA8B19B5 
 126      8DD7
 127 06b5 35BC989D 		.ascii	"5\274\230\2354^c\346\343\261+\371\3431A\343\225\241"
 127      345E63E6 
 127      E3B12BF9 
 127      E33141E3 
 127      95A1
 128 06c7 42258A5D 		.ascii	"B%\212]4^\250h\021+\334\022\024\032Q\264\320x\241\242"
 128      345EA868 
 128      112BDC12 
 128      141A51B4 
 128      D078A1A2 
 129 06db 55ACF048 		.ascii	"U\254\360HPx\211\242\225\306\013\025\273\305\012\237"
 129      507889A2 
 129      95C60B15 
 129      BBC50A9F 
 130 06eb 04859F28 		.ascii	"\004\205\237(v\323x\241\242M\254\010HP\004\211\242\215"
 130      76D378A1 
 130      A24DAC08 
 130      48500489 
 130      A28D
 131 06fd C60B15ED 		.ascii	"\306\013\025\355bEH\202\"L\024\355\214\375\310\372'"
 131      62454882 
 131      224C14ED 
 131      8CFDC8FA 
 131      27
 132 070e 8E97CD34 		.ascii	"\216\227\3154\310|\3530~w\007o\230\377;vUee\004\377"
 132      C87CEB30 
 132      7E77076F 
 132      98FF3B76 
 132      55656504 
 133 0723 E9DD1379 		.ascii	"\351\335\023y\243\263;\322\327\373\326\333{\"\317w\264"
 133      A3B33BD2 
 133      D7FBD6DB 
 133      7B22CF77 
 133      B4
 134 0734 D654475A 		.ascii	"\326TGZZ\032#M\355\315m{\253#}\235\335\257tw\277V\331"
 134      5A1A234D 
 134      EDCD6D7B 
 134      AB237D9D 
 134      DDAF7477 
 135 074b C55CD1BE 		.ascii	"\305\\\321\276Xo\237\332\325\373\346\353\261\350\377"
 135      586F9FDA 
 135      D5FBE6EB 
 135      B1E8FF
 136 075a 57DAC6D0 		.ascii	"W\332\306\320"
 137              		.text
 138              		.section	.gnu.lto__pal_lld_setgroupmode.374e03f3a3ccc29e,"",%progbits
 139 0000 789C9557 		.ascii	"x\234\225W[hTW\024=\347\334{\347\225h\324\210&1j|\277"
 139      5B685457 
 139      143DE7DC 
 139      7BE79568 
 139      D4882631 
ARM GAS  /var/folders/c6/c789hm653lg9vtl73krp73tm0000gn/T//ccHN0jlm.s 			page 11


 140 0017 27E6A141 		.ascii	"'\346\241A\323\230\346i\013\026\0135\240\375\250F\023"
 140      D398E669 
 140      0B160B35 
 140      A0FDA846 
 140      13
 141 0028 C6D80C19 		.ascii	"\306\330\014\031&i\301\3768q\346#\250\224 1\261\355"
 141      2669C1FE 
 141      3871E623 
 141      A8942031 
 141      B1ED
 142 003a 875A91E0 		.ascii	"\207Z\221\340\253\251\025\0375\"Q\204*\265\205~\351"
 142      ABA9151F 
 142      35225184 
 142      2AB5857E 
 142      E9
 143 004b 88255650 		.ascii	"\210%VP?*\026\013m\375\260\235\356\275\3179w\036\011"
 143      3F2A160B 
 143      6DFDB09D 
 143      EEBDCF39 
 143      771E09
 144 005e CC64D07D 		.ascii	"\314d\320}\356\331{\257u\367Y\347u#\230`\251\277\275"
 144      EED97BAF 
 144      75F759E7 
 144      75239860 
 144      A9BFBD
 145 0071 F0BF6A32 		.ascii	"\360\277j2c\035\320\362,\306E\357\317\214u\273\0047"
 145      631DD0F2 
 145      2CC645EF 
 145      CF8C75BB 
 145      0437
 146 0083 E48321CC 		.ascii	"\344\203!\314\236%,\344q\241\3156\205E=\007\365,\356"
 146      9E252CE4 
 146      71A1CD36 
 146      85453D07 
 146      F52CEE
 147 0096 94490EFD 		.ascii	"\224I\016\375\340\344.\371\340\022\236\210\023\022\335"
 147      E0E42EF9 
 147      E0129E88 
 147      1312DD
 148 00a5 877E6090 		.ascii	"\207~`\220\351\226t7]\036\316\361\201q\266O\030\246"
 148      E9967437 
 148      5D1ECEF1 
 148      8171B64F 
 148      18A6
 149 00b7 E570BADC 		.ascii	"\345p\272\334\036\276o\033\307R\262\346\263\023\241"
 149      1EBE6F1B 
 149      C752B2E6 
 149      B313A1
 150 00c6 50EFE3A7 		.ascii	"P\357\343\247W^\361/\372F\"\307Cob1\316\3338\224]\316"
 150      575EF12F 
 150      FA4622C7 
 150      436F6231 
 150      CEDB3894 
 151 00dc D92ECEB6 		.ascii	"\331.\316\266B\207\027Q#\314\344q\020\366\360H\354\300"
 151      42871751 
 151      23CCE471 
 151      10F6F048 
ARM GAS  /var/folders/c6/c789hm653lg9vtl73krp73tm0000gn/T//ccHN0jlm.s 			page 12


 151      ECC0
 152 00ee E7F9A1E3 		.ascii	"\347\371\241\343\373{C\377\001\264\215\033\202\255\317"
 152      FB7B43FF 
 152      01B48D1B 
 152      82ADCF
 153 00fd 10D9FB63 		.ascii	"\020\331\373cvowO(\026\333G\260\2673\204\035N\206m\314"
 153      766F774F 
 153      2816DB47 
 153      B0B73384 
 153      1D4E866D 
 154 0112 10D6970C 		.ascii	"\020\326\227\014\333\234!\254?\031\326\224!\354h2\354"
 154      DB9C21AC 
 154      3F19D694 
 154      21EC6832 
 154      EC
 155 0123 C30C61C7 		.ascii	"\303\014a\307\016\366\245\210\371Qf\310\320_-wB\221"
 155      0EF6A588 
 155      F95166C8 
 155      D05F2D77 
 155      4291
 156 0135 9158AC9A 		.ascii	"\221X\254\232P\276\014Q\377&\241\366d\210:\322\232\210"
 156      50BE0C51 
 156      FF26A1F6 
 156      64883AD2 
 156      9A88
 157 0147 F2A7430D 		.ascii	"\362\247C\015\211\221\307\261\330\243\373/\236\304\370"
 157      8991C7B1 
 157      D8A3FB2F 
 157      9EC4F8
 158 0156 34982E3F 		.ascii	"4\230.?.\257f~\222\317g\006\264\247\2405\241\035\204"
 158      2EAF667E 
 158      92CF6706 
 158      B4A7A035 
 158      A11D84
 159 0169 D682F634 		.ascii	"\326\202\3664\264\016h\317C\353\341~\016{D&g\2636nN"
 159      B40E68CF 
 159      43EBE17E 
 159      0E7B4426 
 159      67B3366E 
 160 017e 5288C9D8 		.ascii	"R\210\311\330\311Q\260)\330\231\252\260\323\260\223"
 160      C951B029 
 160      D899AAB0 
 160      D3B093
 161 018d 0B9DB3D0 		.ascii	"\013\235\263\320\231\016\004l\006zf\242\311C\223\017"
 161      990E046C 
 161      067A66A2 
 161      C943930F 
 162 019d 861540C2 		.ascii	"\206\025@\302\020$\314\302N!t.Ag6d\2139\2303\027M\021"
 162      1024CCC2 
 162      4E21742E 
 162      41673664 
 162      8B399833 
 163 01b4 9A796816 		.ascii	"\232yh\026\240Y\210f\021\232\305h\226\002\350\004\200"
 163      A0598866 
 163      119AC568 
 163      9602E804 
 163      80
ARM GAS  /var/folders/c6/c789hm653lg9vtl73krp73tm0000gn/T//ccHN0jlm.s 			page 13


 164 01c5 9621C372 		.ascii	"\226!\303r\350\\\200\316\012\214\254D\263\012\215\027"
 164      E85C80CE 
 164      0A8CAC44 
 164      B30A8D17 
 165 01d5 CD6A3425 		.ascii	"\315j4%\230U\212\246\014R/Bj9\272\327\240Y\213\246\002"
 165      98558AA6 
 165      0C522F42 
 165      6A39BAD7 
 165      A0598BA6 
 166 01ea CD3A34EB 		.ascii	"\315:4\353\321T\242\251B\263\001M5\232\032\224\256V"
 166      D154A2A9 
 166      42B3014D 
 166      359A1A94 
 166      AE56
 167 01fc 0950A7C6 		.ascii	"\011P\247\306^\257\206\335\240TjT\322\301\317b\021\330"
 167      5EAF86DD 
 167      A0546A54 
 167      D2C1CF62 
 167      11D8
 168 020e DD45D22F 		.ascii	"\335E\322/Q\022#\021R!\235\275\213N\204-`\341\030i\342"
 168      51122311 
 168      52219DBD 
 168      8B4E842D 
 168      60E11869 
 169 0223 021AE327 		.ascii	"\002\032\343'\026\036\016\307\216\0246\363+\334\202"
 169      161E0EC7 
 169      8E1436F3 
 169      2BDC82
 170 0232 4595E5E3 		.ascii	"E\225\345\343\036\234a\323\200\324\273LH\277\344\207"
 170      1E9C61D3 
 170      80D4BB4C 
 170      48BFE487 
 171 0242 28630438 		.ascii	"(c\0048\331\377\226\006dk\000.\011\010~\023\016\352"
 171      D9FF9606 
 171      646B002E 
 171      09087E13 
 171      0EEA
 172 0254 D024886E 		.ascii	"\320$\210n\225GM\022\327)\342\232\244\270\006\343\\"
 172      95474D12 
 172      D729E29A 
 172      A4B806E3 
 172      5C
 173 0265 933557DE 		.ascii	"\2235W\336\030\256\034\210\022WJ]\203\304\225\243\270"
 173      18AE1C88 
 173      12574A5D 
 173      83C495A3 
 173      B8
 174 0276 CEC6B9A6 		.ascii	"\316\306\271\246h\256\035c\270\246B\224\270\254d\256"
 174      68AE1D63 
 174      B8A64294 
 174      B8AC64AE 
 175 0286 D3C43555 		.ascii	"\323\3045Uq\015\305\271\246i\256P\316\030\262\\\010"
 175      710DC5B9 
 175      A669AE50 
 175      CE18B25C 
 175      08
 176 0297 13993399 		.ascii	"\023\2313\231\354,\221\345\242o\377\361{\226v\343L`"
ARM GAS  /var/folders/c6/c789hm653lg9vtl73krp73tm0000gn/T//ccHN0jlm.s 			page 14


 176      EC2C91E5 
 176      A26FFFF1 
 176      7B9676E3 
 176      4C60
 177 02a9 BAA1B74E 		.ascii	"\272\241\267N\023<\302\351m@\232\213\251\004\037w\020"
 177      133CC2E9 
 177      6D409A8B 
 177      A9041F77 
 177      10
 178 02ba 8E1CB22A 		.ascii	"\216\034\262*+\356\220C6\343\016\251\247\021w\310\311"
 178      2BEE9043 
 178      36E30EA9 
 178      A71177C8 
 178      C9
 179 02cb 12DA014B 		.ascii	"\022\332\001K\312\307\271\032\326p\377\\]\372\014\360"
 179      CAC7B91A 
 179      D670FF5C 
 179      5DFA0CF0 
 180 02db D2B0705D 		.ascii	"\322\260p]\334a\221\027\335%v\210\374\361\015\036e\334"
 180      DC619117 
 180      DD257688 
 180      FCF10D1E 
 180      65DC
 181 02ed C7A70B30 		.ascii	"\307\247\01305\356\027\277\356\2162\001\213A\274\271"
 181      35EE17BF 
 181      EE8E3201 
 181      8B41BCB9 
 182 02fd 1FF0F106 		.ascii	"\037\360\361\006\367\275\321\366(3`F\305\241(8j\335"
 182      F7BDD1F6 
 182      28336046 
 182      C5A12838 
 182      6ADD
 183 030f 7DDBA3CC 		.ascii	"}\333\243\314\204Y\021}\333|\274\316}n\264+\312,PV\234"
 183      8459117D 
 183      DB7CBCCE 
 183      7D6EB42B 
 183      CA2C5056 
 184 0324 C378BDFB 		.ascii	"\303x\275\373:\002\034J\006q\017\235\215\356G\243;P"
 184      3A021C4A 
 184      06710F9D 
 184      8DEE47A3 
 184      3B50
 185 0336 0D93F52C 		.ascii	"\015\223\365,\221\253\362y\377;\366\362\036\242e|\201"
 185      91ABF279 
 185      FF3BF6F2 
 185      1EA2657C 
 185      81
 186 0347 EC45B297 		.ascii	"\354E\262\227hI\313z\341\347\3433A5\252\332)\347\350"
 186      6849CB7A 
 186      E1E7E333 
 186      4135AADA 
 186      29E7E8
 187 035a 40F8324C 		.ascii	"@\3702L\306U\032N\036\204\023\026\351\376\227\341\033"
 187      C6551A4E 
 187      1E841316 
 187      E9FE97E1 
 187      1B
ARM GAS  /var/folders/c6/c789hm653lg9vtl73krp73tm0000gn/T//ccHN0jlm.s 			page 15


 188 036b 5CC7F221 		.ascii	"\\\307\362!L\200\363\341\257mg\001Ml\276\232\321\253"
 188      4C80F3E1 
 188      AF6D6701 
 188      4D6CBE9A 
 188      D1AB
 189 037d 347543A4 		.ascii	"4uC\244j\201\312\375\035u\224\311\263h\376s\030\001"
 189      6A81CAFD 
 189      1D7594C9 
 189      B368FE73 
 189      1801
 190 038f 887D8F0E 		.ascii	"\210}\217\016\025B4\211\344\022\221\024\222\336\317"
 190      15423489 
 190      E4129114 
 190      92DECF
 191 039e 6E5ECED2 		.ascii	"n^\316\322\211R\015g\302\231\332\004\376\333\271 \305"
 191      89520D67 
 191      C299DA04 
 191      FEDBB920 
 191      C5
 192 03af AD8747AF 		.ascii	"\255\207G\257D\015\2358g\005;\023\212@\262\365\025\373"
 192      440D9D38 
 192      67053B13 
 192      8A40B2F5 
 192      15FB
 193 03c1 121A878F 		.ascii	"\022\032\207\217\317F\254\204\356\344\032\016u\\\017"
 193      CF46AC84 
 193      EEE41A0E 
 193      755C0F
 194 03d0 7F672B30 		.ascii	"\177g+0\227^J\272\236\261\235E@\007!\362\177\037~f\373"
 194      975E4ABA 
 194      9EB19D45 
 194      400721F2 
 194      7F1F7E66 
 195 03e5 E7518846 		.ascii	"\347Q\210Fz\353n\257\252\221\336\333\035\252L\363f@"
 195      7AEB6EAF 
 195      AA91DEDB 
 195      1DAA4CF3 
 195      6640
 196 03f7 EBFA1DBA 		.ascii	"\353\372\035\272\376\007\011\365/HS?\037\277\376\205"
 196      FE0709F5 
 196      2F48533F 
 196      1FBFFE85 
 197 0407 E3D5BF08 		.ascii	"\343\325\277\010\350 4\246\376\305\024\232h\375\\\325"
 197      E82034A6 
 197      FEC5149A 
 197      68FD5CD5 
 198 0417 BF58D7EF 		.ascii	"\277X\327\357\224K\021\3463\326?Gs/\245\315\211K\300"
 198      944B11E6 
 198      33D63F47 
 198      732FA5CD 
 198      894BC0
 199 042a 1ED2329A 		.ascii	"\036\3222\232\177\334dKS\347\1779D\223\346\377\002\315"
 199      7FDC644B 
 199      53E77F39 
 199      4493E6FF 
 199      02CD
 200 043c FF722AED 		.ascii	"\377r*\355\341\321k\277\331$+\322\350\"\022u\271a\017"
ARM GAS  /var/folders/c6/c789hm653lg9vtl73krp73tm0000gn/T//ccHN0jlm.s 			page 16


 200      E1D16BBF 
 200      D9242BD2 
 200      E8221275 
 200      B9610F
 201 044f 75A52203 		.ascii	"u\245\"\003]\342\313}\025\320AH\351\362\247\355\367"
 201      5DE2CB7D 
 201      15D04148 
 201      E9F2A7ED 
 201      F7
 202 0460 52C890BA 		.ascii	"R\310\220\272|\233\254KE\2327\003Zm\253\301\001\257"
 202      7C9BAC4B 
 202      459A3703 
 202      5A6DABC1 
 202      01AF
 203 0472 265CADF7 		.ascii	"&\\\255\367\234\320\373\3523\035*\201h\212N\245\352"
 203      9CD0FBEA 
 203      331D2A81 
 203      688A4EA5 
 203      EA
 204 0483 008760AA 		.ascii	"\000\207`\252Ne\020M\322\351\"\351T&uz\220\240Sy\032"
 204      4E65104D 
 204      D2E922E9 
 204      5426757A 
 204      90A05379 
 205 0498 9D8C449D 		.ascii	"\235\214D\235\236\330C_\243\310@\247k\266s-\320AH\351"
 205      9ED8435F 
 205      A3C840A7 
 205      6BB6732D 
 205      D04148E9 
 206 04ac F4B7EDAF 		.ascii	"\364\267\355\257\240\2209A\235\014\245S\205,\372uB\321"
 206      A0903941 
 206      9D0CA553 
 206      852CFA75 
 206      42D1
 207 04be EBD2146D 		.ascii	"\353\322\024m\332EC}\361E\277\236\352^\247\352{i\373"
 207      DA45437D 
 207      F145BF9E 
 207      EA5EA7EA 
 207      7B69FB
 208 04d1 2B29644D 		.ascii	"+)dM\260>S\325W\251\026\337p\274\276\2524\365Y\343\327"
 208      B03E53D5 
 208      57A916DF 
 208      70BCBEAA 
 208      34F559E3 
 209 04e6 B781EAAB 		.ascii	"\267\201\352\253\032S_5\205\304\004\353\263T}\325z\377"
 209      1A535F35 
 209      85C404EB 
 209      B3547DD5 
 209      7AFF
 210 04f8 B9E862A4 		.ascii	"\271\350b\244\353vx\240@_M5\352\326b\270_\355\013\227"
 210      EB7678A0 
 210      405F4D35 
 210      EAD662B8 
 210      5FED0B97 
 211 050c EEB81A3C 		.ascii	"\356\270\032<Vo?\2779z0\333\316N\271\310\220\327\315"
 211      566F3FBF 
 211      397A30DB 
ARM GAS  /var/folders/c6/c789hm653lg9vtl73krp73tm0000gn/T//ccHN0jlm.s 			page 17


 211      CE4EB9C8 
 211      90D7CD
 212 051f E00F2883 		.ascii	"\340\017(\203N\361\347\003\366\227O-\354\214\261\274"
 212      4EF1E703 
 212      F6974F2D 
 212      EC8CB1BC 
 213 052f FA76ADD5 		.ascii	"\372v\255\325\307\376\300l\015\250\203%2\336\347\215"
 213      C7FEC06C 
 213      0DA88325 
 213      32DEE78D 
 214 053f BC9FEB14 		.ascii	"\274\237\353\024\340\217\201Y\032P\017s6\036@\336\360"
 214      E08F8159 
 214      1A500F73 
 214      361E40DE 
 214      F0
 215 0550 F50AF06A 		.ascii	"\365\012\360j\246\316o\000\015\307\313\227\327{\003"
 215      A6CE6F00 
 215      0DC7CB97 
 215      D77B03
 216 055f E5F784FF 		.ascii	"\345\367\204\377\031\310\323\200F}\217\244\014A~S4\352"
 216      19C8D380 
 216      467D8FA4 
 216      0C417E53 
 216      34EA
 217 0571 F17BF0C3 		.ascii	"\361{\360\303\357\027\326\375\370\365Sn_\240\364\333"
 217      EF17D6FD 
 217      F8F5536E 
 217      5FA0F4DB 
 218 0581 028760C4 		.ascii	"\002\207`\304\211\257+\361z\213\345\277\216\316\342"
 218      89AF2BF1 
 218      7A8BE5BF 
 218      8ECEE2
 219 0590 DDCDEDC5 		.ascii	"\335\315\355\305\201\216`Wg\361\007[\336++-\336\264"
 219      818E6057 
 219      67F1075B 
 219      DE2B2B2D 
 219      DEB4
 220 05a2 A9BE78E3 		.ascii	"\251\276x\343\373\357n\376\264\2648\320\334\276\275"
 220      FBEF6EFE 
 220      B4B438D0 
 220      DCBEBD
 221 05b1 BDBDC5BB 		.ascii	"\275\275\305\273\213Y;\333\272\274\253-\177GKk\320\321"
 221      8B593BDB 
 221      BABCAB2D 
 221      7F474B6B 
 221      D0D1
 222 05c3 D1B537D0 		.ascii	"\321\2657\320\032tvt\006Z[[\202V\340\223@K\320ln\357"
 222      1A747674 
 222      065A5B5B 
 222      8256E093 
 222      404BD06C 
 223 05d9 0A1A90E5 		.ascii	"\012\032\220\345\302\007\177s\347\307\302_\"\374\245"
 223      C2077F73 
 223      E7C7C25F 
 223      22FCA5
 224 05e8 C25FFE3F 		.ascii	"\302_\376?\032`H\244"
 224      1A6048A4 
ARM GAS  /var/folders/c6/c789hm653lg9vtl73krp73tm0000gn/T//ccHN0jlm.s 			page 18


 225              		.text
 226              		.section	.gnu.lto_.symbol_nodes.374e03f3a3ccc29e,"",%progbits
 227 0000 789C6362 		.ascii	"x\234cb`bP`\200\002\246V\246z\006\206\011\347\030\030"
 227      60625060 
 227      8002A656 
 227      A67A0686 
 227      09E71818 
 228 0014 EAEBE775 		.ascii	"\352\353\347u02\2651\3253\"\270\014\000\223\326\011"
 228      3032B531 
 228      D53322B8 
 228      0C0093D6 
 228      09
 229 0025 3D       		.ascii	"="
 230              		.text
 231              		.section	.gnu.lto_.refs.374e03f3a3ccc29e,"",%progbits
 232 0000 789C6362 		.ascii	"x\234cb`b`d\200\002\000\000F\000\006"
 232      60626064 
 232      80020000 
 232      460006
 233              		.text
 234              		.section	.gnu.lto_.decls.374e03f3a3ccc29e,"",%progbits
 235 0000 789CDD5A 		.ascii	"x\234\335Z}p\023\307\025\337=\311\266\214U\342\220!"
 235      7D7013C7 
 235      15DF3DC9 
 235      B68C55E2 
 235      9021
 236 0012 031DA688 		.ascii	"\003\035\246\210I\323d2\001\031\233\244\351?) \033\354"
 236      49D36432 
 236      01199BA4 
 236      E93F2920 
 236      1BEC
 237 0024 A9893512 		.ascii	"\251\2115\022\264\351Lg\324\253-cMeK#\313)\351?= 0\324"
 237      B4E94C67 
 237      D4AB2D63 
 237      4D654B23 
 237      CB29E93F 
 238 003c 69A9711A 		.ascii	"i\251q\032>Z\032L\013\256\011$\030C\010\230\217\010"
 238      3E5A1A4C 
 238      0BAE0924 
 238      18430898 
 238      8F08
 239 004e 42A8C7A6 		.ascii	"B\250\307\246\256K(1\341\313\343B\035\240\024H\370l"
 239      AE4B2831 
 239      E1CBE342 
 239      1DA01448 
 239      F86C
 240 0060 18DCB7EF 		.ascii	"\030\334\267\357\356\244\333Cg\335\021\376\352\015\357"
 240      EEA4DB43 
 240      67DD11FE 
 240      EA0DEF
 241 006f EDFAEEED 		.ascii	"\355\372\356\355o\177o\367\335\356\333\023\002\021\210"
 241      6F7F6FF7 
 241      DDEEDB13 
 241      021188
 242 007e 44091986 		.ascii	"D\011\031\206\353\211'\010\351\260\021\002\377\310\213"
 242      EB892708 
 242      E9B01102 
ARM GAS  /var/folders/c6/c789hm653lg9vtl73krp73tm0000gn/T//ccHN0jlm.s 			page 19


 242      FFC88B
 243 008d 24750920 		.ascii	"$u\011 \353AN\222\373/v\1774H\016\310y\220I\200U\005"
 243      EB414E92 
 243      FB2F767F 
 243      34480EC8 
 243      79904980 
 244 00a3 1204990F 		.ascii	"\022\004\231\017\262\021\356m\000\311\247\262\235\023"
 244      B211EE6D 
 244      00C9A7B2 
 244      9D13
 245 00b1 A406EAD5 		.ascii	"\244\006\352\325 g\241>\236\365\005\365r\220\315P\337"
 245      2067A13E 
 245      9EF505F5 
 245      7290CD50 
 245      DF
 246 00c2 0D3204B2 		.ascii	"\0152\004\262\007\344\002\310>\220K \037\200\\\0019"
 246      07E402C8 
 246      3E904B20 
 246      1F805C01 
 246      39
 247 00d3 00E200DB 		.ascii	"\000\342\000\333\017\241\034\005\3456(\317\201\034\006"
 247      0FA11C05 
 247      E53628CF 
 247      811C06
 248 00e2 E902E906 		.ascii	"\351\002\351\0069\002\322\013\322\007r\024\344\230\306"
 248      3902D20B 
 248      D2077214 
 248      E498C6
 249 00f1 8710B419 		.ascii	"\207\020\264\031\005e?H\014\352\365 q\220\006\220W@"
 249      05653F48 
 249      0CEAF520 
 249      71900690 
 249      5740
 250 0103 7E06B200 		.ascii	"~\006\262\000\344U\220\237S\336W\346\277\003\304NR\276"
 250      E455909F 
 250      53DE57E6 
 250      BF03C44E 
 250      52BE
 251 0115 74687C67 		.ascii	"th|g\376\234\001\311V82~C\212\037\227\024\236T\301a"
 251      FE9C01C9 
 251      5638327E 
 251      438A1F97 
 251      149E54C1 
 252 012a 633C01FE 		.ascii	"c<\001\376\370\006\310\327u\375L$oI-\003\003K\256\264"
 252      F806C8D7 
 252      75FD4C24 
 252      6F492D03 
 252      034BAEB4 
 253 013e 8F975A16 		.ascii	"\217\227Z\026%\206\207\277K\036'oJp\265,\225$\032\027"
 253      258687BF 
 253      4B1E276F 
 253      4A70B52C 
 253      95241A17 
 254 0152 E98B63C9 		.ascii	"\351\213c\311\313T\244\243s\211\013+\316\\$E\210H\377"
 254      CB54A4A3 
 254      73890B2B 
 254      CE5C2445 
ARM GAS  /var/folders/c6/c789hm653lg9vtl73krp73tm0000gn/T//ccHN0jlm.s 			page 20


 254      8848FF
 255 0165 481FC79A 		.ascii	"H\037\307\232\015]&y\244Q\222\026\261\206\245]\243\307"
 255      0D5D2679 
 255      A4519216 
 255      B186A55D 
 255      A3C7
 256 0177 90158802 		.ascii	"\220\025\210\002 ]\340\200\0021\360\210\212q\227\021"
 256      205DE080 
 256      0231F088 
 256      8A719711 
 257 0187 79926C90 		.ascii	"y\222l\220\244\246\201\023w\326\331$\311\2414q\031\333"
 257      A4A68113 
 257      77D6D924 
 257      C9A13471 
 257      19DB
 258 0199 8BB4953E 		.ascii	"\213\264\225>I2\3331\3136:\206<C6\201a\223$\035,\342"
 258      4932DB31 
 258      CB363A86 
 258      3C433681 
 258      6193241D 
 259 01af FDC68EA5 		.ascii	"\375\306\216\245\304\027\275N\311.\233\262&\233\350"
 259      C417BD4E 
 259      C92E9BB2 
 259      269BE8
 260 01be 3369C28E 		.ascii	"3i\302\216L\"-\314\370N\357Z*\265\034\244\351\272\247"
 260      4C222DCC 
 260      F84EEF5A 
 260      2AB51CA4 
 260      E9BAA7
 261 01d1 6AF71392 		.ascii	"j\367\023\222^%\376\336K]\"\335\002\366\002\251\245"
 261      5E25FEDE 
 261      4B5D22DD 
 261      02F602A9 
 261      A5
 262 01e2 1C7C4608 		.ascii	"\034|F\010\306f+\264\224\033)l\337\220\331n5\301vQb"
 262      C6662BB4 
 262      941B296C 
 262      DF90D96E 
 262      35C17651 
 263 01f7 55EFDAF1 		.ascii	"U\357\332\361\214m.Y\226\232\024\222v*\225YX\321\370"
 263      8C6D2E59 
 263      969A1492 
 263      762A9559 
 263      58D1F8
 264 020a D101BA08 		.ascii	"\321\001\272\010\346K\244\035\320L \177\245<k\363P\247"
 264      E64BA41D 
 264      D04C207F 
 264      A53C6BF3 
 264      50A7
 265 021c 97EFFD0E 		.ascii	"\227\357\375\016L\250H\337C\240\355\002\017$\322\234"
 265      4CA848DF 
 265      43A0ED02 
 265      0F24D29C 
 266 022c 5C2D65FC 		.ascii	"\\-e\374[5`h\370X\251\260\325\342\021b\325\\ \373\261"
 266      5B356068 
 266      F858A9B0 
 266      D5E21162 
ARM GAS  /var/folders/c6/c789hm653lg9vtl73krp73tm0000gn/T//ccHN0jlm.s 			page 21


 266      D55C20FB 
 267 0241 533658E9 		.ascii	"S6X\351\210*U\371R\014\270\001\034\350\177O\036@u4\016"
 267      882A55F9 
 267      520CB801 
 267      1CE87F4F 
 267      1E407534 
 268 0256 59C67371 		.ascii	"Y\306sq\023\362V\257\263IT\301z\314\2009\014\311%:\264"
 268      13F256AF 
 268      B34954C1 
 268      7ACC8039 
 268      0CC9253A 
 269 026b 601F5B06 		.ascii	"`\037[\006\343\231\355\324\202\2350\003\226o\314\254"
 269      E399EDD4 
 269      829D3003 
 269      966FCCAC 
 270 027b 530B76DA 		.ascii	"S\013v\3322\030\317l\277\026l\320\014\330\2704\314\322"
 270      3218CF6C 
 270      BF166CD0 
 270      0CD8B834 
 270      CCD2
 271 028d 5DDAD74B 		.ascii	"]\332\327K\244\355\260\252\210t\033\235\004z7\352=\250"
 271      A4EDB0AA 
 271      88741B9D 
 271      047A37EA 
 271      3DA8
 272 029f F7A1FE00 		.ascii	"\367\241\376\000\365\001\324\037\202N^\002\031BNm)N"
 272      F501D41F 
 272      824E5E02 
 272      19424E6D 
 272      294E
 273 02b1 FC6B9C29 		.ascii	"\374k\234)\312\244DS\005sP^$\376c\012\214\363\320\305"
 273      CAA44453 
 273      0573505E 
 273      24FE630A 
 273      8CF3D0C5 
 274 02c5 81ADD680 		.ascii	"\201\255\326\200\3350\005\366\2021\263v\015\330]S`^"
 274      DD3005F6 
 274      8231B376 
 274      0DD85D53 
 274      605E
 275 02d7 6366BB34 		.ascii	"cf\2734`\213mf\300\242\306\314\3724`\215\246\300\226"
 275      608B6D66 
 275      C0A2C6CC 
 275      FA34608D 
 275      A6C096
 276 02ea 51636AFD 		.ascii	"Qcj\375\032\264\025\246\320\332\2501\267\253\032\264"
 276      1AB415A6 
 276      D0DAA831 
 276      B7AB1AB4 
 277 02fa D5A6D012 		.ascii	"\325\246\320\022#p\273\255A[g\012m \0357M\324\313\361"
 277      2370BBAD 
 277      415B670A 
 277      6D201D37 
 277      4DD4CBF1 
 278 030e FE36C6FB 		.ascii	"\3766\306\373f\214\350\303\250\273Pw\243>\202\272\027"
 278      668CE8C3 
 278      A8BB5077 
ARM GAS  /var/folders/c6/c789hm653lg9vtl73krp73tm0000gn/T//ccHN0jlm.s 			page 22


 278      A33E82BA 
 278      17
 279 031f 751FEAA3 		.ascii	"u\037\352\243\250\217\361\261\337j\323\257\352\362>"
 279      A88FF1B1 
 279      DF6AD3AF 
 279      EAF23E
 280 032e AAE9AD2D 		.ascii	"\252\351\255-\371\216\221\257\332\237Q\016\262\201\346"
 280      F98E91AF 
 280      DA9F510E 
 280      B281E6
 281 033d A5FA9B67 		.ascii	"\245\372\233g\323\360k\327\361\373&\371\223$5C\252\363"
 281      D3F06BD7 
 281      F1FB26F9 
 281      93243543 
 281      AAF3
 282 034f 997D8D94 		.ascii	"\231}\215\224\260\313Ma\237@\263\365tb\332.\222\035"
 282      B0CB4D61 
 282      9F40B3F5 
 282      7462DA2E 
 282      921D
 283 0361 7C8B6C64 		.ascii	"|\213ld[\366\257\245%\371\024\223\"\242\264\342\034"
 283      5BF6AFA5 
 283      25F91493 
 283      22A2B4E2 
 283      1C
 284 0372 FE840ADA 		.ascii	"\376\204\012\332\033rv\225\270\331\355lZ80<<\321|ju"
 284      1B727695 
 284      B8D9ED6C 
 284      5A38303C 
 284      3CD17C6A 
 285 0387 2A736AC5 		.ascii	"*sj\305e\017\202\012\360,I\245U\327V\331p\027>\213\001"
 285      650F820A 
 285      F02C49A5 
 285      55D756D9 
 285      70173E8B 
 286 039c F4916E3C 		.ascii	"\364\221n<2\3020\036\203\372$d{\017&!\203\231\223\220"
 286      32C2301E 
 286      83FA2464 
 286      7B0F2621 
 286      83999390 
 287 03b0 D71627DE 		.ascii	"\327\026'\336\357\321$!\213G\314\034D\272\035\203\322"
 287      EFD12421 
 287      8B47CC1C 
 287      44BA1D83 
 287      D2
 288 03c1 CCD67E14 		.ascii	"\314\326~\024=\031|\260\255\035h\355\352\301m\345<n"
 288      3D197CB0 
 288      AD1D68ED 
 288      EAC16DE5 
 288      3C6E
 289 03d3 2BFD96C1 		.ascii	"+\375\226\301\\\034X\247\026\354\254\0310\243}\035\300"
 289      5C1C58A7 
 289      16ECAC19 
 289      30A37D1D 
 289      C0
 290 03e4 F66AC186 		.ascii	"\366j\301\206,\203\361\314\366k\301.\233\0013\332\327"
 290      2C83F1CC 
ARM GAS  /var/folders/c6/c789hm653lg9vtl73krp73tm0000gn/T//ccHN0jlm.s 			page 23


 290      F66BC12E 
 290      9B0133DA 
 290      D7
 291 03f5 01AC4F0B 		.ascii	"\001\254O\013v\3152\230\226\331\302\304\331\236n*5;"
 291      76CD3298 
 291      96D9C2C4 
 291      D99E6E2A 
 291      353B
 292 0407 1F23CD92 		.ascii	"\037#\315\222\264Pj\3116\012\012B\320D\032\321D\244"
 292      B4506AC9 
 292      360A0A42 
 292      D0441AD1 
 292      44A4
 293 0419 5FD0C7F8 		.ascii	"_\320\307\370 \375\370\365\321,H\331\375\314\231\362"
 293      20FDF8F5 
 293      D12C48D9 
 293      FDCC99F2 
 294 0429 3F7AF844 		.ascii	"?z\370D\357\006:\307\332>H\342(%N\367\344I\215N\365"
 294      EF063AC7 
 294      DA3E48E2 
 294      28254EF7 
 294      E4498D4E 
 295 043e FC33BD6D 		.ascii	"\3743\275m\004\342\267\365o\327'=\202K\276\235\231\367"
 295      04E2B7F5 
 295      6FD7273D 
 295      824BBE9D 
 295      99F7
 296 0450 899EB5E3 		.ascii	"\211\236\265\343\244\226\003j\206/-\225\236\326\364"
 296      A496036A 
 296      862F2D95 
 296      9ED6F4
 297 045f 95AFF6C5 		.ascii	"\225\257\366\305\326\217d\206\377\376\263\270 |\211"
 297      D68F6486 
 297      FFFEB3B8 
 297      207C89
 298 046e 8EDED22D 		.ascii	"\216\336\322-\010\346\201N/\377\263\234\337\337C \311"
 298      08E6814E 
 298      2FFFB39C 
 298      DFDF4320 
 298      C9
 299 047f AEDF096C 		.ascii	"\256\337\011l\272\374\336\306\277\325\266\334Tex\330"
 299      BAFCDEC6 
 299      BFD5B6DC 
 299      546578D8 
 300 048f 46AC190B 		.ascii	"F\254\031\013\344u\354\360v*\3768\222fr\373U8t\352H"
 300      E475ECF0 
 300      762AFE38 
 300      926672FB 
 300      553874EA 
 301 04a4 FCC6325E 		.ascii	"\374\3062^\276nN\004\362\246\375\001\303F\343\271\272"
 301      BE6E4E04 
 301      F2A6FD01 
 301      C346E3B9 
 301      BA
 302 04b5 53DEC0FD 		.ascii	"S\336\300\375\357\026\277\337\256\262\233x\351\322\345"
 302      EF16BFDF 
 302      AEB29B78 
ARM GAS  /var/folders/c6/c789hm653lg9vtl73krp73tm0000gn/T//ccHN0jlm.s 			page 24


 302      E9D2E5
 303 04c4 BFCA1B7C 		.ascii	"\277\312\033|U\373\006\257\265\014\346\342\300>\327"
 303      55FB06AF 
 303      B50CE6E2 
 303      C03ED7
 304 04d3 82AD3703 		.ascii	"\202\2557\003\3462fv]\013\326j\031\214gvS\013\266\331"
 304      E6326676 
 304      5D0BD66A 
 304      198C6776 
 304      530BB6D9 
 305 04e7 0CD8D323 		.ascii	"\014\330\323#M\0127?\251\335P\244\377\304\355\352\034"
 305      4D0A373F 
 305      A9DD50A4 
 305      FFC4EDEA 
 305      1C
 306 04f8 CED410EA 		.ascii	"\316\324\020\352\013\250/\241\276\214\372\012\352k\250"
 306      0BA82FA1 
 306      BE8CFA0A 
 306      EA6BA8
 307 0507 970A4C2F 		.ascii	"\227\012L/C\335\210\372WB\206\374F\371\220p\253y\002"
 307      43DD88FA 
 307      574286FC 
 307      46F99070 
 307      AB7902
 308 051a 5BCDCE60 		.ascii	"[\315\316`\272\262U\367\256q\231\201\274\325\033\255"
 308      BAB255F7 
 308      AE719981 
 308      BCD51BAD 
 309 052a 364D429E 		.ascii	"6MB\236\301\242r\3373%\3550}\342O\354k\036\31386\013"
 309      C1A272DF 
 309      3325ED30 
 309      7DE24FEC 
 309      6B1ECB38 
 310 0540 6CD43BEF 		.ascii	"l\324;\357[\017\330\312\312\365g\352\300o\231\305\361"
 310      5B0FD8CA 
 310      CAF567EA 
 310      C06F99C5 
 310      F1
 311 0551 31824857 		.ascii	"1\202HW\"\207\277<$\016\272\244\262O\007\253$\225\347"
 311      2287BF3C 
 311      240EBAA4 
 311      B24F07AB 
 311      2495E7
 312 0564 DFBDA324 		.ascii	"\337\275\243$\225\362,\375\013\315N\032&\225\314Ji\233"
 312      95F22CFD 
 312      0BCD4E1A 
 312      2695CC4A 
 312      699B
 313 0576 B8D3BD05 		.ascii	"\270\323\275\005\366\037A\035\274K\031\2322+\265\351"
 313      F61F411D 
 313      BC4B199A 
 313      322BB5E9 
 314 0586 97DDAD72 		.ascii	"\227\335\255rS\331\347\253\031\2322+\242\246\262\211"
 314      53D9E7AB 
 314      199A322B 
 314      A2A6B289 
 315 0596 5B8D8B5B 		.ascii	"[\215\213[\250\224\235LfO\352\223\3315\002\227\314\246"
ARM GAS  /var/folders/c6/c789hm653lg9vtl73krp73tm0000gn/T//ccHN0jlm.s 			page 25


 315      A8949D4C 
 315      664FEA93 
 315      D9350297 
 315      CCA6
 316 05a8 C917130E 		.ascii	"\311\027\023\016\356\204\245\354\016'\207\022\233\350"
 316      EE84A5EC 
 316      0E278712 
 316      9BE8
 317 05b6 3649CA87 		.ascii	"6I\312\207\004Y`\231\347\037\2622f\236:$L\274\005\335"
 317      04596099 
 317      E71FB232 
 317      669E3A24 
 317      4CBC05DD 
 318 05ca E6B86EA8 		.ascii	"\346\270n\250\213\342\256\303\236dN>\267\017u\0110'"
 318      8BE2AEC3 
 318      9E644E3E 
 318      B70F7509 
 318      3027
 319 05dc AFD9D4C5 		.ascii	"\257\331\324\305`\023\322`\215\037,m\334\301\372ov\252"
 319      6013D260 
 319      8D1F2C6D 
 319      DCC1FA6F 
 319      76AA
 320 05ee 705B2CC3 		.ascii	"p[,\303\2718\270\235<\334\0163p#\244\216\273x\270\335"
 320      B938B89D 
 320      3CDC0E33 
 320      7023A48E 
 320      BB78B8DD 
 321 0602 96E17876 		.ascii	"\226\341xv\235<\334>3p#\244\217{y\270\303\226\341xv"
 321      9D3CDC3E 
 321      337023A4 
 321      8F7B79B8 
 321      C396E178 
 322 0617 FB79B8BF 		.ascii	"\373y\270\277\231\2013\332\032!\225\352S\341\344\014"
 322      998133DA 
 322      1A2195EA 
 322      53E1E40C 
 323 0627 B0DF321C 		.ascii	"\260\3372\034\317\356(\317n\320\014\234\313x\354\216"
 323      CFEE28CF 
 323      6ED00C9C 
 323      CB78EC8E 
 324 0637 F170972C 		.ascii	"\361p\227,\303i\330\301kt|\310\001h\217\222&9?e\273"
 324      C369D8C1 
 324      6B747CC8 
 324      01688F92 
 324      26393F65 
 325 064c 06735BB1 		.ascii	"\006s[\261\235\316\307\206H\367\010\217b\015Wa)\271"
 325      9DCEC786 
 325      48F7088F 
 325      620D5761 
 325      29B9
 326 065e D13873D3 		.ascii	"\3218s\323v\317Z\354\225\227\231\324+\240T\324O\360"
 326      76CF5AEC 
 326      959799D4 
 326      2BA054D4 
 326      4FF0
 327 0670 02B9AE77 		.ascii	"\002\271\256w\201\353u\204mY\031\221~~D\356\231\031"
ARM GAS  /var/folders/c6/c789hm653lg9vtl73krp73tm0000gn/T//ccHN0jlm.s 			page 26


 327      81EB7584 
 327      6D591991 
 327      7E7E44EE 
 327      9919
 328 0682 910263B8 		.ascii	"\221\002c\270Oy\270\245\331V\341\370\351?\305\303-7"
 328      4F79B8A5 
 328      D956E1F8 
 328      E93FC5C3 
 328      2D37
 329 0694 0367F821 		.ascii	"\003g\370!nQ\342\014\037\234+-\303\361\354\256\362\354"
 329      6E51E20C 
 329      1F9C2B2D 
 329      C3F1ECAE 
 329      F2EC
 330 06a6 5ACCC04D 		.ascii	"Z\314\300M7\036\273\317y\2706\313p|p^\307\340\224\243"
 330      371EBBCF 
 330      79B836CB 
 330      707C705E 
 330      C7E094A3 
 331 06ba 4E20ED7A 		.ascii	"N \355z\264tqRjL\356&O\256\323\0149\2571\334m\036\356"
 331      B4747152 
 331      6A4CEE26 
 331      4FAED30C 
 331      39AF31DC 
 332 06d1 9065387E 		.ascii	"\220e8~&\376\313\303\365\232\201{\3318N\356\352\026"
 332      26FECBC3 
 332      F59A817B 
 332      D9384EEE 
 332      EA16
 333 06e3 31CB703C 		.ascii	"1\313p<\273{\272E\314\014\334\217\215\307\256\351\""
 333      BB7BBA45 
 333      CC0CDC8F 
 333      8DC7AEE9 
 333      22
 334 06f4 07F76FCB 		.ascii	"\007\367o\313p|\2344_\324\306\311M3qRcL\356\267<9)\307"
 334      707C9C34 
 334      5FD4C6C9 
 334      4D337152 
 334      634CEEB7 
 335 070c 0439A30F 		.ascii	"\0049\243\017\324\000\267\222\207[b\031\216\367u5\347"
 335      D400B792 
 335      875B6219 
 335      8EF77535 
 335      E7
 336 071d EB2FF568 		.ascii	"\353/\365h\351|]`L\356w<\2717\314\220\223\214\276x\003"
 336      E97C5D60 
 336      4CEE773C 
 336      B937CC90 
 336      938CBE78 
 337 0732 DE5A1E6F 		.ascii	"\336Z\036o\215u<\0271\274\264Y\240H7\012\354\310\325"
 337      8D753C17 
 337      31BCB459 
 337      A048370A 
 337      ECC8D5
 338 0745 8A87A736 		.ascii	"\212\207\2476\324o\243\336\202\372]\324\355\250;P\357"
 338      D46FA3DE 
 338      82FA5DD4 
ARM GAS  /var/folders/c6/c789hm653lg9vtl73krp73tm0000gn/T//ccHN0jlm.s 			page 27


 338      EDA83B50 
 338      EF
 339 0756 40BD13F5 		.ascii	"@\275\023\365.\324\235\250\367\243N\240>\210\372\020"
 339      2ED49DA8 
 339      F7A34EA0 
 339      3E88FA10 
 340 0766 EAC3A8BB 		.ascii	"\352\303\250\273Pw\243>\202\272\027u\037\352\243\250"
 340      5077A33E 
 340      82BA1775 
 340      1FEAA3A8 
 341 0776 8FA13E8E 		.ascii	"\217\241>\216\272\037\365\247\250O\241>\203z\000\365"
 341      BA1FF5A7 
 341      A84FA13E 
 341      837A00F5 
 342 0786 A0F690A7 		.ascii	"\240\366\220\247;\254\2557\030%\346\3679!/m+\203\337"
 342      3BACAD37 
 342      1825E6F7 
 342      39212F6D 
 342      2B83DF
 343 0799 D5B9DF02 		.ascii	"\325\271\337\002D\372\016\036N\267r\237\337-\377\274"
 343      44FA0E1E 
 343      4EB7729F 
 343      DF2DFFBC 
 344 07a9 6544ED7C 		.ascii	"eD\355|\212\232\0316\344\2533I\236\000\023\017\341\373"
 344      8A9A1936 
 344      E4AB3349 
 344      9E00130F 
 344      E1FB
 345 07bb 31FB289F 		.ascii	"1\373(\237\270:\260q\3603\312\216\007\322\360\360/\250"
 345      B83AB071 
 345      F033CA8E 
 345      07D2F0F0 
 345      2FA8
 346 07cd F90FF3   		.ascii	"\371\017\363"
 347 07d0 1705EEC3 		.ascii	"\027\005\356\303\274|rN\376\241\014\215\356\320\270"
 347      BC7C724E 
 347      FEA10C8D 
 347      EED0B8
 348 07df 2127DDA1 		.ascii	"!'\335\241QZ\023,\225\233\013\344\035\264\270 \030\235"
 348      515A132C 
 348      959B0BE4 
 348      1DB4B820 
 348      189D
 349 07f1 DC9895DA 		.ascii	"\334\230\225\332\354\367\207\235MT\356J\244'\2500bC"
 349      ECF7879D 
 349      4D54EE4A 
 349      A427A830 
 349      6243
 350 0803 8590F2EB 		.ascii	"\205\220\362\353\305\036\311;.y\336c\215\270W\3552\177"
 350      C51EC93B 
 350      2E79DE63 
 350      8DB857ED 
 350      327F
 351 0815 DE7B8AB4 		.ascii	"\336{\212\264\262\325g\270\247k!\373\217\014\232Y\327"
 351      B2D567B8 
 351      A76B21FB 
 351      8F0C9A59 
ARM GAS  /var/folders/c6/c789hm653lg9vtl73krp73tm0000gn/T//ccHN0jlm.s 			page 28


 351      D7
 352 0826 3E973A5A 		.ascii	">\227:Z\362\377\277\037\222\251S\246\270\345\177\221"
 352      F2FFBF1F 
 352      92A953A6 
 352      B8E57F91 
 353 0836 7A778D18 		.ascii	"zw\215\030vG#\261x\275\333?wNQ\241\273\274\274\330="
 353      764723B1 
 353      78BDDB3F 
 353      774E51A1 
 353      BBBCBCD8 
 354 084b DB5B56F1 		.ascii	"\333[V\361J\241;*\206\003\341p\325\224J\313-jH\366\354"
 354      4AA13B2A 
 354      8603E170 
 354      D5944ACB 
 354      2D6A48F6 
 355 0860 97E6B93C 		.ascii	"\227\346\271<dL}\274\266\25000?\032\212\004\352\203"
 355      644C7DBC 
 355      B6A83030 
 355      3F1A8A04 
 355      EA83
 356 0872 F1866820 		.ascii	"\361\206h ^\356n\250\217\271\303\221J\200\361\004\303"
 356      5EEE6EA8 
 356      8FB9C391 
 356      4A80F104 
 356      C3
 357 0883 6131E69E 		.ascii	"a1\346\236_Y9Y\214\325N\256\213\324\005'\007\305\237"
 357      5F593959 
 357      8CD54EAE 
 357      8BD40527 
 357      07C59F
 358 0896 84DC8505 		.ascii	"\204\334\205\005S\247\025\274P\360\234\233\277\035\252"
 358      53A715BC 
 358      50F09C9B 
 358      BF1DAA
 359 08a5 AB0C3754 		.ascii	"\253\0147T\005\335\365\361\252P]\034\272q4@\011\035"
 359      05DDF5F1 
 359      AA505D1C 
 359      BA713440 
 359      091D
 360 08b7 C47FF410 		.ascii	"\304\177\364\020Pk\305\312\232P]\320\035\250\012V\213"
 360      506BC5CA 
 360      9A505DD0 
 360      1DA80A56 
 360      8B
 361 08c8 0DE17820 		.ascii	"\015\341x \376j4X\017\275\214\012\004\324~\262j#U\301"
 361      FE6A3458 
 361      0FBD8C0A 
 361      04D47EB2 
 361      6A2355C1 
 362 08dc 5876843D 		.ascii	"Xv\204=\212\345D\352\243\301`U,+\332\020\255\212\331"
 362      8AE544EA 
 362      A3C16055 
 362      2C2BDA10 
 362      AD8AD9
 363 08ef 225531BB 		.ascii	"\"U1\273X\035\0133U\223\355\235Q,\306\305l\357L\271"
 363      581D0B33 
 363      5593ED9D 
ARM GAS  /var/folders/c6/c789hm653lg9vtl73krp73tm0000gn/T//ccHN0jlm.s 			page 29


 363      512CC6C5 
 363      6CEF4CB9 
 364 0903 F0C845B1 		.ascii	"\360\310E\261\\\224\310\305,\271\230-\027\245rQ\306"
 364      5C94C8C5 
 364      2CB9982D 
 364      17A57251 
 364      C6
 365 0914 8A5CEF8C 		.ascii	"\212\\\357\214rO\244\256:4\377k\001eT\003\241\272P<"
 365      724FA4AE 
 365      3A34FF6B 
 365      01655403 
 365      A1BA503C 
 366 0928 BB126F3A 		.ascii	"\273\022o:5\343\032\317\232SQ\\\342\313\256\230\373"
 366      35E31ACF 
 366      9A53515C 
 366      E2CBAE98 
 366      FB
 367 0939 436F892F 		.ascii	"Co\211/\247\302\357-))\366ey\347y\213}\2662\220\212"
 367      A7C2EF2D 
 367      2929F665 
 367      79E7798B 
 367      7DB63290 
 368 094e 621FFD01 		.ascii	"b\037\375\001\216\324\324\347\003q\305\031V\265\301"
 368      8ED4D4E7 
 368      0371C519 
 368      56B5C1
 369 095d 94645586 		.ascii	"\224dU\206\203b\214\226\332g\372}>{\271\347{>\373\214"
 369      83628C96 
 369      DA67FA7D 
 369      3E7BB9E7 
 369      7B3EFB8C 
 370 0971 59BE72A6 		.ascii	"Y\276r\246Jm3}\276Q\241\010\233\354PU \356\224\253\265"
 370      4A6D337D 
 370      BE51A108 
 370      9BEC5055 
 370      20EE94AB 
 371 0986 62FD4F03 		.ascii	"b\375O\003qG(\302\206\"\020\037\233\344\007h\363c\221"
 371      714728C2 
 371      8622101F 
 371      9BE40768 
 371      F36391
 372 0999 8628BB6F 		.ascii	"\206(\273og\226vfjg\177>\245\015\240\340\202\270\333"
 372      67967666 
 372      6A677F3E 
 372      A50DA0E0 
 372      82B8DB
 373 09ac 33C75FE6 		.ascii	"3\307_\346\207\000r\243#\325\323\012\276\275`\001\214"
 373      870072A3 
 373      23D5D30A 
 373      BEBD6001 
 373      8C
 374 09bd 749ECFE3 		.ascii	"t\236\317\343\011\314\205\261-\016V\013\036_\216\267"
 374      09CC85B1 
 374      2D0E560B 
 374      1E5F8EB7 
 375 09cd BCDC336B 		.ascii	"\274\3343k\266\317\316\224\315S\346s\314(\2359\325\347"
 375      B6CFCE94 
ARM GAS  /var/folders/c6/c789hm653lg9vtl73krp73tm0000gn/T//ccHN0jlm.s 			page 30


 375      CD53E673 
 375      CC289D39 
 375      D5E7
 376 09df 9F8B9542 		.ascii	"\237\213\225B\265R\304*\271\276\022\177\211\357\373"
 376      B552C42A 
 376      B9BE127F 
 376      89EFFB
 377 09ee 25C5058E 		.ascii	"%\305\005\216\031^\325\310+\033%\237M\315a\000%/\371"
 377      195ED5C8 
 377      2B1B259F 
 377      4DCD6100 
 377      252FF9
 378 0a01 5859A894 		.ascii	"XY\250\224EP&-\012sXk|\342E\213\344\223\242\\\326\266"
 378      4550262D 
 378      0A73586B 
 378      7CE2458B 
 378      E493A25C 
 379 0a17 DCCBEEB1 		.ascii	"\334\313\356\261\326\311Z\221\\S\355\246\3452\004\345"
 379      D6C95A91 
 379      5C53EDA6 
 379      E53204E5 
 380 0a27 A957B553 		.ascii	"\251W\265S\237>g\237Y\354\001_\374\251[\317g\371\375"
 380      9F3E679F 
 380      59EC015F 
 380      FCA95BCF 
 380      67F9FD
 381 0a3a 9ED9BE51 		.ascii	"\236\331\276Q\340lY\241\237\271\352`S\315&7\213\251"
 381      E06C59A1 
 381      9FB9EA60 
 381      53CD2637 
 381      8BA9
 382 0a4c E8FF005E 		.ascii	"\350\377\000^\316\201\357"
 382      CE81EF
 383              		.text
 384              		.section	.gnu.lto_.symtab.374e03f3a3ccc29e,"",%progbits
 385 0000 5F70616C 		.ascii	"_pal_lld_init\000\000\000\000\000\000\000\000\000\000"
 385      5F6C6C64 
 385      5F696E69 
 385      74000000 
 385      00000000 
 386 0017 0000A100 		.ascii	"\000\000\241\000\000\000_pal_lld_setgroupmode\000\000"
 386      00005F70 
 386      616C5F6C 
 386      6C645F73 
 386      65746772 
 387 0034 00000000 		.ascii	"\000\000\000\000\000\000\000\000\000\000\333\000\000"
 387      00000000 
 387      0000DB00 
 387      00
 388 0041 00       		.ascii	"\000"
 389              		.text
 390              		.section	.gnu.lto_.opts,"",%progbits
 391 0000 272D6D63 		.ascii	"'-mcpu=cortex-m4' '-mno-thumb-interwork' '-mthumb' "
 391      70753D63 
 391      6F727465 
 391      782D6D34 
 391      2720272D 
ARM GAS  /var/folders/c6/c789hm653lg9vtl73krp73tm0000gn/T//ccHN0jlm.s 			page 31


 392 0033 272D6767 		.ascii	"'-ggdb' '-O2' '-fomit-frame-pointer' '-falign-funct"
 392      64622720 
 392      272D4F32 
 392      2720272D 
 392      666F6D69 
 393 0066 696F6E73 		.ascii	"ions=16' '-ffunction-sections' '-fdata-sections' '-"
 393      3D313627 
 393      20272D66 
 393      66756E63 
 393      74696F6E 
 394 0099 666E6F2D 		.ascii	"fno-common' '-flto'\000"
 394      636F6D6D 
 394      6F6E2720 
 394      272D666C 
 394      746F2700 
 395              		.text
 396              		.cfi_sections	.debug_frame
 397              		.section	.text._pal_lld_init,"ax",%progbits
 398              		.align	2
 399              		.p2align 4,,15
 400              		.global	_pal_lld_init
 401              		.thumb
 402              		.thumb_func
 403              		.type	_pal_lld_init, %function
 404              	_pal_lld_init:
 405              	.LFB261:
 406              		.file 1 "../../../os/hal/ports/STM32/LLD/GPIOv2/pal_lld.c"
 407              		.loc 1 92 0
 408              		.cfi_startproc
 409              		@ args = 0, pretend = 0, frame = 0
 410              		@ frame_needed = 0, uses_anonymous_args = 0
 411              		@ link register save eliminated.
 412              	.LVL0:
 413 0000 2DE9F00F 		push	{r4, r5, r6, r7, r8, r9, r10, fp}
 414              		.cfi_def_cfa_offset 32
 415              		.cfi_offset 4, -32
 416              		.cfi_offset 5, -28
 417              		.cfi_offset 6, -24
 418              		.cfi_offset 7, -20
 419              		.cfi_offset 8, -16
 420              		.cfi_offset 9, -12
 421              		.cfi_offset 10, -8
 422              		.cfi_offset 11, -4
 423              		.loc 1 105 0
 424 0004 DFF8AC91 		ldr	r9, .L2+28
 425              	.LBB20:
 426              	.LBB21:
 427              		.loc 1 67 0
 428 0008 DFF8AC81 		ldr	r8, .L2+32
 429              	.LBE21:
 430              	.LBE20:
 431              		.loc 1 105 0
 432 000c D9F830B0 		ldr	fp, [r9, #48]
 433              	.LBB23:
 434              	.LBB24:
 435              		.loc 1 67 0
 436 0010 DFF8A8C1 		ldr	ip, .L2+36
ARM GAS  /var/folders/c6/c789hm653lg9vtl73krp73tm0000gn/T//ccHN0jlm.s 			page 32


 437              	.LBE24:
 438              	.LBE23:
 439              	.LBB26:
 440              	.LBB27:
 441 0014 604F     		ldr	r7, .L2
 442              	.LBE27:
 443              	.LBE26:
 444              	.LBB29:
 445              	.LBB30:
 446 0016 614E     		ldr	r6, .L2+4
 447              	.LBE30:
 448              	.LBE29:
 449              	.LBB32:
 450              	.LBB33:
 451 0018 614D     		ldr	r5, .L2+8
 452              	.LBE33:
 453              	.LBE32:
 454              	.LBB35:
 455              	.LBB36:
 456 001a 624C     		ldr	r4, .L2+12
 457              	.LBE36:
 458              	.LBE35:
 459              	.LBB38:
 460              	.LBB39:
 461 001c 6249     		ldr	r1, .L2+16
 462              	.LBE39:
 463              	.LBE38:
 464              	.LBB41:
 465              	.LBB42:
 466 001e 634A     		ldr	r2, .L2+20
 467              	.LBE42:
 468              	.LBE41:
 469              		.loc 1 105 0
 470 0020 40F2FF1A 		movw	r10, #511
 471 0024 4BEA0A0B 		orr	fp, fp, r10
 472 0028 C9F830B0 		str	fp, [r9, #48]
 473              		.loc 1 106 0
 474 002c D9F850B0 		ldr	fp, [r9, #80]
 475 0030 4BEA0A0A 		orr	r10, fp, r10
 476 0034 C9F850A0 		str	r10, [r9, #80]
 477              	.LVL1:
 478              	.LBB44:
 479              	.LBB22:
 480              		.loc 1 67 0
 481 0038 4368     		ldr	r3, [r0, #4]
 482 003a C8F80430 		str	r3, [r8, #4]
 483              		.loc 1 68 0
 484 003e 8368     		ldr	r3, [r0, #8]
 485 0040 C8F80830 		str	r3, [r8, #8]
 486              		.loc 1 69 0
 487 0044 C368     		ldr	r3, [r0, #12]
 488 0046 C8F80C30 		str	r3, [r8, #12]
 489              		.loc 1 70 0
 490 004a 0369     		ldr	r3, [r0, #16]
 491 004c C8F81430 		str	r3, [r8, #20]
 492              		.loc 1 71 0
 493 0050 4369     		ldr	r3, [r0, #20]
ARM GAS  /var/folders/c6/c789hm653lg9vtl73krp73tm0000gn/T//ccHN0jlm.s 			page 33


 494 0052 C8F82030 		str	r3, [r8, #32]
 495              		.loc 1 72 0
 496 0056 8369     		ldr	r3, [r0, #24]
 497 0058 C8F82430 		str	r3, [r8, #36]
 498              		.loc 1 73 0
 499 005c 0368     		ldr	r3, [r0]
 500 005e C8F80030 		str	r3, [r8]
 501              	.LVL2:
 502              	.LBE22:
 503              	.LBE44:
 504              	.LBB45:
 505              	.LBB25:
 506              		.loc 1 67 0
 507 0062 036A     		ldr	r3, [r0, #32]
 508 0064 CCF80430 		str	r3, [ip, #4]
 509              		.loc 1 68 0
 510 0068 436A     		ldr	r3, [r0, #36]
 511 006a CCF80830 		str	r3, [ip, #8]
 512              		.loc 1 69 0
 513 006e 836A     		ldr	r3, [r0, #40]
 514 0070 CCF80C30 		str	r3, [ip, #12]
 515              		.loc 1 70 0
 516 0074 C36A     		ldr	r3, [r0, #44]
 517 0076 CCF81430 		str	r3, [ip, #20]
 518              		.loc 1 71 0
 519 007a 036B     		ldr	r3, [r0, #48]
 520 007c CCF82030 		str	r3, [ip, #32]
 521              		.loc 1 72 0
 522 0080 436B     		ldr	r3, [r0, #52]
 523 0082 CCF82430 		str	r3, [ip, #36]
 524              		.loc 1 73 0
 525 0086 C369     		ldr	r3, [r0, #28]
 526 0088 CCF80030 		str	r3, [ip]
 527              	.LVL3:
 528              	.LBE25:
 529              	.LBE45:
 530              	.LBB46:
 531              	.LBB28:
 532              		.loc 1 67 0
 533 008c C36B     		ldr	r3, [r0, #60]
 534 008e 7B60     		str	r3, [r7, #4]
 535              		.loc 1 68 0
 536 0090 036C     		ldr	r3, [r0, #64]
 537 0092 BB60     		str	r3, [r7, #8]
 538              		.loc 1 69 0
 539 0094 436C     		ldr	r3, [r0, #68]
 540 0096 FB60     		str	r3, [r7, #12]
 541              		.loc 1 70 0
 542 0098 836C     		ldr	r3, [r0, #72]
 543 009a 7B61     		str	r3, [r7, #20]
 544              		.loc 1 71 0
 545 009c C36C     		ldr	r3, [r0, #76]
 546 009e 3B62     		str	r3, [r7, #32]
 547              		.loc 1 72 0
 548 00a0 036D     		ldr	r3, [r0, #80]
 549 00a2 7B62     		str	r3, [r7, #36]
 550              		.loc 1 73 0
ARM GAS  /var/folders/c6/c789hm653lg9vtl73krp73tm0000gn/T//ccHN0jlm.s 			page 34


 551 00a4 836B     		ldr	r3, [r0, #56]
 552 00a6 3B60     		str	r3, [r7]
 553              	.LVL4:
 554              	.LBE28:
 555              	.LBE46:
 556              	.LBB47:
 557              	.LBB31:
 558              		.loc 1 67 0
 559 00a8 876D     		ldr	r7, [r0, #88]
 560 00aa 7760     		str	r7, [r6, #4]
 561              		.loc 1 68 0
 562 00ac C76D     		ldr	r7, [r0, #92]
 563 00ae B760     		str	r7, [r6, #8]
 564              		.loc 1 69 0
 565 00b0 076E     		ldr	r7, [r0, #96]
 566 00b2 F760     		str	r7, [r6, #12]
 567              		.loc 1 70 0
 568 00b4 476E     		ldr	r7, [r0, #100]
 569 00b6 7761     		str	r7, [r6, #20]
 570              		.loc 1 71 0
 571 00b8 876E     		ldr	r7, [r0, #104]
 572 00ba 3762     		str	r7, [r6, #32]
 573              		.loc 1 72 0
 574 00bc C76E     		ldr	r7, [r0, #108]
 575 00be 7762     		str	r7, [r6, #36]
 576              		.loc 1 73 0
 577 00c0 476D     		ldr	r7, [r0, #84]
 578 00c2 3760     		str	r7, [r6]
 579              	.LVL5:
 580              	.LBE31:
 581              	.LBE47:
 582              	.LBB48:
 583              	.LBB34:
 584              		.loc 1 67 0
 585 00c4 466F     		ldr	r6, [r0, #116]
 586 00c6 6E60     		str	r6, [r5, #4]
 587              		.loc 1 68 0
 588 00c8 866F     		ldr	r6, [r0, #120]
 589 00ca AE60     		str	r6, [r5, #8]
 590              		.loc 1 69 0
 591 00cc C66F     		ldr	r6, [r0, #124]
 592 00ce EE60     		str	r6, [r5, #12]
 593              		.loc 1 70 0
 594 00d0 D0F88060 		ldr	r6, [r0, #128]
 595 00d4 6E61     		str	r6, [r5, #20]
 596              		.loc 1 71 0
 597 00d6 D0F88460 		ldr	r6, [r0, #132]
 598 00da 2E62     		str	r6, [r5, #32]
 599              		.loc 1 72 0
 600 00dc D0F88860 		ldr	r6, [r0, #136]
 601 00e0 6E62     		str	r6, [r5, #36]
 602              		.loc 1 73 0
 603 00e2 066F     		ldr	r6, [r0, #112]
 604 00e4 2E60     		str	r6, [r5]
 605              	.LVL6:
 606              	.LBE34:
 607              	.LBE48:
ARM GAS  /var/folders/c6/c789hm653lg9vtl73krp73tm0000gn/T//ccHN0jlm.s 			page 35


 608              	.LBB49:
 609              	.LBB37:
 610              		.loc 1 67 0
 611 00e6 D0F89050 		ldr	r5, [r0, #144]
 612 00ea 6560     		str	r5, [r4, #4]
 613              		.loc 1 68 0
 614 00ec D0F89450 		ldr	r5, [r0, #148]
 615 00f0 A560     		str	r5, [r4, #8]
 616              		.loc 1 69 0
 617 00f2 D0F89850 		ldr	r5, [r0, #152]
 618 00f6 E560     		str	r5, [r4, #12]
 619              		.loc 1 70 0
 620 00f8 D0F89C50 		ldr	r5, [r0, #156]
 621 00fc 6561     		str	r5, [r4, #20]
 622              		.loc 1 71 0
 623 00fe D0F8A050 		ldr	r5, [r0, #160]
 624 0102 2562     		str	r5, [r4, #32]
 625              		.loc 1 72 0
 626 0104 D0F8A450 		ldr	r5, [r0, #164]
 627 0108 6562     		str	r5, [r4, #36]
 628              		.loc 1 73 0
 629 010a D0F88C50 		ldr	r5, [r0, #140]
 630 010e 2560     		str	r5, [r4]
 631              	.LVL7:
 632              	.LBE37:
 633              	.LBE49:
 634              	.LBB50:
 635              	.LBB40:
 636              		.loc 1 67 0
 637 0110 D0F8AC40 		ldr	r4, [r0, #172]
 638 0114 4C60     		str	r4, [r1, #4]
 639              		.loc 1 68 0
 640 0116 D0F8B040 		ldr	r4, [r0, #176]
 641 011a 8C60     		str	r4, [r1, #8]
 642              		.loc 1 69 0
 643 011c D0F8B440 		ldr	r4, [r0, #180]
 644 0120 CC60     		str	r4, [r1, #12]
 645              		.loc 1 70 0
 646 0122 D0F8B840 		ldr	r4, [r0, #184]
 647 0126 4C61     		str	r4, [r1, #20]
 648              		.loc 1 71 0
 649 0128 D0F8BC40 		ldr	r4, [r0, #188]
 650 012c 0C62     		str	r4, [r1, #32]
 651              		.loc 1 72 0
 652 012e D0F8C040 		ldr	r4, [r0, #192]
 653 0132 4C62     		str	r4, [r1, #36]
 654              		.loc 1 73 0
 655 0134 D0F8A840 		ldr	r4, [r0, #168]
 656 0138 0C60     		str	r4, [r1]
 657              	.LVL8:
 658              	.LBE40:
 659              	.LBE50:
 660              	.LBB51:
 661              	.LBB43:
 662              		.loc 1 67 0
 663 013a D0F8C810 		ldr	r1, [r0, #200]
 664 013e 5160     		str	r1, [r2, #4]
ARM GAS  /var/folders/c6/c789hm653lg9vtl73krp73tm0000gn/T//ccHN0jlm.s 			page 36


 665              		.loc 1 68 0
 666 0140 D0F8CC10 		ldr	r1, [r0, #204]
 667 0144 9160     		str	r1, [r2, #8]
 668              		.loc 1 69 0
 669 0146 D0F8D010 		ldr	r1, [r0, #208]
 670 014a D160     		str	r1, [r2, #12]
 671              		.loc 1 70 0
 672 014c D0F8D410 		ldr	r1, [r0, #212]
 673 0150 5161     		str	r1, [r2, #20]
 674              		.loc 1 71 0
 675 0152 D0F8D810 		ldr	r1, [r0, #216]
 676 0156 1162     		str	r1, [r2, #32]
 677              		.loc 1 72 0
 678 0158 D0F8DC10 		ldr	r1, [r0, #220]
 679 015c 5162     		str	r1, [r2, #36]
 680              		.loc 1 73 0
 681 015e D0F8C410 		ldr	r1, [r0, #196]
 682 0162 1160     		str	r1, [r2]
 683              	.LVL9:
 684              	.LBE43:
 685              	.LBE51:
 686              	.LBB52:
 687              	.LBB53:
 688              		.loc 1 67 0
 689 0164 124B     		ldr	r3, .L2+24
 690 0166 D0F8E420 		ldr	r2, [r0, #228]
 691 016a 5A60     		str	r2, [r3, #4]
 692              		.loc 1 68 0
 693 016c D0F8E820 		ldr	r2, [r0, #232]
 694 0170 9A60     		str	r2, [r3, #8]
 695              		.loc 1 69 0
 696 0172 D0F8EC20 		ldr	r2, [r0, #236]
 697 0176 DA60     		str	r2, [r3, #12]
 698              		.loc 1 70 0
 699 0178 D0F8F020 		ldr	r2, [r0, #240]
 700 017c 5A61     		str	r2, [r3, #20]
 701              		.loc 1 71 0
 702 017e D0F8F420 		ldr	r2, [r0, #244]
 703 0182 1A62     		str	r2, [r3, #32]
 704              		.loc 1 72 0
 705 0184 D0F8F820 		ldr	r2, [r0, #248]
 706 0188 5A62     		str	r2, [r3, #36]
 707              		.loc 1 73 0
 708 018a D0F8E020 		ldr	r2, [r0, #224]
 709 018e 1A60     		str	r2, [r3]
 710              	.LBE53:
 711              	.LBE52:
 712              		.loc 1 139 0
 713 0190 BDE8F00F 		pop	{r4, r5, r6, r7, r8, r9, r10, fp}
 714 0194 7047     		bx	lr
 715              	.L3:
 716 0196 00BF     		.align	2
 717              	.L2:
 718 0198 00080240 		.word	1073874944
 719 019c 000C0240 		.word	1073875968
 720 01a0 00100240 		.word	1073876992
 721 01a4 00140240 		.word	1073878016
ARM GAS  /var/folders/c6/c789hm653lg9vtl73krp73tm0000gn/T//ccHN0jlm.s 			page 37


 722 01a8 00180240 		.word	1073879040
 723 01ac 001C0240 		.word	1073880064
 724 01b0 00200240 		.word	1073881088
 725 01b4 00380240 		.word	1073887232
 726 01b8 00000240 		.word	1073872896
 727 01bc 00040240 		.word	1073873920
 728              		.cfi_endproc
 729              	.LFE261:
 730              		.size	_pal_lld_init, .-_pal_lld_init
 731              		.section	.text._pal_lld_setgroupmode,"ax",%progbits
 732              		.align	2
 733              		.p2align 4,,15
 734              		.global	_pal_lld_setgroupmode
 735              		.thumb
 736              		.thumb_func
 737              		.type	_pal_lld_setgroupmode, %function
 738              	_pal_lld_setgroupmode:
 739              	.LFB262:
 740              		.loc 1 157 0
 741              		.cfi_startproc
 742              		@ args = 0, pretend = 0, frame = 0
 743              		@ frame_needed = 0, uses_anonymous_args = 0
 744              		@ link register save eliminated.
 745              	.LVL10:
 746 0000 2DE9F00F 		push	{r4, r5, r6, r7, r8, r9, r10, fp}
 747              		.cfi_def_cfa_offset 32
 748              		.cfi_offset 4, -32
 749              		.cfi_offset 5, -28
 750              		.cfi_offset 6, -24
 751              		.cfi_offset 7, -20
 752              		.cfi_offset 8, -16
 753              		.cfi_offset 9, -12
 754              		.cfi_offset 10, -8
 755              		.cfi_offset 11, -4
 756              		.loc 1 164 0
 757 0004 0023     		movs	r3, #0
 758              		.loc 1 159 0
 759 0006 02F00307 		and	r7, r2, #3
 760              	.LVL11:
 761              		.loc 1 160 0
 762 000a C2F38006 		ubfx	r6, r2, #2, #1
 763              	.LVL12:
 764              		.loc 1 161 0
 765 000e C2F3C105 		ubfx	r5, r2, #3, #2
 766              	.LVL13:
 767              		.loc 1 162 0
 768 0012 C2F34114 		ubfx	r4, r2, #5, #2
 769              	.LVL14:
 770              	.LBB54:
 771              		.loc 1 170 0
 772 0016 4FF00F09 		mov	r9, #15
 773              	.LBE54:
 774              		.loc 1 163 0
 775 001a C2F3C312 		ubfx	r2, r2, #7, #4
 776              	.LVL15:
 777              	.LBB55:
 778              		.loc 1 175 0
ARM GAS  /var/folders/c6/c789hm653lg9vtl73krp73tm0000gn/T//ccHN0jlm.s 			page 38


 779 001e 4FF0010A 		mov	r10, #1
 780 0022 38E0     		b	.L9
 781              	.LVL16:
 782              	.L14:
 783              		.loc 1 172 0
 784 0024 D0F820B0 		ldr	fp, [r0, #32]
 785 0028 2BEA0C0C 		bic	ip, fp, ip
 786              	.LVL17:
 787 002c 4CEA0808 		orr	r8, ip, r8
 788              	.LVL18:
 789 0030 C0F82080 		str	r8, [r0, #32]
 790              	.L7:
 791              	.LVL19:
 792              		.loc 1 176 0
 793 0034 D0F804C0 		ldr	ip, [r0, #4]
 794              		.loc 1 175 0
 795 0038 0AFA03F8 		lsl	r8, r10, r3
 796              		.loc 1 176 0
 797 003c 2CEA080C 		bic	ip, ip, r8
 798 0040 4CEA060C 		orr	ip, ip, r6
 799 0044 C0F804C0 		str	ip, [r0, #4]
 800              	.LVL20:
 801              		.loc 1 177 0
 802 0048 4FF0030B 		mov	fp, #3
 803 004c 4FEA430C 		lsl	ip, r3, #1
 804              		.loc 1 178 0
 805 0050 D0F80880 		ldr	r8, [r0, #8]
 806              		.loc 1 177 0
 807 0054 0BFA0CFC 		lsl	ip, fp, ip
 808              	.LVL21:
 809              		.loc 1 178 0
 810 0058 6FEA0C0C 		mvn	ip, ip
 811              	.LVL22:
 812 005c 0CEA0808 		and	r8, ip, r8
 813 0060 48EA0508 		orr	r8, r8, r5
 814 0064 C0F80880 		str	r8, [r0, #8]
 815              		.loc 1 179 0
 816 0068 D0F80C80 		ldr	r8, [r0, #12]
 817 006c 0CEA0808 		and	r8, ip, r8
 818 0070 48EA0408 		orr	r8, r8, r4
 819 0074 C0F80C80 		str	r8, [r0, #12]
 820              		.loc 1 180 0
 821 0078 D0F80080 		ldr	r8, [r0]
 822 007c 0CEA080C 		and	ip, ip, r8
 823              	.LVL23:
 824 0080 4CEA070C 		orr	ip, ip, r7
 825 0084 C0F800C0 		str	ip, [r0]
 826              	.LVL24:
 827              	.L5:
 828              	.LBE55:
 829              		.loc 1 183 0
 830 0088 4908     		lsrs	r1, r1, #1
 831              	.LVL25:
 832 008a 1AD0     		beq	.L4
 833              		.loc 1 185 0
 834 008c 7600     		lsls	r6, r6, #1
 835              	.LVL26:
ARM GAS  /var/folders/c6/c789hm653lg9vtl73krp73tm0000gn/T//ccHN0jlm.s 			page 39


 836              		.loc 1 186 0
 837 008e AD00     		lsls	r5, r5, #2
 838              	.LVL27:
 839              		.loc 1 187 0
 840 0090 A400     		lsls	r4, r4, #2
 841              	.LVL28:
 842              		.loc 1 188 0
 843 0092 BF00     		lsls	r7, r7, #2
 844              	.LVL29:
 845              		.loc 1 189 0
 846 0094 0133     		adds	r3, r3, #1
 847              	.LVL30:
 848              	.L9:
 849              	.LBB56:
 850              		.loc 1 169 0
 851 0096 03F0070C 		and	ip, r3, #7
 852 009a 4FEA8C0C 		lsl	ip, ip, #2
 853              	.LBE56:
 854              		.loc 1 166 0
 855 009e 11F0010F 		tst	r1, #1
 856              	.LBB57:
 857              		.loc 1 169 0
 858 00a2 02FA0CF8 		lsl	r8, r2, ip
 859              	.LVL31:
 860              		.loc 1 170 0
 861 00a6 09FA0CFC 		lsl	ip, r9, ip
 862              	.LVL32:
 863              	.LBE57:
 864              		.loc 1 166 0
 865 00aa EDD0     		beq	.L5
 866              	.LBB58:
 867              		.loc 1 171 0
 868 00ac 072B     		cmp	r3, #7
 869 00ae B9D9     		bls	.L14
 870              		.loc 1 174 0
 871 00b0 D0F824B0 		ldr	fp, [r0, #36]
 872 00b4 2BEA0C0C 		bic	ip, fp, ip
 873              	.LVL33:
 874 00b8 4CEA0808 		orr	r8, ip, r8
 875              	.LVL34:
 876 00bc C0F82480 		str	r8, [r0, #36]
 877 00c0 B8E7     		b	.L7
 878              	.L4:
 879              	.LBE58:
 880              		.loc 1 191 0
 881 00c2 BDE8F00F 		pop	{r4, r5, r6, r7, r8, r9, r10, fp}
 882              	.LVL35:
 883 00c6 7047     		bx	lr
 884              		.cfi_endproc
 885              	.LFE262:
 886              		.size	_pal_lld_setgroupmode, .-_pal_lld_setgroupmode
 887 00c8 AFF30080 		.text
 887      AFF30080 
 888              	.Letext0:
 889              		.file 2 "/usr/local/Cellar/gcc-arm-none-eabi/20140805/arm-none-eabi/include/machine/_default_types
 890              		.file 3 "/usr/local/Cellar/gcc-arm-none-eabi/20140805/arm-none-eabi/include/stdint.h"
 891              		.file 4 "../../../os/rt/ports/ARMCMx/compilers/GCC/chtypes.h"
ARM GAS  /var/folders/c6/c789hm653lg9vtl73krp73tm0000gn/T//ccHN0jlm.s 			page 40


 892              		.file 5 "../../../os/rt/include/chsystypes.h"
 893              		.file 6 "../../../os/rt/include/chschd.h"
 894              		.file 7 "../../../os/ext/CMSIS/ST/stm32f407xx.h"
 895              		.file 8 "../../../os/rt/ports/ARMCMx/chcore.h"
 896              		.file 9 "../../../os/rt/ports/ARMCMx/chcore_v7m.h"
 897              		.file 10 "../../../os/rt/include/chdebug.h"
 898              		.file 11 "../../../os/rt/include/chtm.h"
 899              		.file 12 "../../../os/rt/include/chstats.h"
 900              		.file 13 "../../../os/rt/include/chsem.h"
 901              		.file 14 "../../../os/rt/include/chmtx.h"
 902              		.file 15 "../../../os/hal/ports/STM32/LLD/GPIOv2/pal_lld.h"
 903              		.file 16 "../../../os/ext/CMSIS/include/core_cm4.h"
 904              		.section	.debug_info,"",%progbits
 905              	.Ldebug_info0:
 906 0000 040E0000 		.4byte	0xe04
 907 0004 0400     		.2byte	0x4
 908 0006 00000000 		.4byte	.Ldebug_abbrev0
 909 000a 04       		.byte	0x4
 910 000b 01       		.uleb128 0x1
 911 000c 8F070000 		.4byte	.LASF199
 912 0010 01       		.byte	0x1
 913 0011 7C080000 		.4byte	.LASF200
 914 0015 AD020000 		.4byte	.LASF201
 915 0019 F0000000 		.4byte	.Ldebug_ranges0+0xf0
 916 001d 00000000 		.4byte	0
 917 0021 00000000 		.4byte	.Ldebug_line0
 918 0025 02       		.uleb128 0x2
 919 0026 04       		.byte	0x4
 920 0027 05       		.byte	0x5
 921 0028 696E7400 		.ascii	"int\000"
 922 002c 03       		.uleb128 0x3
 923 002d 04       		.byte	0x4
 924 002e 07       		.byte	0x7
 925 002f 6C020000 		.4byte	.LASF0
 926 0033 03       		.uleb128 0x3
 927 0034 01       		.byte	0x1
 928 0035 06       		.byte	0x6
 929 0036 4C010000 		.4byte	.LASF1
 930 003a 04       		.uleb128 0x4
 931 003b 45000000 		.4byte	.LASF4
 932 003f 02       		.byte	0x2
 933 0040 1C       		.byte	0x1c
 934 0041 45000000 		.4byte	0x45
 935 0045 03       		.uleb128 0x3
 936 0046 01       		.byte	0x1
 937 0047 08       		.byte	0x8
 938 0048 2C050000 		.4byte	.LASF2
 939 004c 03       		.uleb128 0x3
 940 004d 02       		.byte	0x2
 941 004e 05       		.byte	0x5
 942 004f 4F050000 		.4byte	.LASF3
 943 0053 04       		.uleb128 0x4
 944 0054 40060000 		.4byte	.LASF5
 945 0058 02       		.byte	0x2
 946 0059 26       		.byte	0x26
 947 005a 5E000000 		.4byte	0x5e
 948 005e 03       		.uleb128 0x3
ARM GAS  /var/folders/c6/c789hm653lg9vtl73krp73tm0000gn/T//ccHN0jlm.s 			page 41


 949 005f 02       		.byte	0x2
 950 0060 07       		.byte	0x7
 951 0061 09030000 		.4byte	.LASF6
 952 0065 04       		.uleb128 0x4
 953 0066 A4030000 		.4byte	.LASF7
 954 006a 02       		.byte	0x2
 955 006b 37       		.byte	0x37
 956 006c 70000000 		.4byte	0x70
 957 0070 03       		.uleb128 0x3
 958 0071 04       		.byte	0x4
 959 0072 05       		.byte	0x5
 960 0073 92010000 		.4byte	.LASF8
 961 0077 04       		.uleb128 0x4
 962 0078 87060000 		.4byte	.LASF9
 963 007c 02       		.byte	0x2
 964 007d 38       		.byte	0x38
 965 007e 82000000 		.4byte	0x82
 966 0082 03       		.uleb128 0x3
 967 0083 04       		.byte	0x4
 968 0084 07       		.byte	0x7
 969 0085 18060000 		.4byte	.LASF10
 970 0089 03       		.uleb128 0x3
 971 008a 08       		.byte	0x8
 972 008b 05       		.byte	0x5
 973 008c 3E010000 		.4byte	.LASF11
 974 0090 04       		.uleb128 0x4
 975 0091 95040000 		.4byte	.LASF12
 976 0095 02       		.byte	0x2
 977 0096 4E       		.byte	0x4e
 978 0097 9B000000 		.4byte	0x9b
 979 009b 03       		.uleb128 0x3
 980 009c 08       		.byte	0x8
 981 009d 07       		.byte	0x7
 982 009e B5000000 		.4byte	.LASF13
 983 00a2 04       		.uleb128 0x4
 984 00a3 52070000 		.4byte	.LASF14
 985 00a7 03       		.byte	0x3
 986 00a8 2A       		.byte	0x2a
 987 00a9 3A000000 		.4byte	0x3a
 988 00ad 04       		.uleb128 0x4
 989 00ae BB010000 		.4byte	.LASF15
 990 00b2 03       		.byte	0x3
 991 00b3 36       		.byte	0x36
 992 00b4 53000000 		.4byte	0x53
 993 00b8 04       		.uleb128 0x4
 994 00b9 24050000 		.4byte	.LASF16
 995 00bd 03       		.byte	0x3
 996 00be 41       		.byte	0x41
 997 00bf 65000000 		.4byte	0x65
 998 00c3 04       		.uleb128 0x4
 999 00c4 E7050000 		.4byte	.LASF17
 1000 00c8 03       		.byte	0x3
 1001 00c9 42       		.byte	0x42
 1002 00ca 77000000 		.4byte	0x77
 1003 00ce 04       		.uleb128 0x4
 1004 00cf 3C000000 		.4byte	.LASF18
 1005 00d3 03       		.byte	0x3
ARM GAS  /var/folders/c6/c789hm653lg9vtl73krp73tm0000gn/T//ccHN0jlm.s 			page 42


 1006 00d4 4E       		.byte	0x4e
 1007 00d5 90000000 		.4byte	0x90
 1008 00d9 05       		.uleb128 0x5
 1009 00da B8000000 		.4byte	0xb8
 1010 00de 05       		.uleb128 0x5
 1011 00df C3000000 		.4byte	0xc3
 1012 00e3 04       		.uleb128 0x4
 1013 00e4 F2060000 		.4byte	.LASF19
 1014 00e8 04       		.byte	0x4
 1015 00e9 45       		.byte	0x45
 1016 00ea C3000000 		.4byte	0xc3
 1017 00ee 04       		.uleb128 0x4
 1018 00ef 24010000 		.4byte	.LASF20
 1019 00f3 04       		.byte	0x4
 1020 00f4 46       		.byte	0x46
 1021 00f5 CE000000 		.4byte	0xce
 1022 00f9 04       		.uleb128 0x4
 1023 00fa 87050000 		.4byte	.LASF21
 1024 00fe 04       		.byte	0x4
 1025 00ff 48       		.byte	0x48
 1026 0100 A2000000 		.4byte	0xa2
 1027 0104 04       		.uleb128 0x4
 1028 0105 AC010000 		.4byte	.LASF22
 1029 0109 04       		.byte	0x4
 1030 010a 49       		.byte	0x49
 1031 010b A2000000 		.4byte	0xa2
 1032 010f 04       		.uleb128 0x4
 1033 0110 C2040000 		.4byte	.LASF23
 1034 0114 04       		.byte	0x4
 1035 0115 4A       		.byte	0x4a
 1036 0116 A2000000 		.4byte	0xa2
 1037 011a 04       		.uleb128 0x4
 1038 011b 0D050000 		.4byte	.LASF24
 1039 011f 04       		.byte	0x4
 1040 0120 4C       		.byte	0x4c
 1041 0121 C3000000 		.4byte	0xc3
 1042 0125 04       		.uleb128 0x4
 1043 0126 49030000 		.4byte	.LASF25
 1044 012a 04       		.byte	0x4
 1045 012b 4D       		.byte	0x4d
 1046 012c B8000000 		.4byte	0xb8
 1047 0130 04       		.uleb128 0x4
 1048 0131 98030000 		.4byte	.LASF26
 1049 0135 04       		.byte	0x4
 1050 0136 4F       		.byte	0x4f
 1051 0137 C3000000 		.4byte	0xc3
 1052 013b 04       		.uleb128 0x4
 1053 013c 5B020000 		.4byte	.LASF27
 1054 0140 04       		.byte	0x4
 1055 0141 51       		.byte	0x51
 1056 0142 B8000000 		.4byte	0xb8
 1057 0146 04       		.uleb128 0x4
 1058 0147 58030000 		.4byte	.LASF28
 1059 014b 04       		.byte	0x4
 1060 014c 52       		.byte	0x52
 1061 014d C3000000 		.4byte	0xc3
 1062 0151 04       		.uleb128 0x4
ARM GAS  /var/folders/c6/c789hm653lg9vtl73krp73tm0000gn/T//ccHN0jlm.s 			page 43


 1063 0152 69060000 		.4byte	.LASF29
 1064 0156 05       		.byte	0x5
 1065 0157 33       		.byte	0x33
 1066 0158 C3000000 		.4byte	0xc3
 1067 015c 04       		.uleb128 0x4
 1068 015d 54060000 		.4byte	.LASF30
 1069 0161 05       		.byte	0x5
 1070 0162 3F       		.byte	0x3f
 1071 0163 67010000 		.4byte	0x167
 1072 0167 06       		.uleb128 0x6
 1073 0168 2B030000 		.4byte	.LASF52
 1074 016c 60       		.byte	0x60
 1075 016d 06       		.byte	0x6
 1076 016e C2       		.byte	0xc2
 1077 016f 6D020000 		.4byte	0x26d
 1078 0173 07       		.uleb128 0x7
 1079 0174 80050000 		.4byte	.LASF31
 1080 0178 06       		.byte	0x6
 1081 0179 C3       		.byte	0xc3
 1082 017a 78020000 		.4byte	0x278
 1083 017e 00       		.byte	0
 1084 017f 07       		.uleb128 0x7
 1085 0180 FC040000 		.4byte	.LASF32
 1086 0184 06       		.byte	0x6
 1087 0185 C5       		.byte	0xc5
 1088 0186 78020000 		.4byte	0x278
 1089 018a 04       		.byte	0x4
 1090 018b 07       		.uleb128 0x7
 1091 018c 37010000 		.4byte	.LASF33
 1092 0190 06       		.byte	0x6
 1093 0191 C7       		.byte	0xc7
 1094 0192 1A010000 		.4byte	0x11a
 1095 0196 08       		.byte	0x8
 1096 0197 07       		.uleb128 0x7
 1097 0198 D3080000 		.4byte	.LASF34
 1098 019c 06       		.byte	0x6
 1099 019d C8       		.byte	0xc8
 1100 019e 8C060000 		.4byte	0x68c
 1101 01a2 0C       		.byte	0xc
 1102 01a3 07       		.uleb128 0x7
 1103 01a4 CD010000 		.4byte	.LASF35
 1104 01a8 06       		.byte	0x6
 1105 01a9 CA       		.byte	0xca
 1106 01aa 78020000 		.4byte	0x278
 1107 01ae 10       		.byte	0x10
 1108 01af 07       		.uleb128 0x7
 1109 01b0 4D040000 		.4byte	.LASF36
 1110 01b4 06       		.byte	0x6
 1111 01b5 CB       		.byte	0xcb
 1112 01b6 78020000 		.4byte	0x278
 1113 01ba 14       		.byte	0x14
 1114 01bb 07       		.uleb128 0x7
 1115 01bc 67070000 		.4byte	.LASF37
 1116 01c0 06       		.byte	0x6
 1117 01c1 D2       		.byte	0xd2
 1118 01c2 30090000 		.4byte	0x930
 1119 01c6 18       		.byte	0x18
ARM GAS  /var/folders/c6/c789hm653lg9vtl73krp73tm0000gn/T//ccHN0jlm.s 			page 44


 1120 01c7 07       		.uleb128 0x7
 1121 01c8 61020000 		.4byte	.LASF38
 1122 01cc 06       		.byte	0x6
 1123 01cd D8       		.byte	0xd8
 1124 01ce 42090000 		.4byte	0x942
 1125 01d2 1C       		.byte	0x1c
 1126 01d3 07       		.uleb128 0x7
 1127 01d4 59050000 		.4byte	.LASF39
 1128 01d8 06       		.byte	0x6
 1129 01d9 DD       		.byte	0xdd
 1130 01da 04010000 		.4byte	0x104
 1131 01de 20       		.byte	0x20
 1132 01df 07       		.uleb128 0x7
 1133 01e0 8F050000 		.4byte	.LASF40
 1134 01e4 06       		.byte	0x6
 1135 01e5 E1       		.byte	0xe1
 1136 01e6 F9000000 		.4byte	0xf9
 1137 01ea 21       		.byte	0x21
 1138 01eb 07       		.uleb128 0x7
 1139 01ec 2A070000 		.4byte	.LASF41
 1140 01f0 06       		.byte	0x6
 1141 01f1 E6       		.byte	0xe6
 1142 01f2 0F010000 		.4byte	0x10f
 1143 01f6 22       		.byte	0x22
 1144 01f7 08       		.uleb128 0x8
 1145 01f8 705F7500 		.ascii	"p_u\000"
 1146 01fc 06       		.byte	0x6
 1147 01fd 3101     		.2byte	0x131
 1148 01ff 6B080000 		.4byte	0x86b
 1149 0203 24       		.byte	0x24
 1150 0204 09       		.uleb128 0x9
 1151 0205 E7030000 		.4byte	.LASF42
 1152 0209 06       		.byte	0x6
 1153 020a 3601     		.2byte	0x136
 1154 020c 7E020000 		.4byte	0x27e
 1155 0210 28       		.byte	0x28
 1156 0211 09       		.uleb128 0x9
 1157 0212 88020000 		.4byte	.LASF43
 1158 0216 06       		.byte	0x6
 1159 0217 3C01     		.2byte	0x13c
 1160 0219 A2020000 		.4byte	0x2a2
 1161 021d 2C       		.byte	0x2c
 1162 021e 09       		.uleb128 0x9
 1163 021f 6F080000 		.4byte	.LASF44
 1164 0223 06       		.byte	0x6
 1165 0224 4001     		.2byte	0x140
 1166 0226 25010000 		.4byte	0x125
 1167 022a 34       		.byte	0x34
 1168 022b 09       		.uleb128 0x9
 1169 022c D2050000 		.4byte	.LASF45
 1170 0230 06       		.byte	0x6
 1171 0231 4601     		.2byte	0x146
 1172 0233 30010000 		.4byte	0x130
 1173 0237 38       		.byte	0x38
 1174 0238 09       		.uleb128 0x9
 1175 0239 45050000 		.4byte	.LASF46
 1176 023d 06       		.byte	0x6
ARM GAS  /var/folders/c6/c789hm653lg9vtl73krp73tm0000gn/T//ccHN0jlm.s 			page 45


 1177 023e 4D01     		.2byte	0x14d
 1178 0240 2A090000 		.4byte	0x92a
 1179 0244 3C       		.byte	0x3c
 1180 0245 09       		.uleb128 0x9
 1181 0246 73060000 		.4byte	.LASF47
 1182 024a 06       		.byte	0x6
 1183 024b 5101     		.2byte	0x151
 1184 024d 1A010000 		.4byte	0x11a
 1185 0251 40       		.byte	0x40
 1186 0252 09       		.uleb128 0x9
 1187 0253 66010000 		.4byte	.LASF48
 1188 0257 06       		.byte	0x6
 1189 0258 5801     		.2byte	0x158
 1190 025a 55030000 		.4byte	0x355
 1191 025e 44       		.byte	0x44
 1192 025f 09       		.uleb128 0x9
 1193 0260 97050000 		.4byte	.LASF49
 1194 0264 06       		.byte	0x6
 1195 0265 5E01     		.2byte	0x15e
 1196 0267 1C080000 		.4byte	0x81c
 1197 026b 48       		.byte	0x48
 1198 026c 00       		.byte	0
 1199 026d 04       		.uleb128 0x4
 1200 026e FA030000 		.4byte	.LASF50
 1201 0272 05       		.byte	0x5
 1202 0273 44       		.byte	0x44
 1203 0274 78020000 		.4byte	0x278
 1204 0278 0A       		.uleb128 0xa
 1205 0279 04       		.byte	0x4
 1206 027a 5C010000 		.4byte	0x15c
 1207 027e 04       		.uleb128 0x4
 1208 027f C0030000 		.4byte	.LASF51
 1209 0283 05       		.byte	0x5
 1210 0284 49       		.byte	0x49
 1211 0285 89020000 		.4byte	0x289
 1212 0289 06       		.uleb128 0x6
 1213 028a 08060000 		.4byte	.LASF53
 1214 028e 04       		.byte	0x4
 1215 028f 06       		.byte	0x6
 1216 0290 B0       		.byte	0xb0
 1217 0291 A2020000 		.4byte	0x2a2
 1218 0295 07       		.uleb128 0x7
 1219 0296 80050000 		.4byte	.LASF31
 1220 029a 06       		.byte	0x6
 1221 029b B1       		.byte	0xb1
 1222 029c 78020000 		.4byte	0x278
 1223 02a0 00       		.byte	0
 1224 02a1 00       		.byte	0
 1225 02a2 04       		.uleb128 0x4
 1226 02a3 11070000 		.4byte	.LASF54
 1227 02a7 05       		.byte	0x5
 1228 02a8 50       		.byte	0x50
 1229 02a9 AD020000 		.4byte	0x2ad
 1230 02ad 06       		.uleb128 0x6
 1231 02ae 62000000 		.4byte	.LASF55
 1232 02b2 08       		.byte	0x8
 1233 02b3 06       		.byte	0x6
ARM GAS  /var/folders/c6/c789hm653lg9vtl73krp73tm0000gn/T//ccHN0jlm.s 			page 46


 1234 02b4 B7       		.byte	0xb7
 1235 02b5 D2020000 		.4byte	0x2d2
 1236 02b9 07       		.uleb128 0x7
 1237 02ba 80050000 		.4byte	.LASF31
 1238 02be 06       		.byte	0x6
 1239 02bf B8       		.byte	0xb8
 1240 02c0 78020000 		.4byte	0x278
 1241 02c4 00       		.byte	0
 1242 02c5 07       		.uleb128 0x7
 1243 02c6 FC040000 		.4byte	.LASF32
 1244 02ca 06       		.byte	0x6
 1245 02cb B9       		.byte	0xb9
 1246 02cc 78020000 		.4byte	0x278
 1247 02d0 04       		.byte	0x4
 1248 02d1 00       		.byte	0
 1249 02d2 04       		.uleb128 0x4
 1250 02d3 1A000000 		.4byte	.LASF56
 1251 02d7 05       		.byte	0x5
 1252 02d8 57       		.byte	0x57
 1253 02d9 DD020000 		.4byte	0x2dd
 1254 02dd 0B       		.uleb128 0xb
 1255 02de 8A030000 		.4byte	.LASF57
 1256 02e2 1C       		.byte	0x1c
 1257 02e3 06       		.byte	0x6
 1258 02e4 9001     		.2byte	0x190
 1259 02e6 39030000 		.4byte	0x339
 1260 02ea 09       		.uleb128 0x9
 1261 02eb F7050000 		.4byte	.LASF58
 1262 02ef 06       		.byte	0x6
 1263 02f0 9101     		.2byte	0x191
 1264 02f2 A2020000 		.4byte	0x2a2
 1265 02f6 00       		.byte	0
 1266 02f7 09       		.uleb128 0x9
 1267 02f8 6B050000 		.4byte	.LASF59
 1268 02fc 06       		.byte	0x6
 1269 02fd 9201     		.2byte	0x192
 1270 02ff 1A010000 		.4byte	0x11a
 1271 0303 08       		.byte	0x8
 1272 0304 09       		.uleb128 0x9
 1273 0305 55040000 		.4byte	.LASF60
 1274 0309 06       		.byte	0x6
 1275 030a 9401     		.2byte	0x194
 1276 030c 8C060000 		.4byte	0x68c
 1277 0310 0C       		.byte	0xc
 1278 0311 09       		.uleb128 0x9
 1279 0312 ED010000 		.4byte	.LASF61
 1280 0316 06       		.byte	0x6
 1281 0317 9701     		.2byte	0x197
 1282 0319 78020000 		.4byte	0x278
 1283 031d 10       		.byte	0x10
 1284 031e 09       		.uleb128 0x9
 1285 031f D4060000 		.4byte	.LASF62
 1286 0323 06       		.byte	0x6
 1287 0324 9801     		.2byte	0x198
 1288 0326 78020000 		.4byte	0x278
 1289 032a 14       		.byte	0x14
 1290 032b 09       		.uleb128 0x9
ARM GAS  /var/folders/c6/c789hm653lg9vtl73krp73tm0000gn/T//ccHN0jlm.s 			page 47


 1291 032c 82040000 		.4byte	.LASF63
 1292 0330 06       		.byte	0x6
 1293 0331 9B01     		.2byte	0x19b
 1294 0333 78020000 		.4byte	0x278
 1295 0337 18       		.byte	0x18
 1296 0338 00       		.byte	0
 1297 0339 04       		.uleb128 0x4
 1298 033a 7E060000 		.4byte	.LASF64
 1299 033e 05       		.byte	0x5
 1300 033f 5C       		.byte	0x5c
 1301 0340 44030000 		.4byte	0x344
 1302 0344 0A       		.uleb128 0xa
 1303 0345 04       		.byte	0x4
 1304 0346 4A030000 		.4byte	0x34a
 1305 034a 0C       		.uleb128 0xc
 1306 034b 55030000 		.4byte	0x355
 1307 034f 0D       		.uleb128 0xd
 1308 0350 55030000 		.4byte	0x355
 1309 0354 00       		.byte	0
 1310 0355 0E       		.uleb128 0xe
 1311 0356 04       		.byte	0x4
 1312 0357 04       		.uleb128 0x4
 1313 0358 CF030000 		.4byte	.LASF65
 1314 035c 05       		.byte	0x5
 1315 035d 61       		.byte	0x61
 1316 035e 62030000 		.4byte	0x362
 1317 0362 0B       		.uleb128 0xb
 1318 0363 B4050000 		.4byte	.LASF66
 1319 0367 14       		.byte	0x14
 1320 0368 06       		.byte	0x6
 1321 0369 6B01     		.2byte	0x16b
 1322 036b B1030000 		.4byte	0x3b1
 1323 036f 09       		.uleb128 0x9
 1324 0370 79020000 		.4byte	.LASF67
 1325 0374 06       		.byte	0x6
 1326 0375 6C01     		.2byte	0x16c
 1327 0377 48090000 		.4byte	0x948
 1328 037b 00       		.byte	0
 1329 037c 09       		.uleb128 0x9
 1330 037d 03020000 		.4byte	.LASF68
 1331 0381 06       		.byte	0x6
 1332 0382 6D01     		.2byte	0x16d
 1333 0384 48090000 		.4byte	0x948
 1334 0388 04       		.byte	0x4
 1335 0389 09       		.uleb128 0x9
 1336 038a FF050000 		.4byte	.LASF69
 1337 038e 06       		.byte	0x6
 1338 038f 6E01     		.2byte	0x16e
 1339 0391 51010000 		.4byte	0x151
 1340 0395 08       		.byte	0x8
 1341 0396 09       		.uleb128 0x9
 1342 0397 D9080000 		.4byte	.LASF70
 1343 039b 06       		.byte	0x6
 1344 039c 6F01     		.2byte	0x16f
 1345 039e 39030000 		.4byte	0x339
 1346 03a2 0C       		.byte	0xc
 1347 03a3 09       		.uleb128 0x9
ARM GAS  /var/folders/c6/c789hm653lg9vtl73krp73tm0000gn/T//ccHN0jlm.s 			page 48


 1348 03a4 FA060000 		.4byte	.LASF71
 1349 03a8 06       		.byte	0x6
 1350 03a9 7101     		.2byte	0x171
 1351 03ab 55030000 		.4byte	0x355
 1352 03af 10       		.byte	0x10
 1353 03b0 00       		.byte	0
 1354 03b1 04       		.uleb128 0x4
 1355 03b2 01010000 		.4byte	.LASF72
 1356 03b6 05       		.byte	0x5
 1357 03b7 66       		.byte	0x66
 1358 03b8 BC030000 		.4byte	0x3bc
 1359 03bc 0B       		.uleb128 0xb
 1360 03bd 0D040000 		.4byte	.LASF73
 1361 03c1 10       		.byte	0x10
 1362 03c2 06       		.byte	0x6
 1363 03c3 7B01     		.2byte	0x17b
 1364 03c5 FE030000 		.4byte	0x3fe
 1365 03c9 09       		.uleb128 0x9
 1366 03ca 79020000 		.4byte	.LASF67
 1367 03ce 06       		.byte	0x6
 1368 03cf 7C01     		.2byte	0x17c
 1369 03d1 48090000 		.4byte	0x948
 1370 03d5 00       		.byte	0
 1371 03d6 09       		.uleb128 0x9
 1372 03d7 03020000 		.4byte	.LASF68
 1373 03db 06       		.byte	0x6
 1374 03dc 7E01     		.2byte	0x17e
 1375 03de 48090000 		.4byte	0x948
 1376 03e2 04       		.byte	0x4
 1377 03e3 09       		.uleb128 0x9
 1378 03e4 FF050000 		.4byte	.LASF69
 1379 03e8 06       		.byte	0x6
 1380 03e9 8001     		.2byte	0x180
 1381 03eb 51010000 		.4byte	0x151
 1382 03ef 08       		.byte	0x8
 1383 03f0 09       		.uleb128 0x9
 1384 03f1 41040000 		.4byte	.LASF74
 1385 03f5 06       		.byte	0x6
 1386 03f6 8801     		.2byte	0x188
 1387 03f8 51010000 		.4byte	0x151
 1388 03fc 0C       		.byte	0xc
 1389 03fd 00       		.byte	0
 1390 03fe 04       		.uleb128 0x4
 1391 03ff 73000000 		.4byte	.LASF75
 1392 0403 05       		.byte	0x5
 1393 0404 6B       		.byte	0x6b
 1394 0405 09040000 		.4byte	0x409
 1395 0409 0F       		.uleb128 0xf
 1396 040a 12020000 		.4byte	.LASF76
 1397 040e 1404     		.2byte	0x414
 1398 0410 06       		.byte	0x6
 1399 0411 A201     		.2byte	0x1a2
 1400 0413 4C040000 		.4byte	0x44c
 1401 0417 09       		.uleb128 0x9
 1402 0418 A0060000 		.4byte	.LASF77
 1403 041c 06       		.byte	0x6
 1404 041d AA01     		.2byte	0x1aa
ARM GAS  /var/folders/c6/c789hm653lg9vtl73krp73tm0000gn/T//ccHN0jlm.s 			page 49


 1405 041f 4E090000 		.4byte	0x94e
 1406 0423 00       		.byte	0
 1407 0424 09       		.uleb128 0x9
 1408 0425 31070000 		.4byte	.LASF78
 1409 0429 06       		.byte	0x6
 1410 042a AF01     		.2byte	0x1af
 1411 042c 3B010000 		.4byte	0x13b
 1412 0430 04       		.byte	0x4
 1413 0431 09       		.uleb128 0x9
 1414 0432 43020000 		.4byte	.LASF79
 1415 0436 06       		.byte	0x6
 1416 0437 B301     		.2byte	0x1b3
 1417 0439 3B010000 		.4byte	0x13b
 1418 043d 08       		.byte	0x8
 1419 043e 09       		.uleb128 0x9
 1420 043f 82070000 		.4byte	.LASF80
 1421 0443 06       		.byte	0x6
 1422 0444 B901     		.2byte	0x1b9
 1423 0446 AE070000 		.4byte	0x7ae
 1424 044a 0C       		.byte	0xc
 1425 044b 00       		.byte	0
 1426 044c 04       		.uleb128 0x4
 1427 044d 5F030000 		.4byte	.LASF81
 1428 0451 05       		.byte	0x5
 1429 0452 70       		.byte	0x70
 1430 0453 57040000 		.4byte	0x457
 1431 0457 0F       		.uleb128 0xf
 1432 0458 88010000 		.4byte	.LASF82
 1433 045c D805     		.2byte	0x5d8
 1434 045e 06       		.byte	0x6
 1435 045f C201     		.2byte	0x1c2
 1436 0461 C4040000 		.4byte	0x4c4
 1437 0465 09       		.uleb128 0x9
 1438 0466 4C070000 		.4byte	.LASF83
 1439 046a 06       		.byte	0x6
 1440 046b C601     		.2byte	0x1c6
 1441 046d D2020000 		.4byte	0x2d2
 1442 0471 00       		.byte	0
 1443 0472 09       		.uleb128 0x9
 1444 0473 0B020000 		.4byte	.LASF84
 1445 0477 06       		.byte	0x6
 1446 0478 CA01     		.2byte	0x1ca
 1447 047a B1030000 		.4byte	0x3b1
 1448 047e 1C       		.byte	0x1c
 1449 047f 08       		.uleb128 0x8
 1450 0480 64626700 		.ascii	"dbg\000"
 1451 0484 06       		.byte	0x6
 1452 0485 CE01     		.2byte	0x1ce
 1453 0487 FE030000 		.4byte	0x3fe
 1454 048b 2C       		.byte	0x2c
 1455 048c 10       		.uleb128 0x10
 1456 048d F6000000 		.4byte	.LASF85
 1457 0491 06       		.byte	0x6
 1458 0492 D201     		.2byte	0x1d2
 1459 0494 5C010000 		.4byte	0x15c
 1460 0498 4004     		.2byte	0x440
 1461 049a 11       		.uleb128 0x11
ARM GAS  /var/folders/c6/c789hm653lg9vtl73krp73tm0000gn/T//ccHN0jlm.s 			page 50


 1462 049b 746D00   		.ascii	"tm\000"
 1463 049e 06       		.byte	0x6
 1464 049f D701     		.2byte	0x1d7
 1465 04a1 CE070000 		.4byte	0x7ce
 1466 04a5 A004     		.2byte	0x4a0
 1467 04a7 10       		.uleb128 0x10
 1468 04a8 B5040000 		.4byte	.LASF86
 1469 04ac 06       		.byte	0x6
 1470 04ad DD01     		.2byte	0x1dd
 1471 04af 60080000 		.4byte	0x860
 1472 04b3 A804     		.2byte	0x4a8
 1473 04b5 10       		.uleb128 0x10
 1474 04b6 4C020000 		.4byte	.LASF87
 1475 04ba 06       		.byte	0x6
 1476 04bb E301     		.2byte	0x1e3
 1477 04bd 53090000 		.4byte	0x953
 1478 04c1 E004     		.2byte	0x4e0
 1479 04c3 00       		.byte	0
 1480 04c4 03       		.uleb128 0x3
 1481 04c5 04       		.byte	0x4
 1482 04c6 07       		.byte	0x7
 1483 04c7 F1030000 		.4byte	.LASF88
 1484 04cb 12       		.uleb128 0x12
 1485 04cc C3000000 		.4byte	0xc3
 1486 04d0 DB040000 		.4byte	0x4db
 1487 04d4 13       		.uleb128 0x13
 1488 04d5 C4040000 		.4byte	0x4c4
 1489 04d9 01       		.byte	0x1
 1490 04da 00       		.byte	0
 1491 04db 14       		.uleb128 0x14
 1492 04dc 88       		.byte	0x88
 1493 04dd 07       		.byte	0x7
 1494 04de 6702     		.2byte	0x267
 1495 04e0 6A060000 		.4byte	0x66a
 1496 04e4 08       		.uleb128 0x8
 1497 04e5 435200   		.ascii	"CR\000"
 1498 04e8 07       		.byte	0x7
 1499 04e9 6902     		.2byte	0x269
 1500 04eb DE000000 		.4byte	0xde
 1501 04ef 00       		.byte	0
 1502 04f0 09       		.uleb128 0x9
 1503 04f1 D5010000 		.4byte	.LASF89
 1504 04f5 07       		.byte	0x7
 1505 04f6 6A02     		.2byte	0x26a
 1506 04f8 DE000000 		.4byte	0xde
 1507 04fc 04       		.byte	0x4
 1508 04fd 09       		.uleb128 0x9
 1509 04fe 7D070000 		.4byte	.LASF90
 1510 0502 07       		.byte	0x7
 1511 0503 6B02     		.2byte	0x26b
 1512 0505 DE000000 		.4byte	0xde
 1513 0509 08       		.byte	0x8
 1514 050a 08       		.uleb128 0x8
 1515 050b 43495200 		.ascii	"CIR\000"
 1516 050f 07       		.byte	0x7
 1517 0510 6C02     		.2byte	0x26c
 1518 0512 DE000000 		.4byte	0xde
ARM GAS  /var/folders/c6/c789hm653lg9vtl73krp73tm0000gn/T//ccHN0jlm.s 			page 51


 1519 0516 0C       		.byte	0xc
 1520 0517 09       		.uleb128 0x9
 1521 0518 5D010000 		.4byte	.LASF91
 1522 051c 07       		.byte	0x7
 1523 051d 6D02     		.2byte	0x26d
 1524 051f DE000000 		.4byte	0xde
 1525 0523 10       		.byte	0x10
 1526 0524 09       		.uleb128 0x9
 1527 0525 4B060000 		.4byte	.LASF92
 1528 0529 07       		.byte	0x7
 1529 052a 6E02     		.2byte	0x26e
 1530 052c DE000000 		.4byte	0xde
 1531 0530 14       		.byte	0x14
 1532 0531 09       		.uleb128 0x9
 1533 0532 4F030000 		.4byte	.LASF93
 1534 0536 07       		.byte	0x7
 1535 0537 6F02     		.2byte	0x26f
 1536 0539 DE000000 		.4byte	0xde
 1537 053d 18       		.byte	0x18
 1538 053e 09       		.uleb128 0x9
 1539 053f CA040000 		.4byte	.LASF94
 1540 0543 07       		.byte	0x7
 1541 0544 7002     		.2byte	0x270
 1542 0546 C3000000 		.4byte	0xc3
 1543 054a 1C       		.byte	0x1c
 1544 054b 09       		.uleb128 0x9
 1545 054c 8C040000 		.4byte	.LASF95
 1546 0550 07       		.byte	0x7
 1547 0551 7102     		.2byte	0x271
 1548 0553 DE000000 		.4byte	0xde
 1549 0557 20       		.byte	0x20
 1550 0558 09       		.uleb128 0x9
 1551 0559 40030000 		.4byte	.LASF96
 1552 055d 07       		.byte	0x7
 1553 055e 7202     		.2byte	0x272
 1554 0560 DE000000 		.4byte	0xde
 1555 0564 24       		.byte	0x24
 1556 0565 09       		.uleb128 0x9
 1557 0566 D4040000 		.4byte	.LASF97
 1558 056a 07       		.byte	0x7
 1559 056b 7302     		.2byte	0x273
 1560 056d CB040000 		.4byte	0x4cb
 1561 0571 28       		.byte	0x28
 1562 0572 09       		.uleb128 0x9
 1563 0573 6E070000 		.4byte	.LASF98
 1564 0577 07       		.byte	0x7
 1565 0578 7402     		.2byte	0x274
 1566 057a DE000000 		.4byte	0xde
 1567 057e 30       		.byte	0x30
 1568 057f 09       		.uleb128 0x9
 1569 0580 C4060000 		.4byte	.LASF99
 1570 0584 07       		.byte	0x7
 1571 0585 7502     		.2byte	0x275
 1572 0587 DE000000 		.4byte	0xde
 1573 058b 34       		.byte	0x34
 1574 058c 09       		.uleb128 0x9
 1575 058d 39040000 		.4byte	.LASF100
ARM GAS  /var/folders/c6/c789hm653lg9vtl73krp73tm0000gn/T//ccHN0jlm.s 			page 52


 1576 0591 07       		.byte	0x7
 1577 0592 7602     		.2byte	0x276
 1578 0594 DE000000 		.4byte	0xde
 1579 0598 38       		.byte	0x38
 1580 0599 09       		.uleb128 0x9
 1581 059a DE040000 		.4byte	.LASF101
 1582 059e 07       		.byte	0x7
 1583 059f 7702     		.2byte	0x277
 1584 05a1 C3000000 		.4byte	0xc3
 1585 05a5 3C       		.byte	0x3c
 1586 05a6 09       		.uleb128 0x9
 1587 05a7 B1060000 		.4byte	.LASF102
 1588 05ab 07       		.byte	0x7
 1589 05ac 7802     		.2byte	0x278
 1590 05ae DE000000 		.4byte	0xde
 1591 05b2 40       		.byte	0x40
 1592 05b3 09       		.uleb128 0x9
 1593 05b4 A5050000 		.4byte	.LASF103
 1594 05b8 07       		.byte	0x7
 1595 05b9 7902     		.2byte	0x279
 1596 05bb DE000000 		.4byte	0xde
 1597 05bf 44       		.byte	0x44
 1598 05c0 09       		.uleb128 0x9
 1599 05c1 E8040000 		.4byte	.LASF104
 1600 05c5 07       		.byte	0x7
 1601 05c6 7A02     		.2byte	0x27a
 1602 05c8 CB040000 		.4byte	0x4cb
 1603 05cc 48       		.byte	0x48
 1604 05cd 09       		.uleb128 0x9
 1605 05ce 2D010000 		.4byte	.LASF105
 1606 05d2 07       		.byte	0x7
 1607 05d3 7B02     		.2byte	0x27b
 1608 05d5 DE000000 		.4byte	0xde
 1609 05d9 50       		.byte	0x50
 1610 05da 09       		.uleb128 0x9
 1611 05db 5B040000 		.4byte	.LASF106
 1612 05df 07       		.byte	0x7
 1613 05e0 7C02     		.2byte	0x27c
 1614 05e2 DE000000 		.4byte	0xde
 1615 05e6 54       		.byte	0x54
 1616 05e7 09       		.uleb128 0x9
 1617 05e8 61050000 		.4byte	.LASF107
 1618 05ec 07       		.byte	0x7
 1619 05ed 7D02     		.2byte	0x27d
 1620 05ef DE000000 		.4byte	0xde
 1621 05f3 58       		.byte	0x58
 1622 05f4 09       		.uleb128 0x9
 1623 05f5 F2040000 		.4byte	.LASF108
 1624 05f9 07       		.byte	0x7
 1625 05fa 7E02     		.2byte	0x27e
 1626 05fc C3000000 		.4byte	0xc3
 1627 0600 5C       		.byte	0x5c
 1628 0601 09       		.uleb128 0x9
 1629 0602 A2010000 		.4byte	.LASF109
 1630 0606 07       		.byte	0x7
 1631 0607 7F02     		.2byte	0x27f
 1632 0609 DE000000 		.4byte	0xde
ARM GAS  /var/folders/c6/c789hm653lg9vtl73krp73tm0000gn/T//ccHN0jlm.s 			page 53


 1633 060d 60       		.byte	0x60
 1634 060e 09       		.uleb128 0x9
 1635 060f 75030000 		.4byte	.LASF110
 1636 0613 07       		.byte	0x7
 1637 0614 8002     		.2byte	0x280
 1638 0616 DE000000 		.4byte	0xde
 1639 061a 64       		.byte	0x64
 1640 061b 09       		.uleb128 0x9
 1641 061c DD050000 		.4byte	.LASF111
 1642 0620 07       		.byte	0x7
 1643 0621 8102     		.2byte	0x281
 1644 0623 CB040000 		.4byte	0x4cb
 1645 0627 68       		.byte	0x68
 1646 0628 09       		.uleb128 0x9
 1647 0629 47070000 		.4byte	.LASF112
 1648 062d 07       		.byte	0x7
 1649 062e 8202     		.2byte	0x282
 1650 0630 DE000000 		.4byte	0xde
 1651 0634 70       		.byte	0x70
 1652 0635 08       		.uleb128 0x8
 1653 0636 43535200 		.ascii	"CSR\000"
 1654 063a 07       		.byte	0x7
 1655 063b 8302     		.2byte	0x283
 1656 063d DE000000 		.4byte	0xde
 1657 0641 74       		.byte	0x74
 1658 0642 09       		.uleb128 0x9
 1659 0643 03050000 		.4byte	.LASF113
 1660 0647 07       		.byte	0x7
 1661 0648 8402     		.2byte	0x284
 1662 064a CB040000 		.4byte	0x4cb
 1663 064e 78       		.byte	0x78
 1664 064f 09       		.uleb128 0x9
 1665 0650 0B070000 		.4byte	.LASF114
 1666 0654 07       		.byte	0x7
 1667 0655 8502     		.2byte	0x285
 1668 0657 DE000000 		.4byte	0xde
 1669 065b 80       		.byte	0x80
 1670 065c 09       		.uleb128 0x9
 1671 065d 35030000 		.4byte	.LASF115
 1672 0661 07       		.byte	0x7
 1673 0662 8602     		.2byte	0x286
 1674 0664 DE000000 		.4byte	0xde
 1675 0668 84       		.byte	0x84
 1676 0669 00       		.byte	0
 1677 066a 15       		.uleb128 0x15
 1678 066b 7C010000 		.4byte	.LASF116
 1679 066f 07       		.byte	0x7
 1680 0670 8802     		.2byte	0x288
 1681 0672 DB040000 		.4byte	0x4db
 1682 0676 04       		.uleb128 0x4
 1683 0677 FA010000 		.4byte	.LASF117
 1684 067b 08       		.byte	0x8
 1685 067c 65       		.byte	0x65
 1686 067d 55030000 		.4byte	0x355
 1687 0681 04       		.uleb128 0x4
 1688 0682 B5030000 		.4byte	.LASF118
 1689 0686 08       		.byte	0x8
ARM GAS  /var/folders/c6/c789hm653lg9vtl73krp73tm0000gn/T//ccHN0jlm.s 			page 54


 1690 0687 6D       		.byte	0x6d
 1691 0688 CE000000 		.4byte	0xce
 1692 068c 06       		.uleb128 0x6
 1693 068d CC060000 		.4byte	.LASF119
 1694 0691 04       		.byte	0x4
 1695 0692 08       		.byte	0x8
 1696 0693 89       		.byte	0x89
 1697 0694 A5060000 		.4byte	0x6a5
 1698 0698 16       		.uleb128 0x16
 1699 0699 72313300 		.ascii	"r13\000"
 1700 069d 08       		.byte	0x8
 1701 069e 8A       		.byte	0x8a
 1702 069f 20070000 		.4byte	0x720
 1703 06a3 00       		.byte	0
 1704 06a4 00       		.byte	0
 1705 06a5 06       		.uleb128 0x6
 1706 06a6 56000000 		.4byte	.LASF120
 1707 06aa 24       		.byte	0x24
 1708 06ab 09       		.byte	0x9
 1709 06ac F4       		.byte	0xf4
 1710 06ad 20070000 		.4byte	0x720
 1711 06b1 08       		.uleb128 0x8
 1712 06b2 723400   		.ascii	"r4\000"
 1713 06b5 09       		.byte	0x9
 1714 06b6 0701     		.2byte	0x107
 1715 06b8 76060000 		.4byte	0x676
 1716 06bc 00       		.byte	0
 1717 06bd 08       		.uleb128 0x8
 1718 06be 723500   		.ascii	"r5\000"
 1719 06c1 09       		.byte	0x9
 1720 06c2 0801     		.2byte	0x108
 1721 06c4 76060000 		.4byte	0x676
 1722 06c8 04       		.byte	0x4
 1723 06c9 08       		.uleb128 0x8
 1724 06ca 723600   		.ascii	"r6\000"
 1725 06cd 09       		.byte	0x9
 1726 06ce 0901     		.2byte	0x109
 1727 06d0 76060000 		.4byte	0x676
 1728 06d4 08       		.byte	0x8
 1729 06d5 08       		.uleb128 0x8
 1730 06d6 723700   		.ascii	"r7\000"
 1731 06d9 09       		.byte	0x9
 1732 06da 0A01     		.2byte	0x10a
 1733 06dc 76060000 		.4byte	0x676
 1734 06e0 0C       		.byte	0xc
 1735 06e1 08       		.uleb128 0x8
 1736 06e2 723800   		.ascii	"r8\000"
 1737 06e5 09       		.byte	0x9
 1738 06e6 0B01     		.2byte	0x10b
 1739 06e8 76060000 		.4byte	0x676
 1740 06ec 10       		.byte	0x10
 1741 06ed 08       		.uleb128 0x8
 1742 06ee 723900   		.ascii	"r9\000"
 1743 06f1 09       		.byte	0x9
 1744 06f2 0C01     		.2byte	0x10c
 1745 06f4 76060000 		.4byte	0x676
 1746 06f8 14       		.byte	0x14
ARM GAS  /var/folders/c6/c789hm653lg9vtl73krp73tm0000gn/T//ccHN0jlm.s 			page 55


 1747 06f9 08       		.uleb128 0x8
 1748 06fa 72313000 		.ascii	"r10\000"
 1749 06fe 09       		.byte	0x9
 1750 06ff 0D01     		.2byte	0x10d
 1751 0701 76060000 		.4byte	0x676
 1752 0705 18       		.byte	0x18
 1753 0706 08       		.uleb128 0x8
 1754 0707 72313100 		.ascii	"r11\000"
 1755 070b 09       		.byte	0x9
 1756 070c 0E01     		.2byte	0x10e
 1757 070e 76060000 		.4byte	0x676
 1758 0712 1C       		.byte	0x1c
 1759 0713 08       		.uleb128 0x8
 1760 0714 6C7200   		.ascii	"lr\000"
 1761 0717 09       		.byte	0x9
 1762 0718 0F01     		.2byte	0x10f
 1763 071a 76060000 		.4byte	0x676
 1764 071e 20       		.byte	0x20
 1765 071f 00       		.byte	0
 1766 0720 0A       		.uleb128 0xa
 1767 0721 04       		.byte	0x4
 1768 0722 A5060000 		.4byte	0x6a5
 1769 0726 17       		.uleb128 0x17
 1770 0727 10       		.byte	0x10
 1771 0728 0A       		.byte	0xa
 1772 0729 51       		.byte	0x51
 1773 072a 5F070000 		.4byte	0x75f
 1774 072e 07       		.uleb128 0x7
 1775 072f 27000000 		.4byte	.LASF121
 1776 0733 0A       		.byte	0xa
 1777 0734 55       		.byte	0x55
 1778 0735 51010000 		.4byte	0x151
 1779 0739 00       		.byte	0
 1780 073a 07       		.uleb128 0x7
 1781 073b B5010000 		.4byte	.LASF122
 1782 073f 0A       		.byte	0xa
 1783 0740 59       		.byte	0x59
 1784 0741 78020000 		.4byte	0x278
 1785 0745 04       		.byte	0x4
 1786 0746 07       		.uleb128 0x7
 1787 0747 C9080000 		.4byte	.LASF123
 1788 074b 0A       		.byte	0xa
 1789 074c 5D       		.byte	0x5d
 1790 074d 55030000 		.4byte	0x355
 1791 0751 08       		.byte	0x8
 1792 0752 07       		.uleb128 0x7
 1793 0753 DE000000 		.4byte	.LASF124
 1794 0757 0A       		.byte	0xa
 1795 0758 61       		.byte	0x61
 1796 0759 A2000000 		.4byte	0xa2
 1797 075d 0C       		.byte	0xc
 1798 075e 00       		.byte	0
 1799 075f 04       		.uleb128 0x4
 1800 0760 2A040000 		.4byte	.LASF125
 1801 0764 0A       		.byte	0xa
 1802 0765 62       		.byte	0x62
 1803 0766 26070000 		.4byte	0x726
ARM GAS  /var/folders/c6/c789hm653lg9vtl73krp73tm0000gn/T//ccHN0jlm.s 			page 56


 1804 076a 18       		.uleb128 0x18
 1805 076b 0804     		.2byte	0x408
 1806 076d 0A       		.byte	0xa
 1807 076e 67       		.byte	0x67
 1808 076f 98070000 		.4byte	0x798
 1809 0773 07       		.uleb128 0x7
 1810 0774 DD010000 		.4byte	.LASF126
 1811 0778 0A       		.byte	0xa
 1812 0779 6B       		.byte	0x6b
 1813 077a 2C000000 		.4byte	0x2c
 1814 077e 00       		.byte	0
 1815 077f 07       		.uleb128 0x7
 1816 0780 13000000 		.4byte	.LASF127
 1817 0784 0A       		.byte	0xa
 1818 0785 6F       		.byte	0x6f
 1819 0786 98070000 		.4byte	0x798
 1820 078a 04       		.byte	0x4
 1821 078b 07       		.uleb128 0x7
 1822 078c 6B030000 		.4byte	.LASF128
 1823 0790 0A       		.byte	0xa
 1824 0791 73       		.byte	0x73
 1825 0792 9E070000 		.4byte	0x79e
 1826 0796 08       		.byte	0x8
 1827 0797 00       		.byte	0
 1828 0798 0A       		.uleb128 0xa
 1829 0799 04       		.byte	0x4
 1830 079a 5F070000 		.4byte	0x75f
 1831 079e 12       		.uleb128 0x12
 1832 079f 5F070000 		.4byte	0x75f
 1833 07a3 AE070000 		.4byte	0x7ae
 1834 07a7 13       		.uleb128 0x13
 1835 07a8 C4040000 		.4byte	0x4c4
 1836 07ac 3F       		.byte	0x3f
 1837 07ad 00       		.byte	0
 1838 07ae 04       		.uleb128 0x4
 1839 07af CC000000 		.4byte	.LASF129
 1840 07b3 0A       		.byte	0xa
 1841 07b4 74       		.byte	0x74
 1842 07b5 6A070000 		.4byte	0x76a
 1843 07b9 17       		.uleb128 0x17
 1844 07ba 04       		.byte	0x4
 1845 07bb 0B       		.byte	0xb
 1846 07bc 38       		.byte	0x38
 1847 07bd CE070000 		.4byte	0x7ce
 1848 07c1 07       		.uleb128 0x7
 1849 07c2 AA060000 		.4byte	.LASF130
 1850 07c6 0B       		.byte	0xb
 1851 07c7 3C       		.byte	0x3c
 1852 07c8 E3000000 		.4byte	0xe3
 1853 07cc 00       		.byte	0
 1854 07cd 00       		.byte	0
 1855 07ce 04       		.uleb128 0x4
 1856 07cf 65040000 		.4byte	.LASF131
 1857 07d3 0B       		.byte	0xb
 1858 07d4 3D       		.byte	0x3d
 1859 07d5 B9070000 		.4byte	0x7b9
 1860 07d9 17       		.uleb128 0x17
ARM GAS  /var/folders/c6/c789hm653lg9vtl73krp73tm0000gn/T//ccHN0jlm.s 			page 57


 1861 07da 18       		.byte	0x18
 1862 07db 0B       		.byte	0xb
 1863 07dc 48       		.byte	0x48
 1864 07dd 1C080000 		.4byte	0x81c
 1865 07e1 07       		.uleb128 0x7
 1866 07e2 5D060000 		.4byte	.LASF132
 1867 07e6 0B       		.byte	0xb
 1868 07e7 49       		.byte	0x49
 1869 07e8 E3000000 		.4byte	0xe3
 1870 07ec 00       		.byte	0
 1871 07ed 07       		.uleb128 0x7
 1872 07ee 8F000000 		.4byte	.LASF133
 1873 07f2 0B       		.byte	0xb
 1874 07f3 4A       		.byte	0x4a
 1875 07f4 E3000000 		.4byte	0xe3
 1876 07f8 04       		.byte	0x4
 1877 07f9 07       		.uleb128 0x7
 1878 07fa 92060000 		.4byte	.LASF134
 1879 07fe 0B       		.byte	0xb
 1880 07ff 4B       		.byte	0x4b
 1881 0800 E3000000 		.4byte	0xe3
 1882 0804 08       		.byte	0x8
 1883 0805 16       		.uleb128 0x16
 1884 0806 6E00     		.ascii	"n\000"
 1885 0808 0B       		.byte	0xb
 1886 0809 4C       		.byte	0x4c
 1887 080a 46010000 		.4byte	0x146
 1888 080e 0C       		.byte	0xc
 1889 080f 07       		.uleb128 0x7
 1890 0810 A5040000 		.4byte	.LASF135
 1891 0814 0B       		.byte	0xb
 1892 0815 4D       		.byte	0x4d
 1893 0816 EE000000 		.4byte	0xee
 1894 081a 10       		.byte	0x10
 1895 081b 00       		.byte	0
 1896 081c 04       		.uleb128 0x4
 1897 081d 9C000000 		.4byte	.LASF136
 1898 0821 0B       		.byte	0xb
 1899 0822 4E       		.byte	0x4e
 1900 0823 D9070000 		.4byte	0x7d9
 1901 0827 17       		.uleb128 0x17
 1902 0828 38       		.byte	0x38
 1903 0829 0C       		.byte	0xc
 1904 082a 38       		.byte	0x38
 1905 082b 60080000 		.4byte	0x860
 1906 082f 07       		.uleb128 0x7
 1907 0830 A0020000 		.4byte	.LASF137
 1908 0834 0C       		.byte	0xc
 1909 0835 39       		.byte	0x39
 1910 0836 46010000 		.4byte	0x146
 1911 083a 00       		.byte	0
 1912 083b 07       		.uleb128 0x7
 1913 083c 15050000 		.4byte	.LASF138
 1914 0840 0C       		.byte	0xc
 1915 0841 3A       		.byte	0x3a
 1916 0842 46010000 		.4byte	0x146
 1917 0846 04       		.byte	0x4
ARM GAS  /var/folders/c6/c789hm653lg9vtl73krp73tm0000gn/T//ccHN0jlm.s 			page 58


 1918 0847 07       		.uleb128 0x7
 1919 0848 B6080000 		.4byte	.LASF139
 1920 084c 0C       		.byte	0xc
 1921 084d 3B       		.byte	0x3b
 1922 084e 1C080000 		.4byte	0x81c
 1923 0852 08       		.byte	0x8
 1924 0853 07       		.uleb128 0x7
 1925 0854 7F030000 		.4byte	.LASF140
 1926 0858 0C       		.byte	0xc
 1927 0859 3D       		.byte	0x3d
 1928 085a 1C080000 		.4byte	0x81c
 1929 085e 20       		.byte	0x20
 1930 085f 00       		.byte	0
 1931 0860 04       		.uleb128 0x4
 1932 0861 1C030000 		.4byte	.LASF141
 1933 0865 0C       		.byte	0xc
 1934 0866 3F       		.byte	0x3f
 1935 0867 27080000 		.4byte	0x827
 1936 086b 19       		.uleb128 0x19
 1937 086c 04       		.byte	0x4
 1938 086d 06       		.byte	0x6
 1939 086e FA       		.byte	0xfa
 1940 086f C8080000 		.4byte	0x8c8
 1941 0873 1A       		.uleb128 0x1a
 1942 0874 35000000 		.4byte	.LASF142
 1943 0878 06       		.byte	0x6
 1944 0879 0101     		.2byte	0x101
 1945 087b 25010000 		.4byte	0x125
 1946 087f 1A       		.uleb128 0x1a
 1947 0880 ED000000 		.4byte	.LASF143
 1948 0884 06       		.byte	0x6
 1949 0885 0801     		.2byte	0x108
 1950 0887 25010000 		.4byte	0x125
 1951 088b 1A       		.uleb128 0x1a
 1952 088c 60070000 		.4byte	.LASF144
 1953 0890 06       		.byte	0x6
 1954 0891 0F01     		.2byte	0x10f
 1955 0893 55030000 		.4byte	0x355
 1956 0897 1A       		.uleb128 0x1a
 1957 0898 2F000000 		.4byte	.LASF145
 1958 089c 06       		.byte	0x6
 1959 089d 1601     		.2byte	0x116
 1960 089f C8080000 		.4byte	0x8c8
 1961 08a3 1A       		.uleb128 0x1a
 1962 08a4 81020000 		.4byte	.LASF146
 1963 08a8 06       		.byte	0x6
 1964 08a9 1E01     		.2byte	0x11e
 1965 08ab F3080000 		.4byte	0x8f3
 1966 08af 1A       		.uleb128 0x1a
 1967 08b0 F0050000 		.4byte	.LASF147
 1968 08b4 06       		.byte	0x6
 1969 08b5 2701     		.2byte	0x127
 1970 08b7 2A090000 		.4byte	0x92a
 1971 08bb 1A       		.uleb128 0x1a
 1972 08bc 79050000 		.4byte	.LASF148
 1973 08c0 06       		.byte	0x6
 1974 08c1 2F01     		.2byte	0x12f
ARM GAS  /var/folders/c6/c789hm653lg9vtl73krp73tm0000gn/T//ccHN0jlm.s 			page 59


 1975 08c3 30010000 		.4byte	0x130
 1976 08c7 00       		.byte	0
 1977 08c8 0A       		.uleb128 0xa
 1978 08c9 04       		.byte	0x4
 1979 08ca 6D020000 		.4byte	0x26d
 1980 08ce 06       		.uleb128 0x6
 1981 08cf C5050000 		.4byte	.LASF149
 1982 08d3 0C       		.byte	0xc
 1983 08d4 0D       		.byte	0xd
 1984 08d5 34       		.byte	0x34
 1985 08d6 F3080000 		.4byte	0x8f3
 1986 08da 07       		.uleb128 0x7
 1987 08db DF030000 		.4byte	.LASF150
 1988 08df 0D       		.byte	0xd
 1989 08e0 35       		.byte	0x35
 1990 08e1 A2020000 		.4byte	0x2a2
 1991 08e5 00       		.byte	0
 1992 08e6 07       		.uleb128 0x7
 1993 08e7 3F050000 		.4byte	.LASF151
 1994 08eb 0D       		.byte	0xd
 1995 08ec 37       		.byte	0x37
 1996 08ed 3B010000 		.4byte	0x13b
 1997 08f1 08       		.byte	0x8
 1998 08f2 00       		.byte	0
 1999 08f3 0A       		.uleb128 0xa
 2000 08f4 04       		.byte	0x4
 2001 08f5 CE080000 		.4byte	0x8ce
 2002 08f9 06       		.uleb128 0x6
 2003 08fa 21070000 		.4byte	.LASF152
 2004 08fe 10       		.byte	0x10
 2005 08ff 0E       		.byte	0xe
 2006 0900 39       		.byte	0x39
 2007 0901 2A090000 		.4byte	0x92a
 2008 0905 07       		.uleb128 0x7
 2009 0906 6E010000 		.4byte	.LASF153
 2010 090a 0E       		.byte	0xe
 2011 090b 3A       		.byte	0x3a
 2012 090c A2020000 		.4byte	0x2a2
 2013 0910 00       		.byte	0
 2014 0911 07       		.uleb128 0x7
 2015 0912 C1080000 		.4byte	.LASF154
 2016 0916 0E       		.byte	0xe
 2017 0917 3C       		.byte	0x3c
 2018 0918 78020000 		.4byte	0x278
 2019 091c 08       		.byte	0x8
 2020 091d 07       		.uleb128 0x7
 2021 091e 62060000 		.4byte	.LASF155
 2022 0922 0E       		.byte	0xe
 2023 0923 3E       		.byte	0x3e
 2024 0924 6E090000 		.4byte	0x96e
 2025 0928 0C       		.byte	0xc
 2026 0929 00       		.byte	0
 2027 092a 0A       		.uleb128 0xa
 2028 092b 04       		.byte	0x4
 2029 092c F9080000 		.4byte	0x8f9
 2030 0930 0A       		.uleb128 0xa
 2031 0931 04       		.byte	0x4
ARM GAS  /var/folders/c6/c789hm653lg9vtl73krp73tm0000gn/T//ccHN0jlm.s 			page 60


 2032 0932 36090000 		.4byte	0x936
 2033 0936 1B       		.uleb128 0x1b
 2034 0937 3B090000 		.4byte	0x93b
 2035 093b 03       		.uleb128 0x3
 2036 093c 01       		.byte	0x1
 2037 093d 08       		.byte	0x8
 2038 093e 2F060000 		.4byte	.LASF156
 2039 0942 0A       		.uleb128 0xa
 2040 0943 04       		.byte	0x4
 2041 0944 81060000 		.4byte	0x681
 2042 0948 0A       		.uleb128 0xa
 2043 0949 04       		.byte	0x4
 2044 094a 57030000 		.4byte	0x357
 2045 094e 05       		.uleb128 0x5
 2046 094f 30090000 		.4byte	0x930
 2047 0953 12       		.uleb128 0x12
 2048 0954 81060000 		.4byte	0x681
 2049 0958 63090000 		.4byte	0x963
 2050 095c 13       		.uleb128 0x13
 2051 095d C4040000 		.4byte	0x4c4
 2052 0961 1E       		.byte	0x1e
 2053 0962 00       		.byte	0
 2054 0963 04       		.uleb128 0x4
 2055 0964 34020000 		.4byte	.LASF157
 2056 0968 0E       		.byte	0xe
 2057 0969 34       		.byte	0x34
 2058 096a F9080000 		.4byte	0x8f9
 2059 096e 0A       		.uleb128 0xa
 2060 096f 04       		.byte	0x4
 2061 0970 63090000 		.4byte	0x963
 2062 0974 03       		.uleb128 0x3
 2063 0975 01       		.byte	0x1
 2064 0976 02       		.byte	0x2
 2065 0977 1E050000 		.4byte	.LASF158
 2066 097b 17       		.uleb128 0x17
 2067 097c 04       		.byte	0x4
 2068 097d 0F       		.byte	0xf
 2069 097e B3       		.byte	0xb3
 2070 097f 9C090000 		.4byte	0x99c
 2071 0983 16       		.uleb128 0x16
 2072 0984 73657400 		.ascii	"set\000"
 2073 0988 0F       		.byte	0xf
 2074 0989 B4       		.byte	0xb4
 2075 098a AD000000 		.4byte	0xad
 2076 098e 00       		.byte	0
 2077 098f 07       		.uleb128 0x7
 2078 0990 24040000 		.4byte	.LASF159
 2079 0994 0F       		.byte	0xf
 2080 0995 B5       		.byte	0xb5
 2081 0996 AD000000 		.4byte	0xad
 2082 099a 02       		.byte	0x2
 2083 099b 00       		.byte	0
 2084 099c 19       		.uleb128 0x19
 2085 099d 04       		.byte	0x4
 2086 099e 0F       		.byte	0xf
 2087 099f B1       		.byte	0xb1
 2088 09a0 B7090000 		.4byte	0x9b7
ARM GAS  /var/folders/c6/c789hm653lg9vtl73krp73tm0000gn/T//ccHN0jlm.s 			page 61


 2089 09a4 1C       		.uleb128 0x1c
 2090 09a5 5700     		.ascii	"W\000"
 2091 09a7 0F       		.byte	0xf
 2092 09a8 B2       		.byte	0xb2
 2093 09a9 C3000000 		.4byte	0xc3
 2094 09ad 1C       		.uleb128 0x1c
 2095 09ae 4800     		.ascii	"H\000"
 2096 09b0 0F       		.byte	0xf
 2097 09b1 B6       		.byte	0xb6
 2098 09b2 7B090000 		.4byte	0x97b
 2099 09b6 00       		.byte	0
 2100 09b7 17       		.uleb128 0x17
 2101 09b8 2C       		.byte	0x2c
 2102 09b9 0F       		.byte	0xf
 2103 09ba A9       		.byte	0xa9
 2104 09bb 440A0000 		.4byte	0xa44
 2105 09bf 07       		.uleb128 0x7
 2106 09c0 AF000000 		.4byte	.LASF160
 2107 09c4 0F       		.byte	0xf
 2108 09c5 AB       		.byte	0xab
 2109 09c6 DE000000 		.4byte	0xde
 2110 09ca 00       		.byte	0
 2111 09cb 07       		.uleb128 0x7
 2112 09cc 4F000000 		.4byte	.LASF161
 2113 09d0 0F       		.byte	0xf
 2114 09d1 AC       		.byte	0xac
 2115 09d2 DE000000 		.4byte	0xde
 2116 09d6 04       		.byte	0x4
 2117 09d7 07       		.uleb128 0x7
 2118 09d8 E5010000 		.4byte	.LASF162
 2119 09dc 0F       		.byte	0xf
 2120 09dd AD       		.byte	0xad
 2121 09de DE000000 		.4byte	0xde
 2122 09e2 08       		.byte	0x8
 2123 09e3 07       		.uleb128 0x7
 2124 09e4 E7000000 		.4byte	.LASF163
 2125 09e8 0F       		.byte	0xf
 2126 09e9 AE       		.byte	0xae
 2127 09ea DE000000 		.4byte	0xde
 2128 09ee 0C       		.byte	0xc
 2129 09ef 16       		.uleb128 0x16
 2130 09f0 49445200 		.ascii	"IDR\000"
 2131 09f4 0F       		.byte	0xf
 2132 09f5 AF       		.byte	0xaf
 2133 09f6 DE000000 		.4byte	0xde
 2134 09fa 10       		.byte	0x10
 2135 09fb 16       		.uleb128 0x16
 2136 09fc 4F445200 		.ascii	"ODR\000"
 2137 0a00 0F       		.byte	0xf
 2138 0a01 B0       		.byte	0xb0
 2139 0a02 DE000000 		.4byte	0xde
 2140 0a06 14       		.byte	0x14
 2141 0a07 07       		.uleb128 0x7
 2142 0a08 58010000 		.4byte	.LASF164
 2143 0a0c 0F       		.byte	0xf
 2144 0a0d B7       		.byte	0xb7
 2145 0a0e 440A0000 		.4byte	0xa44
ARM GAS  /var/folders/c6/c789hm653lg9vtl73krp73tm0000gn/T//ccHN0jlm.s 			page 62


 2146 0a12 18       		.byte	0x18
 2147 0a13 07       		.uleb128 0x7
 2148 0a14 9B020000 		.4byte	.LASF165
 2149 0a18 0F       		.byte	0xf
 2150 0a19 B8       		.byte	0xb8
 2151 0a1a DE000000 		.4byte	0xde
 2152 0a1e 1C       		.byte	0x1c
 2153 0a1f 07       		.uleb128 0x7
 2154 0a20 B0040000 		.4byte	.LASF166
 2155 0a24 0F       		.byte	0xf
 2156 0a25 B9       		.byte	0xb9
 2157 0a26 DE000000 		.4byte	0xde
 2158 0a2a 20       		.byte	0x20
 2159 0a2b 07       		.uleb128 0x7
 2160 0a2c A0040000 		.4byte	.LASF167
 2161 0a30 0F       		.byte	0xf
 2162 0a31 BA       		.byte	0xba
 2163 0a32 DE000000 		.4byte	0xde
 2164 0a36 24       		.byte	0x24
 2165 0a37 16       		.uleb128 0x16
 2166 0a38 42525200 		.ascii	"BRR\000"
 2167 0a3c 0F       		.byte	0xf
 2168 0a3d BB       		.byte	0xbb
 2169 0a3e DE000000 		.4byte	0xde
 2170 0a42 28       		.byte	0x28
 2171 0a43 00       		.byte	0
 2172 0a44 05       		.uleb128 0x5
 2173 0a45 9C090000 		.4byte	0x99c
 2174 0a49 04       		.uleb128 0x4
 2175 0a4a 22020000 		.4byte	.LASF168
 2176 0a4e 0F       		.byte	0xf
 2177 0a4f BC       		.byte	0xbc
 2178 0a50 B7090000 		.4byte	0x9b7
 2179 0a54 17       		.uleb128 0x17
 2180 0a55 1C       		.byte	0x1c
 2181 0a56 0F       		.byte	0xf
 2182 0a57 C1       		.byte	0xc1
 2183 0a58 B10A0000 		.4byte	0xab1
 2184 0a5c 07       		.uleb128 0x7
 2185 0a5d 76010000 		.4byte	.LASF169
 2186 0a61 0F       		.byte	0xf
 2187 0a62 C3       		.byte	0xc3
 2188 0a63 C3000000 		.4byte	0xc3
 2189 0a67 00       		.byte	0
 2190 0a68 07       		.uleb128 0x7
 2191 0a69 A6020000 		.4byte	.LASF170
 2192 0a6d 0F       		.byte	0xf
 2193 0a6e C5       		.byte	0xc5
 2194 0a6f C3000000 		.4byte	0xc3
 2195 0a73 04       		.byte	0x4
 2196 0a74 07       		.uleb128 0x7
 2197 0a75 93020000 		.4byte	.LASF171
 2198 0a79 0F       		.byte	0xf
 2199 0a7a C7       		.byte	0xc7
 2200 0a7b C3000000 		.4byte	0xc3
 2201 0a7f 08       		.byte	0x8
 2202 0a80 07       		.uleb128 0x7
ARM GAS  /var/folders/c6/c789hm653lg9vtl73krp73tm0000gn/T//ccHN0jlm.s 			page 63


 2203 0a81 5A070000 		.4byte	.LASF172
 2204 0a85 0F       		.byte	0xf
 2205 0a86 C9       		.byte	0xc9
 2206 0a87 C3000000 		.4byte	0xc3
 2207 0a8b 0C       		.byte	0xc
 2208 0a8c 16       		.uleb128 0x16
 2209 0a8d 6F647200 		.ascii	"odr\000"
 2210 0a91 0F       		.byte	0xf
 2211 0a92 CB       		.byte	0xcb
 2212 0a93 C3000000 		.4byte	0xc3
 2213 0a97 10       		.byte	0x10
 2214 0a98 07       		.uleb128 0x7
 2215 0a99 3A050000 		.4byte	.LASF173
 2216 0a9d 0F       		.byte	0xf
 2217 0a9e CD       		.byte	0xcd
 2218 0a9f C3000000 		.4byte	0xc3
 2219 0aa3 14       		.byte	0x14
 2220 0aa4 07       		.uleb128 0x7
 2221 0aa5 76040000 		.4byte	.LASF174
 2222 0aa9 0F       		.byte	0xf
 2223 0aaa CF       		.byte	0xcf
 2224 0aab C3000000 		.4byte	0xc3
 2225 0aaf 18       		.byte	0x18
 2226 0ab0 00       		.byte	0
 2227 0ab1 04       		.uleb128 0x4
 2228 0ab2 00000000 		.4byte	.LASF175
 2229 0ab6 0F       		.byte	0xf
 2230 0ab7 D0       		.byte	0xd0
 2231 0ab8 540A0000 		.4byte	0xa54
 2232 0abc 17       		.uleb128 0x17
 2233 0abd FC       		.byte	0xfc
 2234 0abe 0F       		.byte	0xf
 2235 0abf D9       		.byte	0xd9
 2236 0ac0 310B0000 		.4byte	0xb31
 2237 0ac4 07       		.uleb128 0x7
 2238 0ac5 72050000 		.4byte	.LASF176
 2239 0ac9 0F       		.byte	0xf
 2240 0aca DC       		.byte	0xdc
 2241 0acb B10A0000 		.4byte	0xab1
 2242 0acf 00       		.byte	0
 2243 0ad0 07       		.uleb128 0x7
 2244 0ad1 3C020000 		.4byte	.LASF177
 2245 0ad5 0F       		.byte	0xf
 2246 0ad6 E0       		.byte	0xe0
 2247 0ad7 B10A0000 		.4byte	0xab1
 2248 0adb 1C       		.byte	0x1c
 2249 0adc 07       		.uleb128 0x7
 2250 0add 76070000 		.4byte	.LASF178
 2251 0ae1 0F       		.byte	0xf
 2252 0ae2 E4       		.byte	0xe4
 2253 0ae3 B10A0000 		.4byte	0xab1
 2254 0ae7 38       		.byte	0x38
 2255 0ae8 07       		.uleb128 0x7
 2256 0ae9 7B040000 		.4byte	.LASF179
 2257 0aed 0F       		.byte	0xf
 2258 0aee E8       		.byte	0xe8
 2259 0aef B10A0000 		.4byte	0xab1
ARM GAS  /var/folders/c6/c789hm653lg9vtl73krp73tm0000gn/T//ccHN0jlm.s 			page 64


 2260 0af3 54       		.byte	0x54
 2261 0af4 07       		.uleb128 0x7
 2262 0af5 9B010000 		.4byte	.LASF180
 2263 0af9 0F       		.byte	0xf
 2264 0afa EC       		.byte	0xec
 2265 0afb B10A0000 		.4byte	0xab1
 2266 0aff 70       		.byte	0x70
 2267 0b00 07       		.uleb128 0x7
 2268 0b01 75080000 		.4byte	.LASF181
 2269 0b05 0F       		.byte	0xf
 2270 0b06 F0       		.byte	0xf0
 2271 0b07 B10A0000 		.4byte	0xab1
 2272 0b0b 8C       		.byte	0x8c
 2273 0b0c 07       		.uleb128 0x7
 2274 0b0d AE030000 		.4byte	.LASF182
 2275 0b11 0F       		.byte	0xf
 2276 0b12 F4       		.byte	0xf4
 2277 0b13 B10A0000 		.4byte	0xab1
 2278 0b17 A8       		.byte	0xa8
 2279 0b18 07       		.uleb128 0x7
 2280 0b19 95000000 		.4byte	.LASF183
 2281 0b1d 0F       		.byte	0xf
 2282 0b1e F8       		.byte	0xf8
 2283 0b1f B10A0000 		.4byte	0xab1
 2284 0b23 C4       		.byte	0xc4
 2285 0b24 07       		.uleb128 0x7
 2286 0b25 AD050000 		.4byte	.LASF184
 2287 0b29 0F       		.byte	0xf
 2288 0b2a FC       		.byte	0xfc
 2289 0b2b B10A0000 		.4byte	0xab1
 2290 0b2f E0       		.byte	0xe0
 2291 0b30 00       		.byte	0
 2292 0b31 04       		.uleb128 0x4
 2293 0b32 01070000 		.4byte	.LASF185
 2294 0b36 0F       		.byte	0xf
 2295 0b37 FE       		.byte	0xfe
 2296 0b38 BC0A0000 		.4byte	0xabc
 2297 0b3c 15       		.uleb128 0x15
 2298 0b3d 82000000 		.4byte	.LASF186
 2299 0b41 0F       		.byte	0xf
 2300 0b42 0E01     		.2byte	0x10e
 2301 0b44 C3000000 		.4byte	0xc3
 2302 0b48 15       		.uleb128 0x15
 2303 0b49 AD080000 		.4byte	.LASF187
 2304 0b4d 0F       		.byte	0xf
 2305 0b4e 1301     		.2byte	0x113
 2306 0b50 C3000000 		.4byte	0xc3
 2307 0b54 15       		.uleb128 0x15
 2308 0b55 B9060000 		.4byte	.LASF188
 2309 0b59 0F       		.byte	0xf
 2310 0b5a 1B01     		.2byte	0x11b
 2311 0b5c 600B0000 		.4byte	0xb60
 2312 0b60 0A       		.uleb128 0xa
 2313 0b61 04       		.byte	0x4
 2314 0b62 490A0000 		.4byte	0xa49
 2315 0b66 1D       		.uleb128 0x1d
 2316 0b67 97060000 		.4byte	.LASF202
ARM GAS  /var/folders/c6/c789hm653lg9vtl73krp73tm0000gn/T//ccHN0jlm.s 			page 65


 2317 0b6b 01       		.byte	0x1
 2318 0b6c 41       		.byte	0x41
 2319 0b6d 01       		.byte	0x1
 2320 0b6e 890B0000 		.4byte	0xb89
 2321 0b72 1E       		.uleb128 0x1e
 2322 0b73 9F050000 		.4byte	.LASF189
 2323 0b77 01       		.byte	0x1
 2324 0b78 41       		.byte	0x41
 2325 0b79 600B0000 		.4byte	0xb60
 2326 0b7d 1E       		.uleb128 0x1e
 2327 0b7e 39060000 		.4byte	.LASF190
 2328 0b82 01       		.byte	0x1
 2329 0b83 41       		.byte	0x41
 2330 0b84 890B0000 		.4byte	0xb89
 2331 0b88 00       		.byte	0
 2332 0b89 0A       		.uleb128 0xa
 2333 0b8a 04       		.byte	0x4
 2334 0b8b 8F0B0000 		.4byte	0xb8f
 2335 0b8f 1B       		.uleb128 0x1b
 2336 0b90 B10A0000 		.4byte	0xab1
 2337 0b94 1F       		.uleb128 0x1f
 2338 0b95 39070000 		.4byte	.LASF191
 2339 0b99 01       		.byte	0x1
 2340 0b9a 5C       		.byte	0x5c
 2341 0b9b 00000000 		.4byte	.LFB261
 2342 0b9f C0010000 		.4byte	.LFE261-.LFB261
 2343 0ba3 01       		.uleb128 0x1
 2344 0ba4 9C       		.byte	0x9c
 2345 0ba5 0D0D0000 		.4byte	0xd0d
 2346 0ba9 20       		.uleb128 0x20
 2347 0baa 39060000 		.4byte	.LASF190
 2348 0bae 01       		.byte	0x1
 2349 0baf 5C       		.byte	0x5c
 2350 0bb0 0D0D0000 		.4byte	0xd0d
 2351 0bb4 01       		.uleb128 0x1
 2352 0bb5 50       		.byte	0x50
 2353 0bb6 21       		.uleb128 0x21
 2354 0bb7 660B0000 		.4byte	0xb66
 2355 0bbb 08000000 		.4byte	.LBB20
 2356 0bbf 00000000 		.4byte	.Ldebug_ranges0+0
 2357 0bc3 01       		.byte	0x1
 2358 0bc4 71       		.byte	0x71
 2359 0bc5 DA0B0000 		.4byte	0xbda
 2360 0bc9 22       		.uleb128 0x22
 2361 0bca 7D0B0000 		.4byte	0xb7d
 2362 0bce 01       		.uleb128 0x1
 2363 0bcf 50       		.byte	0x50
 2364 0bd0 23       		.uleb128 0x23
 2365 0bd1 720B0000 		.4byte	0xb72
 2366 0bd5 00000240 		.4byte	0x40020000
 2367 0bd9 00       		.byte	0
 2368 0bda 21       		.uleb128 0x21
 2369 0bdb 660B0000 		.4byte	0xb66
 2370 0bdf 10000000 		.4byte	.LBB23
 2371 0be3 18000000 		.4byte	.Ldebug_ranges0+0x18
 2372 0be7 01       		.byte	0x1
 2373 0be8 74       		.byte	0x74
ARM GAS  /var/folders/c6/c789hm653lg9vtl73krp73tm0000gn/T//ccHN0jlm.s 			page 66


 2374 0be9 000C0000 		.4byte	0xc00
 2375 0bed 22       		.uleb128 0x22
 2376 0bee 7D0B0000 		.4byte	0xb7d
 2377 0bf2 03       		.uleb128 0x3
 2378 0bf3 70       		.byte	0x70
 2379 0bf4 1C       		.sleb128 28
 2380 0bf5 9F       		.byte	0x9f
 2381 0bf6 23       		.uleb128 0x23
 2382 0bf7 720B0000 		.4byte	0xb72
 2383 0bfb 00040240 		.4byte	0x40020400
 2384 0bff 00       		.byte	0
 2385 0c00 21       		.uleb128 0x21
 2386 0c01 660B0000 		.4byte	0xb66
 2387 0c05 14000000 		.4byte	.LBB26
 2388 0c09 30000000 		.4byte	.Ldebug_ranges0+0x30
 2389 0c0d 01       		.byte	0x1
 2390 0c0e 77       		.byte	0x77
 2391 0c0f 260C0000 		.4byte	0xc26
 2392 0c13 22       		.uleb128 0x22
 2393 0c14 7D0B0000 		.4byte	0xb7d
 2394 0c18 03       		.uleb128 0x3
 2395 0c19 70       		.byte	0x70
 2396 0c1a 38       		.sleb128 56
 2397 0c1b 9F       		.byte	0x9f
 2398 0c1c 23       		.uleb128 0x23
 2399 0c1d 720B0000 		.4byte	0xb72
 2400 0c21 00080240 		.4byte	0x40020800
 2401 0c25 00       		.byte	0
 2402 0c26 21       		.uleb128 0x21
 2403 0c27 660B0000 		.4byte	0xb66
 2404 0c2b 16000000 		.4byte	.LBB29
 2405 0c2f 48000000 		.4byte	.Ldebug_ranges0+0x48
 2406 0c33 01       		.byte	0x1
 2407 0c34 7A       		.byte	0x7a
 2408 0c35 4D0C0000 		.4byte	0xc4d
 2409 0c39 22       		.uleb128 0x22
 2410 0c3a 7D0B0000 		.4byte	0xb7d
 2411 0c3e 04       		.uleb128 0x4
 2412 0c3f 70       		.byte	0x70
 2413 0c40 D400     		.sleb128 84
 2414 0c42 9F       		.byte	0x9f
 2415 0c43 23       		.uleb128 0x23
 2416 0c44 720B0000 		.4byte	0xb72
 2417 0c48 000C0240 		.4byte	0x40020c00
 2418 0c4c 00       		.byte	0
 2419 0c4d 21       		.uleb128 0x21
 2420 0c4e 660B0000 		.4byte	0xb66
 2421 0c52 18000000 		.4byte	.LBB32
 2422 0c56 60000000 		.4byte	.Ldebug_ranges0+0x60
 2423 0c5a 01       		.byte	0x1
 2424 0c5b 7D       		.byte	0x7d
 2425 0c5c 740C0000 		.4byte	0xc74
 2426 0c60 22       		.uleb128 0x22
 2427 0c61 7D0B0000 		.4byte	0xb7d
 2428 0c65 04       		.uleb128 0x4
 2429 0c66 70       		.byte	0x70
 2430 0c67 F000     		.sleb128 112
ARM GAS  /var/folders/c6/c789hm653lg9vtl73krp73tm0000gn/T//ccHN0jlm.s 			page 67


 2431 0c69 9F       		.byte	0x9f
 2432 0c6a 23       		.uleb128 0x23
 2433 0c6b 720B0000 		.4byte	0xb72
 2434 0c6f 00100240 		.4byte	0x40021000
 2435 0c73 00       		.byte	0
 2436 0c74 21       		.uleb128 0x21
 2437 0c75 660B0000 		.4byte	0xb66
 2438 0c79 1A000000 		.4byte	.LBB35
 2439 0c7d 78000000 		.4byte	.Ldebug_ranges0+0x78
 2440 0c81 01       		.byte	0x1
 2441 0c82 80       		.byte	0x80
 2442 0c83 9B0C0000 		.4byte	0xc9b
 2443 0c87 22       		.uleb128 0x22
 2444 0c88 7D0B0000 		.4byte	0xb7d
 2445 0c8c 04       		.uleb128 0x4
 2446 0c8d 70       		.byte	0x70
 2447 0c8e 8C01     		.sleb128 140
 2448 0c90 9F       		.byte	0x9f
 2449 0c91 23       		.uleb128 0x23
 2450 0c92 720B0000 		.4byte	0xb72
 2451 0c96 00140240 		.4byte	0x40021400
 2452 0c9a 00       		.byte	0
 2453 0c9b 21       		.uleb128 0x21
 2454 0c9c 660B0000 		.4byte	0xb66
 2455 0ca0 1C000000 		.4byte	.LBB38
 2456 0ca4 90000000 		.4byte	.Ldebug_ranges0+0x90
 2457 0ca8 01       		.byte	0x1
 2458 0ca9 83       		.byte	0x83
 2459 0caa C20C0000 		.4byte	0xcc2
 2460 0cae 22       		.uleb128 0x22
 2461 0caf 7D0B0000 		.4byte	0xb7d
 2462 0cb3 04       		.uleb128 0x4
 2463 0cb4 70       		.byte	0x70
 2464 0cb5 A801     		.sleb128 168
 2465 0cb7 9F       		.byte	0x9f
 2466 0cb8 23       		.uleb128 0x23
 2467 0cb9 720B0000 		.4byte	0xb72
 2468 0cbd 00180240 		.4byte	0x40021800
 2469 0cc1 00       		.byte	0
 2470 0cc2 21       		.uleb128 0x21
 2471 0cc3 660B0000 		.4byte	0xb66
 2472 0cc7 1E000000 		.4byte	.LBB41
 2473 0ccb A8000000 		.4byte	.Ldebug_ranges0+0xa8
 2474 0ccf 01       		.byte	0x1
 2475 0cd0 86       		.byte	0x86
 2476 0cd1 E90C0000 		.4byte	0xce9
 2477 0cd5 22       		.uleb128 0x22
 2478 0cd6 7D0B0000 		.4byte	0xb7d
 2479 0cda 04       		.uleb128 0x4
 2480 0cdb 70       		.byte	0x70
 2481 0cdc C401     		.sleb128 196
 2482 0cde 9F       		.byte	0x9f
 2483 0cdf 23       		.uleb128 0x23
 2484 0ce0 720B0000 		.4byte	0xb72
 2485 0ce4 001C0240 		.4byte	0x40021c00
 2486 0ce8 00       		.byte	0
 2487 0ce9 24       		.uleb128 0x24
ARM GAS  /var/folders/c6/c789hm653lg9vtl73krp73tm0000gn/T//ccHN0jlm.s 			page 68


 2488 0cea 660B0000 		.4byte	0xb66
 2489 0cee 64010000 		.4byte	.LBB52
 2490 0cf2 2C000000 		.4byte	.LBE52-.LBB52
 2491 0cf6 01       		.byte	0x1
 2492 0cf7 89       		.byte	0x89
 2493 0cf8 22       		.uleb128 0x22
 2494 0cf9 7D0B0000 		.4byte	0xb7d
 2495 0cfd 04       		.uleb128 0x4
 2496 0cfe 70       		.byte	0x70
 2497 0cff E001     		.sleb128 224
 2498 0d01 9F       		.byte	0x9f
 2499 0d02 23       		.uleb128 0x23
 2500 0d03 720B0000 		.4byte	0xb72
 2501 0d07 00200240 		.4byte	0x40022000
 2502 0d0b 00       		.byte	0
 2503 0d0c 00       		.byte	0
 2504 0d0d 0A       		.uleb128 0xa
 2505 0d0e 04       		.byte	0x4
 2506 0d0f 130D0000 		.4byte	0xd13
 2507 0d13 1B       		.uleb128 0x1b
 2508 0d14 310B0000 		.4byte	0xb31
 2509 0d18 1F       		.uleb128 0x1f
 2510 0d19 DC060000 		.4byte	.LASF192
 2511 0d1d 01       		.byte	0x1
 2512 0d1e 9B       		.byte	0x9b
 2513 0d1f 00000000 		.4byte	.LFB262
 2514 0d23 C8000000 		.4byte	.LFE262-.LFB262
 2515 0d27 01       		.uleb128 0x1
 2516 0d28 9C       		.byte	0x9c
 2517 0d29 F00D0000 		.4byte	0xdf0
 2518 0d2d 20       		.uleb128 0x20
 2519 0d2e 2F020000 		.4byte	.LASF193
 2520 0d32 01       		.byte	0x1
 2521 0d33 9B       		.byte	0x9b
 2522 0d34 540B0000 		.4byte	0xb54
 2523 0d38 01       		.uleb128 0x1
 2524 0d39 50       		.byte	0x50
 2525 0d3a 25       		.uleb128 0x25
 2526 0d3b F5010000 		.4byte	.LASF194
 2527 0d3f 01       		.byte	0x1
 2528 0d40 9C       		.byte	0x9c
 2529 0d41 3C0B0000 		.4byte	0xb3c
 2530 0d45 00000000 		.4byte	.LLST0
 2531 0d49 25       		.uleb128 0x25
 2532 0d4a 34060000 		.4byte	.LASF195
 2533 0d4e 01       		.byte	0x1
 2534 0d4f 9D       		.byte	0x9d
 2535 0d50 480B0000 		.4byte	0xb48
 2536 0d54 2D000000 		.4byte	.LLST1
 2537 0d58 26       		.uleb128 0x26
 2538 0d59 76010000 		.4byte	.LASF169
 2539 0d5d 01       		.byte	0x1
 2540 0d5e 9F       		.byte	0x9f
 2541 0d5f C3000000 		.4byte	0xc3
 2542 0d63 4E000000 		.4byte	.LLST2
 2543 0d67 26       		.uleb128 0x26
 2544 0d68 A6020000 		.4byte	.LASF170
ARM GAS  /var/folders/c6/c789hm653lg9vtl73krp73tm0000gn/T//ccHN0jlm.s 			page 69


 2545 0d6c 01       		.byte	0x1
 2546 0d6d A0       		.byte	0xa0
 2547 0d6e C3000000 		.4byte	0xc3
 2548 0d72 61000000 		.4byte	.LLST3
 2549 0d76 26       		.uleb128 0x26
 2550 0d77 93020000 		.4byte	.LASF171
 2551 0d7b 01       		.byte	0x1
 2552 0d7c A1       		.byte	0xa1
 2553 0d7d C3000000 		.4byte	0xc3
 2554 0d81 74000000 		.4byte	.LLST4
 2555 0d85 26       		.uleb128 0x26
 2556 0d86 5A070000 		.4byte	.LASF172
 2557 0d8a 01       		.byte	0x1
 2558 0d8b A2       		.byte	0xa2
 2559 0d8c C3000000 		.4byte	0xc3
 2560 0d90 87000000 		.4byte	.LLST5
 2561 0d94 27       		.uleb128 0x27
 2562 0d95 2A060000 		.4byte	.LASF196
 2563 0d99 01       		.byte	0x1
 2564 0d9a A3       		.byte	0xa3
 2565 0d9b C3000000 		.4byte	0xc3
 2566 0d9f 01       		.uleb128 0x1
 2567 0da0 52       		.byte	0x52
 2568 0da1 28       		.uleb128 0x28
 2569 0da2 62697400 		.ascii	"bit\000"
 2570 0da6 01       		.byte	0x1
 2571 0da7 A4       		.byte	0xa4
 2572 0da8 C3000000 		.4byte	0xc3
 2573 0dac 9A000000 		.4byte	.LLST6
 2574 0db0 29       		.uleb128 0x29
 2575 0db1 C0000000 		.4byte	.Ldebug_ranges0+0xc0
 2576 0db5 26       		.uleb128 0x26
 2577 0db6 C4010000 		.4byte	.LASF197
 2578 0dba 01       		.byte	0x1
 2579 0dbb A7       		.byte	0xa7
 2580 0dbc C3000000 		.4byte	0xc3
 2581 0dc0 B9000000 		.4byte	.LLST7
 2582 0dc4 28       		.uleb128 0x28
 2583 0dc5 6D3100   		.ascii	"m1\000"
 2584 0dc8 01       		.byte	0x1
 2585 0dc9 A7       		.byte	0xa7
 2586 0dca C3000000 		.4byte	0xc3
 2587 0dce FF000000 		.4byte	.LLST8
 2588 0dd2 28       		.uleb128 0x28
 2589 0dd3 6D3200   		.ascii	"m2\000"
 2590 0dd6 01       		.byte	0x1
 2591 0dd7 A7       		.byte	0xa7
 2592 0dd8 C3000000 		.4byte	0xc3
 2593 0ddc 16010000 		.4byte	.LLST9
 2594 0de0 28       		.uleb128 0x28
 2595 0de1 6D3400   		.ascii	"m4\000"
 2596 0de4 01       		.byte	0x1
 2597 0de5 A7       		.byte	0xa7
 2598 0de6 C3000000 		.4byte	0xc3
 2599 0dea 59010000 		.4byte	.LLST10
 2600 0dee 00       		.byte	0
 2601 0def 00       		.byte	0
ARM GAS  /var/folders/c6/c789hm653lg9vtl73krp73tm0000gn/T//ccHN0jlm.s 			page 70


 2602 0df0 2A       		.uleb128 0x2a
 2603 0df1 17010000 		.4byte	.LASF198
 2604 0df5 10       		.byte	0x10
 2605 0df6 A706     		.2byte	0x6a7
 2606 0df8 D9000000 		.4byte	0xd9
 2607 0dfc 2B       		.uleb128 0x2b
 2608 0dfd 636800   		.ascii	"ch\000"
 2609 0e00 06       		.byte	0x6
 2610 0e01 0902     		.2byte	0x209
 2611 0e03 4C040000 		.4byte	0x44c
 2612 0e07 00       		.byte	0
 2613              		.section	.debug_abbrev,"",%progbits
 2614              	.Ldebug_abbrev0:
 2615 0000 01       		.uleb128 0x1
 2616 0001 11       		.uleb128 0x11
 2617 0002 01       		.byte	0x1
 2618 0003 25       		.uleb128 0x25
 2619 0004 0E       		.uleb128 0xe
 2620 0005 13       		.uleb128 0x13
 2621 0006 0B       		.uleb128 0xb
 2622 0007 03       		.uleb128 0x3
 2623 0008 0E       		.uleb128 0xe
 2624 0009 1B       		.uleb128 0x1b
 2625 000a 0E       		.uleb128 0xe
 2626 000b 55       		.uleb128 0x55
 2627 000c 17       		.uleb128 0x17
 2628 000d 11       		.uleb128 0x11
 2629 000e 01       		.uleb128 0x1
 2630 000f 10       		.uleb128 0x10
 2631 0010 17       		.uleb128 0x17
 2632 0011 00       		.byte	0
 2633 0012 00       		.byte	0
 2634 0013 02       		.uleb128 0x2
 2635 0014 24       		.uleb128 0x24
 2636 0015 00       		.byte	0
 2637 0016 0B       		.uleb128 0xb
 2638 0017 0B       		.uleb128 0xb
 2639 0018 3E       		.uleb128 0x3e
 2640 0019 0B       		.uleb128 0xb
 2641 001a 03       		.uleb128 0x3
 2642 001b 08       		.uleb128 0x8
 2643 001c 00       		.byte	0
 2644 001d 00       		.byte	0
 2645 001e 03       		.uleb128 0x3
 2646 001f 24       		.uleb128 0x24
 2647 0020 00       		.byte	0
 2648 0021 0B       		.uleb128 0xb
 2649 0022 0B       		.uleb128 0xb
 2650 0023 3E       		.uleb128 0x3e
 2651 0024 0B       		.uleb128 0xb
 2652 0025 03       		.uleb128 0x3
 2653 0026 0E       		.uleb128 0xe
 2654 0027 00       		.byte	0
 2655 0028 00       		.byte	0
 2656 0029 04       		.uleb128 0x4
 2657 002a 16       		.uleb128 0x16
 2658 002b 00       		.byte	0
ARM GAS  /var/folders/c6/c789hm653lg9vtl73krp73tm0000gn/T//ccHN0jlm.s 			page 71


 2659 002c 03       		.uleb128 0x3
 2660 002d 0E       		.uleb128 0xe
 2661 002e 3A       		.uleb128 0x3a
 2662 002f 0B       		.uleb128 0xb
 2663 0030 3B       		.uleb128 0x3b
 2664 0031 0B       		.uleb128 0xb
 2665 0032 49       		.uleb128 0x49
 2666 0033 13       		.uleb128 0x13
 2667 0034 00       		.byte	0
 2668 0035 00       		.byte	0
 2669 0036 05       		.uleb128 0x5
 2670 0037 35       		.uleb128 0x35
 2671 0038 00       		.byte	0
 2672 0039 49       		.uleb128 0x49
 2673 003a 13       		.uleb128 0x13
 2674 003b 00       		.byte	0
 2675 003c 00       		.byte	0
 2676 003d 06       		.uleb128 0x6
 2677 003e 13       		.uleb128 0x13
 2678 003f 01       		.byte	0x1
 2679 0040 03       		.uleb128 0x3
 2680 0041 0E       		.uleb128 0xe
 2681 0042 0B       		.uleb128 0xb
 2682 0043 0B       		.uleb128 0xb
 2683 0044 3A       		.uleb128 0x3a
 2684 0045 0B       		.uleb128 0xb
 2685 0046 3B       		.uleb128 0x3b
 2686 0047 0B       		.uleb128 0xb
 2687 0048 01       		.uleb128 0x1
 2688 0049 13       		.uleb128 0x13
 2689 004a 00       		.byte	0
 2690 004b 00       		.byte	0
 2691 004c 07       		.uleb128 0x7
 2692 004d 0D       		.uleb128 0xd
 2693 004e 00       		.byte	0
 2694 004f 03       		.uleb128 0x3
 2695 0050 0E       		.uleb128 0xe
 2696 0051 3A       		.uleb128 0x3a
 2697 0052 0B       		.uleb128 0xb
 2698 0053 3B       		.uleb128 0x3b
 2699 0054 0B       		.uleb128 0xb
 2700 0055 49       		.uleb128 0x49
 2701 0056 13       		.uleb128 0x13
 2702 0057 38       		.uleb128 0x38
 2703 0058 0B       		.uleb128 0xb
 2704 0059 00       		.byte	0
 2705 005a 00       		.byte	0
 2706 005b 08       		.uleb128 0x8
 2707 005c 0D       		.uleb128 0xd
 2708 005d 00       		.byte	0
 2709 005e 03       		.uleb128 0x3
 2710 005f 08       		.uleb128 0x8
 2711 0060 3A       		.uleb128 0x3a
 2712 0061 0B       		.uleb128 0xb
 2713 0062 3B       		.uleb128 0x3b
 2714 0063 05       		.uleb128 0x5
 2715 0064 49       		.uleb128 0x49
ARM GAS  /var/folders/c6/c789hm653lg9vtl73krp73tm0000gn/T//ccHN0jlm.s 			page 72


 2716 0065 13       		.uleb128 0x13
 2717 0066 38       		.uleb128 0x38
 2718 0067 0B       		.uleb128 0xb
 2719 0068 00       		.byte	0
 2720 0069 00       		.byte	0
 2721 006a 09       		.uleb128 0x9
 2722 006b 0D       		.uleb128 0xd
 2723 006c 00       		.byte	0
 2724 006d 03       		.uleb128 0x3
 2725 006e 0E       		.uleb128 0xe
 2726 006f 3A       		.uleb128 0x3a
 2727 0070 0B       		.uleb128 0xb
 2728 0071 3B       		.uleb128 0x3b
 2729 0072 05       		.uleb128 0x5
 2730 0073 49       		.uleb128 0x49
 2731 0074 13       		.uleb128 0x13
 2732 0075 38       		.uleb128 0x38
 2733 0076 0B       		.uleb128 0xb
 2734 0077 00       		.byte	0
 2735 0078 00       		.byte	0
 2736 0079 0A       		.uleb128 0xa
 2737 007a 0F       		.uleb128 0xf
 2738 007b 00       		.byte	0
 2739 007c 0B       		.uleb128 0xb
 2740 007d 0B       		.uleb128 0xb
 2741 007e 49       		.uleb128 0x49
 2742 007f 13       		.uleb128 0x13
 2743 0080 00       		.byte	0
 2744 0081 00       		.byte	0
 2745 0082 0B       		.uleb128 0xb
 2746 0083 13       		.uleb128 0x13
 2747 0084 01       		.byte	0x1
 2748 0085 03       		.uleb128 0x3
 2749 0086 0E       		.uleb128 0xe
 2750 0087 0B       		.uleb128 0xb
 2751 0088 0B       		.uleb128 0xb
 2752 0089 3A       		.uleb128 0x3a
 2753 008a 0B       		.uleb128 0xb
 2754 008b 3B       		.uleb128 0x3b
 2755 008c 05       		.uleb128 0x5
 2756 008d 01       		.uleb128 0x1
 2757 008e 13       		.uleb128 0x13
 2758 008f 00       		.byte	0
 2759 0090 00       		.byte	0
 2760 0091 0C       		.uleb128 0xc
 2761 0092 15       		.uleb128 0x15
 2762 0093 01       		.byte	0x1
 2763 0094 27       		.uleb128 0x27
 2764 0095 19       		.uleb128 0x19
 2765 0096 01       		.uleb128 0x1
 2766 0097 13       		.uleb128 0x13
 2767 0098 00       		.byte	0
 2768 0099 00       		.byte	0
 2769 009a 0D       		.uleb128 0xd
 2770 009b 05       		.uleb128 0x5
 2771 009c 00       		.byte	0
 2772 009d 49       		.uleb128 0x49
ARM GAS  /var/folders/c6/c789hm653lg9vtl73krp73tm0000gn/T//ccHN0jlm.s 			page 73


 2773 009e 13       		.uleb128 0x13
 2774 009f 00       		.byte	0
 2775 00a0 00       		.byte	0
 2776 00a1 0E       		.uleb128 0xe
 2777 00a2 0F       		.uleb128 0xf
 2778 00a3 00       		.byte	0
 2779 00a4 0B       		.uleb128 0xb
 2780 00a5 0B       		.uleb128 0xb
 2781 00a6 00       		.byte	0
 2782 00a7 00       		.byte	0
 2783 00a8 0F       		.uleb128 0xf
 2784 00a9 13       		.uleb128 0x13
 2785 00aa 01       		.byte	0x1
 2786 00ab 03       		.uleb128 0x3
 2787 00ac 0E       		.uleb128 0xe
 2788 00ad 0B       		.uleb128 0xb
 2789 00ae 05       		.uleb128 0x5
 2790 00af 3A       		.uleb128 0x3a
 2791 00b0 0B       		.uleb128 0xb
 2792 00b1 3B       		.uleb128 0x3b
 2793 00b2 05       		.uleb128 0x5
 2794 00b3 01       		.uleb128 0x1
 2795 00b4 13       		.uleb128 0x13
 2796 00b5 00       		.byte	0
 2797 00b6 00       		.byte	0
 2798 00b7 10       		.uleb128 0x10
 2799 00b8 0D       		.uleb128 0xd
 2800 00b9 00       		.byte	0
 2801 00ba 03       		.uleb128 0x3
 2802 00bb 0E       		.uleb128 0xe
 2803 00bc 3A       		.uleb128 0x3a
 2804 00bd 0B       		.uleb128 0xb
 2805 00be 3B       		.uleb128 0x3b
 2806 00bf 05       		.uleb128 0x5
 2807 00c0 49       		.uleb128 0x49
 2808 00c1 13       		.uleb128 0x13
 2809 00c2 38       		.uleb128 0x38
 2810 00c3 05       		.uleb128 0x5
 2811 00c4 00       		.byte	0
 2812 00c5 00       		.byte	0
 2813 00c6 11       		.uleb128 0x11
 2814 00c7 0D       		.uleb128 0xd
 2815 00c8 00       		.byte	0
 2816 00c9 03       		.uleb128 0x3
 2817 00ca 08       		.uleb128 0x8
 2818 00cb 3A       		.uleb128 0x3a
 2819 00cc 0B       		.uleb128 0xb
 2820 00cd 3B       		.uleb128 0x3b
 2821 00ce 05       		.uleb128 0x5
 2822 00cf 49       		.uleb128 0x49
 2823 00d0 13       		.uleb128 0x13
 2824 00d1 38       		.uleb128 0x38
 2825 00d2 05       		.uleb128 0x5
 2826 00d3 00       		.byte	0
 2827 00d4 00       		.byte	0
 2828 00d5 12       		.uleb128 0x12
 2829 00d6 01       		.uleb128 0x1
ARM GAS  /var/folders/c6/c789hm653lg9vtl73krp73tm0000gn/T//ccHN0jlm.s 			page 74


 2830 00d7 01       		.byte	0x1
 2831 00d8 49       		.uleb128 0x49
 2832 00d9 13       		.uleb128 0x13
 2833 00da 01       		.uleb128 0x1
 2834 00db 13       		.uleb128 0x13
 2835 00dc 00       		.byte	0
 2836 00dd 00       		.byte	0
 2837 00de 13       		.uleb128 0x13
 2838 00df 21       		.uleb128 0x21
 2839 00e0 00       		.byte	0
 2840 00e1 49       		.uleb128 0x49
 2841 00e2 13       		.uleb128 0x13
 2842 00e3 2F       		.uleb128 0x2f
 2843 00e4 0B       		.uleb128 0xb
 2844 00e5 00       		.byte	0
 2845 00e6 00       		.byte	0
 2846 00e7 14       		.uleb128 0x14
 2847 00e8 13       		.uleb128 0x13
 2848 00e9 01       		.byte	0x1
 2849 00ea 0B       		.uleb128 0xb
 2850 00eb 0B       		.uleb128 0xb
 2851 00ec 3A       		.uleb128 0x3a
 2852 00ed 0B       		.uleb128 0xb
 2853 00ee 3B       		.uleb128 0x3b
 2854 00ef 05       		.uleb128 0x5
 2855 00f0 01       		.uleb128 0x1
 2856 00f1 13       		.uleb128 0x13
 2857 00f2 00       		.byte	0
 2858 00f3 00       		.byte	0
 2859 00f4 15       		.uleb128 0x15
 2860 00f5 16       		.uleb128 0x16
 2861 00f6 00       		.byte	0
 2862 00f7 03       		.uleb128 0x3
 2863 00f8 0E       		.uleb128 0xe
 2864 00f9 3A       		.uleb128 0x3a
 2865 00fa 0B       		.uleb128 0xb
 2866 00fb 3B       		.uleb128 0x3b
 2867 00fc 05       		.uleb128 0x5
 2868 00fd 49       		.uleb128 0x49
 2869 00fe 13       		.uleb128 0x13
 2870 00ff 00       		.byte	0
 2871 0100 00       		.byte	0
 2872 0101 16       		.uleb128 0x16
 2873 0102 0D       		.uleb128 0xd
 2874 0103 00       		.byte	0
 2875 0104 03       		.uleb128 0x3
 2876 0105 08       		.uleb128 0x8
 2877 0106 3A       		.uleb128 0x3a
 2878 0107 0B       		.uleb128 0xb
 2879 0108 3B       		.uleb128 0x3b
 2880 0109 0B       		.uleb128 0xb
 2881 010a 49       		.uleb128 0x49
 2882 010b 13       		.uleb128 0x13
 2883 010c 38       		.uleb128 0x38
 2884 010d 0B       		.uleb128 0xb
 2885 010e 00       		.byte	0
 2886 010f 00       		.byte	0
ARM GAS  /var/folders/c6/c789hm653lg9vtl73krp73tm0000gn/T//ccHN0jlm.s 			page 75


 2887 0110 17       		.uleb128 0x17
 2888 0111 13       		.uleb128 0x13
 2889 0112 01       		.byte	0x1
 2890 0113 0B       		.uleb128 0xb
 2891 0114 0B       		.uleb128 0xb
 2892 0115 3A       		.uleb128 0x3a
 2893 0116 0B       		.uleb128 0xb
 2894 0117 3B       		.uleb128 0x3b
 2895 0118 0B       		.uleb128 0xb
 2896 0119 01       		.uleb128 0x1
 2897 011a 13       		.uleb128 0x13
 2898 011b 00       		.byte	0
 2899 011c 00       		.byte	0
 2900 011d 18       		.uleb128 0x18
 2901 011e 13       		.uleb128 0x13
 2902 011f 01       		.byte	0x1
 2903 0120 0B       		.uleb128 0xb
 2904 0121 05       		.uleb128 0x5
 2905 0122 3A       		.uleb128 0x3a
 2906 0123 0B       		.uleb128 0xb
 2907 0124 3B       		.uleb128 0x3b
 2908 0125 0B       		.uleb128 0xb
 2909 0126 01       		.uleb128 0x1
 2910 0127 13       		.uleb128 0x13
 2911 0128 00       		.byte	0
 2912 0129 00       		.byte	0
 2913 012a 19       		.uleb128 0x19
 2914 012b 17       		.uleb128 0x17
 2915 012c 01       		.byte	0x1
 2916 012d 0B       		.uleb128 0xb
 2917 012e 0B       		.uleb128 0xb
 2918 012f 3A       		.uleb128 0x3a
 2919 0130 0B       		.uleb128 0xb
 2920 0131 3B       		.uleb128 0x3b
 2921 0132 0B       		.uleb128 0xb
 2922 0133 01       		.uleb128 0x1
 2923 0134 13       		.uleb128 0x13
 2924 0135 00       		.byte	0
 2925 0136 00       		.byte	0
 2926 0137 1A       		.uleb128 0x1a
 2927 0138 0D       		.uleb128 0xd
 2928 0139 00       		.byte	0
 2929 013a 03       		.uleb128 0x3
 2930 013b 0E       		.uleb128 0xe
 2931 013c 3A       		.uleb128 0x3a
 2932 013d 0B       		.uleb128 0xb
 2933 013e 3B       		.uleb128 0x3b
 2934 013f 05       		.uleb128 0x5
 2935 0140 49       		.uleb128 0x49
 2936 0141 13       		.uleb128 0x13
 2937 0142 00       		.byte	0
 2938 0143 00       		.byte	0
 2939 0144 1B       		.uleb128 0x1b
 2940 0145 26       		.uleb128 0x26
 2941 0146 00       		.byte	0
 2942 0147 49       		.uleb128 0x49
 2943 0148 13       		.uleb128 0x13
ARM GAS  /var/folders/c6/c789hm653lg9vtl73krp73tm0000gn/T//ccHN0jlm.s 			page 76


 2944 0149 00       		.byte	0
 2945 014a 00       		.byte	0
 2946 014b 1C       		.uleb128 0x1c
 2947 014c 0D       		.uleb128 0xd
 2948 014d 00       		.byte	0
 2949 014e 03       		.uleb128 0x3
 2950 014f 08       		.uleb128 0x8
 2951 0150 3A       		.uleb128 0x3a
 2952 0151 0B       		.uleb128 0xb
 2953 0152 3B       		.uleb128 0x3b
 2954 0153 0B       		.uleb128 0xb
 2955 0154 49       		.uleb128 0x49
 2956 0155 13       		.uleb128 0x13
 2957 0156 00       		.byte	0
 2958 0157 00       		.byte	0
 2959 0158 1D       		.uleb128 0x1d
 2960 0159 2E       		.uleb128 0x2e
 2961 015a 01       		.byte	0x1
 2962 015b 03       		.uleb128 0x3
 2963 015c 0E       		.uleb128 0xe
 2964 015d 3A       		.uleb128 0x3a
 2965 015e 0B       		.uleb128 0xb
 2966 015f 3B       		.uleb128 0x3b
 2967 0160 0B       		.uleb128 0xb
 2968 0161 27       		.uleb128 0x27
 2969 0162 19       		.uleb128 0x19
 2970 0163 20       		.uleb128 0x20
 2971 0164 0B       		.uleb128 0xb
 2972 0165 01       		.uleb128 0x1
 2973 0166 13       		.uleb128 0x13
 2974 0167 00       		.byte	0
 2975 0168 00       		.byte	0
 2976 0169 1E       		.uleb128 0x1e
 2977 016a 05       		.uleb128 0x5
 2978 016b 00       		.byte	0
 2979 016c 03       		.uleb128 0x3
 2980 016d 0E       		.uleb128 0xe
 2981 016e 3A       		.uleb128 0x3a
 2982 016f 0B       		.uleb128 0xb
 2983 0170 3B       		.uleb128 0x3b
 2984 0171 0B       		.uleb128 0xb
 2985 0172 49       		.uleb128 0x49
 2986 0173 13       		.uleb128 0x13
 2987 0174 00       		.byte	0
 2988 0175 00       		.byte	0
 2989 0176 1F       		.uleb128 0x1f
 2990 0177 2E       		.uleb128 0x2e
 2991 0178 01       		.byte	0x1
 2992 0179 3F       		.uleb128 0x3f
 2993 017a 19       		.uleb128 0x19
 2994 017b 03       		.uleb128 0x3
 2995 017c 0E       		.uleb128 0xe
 2996 017d 3A       		.uleb128 0x3a
 2997 017e 0B       		.uleb128 0xb
 2998 017f 3B       		.uleb128 0x3b
 2999 0180 0B       		.uleb128 0xb
 3000 0181 27       		.uleb128 0x27
ARM GAS  /var/folders/c6/c789hm653lg9vtl73krp73tm0000gn/T//ccHN0jlm.s 			page 77


 3001 0182 19       		.uleb128 0x19
 3002 0183 11       		.uleb128 0x11
 3003 0184 01       		.uleb128 0x1
 3004 0185 12       		.uleb128 0x12
 3005 0186 06       		.uleb128 0x6
 3006 0187 40       		.uleb128 0x40
 3007 0188 18       		.uleb128 0x18
 3008 0189 9742     		.uleb128 0x2117
 3009 018b 19       		.uleb128 0x19
 3010 018c 01       		.uleb128 0x1
 3011 018d 13       		.uleb128 0x13
 3012 018e 00       		.byte	0
 3013 018f 00       		.byte	0
 3014 0190 20       		.uleb128 0x20
 3015 0191 05       		.uleb128 0x5
 3016 0192 00       		.byte	0
 3017 0193 03       		.uleb128 0x3
 3018 0194 0E       		.uleb128 0xe
 3019 0195 3A       		.uleb128 0x3a
 3020 0196 0B       		.uleb128 0xb
 3021 0197 3B       		.uleb128 0x3b
 3022 0198 0B       		.uleb128 0xb
 3023 0199 49       		.uleb128 0x49
 3024 019a 13       		.uleb128 0x13
 3025 019b 02       		.uleb128 0x2
 3026 019c 18       		.uleb128 0x18
 3027 019d 00       		.byte	0
 3028 019e 00       		.byte	0
 3029 019f 21       		.uleb128 0x21
 3030 01a0 1D       		.uleb128 0x1d
 3031 01a1 01       		.byte	0x1
 3032 01a2 31       		.uleb128 0x31
 3033 01a3 13       		.uleb128 0x13
 3034 01a4 52       		.uleb128 0x52
 3035 01a5 01       		.uleb128 0x1
 3036 01a6 55       		.uleb128 0x55
 3037 01a7 17       		.uleb128 0x17
 3038 01a8 58       		.uleb128 0x58
 3039 01a9 0B       		.uleb128 0xb
 3040 01aa 59       		.uleb128 0x59
 3041 01ab 0B       		.uleb128 0xb
 3042 01ac 01       		.uleb128 0x1
 3043 01ad 13       		.uleb128 0x13
 3044 01ae 00       		.byte	0
 3045 01af 00       		.byte	0
 3046 01b0 22       		.uleb128 0x22
 3047 01b1 05       		.uleb128 0x5
 3048 01b2 00       		.byte	0
 3049 01b3 31       		.uleb128 0x31
 3050 01b4 13       		.uleb128 0x13
 3051 01b5 02       		.uleb128 0x2
 3052 01b6 18       		.uleb128 0x18
 3053 01b7 00       		.byte	0
 3054 01b8 00       		.byte	0
 3055 01b9 23       		.uleb128 0x23
 3056 01ba 05       		.uleb128 0x5
 3057 01bb 00       		.byte	0
ARM GAS  /var/folders/c6/c789hm653lg9vtl73krp73tm0000gn/T//ccHN0jlm.s 			page 78


 3058 01bc 31       		.uleb128 0x31
 3059 01bd 13       		.uleb128 0x13
 3060 01be 1C       		.uleb128 0x1c
 3061 01bf 06       		.uleb128 0x6
 3062 01c0 00       		.byte	0
 3063 01c1 00       		.byte	0
 3064 01c2 24       		.uleb128 0x24
 3065 01c3 1D       		.uleb128 0x1d
 3066 01c4 01       		.byte	0x1
 3067 01c5 31       		.uleb128 0x31
 3068 01c6 13       		.uleb128 0x13
 3069 01c7 11       		.uleb128 0x11
 3070 01c8 01       		.uleb128 0x1
 3071 01c9 12       		.uleb128 0x12
 3072 01ca 06       		.uleb128 0x6
 3073 01cb 58       		.uleb128 0x58
 3074 01cc 0B       		.uleb128 0xb
 3075 01cd 59       		.uleb128 0x59
 3076 01ce 0B       		.uleb128 0xb
 3077 01cf 00       		.byte	0
 3078 01d0 00       		.byte	0
 3079 01d1 25       		.uleb128 0x25
 3080 01d2 05       		.uleb128 0x5
 3081 01d3 00       		.byte	0
 3082 01d4 03       		.uleb128 0x3
 3083 01d5 0E       		.uleb128 0xe
 3084 01d6 3A       		.uleb128 0x3a
 3085 01d7 0B       		.uleb128 0xb
 3086 01d8 3B       		.uleb128 0x3b
 3087 01d9 0B       		.uleb128 0xb
 3088 01da 49       		.uleb128 0x49
 3089 01db 13       		.uleb128 0x13
 3090 01dc 02       		.uleb128 0x2
 3091 01dd 17       		.uleb128 0x17
 3092 01de 00       		.byte	0
 3093 01df 00       		.byte	0
 3094 01e0 26       		.uleb128 0x26
 3095 01e1 34       		.uleb128 0x34
 3096 01e2 00       		.byte	0
 3097 01e3 03       		.uleb128 0x3
 3098 01e4 0E       		.uleb128 0xe
 3099 01e5 3A       		.uleb128 0x3a
 3100 01e6 0B       		.uleb128 0xb
 3101 01e7 3B       		.uleb128 0x3b
 3102 01e8 0B       		.uleb128 0xb
 3103 01e9 49       		.uleb128 0x49
 3104 01ea 13       		.uleb128 0x13
 3105 01eb 02       		.uleb128 0x2
 3106 01ec 17       		.uleb128 0x17
 3107 01ed 00       		.byte	0
 3108 01ee 00       		.byte	0
 3109 01ef 27       		.uleb128 0x27
 3110 01f0 34       		.uleb128 0x34
 3111 01f1 00       		.byte	0
 3112 01f2 03       		.uleb128 0x3
 3113 01f3 0E       		.uleb128 0xe
 3114 01f4 3A       		.uleb128 0x3a
ARM GAS  /var/folders/c6/c789hm653lg9vtl73krp73tm0000gn/T//ccHN0jlm.s 			page 79


 3115 01f5 0B       		.uleb128 0xb
 3116 01f6 3B       		.uleb128 0x3b
 3117 01f7 0B       		.uleb128 0xb
 3118 01f8 49       		.uleb128 0x49
 3119 01f9 13       		.uleb128 0x13
 3120 01fa 02       		.uleb128 0x2
 3121 01fb 18       		.uleb128 0x18
 3122 01fc 00       		.byte	0
 3123 01fd 00       		.byte	0
 3124 01fe 28       		.uleb128 0x28
 3125 01ff 34       		.uleb128 0x34
 3126 0200 00       		.byte	0
 3127 0201 03       		.uleb128 0x3
 3128 0202 08       		.uleb128 0x8
 3129 0203 3A       		.uleb128 0x3a
 3130 0204 0B       		.uleb128 0xb
 3131 0205 3B       		.uleb128 0x3b
 3132 0206 0B       		.uleb128 0xb
 3133 0207 49       		.uleb128 0x49
 3134 0208 13       		.uleb128 0x13
 3135 0209 02       		.uleb128 0x2
 3136 020a 17       		.uleb128 0x17
 3137 020b 00       		.byte	0
 3138 020c 00       		.byte	0
 3139 020d 29       		.uleb128 0x29
 3140 020e 0B       		.uleb128 0xb
 3141 020f 01       		.byte	0x1
 3142 0210 55       		.uleb128 0x55
 3143 0211 17       		.uleb128 0x17
 3144 0212 00       		.byte	0
 3145 0213 00       		.byte	0
 3146 0214 2A       		.uleb128 0x2a
 3147 0215 34       		.uleb128 0x34
 3148 0216 00       		.byte	0
 3149 0217 03       		.uleb128 0x3
 3150 0218 0E       		.uleb128 0xe
 3151 0219 3A       		.uleb128 0x3a
 3152 021a 0B       		.uleb128 0xb
 3153 021b 3B       		.uleb128 0x3b
 3154 021c 05       		.uleb128 0x5
 3155 021d 49       		.uleb128 0x49
 3156 021e 13       		.uleb128 0x13
 3157 021f 3F       		.uleb128 0x3f
 3158 0220 19       		.uleb128 0x19
 3159 0221 3C       		.uleb128 0x3c
 3160 0222 19       		.uleb128 0x19
 3161 0223 00       		.byte	0
 3162 0224 00       		.byte	0
 3163 0225 2B       		.uleb128 0x2b
 3164 0226 34       		.uleb128 0x34
 3165 0227 00       		.byte	0
 3166 0228 03       		.uleb128 0x3
 3167 0229 08       		.uleb128 0x8
 3168 022a 3A       		.uleb128 0x3a
 3169 022b 0B       		.uleb128 0xb
 3170 022c 3B       		.uleb128 0x3b
 3171 022d 05       		.uleb128 0x5
ARM GAS  /var/folders/c6/c789hm653lg9vtl73krp73tm0000gn/T//ccHN0jlm.s 			page 80


 3172 022e 49       		.uleb128 0x49
 3173 022f 13       		.uleb128 0x13
 3174 0230 3F       		.uleb128 0x3f
 3175 0231 19       		.uleb128 0x19
 3176 0232 3C       		.uleb128 0x3c
 3177 0233 19       		.uleb128 0x19
 3178 0234 00       		.byte	0
 3179 0235 00       		.byte	0
 3180 0236 00       		.byte	0
 3181              		.section	.debug_loc,"",%progbits
 3182              	.Ldebug_loc0:
 3183              	.LLST0:
 3184 0000 00000000 		.4byte	.LVL10
 3185 0004 88000000 		.4byte	.LVL24
 3186 0008 0100     		.2byte	0x1
 3187 000a 51       		.byte	0x51
 3188 000b 88000000 		.4byte	.LVL24
 3189 000f 8A000000 		.4byte	.LVL25
 3190 0013 0500     		.2byte	0x5
 3191 0015 71       		.byte	0x71
 3192 0016 00       		.sleb128 0
 3193 0017 31       		.byte	0x31
 3194 0018 25       		.byte	0x25
 3195 0019 9F       		.byte	0x9f
 3196 001a 8A000000 		.4byte	.LVL25
 3197 001e C8000000 		.4byte	.LFE262
 3198 0022 0100     		.2byte	0x1
 3199 0024 51       		.byte	0x51
 3200 0025 00000000 		.4byte	0
 3201 0029 00000000 		.4byte	0
 3202              	.LLST1:
 3203 002d 00000000 		.4byte	.LVL10
 3204 0031 1E000000 		.4byte	.LVL15
 3205 0035 0100     		.2byte	0x1
 3206 0037 52       		.byte	0x52
 3207 0038 1E000000 		.4byte	.LVL15
 3208 003c C8000000 		.4byte	.LFE262
 3209 0040 0400     		.2byte	0x4
 3210 0042 F3       		.byte	0xf3
 3211 0043 01       		.uleb128 0x1
 3212 0044 52       		.byte	0x52
 3213 0045 9F       		.byte	0x9f
 3214 0046 00000000 		.4byte	0
 3215 004a 00000000 		.4byte	0
 3216              	.LLST2:
 3217 004e 0A000000 		.4byte	.LVL11
 3218 0052 C6000000 		.4byte	.LVL35
 3219 0056 0100     		.2byte	0x1
 3220 0058 57       		.byte	0x57
 3221 0059 00000000 		.4byte	0
 3222 005d 00000000 		.4byte	0
 3223              	.LLST3:
 3224 0061 0E000000 		.4byte	.LVL12
 3225 0065 C6000000 		.4byte	.LVL35
 3226 0069 0100     		.2byte	0x1
 3227 006b 56       		.byte	0x56
 3228 006c 00000000 		.4byte	0
ARM GAS  /var/folders/c6/c789hm653lg9vtl73krp73tm0000gn/T//ccHN0jlm.s 			page 81


 3229 0070 00000000 		.4byte	0
 3230              	.LLST4:
 3231 0074 12000000 		.4byte	.LVL13
 3232 0078 C6000000 		.4byte	.LVL35
 3233 007c 0100     		.2byte	0x1
 3234 007e 55       		.byte	0x55
 3235 007f 00000000 		.4byte	0
 3236 0083 00000000 		.4byte	0
 3237              	.LLST5:
 3238 0087 16000000 		.4byte	.LVL14
 3239 008b C6000000 		.4byte	.LVL35
 3240 008f 0100     		.2byte	0x1
 3241 0091 54       		.byte	0x54
 3242 0092 00000000 		.4byte	0
 3243 0096 00000000 		.4byte	0
 3244              	.LLST6:
 3245 009a 1E000000 		.4byte	.LVL15
 3246 009e 24000000 		.4byte	.LVL16
 3247 00a2 0200     		.2byte	0x2
 3248 00a4 30       		.byte	0x30
 3249 00a5 9F       		.byte	0x9f
 3250 00a6 24000000 		.4byte	.LVL16
 3251 00aa C8000000 		.4byte	.LFE262
 3252 00ae 0100     		.2byte	0x1
 3253 00b0 53       		.byte	0x53
 3254 00b1 00000000 		.4byte	0
 3255 00b5 00000000 		.4byte	0
 3256              	.LLST7:
 3257 00b9 24000000 		.4byte	.LVL16
 3258 00bd 30000000 		.4byte	.LVL18
 3259 00c1 0100     		.2byte	0x1
 3260 00c3 58       		.byte	0x58
 3261 00c4 30000000 		.4byte	.LVL18
 3262 00c8 96000000 		.4byte	.LVL30
 3263 00cc 0A00     		.2byte	0xa
 3264 00ce 72       		.byte	0x72
 3265 00cf 00       		.sleb128 0
 3266 00d0 73       		.byte	0x73
 3267 00d1 00       		.sleb128 0
 3268 00d2 37       		.byte	0x37
 3269 00d3 1A       		.byte	0x1a
 3270 00d4 32       		.byte	0x32
 3271 00d5 24       		.byte	0x24
 3272 00d6 24       		.byte	0x24
 3273 00d7 9F       		.byte	0x9f
 3274 00d8 A6000000 		.4byte	.LVL31
 3275 00dc BC000000 		.4byte	.LVL34
 3276 00e0 0100     		.2byte	0x1
 3277 00e2 58       		.byte	0x58
 3278 00e3 BC000000 		.4byte	.LVL34
 3279 00e7 C8000000 		.4byte	.LFE262
 3280 00eb 0A00     		.2byte	0xa
 3281 00ed 72       		.byte	0x72
 3282 00ee 00       		.sleb128 0
 3283 00ef 73       		.byte	0x73
 3284 00f0 00       		.sleb128 0
 3285 00f1 37       		.byte	0x37
ARM GAS  /var/folders/c6/c789hm653lg9vtl73krp73tm0000gn/T//ccHN0jlm.s 			page 82


 3286 00f2 1A       		.byte	0x1a
 3287 00f3 32       		.byte	0x32
 3288 00f4 24       		.byte	0x24
 3289 00f5 24       		.byte	0x24
 3290 00f6 9F       		.byte	0x9f
 3291 00f7 00000000 		.4byte	0
 3292 00fb 00000000 		.4byte	0
 3293              	.LLST8:
 3294 00ff 34000000 		.4byte	.LVL19
 3295 0103 88000000 		.4byte	.LVL24
 3296 0107 0500     		.2byte	0x5
 3297 0109 31       		.byte	0x31
 3298 010a 73       		.byte	0x73
 3299 010b 00       		.sleb128 0
 3300 010c 24       		.byte	0x24
 3301 010d 9F       		.byte	0x9f
 3302 010e 00000000 		.4byte	0
 3303 0112 00000000 		.4byte	0
 3304              	.LLST9:
 3305 0116 48000000 		.4byte	.LVL20
 3306 011a 58000000 		.4byte	.LVL21
 3307 011e 0700     		.2byte	0x7
 3308 0120 33       		.byte	0x33
 3309 0121 73       		.byte	0x73
 3310 0122 00       		.sleb128 0
 3311 0123 31       		.byte	0x31
 3312 0124 24       		.byte	0x24
 3313 0125 24       		.byte	0x24
 3314 0126 9F       		.byte	0x9f
 3315 0127 58000000 		.4byte	.LVL21
 3316 012b 5C000000 		.4byte	.LVL22
 3317 012f 0100     		.2byte	0x1
 3318 0131 5C       		.byte	0x5c
 3319 0132 5C000000 		.4byte	.LVL22
 3320 0136 80000000 		.4byte	.LVL23
 3321 013a 0400     		.2byte	0x4
 3322 013c 7C       		.byte	0x7c
 3323 013d 00       		.sleb128 0
 3324 013e 20       		.byte	0x20
 3325 013f 9F       		.byte	0x9f
 3326 0140 80000000 		.4byte	.LVL23
 3327 0144 88000000 		.4byte	.LVL24
 3328 0148 0700     		.2byte	0x7
 3329 014a 33       		.byte	0x33
 3330 014b 73       		.byte	0x73
 3331 014c 00       		.sleb128 0
 3332 014d 31       		.byte	0x31
 3333 014e 24       		.byte	0x24
 3334 014f 24       		.byte	0x24
 3335 0150 9F       		.byte	0x9f
 3336 0151 00000000 		.4byte	0
 3337 0155 00000000 		.4byte	0
 3338              	.LLST10:
 3339 0159 24000000 		.4byte	.LVL16
 3340 015d 2C000000 		.4byte	.LVL17
 3341 0161 0100     		.2byte	0x1
 3342 0163 5C       		.byte	0x5c
ARM GAS  /var/folders/c6/c789hm653lg9vtl73krp73tm0000gn/T//ccHN0jlm.s 			page 83


 3343 0164 2C000000 		.4byte	.LVL17
 3344 0168 96000000 		.4byte	.LVL30
 3345 016c 0A00     		.2byte	0xa
 3346 016e 79       		.byte	0x79
 3347 016f 00       		.sleb128 0
 3348 0170 73       		.byte	0x73
 3349 0171 00       		.sleb128 0
 3350 0172 37       		.byte	0x37
 3351 0173 1A       		.byte	0x1a
 3352 0174 32       		.byte	0x32
 3353 0175 24       		.byte	0x24
 3354 0176 24       		.byte	0x24
 3355 0177 9F       		.byte	0x9f
 3356 0178 AA000000 		.4byte	.LVL32
 3357 017c B8000000 		.4byte	.LVL33
 3358 0180 0100     		.2byte	0x1
 3359 0182 5C       		.byte	0x5c
 3360 0183 B8000000 		.4byte	.LVL33
 3361 0187 C6000000 		.4byte	.LVL35
 3362 018b 0A00     		.2byte	0xa
 3363 018d 79       		.byte	0x79
 3364 018e 00       		.sleb128 0
 3365 018f 73       		.byte	0x73
 3366 0190 00       		.sleb128 0
 3367 0191 37       		.byte	0x37
 3368 0192 1A       		.byte	0x1a
 3369 0193 32       		.byte	0x32
 3370 0194 24       		.byte	0x24
 3371 0195 24       		.byte	0x24
 3372 0196 9F       		.byte	0x9f
 3373 0197 C6000000 		.4byte	.LVL35
 3374 019b C8000000 		.4byte	.LFE262
 3375 019f 0900     		.2byte	0x9
 3376 01a1 3F       		.byte	0x3f
 3377 01a2 73       		.byte	0x73
 3378 01a3 00       		.sleb128 0
 3379 01a4 37       		.byte	0x37
 3380 01a5 1A       		.byte	0x1a
 3381 01a6 32       		.byte	0x32
 3382 01a7 24       		.byte	0x24
 3383 01a8 24       		.byte	0x24
 3384 01a9 9F       		.byte	0x9f
 3385 01aa 00000000 		.4byte	0
 3386 01ae 00000000 		.4byte	0
 3387              		.section	.debug_aranges,"",%progbits
 3388 0000 24000000 		.4byte	0x24
 3389 0004 0200     		.2byte	0x2
 3390 0006 00000000 		.4byte	.Ldebug_info0
 3391 000a 04       		.byte	0x4
 3392 000b 00       		.byte	0
 3393 000c 0000     		.2byte	0
 3394 000e 0000     		.2byte	0
 3395 0010 00000000 		.4byte	.LFB261
 3396 0014 C0010000 		.4byte	.LFE261-.LFB261
 3397 0018 00000000 		.4byte	.LFB262
 3398 001c C8000000 		.4byte	.LFE262-.LFB262
 3399 0020 00000000 		.4byte	0
ARM GAS  /var/folders/c6/c789hm653lg9vtl73krp73tm0000gn/T//ccHN0jlm.s 			page 84


 3400 0024 00000000 		.4byte	0
 3401              		.section	.debug_ranges,"",%progbits
 3402              	.Ldebug_ranges0:
 3403 0000 08000000 		.4byte	.LBB20
 3404 0004 0C000000 		.4byte	.LBE20
 3405 0008 38000000 		.4byte	.LBB44
 3406 000c 62000000 		.4byte	.LBE44
 3407 0010 00000000 		.4byte	0
 3408 0014 00000000 		.4byte	0
 3409 0018 10000000 		.4byte	.LBB23
 3410 001c 14000000 		.4byte	.LBE23
 3411 0020 62000000 		.4byte	.LBB45
 3412 0024 8C000000 		.4byte	.LBE45
 3413 0028 00000000 		.4byte	0
 3414 002c 00000000 		.4byte	0
 3415 0030 14000000 		.4byte	.LBB26
 3416 0034 16000000 		.4byte	.LBE26
 3417 0038 8C000000 		.4byte	.LBB46
 3418 003c A8000000 		.4byte	.LBE46
 3419 0040 00000000 		.4byte	0
 3420 0044 00000000 		.4byte	0
 3421 0048 16000000 		.4byte	.LBB29
 3422 004c 18000000 		.4byte	.LBE29
 3423 0050 A8000000 		.4byte	.LBB47
 3424 0054 C4000000 		.4byte	.LBE47
 3425 0058 00000000 		.4byte	0
 3426 005c 00000000 		.4byte	0
 3427 0060 18000000 		.4byte	.LBB32
 3428 0064 1A000000 		.4byte	.LBE32
 3429 0068 C4000000 		.4byte	.LBB48
 3430 006c E6000000 		.4byte	.LBE48
 3431 0070 00000000 		.4byte	0
 3432 0074 00000000 		.4byte	0
 3433 0078 1A000000 		.4byte	.LBB35
 3434 007c 1C000000 		.4byte	.LBE35
 3435 0080 E6000000 		.4byte	.LBB49
 3436 0084 10010000 		.4byte	.LBE49
 3437 0088 00000000 		.4byte	0
 3438 008c 00000000 		.4byte	0
 3439 0090 1C000000 		.4byte	.LBB38
 3440 0094 1E000000 		.4byte	.LBE38
 3441 0098 10010000 		.4byte	.LBB50
 3442 009c 3A010000 		.4byte	.LBE50
 3443 00a0 00000000 		.4byte	0
 3444 00a4 00000000 		.4byte	0
 3445 00a8 1E000000 		.4byte	.LBB41
 3446 00ac 20000000 		.4byte	.LBE41
 3447 00b0 3A010000 		.4byte	.LBB51
 3448 00b4 64010000 		.4byte	.LBE51
 3449 00b8 00000000 		.4byte	0
 3450 00bc 00000000 		.4byte	0
 3451 00c0 16000000 		.4byte	.LBB54
 3452 00c4 1A000000 		.4byte	.LBE54
 3453 00c8 1E000000 		.4byte	.LBB55
 3454 00cc 88000000 		.4byte	.LBE55
 3455 00d0 96000000 		.4byte	.LBB56
 3456 00d4 9E000000 		.4byte	.LBE56
ARM GAS  /var/folders/c6/c789hm653lg9vtl73krp73tm0000gn/T//ccHN0jlm.s 			page 85


 3457 00d8 A2000000 		.4byte	.LBB57
 3458 00dc AA000000 		.4byte	.LBE57
 3459 00e0 AC000000 		.4byte	.LBB58
 3460 00e4 C2000000 		.4byte	.LBE58
 3461 00e8 00000000 		.4byte	0
 3462 00ec 00000000 		.4byte	0
 3463 00f0 00000000 		.4byte	.LFB261
 3464 00f4 C0010000 		.4byte	.LFE261
 3465 00f8 00000000 		.4byte	.LFB262
 3466 00fc C8000000 		.4byte	.LFE262
 3467 0100 00000000 		.4byte	0
 3468 0104 00000000 		.4byte	0
 3469              		.section	.debug_line,"",%progbits
 3470              	.Ldebug_line0:
 3471 0000 E7020000 		.section	.debug_str,"MS",%progbits,1
 3471      02003402 
 3471      00000201 
 3471      FB0E0D00 
 3471      01010101 
 3472              	.LASF175:
 3473 0000 73746D33 		.ascii	"stm32_gpio_setup_t\000"
 3473      325F6770 
 3473      696F5F73 
 3473      65747570 
 3473      5F7400
 3474              	.LASF127:
 3475 0013 74625F70 		.ascii	"tb_ptr\000"
 3475      747200
 3476              	.LASF56:
 3477 001a 72656164 		.ascii	"ready_list_t\000"
 3477      795F6C69 
 3477      73745F74 
 3477      00
 3478              	.LASF121:
 3479 0027 73655F74 		.ascii	"se_time\000"
 3479      696D6500 
 3480              	.LASF145:
 3481 002f 77747472 		.ascii	"wttrp\000"
 3481      7000
 3482              	.LASF142:
 3483 0035 7264796D 		.ascii	"rdymsg\000"
 3483      736700
 3484              	.LASF18:
 3485 003c 75696E74 		.ascii	"uint64_t\000"
 3485      36345F74 
 3485      00
 3486              	.LASF4:
 3487 0045 5F5F7569 		.ascii	"__uint8_t\000"
 3487      6E74385F 
 3487      7400
 3488              	.LASF161:
 3489 004f 4F545950 		.ascii	"OTYPER\000"
 3489      455200
 3490              	.LASF120:
 3491 0056 706F7274 		.ascii	"port_intctx\000"
 3491      5F696E74 
 3491      63747800 
ARM GAS  /var/folders/c6/c789hm653lg9vtl73krp73tm0000gn/T//ccHN0jlm.s 			page 86


 3492              	.LASF55:
 3493 0062 63685F74 		.ascii	"ch_threads_queue\000"
 3493      68726561 
 3493      64735F71 
 3493      75657565 
 3493      00
 3494              	.LASF75:
 3495 0073 73797374 		.ascii	"system_debug_t\000"
 3495      656D5F64 
 3495      65627567 
 3495      5F7400
 3496              	.LASF186:
 3497 0082 696F706F 		.ascii	"ioportmask_t\000"
 3497      72746D61 
 3497      736B5F74 
 3497      00
 3498              	.LASF133:
 3499 008f 776F7273 		.ascii	"worst\000"
 3499      7400
 3500              	.LASF183:
 3501 0095 50484461 		.ascii	"PHData\000"
 3501      746100
 3502              	.LASF136:
 3503 009c 74696D65 		.ascii	"time_measurement_t\000"
 3503      5F6D6561 
 3503      73757265 
 3503      6D656E74 
 3503      5F7400
 3504              	.LASF160:
 3505 00af 4D4F4445 		.ascii	"MODER\000"
 3505      5200
 3506              	.LASF13:
 3507 00b5 6C6F6E67 		.ascii	"long long unsigned int\000"
 3507      206C6F6E 
 3507      6720756E 
 3507      7369676E 
 3507      65642069 
 3508              	.LASF129:
 3509 00cc 63685F74 		.ascii	"ch_trace_buffer_t\000"
 3509      72616365 
 3509      5F627566 
 3509      6665725F 
 3509      7400
 3510              	.LASF124:
 3511 00de 73655F73 		.ascii	"se_state\000"
 3511      74617465 
 3511      00
 3512              	.LASF163:
 3513 00e7 50555044 		.ascii	"PUPDR\000"
 3513      5200
 3514              	.LASF143:
 3515 00ed 65786974 		.ascii	"exitcode\000"
 3515      636F6465 
 3515      00
 3516              	.LASF85:
 3517 00f6 6D61696E 		.ascii	"mainthread\000"
 3517      74687265 
ARM GAS  /var/folders/c6/c789hm653lg9vtl73krp73tm0000gn/T//ccHN0jlm.s 			page 87


 3517      616400
 3518              	.LASF72:
 3519 0101 76697274 		.ascii	"virtual_timers_list_t\000"
 3519      75616C5F 
 3519      74696D65 
 3519      72735F6C 
 3519      6973745F 
 3520              	.LASF198:
 3521 0117 49544D5F 		.ascii	"ITM_RxBuffer\000"
 3521      52784275 
 3521      66666572 
 3521      00
 3522              	.LASF20:
 3523 0124 72747469 		.ascii	"rttime_t\000"
 3523      6D655F74 
 3523      00
 3524              	.LASF105:
 3525 012d 41484231 		.ascii	"AHB1LPENR\000"
 3525      4C50454E 
 3525      5200
 3526              	.LASF33:
 3527 0137 705F7072 		.ascii	"p_prio\000"
 3527      696F00
 3528              	.LASF11:
 3529 013e 6C6F6E67 		.ascii	"long long int\000"
 3529      206C6F6E 
 3529      6720696E 
 3529      7400
 3530              	.LASF1:
 3531 014c 7369676E 		.ascii	"signed char\000"
 3531      65642063 
 3531      68617200 
 3532              	.LASF164:
 3533 0158 42535252 		.ascii	"BSRR\000"
 3533      00
 3534              	.LASF91:
 3535 015d 41484231 		.ascii	"AHB1RSTR\000"
 3535      52535452 
 3535      00
 3536              	.LASF48:
 3537 0166 705F6D70 		.ascii	"p_mpool\000"
 3537      6F6F6C00 
 3538              	.LASF153:
 3539 016e 6D5F7175 		.ascii	"m_queue\000"
 3539      65756500 
 3540              	.LASF169:
 3541 0176 6D6F6465 		.ascii	"moder\000"
 3541      7200
 3542              	.LASF116:
 3543 017c 5243435F 		.ascii	"RCC_TypeDef\000"
 3543      54797065 
 3543      44656600 
 3544              	.LASF82:
 3545 0188 63685F73 		.ascii	"ch_system\000"
 3545      79737465 
 3545      6D00
 3546              	.LASF8:
ARM GAS  /var/folders/c6/c789hm653lg9vtl73krp73tm0000gn/T//ccHN0jlm.s 			page 88


 3547 0192 6C6F6E67 		.ascii	"long int\000"
 3547      20696E74 
 3547      00
 3548              	.LASF180:
 3549 019b 50454461 		.ascii	"PEData\000"
 3549      746100
 3550              	.LASF109:
 3551 01a2 41504231 		.ascii	"APB1LPENR\000"
 3551      4C50454E 
 3551      5200
 3552              	.LASF22:
 3553 01ac 74737461 		.ascii	"tstate_t\000"
 3553      74655F74 
 3553      00
 3554              	.LASF122:
 3555 01b5 73655F74 		.ascii	"se_tp\000"
 3555      7000
 3556              	.LASF15:
 3557 01bb 75696E74 		.ascii	"uint16_t\000"
 3557      31365F74 
 3557      00
 3558              	.LASF197:
 3559 01c4 616C7472 		.ascii	"altrmask\000"
 3559      6D61736B 
 3559      00
 3560              	.LASF35:
 3561 01cd 705F6E65 		.ascii	"p_newer\000"
 3561      77657200 
 3562              	.LASF89:
 3563 01d5 504C4C43 		.ascii	"PLLCFGR\000"
 3563      46475200 
 3564              	.LASF126:
 3565 01dd 74625F73 		.ascii	"tb_size\000"
 3565      697A6500 
 3566              	.LASF162:
 3567 01e5 4F535045 		.ascii	"OSPEEDR\000"
 3567      45445200 
 3568              	.LASF61:
 3569 01ed 725F6E65 		.ascii	"r_newer\000"
 3569      77657200 
 3570              	.LASF194:
 3571 01f5 6D61736B 		.ascii	"mask\000"
 3571      00
 3572              	.LASF117:
 3573 01fa 72656761 		.ascii	"regarm_t\000"
 3573      726D5F74 
 3573      00
 3574              	.LASF68:
 3575 0203 76745F70 		.ascii	"vt_prev\000"
 3575      72657600 
 3576              	.LASF84:
 3577 020b 76746C69 		.ascii	"vtlist\000"
 3577      737400
 3578              	.LASF76:
 3579 0212 63685F73 		.ascii	"ch_system_debug\000"
 3579      79737465 
 3579      6D5F6465 
ARM GAS  /var/folders/c6/c789hm653lg9vtl73krp73tm0000gn/T//ccHN0jlm.s 			page 89


 3579      62756700 
 3580              	.LASF168:
 3581 0222 73746D33 		.ascii	"stm32_gpio_t\000"
 3581      325F6770 
 3581      696F5F74 
 3581      00
 3582              	.LASF193:
 3583 022f 706F7274 		.ascii	"port\000"
 3583      00
 3584              	.LASF157:
 3585 0234 6D757465 		.ascii	"mutex_t\000"
 3585      785F7400 
 3586              	.LASF177:
 3587 023c 50424461 		.ascii	"PBData\000"
 3587      746100
 3588              	.LASF79:
 3589 0243 6C6F636B 		.ascii	"lock_cnt\000"
 3589      5F636E74 
 3589      00
 3590              	.LASF87:
 3591 024c 69646C65 		.ascii	"idle_thread_wa\000"
 3591      5F746872 
 3591      6561645F 
 3591      776100
 3592              	.LASF27:
 3593 025b 636E745F 		.ascii	"cnt_t\000"
 3593      7400
 3594              	.LASF38:
 3595 0261 705F7374 		.ascii	"p_stklimit\000"
 3595      6B6C696D 
 3595      697400
 3596              	.LASF0:
 3597 026c 756E7369 		.ascii	"unsigned int\000"
 3597      676E6564 
 3597      20696E74 
 3597      00
 3598              	.LASF67:
 3599 0279 76745F6E 		.ascii	"vt_next\000"
 3599      65787400 
 3600              	.LASF146:
 3601 0281 77747365 		.ascii	"wtsemp\000"
 3601      6D7000
 3602              	.LASF43:
 3603 0288 705F6D73 		.ascii	"p_msgqueue\000"
 3603      67717565 
 3603      756500
 3604              	.LASF171:
 3605 0293 6F737065 		.ascii	"ospeedr\000"
 3605      65647200 
 3606              	.LASF165:
 3607 029b 4C434B52 		.ascii	"LCKR\000"
 3607      00
 3608              	.LASF137:
 3609 02a0 6E5F6972 		.ascii	"n_irq\000"
 3609      7100
 3610              	.LASF170:
 3611 02a6 6F747970 		.ascii	"otyper\000"
ARM GAS  /var/folders/c6/c789hm653lg9vtl73krp73tm0000gn/T//ccHN0jlm.s 			page 90


 3611      657200
 3612              	.LASF201:
 3613 02ad 2F557365 		.ascii	"/Users/savonetj/Downloads/ChibiOS_3.0.2/demos/STM32"
 3613      72732F73 
 3613      61766F6E 
 3613      65746A2F 
 3613      446F776E 
 3614 02e0 2F52542D 		.ascii	"/RT-STM32F407-OLIMEX_E407-LWIP-FATFS-USB\000"
 3614      53544D33 
 3614      32463430 
 3614      372D4F4C 
 3614      494D4558 
 3615              	.LASF6:
 3616 0309 73686F72 		.ascii	"short unsigned int\000"
 3616      7420756E 
 3616      7369676E 
 3616      65642069 
 3616      6E7400
 3617              	.LASF141:
 3618 031c 6B65726E 		.ascii	"kernel_stats_t\000"
 3618      656C5F73 
 3618      74617473 
 3618      5F7400
 3619              	.LASF52:
 3620 032b 63685F74 		.ascii	"ch_thread\000"
 3620      68726561 
 3620      6400
 3621              	.LASF115:
 3622 0335 504C4C49 		.ascii	"PLLI2SCFGR\000"
 3622      32534346 
 3622      475200
 3623              	.LASF96:
 3624 0340 41504232 		.ascii	"APB2RSTR\000"
 3624      52535452 
 3624      00
 3625              	.LASF25:
 3626 0349 6D73675F 		.ascii	"msg_t\000"
 3626      7400
 3627              	.LASF93:
 3628 034f 41484233 		.ascii	"AHB3RSTR\000"
 3628      52535452 
 3628      00
 3629              	.LASF28:
 3630 0358 75636E74 		.ascii	"ucnt_t\000"
 3630      5F7400
 3631              	.LASF81:
 3632 035f 63685F73 		.ascii	"ch_system_t\000"
 3632      79737465 
 3632      6D5F7400 
 3633              	.LASF128:
 3634 036b 74625F62 		.ascii	"tb_buffer\000"
 3634      75666665 
 3634      7200
 3635              	.LASF110:
 3636 0375 41504232 		.ascii	"APB2LPENR\000"
 3636      4C50454E 
 3636      5200
ARM GAS  /var/folders/c6/c789hm653lg9vtl73krp73tm0000gn/T//ccHN0jlm.s 			page 91


 3637              	.LASF140:
 3638 037f 6D5F6372 		.ascii	"m_crit_isr\000"
 3638      69745F69 
 3638      737200
 3639              	.LASF57:
 3640 038a 63685F72 		.ascii	"ch_ready_list\000"
 3640      65616479 
 3640      5F6C6973 
 3640      7400
 3641              	.LASF26:
 3642 0398 6576656E 		.ascii	"eventmask_t\000"
 3642      746D6173 
 3642      6B5F7400 
 3643              	.LASF7:
 3644 03a4 5F5F696E 		.ascii	"__int32_t\000"
 3644      7433325F 
 3644      7400
 3645              	.LASF182:
 3646 03ae 50474461 		.ascii	"PGData\000"
 3646      746100
 3647              	.LASF118:
 3648 03b5 73746B61 		.ascii	"stkalign_t\000"
 3648      6C69676E 
 3648      5F7400
 3649              	.LASF51:
 3650 03c0 74687265 		.ascii	"threads_list_t\000"
 3650      6164735F 
 3650      6C697374 
 3650      5F7400
 3651              	.LASF65:
 3652 03cf 76697274 		.ascii	"virtual_timer_t\000"
 3652      75616C5F 
 3652      74696D65 
 3652      725F7400 
 3653              	.LASF150:
 3654 03df 735F7175 		.ascii	"s_queue\000"
 3654      65756500 
 3655              	.LASF42:
 3656 03e7 705F7761 		.ascii	"p_waiting\000"
 3656      6974696E 
 3656      6700
 3657              	.LASF88:
 3658 03f1 73697A65 		.ascii	"sizetype\000"
 3658      74797065 
 3658      00
 3659              	.LASF50:
 3660 03fa 74687265 		.ascii	"thread_reference_t\000"
 3660      61645F72 
 3660      65666572 
 3660      656E6365 
 3660      5F7400
 3661              	.LASF73:
 3662 040d 63685F76 		.ascii	"ch_virtual_timers_list\000"
 3662      69727475 
 3662      616C5F74 
 3662      696D6572 
 3662      735F6C69 
ARM GAS  /var/folders/c6/c789hm653lg9vtl73krp73tm0000gn/T//ccHN0jlm.s 			page 92


 3663              	.LASF159:
 3664 0424 636C6561 		.ascii	"clear\000"
 3664      7200
 3665              	.LASF125:
 3666 042a 63685F73 		.ascii	"ch_swc_event_t\000"
 3666      77635F65 
 3666      76656E74 
 3666      5F7400
 3667              	.LASF100:
 3668 0439 41484233 		.ascii	"AHB3ENR\000"
 3668      454E5200 
 3669              	.LASF74:
 3670 0441 76745F6C 		.ascii	"vt_lasttime\000"
 3670      61737474 
 3670      696D6500 
 3671              	.LASF36:
 3672 044d 705F6F6C 		.ascii	"p_older\000"
 3672      64657200 
 3673              	.LASF60:
 3674 0455 725F6374 		.ascii	"r_ctx\000"
 3674      7800
 3675              	.LASF106:
 3676 045b 41484232 		.ascii	"AHB2LPENR\000"
 3676      4C50454E 
 3676      5200
 3677              	.LASF131:
 3678 0465 746D5F63 		.ascii	"tm_calibration_t\000"
 3678      616C6962 
 3678      72617469 
 3678      6F6E5F74 
 3678      00
 3679              	.LASF174:
 3680 0476 61667268 		.ascii	"afrh\000"
 3680      00
 3681              	.LASF179:
 3682 047b 50444461 		.ascii	"PDData\000"
 3682      746100
 3683              	.LASF63:
 3684 0482 725F6375 		.ascii	"r_current\000"
 3684      7272656E 
 3684      7400
 3685              	.LASF95:
 3686 048c 41504231 		.ascii	"APB1RSTR\000"
 3686      52535452 
 3686      00
 3687              	.LASF12:
 3688 0495 5F5F7569 		.ascii	"__uint64_t\000"
 3688      6E743634 
 3688      5F7400
 3689              	.LASF167:
 3690 04a0 41465248 		.ascii	"AFRH\000"
 3690      00
 3691              	.LASF135:
 3692 04a5 63756D75 		.ascii	"cumulative\000"
 3692      6C617469 
 3692      766500
 3693              	.LASF166:
ARM GAS  /var/folders/c6/c789hm653lg9vtl73krp73tm0000gn/T//ccHN0jlm.s 			page 93


 3694 04b0 4146524C 		.ascii	"AFRL\000"
 3694      00
 3695              	.LASF86:
 3696 04b5 6B65726E 		.ascii	"kernel_stats\000"
 3696      656C5F73 
 3696      74617473 
 3696      00
 3697              	.LASF23:
 3698 04c2 74726566 		.ascii	"trefs_t\000"
 3698      735F7400 
 3699              	.LASF94:
 3700 04ca 52455345 		.ascii	"RESERVED0\000"
 3700      52564544 
 3700      3000
 3701              	.LASF97:
 3702 04d4 52455345 		.ascii	"RESERVED1\000"
 3702      52564544 
 3702      3100
 3703              	.LASF101:
 3704 04de 52455345 		.ascii	"RESERVED2\000"
 3704      52564544 
 3704      3200
 3705              	.LASF104:
 3706 04e8 52455345 		.ascii	"RESERVED3\000"
 3706      52564544 
 3706      3300
 3707              	.LASF108:
 3708 04f2 52455345 		.ascii	"RESERVED4\000"
 3708      52564544 
 3708      3400
 3709              	.LASF32:
 3710 04fc 705F7072 		.ascii	"p_prev\000"
 3710      657600
 3711              	.LASF113:
 3712 0503 52455345 		.ascii	"RESERVED6\000"
 3712      52564544 
 3712      3600
 3713              	.LASF24:
 3714 050d 74707269 		.ascii	"tprio_t\000"
 3714      6F5F7400 
 3715              	.LASF138:
 3716 0515 6E5F6374 		.ascii	"n_ctxswc\000"
 3716      78737763 
 3716      00
 3717              	.LASF158:
 3718 051e 5F426F6F 		.ascii	"_Bool\000"
 3718      6C00
 3719              	.LASF16:
 3720 0524 696E7433 		.ascii	"int32_t\000"
 3720      325F7400 
 3721              	.LASF2:
 3722 052c 756E7369 		.ascii	"unsigned char\000"
 3722      676E6564 
 3722      20636861 
 3722      7200
 3723              	.LASF173:
 3724 053a 6166726C 		.ascii	"afrl\000"
ARM GAS  /var/folders/c6/c789hm653lg9vtl73krp73tm0000gn/T//ccHN0jlm.s 			page 94


 3724      00
 3725              	.LASF151:
 3726 053f 735F636E 		.ascii	"s_cnt\000"
 3726      7400
 3727              	.LASF46:
 3728 0545 705F6D74 		.ascii	"p_mtxlist\000"
 3728      786C6973 
 3728      7400
 3729              	.LASF3:
 3730 054f 73686F72 		.ascii	"short int\000"
 3730      7420696E 
 3730      7400
 3731              	.LASF39:
 3732 0559 705F7374 		.ascii	"p_state\000"
 3732      61746500 
 3733              	.LASF107:
 3734 0561 41484233 		.ascii	"AHB3LPENR\000"
 3734      4C50454E 
 3734      5200
 3735              	.LASF59:
 3736 056b 725F7072 		.ascii	"r_prio\000"
 3736      696F00
 3737              	.LASF176:
 3738 0572 50414461 		.ascii	"PAData\000"
 3738      746100
 3739              	.LASF148:
 3740 0579 65776D61 		.ascii	"ewmask\000"
 3740      736B00
 3741              	.LASF31:
 3742 0580 705F6E65 		.ascii	"p_next\000"
 3742      787400
 3743              	.LASF21:
 3744 0587 746D6F64 		.ascii	"tmode_t\000"
 3744      655F7400 
 3745              	.LASF40:
 3746 058f 705F666C 		.ascii	"p_flags\000"
 3746      61677300 
 3747              	.LASF49:
 3748 0597 705F7374 		.ascii	"p_stats\000"
 3748      61747300 
 3749              	.LASF189:
 3750 059f 6770696F 		.ascii	"gpiop\000"
 3750      7000
 3751              	.LASF103:
 3752 05a5 41504232 		.ascii	"APB2ENR\000"
 3752      454E5200 
 3753              	.LASF184:
 3754 05ad 50494461 		.ascii	"PIData\000"
 3754      746100
 3755              	.LASF66:
 3756 05b4 63685F76 		.ascii	"ch_virtual_timer\000"
 3756      69727475 
 3756      616C5F74 
 3756      696D6572 
 3756      00
 3757              	.LASF149:
 3758 05c5 63685F73 		.ascii	"ch_semaphore\000"
ARM GAS  /var/folders/c6/c789hm653lg9vtl73krp73tm0000gn/T//ccHN0jlm.s 			page 95


 3758      656D6170 
 3758      686F7265 
 3758      00
 3759              	.LASF45:
 3760 05d2 705F6570 		.ascii	"p_epending\000"
 3760      656E6469 
 3760      6E6700
 3761              	.LASF111:
 3762 05dd 52455345 		.ascii	"RESERVED5\000"
 3762      52564544 
 3762      3500
 3763              	.LASF17:
 3764 05e7 75696E74 		.ascii	"uint32_t\000"
 3764      33325F74 
 3764      00
 3765              	.LASF147:
 3766 05f0 77746D74 		.ascii	"wtmtxp\000"
 3766      787000
 3767              	.LASF58:
 3768 05f7 725F7175 		.ascii	"r_queue\000"
 3768      65756500 
 3769              	.LASF69:
 3770 05ff 76745F64 		.ascii	"vt_delta\000"
 3770      656C7461 
 3770      00
 3771              	.LASF53:
 3772 0608 63685F74 		.ascii	"ch_threads_list\000"
 3772      68726561 
 3772      64735F6C 
 3772      69737400 
 3773              	.LASF10:
 3774 0618 6C6F6E67 		.ascii	"long unsigned int\000"
 3774      20756E73 
 3774      69676E65 
 3774      6420696E 
 3774      7400
 3775              	.LASF196:
 3776 062a 616C7472 		.ascii	"altr\000"
 3776      00
 3777              	.LASF156:
 3778 062f 63686172 		.ascii	"char\000"
 3778      00
 3779              	.LASF195:
 3780 0634 6D6F6465 		.ascii	"mode\000"
 3780      00
 3781              	.LASF190:
 3782 0639 636F6E66 		.ascii	"config\000"
 3782      696700
 3783              	.LASF5:
 3784 0640 5F5F7569 		.ascii	"__uint16_t\000"
 3784      6E743136 
 3784      5F7400
 3785              	.LASF92:
 3786 064b 41484232 		.ascii	"AHB2RSTR\000"
 3786      52535452 
 3786      00
 3787              	.LASF30:
ARM GAS  /var/folders/c6/c789hm653lg9vtl73krp73tm0000gn/T//ccHN0jlm.s 			page 96


 3788 0654 74687265 		.ascii	"thread_t\000"
 3788      61645F74 
 3788      00
 3789              	.LASF132:
 3790 065d 62657374 		.ascii	"best\000"
 3790      00
 3791              	.LASF155:
 3792 0662 6D5F6E65 		.ascii	"m_next\000"
 3792      787400
 3793              	.LASF29:
 3794 0669 73797374 		.ascii	"systime_t\000"
 3794      696D655F 
 3794      7400
 3795              	.LASF47:
 3796 0673 705F7265 		.ascii	"p_realprio\000"
 3796      616C7072 
 3796      696F00
 3797              	.LASF64:
 3798 067e 76746675 		.ascii	"vtfunc_t\000"
 3798      6E635F74 
 3798      00
 3799              	.LASF9:
 3800 0687 5F5F7569 		.ascii	"__uint32_t\000"
 3800      6E743332 
 3800      5F7400
 3801              	.LASF134:
 3802 0692 6C617374 		.ascii	"last\000"
 3802      00
 3803              	.LASF202:
 3804 0697 696E6974 		.ascii	"initgpio\000"
 3804      6770696F 
 3804      00
 3805              	.LASF77:
 3806 06a0 70616E69 		.ascii	"panic_msg\000"
 3806      635F6D73 
 3806      6700
 3807              	.LASF130:
 3808 06aa 6F666673 		.ascii	"offset\000"
 3808      657400
 3809              	.LASF102:
 3810 06b1 41504231 		.ascii	"APB1ENR\000"
 3810      454E5200 
 3811              	.LASF188:
 3812 06b9 696F706F 		.ascii	"ioportid_t\000"
 3812      72746964 
 3812      5F7400
 3813              	.LASF99:
 3814 06c4 41484232 		.ascii	"AHB2ENR\000"
 3814      454E5200 
 3815              	.LASF119:
 3816 06cc 636F6E74 		.ascii	"context\000"
 3816      65787400 
 3817              	.LASF62:
 3818 06d4 725F6F6C 		.ascii	"r_older\000"
 3818      64657200 
 3819              	.LASF192:
 3820 06dc 5F70616C 		.ascii	"_pal_lld_setgroupmode\000"
ARM GAS  /var/folders/c6/c789hm653lg9vtl73krp73tm0000gn/T//ccHN0jlm.s 			page 97


 3820      5F6C6C64 
 3820      5F736574 
 3820      67726F75 
 3820      706D6F64 
 3821              	.LASF19:
 3822 06f2 7274636E 		.ascii	"rtcnt_t\000"
 3822      745F7400 
 3823              	.LASF71:
 3824 06fa 76745F70 		.ascii	"vt_par\000"
 3824      617200
 3825              	.LASF185:
 3826 0701 50414C43 		.ascii	"PALConfig\000"
 3826      6F6E6669 
 3826      6700
 3827              	.LASF114:
 3828 070b 53534347 		.ascii	"SSCGR\000"
 3828      5200
 3829              	.LASF54:
 3830 0711 74687265 		.ascii	"threads_queue_t\000"
 3830      6164735F 
 3830      71756575 
 3830      655F7400 
 3831              	.LASF152:
 3832 0721 63685F6D 		.ascii	"ch_mutex\000"
 3832      75746578 
 3832      00
 3833              	.LASF41:
 3834 072a 705F7265 		.ascii	"p_refs\000"
 3834      667300
 3835              	.LASF78:
 3836 0731 6973725F 		.ascii	"isr_cnt\000"
 3836      636E7400 
 3837              	.LASF191:
 3838 0739 5F70616C 		.ascii	"_pal_lld_init\000"
 3838      5F6C6C64 
 3838      5F696E69 
 3838      7400
 3839              	.LASF112:
 3840 0747 42444352 		.ascii	"BDCR\000"
 3840      00
 3841              	.LASF83:
 3842 074c 726C6973 		.ascii	"rlist\000"
 3842      7400
 3843              	.LASF14:
 3844 0752 75696E74 		.ascii	"uint8_t\000"
 3844      385F7400 
 3845              	.LASF172:
 3846 075a 70757064 		.ascii	"pupdr\000"
 3846      7200
 3847              	.LASF144:
 3848 0760 77746F62 		.ascii	"wtobjp\000"
 3848      6A7000
 3849              	.LASF37:
 3850 0767 705F6E61 		.ascii	"p_name\000"
 3850      6D6500
 3851              	.LASF98:
 3852 076e 41484231 		.ascii	"AHB1ENR\000"
ARM GAS  /var/folders/c6/c789hm653lg9vtl73krp73tm0000gn/T//ccHN0jlm.s 			page 98


 3852      454E5200 
 3853              	.LASF178:
 3854 0776 50434461 		.ascii	"PCData\000"
 3854      746100
 3855              	.LASF90:
 3856 077d 43464752 		.ascii	"CFGR\000"
 3856      00
 3857              	.LASF80:
 3858 0782 74726163 		.ascii	"trace_buffer\000"
 3858      655F6275 
 3858      66666572 
 3858      00
 3859              	.LASF199:
 3860 078f 474E5520 		.ascii	"GNU C 4.8.4 20140725 (release) [ARM/embedded-4_8-br"
 3860      4320342E 
 3860      382E3420 
 3860      32303134 
 3860      30373235 
 3861 07c2 616E6368 		.ascii	"anch revision 213147] -mcpu=cortex-m4 -mno-thumb-in"
 3861      20726576 
 3861      6973696F 
 3861      6E203231 
 3861      33313437 
 3862 07f5 74657277 		.ascii	"terwork -mthumb -ggdb -O2 -fomit-frame-pointer -fal"
 3862      6F726B20 
 3862      2D6D7468 
 3862      756D6220 
 3862      2D676764 
 3863 0828 69676E2D 		.ascii	"ign-functions=16 -ffunction-sections -fdata-section"
 3863      66756E63 
 3863      74696F6E 
 3863      733D3136 
 3863      202D6666 
 3864 085b 73202D66 		.ascii	"s -fno-common -flto\000"
 3864      6E6F2D63 
 3864      6F6D6D6F 
 3864      6E202D66 
 3864      6C746F00 
 3865              	.LASF44:
 3866 086f 705F6D73 		.ascii	"p_msg\000"
 3866      6700
 3867              	.LASF181:
 3868 0875 50464461 		.ascii	"PFData\000"
 3868      746100
 3869              	.LASF200:
 3870 087c 2E2E2F2E 		.ascii	"../../../os/hal/ports/STM32/LLD/GPIOv2/pal_lld.c\000"
 3870      2E2F2E2E 
 3870      2F6F732F 
 3870      68616C2F 
 3870      706F7274 
 3871              	.LASF187:
 3872 08ad 696F6D6F 		.ascii	"iomode_t\000"
 3872      64655F74 
 3872      00
 3873              	.LASF139:
 3874 08b6 6D5F6372 		.ascii	"m_crit_thd\000"
 3874      69745F74 
ARM GAS  /var/folders/c6/c789hm653lg9vtl73krp73tm0000gn/T//ccHN0jlm.s 			page 99


 3874      686400
 3875              	.LASF154:
 3876 08c1 6D5F6F77 		.ascii	"m_owner\000"
 3876      6E657200 
 3877              	.LASF123:
 3878 08c9 73655F77 		.ascii	"se_wtobjp\000"
 3878      746F626A 
 3878      7000
 3879              	.LASF34:
 3880 08d3 705F6374 		.ascii	"p_ctx\000"
 3880      7800
 3881              	.LASF70:
 3882 08d9 76745F66 		.ascii	"vt_func\000"
 3882      756E6300 
 3883              		.comm	__gnu_lto_v1,1,1
 3884              		.ident	"GCC: (GNU Tools for ARM Embedded Processors) 4.8.4 20140725 (release) [ARM/embedded-4_8-br
ARM GAS  /var/folders/c6/c789hm653lg9vtl73krp73tm0000gn/T//ccHN0jlm.s 			page 100


DEFINED SYMBOLS
                            *ABS*:0000000000000000 pal_lld.c
/var/folders/c6/c789hm653lg9vtl73krp73tm0000gn/T//ccHN0jlm.s:398    .text._pal_lld_init:0000000000000000 $t
/var/folders/c6/c789hm653lg9vtl73krp73tm0000gn/T//ccHN0jlm.s:404    .text._pal_lld_init:0000000000000000 _pal_lld_init
/var/folders/c6/c789hm653lg9vtl73krp73tm0000gn/T//ccHN0jlm.s:718    .text._pal_lld_init:0000000000000198 $d
/var/folders/c6/c789hm653lg9vtl73krp73tm0000gn/T//ccHN0jlm.s:732    .text._pal_lld_setgroupmode:0000000000000000 $t
/var/folders/c6/c789hm653lg9vtl73krp73tm0000gn/T//ccHN0jlm.s:738    .text._pal_lld_setgroupmode:0000000000000000 _pal_lld_setgroupmode
                            *COM*:0000000000000001 __gnu_lto_v1
                     .debug_frame:0000000000000010 $d

NO UNDEFINED SYMBOLS
