ARM GAS  /var/folders/c6/c789hm653lg9vtl73krp73tm0000gn/T//ccdGzO1q.s 			page 1


   1              		.syntax unified
   2              		.cpu cortex-m4
   3              		.fpu softvfp
   4              		.eabi_attribute 20, 1
   5              		.eabi_attribute 21, 1
   6              		.eabi_attribute 23, 3
   7              		.eabi_attribute 24, 1
   8              		.eabi_attribute 25, 1
   9              		.eabi_attribute 26, 1
  10              		.eabi_attribute 30, 2
  11              		.eabi_attribute 34, 1
  12              		.eabi_attribute 18, 4
  13              		.thumb
  14              		.file	"st.c"
  15              		.text
  16              	.Ltext0:
  17              		.section	.gnu.lto_.jmpfuncs.d24aeb632668eadb,"",%progbits
  18 0000 789C6362 		.ascii	"x\234cb`b\300\006\334\2404+\0203222U3\374j\230\321 "
  18      6062C006 
  18      DCA0342B 
  18      10333232 
  18      325533FC 
  19 0018 90C9C890 		.ascii	"\220\311\310\220\313\010\226`f`A\026f\314e\004\213\263"
  19      CB089660 
  19      66604116 
  19      66CC6504 
  19      8BB3
  20 002a 31A00A42 		.ascii	"1\240\012BL\007\000\304\011\014M"
  20      4C0700C4 
  20      090C4D
  21              		.text
  22              		.section	.gnu.lto_.inline.d24aeb632668eadb,"",%progbits
  23 0000 789C6362 		.ascii	"x\234cb`b\300\006\312\2414+\003\003\013\017#X\021\333"
  23      6062C006 
  23      CAA1342B 
  23      03030B0F 
  23      235811DB 
  24 0014 0279B05A 		.ascii	"\002y\260ZF.\020\301\300\303\013\024\346\333\220\013"
  24      462E10C1 
  24      C0C30B14 
  24      E6DB900B 
  25 0024 1767E206 		.ascii	"\027g\342\006\01133\2600\003%\230.\360\303%X\030\270"
  25      093333B0 
  25      30032598 
  25      2EF0C325 
  25      5818B8
  26 0037 B881425C 		.ascii	"\270\201B\\\023\374\320\324\262\341\222`\000\000%\036"
  26      13FCD0D4 
  26      B2E19260 
  26      0000251E 
  27 0047 08EC     		.ascii	"\010\354"
  28              		.text
  29              		.section	.gnu.lto_.pureconst.d24aeb632668eadb,"",%progbits
  30 0000 789C6362 		.ascii	"x\234cb`b\340f\200\000V\006\011F)f)\026)6)\000\004%"
  30      6062E066 
  30      80005606 
  30      09462966 
ARM GAS  /var/folders/c6/c789hm653lg9vtl73krp73tm0000gn/T//ccdGzO1q.s 			page 2


  30      29162936 
  31 0018 00A3     		.ascii	"\000\243"
  32              		.text
  33              		.section	.gnu.lto_stInit.d24aeb632668eadb,"",%progbits
  34 0000 789C6362 		.ascii	"x\234cb`b@\007\222@\\\011\304\322@\314\310\314\300\310"
  34      60624007 
  34      92405C09 
  34      C4D240CC 
  34      C8CCC0C8 
  35 0014 34E11C03 		.ascii	"4\341\034\003C#\007\023##\210\301\300\310P\317\304X"
  35      43230713 
  35      232388C1 
  35      C0C850CF 
  35      C458
  36 0026 1FC90856 		.ascii	"\037\311\010V\273\236\351\300\203\377\377\327\375X\373"
  36      BB9EE9C0 
  36      83FFFFD7 
  36      FD58FB
  37 0035 B01EA894 		.ascii	"\260\036\250\224\201\201\225\241\245\241a\202\002\003"
  37      818195A1 
  37      A5A16182 
  37      0203
  38 0043 4332583E 		.ascii	"C2X>\004H\2024\20522\201h\346\363\014\315\017\376\331"
  38      04488234 
  38      85323281 
  38      68E6F30C 
  38      CD0FFED9 
  39 0057 24322E64 		.ascii	"$2.dd\005\312V3\374j\350h\020\310d\004\252\206\030\227"
  39      6405CA56 
  39      33FC6AE8 
  39      6810C864 
  39      04AA8618 
  40 006c 09A22F32 		.ascii	"\011\242/24>\370\317\004S\004\001!@\011\240\001 \307"
  40      343EF8CF 
  40      04530401 
  40      214009A0 
  40      0120C7
  41 007f 4AEAE9E9 		.ascii	"J\352\351\351CP~\261~Fb\216~qQ\262~q\211^2\003\000\204"
  41      43507EB1 
  41      7E46628E 
  41      7E7151B2 
  41      7E71895E 
  42 0097 3C2939   		.ascii	"<)9"
  43              		.text
  44              		.section	.gnu.lto_stStartAlarm.d24aeb632668eadb,"",%progbits
  45 0000 789C9D51 		.ascii	"x\234\235QAh\023A\024\375ov\326\254\265\240\307\366"
  45      41681341 
  45      14FD6F76 
  45      D6ACB5A0 
  45      C7F6
  46 0012 524AAF6A 		.ascii	"RJ\257j\206\326\273^\274\010)\024LAO\262\256\222.$T"
  46      86D6BB5E 
  46      BC082914 
  46      4C414FB2 
  46      AE922E24 
  47 0027 9AE0C543 		.ascii	"\232\340\305Cg\333P<\206\342Aj.\255\202\022\213\236"
  47      67DB503C 
ARM GAS  /var/folders/c6/c789hm653lg9vtl73krp73tm0000gn/T//ccdGzO1q.s 			page 3


  47      86E2416A 
  47      2EAD8212 
  47      8B9E
  48 0039 94905E62 		.ascii	"\224\220^bQPB]\012\342\301SE\304\213\207^\025!\376\231"
  48      5150425D 
  48      0AE2C153 
  48      45C48B87 
  48      5E1521FE 
  49 004e 49ACA987 		.ascii	"I\254\251\207\202\237\335\3713\357\377\377\376\314\373"
  49      829FDDF9 
  49      33EFFFFF 
  49      FECCFB
  50 005d 82041DB6 		.ascii	"\202\004\035\266)\376\3370<\303\036>A\324\336\023%\201"
  50      29FEDF30 
  50      3CC31E3E 
  50      41D4DE13 
  50      2581
  51 006f 105E6B8C 		.ascii	"\020^k\214\364\220\374\250H\017{\220\016\226\200\331"
  51      F490FCA8 
  51      480F7B90 
  51      0E9680D9 
  52 007f 10685178 		.ascii	"\020hQx\022\213Wa8P\002=\027\355\275n\367Yk\345\361"
  52      128B5761 
  52      3850023D 
  52      17EDBD6E 
  52      F7596BE5 
  53 0094 26D6C4B0 		.ascii	"&\326\304\260\317\0302\024\203\002\263\260\371T\325"
  53      CF183214 
  53      8302B3B0 
  53      F954D5
  54 00a3 BA365E32 		.ascii	"\2726^2\207\310\"y^\015\333,\204\361\336\016m\177\252"
  54      87C82279 
  54      5E0DDB2C 
  54      84F1DE0E 
  54      6D7FAA
  55 00b6 A7AFBF64 		.ascii	"\247\257\277dz\251\375\232v'\235$\012\261\316\367\213"
  55      7AA9FD9A 
  55      76279D24 
  55      0AB1CEF7 
  55      8B
  56 00c7 604B0BC8 		.ascii	"`K\013\310\234\246\206\256&{?\036\325\317\307\300\003"
  56      9CA686AE 
  56      267B3F1E 
  56      D5CFC7C0 
  56      03
  57 00d8 5A4B6AFA 		.ascii	"ZKj\372T\014q\0051<\315&\311n\355+\257\233\252\020\017"
  57      540C7105 
  57      313CCD26 
  57      C96EED2B 
  57      AF9BAA10 
  58 00ed 99816D87 		.ascii	"\231\201m\207\226\267\226_\212\020\033|. `6\223j\325"
  58      96B7965F 
  58      8A101B7C 
  58      2E206036 
  58      936AD5
  59 0100 794BD5EF 		.ascii	"yK\325\357\237\277~\033q\3558h#\177\333,s\266\306\274"
  59      9FBF7E1B 
ARM GAS  /var/folders/c6/c789hm653lg9vtl73krp73tm0000gn/T//ccdGzO1q.s 			page 4


  59      71ED3868 
  59      237FDB2C 
  59      73B6C6BC 
  60 0114 94A4CB21 		.ascii	"\224\244\313!\272C?\365]\323\\Fp\012\033d$\206\317\257"
  60      BA433FF5 
  60      5DD35C46 
  60      700A1B64 
  60      2486CFAF 
  61 0128 ED25C538 		.ascii	"\355%\3058\326/\227\366\265\357h) \232\240u\255W\333"
  61      D62F97F6 
  61      B5EF6829 
  61      209AA075 
  61      AD57DB
  62 013b 5B2B1DE8 		.ascii	"[+\035\350U\235\354w\273'cd\004\345`D2\275\203q\353"
  62      559DEC77 
  62      BB276364 
  62      04E56044 
  62      32BD8371 
  63 0150 8ECBC1B9 		.ascii	"\216\313\301\271\025\014)+\326\251\247\351\322\277\212"
  63      150C292B 
  63      D6A9A7E9 
  63      D2BF8A
  64 015f 7DD8F543 		.ascii	"}\330\365C<\301\004\035\010g\2258K\233V\265_\367\316"
  64      3CC1041D 
  64      08679538 
  64      4B9B56B5 
  64      5FF7CE
  65 0172 B06A4E43 		.ascii	"\260jNC}!\306\320\221\002\3020=5]\015z\302\335\242\207"
  65      7D21C6D0 
  65      9102C230 
  65      3D355D0D 
  65      7AC2DDA2 
  66 0187 F42FD3BC 		.ascii	"\364/\323\274\337x\345\205h\360\361\200\372\350\331"
  66      DF78E585 
  66      68F0F180 
  66      FAE8D9
  67 0196 88016AB8 		.ascii	"\210\001j\270\021m7\233\377EF\203df\036\273\224\354"
  67      116D379B 
  67      FF454683 
  67      64661EBB 
  67      94EC
  68 01a8 6FBCF833 		.ascii	"o\274\3703.gyn\304s0\361\321lV\271o\276\254\346\302"
  68      2E67796E 
  68      C47330F1 
  68      D16C56B9 
  68      6FBEACE6 
  69 01bd A22A2F44 		.ascii	"\242*/D\252\\\311F\244\016Gn\315/T\312\352r~\372\334"
  69      AA5CC946 
  69      A40E476E 
  69      CD2F54CA 
  69      EA727EFA 
  70 01d2 94CAE52E 		.ascii	"\224\312\345.\252\374\245\351\333\223\234{\255X\274"
  70      AAFCA5E9 
  70      DB939C7B 
  70      AD58BC
  71 01e1 919D2359 		.ascii	"\221\235#Y\211K7\177\003\203z\306\027"
  71      894B377F 
ARM GAS  /var/folders/c6/c789hm653lg9vtl73krp73tm0000gn/T//ccdGzO1q.s 			page 5


  71      03837AC6 
  71      17
  72              		.text
  73              		.section	.gnu.lto_stStopAlarm.d24aeb632668eadb,"",%progbits
  74 0000 789C6362 		.ascii	"x\234cb`b@\007\222@|\024\210\275\201\230\221\231\201"
  74      60624007 
  74      92407C14 
  74      88BD8198 
  74      919981
  75 0013 9169C239 		.ascii	"\221i\3029\006\206F\016&FF\020\203\201\221\241\236\211"
  75      0686460E 
  75      26464610 
  75      838191A1 
  75      9E89
  76 0025 B13E9211 		.ascii	"\261>\222\021\254v=\323\201\007\377\377\257\373\326"
  76      AC763DD3 
  76      8107FFFF 
  76      AFFBD6
  77 0034 36E70DE3 		.ascii	"6\347\015\343l&\026\240\010+CKC\303\004\005\006\206"
  77      6C2616A0 
  77      082B434B 
  77      43C30405 
  77      0686
  78 0046 64B08A10 		.ascii	"d\260\212\020 \011\322\026\312\310\004\242\231\3172"
  78      2009D216 
  78      CAC804A2 
  78      99CF32
  79 0055 1CDA31E7 		.ascii	"\034\3321\347\374\335G\254pu\020\306\201\323\367\016"
  79      FCDD47AC 
  79      707510C6 
  79      81D3F70E 
  80 0065 B2323024 		.ascii	"\26220$2.dd\005j\005\353\325fX\325\320\322\370\340\347"
  80      322E6464 
  80      056A05EB 
  80      D56658D5 
  80      D0D2F8E0 
  81 007a 9BA9F299 		.ascii	"\233\251\362\231\214\014\263\031f5Nh\020\310dd\214`"
  81      8C0CB319 
  81      66354E68 
  81      10C86464 
  81      8C60
  82 008c CC64646A 		.ascii	"\314ddj\000\002\026\0060\023\354\222$\220\226D\306\305"
  82      00021606 
  82      3013EC92 
  82      24909644 
  82      C6C5
  83 009e 40ED6051 		.ascii	"@\355`Q\260\340E\206\306\017\217\266\263@L\205\201\020"
  83      B0E04586 
  83      C60F8FB6 
  83      B3404C85 
  83      8110
  84 00b0 A0E940A7 		.ascii	"\240\351@\247\200\264I\352\351\351CP~\261~Fb\216~qQ"
  84      80B449EA 
  84      E9E94350 
  84      7EB17E46 
  84      628E7E71 
  85 00c5 B27E7189 		.ascii	"\262~q\211^2\203>\272LA~QI\261~p\210\257\261\221\276"
ARM GAS  /var/folders/c6/c789hm653lg9vtl73krp73tm0000gn/T//ccdGzO1q.s 			page 6


  85      5E32833E 
  85      BA4C417E 
  85      5149B17E 
  85      7088AFB1 
  86 00db 8F8F8B7E 		.ascii	"\217\217\213~\210\247o\231!Pm|NN\212^\006\003\000\204"
  86      88A76F99 
  86      21506D7C 
  86      4E4E8A5E 
  86      06030084 
  87 00ef 934DFB   		.ascii	"\223M\373"
  88              		.text
  89              		.section	.gnu.lto_stSetAlarm.d24aeb632668eadb,"",%progbits
  90 0000 789C8551 		.ascii	"x\234\205Q1hTA\020}\263\177\277\367=\005-\223&\204\264"
  90      31685441 
  90      107DB37F 
  90      BFF73D05 
  90      2D932684 
  91 0015 D15B127B 		.ascii	"\321[\022{ml\204\013\004\274\200V\362\375\312e\341\216"
  91      6D6C840B 
  91      04BC8056 
  91      F2FDCA65 
  91      E18E
  92 0027 48EEB0B1 		.ascii	"H\356\260\261\310\376$\220\224G\212\024z\026IDDEQ\301"
  92      C8FE2490 
  92      94478A14 
  92      7A164944 
  92      444551C1 
  93 003b 22B13824 		.ascii	"\"\2618$\205r\304\303\306\302**\222F%\225\240\3159\263"
  93      8572C4C3 
  93      C6C22A2A 
  93      92462595 
  93      A0CD39B3 
  94 004f FFA22616 		.ascii	"\377\242&\026\016\377\357\354\276\231y\263\363VA\341"
  94      0EFFEFEC 
  94      BE9979B3 
  94      F35641E1 
  95 005f A08DF23F 		.ascii	"\240\215\362?\314\3608{\012A\252\361\006H#\245\202\365"
  95      CCF0387B 
  95      0A41AAF1 
  95      064823A5 
  95      82F5
  96 0071 01B8BC7E 		.ascii	"\001\270\274~g\340\216\006\2443X\023\311\006\204\031"
  96      67E08E06 
  96      A4335813 
  96      C9068419 
  97 0081 15689AB9 		.ascii	"\025h\232\271H\302AU\302c\325\332\356v\037=]\270\373"
  97      48C24155 
  97      C263D5DA 
  97      EE761F3D 
  97      5DB8FB
  98 0094 856EAB7C 		.ascii	"\205n\253|\310\030\345`\011\221,l!\346\235k\014V\345"
  98      C818E560 
  98      09912C6C 
  98      21E69D6B 
  98      0C56E5
  99 00a7 9078A4C4 		.ascii	"\220x\244\304\253\260M\220\022\037l\341\345\373fg\363"
  99      ABB04D90 
ARM GAS  /var/folders/c6/c789hm653lg9vtl73krp73tm0000gn/T//ccdGzO1q.s 			page 7


  99      121F6CE1 
  99      E5FB6667 
  99      F3
 100 00b8 53AE97BA 		.ascii	"S\256\227\272W\323j\177\035\001bZ\341\373%\344K\313"
 100      57D36A7F 
 100      1D01625A 
 100      E1FB25E4 
 100      4BCB
 101 00ca 941BC67D 		.ascii	"\224\033\306}7\237n\377\270\323<m\211n\341f\332p\307"
 101      379F6EFF 
 101      B8D33C6D 
 101      896EE166 
 101      DA70C7
 102 00dd 2DA90B64 		.ascii	"-\251\013d)pl\032~\353\247\274,U1\2551\003\333\026\346"
 102      29706C1A 
 102      7EEBA7BC 
 102      2C5531AD 
 102      3103DB16 
 103 00f2 36E69EAB 		.ascii	"6\346\236\253\230V\371\\\246\210\331$\325\253\363\012"
 103      9856F95C 
 103      A688D924 
 103      D5ABF30A 
 104 0102 9B3B1F3E 		.ascii	"\233;\037>\177\357\313\332q\320G\376\266\011\346\\\037"
 104      7FEFCBDA 
 104      71D047FE 
 104      B609E65C 
 104      1F
 105 0113 083AD059 		.ascii	"\010:\320Y\016p\003?\335\2424\327\011e\012\013\322g"
 105      0E70033F 
 105      DDA234D7 
 105      09650A0B 
 105      D267
 106 0125 29E4697B 		.ascii	")\344i{I\226\016\355\225k?\355k\314F\300\020V\234[j"
 106      49960EED 
 106      956B3FED 
 106      6BCC46C0 
 106      10569C5B 
 107 013a 3D5B6893 		.ascii	"=[h\223[r\351n\267{\314RN\241H\"\222\364\216\006\275"
 107      5B72E96E 
 107      B77BCC52 
 107      4EA14822 
 107      92F48E06 
 108 014f 3BACF7BF 		.ascii	";\254\367\277[YHY\261v\263\2633\373\257b\337\236\204"
 108      5B594859 
 108      B176B3B3 
 108      33FBAF62 
 108      DF9E84
 109 0162 31DDA321 		.ascii	"1\335\243!\374\021\316+q\022\017\275j/\226O\260j\231"
 109      FC11CE2B 
 109      71120FBD 
 109      6A2F964F 
 109      B06A99
 110 0175 86EE8CA5 		.ascii	"\206\356\214\245\374\177\005$az ]\005=\222\335\242\207"
 110      FC7F0524 
 110      617A205D 
 110      053D92DD 
 110      A287
ARM GAS  /var/folders/c6/c789hm653lg9vtl73krp73tm0000gn/T//ccdGzO1q.s 			page 8


 111 0187 F8CBBC45 		.ascii	"\370\313\274E\272\373q\343\267(\231\225\270\216\247"
 111      BAFB71E3 
 111      B7289995 
 111      B88EA7
 112 0196 1555FA0B 		.ascii	"\025U\372\013\005\223}S53\031WLm:1\265z!\2019\030\271"
 112      05937D53 
 112      35331957 
 112      4C6D3A31 
 112      B57A2181 
 113 01ad 36355DAF 		.ascii	"65]\257\231\363\245\261S\243\246X<kJ\347\306\256\217"
 113      99F3A5B1 
 113      53A3A658 
 113      3C6B4AE7 
 113      C6AE8F
 114 01c0 70EEA54A 		.ascii	"p\356\245J\345Ja\022\272n\253W\177\001\0074\242/"
 114      E54A6112 
 114      BA6EAB57 
 114      7F010734 
 114      A22F
 115              		.text
 116              		.section	.gnu.lto_stGetAlarm.d24aeb632668eadb,"",%progbits
 117 0000 789C8590 		.ascii	"x\234\205\220=,CQ\024\307\377\347\276\327\366\021\203"
 117      3D2C4351 
 117      14C7FFE7 
 117      BED7F611 
 117      83
 118 0011 B10C6217 		.ascii	"\261\014b\027\275Q\273\311\"jR\011\223\324\223\360\222"
 118      BD51BBC9 
 118      226A5209 
 118      93D493F0 
 118      92
 119 0022 0A69C562 		.ascii	"\012i\305bp\2336a041Hh\210\217\205\010\233\201\201\210"
 119      709B3661 
 119      30343148 
 119      68888F85 
 119      089B8181 
 120 0037 81080D83 		.ascii	"\201\010\015\203A\014D\304b\020\211\201\304\307\271"
 120      410C44C4 
 120      62108981 
 120      C4C7B9
 121 0046 EFB6215D 		.ascii	"\357\266!]\234\334w\356}\347\343\177\317\357\012\010"
 121      9CDC77EE 
 121      7DE7E37F 
 121      CFEF0A08 
 122 0056 545A94BF 		.ascii	"TZ\224\277{\002:y\247\000H\344/\200\214#\204\265\327"
 122      7B023A79 
 122      A70048E4 
 122      2F808C23 
 122      84B5D7
 123 0069 00556D5F 		.ascii	"\000Um_K\250\032\213l\023\266\211\364\001\204)a\331"
 123      4BA81A8B 
 123      6C13B689 
 123      F4018429 
 123      61D9
 124 007b 34D5475A 		.ascii	"4\325GZ\203F\010;\342\360\356\373{\373uz\351\231\226"
 124      8346083B 
 124      E2F0EEFB 
ARM GAS  /var/folders/c6/c789hm653lg9vtl73krp73tm0000gn/T//ccdGzO1q.s 			page 9


 124      7BFB757A 
 124      E99996
 125 008e 4555101E 		.ascii	"EU\020\036!\244\235\303NW\005\220S*\3378\242\317\256"
 125      21A49DC3 
 125      4E570590 
 125      532ADF38 
 125      A2CFAE
 126 00a1 DF1667AF 		.ascii	"\337\026g\257\325zH\350\335:\307\321M\241x\374\020*"
 126      D57A48E8 
 126      DD3AC7D1 
 126      4DA178FC 
 126      102A
 127 00b3 95967B0E 		.ascii	"\225\226{\016\317>[\200\004\255\360|\256\257\205!\012"
 127      CF3E5B80 
 127      04ADF07C 
 127      AEAF8521 
 127      0A
 128 00c4 366153E5 		.ascii	"6aS\3452w\357\353\2056\217\304\"\0262yU\353\221\325"
 128      3277EFEB 
 128      85368FC4 
 128      22163279 
 128      55EB91D5 
 129 00d8 4B1ED98A 		.ascii	"K\036\331\212\315\206\177\364)\007tW\202\326X\201\355"
 129      CD867FF4 
 129      29077457 
 129      82D65881 
 129      ED
 130 00e9 1CD9FDEC 		.ascii	"\034\331\375\354\256H\320*\377\017Q\210\325t\251\377"
 130      AE48D02A 
 130      FF0F5188 
 130      D574A9FF 
 131 00f9 3A27387E 		.ascii	":'8~\272\177\374\012\233\3538\351g\376Z\017Y\330k\260"
 131      BA7FFC0A 
 131      9BEB38E9 
 131      67FE5A0F 
 131      59D86BB0 
 132 010d 8AB04D0D 		.ascii	"\212\260M\0150\211\0175\243/\017\270d^XG\302\036\005"
 132      30890F35 
 132      A32F0FB8 
 132      645E5847 
 132      C21E05
 133 0120 99B654E4 		.ascii	"\231\266T\344Q\250\334n\227iog\213o\242\022\366\364"
 133      51A8DC6E 
 133      97696F67 
 133      8B6FA212 
 133      F6F4
 134 0132 8B7E612D 		.ascii	"\213~a-\003\3534c\313\207\335\232\257gX\203\256\346"
 134      03EB3463 
 134      CB87DD9A 
 134      AF675883 
 134      AEE6
 135 0144 7832E75F 		.ascii	"x2\347_p_mC\217\240\243Uf\210R\004\270D\346\345\352"
 135      705F6D43 
 135      8FA0A355 
 135      66885204 
 135      B844E6E5 
 136 0159 A0A64CEB 		.ascii	"\240\246L\353\230t\234\273xF\315R\027\211H\263F\323"
ARM GAS  /var/folders/c6/c789hm653lg9vtl73krp73tm0000gn/T//ccdGzO1q.s 			page 10


 136      98749CBB 
 136      7846CD52 
 136      178948B3 
 136      46D3
 137 016b 72389194 		.ascii	"r8\221\224\351\224+\323\343\021\027\262236\232\032O"
 137      E9942BD3 
 137      E31117B2 
 137      3233369A 
 137      1A4F
 138 017d CBEE7857 		.ascii	"\313\356xWkT\306b\3552\336\3215\321\302\265\375\311"
 138      6B54C662 
 138      ED32DED1 
 138      35D1C2B5 
 138      FDC9
 139 018f E4606418 		.ascii	"\344`d\030?gD\221\005"
 139      3F674491 
 139      05
 140              		.text
 141              		.section	.gnu.lto_.symbol_nodes.d24aeb632668eadb,"",%progbits
 142 0000 789C4D8A 		.ascii	"x\234M\212\333\011\302P\024\004\367\314\271\011\332"
 142      DB09C250 
 142      1404F7CC 
 142      B909DA
 143 000f 8FFD6DC0 		.ascii	"\217\375m\300W\342\003\374\027\254\302:\254A\260\017"
 143      57E203FC 
 143      17ACC23A 
 143      AC41B00F 
 144 001f F1113177 		.ascii	"\361\0211w\177\206\035\006\241\263~c\205\245\323M\262"
 144      7F861D06 
 144      A1B37E63 
 144      85A5D34D 
 144      B2
 145 0030 2F7DB0C6 		.ascii	"/}\260\3061\335f\217\212\223\015\246\212\2668\253\350"
 145      31DD668F 
 145      8A930DA6 
 145      8AB638AB 
 145      E8
 146 0041 407CA21E 		.ascii	"@|\242\036\227\312\036\341mc\300\315h\273.b\207\333"
 146      97CA1EE1 
 146      6D63C0CD 
 146      68BB2E62 
 146      87DB
 147 0053 FF4BCDB4 		.ascii	"\377K\315\264\274?#c\256\307u\221eD\373\205^0\305*\217"
 147      BC3F2363 
 147      AEC77591 
 147      6544FB85 
 147      5E30C52A 
 148              		.text
 149              		.section	.gnu.lto_.refs.d24aeb632668eadb,"",%progbits
 150 0000 789C6362 		.ascii	"x\234cb`b\340e\200\000FF&&F\026&VF6&v\006\000\002S\000"
 150      6062E065 
 150      80004646 
 150      26264616 
 150      26564636 
 151 001b 34       		.ascii	"4"
 152              		.text
 153              		.section	.gnu.lto_.decls.d24aeb632668eadb,"",%progbits
ARM GAS  /var/folders/c6/c789hm653lg9vtl73krp73tm0000gn/T//ccdGzO1q.s 			page 11


 154 0000 789CB558 		.ascii	"x\234\265X{l\024E\030\237\331\275\226\353\003\344!\244"
 154      7B6C1445 
 154      189FD9BD 
 154      96EB03E4 
 154      21A4
 155 0012 24C61603 		.ascii	"$\306\026\003\206\220\320k\013F\374\007\201\203P\022"
 155      8690D06B 
 155      0B46FC07 
 155      81835012 
 156 0022 AAE45A92 		.ascii	"\252\344Z\222&\232\234\303\365\240\227\\[\354mI\370"
 156      269A9CC3 
 156      F5A0975C 
 156      5BEC6D49 
 156      F8
 157 0033 CB69CB2B 		.ascii	"\313i\313+ r<-\244\300\361\322\2267E\010 \302YS\236"
 157      20723C2D 
 157      A4C0F1D2 
 157      96374508 
 157      20C25953 
 158 0048 412B0F79 		.ascii	"A+\017y%p\021\025\025\011\025\"h\020\327\231\331\331"
 158      25701115 
 158      15091522 
 158      6810D799 
 158      D9D9
 159 005a BBD9ED6E 		.ascii	"\273\331\355n{Gt\323\371:7\373\315\357\373}\337~;3\337"
 159      7B4774D3 
 159      F93A37FB 
 159      CDEFFB7D 
 159      DF7E3B33 
 160 006f 4A40020E 		.ascii	"J@\002\016\011\000\225\\\253\007\0030H\006 \035\000"
 160      0900955C 
 160      AB070330 
 160      4806201D 
 160      00
 161 0080 309E3432 		.ascii	"0\23642\014\266\220\326\012\264\253\017i{Hk#\255\235"
 161      0CB690D6 
 161      0AB4AB0F 
 161      697B486B 
 161      23AD9D
 162 0093 B40ED2CE 		.ascii	"\264\016\322\316\222v\201\264oH#S\301e\322\256\221v"
 162      927681B4 
 162      6F482353 
 162      C165D2AE 
 162      9176
 163 00a5 1318AF3D 		.ascii	"\023\030\257=\034\357\026i{\371\230\304\307/\200\356"
 163      1CEF1669 
 163      7BF998C4 
 163      C72F80EE 
 164 00b5 17B591CD 		.ascii	"\027\265\221\315m\336&-F\332 \010\300\213P\343\324I"
 164      6DDE262D 
 164      46DA2008 
 164      C08B50E3 
 164      D449
 165 00c7 DA21D2FA 		.ascii	"\332!\322\372q=@\306\035\234\303=\322T\322\356\003m"
 165      713D40C6 
 165      1D9CC33D 
 165      D254D2EE 
ARM GAS  /var/folders/c6/c789hm653lg9vtl73krp73tm0000gn/T//ccdGzO1q.s 			page 12


 165      036D
 166 00d9 8C620D86 		.ascii	"\214b\015\206\032\307\227\240f\227\362<i\262\331\316"
 166      1AC797A0 
 166      6697F23C 
 166      69B2D9CE 
 167 00e9 E78BF620 		.ascii	"\347\213\366 \307\223\370\375a\260;\327\216\036\270"
 167      C793F8FD 
 167      61B03BD7 
 167      8E1EB8
 168 00f8 B6F6C055 		.ascii	"\266\366\300U\022\270:8\216\316s8\347Icy\332d\217\306"
 168      12B83A38 
 168      8ECE7338 
 168      E7496379 
 168      DA648FC6 
 169 010c 3C93DB3B 		.ascii	"<\223\333;\324\203M;;g\005;#\271\217\346\347\225\005"
 169      D4834D3B 
 169      3B67053B 
 169      23B98FE6 
 169      E79505
 170 011f 9662DC80 		.ascii	"\226b\334\200#\213p\361\231~\003@\030\223+\257\251_"
 170      238B70F1 
 170      997E0340 
 170      18932BAF 
 170      A95F
 171 0131 06584287 		.ascii	"\006XB\207c;\2429M\304\235r\210 \031s\262Nv\006C\032"
 171      633BA239 
 171      4DC49D72 
 171      88201973 
 171      B24E7606 
 172 0147 01B6135D 		.ascii	"\001\266\023]2A\212+\343\234\034k]\004\267\303\021D"
 172      32418A2B 
 172      E39C1C6B 
 172      5D04B7C3 
 172      1144
 173 0159 EE8019CC 		.ascii	"\356\200\031\314*\275\245\365\365\236\312\342 YD\035"
 173      2ABDA5F5 
 173      F59ECAE2 
 173      2059441D 
 174 0169 B0F93DCF 		.ascii	"\260\371=\317\3446+u\233}\231n\302\035M\323Z\013\301"
 174      E4362B75 
 174      9B7D996E 
 174      C21D4DD3 
 174      5A0BC1
 175 017c 4FE100D6 		.ascii	"O\341\000\326c~`\036\013\246\301g\344\3513\034|F\213"
 175      637E601E 
 175      0BA6C167 
 175      E4E9331C 
 175      7C468B
 176 018f C0263B23 		.ascii	"\300&;#\321\3116p\326\265la\266\300\254^\236\003\202"
 176      D1C93670 
 176      D6B56C61 
 176      B6C0AC5E 
 176      9E0382
 177 01a2 DB12C4CB 		.ascii	"\333\022\304\313\365\371Y=\271g\322BpW\312\356\355\266"
 177      F5F9593D 
 177      B967D242 
 177      7057CAEE 
ARM GAS  /var/folders/c6/c789hm653lg9vtl73krp73tm0000gn/T//ccdGzO1q.s 			page 13


 177      EDB6
 178 01b4 712FD3E0 		.ascii	"q/\323\340\336\356\336\334kM\270\227\0136\341H,\266"
 178      DEEEDEDC 
 178      6B4DB897 
 178      0B36E148 
 178      2CB6
 179 01c6 62F37988 		.ascii	"b\363y\210W\341\277UU\006C\300ZN\007C\005\301\361\203"
 179      57E1BF55 
 179      550643C0 
 179      5A4E0743 
 179      05C1F183 
 180 01da 6D71F6C2 		.ascii	"mq\366\302!\2747S\326\340$\372~\216\002\255Z\0026\014"
 180      21BC3753 
 180      D6E024FA 
 180      7E8E02AD 
 180      5A02360C 
 181 01ee B14C9A57 		.ascii	"\261L\232W\301\016j\000\267`\231\301S\200=0\327\230"
 181      C10E6A00 
 181      B76099C1 
 181      53803D30 
 181      D798
 182 0200 57FBA024 		.ascii	"W\373\240$\016P\236\261\256\350\261S\331\341\372\230"
 182      0E509EB1 
 182      AEE8B153 
 182      D9E1FA98 
 183 0210 AAE6264F 		.ascii	"\252\346&O\362 ')\263\327\020\360wB\013\266u\210\330"
 183      F2202729 
 183      B3D710F0 
 183      77420BB6 
 183      7588D8
 184 0223 0B148E9D 		.ascii	"\013\024\216\235\334sI\302\330\211\340!\022O\011\224"
 184      DC7349C2 
 184      D889E021 
 184      124F0994 
 185 0233 4102B61F 		.ascii	"A\002\266\037\216\342\204\222\307y\266\250\343K\330"
 185      8EE28492 
 185      C779B6A8 
 185      E34BD8
 186 0242 40782278 		.ascii	"@x\"x\204!\355\202\317\013u}\331\3617\030\245\317\031"
 186      8421ED82 
 186      CF0B757D 
 186      D9F13718 
 186      A5CF19
 187 0255 D04AC908 		.ascii	"\320J\311\010\204`\237\014c\024\311o]\201\242\365\311"
 187      84609F0C 
 187      6314C96F 
 187      5D81A2F5 
 187      C9
 188 0266 4874E886 		.ascii	"Ht\350\206\363\002\370\237\325\023\231\301\222\243\331"
 188      F302F89F 
 188      D51399C1 
 188      92A3D9
 189 0275 447838D8 		.ascii	"Dx8\330\206\361\252\330\276\273?\313\353q\324\241\207"
 189      86F1AAD8 
 189      BEBB3FCB 
 189      EB71D4A1 
 189      87
ARM GAS  /var/folders/c6/c789hm653lg9vtl73krp73tm0000gn/T//ccdGzO1q.s 			page 14


 190 0286 BA95A9B5 		.ascii	"\272\225\251\265\221\224\260\212\205\246\225\310\243"
 190      9194B08A 
 190      85A695C8 
 190      A3
 191 0293 E578617F 		.ascii	"\345xa\177\030O\2446s\"\235\260L\244\307z\"iY,\201\003"
 191      184FA436 
 191      73229DB0 
 191      4CA4C77A 
 191      2269592C 
 192 02a9 266AD669 		.ascii	"&j\326i\332nF\377\312\022\275\355t\034\375 C\377\302"
 192      DA6E46FF 
 192      CA12BDED 
 192      741CFD20 
 192      43FFC2
 193 02bc D271FCA4 		.ascii	"\322q\374\244\242X\363\006\301(\001B\260\343\271|\356"
 193      A258F306 
 193      C1280142 
 193      B0E3B97C 
 193      EE
 194 02cd 30B33A65 		.ascii	"0\263:e\311\352\321\351\345Cq\244!\252\252o\232_\362"
 194      C9EAD1E9 
 194      E54371A4 
 194      21AAAA6F 
 194      9A5FF2
 195 02e0 43D07ED1 		.ascii	"C\320~\3219g\361\226\237\261\216V\003nk\301\031:Y\004"
 195      3967F196 
 195      9FB18E56 
 195      036E6BC1 
 195      193A5904 
 196 02f4 CFDAB8C3 		.ascii	"\317\332\270\303\361\316[\320\014\307\256~\367\240\036"
 196      F1CE5BD0 
 196      0CC7AE7E 
 196      F7A01E
 197 0303 AE6C8C9C 		.ascii	"\256l\214\234\301]4\207\364\007\324(\233Mj _[\202\234"
 197      C15D3487 
 197      F407D428 
 197      9B4D6A20 
 197      5F5B829C 
 198 0317 D870D5B1 		.ascii	"\330p\325\261\036\267/\300\252\372A\012+Z\247q\2610"
 198      1EB72FC0 
 198      AAFA410A 
 198      2B5AA771 
 198      B130
 199 0329 2CFE8625 		.ascii	",\376\206%\277\333\314\213\2115\325\224\364\373l\210"
 199      BFDBCC8B 
 199      8935D594 
 199      F4FB6C88 
 200 0339 5F32127F 		.ascii	"_2\022\177\005l\301\235\235\261\007w\233\340\222HC\030"
 200      056CC19D 
 200      9DB10777 
 200      9BE09248 
 200      4318
 201 034b FFA3AAC4 		.ascii	"\377\243\252\304\302V\262GH\340\250lz!L[\245\004\332"
 201      C256B247 
 201      48E0A86C 
 201      7A214C5B 
 201      A504DA
ARM GAS  /var/folders/c6/c789hm653lg9vtl73krp73tm0000gn/T//ccdGzO1q.s 			page 15


 202 035e 656D877E 		.ascii	"em\207~\031t\312\033\351\012\261\225m.\032h\364\360"
 202      1974CA1B 
 202      E90AB195 
 202      6D2E1A68 
 202      F4F0
 203 0370 69EC0CD7 		.ascii	"i\354\014\327/\241\301@p'\271\203\340\025s\276\231\266"
 203      2FA1C140 
 203      7027B983 
 203      E01573BE 
 203      99B6
 204 0382 2709DC8A 		.ascii	"'\011\334\212C\376\246A\356\024!\037\333A\236\355\001"
 204      43FEA641 
 204      EE14211F 
 204      DB419EED 
 204      01
 205 0393 F2CF38E4 		.ascii	"\362\3178\344\"\207\000i\0123}\336va\276\225\0103[6"
 205      22870069 
 205      0A337DDE 
 205      7661BE95 
 205      08335B36 
 206 03a7 1B7B5C36 		.ascii	"\033{\\6\021<\312\2167\275/T\003\301J\266g\013H8]\207"
 206      113CCA8E 
 206      37BD2F54 
 206      03C14AB6 
 206      670B4838 
 207 03bd 7A0FC457 		.ascii	"z\017\304W\340\313\337_\253f+p\014\016$\016u8\214\317"
 207      E0CBDF5F 
 207      AB662B70 
 207      0C0E240E 
 207      75388CCF 
 208 03d1 B65718CA 		.ascii	"\266W\030\312\351\016\231\252M\322\216j\321g7\262\261"
 208      E90E99AA 
 208      4DD28E6A 
 208      D16737B2 
 208      B1
 209 03e2 431B0716 		.ascii	"C\033\007\026\251\302\257a \202\0274F\325\033\315\344"
 209      A9C2AF61 
 209      20821734 
 209      46D51BCD 
 209      E4
 210 03f3 2D6E2790 		.ascii	"-n'\220\267\331b\371-\243@\347ZE ~R\000 \316\310\210"
 210      B7D962F9 
 210      2DA340E7 
 210      5A45207E 
 210      520020CE 
 211 0409 17BE991D 		.ascii	"\027\276\231\035F:\330\225\224\301\362\014`\253D\260"
 211      463AD895 
 211      94C1F20C 
 211      60AB44B0 
 212 0419 EBC98039 		.ascii	"\353\311\2009\355\231\255\021\301n\245\014fd\266N\004"
 212      ED99AD11 
 212      C16EA50C 
 212      6664B64E 
 212      04
 213 042a BB930C58 		.ascii	"\273\223\014X\177{fM\"\330O)\203\031\231m\020\301~M"
 213      7F7B664D 
 213      22D84F29 
ARM GAS  /var/folders/c6/c789hm653lg9vtl73krp73tm0000gn/T//ccdGzO1q.s 			page 16


 213      8319996D 
 213      10C17E4D 
 214 043e 062CC79E 		.ascii	"\006,\307\236Y\263\010\326\2252\230\221\331&\021\354"
 214      59B308D6 
 214      95329891 
 214      D92611EC 
 215 044e 71326079 		.ascii	"q2`y\366\314\366\213`OS\00632k\023\301\324d\300F\332"
 215      F6CCF68B 
 215      604F5306 
 215      33326B13 
 215      C1D464C0 
 216 0464 33FB4C04 		.ascii	"3\373L\004kLK\025\314\310\354\260\010\2668\031\260\002"
 216      6B4C4B15 
 216      CCC8ECB0 
 216      08B63819 
 216      B002
 217 0476 3B66F5D1 		.ascii	";f\365\321#\357\204\221^M\320\225\361vb\003\302\320"
 217      23EF8491 
 217      5E4DD095 
 217      F1766203 
 217      C2D0
 218 0488 985AA2DA 		.ascii	"\230Z\242\332\021{5\004\353\245T\253\216\006\311\272"
 218      117B3504 
 218      EBA554AB 
 218      8E06C9BA 
 219 0498 EA486C72 		.ascii	"\352Hlr\242\026q{\231\331m#\013+\277\215A<&\006qE2A"
 219      A216717B 
 219      99D96D23 
 219      0B2BBF8D 
 219      413C2606 
 220 04b0 9C600F76 		.ascii	"\234`\017v\\\004[\223\014X\261}\256\234\020\301\232"
 220      5C045B93 
 220      0C58B17D 
 220      AE9C10C1 
 220      9A
 221 04c1 52063332 		.ascii	"R\00632\353\024\3016&\0036\303\236\331E\021,\2222\230"
 221      EB14C136 
 221      260336C3 
 221      9ED94511 
 221      2C923298 
 222 04d5 C8AC3E7A 		.ascii	"\310\254>z9\221x\221\011\246\314\233`\\m\015jGl\325"
 222      39917891 
 222      09A6CC9B 
 222      605C6D0D 
 222      6A476CD5 
 223 04e9 100CA79C 		.ascii	"\020\014\247\234x+m\022O\374\030\221\320\"n\177bv\333"
 223      782B6D12 
 223      4FFC1891 
 223      D0226E7F 
 223      6276DB
 224 04fc 408277CB 		.ascii	"@\202w\313-bhu\211\0335\202?\260\203\304\217p\030\221"
 224      2D626875 
 224      891B3582 
 224      3FB083C4 
 224      8F701891 
 225 0510 7799FC85 		.ascii	"w\231\374\205\311{L\336g\362\001\223\2773\371\210\311"
 225      C97B4CDE 
ARM GAS  /var/folders/c6/c789hm653lg9vtl73krp73tm0000gn/T//ccdGzO1q.s 			page 17


 225      67F20193 
 225      BF33F988 
 225      C9
 226 0521 3F987CC2 		.ascii	"?\230|\302\344_L>e\362\031\223*\223\013$*\0271\271\204"
 226      E45F4C3E 
 226      65F21993 
 226      2A930B24 
 226      2A1731B9 
 227 0536 C9A54C7E 		.ascii	"\311\245L~\310\344GD\306/\323A)f\363|)\367\325\222\365"
 227      C8E44744 
 227      C62FD341 
 227      2966F37C 
 227      29F7D592 
 228 054b 270CED8C 		.ascii	"'\014\355\214k7k\215d\3702\020\355\"\247q\265\035\256"
 228      6B376B8D 
 228      64F83210 
 228      ED22A771 
 228      B51DAE
 229 055e 6AC4DA69 		.ascii	"j\304\332i<\3424\234\245\235`1\373\300\264\020\327\303"
 229      3CE2349C 
 229      A59D6031 
 229      FBC0B410 
 229      D7C3
 230 0570 F77BFB1A 		.ascii	"\367{\373\032\205\340\307\222\223\226\277i\266\037\223"
 230      85E0C792 
 230      9396BF69 
 230      B61F93
 231 057f A882FE70 		.ascii	"\250\202\376p\264\276\336\203\300\226\363:\251{}r \315"
 231      B4BEDE83 
 231      C096F33A 
 231      A97B7D72 
 231      20CD
 232 0591 A63ED9CB 		.ascii	"\246>\331\313\2529\015\033\301\265R\256%i\216\267A\352"
 232      AA390D1B 
 232      C1B552AE 
 232      25698EB7 
 232      41EA
 233 05a3 565A44BB 		.ascii	"VZD\273\242\307\316i\305\335\346h\177\275\274;c2\307"
 233      A2C7CE69 
 233      C5DDE668 
 233      7FBDBC3B 
 233      6332C7
 234 05b6 CBBB4BFE 		.ascii	"\313\273K\376b\275\244\275\3114\232\245\344\312\273"
 234      62BDA4BD 
 234      C9349AA5 
 234      E4CABB
 235 05c5 EB78464E 		.ascii	"\353xFN\274\272\243\223\014Q\332hI\353\241HK+\231b\326"
 235      BCBAA393 
 235      0C51DA68 
 235      49EBA148 
 235      4B2B9962 
 236 05da 5130D5B4 		.ascii	"Q0\325\264[\314\370[-\3617\234\357\346\366Ck\267O\372"
 236      5BCCF85B 
 236      2DF1379C 
 236      EFE6F643 
 236      6BB74FFA 
 237 05ee E355ED66 		.ascii	"\343U\355f\211\226\004\333\237\307\355\355fZ;,i]:\337"
ARM GAS  /var/folders/c6/c789hm653lg9vtl73krp73tm0000gn/T//ccdGzO1q.s 			page 18


 237      899604DB 
 237      9FC7EDED 
 237      665A3B2C 
 237      695D3ADF 
 238 0602 CC8BDA93 		.ascii	"\314\213\332\223x\030\257V\311.\236\236T}\332bC\214"
 238      7818AF56 
 238      C92E9E9E 
 238      547DDA62 
 238      438C
 239 0614 5B6C355A 		.ascii	"[l5Z\004\016_%\252\035\232\237\357\322\376jB\256J\024"
 239      040E5F25 
 239      AA1D9A9F 
 239      EFD2FE6A 
 239      42AE4A14 
 240 0628 74856A7D 		.ascii	"t\205j}\256\220\222\357\003\351!eZu@I\237\372\326\314"
 240      AE9092EF 
 240      03E92165 
 240      5A754049 
 240      9FFAD6CC 
 241 063c 3C37182E 		.ascii	"<7\030.\352\325*\256@\265/XW\341w\371*C\363C\312\374"
 241      EAD52AAE 
 241      40B52F58 
 241      57E177F9 
 241      2A43F343 
 242 0652 B9FE507E 		.ascii	"\271\376P~%\310\240\375@\225\337\253Lw\325\205j]\301"
 242      25C8A0FD 
 242      4095DFAB 
 242      4C77D585 
 242      6A5DC1
 243 0665 1A1F4174 		.ascii	"\032\037At\373\203AT\353\232\343\363\215F\265U\243\253"
 243      FB834154 
 243      EB9AE3F3 
 243      8D46B555 
 243      A3AB
 244 0677 6BAAFDA3 		.ascii	"k\252\375\243\375hV\300UTP8\266`\\\301k.\343\260\016"
 244      FD6856C0 
 244      55545038 
 244      B6605CC1 
 244      6B2EE3B0 
 245 068c 1D522A02 		.ascii	"\035R*\002\325\012\201u\326\221\377c\212\274\312\273"
 245      D50A8175 
 245      D691FF63 
 245      8ABCCABB 
 246 069c FF016A15 		.ascii	"\377\001j\025\362U\006\252\375.o\205\1776\252\013*^"
 246      F25506AA 
 246      FD2E6F85 
 246      7F36AA0B 
 246      2A5E
 247 06ae 9D7CA6D7 		.ascii	"\235|\246\327\253\333\311\016)\245\012\252U&\022\013"
 247      ABDBC90E 
 247      29A50AAA 
 247      5526120B 
 248 06be 557DD02C 		.ascii	"U}\320,\346T\026\035\254\231\313\3062I\337\257\350\335"
 248      E654161D 
 248      AC99CBC6 
 248      3249DFAF 
 248      E8DD
ARM GAS  /var/folders/c6/c789hm653lg9vtl73krp73tm0000gn/T//ccdGzO1q.s 			page 19


 249 06d0 A9BCEB32 		.ascii	"\251\274\3532\307rnM\255\022r\225\226\225\214)rM\237"
 249      C7726E4D 
 249      AD127295 
 249      96958C29 
 249      724D9F
 250 06e3 3ED95536 		.ascii	">\331U6\255d^!\361\313\033\014V\020\213YZ\317\033 a"
 250      AD645E21 
 250      F1CB1B0C 
 250      56108B59 
 250      5ACF1B20 
 251 06f8 CEED29BE 		.ascii	"\316\355)\2764\264\276\312\322\371\241b\024T\234^\357"
 251      34B4BECA 
 251      D2F9A162 
 251      14549C5E 
 251      EF
 252 0709 ECBA6A9F 		.ascii	"\354\272j\237\327\333W\357\344\277>\256`L_\2213\020"
 252      D7DB57EF 
 252      E4BF3EAE 
 252      604C5F91 
 252      3310
 253 071b EF151664 		.ascii	"\357\025\026d%\350\032\357\214\315J\260\007E\311\322"
 253      25E81AEF 
 253      8CCD4AB0 
 253      0745C9D2 
 254 072b AFA2310A 		.ascii	"\257\2421\012Ti\036\360\037^Ev{\012I+r\224\226\270="
 254      54691EF0 
 254      1F5E4576 
 254      7B0A492B 
 254      729496B8 
 255 0740 8EC9D3A6 		.ascii	"\216\311\323\246x\244R\217<e\252'\315\355.\361\0242"
 255      78A4528F 
 255      3C65AA27 
 255      CDED2EF1 
 255      1432
 256 0752 59E470BB 		.ascii	"Y\344p\273\247xd\367[e\362\214R\267<\321\343\221=n\362"
 256      A77864F7 
 256      5B65F28C 
 256      52B73CD1 
 256      E3913D6E 
 257 0767 9B4C9834 		.ascii	"\233L\2304\271\314#O\2463K&z\244\267\265Yc\210~\271"
 257      B9CC234F 
 257      A6334B26 
 257      7AA4B7B5 
 257      5963887E 
 258 077c 27CD3BA9 		.ascii	"'\315;\251\246&8D\217V\310\213(_/\362)\201y\376\201"
 258      A6263844 
 258      8F56C88B 
 258      285F2FF2 
 258      298179FE 
 259 0791 7C38449D 		.ascii	"|8D\235\327\3568\350\343\032\020\037\257\231\253\015"
 259      D7EE38E8 
 259      E31A101F 
 259      AF99AB0D 
 260 07a1 F7D747FC 		.ascii	"\367\327G\374\212q`\216>\360/\010\264'0"
 260      8A71608E 
 260      3EF02F08 
 260      B42730
ARM GAS  /var/folders/c6/c789hm653lg9vtl73krp73tm0000gn/T//ccdGzO1q.s 			page 20


 261              		.text
 262              		.section	.gnu.lto_.symtab.d24aeb632668eadb,"",%progbits
 263 0000 7374496E 		.ascii	"stInit\000\000\000\000\000\000\000\000\000\000\000\000"
 263      69740000 
 263      00000000 
 263      00000000 
 263      0000
 264 0012 AD000000 		.ascii	"\255\000\000\000stStartAlarm\000\000\000\000\000\000"
 264      73745374 
 264      61727441 
 264      6C61726D 
 264      00000000 
 265 0028 00000000 		.ascii	"\000\000\000\000\000\000\262\000\000\000stStopAlarm"
 265      0000B200 
 265      00007374 
 265      53746F70 
 265      416C6172 
 266 003d 00000000 		.ascii	"\000\000\000\000\000\000\000\000\000\000\000\000\302"
 266      00000000 
 266      00000000 
 266      C2
 267 004a 00000073 		.ascii	"\000\000\000stSetAlarm\000\000\000\000\000\000\000\000"
 267      74536574 
 267      416C6172 
 267      6D000000 
 267      00000000 
 268 005f 00000000 		.ascii	"\000\000\000\000\305\000\000\000stGetAlarm\000\000\000"
 268      C5000000 
 268      73744765 
 268      74416C61 
 268      726D0000 
 269 0074 00000000 		.ascii	"\000\000\000\000\000\000\000\000\000\311\000\000\000"
 269      00000000 
 269      00C90000 
 269      00
 270 0081 73745F6C 		.ascii	"st_lld_init\000\000\002\000\000\000\000\000\000\000"
 270      6C645F69 
 270      6E697400 
 270      00020000 
 270      00000000 
 271 0096 0000CD00 		.ascii	"\000\000\315\000\000\000chSysHalt\000\000\002\000\000"
 271      00006368 
 271      53797348 
 271      616C7400 
 271      00020000 
 272 00aa 00000000 		.ascii	"\000\000\000\000\000\000\000\317\000\000\000"
 272      000000CF 
 272      000000
 273              		.text
 274              		.section	.gnu.lto_.opts,"",%progbits
 275 0000 272D6D63 		.ascii	"'-mcpu=cortex-m4' '-mno-thumb-interwork' '-mthumb' "
 275      70753D63 
 275      6F727465 
 275      782D6D34 
 275      2720272D 
 276 0033 272D6767 		.ascii	"'-ggdb' '-O2' '-fomit-frame-pointer' '-falign-funct"
 276      64622720 
ARM GAS  /var/folders/c6/c789hm653lg9vtl73krp73tm0000gn/T//ccdGzO1q.s 			page 21


 276      272D4F32 
 276      2720272D 
 276      666F6D69 
 277 0066 696F6E73 		.ascii	"ions=16' '-ffunction-sections' '-fdata-sections' '-"
 277      3D313627 
 277      20272D66 
 277      66756E63 
 277      74696F6E 
 278 0099 666E6F2D 		.ascii	"fno-common' '-flto'\000"
 278      636F6D6D 
 278      6F6E2720 
 278      272D666C 
 278      746F2700 
 279              		.text
 280              		.cfi_sections	.debug_frame
 281              		.section	.text.stInit,"ax",%progbits
 282              		.align	2
 283              		.p2align 4,,15
 284              		.global	stInit
 285              		.thumb
 286              		.thumb_func
 287              		.type	stInit, %function
 288              	stInit:
 289              	.LFB260:
 290              		.file 1 "../../../os/hal/src/st.c"
 291              		.loc 1 60 0
 292              		.cfi_startproc
 293              		@ args = 0, pretend = 0, frame = 0
 294              		@ frame_needed = 0, uses_anonymous_args = 0
 295              		@ link register save eliminated.
 296              		.loc 1 62 0
 297 0000 FFF7FEBF 		b	st_lld_init
 298              	.LVL0:
 299              		.cfi_endproc
 300              	.LFE260:
 301              		.size	stInit, .-stInit
 302 0004 AFF30080 		.section	.text.stStartAlarm,"ax",%progbits
 302      AFF30080 
 302      AFF30080 
 303              		.align	2
 304              		.p2align 4,,15
 305              		.global	stStartAlarm
 306              		.thumb
 307              		.thumb_func
 308              		.type	stStartAlarm, %function
 309              	stStartAlarm:
 310              	.LFB261:
 311              		.loc 1 77 0
 312              		.cfi_startproc
 313              		@ args = 0, pretend = 0, frame = 0
 314              		@ frame_needed = 0, uses_anonymous_args = 0
 315              	.LVL1:
 316              	.LBB16:
 317              	.LBB17:
 318              		.file 2 "../../../os/hal/ports/STM32/LLD/TIMv1/st_lld.h"
 319              		.loc 2 193 0
 320 0000 4FF08043 		mov	r3, #1073741824
ARM GAS  /var/folders/c6/c789hm653lg9vtl73krp73tm0000gn/T//ccdGzO1q.s 			page 22


 321              	.LBE17:
 322              	.LBE16:
 323              		.loc 1 77 0
 324 0004 10B5     		push	{r4, lr}
 325              		.cfi_def_cfa_offset 8
 326              		.cfi_offset 4, -8
 327              		.cfi_offset 14, -4
 328              	.LBB19:
 329              	.LBB18:
 330              		.loc 2 193 0
 331 0006 DB68     		ldr	r3, [r3, #12]
 332              	.LBE18:
 333              	.LBE19:
 334              		.loc 1 79 0
 335 0008 9B07     		lsls	r3, r3, #30
 336              		.loc 1 77 0
 337 000a 0446     		mov	r4, r0
 338              		.loc 1 79 0
 339 000c 02D5     		bpl	.L3
 340              		.loc 1 79 0 is_stmt 0 discriminator 1
 341 000e 0548     		ldr	r0, .L8
 342              	.LVL2:
 343 0010 FFF7FEFF 		bl	chSysHalt
 344              	.LVL3:
 345              	.L3:
 346              	.LBB20:
 347              	.LBB21:
 348              		.loc 2 143 0 is_stmt 1
 349 0014 4FF08043 		mov	r3, #1073741824
 350              		.loc 2 144 0
 351 0018 0021     		movs	r1, #0
 352              		.loc 2 145 0
 353 001a 0222     		movs	r2, #2
 354              		.loc 2 143 0
 355 001c 5C63     		str	r4, [r3, #52]
 356              		.loc 2 144 0
 357 001e 1961     		str	r1, [r3, #16]
 358              		.loc 2 145 0
 359 0020 DA60     		str	r2, [r3, #12]
 360 0022 10BD     		pop	{r4, pc}
 361              	.LVL4:
 362              	.L9:
 363              		.align	2
 364              	.L8:
 365 0024 00000000 		.word	.LANCHOR0
 366              	.LBE21:
 367              	.LBE20:
 368              		.cfi_endproc
 369              	.LFE261:
 370              		.size	stStartAlarm, .-stStartAlarm
 371 0028 AFF30080 		.section	.text.stStopAlarm,"ax",%progbits
 371      AFF30080 
 372              		.align	2
 373              		.p2align 4,,15
 374              		.global	stStopAlarm
 375              		.thumb
 376              		.thumb_func
ARM GAS  /var/folders/c6/c789hm653lg9vtl73krp73tm0000gn/T//ccdGzO1q.s 			page 23


 377              		.type	stStopAlarm, %function
 378              	stStopAlarm:
 379              	.LFB262:
 380              		.loc 1 91 0
 381              		.cfi_startproc
 382              		@ args = 0, pretend = 0, frame = 0
 383              		@ frame_needed = 0, uses_anonymous_args = 0
 384              		@ link register save eliminated.
 385              	.LBB22:
 386              	.LBB23:
 387              		.loc 2 155 0
 388 0000 4FF08043 		mov	r3, #1073741824
 389 0004 0022     		movs	r2, #0
 390 0006 DA60     		str	r2, [r3, #12]
 391 0008 7047     		bx	lr
 392              	.LBE23:
 393              	.LBE22:
 394              		.cfi_endproc
 395              	.LFE262:
 396              		.size	stStopAlarm, .-stStopAlarm
 397              		.section	.text.stSetAlarm,"ax",%progbits
 398              		.align	2
 399              		.p2align 4,,15
 400              		.global	stSetAlarm
 401              		.thumb
 402              		.thumb_func
 403              		.type	stSetAlarm, %function
 404              	stSetAlarm:
 405              	.LFB263:
 406              		.loc 1 105 0
 407              		.cfi_startproc
 408              		@ args = 0, pretend = 0, frame = 0
 409              		@ frame_needed = 0, uses_anonymous_args = 0
 410              	.LVL5:
 411              	.LBB24:
 412              	.LBB25:
 413              		.loc 2 193 0
 414 0000 4FF08043 		mov	r3, #1073741824
 415              	.LBE25:
 416              	.LBE24:
 417              		.loc 1 105 0
 418 0004 10B5     		push	{r4, lr}
 419              		.cfi_def_cfa_offset 8
 420              		.cfi_offset 4, -8
 421              		.cfi_offset 14, -4
 422              	.LBB27:
 423              	.LBB26:
 424              		.loc 2 193 0
 425 0006 DB68     		ldr	r3, [r3, #12]
 426              	.LBE26:
 427              	.LBE27:
 428              		.loc 1 107 0
 429 0008 9B07     		lsls	r3, r3, #30
 430              		.loc 1 105 0
 431 000a 0446     		mov	r4, r0
 432              		.loc 1 107 0
 433 000c 02D4     		bmi	.L12
ARM GAS  /var/folders/c6/c789hm653lg9vtl73krp73tm0000gn/T//ccdGzO1q.s 			page 24


 434              		.loc 1 107 0 is_stmt 0 discriminator 1
 435 000e 0348     		ldr	r0, .L13
 436              	.LVL6:
 437 0010 FFF7FEFF 		bl	chSysHalt
 438              	.LVL7:
 439              	.L12:
 440              	.LBB28:
 441              	.LBB29:
 442              		.loc 2 167 0 is_stmt 1
 443 0014 4FF08043 		mov	r3, #1073741824
 444 0018 5C63     		str	r4, [r3, #52]
 445 001a 10BD     		pop	{r4, pc}
 446              	.LVL8:
 447              	.L14:
 448              		.align	2
 449              	.L13:
 450 001c 00000000 		.word	.LANCHOR1
 451              	.LBE29:
 452              	.LBE28:
 453              		.cfi_endproc
 454              	.LFE263:
 455              		.size	stSetAlarm, .-stSetAlarm
 456              		.section	.text.stGetAlarm,"ax",%progbits
 457              		.align	2
 458              		.p2align 4,,15
 459              		.global	stGetAlarm
 460              		.thumb
 461              		.thumb_func
 462              		.type	stGetAlarm, %function
 463              	stGetAlarm:
 464              	.LFB264:
 465              		.loc 1 121 0
 466              		.cfi_startproc
 467              		@ args = 0, pretend = 0, frame = 0
 468              		@ frame_needed = 0, uses_anonymous_args = 0
 469 0000 08B5     		push	{r3, lr}
 470              		.cfi_def_cfa_offset 8
 471              		.cfi_offset 3, -8
 472              		.cfi_offset 14, -4
 473              	.LBB30:
 474              	.LBB31:
 475              		.loc 2 193 0
 476 0002 4FF08043 		mov	r3, #1073741824
 477 0006 DB68     		ldr	r3, [r3, #12]
 478              	.LBE31:
 479              	.LBE30:
 480              		.loc 1 123 0
 481 0008 9B07     		lsls	r3, r3, #30
 482 000a 02D4     		bmi	.L16
 483              		.loc 1 123 0 is_stmt 0 discriminator 1
 484 000c 0348     		ldr	r0, .L17
 485 000e FFF7FEFF 		bl	chSysHalt
 486              	.LVL9:
 487              	.L16:
 488              	.LBB32:
 489              	.LBB33:
 490              		.loc 2 179 0 is_stmt 1
ARM GAS  /var/folders/c6/c789hm653lg9vtl73krp73tm0000gn/T//ccdGzO1q.s 			page 25


 491 0012 4FF08043 		mov	r3, #1073741824
 492 0016 586B     		ldr	r0, [r3, #52]
 493              	.LBE33:
 494              	.LBE32:
 495              		.loc 1 126 0
 496 0018 08BD     		pop	{r3, pc}
 497              	.L18:
 498 001a 00BF     		.align	2
 499              	.L17:
 500 001c 00000000 		.word	.LANCHOR2
 501              		.cfi_endproc
 502              	.LFE264:
 503              		.size	stGetAlarm, .-stGetAlarm
 504              		.section	.rodata.__func__.7814,"a",%progbits
 505              		.align	2
 506              		.set	.LANCHOR2,. + 0
 507              		.type	__func__.7814, %object
 508              		.size	__func__.7814, 11
 509              	__func__.7814:
 510 0000 73744765 		.ascii	"stGetAlarm\000"
 510      74416C61 
 510      726D00
 511 000b 00       		.section	.rodata.__func__.7803,"a",%progbits
 512              		.align	2
 513              		.set	.LANCHOR0,. + 0
 514              		.type	__func__.7803, %object
 515              		.size	__func__.7803, 13
 516              	__func__.7803:
 517 0000 73745374 		.ascii	"stStartAlarm\000"
 517      61727441 
 517      6C61726D 
 517      00
 518 000d 000000   		.section	.rodata.__func__.7810,"a",%progbits
 519              		.align	2
 520              		.set	.LANCHOR1,. + 0
 521              		.type	__func__.7810, %object
 522              		.size	__func__.7810, 11
 523              	__func__.7810:
 524 0000 73745365 		.ascii	"stSetAlarm\000"
 524      74416C61 
 524      726D00
 525 000b 00       		.text
 526              	.Letext0:
 527              		.file 3 "/usr/local/Cellar/gcc-arm-none-eabi/20140805/arm-none-eabi/include/machine/_default_types
 528              		.file 4 "/usr/local/Cellar/gcc-arm-none-eabi/20140805/arm-none-eabi/include/stdint.h"
 529              		.file 5 "../../../os/rt/ports/ARMCMx/compilers/GCC/chtypes.h"
 530              		.file 6 "../../../os/rt/include/chsystypes.h"
 531              		.file 7 "../../../os/rt/include/chschd.h"
 532              		.file 8 "../../../os/rt/ports/ARMCMx/chcore.h"
 533              		.file 9 "../../../os/rt/ports/ARMCMx/chcore_v7m.h"
 534              		.file 10 "../../../os/hal/ports/STM32/LLD/TIMv1/stm32_tim.h"
 535              		.file 11 "../../../os/rt/include/chdebug.h"
 536              		.file 12 "../../../os/rt/include/chtm.h"
 537              		.file 13 "../../../os/rt/include/chstats.h"
 538              		.file 14 "../../../os/rt/include/chsem.h"
 539              		.file 15 "../../../os/rt/include/chmtx.h"
 540              		.file 16 "../../../os/ext/CMSIS/include/core_cm4.h"
ARM GAS  /var/folders/c6/c789hm653lg9vtl73krp73tm0000gn/T//ccdGzO1q.s 			page 26


 541              		.file 17 "../../../os/rt/include/chsys.h"
 542              		.section	.debug_info,"",%progbits
 543              	.Ldebug_info0:
 544 0000 280B0000 		.4byte	0xb28
 545 0004 0400     		.2byte	0x4
 546 0006 00000000 		.4byte	.Ldebug_abbrev0
 547 000a 04       		.byte	0x4
 548 000b 01       		.uleb128 0x1
 549 000c 00000000 		.4byte	.LASF153
 550 0010 01       		.byte	0x1
 551 0011 31030000 		.4byte	.LASF154
 552 0015 61030000 		.4byte	.LASF155
 553 0019 30000000 		.4byte	.Ldebug_ranges0+0x30
 554 001d 00000000 		.4byte	0
 555 0021 00000000 		.4byte	.Ldebug_line0
 556 0025 02       		.uleb128 0x2
 557 0026 04       		.byte	0x4
 558 0027 05       		.byte	0x5
 559 0028 696E7400 		.ascii	"int\000"
 560 002c 03       		.uleb128 0x3
 561 002d 04       		.byte	0x4
 562 002e 07       		.byte	0x7
 563 002f 15030000 		.4byte	.LASF0
 564 0033 03       		.uleb128 0x3
 565 0034 01       		.byte	0x1
 566 0035 06       		.byte	0x6
 567 0036 07020000 		.4byte	.LASF1
 568 003a 04       		.uleb128 0x4
 569 003b 1C010000 		.4byte	.LASF5
 570 003f 03       		.byte	0x3
 571 0040 1C       		.byte	0x1c
 572 0041 45000000 		.4byte	0x45
 573 0045 03       		.uleb128 0x3
 574 0046 01       		.byte	0x1
 575 0047 08       		.byte	0x8
 576 0048 6F050000 		.4byte	.LASF2
 577 004c 03       		.uleb128 0x3
 578 004d 02       		.byte	0x2
 579 004e 05       		.byte	0x5
 580 004f 87050000 		.4byte	.LASF3
 581 0053 03       		.uleb128 0x3
 582 0054 02       		.byte	0x2
 583 0055 07       		.byte	0x7
 584 0056 77020000 		.4byte	.LASF4
 585 005a 04       		.uleb128 0x4
 586 005b 38040000 		.4byte	.LASF6
 587 005f 03       		.byte	0x3
 588 0060 37       		.byte	0x37
 589 0061 65000000 		.4byte	0x65
 590 0065 03       		.uleb128 0x3
 591 0066 04       		.byte	0x4
 592 0067 05       		.byte	0x5
 593 0068 34020000 		.4byte	.LASF7
 594 006c 04       		.uleb128 0x4
 595 006d 89060000 		.4byte	.LASF8
 596 0071 03       		.byte	0x3
 597 0072 38       		.byte	0x38
ARM GAS  /var/folders/c6/c789hm653lg9vtl73krp73tm0000gn/T//ccdGzO1q.s 			page 27


 598 0073 77000000 		.4byte	0x77
 599 0077 03       		.uleb128 0x3
 600 0078 04       		.byte	0x4
 601 0079 07       		.byte	0x7
 602 007a 2E060000 		.4byte	.LASF9
 603 007e 03       		.uleb128 0x3
 604 007f 08       		.byte	0x8
 605 0080 05       		.byte	0x5
 606 0081 59020000 		.4byte	.LASF10
 607 0085 04       		.uleb128 0x4
 608 0086 11050000 		.4byte	.LASF11
 609 008a 03       		.byte	0x3
 610 008b 4E       		.byte	0x4e
 611 008c 90000000 		.4byte	0x90
 612 0090 03       		.uleb128 0x3
 613 0091 08       		.byte	0x8
 614 0092 07       		.byte	0x7
 615 0093 6B010000 		.4byte	.LASF12
 616 0097 04       		.uleb128 0x4
 617 0098 AE050000 		.4byte	.LASF13
 618 009c 04       		.byte	0x4
 619 009d 2A       		.byte	0x2a
 620 009e 3A000000 		.4byte	0x3a
 621 00a2 04       		.uleb128 0x4
 622 00a3 67050000 		.4byte	.LASF14
 623 00a7 04       		.byte	0x4
 624 00a8 41       		.byte	0x41
 625 00a9 5A000000 		.4byte	0x5a
 626 00ad 04       		.uleb128 0x4
 627 00ae FD050000 		.4byte	.LASF15
 628 00b2 04       		.byte	0x4
 629 00b3 42       		.byte	0x42
 630 00b4 6C000000 		.4byte	0x6c
 631 00b8 04       		.uleb128 0x4
 632 00b9 06010000 		.4byte	.LASF16
 633 00bd 04       		.byte	0x4
 634 00be 4E       		.byte	0x4e
 635 00bf 85000000 		.4byte	0x85
 636 00c3 05       		.uleb128 0x5
 637 00c4 A2000000 		.4byte	0xa2
 638 00c8 05       		.uleb128 0x5
 639 00c9 AD000000 		.4byte	0xad
 640 00cd 04       		.uleb128 0x4
 641 00ce C0060000 		.4byte	.LASF17
 642 00d2 05       		.byte	0x5
 643 00d3 45       		.byte	0x45
 644 00d4 AD000000 		.4byte	0xad
 645 00d8 04       		.uleb128 0x4
 646 00d9 E5010000 		.4byte	.LASF18
 647 00dd 05       		.byte	0x5
 648 00de 46       		.byte	0x46
 649 00df B8000000 		.4byte	0xb8
 650 00e3 04       		.uleb128 0x4
 651 00e4 3D020000 		.4byte	.LASF19
 652 00e8 05       		.byte	0x5
 653 00e9 48       		.byte	0x48
 654 00ea 97000000 		.4byte	0x97
ARM GAS  /var/folders/c6/c789hm653lg9vtl73krp73tm0000gn/T//ccdGzO1q.s 			page 28


 655 00ee 04       		.uleb128 0x4
 656 00ef 45020000 		.4byte	.LASF20
 657 00f3 05       		.byte	0x5
 658 00f4 49       		.byte	0x49
 659 00f5 97000000 		.4byte	0x97
 660 00f9 04       		.uleb128 0x4
 661 00fa 27050000 		.4byte	.LASF21
 662 00fe 05       		.byte	0x5
 663 00ff 4A       		.byte	0x4a
 664 0100 97000000 		.4byte	0x97
 665 0104 04       		.uleb128 0x4
 666 0105 50050000 		.4byte	.LASF22
 667 0109 05       		.byte	0x5
 668 010a 4C       		.byte	0x4c
 669 010b AD000000 		.4byte	0xad
 670 010f 04       		.uleb128 0x4
 671 0110 DB030000 		.4byte	.LASF23
 672 0114 05       		.byte	0x5
 673 0115 4D       		.byte	0x4d
 674 0116 A2000000 		.4byte	0xa2
 675 011a 04       		.uleb128 0x4
 676 011b 2C040000 		.4byte	.LASF24
 677 011f 05       		.byte	0x5
 678 0120 4F       		.byte	0x4f
 679 0121 AD000000 		.4byte	0xad
 680 0125 04       		.uleb128 0x4
 681 0126 04030000 		.4byte	.LASF25
 682 012a 05       		.byte	0x5
 683 012b 51       		.byte	0x51
 684 012c A2000000 		.4byte	0xa2
 685 0130 04       		.uleb128 0x4
 686 0131 E6030000 		.4byte	.LASF26
 687 0135 05       		.byte	0x5
 688 0136 52       		.byte	0x52
 689 0137 AD000000 		.4byte	0xad
 690 013b 04       		.uleb128 0x4
 691 013c 6B060000 		.4byte	.LASF27
 692 0140 06       		.byte	0x6
 693 0141 33       		.byte	0x33
 694 0142 AD000000 		.4byte	0xad
 695 0146 04       		.uleb128 0x4
 696 0147 56060000 		.4byte	.LASF28
 697 014b 06       		.byte	0x6
 698 014c 3F       		.byte	0x3f
 699 014d 51010000 		.4byte	0x151
 700 0151 06       		.uleb128 0x6
 701 0152 D1030000 		.4byte	.LASF50
 702 0156 60       		.byte	0x60
 703 0157 07       		.byte	0x7
 704 0158 C2       		.byte	0xc2
 705 0159 57020000 		.4byte	0x257
 706 015d 07       		.uleb128 0x7
 707 015e A7050000 		.4byte	.LASF29
 708 0162 07       		.byte	0x7
 709 0163 C3       		.byte	0xc3
 710 0164 62020000 		.4byte	0x262
 711 0168 00       		.byte	0
ARM GAS  /var/folders/c6/c789hm653lg9vtl73krp73tm0000gn/T//ccdGzO1q.s 			page 29


 712 0169 07       		.uleb128 0x7
 713 016a 49050000 		.4byte	.LASF30
 714 016e 07       		.byte	0x7
 715 016f C5       		.byte	0xc5
 716 0170 62020000 		.4byte	0x262
 717 0174 04       		.byte	0x4
 718 0175 07       		.uleb128 0x7
 719 0176 EE010000 		.4byte	.LASF31
 720 017a 07       		.byte	0x7
 721 017b C7       		.byte	0xc7
 722 017c 04010000 		.4byte	0x104
 723 0180 08       		.byte	0x8
 724 0181 07       		.uleb128 0x7
 725 0182 8D070000 		.4byte	.LASF32
 726 0186 07       		.byte	0x7
 727 0187 C8       		.byte	0xc8
 728 0188 EB040000 		.4byte	0x4eb
 729 018c 0C       		.byte	0xc
 730 018d 07       		.uleb128 0x7
 731 018e 67020000 		.4byte	.LASF33
 732 0192 07       		.byte	0x7
 733 0193 CA       		.byte	0xca
 734 0194 62020000 		.4byte	0x262
 735 0198 10       		.byte	0x10
 736 0199 07       		.uleb128 0x7
 737 019a B8040000 		.4byte	.LASF34
 738 019e 07       		.byte	0x7
 739 019f CB       		.byte	0xcb
 740 01a0 62020000 		.4byte	0x262
 741 01a4 14       		.byte	0x14
 742 01a5 07       		.uleb128 0x7
 743 01a6 2C070000 		.4byte	.LASF35
 744 01aa 07       		.byte	0x7
 745 01ab D2       		.byte	0xd2
 746 01ac B1080000 		.4byte	0x8b1
 747 01b0 18       		.byte	0x18
 748 01b1 07       		.uleb128 0x7
 749 01b2 0A030000 		.4byte	.LASF36
 750 01b6 07       		.byte	0x7
 751 01b7 D8       		.byte	0xd8
 752 01b8 C3080000 		.4byte	0x8c3
 753 01bc 1C       		.byte	0x1c
 754 01bd 07       		.uleb128 0x7
 755 01be 91050000 		.4byte	.LASF37
 756 01c2 07       		.byte	0x7
 757 01c3 DD       		.byte	0xdd
 758 01c4 EE000000 		.4byte	0xee
 759 01c8 20       		.byte	0x20
 760 01c9 07       		.uleb128 0x7
 761 01ca 57070000 		.4byte	.LASF38
 762 01ce 07       		.byte	0x7
 763 01cf E1       		.byte	0xe1
 764 01d0 E3000000 		.4byte	0xe3
 765 01d4 21       		.byte	0x21
 766 01d5 07       		.uleb128 0x7
 767 01d6 FA060000 		.4byte	.LASF39
 768 01da 07       		.byte	0x7
ARM GAS  /var/folders/c6/c789hm653lg9vtl73krp73tm0000gn/T//ccdGzO1q.s 			page 30


 769 01db E6       		.byte	0xe6
 770 01dc F9000000 		.4byte	0xf9
 771 01e0 22       		.byte	0x22
 772 01e1 08       		.uleb128 0x8
 773 01e2 705F7500 		.ascii	"p_u\000"
 774 01e6 07       		.byte	0x7
 775 01e7 3101     		.2byte	0x131
 776 01e9 EC070000 		.4byte	0x7ec
 777 01ed 24       		.byte	0x24
 778 01ee 09       		.uleb128 0x9
 779 01ef 60040000 		.4byte	.LASF40
 780 01f3 07       		.byte	0x7
 781 01f4 3601     		.2byte	0x136
 782 01f6 68020000 		.4byte	0x268
 783 01fa 28       		.byte	0x28
 784 01fb 09       		.uleb128 0x9
 785 01fc 4A030000 		.4byte	.LASF41
 786 0200 07       		.byte	0x7
 787 0201 3C01     		.2byte	0x13c
 788 0203 8C020000 		.4byte	0x28c
 789 0207 2C       		.byte	0x2c
 790 0208 09       		.uleb128 0x9
 791 0209 BA060000 		.4byte	.LASF42
 792 020d 07       		.byte	0x7
 793 020e 4001     		.2byte	0x140
 794 0210 0F010000 		.4byte	0x10f
 795 0214 34       		.byte	0x34
 796 0215 09       		.uleb128 0x9
 797 0216 F2050000 		.4byte	.LASF43
 798 021a 07       		.byte	0x7
 799 021b 4601     		.2byte	0x146
 800 021d 1A010000 		.4byte	0x11a
 801 0221 38       		.byte	0x38
 802 0222 09       		.uleb128 0x9
 803 0223 7D050000 		.4byte	.LASF44
 804 0227 07       		.byte	0x7
 805 0228 4D01     		.2byte	0x14d
 806 022a AB080000 		.4byte	0x8ab
 807 022e 3C       		.byte	0x3c
 808 022f 09       		.uleb128 0x9
 809 0230 75060000 		.4byte	.LASF45
 810 0234 07       		.byte	0x7
 811 0235 5101     		.2byte	0x151
 812 0237 04010000 		.4byte	0x104
 813 023b 40       		.byte	0x40
 814 023c 09       		.uleb128 0x9
 815 023d B1020000 		.4byte	.LASF46
 816 0241 07       		.byte	0x7
 817 0242 5801     		.2byte	0x158
 818 0244 3F030000 		.4byte	0x33f
 819 0248 44       		.byte	0x44
 820 0249 09       		.uleb128 0x9
 821 024a B6050000 		.4byte	.LASF47
 822 024e 07       		.byte	0x7
 823 024f 5E01     		.2byte	0x15e
 824 0251 9D070000 		.4byte	0x79d
 825 0255 48       		.byte	0x48
ARM GAS  /var/folders/c6/c789hm653lg9vtl73krp73tm0000gn/T//ccdGzO1q.s 			page 31


 826 0256 00       		.byte	0
 827 0257 04       		.uleb128 0x4
 828 0258 73040000 		.4byte	.LASF48
 829 025c 06       		.byte	0x6
 830 025d 44       		.byte	0x44
 831 025e 62020000 		.4byte	0x262
 832 0262 0A       		.uleb128 0xa
 833 0263 04       		.byte	0x4
 834 0264 46010000 		.4byte	0x146
 835 0268 04       		.uleb128 0x4
 836 0269 33070000 		.4byte	.LASF49
 837 026d 06       		.byte	0x6
 838 026e 49       		.byte	0x49
 839 026f 73020000 		.4byte	0x273
 840 0273 06       		.uleb128 0x6
 841 0274 1E060000 		.4byte	.LASF51
 842 0278 04       		.byte	0x4
 843 0279 07       		.byte	0x7
 844 027a B0       		.byte	0xb0
 845 027b 8C020000 		.4byte	0x28c
 846 027f 07       		.uleb128 0x7
 847 0280 A7050000 		.4byte	.LASF29
 848 0284 07       		.byte	0x7
 849 0285 B1       		.byte	0xb1
 850 0286 62020000 		.4byte	0x262
 851 028a 00       		.byte	0
 852 028b 00       		.byte	0
 853 028c 04       		.uleb128 0x4
 854 028d E1060000 		.4byte	.LASF52
 855 0291 06       		.byte	0x6
 856 0292 50       		.byte	0x50
 857 0293 97020000 		.4byte	0x297
 858 0297 06       		.uleb128 0x6
 859 0298 32010000 		.4byte	.LASF53
 860 029c 08       		.byte	0x8
 861 029d 07       		.byte	0x7
 862 029e B7       		.byte	0xb7
 863 029f BC020000 		.4byte	0x2bc
 864 02a3 07       		.uleb128 0x7
 865 02a4 A7050000 		.4byte	.LASF29
 866 02a8 07       		.byte	0x7
 867 02a9 B8       		.byte	0xb8
 868 02aa 62020000 		.4byte	0x262
 869 02ae 00       		.byte	0
 870 02af 07       		.uleb128 0x7
 871 02b0 49050000 		.4byte	.LASF30
 872 02b4 07       		.byte	0x7
 873 02b5 B9       		.byte	0xb9
 874 02b6 62020000 		.4byte	0x262
 875 02ba 04       		.byte	0x4
 876 02bb 00       		.byte	0
 877 02bc 04       		.uleb128 0x4
 878 02bd E7000000 		.4byte	.LASF54
 879 02c1 06       		.byte	0x6
 880 02c2 57       		.byte	0x57
 881 02c3 C7020000 		.4byte	0x2c7
 882 02c7 0B       		.uleb128 0xb
ARM GAS  /var/folders/c6/c789hm653lg9vtl73krp73tm0000gn/T//ccdGzO1q.s 			page 32


 883 02c8 1E040000 		.4byte	.LASF55
 884 02cc 1C       		.byte	0x1c
 885 02cd 07       		.byte	0x7
 886 02ce 9001     		.2byte	0x190
 887 02d0 23030000 		.4byte	0x323
 888 02d4 09       		.uleb128 0x9
 889 02d5 0D060000 		.4byte	.LASF56
 890 02d9 07       		.byte	0x7
 891 02da 9101     		.2byte	0x191
 892 02dc 8C020000 		.4byte	0x28c
 893 02e0 00       		.byte	0
 894 02e1 09       		.uleb128 0x9
 895 02e2 99050000 		.4byte	.LASF57
 896 02e6 07       		.byte	0x7
 897 02e7 9201     		.2byte	0x192
 898 02e9 04010000 		.4byte	0x104
 899 02ed 08       		.byte	0x8
 900 02ee 09       		.uleb128 0x9
 901 02ef C7040000 		.4byte	.LASF58
 902 02f3 07       		.byte	0x7
 903 02f4 9401     		.2byte	0x194
 904 02f6 EB040000 		.4byte	0x4eb
 905 02fa 0C       		.byte	0xc
 906 02fb 09       		.uleb128 0x9
 907 02fc A9020000 		.4byte	.LASF59
 908 0300 07       		.byte	0x7
 909 0301 9701     		.2byte	0x197
 910 0303 62020000 		.4byte	0x262
 911 0307 10       		.byte	0x10
 912 0308 09       		.uleb128 0x9
 913 0309 09050000 		.4byte	.LASF60
 914 030d 07       		.byte	0x7
 915 030e 9801     		.2byte	0x198
 916 0310 62020000 		.4byte	0x262
 917 0314 14       		.byte	0x14
 918 0315 09       		.uleb128 0x9
 919 0316 FF040000 		.4byte	.LASF61
 920 031a 07       		.byte	0x7
 921 031b 9B01     		.2byte	0x19b
 922 031d 62020000 		.4byte	0x262
 923 0321 18       		.byte	0x18
 924 0322 00       		.byte	0
 925 0323 04       		.uleb128 0x4
 926 0324 80060000 		.4byte	.LASF62
 927 0328 06       		.byte	0x6
 928 0329 5C       		.byte	0x5c
 929 032a 2E030000 		.4byte	0x32e
 930 032e 0A       		.uleb128 0xa
 931 032f 04       		.byte	0x4
 932 0330 34030000 		.4byte	0x334
 933 0334 0C       		.uleb128 0xc
 934 0335 3F030000 		.4byte	0x33f
 935 0339 0D       		.uleb128 0xd
 936 033a 3F030000 		.4byte	0x33f
 937 033e 00       		.byte	0
 938 033f 0E       		.uleb128 0xe
 939 0340 04       		.byte	0x4
ARM GAS  /var/folders/c6/c789hm653lg9vtl73krp73tm0000gn/T//ccdGzO1q.s 			page 33


 940 0341 04       		.uleb128 0x4
 941 0342 39050000 		.4byte	.LASF63
 942 0346 06       		.byte	0x6
 943 0347 61       		.byte	0x61
 944 0348 4C030000 		.4byte	0x34c
 945 034c 0B       		.uleb128 0xb
 946 034d BE050000 		.4byte	.LASF64
 947 0351 14       		.byte	0x14
 948 0352 07       		.byte	0x7
 949 0353 6B01     		.2byte	0x16b
 950 0355 9B030000 		.4byte	0x39b
 951 0359 09       		.uleb128 0x9
 952 035a 22030000 		.4byte	.LASF65
 953 035e 07       		.byte	0x7
 954 035f 6C01     		.2byte	0x16c
 955 0361 C9080000 		.4byte	0x8c9
 956 0365 00       		.byte	0
 957 0366 09       		.uleb128 0x9
 958 0367 C2020000 		.4byte	.LASF66
 959 036b 07       		.byte	0x7
 960 036c 6D01     		.2byte	0x16d
 961 036e C9080000 		.4byte	0x8c9
 962 0372 04       		.byte	0x4
 963 0373 09       		.uleb128 0x9
 964 0374 15060000 		.4byte	.LASF67
 965 0378 07       		.byte	0x7
 966 0379 6E01     		.2byte	0x16e
 967 037b 3B010000 		.4byte	0x13b
 968 037f 08       		.byte	0x8
 969 0380 09       		.uleb128 0x9
 970 0381 93070000 		.4byte	.LASF68
 971 0385 07       		.byte	0x7
 972 0386 6F01     		.2byte	0x16f
 973 0388 23030000 		.4byte	0x323
 974 038c 0C       		.byte	0xc
 975 038d 09       		.uleb128 0x9
 976 038e DA060000 		.4byte	.LASF69
 977 0392 07       		.byte	0x7
 978 0393 7101     		.2byte	0x171
 979 0395 3F030000 		.4byte	0x33f
 980 0399 10       		.byte	0x10
 981 039a 00       		.byte	0
 982 039b 04       		.uleb128 0x4
 983 039c B1010000 		.4byte	.LASF70
 984 03a0 06       		.byte	0x6
 985 03a1 66       		.byte	0x66
 986 03a2 A6030000 		.4byte	0x3a6
 987 03a6 0B       		.uleb128 0xb
 988 03a7 86040000 		.4byte	.LASF71
 989 03ab 10       		.byte	0x10
 990 03ac 07       		.byte	0x7
 991 03ad 7B01     		.2byte	0x17b
 992 03af E8030000 		.4byte	0x3e8
 993 03b3 09       		.uleb128 0x9
 994 03b4 22030000 		.4byte	.LASF65
 995 03b8 07       		.byte	0x7
 996 03b9 7C01     		.2byte	0x17c
ARM GAS  /var/folders/c6/c789hm653lg9vtl73krp73tm0000gn/T//ccdGzO1q.s 			page 34


 997 03bb C9080000 		.4byte	0x8c9
 998 03bf 00       		.byte	0
 999 03c0 09       		.uleb128 0x9
 1000 03c1 C2020000 		.4byte	.LASF66
 1001 03c5 07       		.byte	0x7
 1002 03c6 7E01     		.2byte	0x17e
 1003 03c8 C9080000 		.4byte	0x8c9
 1004 03cc 04       		.byte	0x4
 1005 03cd 09       		.uleb128 0x9
 1006 03ce 15060000 		.4byte	.LASF67
 1007 03d2 07       		.byte	0x7
 1008 03d3 8001     		.2byte	0x180
 1009 03d5 3B010000 		.4byte	0x13b
 1010 03d9 08       		.byte	0x8
 1011 03da 09       		.uleb128 0x9
 1012 03db AC040000 		.4byte	.LASF72
 1013 03df 07       		.byte	0x7
 1014 03e0 8801     		.2byte	0x188
 1015 03e2 3B010000 		.4byte	0x13b
 1016 03e6 0C       		.byte	0xc
 1017 03e7 00       		.byte	0
 1018 03e8 04       		.uleb128 0x4
 1019 03e9 43010000 		.4byte	.LASF73
 1020 03ed 06       		.byte	0x6
 1021 03ee 6B       		.byte	0x6b
 1022 03ef F3030000 		.4byte	0x3f3
 1023 03f3 0F       		.uleb128 0xf
 1024 03f4 D4020000 		.4byte	.LASF74
 1025 03f8 1404     		.2byte	0x414
 1026 03fa 07       		.byte	0x7
 1027 03fb A201     		.2byte	0x1a2
 1028 03fd 36040000 		.4byte	0x436
 1029 0401 09       		.uleb128 0x9
 1030 0402 94060000 		.4byte	.LASF75
 1031 0406 07       		.byte	0x7
 1032 0407 AA01     		.2byte	0x1aa
 1033 0409 CF080000 		.4byte	0x8cf
 1034 040d 00       		.byte	0
 1035 040e 09       		.uleb128 0x9
 1036 040f 01070000 		.4byte	.LASF76
 1037 0413 07       		.byte	0x7
 1038 0414 AF01     		.2byte	0x1af
 1039 0416 25010000 		.4byte	0x125
 1040 041a 04       		.byte	0x4
 1041 041b 09       		.uleb128 0x9
 1042 041c EC020000 		.4byte	.LASF77
 1043 0420 07       		.byte	0x7
 1044 0421 B301     		.2byte	0x1b3
 1045 0423 25010000 		.4byte	0x125
 1046 0427 08       		.byte	0x8
 1047 0428 09       		.uleb128 0x9
 1048 0429 4A070000 		.4byte	.LASF78
 1049 042d 07       		.byte	0x7
 1050 042e B901     		.2byte	0x1b9
 1051 0430 2F070000 		.4byte	0x72f
 1052 0434 0C       		.byte	0xc
 1053 0435 00       		.byte	0
ARM GAS  /var/folders/c6/c789hm653lg9vtl73krp73tm0000gn/T//ccdGzO1q.s 			page 35


 1054 0436 04       		.uleb128 0x4
 1055 0437 ED030000 		.4byte	.LASF79
 1056 043b 06       		.byte	0x6
 1057 043c 70       		.byte	0x70
 1058 043d 41040000 		.4byte	0x441
 1059 0441 0F       		.uleb128 0xf
 1060 0442 2A020000 		.4byte	.LASF80
 1061 0446 D805     		.2byte	0x5d8
 1062 0448 07       		.byte	0x7
 1063 0449 C201     		.2byte	0x1c2
 1064 044b AE040000 		.4byte	0x4ae
 1065 044f 09       		.uleb128 0x9
 1066 0450 09070000 		.4byte	.LASF81
 1067 0454 07       		.byte	0x7
 1068 0455 C601     		.2byte	0x1c6
 1069 0457 BC020000 		.4byte	0x2bc
 1070 045b 00       		.byte	0
 1071 045c 09       		.uleb128 0x9
 1072 045d 23020000 		.4byte	.LASF82
 1073 0461 07       		.byte	0x7
 1074 0462 CA01     		.2byte	0x1ca
 1075 0464 9B030000 		.4byte	0x39b
 1076 0468 1C       		.byte	0x1c
 1077 0469 08       		.uleb128 0x8
 1078 046a 64626700 		.ascii	"dbg\000"
 1079 046e 07       		.byte	0x7
 1080 046f CE01     		.2byte	0x1ce
 1081 0471 E8030000 		.4byte	0x3e8
 1082 0475 2C       		.byte	0x2c
 1083 0476 10       		.uleb128 0x10
 1084 0477 A6010000 		.4byte	.LASF83
 1085 047b 07       		.byte	0x7
 1086 047c D201     		.2byte	0x1d2
 1087 047e 46010000 		.4byte	0x146
 1088 0482 4004     		.2byte	0x440
 1089 0484 11       		.uleb128 0x11
 1090 0485 746D00   		.ascii	"tm\000"
 1091 0488 07       		.byte	0x7
 1092 0489 D701     		.2byte	0x1d7
 1093 048b 4F070000 		.4byte	0x74f
 1094 048f A004     		.2byte	0x4a0
 1095 0491 10       		.uleb128 0x10
 1096 0492 0F010000 		.4byte	.LASF84
 1097 0496 07       		.byte	0x7
 1098 0497 DD01     		.2byte	0x1dd
 1099 0499 E1070000 		.4byte	0x7e1
 1100 049d A804     		.2byte	0x4a8
 1101 049f 10       		.uleb128 0x10
 1102 04a0 F5020000 		.4byte	.LASF85
 1103 04a4 07       		.byte	0x7
 1104 04a5 E301     		.2byte	0x1e3
 1105 04a7 D4080000 		.4byte	0x8d4
 1106 04ab E004     		.2byte	0x4e0
 1107 04ad 00       		.byte	0
 1108 04ae 03       		.uleb128 0x3
 1109 04af 04       		.byte	0x4
 1110 04b0 07       		.byte	0x7
ARM GAS  /var/folders/c6/c789hm653lg9vtl73krp73tm0000gn/T//ccdGzO1q.s 			page 36


 1111 04b1 6A040000 		.4byte	.LASF86
 1112 04b5 12       		.uleb128 0x12
 1113 04b6 AD000000 		.4byte	0xad
 1114 04ba C5040000 		.4byte	0x4c5
 1115 04be 13       		.uleb128 0x13
 1116 04bf AE040000 		.4byte	0x4ae
 1117 04c3 01       		.byte	0x1
 1118 04c4 00       		.byte	0
 1119 04c5 12       		.uleb128 0x12
 1120 04c6 AD000000 		.4byte	0xad
 1121 04ca D5040000 		.4byte	0x4d5
 1122 04ce 13       		.uleb128 0x13
 1123 04cf AE040000 		.4byte	0x4ae
 1124 04d3 03       		.byte	0x3
 1125 04d4 00       		.byte	0
 1126 04d5 04       		.uleb128 0x4
 1127 04d6 B9020000 		.4byte	.LASF87
 1128 04da 08       		.byte	0x8
 1129 04db 65       		.byte	0x65
 1130 04dc 3F030000 		.4byte	0x33f
 1131 04e0 04       		.uleb128 0x4
 1132 04e1 55040000 		.4byte	.LASF88
 1133 04e5 08       		.byte	0x8
 1134 04e6 6D       		.byte	0x6d
 1135 04e7 B8000000 		.4byte	0xb8
 1136 04eb 06       		.uleb128 0x6
 1137 04ec B2060000 		.4byte	.LASF89
 1138 04f0 04       		.byte	0x4
 1139 04f1 08       		.byte	0x8
 1140 04f2 89       		.byte	0x89
 1141 04f3 04050000 		.4byte	0x504
 1142 04f7 14       		.uleb128 0x14
 1143 04f8 72313300 		.ascii	"r13\000"
 1144 04fc 08       		.byte	0x8
 1145 04fd 8A       		.byte	0x8a
 1146 04fe 7F050000 		.4byte	0x57f
 1147 0502 00       		.byte	0
 1148 0503 00       		.byte	0
 1149 0504 06       		.uleb128 0x6
 1150 0505 26010000 		.4byte	.LASF90
 1151 0509 24       		.byte	0x24
 1152 050a 09       		.byte	0x9
 1153 050b F4       		.byte	0xf4
 1154 050c 7F050000 		.4byte	0x57f
 1155 0510 08       		.uleb128 0x8
 1156 0511 723400   		.ascii	"r4\000"
 1157 0514 09       		.byte	0x9
 1158 0515 0701     		.2byte	0x107
 1159 0517 D5040000 		.4byte	0x4d5
 1160 051b 00       		.byte	0
 1161 051c 08       		.uleb128 0x8
 1162 051d 723500   		.ascii	"r5\000"
 1163 0520 09       		.byte	0x9
 1164 0521 0801     		.2byte	0x108
 1165 0523 D5040000 		.4byte	0x4d5
 1166 0527 04       		.byte	0x4
 1167 0528 08       		.uleb128 0x8
ARM GAS  /var/folders/c6/c789hm653lg9vtl73krp73tm0000gn/T//ccdGzO1q.s 			page 37


 1168 0529 723600   		.ascii	"r6\000"
 1169 052c 09       		.byte	0x9
 1170 052d 0901     		.2byte	0x109
 1171 052f D5040000 		.4byte	0x4d5
 1172 0533 08       		.byte	0x8
 1173 0534 08       		.uleb128 0x8
 1174 0535 723700   		.ascii	"r7\000"
 1175 0538 09       		.byte	0x9
 1176 0539 0A01     		.2byte	0x10a
 1177 053b D5040000 		.4byte	0x4d5
 1178 053f 0C       		.byte	0xc
 1179 0540 08       		.uleb128 0x8
 1180 0541 723800   		.ascii	"r8\000"
 1181 0544 09       		.byte	0x9
 1182 0545 0B01     		.2byte	0x10b
 1183 0547 D5040000 		.4byte	0x4d5
 1184 054b 10       		.byte	0x10
 1185 054c 08       		.uleb128 0x8
 1186 054d 723900   		.ascii	"r9\000"
 1187 0550 09       		.byte	0x9
 1188 0551 0C01     		.2byte	0x10c
 1189 0553 D5040000 		.4byte	0x4d5
 1190 0557 14       		.byte	0x14
 1191 0558 08       		.uleb128 0x8
 1192 0559 72313000 		.ascii	"r10\000"
 1193 055d 09       		.byte	0x9
 1194 055e 0D01     		.2byte	0x10d
 1195 0560 D5040000 		.4byte	0x4d5
 1196 0564 18       		.byte	0x18
 1197 0565 08       		.uleb128 0x8
 1198 0566 72313100 		.ascii	"r11\000"
 1199 056a 09       		.byte	0x9
 1200 056b 0E01     		.2byte	0x10e
 1201 056d D5040000 		.4byte	0x4d5
 1202 0571 1C       		.byte	0x1c
 1203 0572 08       		.uleb128 0x8
 1204 0573 6C7200   		.ascii	"lr\000"
 1205 0576 09       		.byte	0x9
 1206 0577 0F01     		.2byte	0x10f
 1207 0579 D5040000 		.4byte	0x4d5
 1208 057d 20       		.byte	0x20
 1209 057e 00       		.byte	0
 1210 057f 0A       		.uleb128 0xa
 1211 0580 04       		.byte	0x4
 1212 0581 04050000 		.4byte	0x504
 1213 0585 15       		.uleb128 0x15
 1214 0586 60       		.byte	0x60
 1215 0587 0A       		.byte	0xa
 1216 0588 9E01     		.2byte	0x19e
 1217 058a 91060000 		.4byte	0x691
 1218 058e 08       		.uleb128 0x8
 1219 058f 43523100 		.ascii	"CR1\000"
 1220 0593 0A       		.byte	0xa
 1221 0594 9F01     		.2byte	0x19f
 1222 0596 C8000000 		.4byte	0xc8
 1223 059a 00       		.byte	0
 1224 059b 08       		.uleb128 0x8
ARM GAS  /var/folders/c6/c789hm653lg9vtl73krp73tm0000gn/T//ccdGzO1q.s 			page 38


 1225 059c 43523200 		.ascii	"CR2\000"
 1226 05a0 0A       		.byte	0xa
 1227 05a1 A001     		.2byte	0x1a0
 1228 05a3 C8000000 		.4byte	0xc8
 1229 05a7 04       		.byte	0x4
 1230 05a8 09       		.uleb128 0x9
 1231 05a9 BD030000 		.4byte	.LASF91
 1232 05ad 0A       		.byte	0xa
 1233 05ae A101     		.2byte	0x1a1
 1234 05b0 C8000000 		.4byte	0xc8
 1235 05b4 08       		.byte	0x8
 1236 05b5 09       		.uleb128 0x9
 1237 05b6 F4000000 		.4byte	.LASF92
 1238 05ba 0A       		.byte	0xa
 1239 05bb A201     		.2byte	0x1a2
 1240 05bd C8000000 		.4byte	0xc8
 1241 05c1 0C       		.byte	0xc
 1242 05c2 08       		.uleb128 0x8
 1243 05c3 535200   		.ascii	"SR\000"
 1244 05c6 0A       		.byte	0xa
 1245 05c7 A301     		.2byte	0x1a3
 1246 05c9 C8000000 		.4byte	0xc8
 1247 05cd 10       		.byte	0x10
 1248 05ce 08       		.uleb128 0x8
 1249 05cf 45475200 		.ascii	"EGR\000"
 1250 05d3 0A       		.byte	0xa
 1251 05d4 A401     		.2byte	0x1a4
 1252 05d6 C8000000 		.4byte	0xc8
 1253 05da 14       		.byte	0x14
 1254 05db 09       		.uleb128 0x9
 1255 05dc F5010000 		.4byte	.LASF93
 1256 05e0 0A       		.byte	0xa
 1257 05e1 A501     		.2byte	0x1a5
 1258 05e3 C8000000 		.4byte	0xc8
 1259 05e7 18       		.byte	0x18
 1260 05e8 09       		.uleb128 0x9
 1261 05e9 FB010000 		.4byte	.LASF94
 1262 05ed 0A       		.byte	0xa
 1263 05ee A601     		.2byte	0x1a6
 1264 05f0 C8000000 		.4byte	0xc8
 1265 05f4 1C       		.byte	0x1c
 1266 05f5 09       		.uleb128 0x9
 1267 05f6 4E020000 		.4byte	.LASF95
 1268 05fa 0A       		.byte	0xa
 1269 05fb A701     		.2byte	0x1a7
 1270 05fd C8000000 		.4byte	0xc8
 1271 0601 20       		.byte	0x20
 1272 0602 08       		.uleb128 0x8
 1273 0603 434E5400 		.ascii	"CNT\000"
 1274 0607 0A       		.byte	0xa
 1275 0608 A801     		.2byte	0x1a8
 1276 060a C8000000 		.4byte	0xc8
 1277 060e 24       		.byte	0x24
 1278 060f 08       		.uleb128 0x8
 1279 0610 50534300 		.ascii	"PSC\000"
 1280 0614 0A       		.byte	0xa
 1281 0615 A901     		.2byte	0x1a9
ARM GAS  /var/folders/c6/c789hm653lg9vtl73krp73tm0000gn/T//ccdGzO1q.s 			page 39


 1282 0617 C8000000 		.4byte	0xc8
 1283 061b 28       		.byte	0x28
 1284 061c 08       		.uleb128 0x8
 1285 061d 41525200 		.ascii	"ARR\000"
 1286 0621 0A       		.byte	0xa
 1287 0622 AA01     		.2byte	0x1aa
 1288 0624 C8000000 		.4byte	0xc8
 1289 0628 2C       		.byte	0x2c
 1290 0629 08       		.uleb128 0x8
 1291 062a 52435200 		.ascii	"RCR\000"
 1292 062e 0A       		.byte	0xa
 1293 062f AB01     		.2byte	0x1ab
 1294 0631 C8000000 		.4byte	0xc8
 1295 0635 30       		.byte	0x30
 1296 0636 08       		.uleb128 0x8
 1297 0637 43435200 		.ascii	"CCR\000"
 1298 063b 0A       		.byte	0xa
 1299 063c AC01     		.2byte	0x1ac
 1300 063e 91060000 		.4byte	0x691
 1301 0642 34       		.byte	0x34
 1302 0643 09       		.uleb128 0x9
 1303 0644 E0010000 		.4byte	.LASF96
 1304 0648 0A       		.byte	0xa
 1305 0649 AD01     		.2byte	0x1ad
 1306 064b C8000000 		.4byte	0xc8
 1307 064f 44       		.byte	0x44
 1308 0650 08       		.uleb128 0x8
 1309 0651 44435200 		.ascii	"DCR\000"
 1310 0655 0A       		.byte	0xa
 1311 0656 AE01     		.2byte	0x1ae
 1312 0658 C8000000 		.4byte	0xc8
 1313 065c 48       		.byte	0x48
 1314 065d 09       		.uleb128 0x9
 1315 065e 51060000 		.4byte	.LASF97
 1316 0662 0A       		.byte	0xa
 1317 0663 AF01     		.2byte	0x1af
 1318 0665 C8000000 		.4byte	0xc8
 1319 0669 4C       		.byte	0x4c
 1320 066a 08       		.uleb128 0x8
 1321 066b 4F5200   		.ascii	"OR\000"
 1322 066e 0A       		.byte	0xa
 1323 066f B001     		.2byte	0x1b0
 1324 0671 C8000000 		.4byte	0xc8
 1325 0675 50       		.byte	0x50
 1326 0676 09       		.uleb128 0x9
 1327 0677 01020000 		.4byte	.LASF98
 1328 067b 0A       		.byte	0xa
 1329 067c B101     		.2byte	0x1b1
 1330 067e C8000000 		.4byte	0xc8
 1331 0682 54       		.byte	0x54
 1332 0683 09       		.uleb128 0x9
 1333 0684 ED050000 		.4byte	.LASF99
 1334 0688 0A       		.byte	0xa
 1335 0689 B201     		.2byte	0x1b2
 1336 068b 96060000 		.4byte	0x696
 1337 068f 58       		.byte	0x58
 1338 0690 00       		.byte	0
ARM GAS  /var/folders/c6/c789hm653lg9vtl73krp73tm0000gn/T//ccdGzO1q.s 			page 40


 1339 0691 05       		.uleb128 0x5
 1340 0692 C5040000 		.4byte	0x4c5
 1341 0696 05       		.uleb128 0x5
 1342 0697 B5040000 		.4byte	0x4b5
 1343 069b 16       		.uleb128 0x16
 1344 069c 07040000 		.4byte	.LASF100
 1345 06a0 0A       		.byte	0xa
 1346 06a1 B301     		.2byte	0x1b3
 1347 06a3 85050000 		.4byte	0x585
 1348 06a7 17       		.uleb128 0x17
 1349 06a8 10       		.byte	0x10
 1350 06a9 0B       		.byte	0xb
 1351 06aa 51       		.byte	0x51
 1352 06ab E0060000 		.4byte	0x6e0
 1353 06af 07       		.uleb128 0x7
 1354 06b0 13020000 		.4byte	.LASF101
 1355 06b4 0B       		.byte	0xb
 1356 06b5 55       		.byte	0x55
 1357 06b6 3B010000 		.4byte	0x13b
 1358 06ba 00       		.byte	0
 1359 06bb 07       		.uleb128 0x7
 1360 06bc 53020000 		.4byte	.LASF102
 1361 06c0 0B       		.byte	0xb
 1362 06c1 59       		.byte	0x59
 1363 06c2 62020000 		.4byte	0x262
 1364 06c6 04       		.byte	0x4
 1365 06c7 07       		.uleb128 0x7
 1366 06c8 83070000 		.4byte	.LASF103
 1367 06cc 0B       		.byte	0xb
 1368 06cd 5D       		.byte	0x5d
 1369 06ce 3F030000 		.4byte	0x33f
 1370 06d2 08       		.byte	0x8
 1371 06d3 07       		.uleb128 0x7
 1372 06d4 94010000 		.4byte	.LASF104
 1373 06d8 0B       		.byte	0xb
 1374 06d9 61       		.byte	0x61
 1375 06da 97000000 		.4byte	0x97
 1376 06de 0C       		.byte	0xc
 1377 06df 00       		.byte	0
 1378 06e0 04       		.uleb128 0x4
 1379 06e1 9D040000 		.4byte	.LASF105
 1380 06e5 0B       		.byte	0xb
 1381 06e6 62       		.byte	0x62
 1382 06e7 A7060000 		.4byte	0x6a7
 1383 06eb 18       		.uleb128 0x18
 1384 06ec 0804     		.2byte	0x408
 1385 06ee 0B       		.byte	0xb
 1386 06ef 67       		.byte	0x67
 1387 06f0 19070000 		.4byte	0x719
 1388 06f4 07       		.uleb128 0x7
 1389 06f5 A1020000 		.4byte	.LASF106
 1390 06f9 0B       		.byte	0xb
 1391 06fa 6B       		.byte	0x6b
 1392 06fb 2C000000 		.4byte	0x2c
 1393 06ff 00       		.byte	0
 1394 0700 07       		.uleb128 0x7
 1395 0701 E0000000 		.4byte	.LASF107
ARM GAS  /var/folders/c6/c789hm653lg9vtl73krp73tm0000gn/T//ccdGzO1q.s 			page 41


 1396 0705 0B       		.byte	0xb
 1397 0706 6F       		.byte	0x6f
 1398 0707 19070000 		.4byte	0x719
 1399 070b 04       		.byte	0x4
 1400 070c 07       		.uleb128 0x7
 1401 070d 2F050000 		.4byte	.LASF108
 1402 0711 0B       		.byte	0xb
 1403 0712 73       		.byte	0x73
 1404 0713 1F070000 		.4byte	0x71f
 1405 0717 08       		.byte	0x8
 1406 0718 00       		.byte	0
 1407 0719 0A       		.uleb128 0xa
 1408 071a 04       		.byte	0x4
 1409 071b E0060000 		.4byte	0x6e0
 1410 071f 12       		.uleb128 0x12
 1411 0720 E0060000 		.4byte	0x6e0
 1412 0724 2F070000 		.4byte	0x72f
 1413 0728 13       		.uleb128 0x13
 1414 0729 AE040000 		.4byte	0x4ae
 1415 072d 3F       		.byte	0x3f
 1416 072e 00       		.byte	0
 1417 072f 04       		.uleb128 0x4
 1418 0730 82010000 		.4byte	.LASF109
 1419 0734 0B       		.byte	0xb
 1420 0735 74       		.byte	0x74
 1421 0736 EB060000 		.4byte	0x6eb
 1422 073a 17       		.uleb128 0x17
 1423 073b 04       		.byte	0x4
 1424 073c 0C       		.byte	0xc
 1425 073d 38       		.byte	0x38
 1426 073e 4F070000 		.4byte	0x74f
 1427 0742 07       		.uleb128 0x7
 1428 0743 9E060000 		.4byte	.LASF110
 1429 0747 0C       		.byte	0xc
 1430 0748 3C       		.byte	0x3c
 1431 0749 CD000000 		.4byte	0xcd
 1432 074d 00       		.byte	0
 1433 074e 00       		.byte	0
 1434 074f 04       		.uleb128 0x4
 1435 0750 DB040000 		.4byte	.LASF111
 1436 0754 0C       		.byte	0xc
 1437 0755 3D       		.byte	0x3d
 1438 0756 3A070000 		.4byte	0x73a
 1439 075a 17       		.uleb128 0x17
 1440 075b 18       		.byte	0x18
 1441 075c 0C       		.byte	0xc
 1442 075d 48       		.byte	0x48
 1443 075e 9D070000 		.4byte	0x79d
 1444 0762 07       		.uleb128 0x7
 1445 0763 5F060000 		.4byte	.LASF112
 1446 0767 0C       		.byte	0xc
 1447 0768 49       		.byte	0x49
 1448 0769 CD000000 		.4byte	0xcd
 1449 076d 00       		.byte	0
 1450 076e 07       		.uleb128 0x7
 1451 076f 52010000 		.4byte	.LASF113
 1452 0773 0C       		.byte	0xc
ARM GAS  /var/folders/c6/c789hm653lg9vtl73krp73tm0000gn/T//ccdGzO1q.s 			page 42


 1453 0774 4A       		.byte	0x4a
 1454 0775 CD000000 		.4byte	0xcd
 1455 0779 04       		.byte	0x4
 1456 077a 07       		.uleb128 0x7
 1457 077b E1030000 		.4byte	.LASF114
 1458 077f 0C       		.byte	0xc
 1459 0780 4B       		.byte	0x4b
 1460 0781 CD000000 		.4byte	0xcd
 1461 0785 08       		.byte	0x8
 1462 0786 14       		.uleb128 0x14
 1463 0787 6E00     		.ascii	"n\000"
 1464 0789 0C       		.byte	0xc
 1465 078a 4C       		.byte	0x4c
 1466 078b 30010000 		.4byte	0x130
 1467 078f 0C       		.byte	0xc
 1468 0790 07       		.uleb128 0x7
 1469 0791 1C050000 		.4byte	.LASF115
 1470 0795 0C       		.byte	0xc
 1471 0796 4D       		.byte	0x4d
 1472 0797 D8000000 		.4byte	0xd8
 1473 079b 10       		.byte	0x10
 1474 079c 00       		.byte	0
 1475 079d 04       		.uleb128 0x4
 1476 079e 58010000 		.4byte	.LASF116
 1477 07a2 0C       		.byte	0xc
 1478 07a3 4E       		.byte	0x4e
 1479 07a4 5A070000 		.4byte	0x75a
 1480 07a8 17       		.uleb128 0x17
 1481 07a9 38       		.byte	0x38
 1482 07aa 0D       		.byte	0xd
 1483 07ab 38       		.byte	0x38
 1484 07ac E1070000 		.4byte	0x7e1
 1485 07b0 07       		.uleb128 0x7
 1486 07b1 55030000 		.4byte	.LASF117
 1487 07b5 0D       		.byte	0xd
 1488 07b6 39       		.byte	0x39
 1489 07b7 30010000 		.4byte	0x130
 1490 07bb 00       		.byte	0
 1491 07bc 07       		.uleb128 0x7
 1492 07bd 58050000 		.4byte	.LASF118
 1493 07c1 0D       		.byte	0xd
 1494 07c2 3A       		.byte	0x3a
 1495 07c3 30010000 		.4byte	0x130
 1496 07c7 04       		.byte	0x4
 1497 07c8 07       		.uleb128 0x7
 1498 07c9 70070000 		.4byte	.LASF119
 1499 07cd 0D       		.byte	0xd
 1500 07ce 3B       		.byte	0x3b
 1501 07cf 9D070000 		.4byte	0x79d
 1502 07d3 08       		.byte	0x8
 1503 07d4 07       		.uleb128 0x7
 1504 07d5 13040000 		.4byte	.LASF120
 1505 07d9 0D       		.byte	0xd
 1506 07da 3D       		.byte	0x3d
 1507 07db 9D070000 		.4byte	0x79d
 1508 07df 20       		.byte	0x20
 1509 07e0 00       		.byte	0
ARM GAS  /var/folders/c6/c789hm653lg9vtl73krp73tm0000gn/T//ccdGzO1q.s 			page 43


 1510 07e1 04       		.uleb128 0x4
 1511 07e2 C2030000 		.4byte	.LASF121
 1512 07e6 0D       		.byte	0xd
 1513 07e7 3F       		.byte	0x3f
 1514 07e8 A8070000 		.4byte	0x7a8
 1515 07ec 19       		.uleb128 0x19
 1516 07ed 04       		.byte	0x4
 1517 07ee 07       		.byte	0x7
 1518 07ef FA       		.byte	0xfa
 1519 07f0 49080000 		.4byte	0x849
 1520 07f4 1A       		.uleb128 0x1a
 1521 07f5 FF000000 		.4byte	.LASF122
 1522 07f9 07       		.byte	0x7
 1523 07fa 0101     		.2byte	0x101
 1524 07fc 0F010000 		.4byte	0x10f
 1525 0800 1A       		.uleb128 0x1a
 1526 0801 9D010000 		.4byte	.LASF123
 1527 0805 07       		.byte	0x7
 1528 0806 0801     		.2byte	0x108
 1529 0808 0F010000 		.4byte	0x10f
 1530 080c 1A       		.uleb128 0x1a
 1531 080d 25070000 		.4byte	.LASF124
 1532 0811 07       		.byte	0x7
 1533 0812 0F01     		.2byte	0x10f
 1534 0814 3F030000 		.4byte	0x33f
 1535 0818 1A       		.uleb128 0x1a
 1536 0819 F9000000 		.4byte	.LASF125
 1537 081d 07       		.byte	0x7
 1538 081e 1601     		.2byte	0x116
 1539 0820 49080000 		.4byte	0x849
 1540 0824 1A       		.uleb128 0x1a
 1541 0825 2A030000 		.4byte	.LASF126
 1542 0829 07       		.byte	0x7
 1543 082a 1E01     		.2byte	0x11e
 1544 082c 74080000 		.4byte	0x874
 1545 0830 1A       		.uleb128 0x1a
 1546 0831 06060000 		.4byte	.LASF127
 1547 0835 07       		.byte	0x7
 1548 0836 2701     		.2byte	0x127
 1549 0838 AB080000 		.4byte	0x8ab
 1550 083c 1A       		.uleb128 0x1a
 1551 083d A0050000 		.4byte	.LASF128
 1552 0841 07       		.byte	0x7
 1553 0842 2F01     		.2byte	0x12f
 1554 0844 1A010000 		.4byte	0x11a
 1555 0848 00       		.byte	0
 1556 0849 0A       		.uleb128 0xa
 1557 084a 04       		.byte	0x4
 1558 084b 57020000 		.4byte	0x257
 1559 084f 06       		.uleb128 0x6
 1560 0850 E0050000 		.4byte	.LASF129
 1561 0854 0C       		.byte	0xc
 1562 0855 0E       		.byte	0xe
 1563 0856 34       		.byte	0x34
 1564 0857 74080000 		.4byte	0x874
 1565 085b 07       		.uleb128 0x7
 1566 085c 6F020000 		.4byte	.LASF130
ARM GAS  /var/folders/c6/c789hm653lg9vtl73krp73tm0000gn/T//ccdGzO1q.s 			page 44


 1567 0860 0E       		.byte	0xe
 1568 0861 35       		.byte	0x35
 1569 0862 8C020000 		.4byte	0x28c
 1570 0866 00       		.byte	0
 1571 0867 07       		.uleb128 0x7
 1572 0868 5B030000 		.4byte	.LASF131
 1573 086c 0E       		.byte	0xe
 1574 086d 37       		.byte	0x37
 1575 086e 25010000 		.4byte	0x125
 1576 0872 08       		.byte	0x8
 1577 0873 00       		.byte	0
 1578 0874 0A       		.uleb128 0xa
 1579 0875 04       		.byte	0x4
 1580 0876 4F080000 		.4byte	0x84f
 1581 087a 06       		.uleb128 0x6
 1582 087b F1060000 		.4byte	.LASF132
 1583 087f 10       		.byte	0x10
 1584 0880 0F       		.byte	0xf
 1585 0881 39       		.byte	0x39
 1586 0882 AB080000 		.4byte	0x8ab
 1587 0886 07       		.uleb128 0x7
 1588 0887 1B020000 		.4byte	.LASF133
 1589 088b 0F       		.byte	0xf
 1590 088c 3A       		.byte	0x3a
 1591 088d 8C020000 		.4byte	0x28c
 1592 0891 00       		.byte	0
 1593 0892 07       		.uleb128 0x7
 1594 0893 7B070000 		.4byte	.LASF134
 1595 0897 0F       		.byte	0xf
 1596 0898 3C       		.byte	0x3c
 1597 0899 62020000 		.4byte	0x262
 1598 089d 08       		.byte	0x8
 1599 089e 07       		.uleb128 0x7
 1600 089f 64060000 		.4byte	.LASF135
 1601 08a3 0F       		.byte	0xf
 1602 08a4 3E       		.byte	0x3e
 1603 08a5 EF080000 		.4byte	0x8ef
 1604 08a9 0C       		.byte	0xc
 1605 08aa 00       		.byte	0
 1606 08ab 0A       		.uleb128 0xa
 1607 08ac 04       		.byte	0x4
 1608 08ad 7A080000 		.4byte	0x87a
 1609 08b1 0A       		.uleb128 0xa
 1610 08b2 04       		.byte	0x4
 1611 08b3 B7080000 		.4byte	0x8b7
 1612 08b7 1B       		.uleb128 0x1b
 1613 08b8 BC080000 		.4byte	0x8bc
 1614 08bc 03       		.uleb128 0x3
 1615 08bd 01       		.byte	0x1
 1616 08be 08       		.byte	0x8
 1617 08bf 4C060000 		.4byte	.LASF136
 1618 08c3 0A       		.uleb128 0xa
 1619 08c4 04       		.byte	0x4
 1620 08c5 E0040000 		.4byte	0x4e0
 1621 08c9 0A       		.uleb128 0xa
 1622 08ca 04       		.byte	0x4
 1623 08cb 41030000 		.4byte	0x341
ARM GAS  /var/folders/c6/c789hm653lg9vtl73krp73tm0000gn/T//ccdGzO1q.s 			page 45


 1624 08cf 05       		.uleb128 0x5
 1625 08d0 B1080000 		.4byte	0x8b1
 1626 08d4 12       		.uleb128 0x12
 1627 08d5 E0040000 		.4byte	0x4e0
 1628 08d9 E4080000 		.4byte	0x8e4
 1629 08dd 13       		.uleb128 0x13
 1630 08de AE040000 		.4byte	0x4ae
 1631 08e2 1E       		.byte	0x1e
 1632 08e3 00       		.byte	0
 1633 08e4 04       		.uleb128 0x4
 1634 08e5 E4020000 		.4byte	.LASF137
 1635 08e9 0F       		.byte	0xf
 1636 08ea 34       		.byte	0x34
 1637 08eb 7A080000 		.4byte	0x87a
 1638 08ef 0A       		.uleb128 0xa
 1639 08f0 04       		.byte	0x4
 1640 08f1 E4080000 		.4byte	0x8e4
 1641 08f5 03       		.uleb128 0x3
 1642 08f6 01       		.byte	0x1
 1643 08f7 02       		.byte	0x2
 1644 08f8 61050000 		.4byte	.LASF138
 1645 08fc 1C       		.uleb128 0x1c
 1646 08fd 8A020000 		.4byte	.LASF142
 1647 0901 02       		.byte	0x2
 1648 0902 BF       		.byte	0xbf
 1649 0903 F5080000 		.4byte	0x8f5
 1650 0907 03       		.byte	0x3
 1651 0908 1D       		.uleb128 0x1d
 1652 0909 42040000 		.4byte	.LASF139
 1653 090d 02       		.byte	0x2
 1654 090e 8D       		.byte	0x8d
 1655 090f 03       		.byte	0x3
 1656 0910 20090000 		.4byte	0x920
 1657 0914 1E       		.uleb128 0x1e
 1658 0915 FA040000 		.4byte	.LASF141
 1659 0919 02       		.byte	0x2
 1660 091a 8D       		.byte	0x8d
 1661 091b 3B010000 		.4byte	0x13b
 1662 091f 00       		.byte	0
 1663 0920 1F       		.uleb128 0x1f
 1664 0921 C8060000 		.4byte	.LASF156
 1665 0925 02       		.byte	0x2
 1666 0926 99       		.byte	0x99
 1667 0927 03       		.byte	0x3
 1668 0928 1D       		.uleb128 0x1d
 1669 0929 5F070000 		.4byte	.LASF140
 1670 092d 02       		.byte	0x2
 1671 092e A5       		.byte	0xa5
 1672 092f 03       		.byte	0x3
 1673 0930 40090000 		.4byte	0x940
 1674 0934 1E       		.uleb128 0x1e
 1675 0935 FA040000 		.4byte	.LASF141
 1676 0939 02       		.byte	0x2
 1677 093a A5       		.byte	0xa5
 1678 093b 3B010000 		.4byte	0x13b
 1679 093f 00       		.byte	0
 1680 0940 1C       		.uleb128 0x1c
ARM GAS  /var/folders/c6/c789hm653lg9vtl73krp73tm0000gn/T//ccdGzO1q.s 			page 46


 1681 0941 CF050000 		.4byte	.LASF143
 1682 0945 02       		.byte	0x2
 1683 0946 B1       		.byte	0xb1
 1684 0947 3B010000 		.4byte	0x13b
 1685 094b 03       		.byte	0x3
 1686 094c 20       		.uleb128 0x20
 1687 094d C0040000 		.4byte	.LASF144
 1688 0951 01       		.byte	0x1
 1689 0952 3C       		.byte	0x3c
 1690 0953 00000000 		.4byte	.LFB260
 1691 0957 04000000 		.4byte	.LFE260-.LFB260
 1692 095b 01       		.uleb128 0x1
 1693 095c 9C       		.byte	0x9c
 1694 095d 6B090000 		.4byte	0x96b
 1695 0961 21       		.uleb128 0x21
 1696 0962 04000000 		.4byte	.LVL0
 1697 0966 160B0000 		.4byte	0xb16
 1698 096a 00       		.byte	0
 1699 096b 20       		.uleb128 0x20
 1700 096c A5060000 		.4byte	.LASF145
 1701 0970 01       		.byte	0x1
 1702 0971 4D       		.byte	0x4d
 1703 0972 00000000 		.4byte	.LFB261
 1704 0976 28000000 		.4byte	.LFE261-.LFB261
 1705 097a 01       		.uleb128 0x1
 1706 097b 9C       		.byte	0x9c
 1707 097c DE090000 		.4byte	0x9de
 1708 0980 22       		.uleb128 0x22
 1709 0981 42070000 		.4byte	.LASF148
 1710 0985 01       		.byte	0x1
 1711 0986 4D       		.byte	0x4d
 1712 0987 3B010000 		.4byte	0x13b
 1713 098b 00000000 		.4byte	.LLST0
 1714 098f 23       		.uleb128 0x23
 1715 0990 F9030000 		.4byte	.LASF149
 1716 0994 EE090000 		.4byte	0x9ee
 1717 0998 05       		.uleb128 0x5
 1718 0999 03       		.byte	0x3
 1719 099a 00000000 		.4byte	__func__.7803
 1720 099e 24       		.uleb128 0x24
 1721 099f FC080000 		.4byte	0x8fc
 1722 09a3 00000000 		.4byte	.LBB16
 1723 09a7 00000000 		.4byte	.Ldebug_ranges0+0
 1724 09ab 01       		.byte	0x1
 1725 09ac 4F       		.byte	0x4f
 1726 09ad 25       		.uleb128 0x25
 1727 09ae 08090000 		.4byte	0x908
 1728 09b2 14000000 		.4byte	.LBB20
 1729 09b6 14000000 		.4byte	.LBE20-.LBB20
 1730 09ba 01       		.byte	0x1
 1731 09bb 51       		.byte	0x51
 1732 09bc CA090000 		.4byte	0x9ca
 1733 09c0 26       		.uleb128 0x26
 1734 09c1 14090000 		.4byte	0x914
 1735 09c5 2C000000 		.4byte	.LLST1
 1736 09c9 00       		.byte	0
 1737 09ca 27       		.uleb128 0x27
ARM GAS  /var/folders/c6/c789hm653lg9vtl73krp73tm0000gn/T//ccdGzO1q.s 			page 47


 1738 09cb 14000000 		.4byte	.LVL3
 1739 09cf 1D0B0000 		.4byte	0xb1d
 1740 09d3 28       		.uleb128 0x28
 1741 09d4 01       		.uleb128 0x1
 1742 09d5 50       		.byte	0x50
 1743 09d6 05       		.uleb128 0x5
 1744 09d7 03       		.byte	0x3
 1745 09d8 00000000 		.4byte	.LANCHOR0
 1746 09dc 00       		.byte	0
 1747 09dd 00       		.byte	0
 1748 09de 12       		.uleb128 0x12
 1749 09df BC080000 		.4byte	0x8bc
 1750 09e3 EE090000 		.4byte	0x9ee
 1751 09e7 13       		.uleb128 0x13
 1752 09e8 AE040000 		.4byte	0x4ae
 1753 09ec 0C       		.byte	0xc
 1754 09ed 00       		.byte	0
 1755 09ee 1B       		.uleb128 0x1b
 1756 09ef DE090000 		.4byte	0x9de
 1757 09f3 20       		.uleb128 0x20
 1758 09f4 40060000 		.4byte	.LASF146
 1759 09f8 01       		.byte	0x1
 1760 09f9 5B       		.byte	0x5b
 1761 09fa 00000000 		.4byte	.LFB262
 1762 09fe 0A000000 		.4byte	.LFE262-.LFB262
 1763 0a02 01       		.uleb128 0x1
 1764 0a03 9C       		.byte	0x9c
 1765 0a04 180A0000 		.4byte	0xa18
 1766 0a08 29       		.uleb128 0x29
 1767 0a09 20090000 		.4byte	0x920
 1768 0a0d 00000000 		.4byte	.LBB22
 1769 0a11 0A000000 		.4byte	.LBE22-.LBB22
 1770 0a15 01       		.byte	0x1
 1771 0a16 5D       		.byte	0x5d
 1772 0a17 00       		.byte	0
 1773 0a18 20       		.uleb128 0x20
 1774 0a19 0F070000 		.4byte	.LASF147
 1775 0a1d 01       		.byte	0x1
 1776 0a1e 69       		.byte	0x69
 1777 0a1f 00000000 		.4byte	.LFB263
 1778 0a23 20000000 		.4byte	.LFE263-.LFB263
 1779 0a27 01       		.uleb128 0x1
 1780 0a28 9C       		.byte	0x9c
 1781 0a29 8B0A0000 		.4byte	0xa8b
 1782 0a2d 22       		.uleb128 0x22
 1783 0a2e 42070000 		.4byte	.LASF148
 1784 0a32 01       		.byte	0x1
 1785 0a33 69       		.byte	0x69
 1786 0a34 3B010000 		.4byte	0x13b
 1787 0a38 4D000000 		.4byte	.LLST2
 1788 0a3c 23       		.uleb128 0x23
 1789 0a3d CD040000 		.4byte	.LASF150
 1790 0a41 9B0A0000 		.4byte	0xa9b
 1791 0a45 05       		.uleb128 0x5
 1792 0a46 03       		.byte	0x3
 1793 0a47 00000000 		.4byte	__func__.7810
 1794 0a4b 24       		.uleb128 0x24
ARM GAS  /var/folders/c6/c789hm653lg9vtl73krp73tm0000gn/T//ccdGzO1q.s 			page 48


 1795 0a4c FC080000 		.4byte	0x8fc
 1796 0a50 00000000 		.4byte	.LBB24
 1797 0a54 18000000 		.4byte	.Ldebug_ranges0+0x18
 1798 0a58 01       		.byte	0x1
 1799 0a59 6B       		.byte	0x6b
 1800 0a5a 25       		.uleb128 0x25
 1801 0a5b 28090000 		.4byte	0x928
 1802 0a5f 14000000 		.4byte	.LBB28
 1803 0a63 0C000000 		.4byte	.LBE28-.LBB28
 1804 0a67 01       		.byte	0x1
 1805 0a68 6D       		.byte	0x6d
 1806 0a69 770A0000 		.4byte	0xa77
 1807 0a6d 26       		.uleb128 0x26
 1808 0a6e 34090000 		.4byte	0x934
 1809 0a72 77000000 		.4byte	.LLST3
 1810 0a76 00       		.byte	0
 1811 0a77 27       		.uleb128 0x27
 1812 0a78 14000000 		.4byte	.LVL7
 1813 0a7c 1D0B0000 		.4byte	0xb1d
 1814 0a80 28       		.uleb128 0x28
 1815 0a81 01       		.uleb128 0x1
 1816 0a82 50       		.byte	0x50
 1817 0a83 05       		.uleb128 0x5
 1818 0a84 03       		.byte	0x3
 1819 0a85 00000000 		.4byte	.LANCHOR1
 1820 0a89 00       		.byte	0
 1821 0a8a 00       		.byte	0
 1822 0a8b 12       		.uleb128 0x12
 1823 0a8c BC080000 		.4byte	0x8bc
 1824 0a90 9B0A0000 		.4byte	0xa9b
 1825 0a94 13       		.uleb128 0x13
 1826 0a95 AE040000 		.4byte	0x4ae
 1827 0a99 0A       		.byte	0xa
 1828 0a9a 00       		.byte	0
 1829 0a9b 1B       		.uleb128 0x1b
 1830 0a9c 8B0A0000 		.4byte	0xa8b
 1831 0aa0 2A       		.uleb128 0x2a
 1832 0aa1 1A070000 		.4byte	.LASF157
 1833 0aa5 01       		.byte	0x1
 1834 0aa6 79       		.byte	0x79
 1835 0aa7 3B010000 		.4byte	0x13b
 1836 0aab 00000000 		.4byte	.LFB264
 1837 0aaf 20000000 		.4byte	.LFE264-.LFB264
 1838 0ab3 01       		.uleb128 0x1
 1839 0ab4 9C       		.byte	0x9c
 1840 0ab5 FA0A0000 		.4byte	0xafa
 1841 0ab9 23       		.uleb128 0x23
 1842 0aba EC040000 		.4byte	.LASF151
 1843 0abe FA0A0000 		.4byte	0xafa
 1844 0ac2 05       		.uleb128 0x5
 1845 0ac3 03       		.byte	0x3
 1846 0ac4 00000000 		.4byte	__func__.7814
 1847 0ac8 29       		.uleb128 0x29
 1848 0ac9 FC080000 		.4byte	0x8fc
 1849 0acd 02000000 		.4byte	.LBB30
 1850 0ad1 06000000 		.4byte	.LBE30-.LBB30
 1851 0ad5 01       		.byte	0x1
ARM GAS  /var/folders/c6/c789hm653lg9vtl73krp73tm0000gn/T//ccdGzO1q.s 			page 49


 1852 0ad6 7B       		.byte	0x7b
 1853 0ad7 29       		.uleb128 0x29
 1854 0ad8 40090000 		.4byte	0x940
 1855 0adc 12000000 		.4byte	.LBB32
 1856 0ae0 06000000 		.4byte	.LBE32-.LBB32
 1857 0ae4 01       		.byte	0x1
 1858 0ae5 7D       		.byte	0x7d
 1859 0ae6 27       		.uleb128 0x27
 1860 0ae7 12000000 		.4byte	.LVL9
 1861 0aeb 1D0B0000 		.4byte	0xb1d
 1862 0aef 28       		.uleb128 0x28
 1863 0af0 01       		.uleb128 0x1
 1864 0af1 50       		.byte	0x50
 1865 0af2 05       		.uleb128 0x5
 1866 0af3 03       		.byte	0x3
 1867 0af4 00000000 		.4byte	.LANCHOR2
 1868 0af8 00       		.byte	0
 1869 0af9 00       		.byte	0
 1870 0afa 1B       		.uleb128 0x1b
 1871 0afb 8B0A0000 		.4byte	0xa8b
 1872 0aff 2B       		.uleb128 0x2b
 1873 0b00 C7010000 		.4byte	.LASF152
 1874 0b04 10       		.byte	0x10
 1875 0b05 A706     		.2byte	0x6a7
 1876 0b07 C3000000 		.4byte	0xc3
 1877 0b0b 2C       		.uleb128 0x2c
 1878 0b0c 636800   		.ascii	"ch\000"
 1879 0b0f 07       		.byte	0x7
 1880 0b10 0902     		.2byte	0x209
 1881 0b12 36040000 		.4byte	0x436
 1882 0b16 2D       		.uleb128 0x2d
 1883 0b17 D4010000 		.4byte	.LASF158
 1884 0b1b 02       		.byte	0x2
 1885 0b1c 6F       		.byte	0x6f
 1886 0b1d 2E       		.uleb128 0x2e
 1887 0b1e CA020000 		.4byte	.LASF159
 1888 0b22 11       		.byte	0x11
 1889 0b23 1601     		.2byte	0x116
 1890 0b25 0D       		.uleb128 0xd
 1891 0b26 B1080000 		.4byte	0x8b1
 1892 0b2a 00       		.byte	0
 1893 0b2b 00       		.byte	0
 1894              		.section	.debug_abbrev,"",%progbits
 1895              	.Ldebug_abbrev0:
 1896 0000 01       		.uleb128 0x1
 1897 0001 11       		.uleb128 0x11
 1898 0002 01       		.byte	0x1
 1899 0003 25       		.uleb128 0x25
 1900 0004 0E       		.uleb128 0xe
 1901 0005 13       		.uleb128 0x13
 1902 0006 0B       		.uleb128 0xb
 1903 0007 03       		.uleb128 0x3
 1904 0008 0E       		.uleb128 0xe
 1905 0009 1B       		.uleb128 0x1b
 1906 000a 0E       		.uleb128 0xe
 1907 000b 55       		.uleb128 0x55
 1908 000c 17       		.uleb128 0x17
ARM GAS  /var/folders/c6/c789hm653lg9vtl73krp73tm0000gn/T//ccdGzO1q.s 			page 50


 1909 000d 11       		.uleb128 0x11
 1910 000e 01       		.uleb128 0x1
 1911 000f 10       		.uleb128 0x10
 1912 0010 17       		.uleb128 0x17
 1913 0011 00       		.byte	0
 1914 0012 00       		.byte	0
 1915 0013 02       		.uleb128 0x2
 1916 0014 24       		.uleb128 0x24
 1917 0015 00       		.byte	0
 1918 0016 0B       		.uleb128 0xb
 1919 0017 0B       		.uleb128 0xb
 1920 0018 3E       		.uleb128 0x3e
 1921 0019 0B       		.uleb128 0xb
 1922 001a 03       		.uleb128 0x3
 1923 001b 08       		.uleb128 0x8
 1924 001c 00       		.byte	0
 1925 001d 00       		.byte	0
 1926 001e 03       		.uleb128 0x3
 1927 001f 24       		.uleb128 0x24
 1928 0020 00       		.byte	0
 1929 0021 0B       		.uleb128 0xb
 1930 0022 0B       		.uleb128 0xb
 1931 0023 3E       		.uleb128 0x3e
 1932 0024 0B       		.uleb128 0xb
 1933 0025 03       		.uleb128 0x3
 1934 0026 0E       		.uleb128 0xe
 1935 0027 00       		.byte	0
 1936 0028 00       		.byte	0
 1937 0029 04       		.uleb128 0x4
 1938 002a 16       		.uleb128 0x16
 1939 002b 00       		.byte	0
 1940 002c 03       		.uleb128 0x3
 1941 002d 0E       		.uleb128 0xe
 1942 002e 3A       		.uleb128 0x3a
 1943 002f 0B       		.uleb128 0xb
 1944 0030 3B       		.uleb128 0x3b
 1945 0031 0B       		.uleb128 0xb
 1946 0032 49       		.uleb128 0x49
 1947 0033 13       		.uleb128 0x13
 1948 0034 00       		.byte	0
 1949 0035 00       		.byte	0
 1950 0036 05       		.uleb128 0x5
 1951 0037 35       		.uleb128 0x35
 1952 0038 00       		.byte	0
 1953 0039 49       		.uleb128 0x49
 1954 003a 13       		.uleb128 0x13
 1955 003b 00       		.byte	0
 1956 003c 00       		.byte	0
 1957 003d 06       		.uleb128 0x6
 1958 003e 13       		.uleb128 0x13
 1959 003f 01       		.byte	0x1
 1960 0040 03       		.uleb128 0x3
 1961 0041 0E       		.uleb128 0xe
 1962 0042 0B       		.uleb128 0xb
 1963 0043 0B       		.uleb128 0xb
 1964 0044 3A       		.uleb128 0x3a
 1965 0045 0B       		.uleb128 0xb
ARM GAS  /var/folders/c6/c789hm653lg9vtl73krp73tm0000gn/T//ccdGzO1q.s 			page 51


 1966 0046 3B       		.uleb128 0x3b
 1967 0047 0B       		.uleb128 0xb
 1968 0048 01       		.uleb128 0x1
 1969 0049 13       		.uleb128 0x13
 1970 004a 00       		.byte	0
 1971 004b 00       		.byte	0
 1972 004c 07       		.uleb128 0x7
 1973 004d 0D       		.uleb128 0xd
 1974 004e 00       		.byte	0
 1975 004f 03       		.uleb128 0x3
 1976 0050 0E       		.uleb128 0xe
 1977 0051 3A       		.uleb128 0x3a
 1978 0052 0B       		.uleb128 0xb
 1979 0053 3B       		.uleb128 0x3b
 1980 0054 0B       		.uleb128 0xb
 1981 0055 49       		.uleb128 0x49
 1982 0056 13       		.uleb128 0x13
 1983 0057 38       		.uleb128 0x38
 1984 0058 0B       		.uleb128 0xb
 1985 0059 00       		.byte	0
 1986 005a 00       		.byte	0
 1987 005b 08       		.uleb128 0x8
 1988 005c 0D       		.uleb128 0xd
 1989 005d 00       		.byte	0
 1990 005e 03       		.uleb128 0x3
 1991 005f 08       		.uleb128 0x8
 1992 0060 3A       		.uleb128 0x3a
 1993 0061 0B       		.uleb128 0xb
 1994 0062 3B       		.uleb128 0x3b
 1995 0063 05       		.uleb128 0x5
 1996 0064 49       		.uleb128 0x49
 1997 0065 13       		.uleb128 0x13
 1998 0066 38       		.uleb128 0x38
 1999 0067 0B       		.uleb128 0xb
 2000 0068 00       		.byte	0
 2001 0069 00       		.byte	0
 2002 006a 09       		.uleb128 0x9
 2003 006b 0D       		.uleb128 0xd
 2004 006c 00       		.byte	0
 2005 006d 03       		.uleb128 0x3
 2006 006e 0E       		.uleb128 0xe
 2007 006f 3A       		.uleb128 0x3a
 2008 0070 0B       		.uleb128 0xb
 2009 0071 3B       		.uleb128 0x3b
 2010 0072 05       		.uleb128 0x5
 2011 0073 49       		.uleb128 0x49
 2012 0074 13       		.uleb128 0x13
 2013 0075 38       		.uleb128 0x38
 2014 0076 0B       		.uleb128 0xb
 2015 0077 00       		.byte	0
 2016 0078 00       		.byte	0
 2017 0079 0A       		.uleb128 0xa
 2018 007a 0F       		.uleb128 0xf
 2019 007b 00       		.byte	0
 2020 007c 0B       		.uleb128 0xb
 2021 007d 0B       		.uleb128 0xb
 2022 007e 49       		.uleb128 0x49
ARM GAS  /var/folders/c6/c789hm653lg9vtl73krp73tm0000gn/T//ccdGzO1q.s 			page 52


 2023 007f 13       		.uleb128 0x13
 2024 0080 00       		.byte	0
 2025 0081 00       		.byte	0
 2026 0082 0B       		.uleb128 0xb
 2027 0083 13       		.uleb128 0x13
 2028 0084 01       		.byte	0x1
 2029 0085 03       		.uleb128 0x3
 2030 0086 0E       		.uleb128 0xe
 2031 0087 0B       		.uleb128 0xb
 2032 0088 0B       		.uleb128 0xb
 2033 0089 3A       		.uleb128 0x3a
 2034 008a 0B       		.uleb128 0xb
 2035 008b 3B       		.uleb128 0x3b
 2036 008c 05       		.uleb128 0x5
 2037 008d 01       		.uleb128 0x1
 2038 008e 13       		.uleb128 0x13
 2039 008f 00       		.byte	0
 2040 0090 00       		.byte	0
 2041 0091 0C       		.uleb128 0xc
 2042 0092 15       		.uleb128 0x15
 2043 0093 01       		.byte	0x1
 2044 0094 27       		.uleb128 0x27
 2045 0095 19       		.uleb128 0x19
 2046 0096 01       		.uleb128 0x1
 2047 0097 13       		.uleb128 0x13
 2048 0098 00       		.byte	0
 2049 0099 00       		.byte	0
 2050 009a 0D       		.uleb128 0xd
 2051 009b 05       		.uleb128 0x5
 2052 009c 00       		.byte	0
 2053 009d 49       		.uleb128 0x49
 2054 009e 13       		.uleb128 0x13
 2055 009f 00       		.byte	0
 2056 00a0 00       		.byte	0
 2057 00a1 0E       		.uleb128 0xe
 2058 00a2 0F       		.uleb128 0xf
 2059 00a3 00       		.byte	0
 2060 00a4 0B       		.uleb128 0xb
 2061 00a5 0B       		.uleb128 0xb
 2062 00a6 00       		.byte	0
 2063 00a7 00       		.byte	0
 2064 00a8 0F       		.uleb128 0xf
 2065 00a9 13       		.uleb128 0x13
 2066 00aa 01       		.byte	0x1
 2067 00ab 03       		.uleb128 0x3
 2068 00ac 0E       		.uleb128 0xe
 2069 00ad 0B       		.uleb128 0xb
 2070 00ae 05       		.uleb128 0x5
 2071 00af 3A       		.uleb128 0x3a
 2072 00b0 0B       		.uleb128 0xb
 2073 00b1 3B       		.uleb128 0x3b
 2074 00b2 05       		.uleb128 0x5
 2075 00b3 01       		.uleb128 0x1
 2076 00b4 13       		.uleb128 0x13
 2077 00b5 00       		.byte	0
 2078 00b6 00       		.byte	0
 2079 00b7 10       		.uleb128 0x10
ARM GAS  /var/folders/c6/c789hm653lg9vtl73krp73tm0000gn/T//ccdGzO1q.s 			page 53


 2080 00b8 0D       		.uleb128 0xd
 2081 00b9 00       		.byte	0
 2082 00ba 03       		.uleb128 0x3
 2083 00bb 0E       		.uleb128 0xe
 2084 00bc 3A       		.uleb128 0x3a
 2085 00bd 0B       		.uleb128 0xb
 2086 00be 3B       		.uleb128 0x3b
 2087 00bf 05       		.uleb128 0x5
 2088 00c0 49       		.uleb128 0x49
 2089 00c1 13       		.uleb128 0x13
 2090 00c2 38       		.uleb128 0x38
 2091 00c3 05       		.uleb128 0x5
 2092 00c4 00       		.byte	0
 2093 00c5 00       		.byte	0
 2094 00c6 11       		.uleb128 0x11
 2095 00c7 0D       		.uleb128 0xd
 2096 00c8 00       		.byte	0
 2097 00c9 03       		.uleb128 0x3
 2098 00ca 08       		.uleb128 0x8
 2099 00cb 3A       		.uleb128 0x3a
 2100 00cc 0B       		.uleb128 0xb
 2101 00cd 3B       		.uleb128 0x3b
 2102 00ce 05       		.uleb128 0x5
 2103 00cf 49       		.uleb128 0x49
 2104 00d0 13       		.uleb128 0x13
 2105 00d1 38       		.uleb128 0x38
 2106 00d2 05       		.uleb128 0x5
 2107 00d3 00       		.byte	0
 2108 00d4 00       		.byte	0
 2109 00d5 12       		.uleb128 0x12
 2110 00d6 01       		.uleb128 0x1
 2111 00d7 01       		.byte	0x1
 2112 00d8 49       		.uleb128 0x49
 2113 00d9 13       		.uleb128 0x13
 2114 00da 01       		.uleb128 0x1
 2115 00db 13       		.uleb128 0x13
 2116 00dc 00       		.byte	0
 2117 00dd 00       		.byte	0
 2118 00de 13       		.uleb128 0x13
 2119 00df 21       		.uleb128 0x21
 2120 00e0 00       		.byte	0
 2121 00e1 49       		.uleb128 0x49
 2122 00e2 13       		.uleb128 0x13
 2123 00e3 2F       		.uleb128 0x2f
 2124 00e4 0B       		.uleb128 0xb
 2125 00e5 00       		.byte	0
 2126 00e6 00       		.byte	0
 2127 00e7 14       		.uleb128 0x14
 2128 00e8 0D       		.uleb128 0xd
 2129 00e9 00       		.byte	0
 2130 00ea 03       		.uleb128 0x3
 2131 00eb 08       		.uleb128 0x8
 2132 00ec 3A       		.uleb128 0x3a
 2133 00ed 0B       		.uleb128 0xb
 2134 00ee 3B       		.uleb128 0x3b
 2135 00ef 0B       		.uleb128 0xb
 2136 00f0 49       		.uleb128 0x49
ARM GAS  /var/folders/c6/c789hm653lg9vtl73krp73tm0000gn/T//ccdGzO1q.s 			page 54


 2137 00f1 13       		.uleb128 0x13
 2138 00f2 38       		.uleb128 0x38
 2139 00f3 0B       		.uleb128 0xb
 2140 00f4 00       		.byte	0
 2141 00f5 00       		.byte	0
 2142 00f6 15       		.uleb128 0x15
 2143 00f7 13       		.uleb128 0x13
 2144 00f8 01       		.byte	0x1
 2145 00f9 0B       		.uleb128 0xb
 2146 00fa 0B       		.uleb128 0xb
 2147 00fb 3A       		.uleb128 0x3a
 2148 00fc 0B       		.uleb128 0xb
 2149 00fd 3B       		.uleb128 0x3b
 2150 00fe 05       		.uleb128 0x5
 2151 00ff 01       		.uleb128 0x1
 2152 0100 13       		.uleb128 0x13
 2153 0101 00       		.byte	0
 2154 0102 00       		.byte	0
 2155 0103 16       		.uleb128 0x16
 2156 0104 16       		.uleb128 0x16
 2157 0105 00       		.byte	0
 2158 0106 03       		.uleb128 0x3
 2159 0107 0E       		.uleb128 0xe
 2160 0108 3A       		.uleb128 0x3a
 2161 0109 0B       		.uleb128 0xb
 2162 010a 3B       		.uleb128 0x3b
 2163 010b 05       		.uleb128 0x5
 2164 010c 49       		.uleb128 0x49
 2165 010d 13       		.uleb128 0x13
 2166 010e 00       		.byte	0
 2167 010f 00       		.byte	0
 2168 0110 17       		.uleb128 0x17
 2169 0111 13       		.uleb128 0x13
 2170 0112 01       		.byte	0x1
 2171 0113 0B       		.uleb128 0xb
 2172 0114 0B       		.uleb128 0xb
 2173 0115 3A       		.uleb128 0x3a
 2174 0116 0B       		.uleb128 0xb
 2175 0117 3B       		.uleb128 0x3b
 2176 0118 0B       		.uleb128 0xb
 2177 0119 01       		.uleb128 0x1
 2178 011a 13       		.uleb128 0x13
 2179 011b 00       		.byte	0
 2180 011c 00       		.byte	0
 2181 011d 18       		.uleb128 0x18
 2182 011e 13       		.uleb128 0x13
 2183 011f 01       		.byte	0x1
 2184 0120 0B       		.uleb128 0xb
 2185 0121 05       		.uleb128 0x5
 2186 0122 3A       		.uleb128 0x3a
 2187 0123 0B       		.uleb128 0xb
 2188 0124 3B       		.uleb128 0x3b
 2189 0125 0B       		.uleb128 0xb
 2190 0126 01       		.uleb128 0x1
 2191 0127 13       		.uleb128 0x13
 2192 0128 00       		.byte	0
 2193 0129 00       		.byte	0
ARM GAS  /var/folders/c6/c789hm653lg9vtl73krp73tm0000gn/T//ccdGzO1q.s 			page 55


 2194 012a 19       		.uleb128 0x19
 2195 012b 17       		.uleb128 0x17
 2196 012c 01       		.byte	0x1
 2197 012d 0B       		.uleb128 0xb
 2198 012e 0B       		.uleb128 0xb
 2199 012f 3A       		.uleb128 0x3a
 2200 0130 0B       		.uleb128 0xb
 2201 0131 3B       		.uleb128 0x3b
 2202 0132 0B       		.uleb128 0xb
 2203 0133 01       		.uleb128 0x1
 2204 0134 13       		.uleb128 0x13
 2205 0135 00       		.byte	0
 2206 0136 00       		.byte	0
 2207 0137 1A       		.uleb128 0x1a
 2208 0138 0D       		.uleb128 0xd
 2209 0139 00       		.byte	0
 2210 013a 03       		.uleb128 0x3
 2211 013b 0E       		.uleb128 0xe
 2212 013c 3A       		.uleb128 0x3a
 2213 013d 0B       		.uleb128 0xb
 2214 013e 3B       		.uleb128 0x3b
 2215 013f 05       		.uleb128 0x5
 2216 0140 49       		.uleb128 0x49
 2217 0141 13       		.uleb128 0x13
 2218 0142 00       		.byte	0
 2219 0143 00       		.byte	0
 2220 0144 1B       		.uleb128 0x1b
 2221 0145 26       		.uleb128 0x26
 2222 0146 00       		.byte	0
 2223 0147 49       		.uleb128 0x49
 2224 0148 13       		.uleb128 0x13
 2225 0149 00       		.byte	0
 2226 014a 00       		.byte	0
 2227 014b 1C       		.uleb128 0x1c
 2228 014c 2E       		.uleb128 0x2e
 2229 014d 00       		.byte	0
 2230 014e 03       		.uleb128 0x3
 2231 014f 0E       		.uleb128 0xe
 2232 0150 3A       		.uleb128 0x3a
 2233 0151 0B       		.uleb128 0xb
 2234 0152 3B       		.uleb128 0x3b
 2235 0153 0B       		.uleb128 0xb
 2236 0154 27       		.uleb128 0x27
 2237 0155 19       		.uleb128 0x19
 2238 0156 49       		.uleb128 0x49
 2239 0157 13       		.uleb128 0x13
 2240 0158 20       		.uleb128 0x20
 2241 0159 0B       		.uleb128 0xb
 2242 015a 00       		.byte	0
 2243 015b 00       		.byte	0
 2244 015c 1D       		.uleb128 0x1d
 2245 015d 2E       		.uleb128 0x2e
 2246 015e 01       		.byte	0x1
 2247 015f 03       		.uleb128 0x3
 2248 0160 0E       		.uleb128 0xe
 2249 0161 3A       		.uleb128 0x3a
 2250 0162 0B       		.uleb128 0xb
ARM GAS  /var/folders/c6/c789hm653lg9vtl73krp73tm0000gn/T//ccdGzO1q.s 			page 56


 2251 0163 3B       		.uleb128 0x3b
 2252 0164 0B       		.uleb128 0xb
 2253 0165 27       		.uleb128 0x27
 2254 0166 19       		.uleb128 0x19
 2255 0167 20       		.uleb128 0x20
 2256 0168 0B       		.uleb128 0xb
 2257 0169 01       		.uleb128 0x1
 2258 016a 13       		.uleb128 0x13
 2259 016b 00       		.byte	0
 2260 016c 00       		.byte	0
 2261 016d 1E       		.uleb128 0x1e
 2262 016e 05       		.uleb128 0x5
 2263 016f 00       		.byte	0
 2264 0170 03       		.uleb128 0x3
 2265 0171 0E       		.uleb128 0xe
 2266 0172 3A       		.uleb128 0x3a
 2267 0173 0B       		.uleb128 0xb
 2268 0174 3B       		.uleb128 0x3b
 2269 0175 0B       		.uleb128 0xb
 2270 0176 49       		.uleb128 0x49
 2271 0177 13       		.uleb128 0x13
 2272 0178 00       		.byte	0
 2273 0179 00       		.byte	0
 2274 017a 1F       		.uleb128 0x1f
 2275 017b 2E       		.uleb128 0x2e
 2276 017c 00       		.byte	0
 2277 017d 03       		.uleb128 0x3
 2278 017e 0E       		.uleb128 0xe
 2279 017f 3A       		.uleb128 0x3a
 2280 0180 0B       		.uleb128 0xb
 2281 0181 3B       		.uleb128 0x3b
 2282 0182 0B       		.uleb128 0xb
 2283 0183 27       		.uleb128 0x27
 2284 0184 19       		.uleb128 0x19
 2285 0185 20       		.uleb128 0x20
 2286 0186 0B       		.uleb128 0xb
 2287 0187 00       		.byte	0
 2288 0188 00       		.byte	0
 2289 0189 20       		.uleb128 0x20
 2290 018a 2E       		.uleb128 0x2e
 2291 018b 01       		.byte	0x1
 2292 018c 3F       		.uleb128 0x3f
 2293 018d 19       		.uleb128 0x19
 2294 018e 03       		.uleb128 0x3
 2295 018f 0E       		.uleb128 0xe
 2296 0190 3A       		.uleb128 0x3a
 2297 0191 0B       		.uleb128 0xb
 2298 0192 3B       		.uleb128 0x3b
 2299 0193 0B       		.uleb128 0xb
 2300 0194 27       		.uleb128 0x27
 2301 0195 19       		.uleb128 0x19
 2302 0196 11       		.uleb128 0x11
 2303 0197 01       		.uleb128 0x1
 2304 0198 12       		.uleb128 0x12
 2305 0199 06       		.uleb128 0x6
 2306 019a 40       		.uleb128 0x40
 2307 019b 18       		.uleb128 0x18
ARM GAS  /var/folders/c6/c789hm653lg9vtl73krp73tm0000gn/T//ccdGzO1q.s 			page 57


 2308 019c 9742     		.uleb128 0x2117
 2309 019e 19       		.uleb128 0x19
 2310 019f 01       		.uleb128 0x1
 2311 01a0 13       		.uleb128 0x13
 2312 01a1 00       		.byte	0
 2313 01a2 00       		.byte	0
 2314 01a3 21       		.uleb128 0x21
 2315 01a4 898201   		.uleb128 0x4109
 2316 01a7 00       		.byte	0
 2317 01a8 11       		.uleb128 0x11
 2318 01a9 01       		.uleb128 0x1
 2319 01aa 9542     		.uleb128 0x2115
 2320 01ac 19       		.uleb128 0x19
 2321 01ad 31       		.uleb128 0x31
 2322 01ae 13       		.uleb128 0x13
 2323 01af 00       		.byte	0
 2324 01b0 00       		.byte	0
 2325 01b1 22       		.uleb128 0x22
 2326 01b2 05       		.uleb128 0x5
 2327 01b3 00       		.byte	0
 2328 01b4 03       		.uleb128 0x3
 2329 01b5 0E       		.uleb128 0xe
 2330 01b6 3A       		.uleb128 0x3a
 2331 01b7 0B       		.uleb128 0xb
 2332 01b8 3B       		.uleb128 0x3b
 2333 01b9 0B       		.uleb128 0xb
 2334 01ba 49       		.uleb128 0x49
 2335 01bb 13       		.uleb128 0x13
 2336 01bc 02       		.uleb128 0x2
 2337 01bd 17       		.uleb128 0x17
 2338 01be 00       		.byte	0
 2339 01bf 00       		.byte	0
 2340 01c0 23       		.uleb128 0x23
 2341 01c1 34       		.uleb128 0x34
 2342 01c2 00       		.byte	0
 2343 01c3 03       		.uleb128 0x3
 2344 01c4 0E       		.uleb128 0xe
 2345 01c5 49       		.uleb128 0x49
 2346 01c6 13       		.uleb128 0x13
 2347 01c7 34       		.uleb128 0x34
 2348 01c8 19       		.uleb128 0x19
 2349 01c9 02       		.uleb128 0x2
 2350 01ca 18       		.uleb128 0x18
 2351 01cb 00       		.byte	0
 2352 01cc 00       		.byte	0
 2353 01cd 24       		.uleb128 0x24
 2354 01ce 1D       		.uleb128 0x1d
 2355 01cf 00       		.byte	0
 2356 01d0 31       		.uleb128 0x31
 2357 01d1 13       		.uleb128 0x13
 2358 01d2 52       		.uleb128 0x52
 2359 01d3 01       		.uleb128 0x1
 2360 01d4 55       		.uleb128 0x55
 2361 01d5 17       		.uleb128 0x17
 2362 01d6 58       		.uleb128 0x58
 2363 01d7 0B       		.uleb128 0xb
 2364 01d8 59       		.uleb128 0x59
ARM GAS  /var/folders/c6/c789hm653lg9vtl73krp73tm0000gn/T//ccdGzO1q.s 			page 58


 2365 01d9 0B       		.uleb128 0xb
 2366 01da 00       		.byte	0
 2367 01db 00       		.byte	0
 2368 01dc 25       		.uleb128 0x25
 2369 01dd 1D       		.uleb128 0x1d
 2370 01de 01       		.byte	0x1
 2371 01df 31       		.uleb128 0x31
 2372 01e0 13       		.uleb128 0x13
 2373 01e1 11       		.uleb128 0x11
 2374 01e2 01       		.uleb128 0x1
 2375 01e3 12       		.uleb128 0x12
 2376 01e4 06       		.uleb128 0x6
 2377 01e5 58       		.uleb128 0x58
 2378 01e6 0B       		.uleb128 0xb
 2379 01e7 59       		.uleb128 0x59
 2380 01e8 0B       		.uleb128 0xb
 2381 01e9 01       		.uleb128 0x1
 2382 01ea 13       		.uleb128 0x13
 2383 01eb 00       		.byte	0
 2384 01ec 00       		.byte	0
 2385 01ed 26       		.uleb128 0x26
 2386 01ee 05       		.uleb128 0x5
 2387 01ef 00       		.byte	0
 2388 01f0 31       		.uleb128 0x31
 2389 01f1 13       		.uleb128 0x13
 2390 01f2 02       		.uleb128 0x2
 2391 01f3 17       		.uleb128 0x17
 2392 01f4 00       		.byte	0
 2393 01f5 00       		.byte	0
 2394 01f6 27       		.uleb128 0x27
 2395 01f7 898201   		.uleb128 0x4109
 2396 01fa 01       		.byte	0x1
 2397 01fb 11       		.uleb128 0x11
 2398 01fc 01       		.uleb128 0x1
 2399 01fd 31       		.uleb128 0x31
 2400 01fe 13       		.uleb128 0x13
 2401 01ff 00       		.byte	0
 2402 0200 00       		.byte	0
 2403 0201 28       		.uleb128 0x28
 2404 0202 8A8201   		.uleb128 0x410a
 2405 0205 00       		.byte	0
 2406 0206 02       		.uleb128 0x2
 2407 0207 18       		.uleb128 0x18
 2408 0208 9142     		.uleb128 0x2111
 2409 020a 18       		.uleb128 0x18
 2410 020b 00       		.byte	0
 2411 020c 00       		.byte	0
 2412 020d 29       		.uleb128 0x29
 2413 020e 1D       		.uleb128 0x1d
 2414 020f 00       		.byte	0
 2415 0210 31       		.uleb128 0x31
 2416 0211 13       		.uleb128 0x13
 2417 0212 11       		.uleb128 0x11
 2418 0213 01       		.uleb128 0x1
 2419 0214 12       		.uleb128 0x12
 2420 0215 06       		.uleb128 0x6
 2421 0216 58       		.uleb128 0x58
ARM GAS  /var/folders/c6/c789hm653lg9vtl73krp73tm0000gn/T//ccdGzO1q.s 			page 59


 2422 0217 0B       		.uleb128 0xb
 2423 0218 59       		.uleb128 0x59
 2424 0219 0B       		.uleb128 0xb
 2425 021a 00       		.byte	0
 2426 021b 00       		.byte	0
 2427 021c 2A       		.uleb128 0x2a
 2428 021d 2E       		.uleb128 0x2e
 2429 021e 01       		.byte	0x1
 2430 021f 3F       		.uleb128 0x3f
 2431 0220 19       		.uleb128 0x19
 2432 0221 03       		.uleb128 0x3
 2433 0222 0E       		.uleb128 0xe
 2434 0223 3A       		.uleb128 0x3a
 2435 0224 0B       		.uleb128 0xb
 2436 0225 3B       		.uleb128 0x3b
 2437 0226 0B       		.uleb128 0xb
 2438 0227 27       		.uleb128 0x27
 2439 0228 19       		.uleb128 0x19
 2440 0229 49       		.uleb128 0x49
 2441 022a 13       		.uleb128 0x13
 2442 022b 11       		.uleb128 0x11
 2443 022c 01       		.uleb128 0x1
 2444 022d 12       		.uleb128 0x12
 2445 022e 06       		.uleb128 0x6
 2446 022f 40       		.uleb128 0x40
 2447 0230 18       		.uleb128 0x18
 2448 0231 9742     		.uleb128 0x2117
 2449 0233 19       		.uleb128 0x19
 2450 0234 01       		.uleb128 0x1
 2451 0235 13       		.uleb128 0x13
 2452 0236 00       		.byte	0
 2453 0237 00       		.byte	0
 2454 0238 2B       		.uleb128 0x2b
 2455 0239 34       		.uleb128 0x34
 2456 023a 00       		.byte	0
 2457 023b 03       		.uleb128 0x3
 2458 023c 0E       		.uleb128 0xe
 2459 023d 3A       		.uleb128 0x3a
 2460 023e 0B       		.uleb128 0xb
 2461 023f 3B       		.uleb128 0x3b
 2462 0240 05       		.uleb128 0x5
 2463 0241 49       		.uleb128 0x49
 2464 0242 13       		.uleb128 0x13
 2465 0243 3F       		.uleb128 0x3f
 2466 0244 19       		.uleb128 0x19
 2467 0245 3C       		.uleb128 0x3c
 2468 0246 19       		.uleb128 0x19
 2469 0247 00       		.byte	0
 2470 0248 00       		.byte	0
 2471 0249 2C       		.uleb128 0x2c
 2472 024a 34       		.uleb128 0x34
 2473 024b 00       		.byte	0
 2474 024c 03       		.uleb128 0x3
 2475 024d 08       		.uleb128 0x8
 2476 024e 3A       		.uleb128 0x3a
 2477 024f 0B       		.uleb128 0xb
 2478 0250 3B       		.uleb128 0x3b
ARM GAS  /var/folders/c6/c789hm653lg9vtl73krp73tm0000gn/T//ccdGzO1q.s 			page 60


 2479 0251 05       		.uleb128 0x5
 2480 0252 49       		.uleb128 0x49
 2481 0253 13       		.uleb128 0x13
 2482 0254 3F       		.uleb128 0x3f
 2483 0255 19       		.uleb128 0x19
 2484 0256 3C       		.uleb128 0x3c
 2485 0257 19       		.uleb128 0x19
 2486 0258 00       		.byte	0
 2487 0259 00       		.byte	0
 2488 025a 2D       		.uleb128 0x2d
 2489 025b 2E       		.uleb128 0x2e
 2490 025c 00       		.byte	0
 2491 025d 3F       		.uleb128 0x3f
 2492 025e 19       		.uleb128 0x19
 2493 025f 03       		.uleb128 0x3
 2494 0260 0E       		.uleb128 0xe
 2495 0261 3A       		.uleb128 0x3a
 2496 0262 0B       		.uleb128 0xb
 2497 0263 3B       		.uleb128 0x3b
 2498 0264 0B       		.uleb128 0xb
 2499 0265 27       		.uleb128 0x27
 2500 0266 19       		.uleb128 0x19
 2501 0267 3C       		.uleb128 0x3c
 2502 0268 19       		.uleb128 0x19
 2503 0269 00       		.byte	0
 2504 026a 00       		.byte	0
 2505 026b 2E       		.uleb128 0x2e
 2506 026c 2E       		.uleb128 0x2e
 2507 026d 01       		.byte	0x1
 2508 026e 3F       		.uleb128 0x3f
 2509 026f 19       		.uleb128 0x19
 2510 0270 03       		.uleb128 0x3
 2511 0271 0E       		.uleb128 0xe
 2512 0272 3A       		.uleb128 0x3a
 2513 0273 0B       		.uleb128 0xb
 2514 0274 3B       		.uleb128 0x3b
 2515 0275 05       		.uleb128 0x5
 2516 0276 27       		.uleb128 0x27
 2517 0277 19       		.uleb128 0x19
 2518 0278 3C       		.uleb128 0x3c
 2519 0279 19       		.uleb128 0x19
 2520 027a 00       		.byte	0
 2521 027b 00       		.byte	0
 2522 027c 00       		.byte	0
 2523              		.section	.debug_loc,"",%progbits
 2524              	.Ldebug_loc0:
 2525              	.LLST0:
 2526 0000 00000000 		.4byte	.LVL1
 2527 0004 10000000 		.4byte	.LVL2
 2528 0008 0100     		.2byte	0x1
 2529 000a 50       		.byte	0x50
 2530 000b 10000000 		.4byte	.LVL2
 2531 000f 24000000 		.4byte	.LVL4
 2532 0013 0100     		.2byte	0x1
 2533 0015 54       		.byte	0x54
 2534 0016 24000000 		.4byte	.LVL4
 2535 001a 28000000 		.4byte	.LFE261
ARM GAS  /var/folders/c6/c789hm653lg9vtl73krp73tm0000gn/T//ccdGzO1q.s 			page 61


 2536 001e 0400     		.2byte	0x4
 2537 0020 F3       		.byte	0xf3
 2538 0021 01       		.uleb128 0x1
 2539 0022 50       		.byte	0x50
 2540 0023 9F       		.byte	0x9f
 2541 0024 00000000 		.4byte	0
 2542 0028 00000000 		.4byte	0
 2543              	.LLST1:
 2544 002c 14000000 		.4byte	.LVL3
 2545 0030 24000000 		.4byte	.LVL4
 2546 0034 0100     		.2byte	0x1
 2547 0036 54       		.byte	0x54
 2548 0037 24000000 		.4byte	.LVL4
 2549 003b 28000000 		.4byte	.LFE261
 2550 003f 0400     		.2byte	0x4
 2551 0041 F3       		.byte	0xf3
 2552 0042 01       		.uleb128 0x1
 2553 0043 50       		.byte	0x50
 2554 0044 9F       		.byte	0x9f
 2555 0045 00000000 		.4byte	0
 2556 0049 00000000 		.4byte	0
 2557              	.LLST2:
 2558 004d 00000000 		.4byte	.LVL5
 2559 0051 10000000 		.4byte	.LVL6
 2560 0055 0100     		.2byte	0x1
 2561 0057 50       		.byte	0x50
 2562 0058 10000000 		.4byte	.LVL6
 2563 005c 1C000000 		.4byte	.LVL8
 2564 0060 0100     		.2byte	0x1
 2565 0062 54       		.byte	0x54
 2566 0063 1C000000 		.4byte	.LVL8
 2567 0067 20000000 		.4byte	.LFE263
 2568 006b 0200     		.2byte	0x2
 2569 006d 73       		.byte	0x73
 2570 006e 34       		.sleb128 52
 2571 006f 00000000 		.4byte	0
 2572 0073 00000000 		.4byte	0
 2573              	.LLST3:
 2574 0077 14000000 		.4byte	.LVL7
 2575 007b 1C000000 		.4byte	.LVL8
 2576 007f 0100     		.2byte	0x1
 2577 0081 54       		.byte	0x54
 2578 0082 1C000000 		.4byte	.LVL8
 2579 0086 20000000 		.4byte	.LFE263
 2580 008a 0200     		.2byte	0x2
 2581 008c 73       		.byte	0x73
 2582 008d 34       		.sleb128 52
 2583 008e 00000000 		.4byte	0
 2584 0092 00000000 		.4byte	0
 2585              		.section	.debug_aranges,"",%progbits
 2586 0000 3C000000 		.4byte	0x3c
 2587 0004 0200     		.2byte	0x2
 2588 0006 00000000 		.4byte	.Ldebug_info0
 2589 000a 04       		.byte	0x4
 2590 000b 00       		.byte	0
 2591 000c 0000     		.2byte	0
 2592 000e 0000     		.2byte	0
ARM GAS  /var/folders/c6/c789hm653lg9vtl73krp73tm0000gn/T//ccdGzO1q.s 			page 62


 2593 0010 00000000 		.4byte	.LFB260
 2594 0014 04000000 		.4byte	.LFE260-.LFB260
 2595 0018 00000000 		.4byte	.LFB261
 2596 001c 28000000 		.4byte	.LFE261-.LFB261
 2597 0020 00000000 		.4byte	.LFB262
 2598 0024 0A000000 		.4byte	.LFE262-.LFB262
 2599 0028 00000000 		.4byte	.LFB263
 2600 002c 20000000 		.4byte	.LFE263-.LFB263
 2601 0030 00000000 		.4byte	.LFB264
 2602 0034 20000000 		.4byte	.LFE264-.LFB264
 2603 0038 00000000 		.4byte	0
 2604 003c 00000000 		.4byte	0
 2605              		.section	.debug_ranges,"",%progbits
 2606              	.Ldebug_ranges0:
 2607 0000 00000000 		.4byte	.LBB16
 2608 0004 04000000 		.4byte	.LBE16
 2609 0008 06000000 		.4byte	.LBB19
 2610 000c 08000000 		.4byte	.LBE19
 2611 0010 00000000 		.4byte	0
 2612 0014 00000000 		.4byte	0
 2613 0018 00000000 		.4byte	.LBB24
 2614 001c 04000000 		.4byte	.LBE24
 2615 0020 06000000 		.4byte	.LBB27
 2616 0024 08000000 		.4byte	.LBE27
 2617 0028 00000000 		.4byte	0
 2618 002c 00000000 		.4byte	0
 2619 0030 00000000 		.4byte	.LFB260
 2620 0034 04000000 		.4byte	.LFE260
 2621 0038 00000000 		.4byte	.LFB261
 2622 003c 28000000 		.4byte	.LFE261
 2623 0040 00000000 		.4byte	.LFB262
 2624 0044 0A000000 		.4byte	.LFE262
 2625 0048 00000000 		.4byte	.LFB263
 2626 004c 20000000 		.4byte	.LFE263
 2627 0050 00000000 		.4byte	.LFB264
 2628 0054 20000000 		.4byte	.LFE264
 2629 0058 00000000 		.4byte	0
 2630 005c 00000000 		.4byte	0
 2631              		.section	.debug_line,"",%progbits
 2632              	.Ldebug_line0:
 2633 0000 FC020000 		.section	.debug_str,"MS",%progbits,1
 2633      02003102 
 2633      00000201 
 2633      FB0E0D00 
 2633      01010101 
 2634              	.LASF153:
 2635 0000 474E5520 		.ascii	"GNU C 4.8.4 20140725 (release) [ARM/embedded-4_8-br"
 2635      4320342E 
 2635      382E3420 
 2635      32303134 
 2635      30373235 
 2636 0033 616E6368 		.ascii	"anch revision 213147] -mcpu=cortex-m4 -mno-thumb-in"
 2636      20726576 
 2636      6973696F 
 2636      6E203231 
 2636      33313437 
 2637 0066 74657277 		.ascii	"terwork -mthumb -ggdb -O2 -fomit-frame-pointer -fal"
ARM GAS  /var/folders/c6/c789hm653lg9vtl73krp73tm0000gn/T//ccdGzO1q.s 			page 63


 2637      6F726B20 
 2637      2D6D7468 
 2637      756D6220 
 2637      2D676764 
 2638 0099 69676E2D 		.ascii	"ign-functions=16 -ffunction-sections -fdata-section"
 2638      66756E63 
 2638      74696F6E 
 2638      733D3136 
 2638      202D6666 
 2639 00cc 73202D66 		.ascii	"s -fno-common -flto\000"
 2639      6E6F2D63 
 2639      6F6D6D6F 
 2639      6E202D66 
 2639      6C746F00 
 2640              	.LASF107:
 2641 00e0 74625F70 		.ascii	"tb_ptr\000"
 2641      747200
 2642              	.LASF54:
 2643 00e7 72656164 		.ascii	"ready_list_t\000"
 2643      795F6C69 
 2643      73745F74 
 2643      00
 2644              	.LASF92:
 2645 00f4 44494552 		.ascii	"DIER\000"
 2645      00
 2646              	.LASF125:
 2647 00f9 77747472 		.ascii	"wttrp\000"
 2647      7000
 2648              	.LASF122:
 2649 00ff 7264796D 		.ascii	"rdymsg\000"
 2649      736700
 2650              	.LASF16:
 2651 0106 75696E74 		.ascii	"uint64_t\000"
 2651      36345F74 
 2651      00
 2652              	.LASF84:
 2653 010f 6B65726E 		.ascii	"kernel_stats\000"
 2653      656C5F73 
 2653      74617473 
 2653      00
 2654              	.LASF5:
 2655 011c 5F5F7569 		.ascii	"__uint8_t\000"
 2655      6E74385F 
 2655      7400
 2656              	.LASF90:
 2657 0126 706F7274 		.ascii	"port_intctx\000"
 2657      5F696E74 
 2657      63747800 
 2658              	.LASF53:
 2659 0132 63685F74 		.ascii	"ch_threads_queue\000"
 2659      68726561 
 2659      64735F71 
 2659      75657565 
 2659      00
 2660              	.LASF73:
 2661 0143 73797374 		.ascii	"system_debug_t\000"
 2661      656D5F64 
ARM GAS  /var/folders/c6/c789hm653lg9vtl73krp73tm0000gn/T//ccdGzO1q.s 			page 64


 2661      65627567 
 2661      5F7400
 2662              	.LASF113:
 2663 0152 776F7273 		.ascii	"worst\000"
 2663      7400
 2664              	.LASF116:
 2665 0158 74696D65 		.ascii	"time_measurement_t\000"
 2665      5F6D6561 
 2665      73757265 
 2665      6D656E74 
 2665      5F7400
 2666              	.LASF12:
 2667 016b 6C6F6E67 		.ascii	"long long unsigned int\000"
 2667      206C6F6E 
 2667      6720756E 
 2667      7369676E 
 2667      65642069 
 2668              	.LASF109:
 2669 0182 63685F74 		.ascii	"ch_trace_buffer_t\000"
 2669      72616365 
 2669      5F627566 
 2669      6665725F 
 2669      7400
 2670              	.LASF104:
 2671 0194 73655F73 		.ascii	"se_state\000"
 2671      74617465 
 2671      00
 2672              	.LASF123:
 2673 019d 65786974 		.ascii	"exitcode\000"
 2673      636F6465 
 2673      00
 2674              	.LASF83:
 2675 01a6 6D61696E 		.ascii	"mainthread\000"
 2675      74687265 
 2675      616400
 2676              	.LASF70:
 2677 01b1 76697274 		.ascii	"virtual_timers_list_t\000"
 2677      75616C5F 
 2677      74696D65 
 2677      72735F6C 
 2677      6973745F 
 2678              	.LASF152:
 2679 01c7 49544D5F 		.ascii	"ITM_RxBuffer\000"
 2679      52784275 
 2679      66666572 
 2679      00
 2680              	.LASF158:
 2681 01d4 73745F6C 		.ascii	"st_lld_init\000"
 2681      6C645F69 
 2681      6E697400 
 2682              	.LASF96:
 2683 01e0 42445452 		.ascii	"BDTR\000"
 2683      00
 2684              	.LASF18:
 2685 01e5 72747469 		.ascii	"rttime_t\000"
 2685      6D655F74 
 2685      00
ARM GAS  /var/folders/c6/c789hm653lg9vtl73krp73tm0000gn/T//ccdGzO1q.s 			page 65


 2686              	.LASF31:
 2687 01ee 705F7072 		.ascii	"p_prio\000"
 2687      696F00
 2688              	.LASF93:
 2689 01f5 43434D52 		.ascii	"CCMR1\000"
 2689      3100
 2690              	.LASF94:
 2691 01fb 43434D52 		.ascii	"CCMR2\000"
 2691      3200
 2692              	.LASF98:
 2693 0201 43434D52 		.ascii	"CCMR3\000"
 2693      3300
 2694              	.LASF1:
 2695 0207 7369676E 		.ascii	"signed char\000"
 2695      65642063 
 2695      68617200 
 2696              	.LASF101:
 2697 0213 73655F74 		.ascii	"se_time\000"
 2697      696D6500 
 2698              	.LASF133:
 2699 021b 6D5F7175 		.ascii	"m_queue\000"
 2699      65756500 
 2700              	.LASF82:
 2701 0223 76746C69 		.ascii	"vtlist\000"
 2701      737400
 2702              	.LASF80:
 2703 022a 63685F73 		.ascii	"ch_system\000"
 2703      79737465 
 2703      6D00
 2704              	.LASF7:
 2705 0234 6C6F6E67 		.ascii	"long int\000"
 2705      20696E74 
 2705      00
 2706              	.LASF19:
 2707 023d 746D6F64 		.ascii	"tmode_t\000"
 2707      655F7400 
 2708              	.LASF20:
 2709 0245 74737461 		.ascii	"tstate_t\000"
 2709      74655F74 
 2709      00
 2710              	.LASF95:
 2711 024e 43434552 		.ascii	"CCER\000"
 2711      00
 2712              	.LASF102:
 2713 0253 73655F74 		.ascii	"se_tp\000"
 2713      7000
 2714              	.LASF10:
 2715 0259 6C6F6E67 		.ascii	"long long int\000"
 2715      206C6F6E 
 2715      6720696E 
 2715      7400
 2716              	.LASF33:
 2717 0267 705F6E65 		.ascii	"p_newer\000"
 2717      77657200 
 2718              	.LASF130:
 2719 026f 735F7175 		.ascii	"s_queue\000"
 2719      65756500 
ARM GAS  /var/folders/c6/c789hm653lg9vtl73krp73tm0000gn/T//ccdGzO1q.s 			page 66


 2720              	.LASF4:
 2721 0277 73686F72 		.ascii	"short unsigned int\000"
 2721      7420756E 
 2721      7369676E 
 2721      65642069 
 2721      6E7400
 2722              	.LASF142:
 2723 028a 73745F6C 		.ascii	"st_lld_is_alarm_active\000"
 2723      6C645F69 
 2723      735F616C 
 2723      61726D5F 
 2723      61637469 
 2724              	.LASF106:
 2725 02a1 74625F73 		.ascii	"tb_size\000"
 2725      697A6500 
 2726              	.LASF59:
 2727 02a9 725F6E65 		.ascii	"r_newer\000"
 2727      77657200 
 2728              	.LASF46:
 2729 02b1 705F6D70 		.ascii	"p_mpool\000"
 2729      6F6F6C00 
 2730              	.LASF87:
 2731 02b9 72656761 		.ascii	"regarm_t\000"
 2731      726D5F74 
 2731      00
 2732              	.LASF66:
 2733 02c2 76745F70 		.ascii	"vt_prev\000"
 2733      72657600 
 2734              	.LASF159:
 2735 02ca 63685379 		.ascii	"chSysHalt\000"
 2735      7348616C 
 2735      7400
 2736              	.LASF74:
 2737 02d4 63685F73 		.ascii	"ch_system_debug\000"
 2737      79737465 
 2737      6D5F6465 
 2737      62756700 
 2738              	.LASF137:
 2739 02e4 6D757465 		.ascii	"mutex_t\000"
 2739      785F7400 
 2740              	.LASF77:
 2741 02ec 6C6F636B 		.ascii	"lock_cnt\000"
 2741      5F636E74 
 2741      00
 2742              	.LASF85:
 2743 02f5 69646C65 		.ascii	"idle_thread_wa\000"
 2743      5F746872 
 2743      6561645F 
 2743      776100
 2744              	.LASF25:
 2745 0304 636E745F 		.ascii	"cnt_t\000"
 2745      7400
 2746              	.LASF36:
 2747 030a 705F7374 		.ascii	"p_stklimit\000"
 2747      6B6C696D 
 2747      697400
 2748              	.LASF0:
ARM GAS  /var/folders/c6/c789hm653lg9vtl73krp73tm0000gn/T//ccdGzO1q.s 			page 67


 2749 0315 756E7369 		.ascii	"unsigned int\000"
 2749      676E6564 
 2749      20696E74 
 2749      00
 2750              	.LASF65:
 2751 0322 76745F6E 		.ascii	"vt_next\000"
 2751      65787400 
 2752              	.LASF126:
 2753 032a 77747365 		.ascii	"wtsemp\000"
 2753      6D7000
 2754              	.LASF154:
 2755 0331 2E2E2F2E 		.ascii	"../../../os/hal/src/st.c\000"
 2755      2E2F2E2E 
 2755      2F6F732F 
 2755      68616C2F 
 2755      7372632F 
 2756              	.LASF41:
 2757 034a 705F6D73 		.ascii	"p_msgqueue\000"
 2757      67717565 
 2757      756500
 2758              	.LASF117:
 2759 0355 6E5F6972 		.ascii	"n_irq\000"
 2759      7100
 2760              	.LASF131:
 2761 035b 735F636E 		.ascii	"s_cnt\000"
 2761      7400
 2762              	.LASF155:
 2763 0361 2F557365 		.ascii	"/Users/savonetj/Downloads/ChibiOS_3.0.2/demos/STM32"
 2763      72732F73 
 2763      61766F6E 
 2763      65746A2F 
 2763      446F776E 
 2764 0394 2F52542D 		.ascii	"/RT-STM32F407-OLIMEX_E407-LWIP-FATFS-USB\000"
 2764      53544D33 
 2764      32463430 
 2764      372D4F4C 
 2764      494D4558 
 2765              	.LASF91:
 2766 03bd 534D4352 		.ascii	"SMCR\000"
 2766      00
 2767              	.LASF121:
 2768 03c2 6B65726E 		.ascii	"kernel_stats_t\000"
 2768      656C5F73 
 2768      74617473 
 2768      5F7400
 2769              	.LASF50:
 2770 03d1 63685F74 		.ascii	"ch_thread\000"
 2770      68726561 
 2770      6400
 2771              	.LASF23:
 2772 03db 6D73675F 		.ascii	"msg_t\000"
 2772      7400
 2773              	.LASF114:
 2774 03e1 6C617374 		.ascii	"last\000"
 2774      00
 2775              	.LASF26:
 2776 03e6 75636E74 		.ascii	"ucnt_t\000"
ARM GAS  /var/folders/c6/c789hm653lg9vtl73krp73tm0000gn/T//ccdGzO1q.s 			page 68


 2776      5F7400
 2777              	.LASF79:
 2778 03ed 63685F73 		.ascii	"ch_system_t\000"
 2778      79737465 
 2778      6D5F7400 
 2779              	.LASF149:
 2780 03f9 5F5F6675 		.ascii	"__func__.7803\000"
 2780      6E635F5F 
 2780      2E373830 
 2780      3300
 2781              	.LASF100:
 2782 0407 73746D33 		.ascii	"stm32_tim_t\000"
 2782      325F7469 
 2782      6D5F7400 
 2783              	.LASF120:
 2784 0413 6D5F6372 		.ascii	"m_crit_isr\000"
 2784      69745F69 
 2784      737200
 2785              	.LASF55:
 2786 041e 63685F72 		.ascii	"ch_ready_list\000"
 2786      65616479 
 2786      5F6C6973 
 2786      7400
 2787              	.LASF24:
 2788 042c 6576656E 		.ascii	"eventmask_t\000"
 2788      746D6173 
 2788      6B5F7400 
 2789              	.LASF6:
 2790 0438 5F5F696E 		.ascii	"__int32_t\000"
 2790      7433325F 
 2790      7400
 2791              	.LASF139:
 2792 0442 73745F6C 		.ascii	"st_lld_start_alarm\000"
 2792      6C645F73 
 2792      74617274 
 2792      5F616C61 
 2792      726D00
 2793              	.LASF88:
 2794 0455 73746B61 		.ascii	"stkalign_t\000"
 2794      6C69676E 
 2794      5F7400
 2795              	.LASF40:
 2796 0460 705F7761 		.ascii	"p_waiting\000"
 2796      6974696E 
 2796      6700
 2797              	.LASF86:
 2798 046a 73697A65 		.ascii	"sizetype\000"
 2798      74797065 
 2798      00
 2799              	.LASF48:
 2800 0473 74687265 		.ascii	"thread_reference_t\000"
 2800      61645F72 
 2800      65666572 
 2800      656E6365 
 2800      5F7400
 2801              	.LASF71:
 2802 0486 63685F76 		.ascii	"ch_virtual_timers_list\000"
ARM GAS  /var/folders/c6/c789hm653lg9vtl73krp73tm0000gn/T//ccdGzO1q.s 			page 69


 2802      69727475 
 2802      616C5F74 
 2802      696D6572 
 2802      735F6C69 
 2803              	.LASF105:
 2804 049d 63685F73 		.ascii	"ch_swc_event_t\000"
 2804      77635F65 
 2804      76656E74 
 2804      5F7400
 2805              	.LASF72:
 2806 04ac 76745F6C 		.ascii	"vt_lasttime\000"
 2806      61737474 
 2806      696D6500 
 2807              	.LASF34:
 2808 04b8 705F6F6C 		.ascii	"p_older\000"
 2808      64657200 
 2809              	.LASF144:
 2810 04c0 7374496E 		.ascii	"stInit\000"
 2810      697400
 2811              	.LASF58:
 2812 04c7 725F6374 		.ascii	"r_ctx\000"
 2812      7800
 2813              	.LASF150:
 2814 04cd 5F5F6675 		.ascii	"__func__.7810\000"
 2814      6E635F5F 
 2814      2E373831 
 2814      3000
 2815              	.LASF111:
 2816 04db 746D5F63 		.ascii	"tm_calibration_t\000"
 2816      616C6962 
 2816      72617469 
 2816      6F6E5F74 
 2816      00
 2817              	.LASF151:
 2818 04ec 5F5F6675 		.ascii	"__func__.7814\000"
 2818      6E635F5F 
 2818      2E373831 
 2818      3400
 2819              	.LASF141:
 2820 04fa 74696D65 		.ascii	"time\000"
 2820      00
 2821              	.LASF61:
 2822 04ff 725F6375 		.ascii	"r_current\000"
 2822      7272656E 
 2822      7400
 2823              	.LASF60:
 2824 0509 725F6F6C 		.ascii	"r_older\000"
 2824      64657200 
 2825              	.LASF11:
 2826 0511 5F5F7569 		.ascii	"__uint64_t\000"
 2826      6E743634 
 2826      5F7400
 2827              	.LASF115:
 2828 051c 63756D75 		.ascii	"cumulative\000"
 2828      6C617469 
 2828      766500
 2829              	.LASF21:
ARM GAS  /var/folders/c6/c789hm653lg9vtl73krp73tm0000gn/T//ccdGzO1q.s 			page 70


 2830 0527 74726566 		.ascii	"trefs_t\000"
 2830      735F7400 
 2831              	.LASF108:
 2832 052f 74625F62 		.ascii	"tb_buffer\000"
 2832      75666665 
 2832      7200
 2833              	.LASF63:
 2834 0539 76697274 		.ascii	"virtual_timer_t\000"
 2834      75616C5F 
 2834      74696D65 
 2834      725F7400 
 2835              	.LASF30:
 2836 0549 705F7072 		.ascii	"p_prev\000"
 2836      657600
 2837              	.LASF22:
 2838 0550 74707269 		.ascii	"tprio_t\000"
 2838      6F5F7400 
 2839              	.LASF118:
 2840 0558 6E5F6374 		.ascii	"n_ctxswc\000"
 2840      78737763 
 2840      00
 2841              	.LASF138:
 2842 0561 5F426F6F 		.ascii	"_Bool\000"
 2842      6C00
 2843              	.LASF14:
 2844 0567 696E7433 		.ascii	"int32_t\000"
 2844      325F7400 
 2845              	.LASF2:
 2846 056f 756E7369 		.ascii	"unsigned char\000"
 2846      676E6564 
 2846      20636861 
 2846      7200
 2847              	.LASF44:
 2848 057d 705F6D74 		.ascii	"p_mtxlist\000"
 2848      786C6973 
 2848      7400
 2849              	.LASF3:
 2850 0587 73686F72 		.ascii	"short int\000"
 2850      7420696E 
 2850      7400
 2851              	.LASF37:
 2852 0591 705F7374 		.ascii	"p_state\000"
 2852      61746500 
 2853              	.LASF57:
 2854 0599 725F7072 		.ascii	"r_prio\000"
 2854      696F00
 2855              	.LASF128:
 2856 05a0 65776D61 		.ascii	"ewmask\000"
 2856      736B00
 2857              	.LASF29:
 2858 05a7 705F6E65 		.ascii	"p_next\000"
 2858      787400
 2859              	.LASF13:
 2860 05ae 75696E74 		.ascii	"uint8_t\000"
 2860      385F7400 
 2861              	.LASF47:
 2862 05b6 705F7374 		.ascii	"p_stats\000"
ARM GAS  /var/folders/c6/c789hm653lg9vtl73krp73tm0000gn/T//ccdGzO1q.s 			page 71


 2862      61747300 
 2863              	.LASF64:
 2864 05be 63685F76 		.ascii	"ch_virtual_timer\000"
 2864      69727475 
 2864      616C5F74 
 2864      696D6572 
 2864      00
 2865              	.LASF143:
 2866 05cf 73745F6C 		.ascii	"st_lld_get_alarm\000"
 2866      6C645F67 
 2866      65745F61 
 2866      6C61726D 
 2866      00
 2867              	.LASF129:
 2868 05e0 63685F73 		.ascii	"ch_semaphore\000"
 2868      656D6170 
 2868      686F7265 
 2868      00
 2869              	.LASF99:
 2870 05ed 43435852 		.ascii	"CCXR\000"
 2870      00
 2871              	.LASF43:
 2872 05f2 705F6570 		.ascii	"p_epending\000"
 2872      656E6469 
 2872      6E6700
 2873              	.LASF15:
 2874 05fd 75696E74 		.ascii	"uint32_t\000"
 2874      33325F74 
 2874      00
 2875              	.LASF127:
 2876 0606 77746D74 		.ascii	"wtmtxp\000"
 2876      787000
 2877              	.LASF56:
 2878 060d 725F7175 		.ascii	"r_queue\000"
 2878      65756500 
 2879              	.LASF67:
 2880 0615 76745F64 		.ascii	"vt_delta\000"
 2880      656C7461 
 2880      00
 2881              	.LASF51:
 2882 061e 63685F74 		.ascii	"ch_threads_list\000"
 2882      68726561 
 2882      64735F6C 
 2882      69737400 
 2883              	.LASF9:
 2884 062e 6C6F6E67 		.ascii	"long unsigned int\000"
 2884      20756E73 
 2884      69676E65 
 2884      6420696E 
 2884      7400
 2885              	.LASF146:
 2886 0640 73745374 		.ascii	"stStopAlarm\000"
 2886      6F70416C 
 2886      61726D00 
 2887              	.LASF136:
 2888 064c 63686172 		.ascii	"char\000"
 2888      00
ARM GAS  /var/folders/c6/c789hm653lg9vtl73krp73tm0000gn/T//ccdGzO1q.s 			page 72


 2889              	.LASF97:
 2890 0651 444D4152 		.ascii	"DMAR\000"
 2890      00
 2891              	.LASF28:
 2892 0656 74687265 		.ascii	"thread_t\000"
 2892      61645F74 
 2892      00
 2893              	.LASF112:
 2894 065f 62657374 		.ascii	"best\000"
 2894      00
 2895              	.LASF135:
 2896 0664 6D5F6E65 		.ascii	"m_next\000"
 2896      787400
 2897              	.LASF27:
 2898 066b 73797374 		.ascii	"systime_t\000"
 2898      696D655F 
 2898      7400
 2899              	.LASF45:
 2900 0675 705F7265 		.ascii	"p_realprio\000"
 2900      616C7072 
 2900      696F00
 2901              	.LASF62:
 2902 0680 76746675 		.ascii	"vtfunc_t\000"
 2902      6E635F74 
 2902      00
 2903              	.LASF8:
 2904 0689 5F5F7569 		.ascii	"__uint32_t\000"
 2904      6E743332 
 2904      5F7400
 2905              	.LASF75:
 2906 0694 70616E69 		.ascii	"panic_msg\000"
 2906      635F6D73 
 2906      6700
 2907              	.LASF110:
 2908 069e 6F666673 		.ascii	"offset\000"
 2908      657400
 2909              	.LASF145:
 2910 06a5 73745374 		.ascii	"stStartAlarm\000"
 2910      61727441 
 2910      6C61726D 
 2910      00
 2911              	.LASF89:
 2912 06b2 636F6E74 		.ascii	"context\000"
 2912      65787400 
 2913              	.LASF42:
 2914 06ba 705F6D73 		.ascii	"p_msg\000"
 2914      6700
 2915              	.LASF17:
 2916 06c0 7274636E 		.ascii	"rtcnt_t\000"
 2916      745F7400 
 2917              	.LASF156:
 2918 06c8 73745F6C 		.ascii	"st_lld_stop_alarm\000"
 2918      6C645F73 
 2918      746F705F 
 2918      616C6172 
 2918      6D00
 2919              	.LASF69:
ARM GAS  /var/folders/c6/c789hm653lg9vtl73krp73tm0000gn/T//ccdGzO1q.s 			page 73


 2920 06da 76745F70 		.ascii	"vt_par\000"
 2920      617200
 2921              	.LASF52:
 2922 06e1 74687265 		.ascii	"threads_queue_t\000"
 2922      6164735F 
 2922      71756575 
 2922      655F7400 
 2923              	.LASF132:
 2924 06f1 63685F6D 		.ascii	"ch_mutex\000"
 2924      75746578 
 2924      00
 2925              	.LASF39:
 2926 06fa 705F7265 		.ascii	"p_refs\000"
 2926      667300
 2927              	.LASF76:
 2928 0701 6973725F 		.ascii	"isr_cnt\000"
 2928      636E7400 
 2929              	.LASF81:
 2930 0709 726C6973 		.ascii	"rlist\000"
 2930      7400
 2931              	.LASF147:
 2932 070f 73745365 		.ascii	"stSetAlarm\000"
 2932      74416C61 
 2932      726D00
 2933              	.LASF157:
 2934 071a 73744765 		.ascii	"stGetAlarm\000"
 2934      74416C61 
 2934      726D00
 2935              	.LASF124:
 2936 0725 77746F62 		.ascii	"wtobjp\000"
 2936      6A7000
 2937              	.LASF35:
 2938 072c 705F6E61 		.ascii	"p_name\000"
 2938      6D6500
 2939              	.LASF49:
 2940 0733 74687265 		.ascii	"threads_list_t\000"
 2940      6164735F 
 2940      6C697374 
 2940      5F7400
 2941              	.LASF148:
 2942 0742 61627374 		.ascii	"abstime\000"
 2942      696D6500 
 2943              	.LASF78:
 2944 074a 74726163 		.ascii	"trace_buffer\000"
 2944      655F6275 
 2944      66666572 
 2944      00
 2945              	.LASF38:
 2946 0757 705F666C 		.ascii	"p_flags\000"
 2946      61677300 
 2947              	.LASF140:
 2948 075f 73745F6C 		.ascii	"st_lld_set_alarm\000"
 2948      6C645F73 
 2948      65745F61 
 2948      6C61726D 
 2948      00
 2949              	.LASF119:
ARM GAS  /var/folders/c6/c789hm653lg9vtl73krp73tm0000gn/T//ccdGzO1q.s 			page 74


 2950 0770 6D5F6372 		.ascii	"m_crit_thd\000"
 2950      69745F74 
 2950      686400
 2951              	.LASF134:
 2952 077b 6D5F6F77 		.ascii	"m_owner\000"
 2952      6E657200 
 2953              	.LASF103:
 2954 0783 73655F77 		.ascii	"se_wtobjp\000"
 2954      746F626A 
 2954      7000
 2955              	.LASF32:
 2956 078d 705F6374 		.ascii	"p_ctx\000"
 2956      7800
 2957              	.LASF68:
 2958 0793 76745F66 		.ascii	"vt_func\000"
 2958      756E6300 
 2959              		.comm	__gnu_lto_v1,1,1
 2960              		.ident	"GCC: (GNU Tools for ARM Embedded Processors) 4.8.4 20140725 (release) [ARM/embedded-4_8-br
ARM GAS  /var/folders/c6/c789hm653lg9vtl73krp73tm0000gn/T//ccdGzO1q.s 			page 75


DEFINED SYMBOLS
                            *ABS*:0000000000000000 st.c
/var/folders/c6/c789hm653lg9vtl73krp73tm0000gn/T//ccdGzO1q.s:282    .text.stInit:0000000000000000 $t
/var/folders/c6/c789hm653lg9vtl73krp73tm0000gn/T//ccdGzO1q.s:288    .text.stInit:0000000000000000 stInit
/var/folders/c6/c789hm653lg9vtl73krp73tm0000gn/T//ccdGzO1q.s:303    .text.stStartAlarm:0000000000000000 $t
/var/folders/c6/c789hm653lg9vtl73krp73tm0000gn/T//ccdGzO1q.s:309    .text.stStartAlarm:0000000000000000 stStartAlarm
/var/folders/c6/c789hm653lg9vtl73krp73tm0000gn/T//ccdGzO1q.s:365    .text.stStartAlarm:0000000000000024 $d
/var/folders/c6/c789hm653lg9vtl73krp73tm0000gn/T//ccdGzO1q.s:372    .text.stStopAlarm:0000000000000000 $t
/var/folders/c6/c789hm653lg9vtl73krp73tm0000gn/T//ccdGzO1q.s:378    .text.stStopAlarm:0000000000000000 stStopAlarm
/var/folders/c6/c789hm653lg9vtl73krp73tm0000gn/T//ccdGzO1q.s:398    .text.stSetAlarm:0000000000000000 $t
/var/folders/c6/c789hm653lg9vtl73krp73tm0000gn/T//ccdGzO1q.s:404    .text.stSetAlarm:0000000000000000 stSetAlarm
/var/folders/c6/c789hm653lg9vtl73krp73tm0000gn/T//ccdGzO1q.s:450    .text.stSetAlarm:000000000000001c $d
/var/folders/c6/c789hm653lg9vtl73krp73tm0000gn/T//ccdGzO1q.s:457    .text.stGetAlarm:0000000000000000 $t
/var/folders/c6/c789hm653lg9vtl73krp73tm0000gn/T//ccdGzO1q.s:463    .text.stGetAlarm:0000000000000000 stGetAlarm
/var/folders/c6/c789hm653lg9vtl73krp73tm0000gn/T//ccdGzO1q.s:500    .text.stGetAlarm:000000000000001c $d
/var/folders/c6/c789hm653lg9vtl73krp73tm0000gn/T//ccdGzO1q.s:505    .rodata.__func__.7814:0000000000000000 $d
/var/folders/c6/c789hm653lg9vtl73krp73tm0000gn/T//ccdGzO1q.s:509    .rodata.__func__.7814:0000000000000000 __func__.7814
/var/folders/c6/c789hm653lg9vtl73krp73tm0000gn/T//ccdGzO1q.s:512    .rodata.__func__.7803:0000000000000000 $d
/var/folders/c6/c789hm653lg9vtl73krp73tm0000gn/T//ccdGzO1q.s:516    .rodata.__func__.7803:0000000000000000 __func__.7803
/var/folders/c6/c789hm653lg9vtl73krp73tm0000gn/T//ccdGzO1q.s:519    .rodata.__func__.7810:0000000000000000 $d
/var/folders/c6/c789hm653lg9vtl73krp73tm0000gn/T//ccdGzO1q.s:523    .rodata.__func__.7810:0000000000000000 __func__.7810
                            *COM*:0000000000000001 __gnu_lto_v1
                     .debug_frame:0000000000000010 $d
/var/folders/c6/c789hm653lg9vtl73krp73tm0000gn/T//ccdGzO1q.s:371    .text.stStartAlarm:0000000000000028 $t

UNDEFINED SYMBOLS
st_lld_init
chSysHalt
