ARM GAS  /var/folders/c6/c789hm653lg9vtl73krp73tm0000gn/T//ccdGzO1q.s 			page 1


   1              		.syntax unified
   2              		.cpu cortex-m4
   3              		.fpu softvfp
   4              		.eabi_attribute 20, 1
   5              		.eabi_attribute 21, 1
   6              		.eabi_attribute 23, 3
   7              		.eabi_attribute 24, 1
   8              		.eabi_attribute 25, 1
   9              		.eabi_attribute 26, 1
  10              		.eabi_attribute 30, 2
  11              		.eabi_attribute 34, 1
  12              		.eabi_attribute 18, 4
  13              		.thumb
  14              		.file	"st.c"
  15              		.text
  16              	.Ltext0:
  17              		.section	.gnu.lto_.jmpfuncs.d24aeb632668eadb,"",%progbits
  18 0000 789C6362 		.ascii	"x\234cb`b\300\006\334\2404+\0203222U3\374j\230\321 "
  18      6062C006 
  18      DCA0342B 
  18      10333232 
  18      325533FC 
  19 0018 90C9C890 		.ascii	"\220\311\310\220\313\010\226`f`A\026f\314e\004\213\263"
  19      CB089660 
  19      66604116 
  19      66CC6504 
  19      8BB3
  20 002a 31A00A42 		.ascii	"1\240\012BL\007\000\304\011\014M"
  20      4C0700C4 
  20      090C4D
  21              		.text
  22              		.section	.gnu.lto_.inline.d24aeb632668eadb,"",%progbits
  23 0000 789C6362 		.ascii	"x\234cb`b\300\006\312\2414+\003\003\013\017#X\021\333"
  23      6062C006 
  23      CAA1342B 
  23      03030B0F 
  23      235811DB 
  24 0014 0279B05A 		.ascii	"\002y\260ZF.\020\301\300\303\013\024\346\333\220\013"
  24      462E10C1 
  24      C0C30B14 
  24      E6DB900B 
  25 0024 1767E206 		.ascii	"\027g\342\006\01133\2600\003%\230.\360\303%X\030\270"
  25      093333B0 
  25      30032598 
  25      2EF0C325 
  25      5818B8
  26 0037 B881425C 		.ascii	"\270\201B\\\023\374\320\324\262\341\222`\000\000%\036"
  26      13FCD0D4 
  26      B2E19260 
  26      0000251E 
  27 0047 08EC     		.ascii	"\010\354"
  28              		.text
  29              		.section	.gnu.lto_.pureconst.d24aeb632668eadb,"",%progbits
  30 0000 789C6362 		.ascii	"x\234cb`b\340f\200\000V\006\011F)f)\026)6)\000\004%"
  30      6062E066 
  30      80005606 
  30      09462966 
ARM GAS  /var/folders/c6/c789hm653lg9vtl73krp73tm0000gn/T//ccdGzO1q.s 			page 2


  30      29162936 
  31 0018 00A3     		.ascii	"\000\243"
  32              		.text
  33              		.section	.gnu.lto_stInit.d24aeb632668eadb,"",%progbits
  34 0000 789C6362 		.ascii	"x\234cb`b@\007\222@\\\011\304\322@\314\310\314\300\310"
  34      60624007 
  34      92405C09 
  34      C4D240CC 
  34      C8CCC0C8 
  35 0014 34E11C03 		.ascii	"4\341\034\003C#\007\023##\210\301\300\310P\317\304X"
  35      43230713 
  35      232388C1 
  35      C0C850CF 
  35      C458
  36 0026 1FC90856 		.ascii	"\037\311\010V\273\236\351\300\203\377\377\327\375X\373"
  36      BB9EE9C0 
  36      83FFFFD7 
  36      FD58FB
  37 0035 B01EA894 		.ascii	"\260\036\250\224\201\201\225\241\245\241a\202\002\003"
  37      818195A1 
  37      A5A16182 
  37      0203
  38 0043 4332583E 		.ascii	"C2X>\004H\2024\20522\201h\346\363\014\315\017\376\331"
  38      04488234 
  38      85323281 
  38      68E6F30C 
  38      CD0FFED9 
  39 0057 24322E64 		.ascii	"$2.dd\005\312V3\374j\350h\020\310d\004\252\206\030\227"
  39      6405CA56 
  39      33FC6AE8 
  39      6810C864 
  39      04AA8618 
  40 006c 09A22F32 		.ascii	"\011\242/24>\370\317\004S\004\001!@\011\240\001 \307"
  40      343EF8CF 
  40      04530401 
  40      214009A0 
  40      0120C7
  41 007f 4AEAE9E9 		.ascii	"J\352\351\351CP~\261~Fb\216~qQ\262~q\211^2\003\000\204"
  41      43507EB1 
  41      7E46628E 
  41      7E7151B2 
  41      7E71895E 
  42 0097 3C2939   		.ascii	"<)9"
  43              		.text
  44              		.section	.gnu.lto_stStartAlarm.d24aeb632668eadb,"",%progbits
  45 0000 789C9D51 		.ascii	"x\234\235QAh\023A\024\375ov\326\254\265\240\307\366"
  45      41681341 
  45      14FD6F76 
  45      D6ACB5A0 
  45      C7F6
  46 0012 524AAF6A 		.ascii	"RJ\257j\206\326\273^\274\010)\024LAO\262\256\222.$T"
  46      86D6BB5E 
  46      BC082914 
  46      4C414FB2 
  46      AE922E24 
  47 0027 9AE0C543 		.ascii	"\232\340\305Cg\333P<\206\342Aj.\255\202\022\213\236"
  47      67DB503C 
ARM GAS  /var/folders/c6/c789hm653lg9vtl73krp73tm0000gn/T//ccdGzO1q.s 			page 3


  47      86E2416A 
  47      2EAD8212 
  47      8B9E
  48 0039 94905E62 		.ascii	"\224\220^bQPB]\012\342\301SE\304\213\207^\025!\376\231"
  48      5150425D 
  48      0AE2C153 
  48      45C48B87 
  48      5E1521FE 
  49 004e 49ACA987 		.ascii	"I\254\251\207\202\237\335\3713\357\377\377\376\314\373"
  49      829FDDF9 
  49      33EFFFFF 
  49      FECCFB
  50 005d 82041DB6 		.ascii	"\202\004\035\266)\376\3370<\303\036>A\324\336\023%\201"
  50      29FEDF30 
  50      3CC31E3E 
  50      41D4DE13 
  50      2581
  51 006f 105E6B8C 		.ascii	"\020^k\214\364\220\374\250H\017{\220\016\226\200\331"
  51      F490FCA8 
  51      480F7B90 
  51      0E9680D9 
  52 007f 10685178 		.ascii	"\020hQx\022\213Wa8P\002=\027\355\275n\367Yk\345\361"
  52      128B5761 
  52      3850023D 
  52      17EDBD6E 
  52      F7596BE5 
  53 0094 26D6C4B0 		.ascii	"&\326\304\260\317\0302\024\203\002\263\260\371T\325"
  53      CF183214 
  53      8302B3B0 
  53      F954D5
  54 00a3 BA365E32 		.ascii	"\2726^2\207\310\"y^\015\333,\204\361\336\016m\177\252"
  54      87C82279 
  54      5E0DDB2C 
  54      84F1DE0E 
  54      6D7FAA
  55 00b6 A7AFBF64 		.ascii	"\247\257\277dz\251\375\232v'\235$\012\261\316\367\213"
  55      7AA9FD9A 
  55      76279D24 
  55      0AB1CEF7 
  55      8B
  56 00c7 604B0BC8 		.ascii	"`K\013\310\234\246\206\256&{?\036\325\317\307\300\003"
  56      9CA686AE 
  56      267B3F1E 
  56      D5CFC7C0 
  56      03
  57 00d8 5A4B6AFA 		.ascii	"ZKj\372T\014q\0051<\315&\311n\355+\257\233\252\020\017"
  57      540C7105 
  57      313CCD26 
  57      C96EED2B 
  57      AF9BAA10 
  58 00ed 99816D87 		.ascii	"\231\201m\207\226\267\226_\212\020\033|. `6\223j\325"
  58      96B7965F 
  58      8A101B7C 
  58      2E206036 
  58      936AD5
  59 0100 794BD5EF 		.ascii	"yK\325\357\237\277~\033q\3558h#\177\333,s\266\306\274"
  59      9FBF7E1B 
ARM GAS  /var/folders/c6/c789hm653lg9vtl73krp73tm0000gn/T//ccdGzO1q.s 			page 4


  59      71ED3868 
  59      237FDB2C 
  59      73B6C6BC 
  60 0114 94A4CB21 		.ascii	"\224\244\313!\272C?\365]\323\\Fp\012\033d$\206\317\257"
  60      BA433FF5 
  60      5DD35C46 
  60      700A1B64 
  60      2486CFAF 
  61 0128 ED25C538 		.ascii	"\355%\3058\326/\227\366\265\357h) \232\240u\255W\333"
  61      D62F97F6 
  61      B5EF6829 
  61      209AA075 
  61      AD57DB
  62 013b 5B2B1DE8 		.ascii	"[+\035\350U\235\354w\273'cd\004\345`D2\275\203q\353"
  62      559DEC77 
  62      BB276364 
  62      04E56044 
  62      32BD8371 
  63 0150 8ECBC1B9 		.ascii	"\216\313\301\271\025\014)+\326\251\247\351\322\277\212"
  63      150C292B 
  63      D6A9A7E9 
  63      D2BF8A
  64 015f 7DD8F543 		.ascii	"}\330\365C<\301\004\035\010g\2258K\233V\265_\367\316"
  64      3CC1041D 
  64      08679538 
  64      4B9B56B5 
  64      5FF7CE
  65 0172 B06A4E43 		.ascii	"\260jNC}!\306\320\221\002\3020=5]\015z\302\335\242\207"
  65      7D21C6D0 
  65      9102C230 
  65      3D355D0D 
  65      7AC2DDA2 
  66 0187 F42FD3BC 		.ascii	"\364/\323\274\337x\345\205h\360\361\200\372\350\331"
  66      DF78E585 
  66      68F0F180 
  66      FAE8D9
  67 0196 88016AB8 		.ascii	"\210\001j\270\021m7\233\377EF\203df\036\273\224\354"
  67      116D379B 
  67      FF454683 
  67      64661EBB 
  67      94EC
  68 01a8 6FBCF833 		.ascii	"o\274\3703.gyn\304s0\361\321lV\271o\276\254\346\302"
  68      2E67796E 
  68      C47330F1 
  68      D16C56B9 
  68      6FBEACE6 
  69 01bd A22A2F44 		.ascii	"\242*/D\252\\\311F\244\016Gn\315/T\312\352r~\372\334"
  69      AA5CC946 
  69      A40E476E 
  69      CD2F54CA 
  69      EA727EFA 
  70 01d2 94CAE52E 		.ascii	"\224\312\345.\252\374\245\351\333\223\234{\255X\274"
  70      AAFCA5E9 
  70      DB939C7B 
  70      AD58BC
  71 01e1 919D2359 		.ascii	"\221\235#Y\211K7\177\003\203z\306\027"
  71      894B377F 
ARM GAS  /var/folders/c6/c789hm653lg9vtl73krp73tm0000gn/T//ccdGzO1q.s 			page 5


  71      03837AC6 
  71      17
  72              		.text
  73              		.section	.gnu.lto_stStopAlarm.d24aeb632668eadb,"",%progbits
  74 0000 789C6362 		.ascii	"x\234cb`b@\007\222@|\024\210\275\201\230\221\231\201"
  74      60624007 
  74      92407C14 
  74      88BD8198 
  74      919981
  75 0013 9169C239 		.ascii	"\221i\3029\006\206F\016&FF\020\203\201\221\241\236\211"
  75      0686460E 
  75      26464610 
  75      838191A1 
  75      9E89
  76 0025 B13E9211 		.ascii	"\261>\222\021\254v=\323\201\007\377\377\257\373\326"
  76      AC763DD3 
  76      8107FFFF 
  76      AFFBD6
  77 0034 36E70DE3 		.ascii	"6\347\015\343l&\026\240\010+CKC\303\004\005\006\206"
  77      6C2616A0 
  77      082B434B 
  77      43C30405 
  77      0686
  78 0046 64B08A10 		.ascii	"d\260\212\020 \011\322\026\312\310\004\242\231\3172"
  78      2009D216 
  78      CAC804A2 
  78      99CF32
  79 0055 1CDA31E7 		.ascii	"\034\3321\347\374\335G\254pu\020\306\201\323\367\016"
  79      FCDD47AC 
  79      707510C6 
  79      81D3F70E 
  80 0065 B2323024 		.ascii	"\26220$2.dd\005j\005\353\325fX\325\320\322\370\340\347"
  80      322E6464 
  80      056A05EB 
  80      D56658D5 
  80      D0D2F8E0 
  81 007a 9BA9F299 		.ascii	"\233\251\362\231\214\014\263\031f5Nh\020\310dd\214`"
  81      8C0CB319 
  81      66354E68 
  81      10C86464 
  81      8C60
  82 008c CC64646A 		.ascii	"\314ddj\000\002\026\0060\023\354\222$\220\226D\306\305"
  82      00021606 
  82      3013EC92 
  82      24909644 
  82      C6C5
  83 009e 40ED6051 		.ascii	"@\355`Q\260\340E\206\306\017\217\266\263@L\205\201\020"
  83      B0E04586 
  83      C60F8FB6 
  83      B3404C85 
  83      8110
  84 00b0 A0E940A7 		.ascii	"\240\351@\247\200\264I\352\351\351CP~\261~Fb\216~qQ"
  84      80B449EA 
  84      E9E94350 
  84      7EB17E46 
  84      628E7E71 
  85 00c5 B27E7189 		.ascii	"\262~q\211^2\203>\272LA~QI\261~p\210\257\261\221\276"
ARM GAS  /var/folders/c6/c789hm653lg9vtl73krp73tm0000gn/T//ccdGzO1q.s 			page 6


  85      5E32833E 
  85      BA4C417E 
  85      5149B17E 
  85      7088AFB1 
  86 00db 8F8F8B7E 		.ascii	"\217\217\213~\210\247o\231!Pm|NN\212^\006\003\000\204"
  86      88A76F99 
  86      21506D7C 
  86      4E4E8A5E 
  86      06030084 
  87 00ef 934DFB   		.ascii	"\223M\373"
  88              		.text
  89              		.section	.gnu.lto_stSetAlarm.d24aeb632668eadb,"",%progbits
  90 0000 789C8551 		.ascii	"x\234\205Q1hTA\020}\263\177\277\367=\005-\223&\204\264"
  90      31685441 
  90      107DB37F 
  90      BFF73D05 
  90      2D932684 
  91 0015 D15B127B 		.ascii	"\321[\022{ml\204\013\004\274\200V\362\375\312e\341\216"
  91      6D6C840B 
  91      04BC8056 
  91      F2FDCA65 
  91      E18E
  92 0027 48EEB0B1 		.ascii	"H\356\260\261\310\376$\220\224G\212\024z\026IDDEQ\301"
  92      C8FE2490 
  92      94478A14 
  92      7A164944 
  92      444551C1 
  93 003b 22B13824 		.ascii	"\"\2618$\205r\304\303\306\302**\222F%\225\240\3159\263"
  93      8572C4C3 
  93      C6C22A2A 
  93      92462595 
  93      A0CD39B3 
  94 004f FFA22616 		.ascii	"\377\242&\026\016\377\357\354\276\231y\263\363VA\341"
  94      0EFFEFEC 
  94      BE9979B3 
  94      F35641E1 
  95 005f A08DF23F 		.ascii	"\240\215\362?\314\3608{\012A\252\361\006H#\245\202\365"
  95      CCF0387B 
  95      0A41AAF1 
  95      064823A5 
  95      82F5
  96 0071 01B8BC7E 		.ascii	"\001\270\274~g\340\216\006\2443X\023\311\006\204\031"
  96      67E08E06 
  96      A4335813 
  96      C9068419 
  97 0081 15689AB9 		.ascii	"\025h\232\271H\302AU\302c\325\332\356v\037=]\270\373"
  97      48C24155 
  97      C263D5DA 
  97      EE761F3D 
  97      5DB8FB
  98 0094 856EAB7C 		.ascii	"\205n\253|\310\030\345`\011\221,l!\346\235k\014V\345"
  98      C818E560 
  98      09912C6C 
  98      21E69D6B 
  98      0C56E5
  99 00a7 9078A4C4 		.ascii	"\220x\244\304\253\260M\220\022\037l\341\345\373fg\363"
  99      ABB04D90 
ARM GAS  /var/folders/c6/c789hm653lg9vtl73krp73tm0000gn/T//ccdGzO1q.s 			page 7


  99      121F6CE1 
  99      E5FB6667 
  99      F3
 100 00b8 53AE97BA 		.ascii	"S\256\227\272W\323j\177\035\001bZ\341\373%\344K\313"
 100      57D36A7F 
 100      1D01625A 
 100      E1FB25E4 
 100      4BCB
 101 00ca 941BC67D 		.ascii	"\224\033\306}7\237n\377\270\323<m\211n\341f\332p\307"
 101      379F6EFF 
 101      B8D33C6D 
 101      896EE166 
 101      DA70C7
 102 00dd 2DA90B64 		.ascii	"-\251\013d)pl\032~\353\247\274,U1\2551\003\333\026\346"
 102      29706C1A 
 102      7EEBA7BC 
 102      2C5531AD 
 102      3103DB16 
 103 00f2 36E69EAB 		.ascii	"6\346\236\253\230V\371\\\246\210\331$\325\253\363\012"
 103      9856F95C 
 103      A688D924 
 103      D5ABF30A 
 104 0102 9B3B1F3E 		.ascii	"\233;\037>\177\357\313\332q\320G\376\266\011\346\\\037"
 104      7FEFCBDA 
 104      71D047FE 
 104      B609E65C 
 104      1F
 105 0113 083AD059 		.ascii	"\010:\320Y\016p\003?\335\2424\327\011e\012\013\322g"
 105      0E70033F 
 105      DDA234D7 
 105      09650A0B 
 105      D267
 106 0125 29E4697B 		.ascii	")\344i{I\226\016\355\225k?\355k\314F\300\020V\234[j"
 106      49960EED 
 106      956B3FED 
 106      6BCC46C0 
 106      10569C5B 
 107 013a 3D5B6893 		.ascii	"=[h\223[r\351n\267{\314RN\241H\"\222\364\216\006\275"
 107      5B72E96E 
 107      B77BCC52 
 107      4EA14822 
 107      92F48E06 
 108 014f 3BACF7BF 		.ascii	";\254\367\277[YHY\261v\263\2633\373\257b\337\236\204"
 108      5B594859 
 108      B176B3B3 
 108      33FBAF62 
 108      DF9E84
 109 0162 31DDA321 		.ascii	"1\335\243!\374\021\316+q\022\017\275j/\226O\260j\231"
 109      FC11CE2B 
 109      71120FBD 
 109      6A2F964F 
 109      B06A99
 110 0175 86EE8CA5 		.ascii	"\206\356\214\245\374\177\005$az ]\005=\222\335\242\207"
 110      FC7F0524 
 110      617A205D 
 110      053D92DD 
 110      A287
ARM GAS  /var/folders/c6/c789hm653lg9vtl73krp73tm0000gn/T//ccdGzO1q.s 			page 8


 111 0187 F8CBBC45 		.ascii	"\370\313\274E\272\373q\343\267(\231\225\270\216\247"
 111      BAFB71E3 
 111      B7289995 
 111      B88EA7
 112 0196 1555FA0B 		.ascii	"\025U\372\013\005\223}S53\031WLm:1\265z!\2019\030\271"
 112      05937D53 
 112      35331957 
 112      4C6D3A31 
 112      B57A2181 
 113 01ad 36355DAF 		.ascii	"65]\257\231\363\245\261S\243\246X<kJ\347\306\256\217"
 113      99F3A5B1 
 113      53A3A658 
 113      3C6B4AE7 
 113      C6AE8F
 114 01c0 70EEA54A 		.ascii	"p\356\245J\345Ja\022\272n\253W\177\001\0074\242/"
 114      E54A6112 
 114      BA6EAB57 
 114      7F010734 
 114      A22F
 115              		.text
 116              		.section	.gnu.lto_stGetAlarm.d24aeb632668eadb,"",%progbits
 117 0000 789C8590 		.ascii	"x\234\205\220=,CQ\024\307\377\347\276\327\366\021\203"
 117      3D2C4351 
 117      14C7FFE7 
 117      BED7F611 
 117      83
 118 0011 B10C6217 		.ascii	"\261\014b\027\275Q\273\311\"jR\011\223\324\223\360\222"
 118      BD51BBC9 
 118      226A5209 
 118      93D493F0 
 118      92
 119 0022 0A69C562 		.ascii	"\012i\305bp\2336a041Hh\210\217\205\010\233\201\201\210"
 119      709B3661 
 119      30343148 
 119      68888F85 
 119      089B8181 
 120 0037 81080D83 		.ascii	"\201\010\015\203A\014D\304b\020\211\201\304\307\271"
 120      410C44C4 
 120      62108981 
 120      C4C7B9
 121 0046 EFB6215D 		.ascii	"\357\266!]\234\334w\356}\347\343\177\317\357\012\010"
 121      9CDC77EE 
 121      7DE7E37F 
 121      CFEF0A08 
 122 0056 545A94BF 		.ascii	"TZ\224\277{\002:y\247\000H\344/\200\214#\204\265\327"
 122      7B023A79 
 122      A70048E4 
 122      2F808C23 
 122      84B5D7
 123 0069 00556D5F 		.ascii	"\000Um_K\250\032\213l\023\266\211\364\001\204)a\331"
 123      4BA81A8B 
 123      6C13B689 
 123      F4018429 
 123      61D9
 124 007b 34D5475A 		.ascii	"4\325GZ\203F\010;\342\360\356\373{\373uz\351\231\226"
 124      8346083B 
 124      E2F0EEFB 
ARM GAS  /var/folders/c6/c789hm653lg9vtl73krp73tm0000gn/T//ccdGzO1q.s 			page 9


 124      7BFB757A 
 124      E99996
 125 008e 4555101E 		.ascii	"EU\020\036!\244\235\303NW\005\220S*\3378\242\317\256"
 125      21A49DC3 
 125      4E570590 
 125      532ADF38 
 125      A2CFAE
 126 00a1 DF1667AF 		.ascii	"\337\026g\257\325zH\350\335:\307\321M\241x\374\020*"
 126      D57A48E8 
 126      DD3AC7D1 
 126      4DA178FC 
 126      102A
 127 00b3 95967B0E 		.ascii	"\225\226{\016\317>[\200\004\255\360|\256\257\205!\012"
 127      CF3E5B80 
 127      04ADF07C 
 127      AEAF8521 
 127      0A
 128 00c4 366153E5 		.ascii	"6aS\3452w\357\353\2056\217\304\"\0262yU\353\221\325"
 128      3277EFEB 
 128      85368FC4 
 128      22163279 
 128      55EB91D5 
 129 00d8 4B1ED98A 		.ascii	"K\036\331\212\315\206\177\364)\007tW\202\326X\201\355"
 129      CD867FF4 
 129      29077457 
 129      82D65881 
 129      ED
 130 00e9 1CD9FDEC 		.ascii	"\034\331\375\354\256H\320*\377\017Q\210\325t\251\377"
 130      AE48D02A 
 130      FF0F5188 
 130      D574A9FF 
 131 00f9 3A27387E 		.ascii	":'8~\272\177\374\012\233\3538\351g\376Z\017Y\330k\260"
 131      BA7FFC0A 
 131      9BEB38E9 
 131      67FE5A0F 
 131      59D86BB0 
 132 010d 8AB04D0D 		.ascii	"\212\260M\0150\211\0175\243/\017\270d^XG\302\036\005"
 132      30890F35 
 132      A32F0FB8 
 132      645E5847 
 132      C21E05
 133 0120 99B654E4 		.ascii	"\231\266T\344Q\250\334n\227iog\213o\242\022\366\364"
 133      51A8DC6E 
 133      97696F67 
 133      8B6FA212 
 133      F6F4
 134 0132 8B7E612D 		.ascii	"\213~a-\003\3534c\313\207\335\232\257gX\203\256\346"
 134      03EB3463 
 134      CB87DD9A 
 134      AF675883 
 134      AEE6
 135 0144 7832E75F 		.ascii	"x2\347_p_mC\217\240\243Uf\210R\004\270D\346\345\352"
 135      705F6D43 
 135      8FA0A355 
 135      66885204 
 135      B844E6E5 
 136 0159 A0A64CEB 		.ascii	"\240\246L\353\230t\234\273xF\315R\027\211H\263F\323"
ARM GAS  /var/folders/c6/c789hm653lg9vtl73krp73tm0000gn/T//ccdGzO1q.s 			page 10


 136      98749CBB 
 136      7846CD52 
 136      178948B3 
 136      46D3
 137 016b 72389194 		.ascii	"r8\221\224\351\224+\323\343\021\027\262236\232\032O"
 137      E9942BD3 
 137      E31117B2 
 137      3233369A 
 137      1A4F
 138 017d CBEE7857 		.ascii	"\313\356xWkT\306b\3552\336\3215\321\302\265\375\311"
 138      6B54C662 
 138      ED32DED1 
 138      35D1C2B5 
 138      FDC9
 139 018f E4606418 		.ascii	"\344`d\030?gD\221\005"
 139      3F674491 
 139      05
 140              		.text
 141              		.section	.gnu.lto_.symbol_nodes.d24aeb632668eadb,"",%progbits
 142 0000 789C4D8A 		.ascii	"x\234M\212\333\011\302P\024\004\367\314\271\011\332"
 142      DB09C250 
 142      1404F7CC 
 142      B909DA
 143 000f 8FFD6DC0 		.ascii	"\217\375m\300W\342\003\374\027\254\302:\254A\260\017"
 143      57E203FC 
 143      17ACC23A 
 143      AC41B00F 
 144 001f F1113177 		.ascii	"\361\0211w\177\206\035\006\241\263~c\205\245\323M\262"
 144      7F861D06 
 144      A1B37E63 
 144      85A5D34D 
 144      B2
 145 0030 2F7DB0C6 		.ascii	"/}\260\3061\335f\217\212\223\015\246\212\2668\253\350"
 145      31DD668F 
 145      8A930DA6 
 145      8AB638AB 
 145      E8
 146 0041 407CA21E 		.ascii	"@|\242\036\227\312\036\341mc\300\315h\273.b\207\333"
 146      97CA1EE1 
 146      6D63C0CD 
 146      68BB2E62 
 146      87DB
 147 0053 FF4BCDB4 		.ascii	"\377K\315\264\274?#c\256\307u\221eD\373\205^0\305*\217"
 147      BC3F2363 
 147      AEC77591 
 147      6544FB85 
 147      5E30C52A 
 148              		.text
 149              		.section	.gnu.lto_.refs.d24aeb632668eadb,"",%progbits
 150 0000 789C6362 		.ascii	"x\234cb`b\340e\200\000FF&&F\026&VF6&v\006\000\002S\000"
 150      6062E065 
 150      80004646 
 150      26264616 
 150      26564636 
 151 001b 34       		.ascii	"4"
 152              		.text
 153              		.section	.gnu.lto_.decls.d24aeb632668eadb,"",%progbits
ARM GAS  /var/folders/c6/c789hm653lg9vtl73krp73tm0000gn/T//ccdGzO1q.s 			page 11


 154 0000 789CB558 		.ascii	"x\234\265X{l\024E\030\237\331\275\226\353\003\344!\244"
 154      7B6C1445 
 154      189FD9BD 
 154      96EB03E4 
 154      21A4
 155 0012 24C61603 		.ascii	"$\306\026\003\206\220\320k\013F\374\007\201\203P\022"
 155      8690D06B 
 155      0B46FC07 
 155      81835012 
 156 0022 AAE45A92 		.ascii	"\252\344Z\222&\232\234\303\365\240\227\\[\354mI\370"
 156      269A9CC3 
 156      F5A0975C 
 156      5BEC6D49 
 156      F8
 157 0033 CB69CB2B 		.ascii	"\313i\313+ r<-\244\300\361\322\2267E\010 \302YS\236"
 157      20723C2D 
 157      A4C0F1D2 
 157      96374508 
 157      20C25953 
 158 0048 412B0F79 		.ascii	"A+\017y%p\021\025\025\011\025\"h\020\327\231\331\331"
 158      25701115 
 158      15091522 
 158      6810D799 
 158      D9D9
 159 005a BBD9ED6E 		.ascii	"\273\331\355n{Gt\323\371:7\373\315\357\373}\337~;3\337"
 159      7B4774D3 
 159      F93A37FB 
 159      CDEFFB7D 
 159      DF7E3B33 
 160 006f 4A40020E 		.ascii	"J@\002\016\011\000\225\\\253\007\0030H\006 \035\000"
 160      0900955C 
 160      AB070330 
 160      4806201D 
 160      00
 161 0080 309E3432 		.ascii	"0\23642\014\266\220\326\012\264\253\017i{Hk#\255\235"
 161      0CB690D6 
 161      0AB4AB0F 
 161      697B486B 
 161      23AD9D
 162 0093 B40ED2CE 		.ascii	"\264\016\322\316\222v\201\264oH#S\301e\322\256\221v"
 162      927681B4 
 162      6F482353 
 162      C165D2AE 
 162      9176
 163 00a5 1318AF3D 		.ascii	"\023\030\257=\034\357\026i{\371\230\304\307/\200\356"
 163      1CEF1669 
 163      7BF998C4 
 163      C72F80EE 
 164 00b5 17B591CD 		.ascii	"\027\265\221\315m\336&-F\332 \010\300\213P\343\324I"
 164      6DDE262D 
 164      46DA2008 
 164      C08B50E3 
 164      D449
 165 00c7 DA21D2FA 		.ascii	"\332!\322\372q=@\306\035\234\303=\322T\322\356\003m"
 165      713D40C6 
 165      1D9CC33D 
 165      D254D2EE 
ARM GAS  /var/folders/c6/c789hm653lg9vtl73krp73tm0000gn/T//ccdGzO1q.s 			page 12


 165      036D
 166 00d9 8C620D86 		.ascii	"\214b\015\206\032\307\227\240f\227\362<i\262\331\316"
 166      1AC797A0 
 166      6697F23C 
 166      69B2D9CE 
 167 00e9 E78BF620 		.ascii	"\347\213\366 \307\223\370\375a\260;\327\216\036\270"
 167      C793F8FD 
 167      61B03BD7 
 167      8E1EB8
 168 00f8 B6F6C055 		.ascii	"\266\366\300U\022\270:8\216\316s8\347Icy\332d\217\306"
 168      12B83A38 
 168      8ECE7338 
 168      E7496379 
 168      DA648FC6 
 169 010c 3C93DB3B 		.ascii	"<\223\333;\324\203M;;g\005;#\271\217\346\347\225\005"
 169      D4834D3B 
 169      3B67053B 
 169      23B98FE6 
 169      E79505
 170 011f 9662DC80 		.ascii	"\226b\334\200#\213p\361\231~\003@\030\223+\257\251_"
 170      238B70F1 
 170      997E0340 
 170      18932BAF 
 170      A95F
 171 0131 06584287 		.ascii	"\006XB\207c;\2429M\304\235r\210 \031s\262Nv\006C\032"
 171      633BA239 
 171      4DC49D72 
 171      88201973 
 171      B24E7606 
 172 0147 01B6135D 		.ascii	"\001\266\023]2A\212+\343\234\034k]\004\267\303\021D"
 172      32418A2B 
 172      E39C1C6B 
 172      5D04B7C3 
 172      1144
 173 0159 EE8019CC 		.ascii	"\356\200\031\314*\275\245\365\365\236\312\342 YD\035"
 173      2ABDA5F5 
 173      F59ECAE2 
 173      2059441D 
 174 0169 B0F93DCF 		.ascii	"\260\371=\317\3446+u\233}\231n\302\035M\323Z\013\301"
 174      E4362B75 
 174      9B7D996E 
 174      C21D4DD3 
 174      5A0BC1
 175 017c 4FE100D6 		.ascii	"O\341\000\326c~`\036\013\246\301g\344\3513\034|F\213"
 175      637E601E 
 175      0BA6C167 
 175      E4E9331C 
 175      7C468B
 176 018f C0263B23 		.ascii	"\300&;#\321\3116p\326\265la\266\300\254^\236\003\202"
 176      D1C93670 
 176      D6B56C61 
 176      B6C0AC5E 
 176      9E0382
 177 01a2 DB12C4CB 		.ascii	"\333\022\304\313\365\371Y=\271g\322BpW\312\356\355\266"
 177      F5F9593D 
 177      B967D242 
 177      7057CAEE 
ARM GAS  /var/folders/c6/c789hm653lg9vtl73krp73tm0000gn/T//ccdGzO1q.s 			page 13


 177      EDB6
 178 01b4 712FD3E0 		.ascii	"q/\323\340\336\356\336\334kM\270\227\0136\341H,\266"
 178      DEEEDEDC 
 178      6B4DB897 
 178      0B36E148 
 178      2CB6
 179 01c6 62F37988 		.ascii	"b\363y\210W\341\277UU\006C\300ZN\007C\005\301\361\203"
 179      57E1BF55 
 179      550643C0 
 179      5A4E0743 
 179      05C1F183 
 180 01da 6D71F6C2 		.ascii	"mq\366\302!\2747S\326\340$\372~\216\002\255Z\0026\014"
 180      21BC3753 
 180      D6E024FA 
 180      7E8E02AD 
 180      5A02360C 
 181 01ee B14C9A57 		.ascii	"\261L\232W\301\016j\000\267`\231\301S\200=0\327\230"
 181      C10E6A00 
 181      B76099C1 
 181      53803D30 
 181      D798
 182 0200 57FBA024 		.ascii	"W\373\240$\016P\236\261\256\350\261S\331\341\372\230"
 182      0E509EB1 
 182      AEE8B153 
 182      D9E1FA98 
 183 0210 AAE6264F 		.ascii	"\252\346&O\362 ')\263\327\020\360wB\013\266u\210\330"
 183      F2202729 
 183      B3D710F0 
 183      77420BB6 
 183      7588D8
 184 0223 0B148E9D 		.ascii	"\013\024\216\235\334sI\302\330\211\340!\022O\011\224"
 184      DC7349C2 
 184      D889E021 
 184      124F0994 
 185 0233 4102B61F 		.ascii	"A\002\266\037\216\342\204\222\307y\266\250\343K\330"
 185      8EE28492 
 185      C779B6A8 
 185      E34BD8
 186 0242 40782278 		.ascii	"@x\"x\204!\355\202\317\013u}\331\3617\030\245\317\031"
 186      8421ED82 
 186      CF0B757D 
 186      D9F13718 
 186      A5CF19
 187 0255 D04AC908 		.ascii	"\320J\311\010\204`\237\014c\024\311o]\201\242\365\311"
 187      84609F0C 
 187      6314C96F 
 187      5D81A2F5 
 187      C9
 188 0266 4874E886 		.ascii	"Ht\350\206\363\002\370\237\325\023\231\301\222\243\331"
 188      F302F89F 
 188      D51399C1 
 188      92A3D9
 189 0275 447838D8 		.ascii	"Dx8\330\206\361\252\330\276\273?\313\353q\324\241\207"
 189      86F1AAD8 
 189      BEBB3FCB 
 189      EB71D4A1 
 189      87
ARM GAS  /var/folders/c6/c789hm653lg9vtl73krp73tm0000gn/T//ccdGzO1q.s 			page 14


 190 0286 BA95A9B5 		.ascii	"\272\225\251\265\221\224\260\212\205\246\225\310\243"
 190      9194B08A 
 190      85A695C8 
 190      A3
 191 0293 E578617F 		.ascii	"\345xa\177\030O\2446s\"\235\260L\244\307z\"iY,\201\003"
 191      184FA436 
 191      73229DB0 
 191      4CA4C77A 
 191      2269592C 
 192 02a9 266AD669 		.ascii	"&j\326i\332nF\377\312\022\275\355t\034\375 C\377\302"
 192      DA6E46FF 
 192      CA12BDED 
 192      741CFD20 
 192      43FFC2
 193 02bc D271FCA4 		.ascii	"\322q\374\244\242X\363\006\301(\001B\260\343\271|\356"
 193      A258F306 
 193      C1280142 
 193      B0E3B97C 
 193      EE
 194 02cd 30B33A65 		.ascii	"0\263:e\311\352\321\351\345Cq\244!\252\252o\232_\362"
 194      C9EAD1E9 
 194      E54371A4 
 194      21AAAA6F 
 194      9A5FF2
 195 02e0 43D07ED1 		.ascii	"C\320~\3219g\361\226\237\261\216V\003nk\301\031:Y\004"
 195      3967F196 
 195      9FB18E56 
 195      036E6BC1 
 195      193A5904 
 196 02f4 CFDAB8C3 		.ascii	"\317\332\270\303\361\316[\320\014\307\256~\367\240\036"
 196      F1CE5BD0 
 196      0CC7AE7E 
 196      F7A01E
 197 0303 AE6C8C9C 		.ascii	"\256l\214\234\301]4\207\364\007\324(\233Mj _[\202\234"
 197      C15D3487 
 197      F407D428 
 197      9B4D6A20 
 197      5F5B829C 
 198 0317 D870D5B1 		.ascii	"\330p\325\261\036\267/\300\252\372A\012+Z\247q\2610"
 198      1EB72FC0 
 198      AAFA410A 
 198      2B5AA771 
 198      B130
 199 0329 2CFE8625 		.ascii	",\376\206%\277\333\314\213\2115\325\224\364\373l\210"
 199      BFDBCC8B 
 199      8935D594 
 199      F4FB6C88 
 200 0339 5F32127F 		.ascii	"_2\022\177\005l\301\235\235\261\007w\233\340\222HC\030"
 200      056CC19D 
 200      9DB10777 
 200      9BE09248 
 200      4318
 201 034b FFA3AAC4 		.ascii	"\377\243\252\304\302V\262GH\340\250lz!L[\245\004\332"
 201      C256B247 
 201      48E0A86C 
 201      7A214C5B 
 201      A504DA
ARM GAS  /var/folders/c6/c789hm653lg9vtl73krp73tm0000gn/T//ccdGzO1q.s 			page 15


 202 035e 656D877E 		.ascii	"em\207~\031t\312\033\351\012\261\225m.\032h\364\360"
 202      1974CA1B 
 202      E90AB195 
 202      6D2E1A68 
 202      F4F0
 203 0370 69EC0CD7 		.ascii	"i\354\014\327/\241\301@p'\271\203\340\025s\276\231\266"
 203      2FA1C140 
 203      7027B983 
 203      E01573BE 
 203      99B6
 204 0382 2709DC8A 		.ascii	"'\011\334\212C\376\246A\356\024!\037\333A\236\355\001"
 204      43FEA641 
 204      EE14211F 
 204      DB419EED 
 204      01
 205 0393 F2CF38E4 		.ascii	"\362\3178\344\"\207\000i\0123}\336va\276\225\0103[6"
 205      22870069 
 205      0A337DDE 
 205      7661BE95 
 205      08335B36 
 206 03a7 1B7B5C36 		.ascii	"\033{\\6\021<\312\2167\275/T\003\301J\266g\013H8]\207"
 206      113CCA8E 
 206      37BD2F54 
 206      03C14AB6 
 206      670B4838 
 207 03bd 7A0FC457 		.ascii	"z\017\304W\340\313\337_\253f+p\014\016$\016u8\214\317"
 207      E0CBDF5F 
 207      AB662B70 
 207      0C0E240E 
 207      75388CCF 
 208 03d1 B65718CA 		.ascii	"\266W\030\312\351\016\231\252M\322\216j\321g7\262\261"
 208      E90E99AA 
 208      4DD28E6A 
 208      D16737B2 
 208      B1
 209 03e2 431B0716 		.ascii	"C\033\007\026\251\302\257a \202\0274F\325\033\315\344"
 209      A9C2AF61 
 209      20821734 
 209      46D51BCD 
 209      E4
 210 03f3 2D6E2790 		.ascii	"-n'\220\267\331b\371-\243@\347ZE ~R\000 \316\310\210"
 210      B7D962F9 
 210      2DA340E7 
 210      5A45207E 
 210      520020CE 
 211 0409 17BE991D 		.ascii	"\027\276\231\035F:\330\225\224\301\362\014`\253D\260"
 211      463AD895 
 211      94C1F20C 
 211      60AB44B0 
 212 0419 EBC98039 		.ascii	"\353\311\2009\355\231\255\021\301n\245\014fd\266N\004"
 212      ED99AD11 
 212      C16EA50C 
 212      6664B64E 
 212      04
 213 042a BB930C58 		.ascii	"\273\223\014X\177{fM\"\330O)\203\031\231m\020\301~M"
 213      7F7B664D 
 213      22D84F29 
ARM GAS  /var/folders/c6/c789hm653lg9vtl73krp73tm0000gn/T//ccdGzO1q.s 			page 16


 213      8319996D 
 213      10C17E4D 
 214 043e 062CC79E 		.ascii	"\006,\307\236Y\263\010\326\2252\230\221\331&\021\354"
 214      59B308D6 
 214      95329891 
 214      D92611EC 
 215 044e 71326079 		.ascii	"q2`y\366\314\366\213`OS\00632k\023\301\324d\300F\332"
 215      F6CCF68B 
 215      604F5306 
 215      33326B13 
 215      C1D464C0 
 216 0464 33FB4C04 		.ascii	"3\373L\004kLK\025\314\310\354\260\010\2668\031\260\002"
 216      6B4C4B15 
 216      CCC8ECB0 
 216      08B63819 
 216      B002
 217 0476 3B66F5D1 		.ascii	";f\365\321#\357\204\221^M\320\225\361vb\003\302\320"
 217      23EF8491 
 217      5E4DD095 
 217      F1766203 
 217      C2D0
 218 0488 985AA2DA 		.ascii	"\230Z\242\332\021{5\004\353\245T\253\216\006\311\272"
 218      117B3504 
 218      EBA554AB 
 218      8E06C9BA 
 219 0498 EA486C72 		.ascii	"\352Hlr\242\026q{\231\331m#\013+\277\215A<&\006qE2A"
 219      A216717B 
 219      99D96D23 
 219      0B2BBF8D 
 219      413C2606 
 220 04b0 9C600F76 		.ascii	"\234`\017v\\\004[\223\014X\261}\256\234\020\301\232"
 220      5C045B93 
 220      0C58B17D 
 220      AE9C10C1 
 220      9A
 221 04c1 52063332 		.ascii	"R\00632\353\024\3016&\0036\303\236\331E\021,\2222\230"
 221      EB14C136 
 221      260336C3 
 221      9ED94511 
 221      2C923298 
 222 04d5 C8AC3E7A 		.ascii	"\310\254>z9\221x\221\011\246\314\233`\\m\015jGl\325"
 222      39917891 
 222      09A6CC9B 
 222      605C6D0D 
 222      6A476CD5 
 223 04e9 100CA79C 		.ascii	"\020\014\247\234x+m\022O\374\030\221\320\"n\177bv\333"
 223      782B6D12 
 223      4FFC1891 
 223      D0226E7F 
 223      6276DB
 224 04fc 408277CB 		.ascii	"@\202w\313-bhu\211\0335\202?\260\203\304\217p\030\221"
 224      2D626875 
 224      891B3582 
 224      3FB083C4 
 224      8F701891 
 225 0510 7799FC85 		.ascii	"w\231\374\205\311{L\336g\362\001\223\2773\371\210\311"
 225      C97B4CDE 
ARM GAS  /var/folders/c6/c789hm653lg9vtl73krp73tm0000gn/T//ccdGzO1q.s 			page 17


 225      67F20193 
 225      BF33F988 
 225      C9
 226 0521 3F987CC2 		.ascii	"?\230|\302\344_L>e\362\031\223*\223\013$*\0271\271\204"
 226      E45F4C3E 
 226      65F21993 
 226      2A930B24 
 226      2A1731B9 
 227 0536 C9A54C7E 		.ascii	"\311\245L~\310\344GD\306/\323A)f\363|)\367\325\222\365"
 227      C8E44744 
 227      C62FD341 
 227      2966F37C 
 227      29F7D592 
 228 054b 270CED8C 		.ascii	"'\014\355\214k7k\215d\3702\020\355\"\247q\265\035\256"
 228      6B376B8D 
 228      64F83210 
 228      ED22A771 
 228      B51DAE
 229 055e 6AC4DA69 		.ascii	"j\304\332i<\3424\234\245\235`1\373\300\264\020\327\303"
 229      3CE2349C 
 229      A59D6031 
 229      FBC0B410 
 229      D7C3
 230 0570 F77BFB1A 		.ascii	"\367{\373\032\205\340\307\222\223\226\277i\266\037\223"
 230      85E0C792 
 230      9396BF69 
 230      B61F93
 231 057f A882FE70 		.ascii	"\250\202\376p\264\276\336\203\300\226\363:\251{}r \315"
 231      B4BEDE83 
 231      C096F33A 
 231      A97B7D72 
 231      20CD
 232 0591 A63ED9CB 		.ascii	"\246>\331\313\2529\015\033\301\265R\256%i\216\267A\352"
 232      AA390D1B 
 232      C1B552AE 
 232      25698EB7 
 232      41EA
 233 05a3 565A44BB 		.ascii	"VZD\273\242\307\316i\305\335\346h\177\275\274;c2\307"
 233      A2C7CE69 
 233      C5DDE668 
 233      7FBDBC3B 
 233      6332C7
 234 05b6 CBBB4BFE 		.ascii	"\313\273K\376b\275\244\275\3114\232\245\344\312\273"
 234      62BDA4BD 
 234      C9349AA5 
 234      E4CABB
 235 05c5 EB78464E 		.ascii	"\353xFN\274\272\243\223\014Q\332hI\353\241HK+\231b\326"
 235      BCBAA393 
 235      0C51DA68 
 235      49EBA148 
 235      4B2B9962 
 236 05da 5130D5B4 		.ascii	"Q0\325\264[\314\370[-\3617\234\357\346\366Ck\267O\372"
 236      5BCCF85B 
 236      2DF1379C 
 236      EFE6F643 
 236      6BB74FFA 
 237 05ee E355ED66 		.ascii	"\343U\355f\211\226\004\333\237\307\355\355fZ;,i]:\337"
ARM GAS  /var/folders/c6/c789hm653lg9vtl73krp73tm0000gn/T//ccdGzO1q.s 			page 18


 237      899604DB 
 237      9FC7EDED 
 237      665A3B2C 
 237      695D3ADF 
 238 0602 CC8BDA93 		.ascii	"\314\213\332\223x\030\257V\311.\236\236T}\332bC\214"
 238      7818AF56 
 238      C92E9E9E 
 238      547DDA62 
 238      438C
 239 0614 5B6C355A 		.ascii	"[l5Z\004\016_%\252\035\232\237\357\322\376jB\256J\024"
 239      040E5F25 
 239      AA1D9A9F 
 239      EFD2FE6A 
 239      42AE4A14 
 240 0628 74856A7D 		.ascii	"t\205j}\256\220\222\357\003\351!eZu@I\237\372\326\314"
 240      AE9092EF 
 240      03E92165 
 240      5A754049 
 240      9FFAD6CC 
 241 063c 3C37182E 		.ascii	"<7\030.\352\325*\256@\265/XW\341w\371*C\363C\312\374"
 241      EAD52AAE 
 241      40B52F58 
 241      57E177F9 
 241      2A43F343 
 242 0652 B9FE507E 		.ascii	"\271\376P~%\310\240\375@\225\337\253Lw\325\205j]\301"
 242      25C8A0FD 
 242      4095DFAB 
 242      4C77D585 
 242      6A5DC1
 243 0665 1A1F4174 		.ascii	"\032\037At\373\203AT\353\232\343\363\215F\265U\243\253"
 243      FB834154 
 243      EB9AE3F3 
 243      8D46B555 
 243      A3AB
 244 0677 6BAAFDA3 		.ascii	"k\252\375\243\375hV\300UTP8\266`\\\301k.\343\260\016"
 244      FD6856C0 
 244      55545038 
 244      B6605CC1 
 244      6B2EE3B0 
 245 068c 1D522A02 		.ascii	"\035R*\002\325\012\201u\326\221\377c\212\274\312\273"
 245      D50A8175 
 245      D691FF63 
 245      8ABCCABB 
 246 069c FF016A15 		.ascii	"\377\001j\025\362U\006\252\375.o\205\1776\252\013*^"
 246      F25506AA 
 246      FD2E6F85 
 246      7F36AA0B 
 246      2A5E
 247 06ae 9D7CA6D7 		.ascii	"\235|\246\327\253\333\311\016)\245\012\252U&\022\013"
 247      ABDBC90E 
 247      29A50AAA 
 247      5526120B 
 248 06be 557DD02C 		.ascii	"U}\320,\346T\026\035\254\231\313\3062I\337\257\350\335"
 248      E654161D 
 248      AC99CBC6 
 248      3249DFAF 
 248      E8DD
ARM GAS  /var/folders/c6/c789hm653lg9vtl73krp73tm0000gn/T//ccdGzO1q.s 			page 19


 249 06d0 A9BCEB32 		.ascii	"\251\274\3532\307rnM\255\022r\225\226\225\214)rM\237"
 249      C7726E4D 
 249      AD127295 
 249      96958C29 
 249      724D9F
 250 06e3 3ED95536 		.ascii	">\331U6\255d^!\361\313\033\014V\020\213YZ\317\033 a"
 250      AD645E21 
 250      F1CB1B0C 
 250      56108B59 
 250      5ACF1B20 
 251 06f8 CEED29BE 		.ascii	"\316\355)\2764\264\276\312\322\371\241b\024T\234^\357"
 251      34B4BECA 
 251      D2F9A162 
 251      14549C5E 
 251      EF
 252 0709 ECBA6A9F 		.ascii	"\354\272j\237\327\333W\357\344\277>\256`L_\2213\020"
 252      D7DB57EF 
 252      E4BF3EAE 
 252      604C5F91 
 252      3310
 253 071b EF151664 		.ascii	"\357\025\026d%\350\032\357\214\315J\260\007E\311\322"
 253      25E81AEF 
 253      8CCD4AB0 
 253      0745C9D2 
 254 072b AFA2310A 		.ascii	"\257\2421\012Ti\036\360\037^Ev{\012I+r\224\226\270="
 254      54691EF0 
 254      1F5E4576 
 254      7B0A492B 
 254      729496B8 
 255 0740 8EC9D3A6 		.ascii	"\216\311\323\246x\244R\217<e\252'\315\355.\361\0242"
 255      78A4528F 
 255      3C65AA27 
 255      CDED2EF1 
 255      1432
 256 0752 59E470BB 		.ascii	"Y\344p\273\247xd\367[e\362\214R\267<\321\343\221=n\362"
 256      A77864F7 
 256      5B65F28C 
 256      52B73CD1 
 256      E3913D6E 
 257 0767 9B4C9834 		.ascii	"\233L\2304\271\314#O\2463K&z\244\267\265Yc\210~\271"
 257      B9CC234F 
 257      A6334B26 
 257      7AA4B7B5 
 257      5963887E 
 258 077c 27CD3BA9 		.ascii	"'\315;\251\246&8D\217V\310\213(_/\362)\201y\376\201"
 258      A6263844 
 258      8F56C88B 
 258      285F2FF2 
 258      298179FE 
 259 0791 7C38449D 		.ascii	"|8D\235\327\3568\350\343\032\020\037\257\231\253\015"
 259      D7EE38E8 
 259      E31A101F 
 259      AF99AB0D 
 260 07a1 F7D747FC 		.ascii	"\367\327G\374\212q`\216>\360/\010\264'0"
 260      8A71608E 
 260      3EF02F08 
 260      B42730
ARM GAS  /var/folders/c6/c789hm653lg9vtl73krp73tm0000gn/T//ccdGzO1q.s 			page 20


 261              		.text
 262              		.section	.gnu.lto_.symtab.d24aeb632668eadb,"",%progbits
 263 0000 7374496E 		.ascii	"stInit\000\000\000\000\000\000\000\000\000\000\000\000"
 263      69740000 
 263      00000000 
 263      00000000 
 263      0000
 264 0012 AD000000 		.ascii	"\255\000\000\000stStartAlarm\000\000\000\000\000\000"
 264      73745374 
 264      61727441 
 264      6C61726D 
 264      00000000 
 265 0028 00000000 		.ascii	"\000\000\000\000\000\000\262\000\000\000stStopAlarm"
 265      0000B200 
 265      00007374 
 265      53746F70 
 265      416C6172 
 266 003d 00000000 		.ascii	"\000\000\000\000\000\000\000\000\000\000\000\000\302"
 266      00000000 
 266      00000000 
 266      C2
 267 004a 00000073 		.ascii	"\000\000\000stSetAlarm\000\000\000\000\000\000\000\000"
 267      74536574 
 267      416C6172 
 267      6D000000 
 267      00000000 
 268 005f 00000000 		.ascii	"\000\000\000\000\305\000\000\000stGetAlarm\000\000\000"
 268      C5000000 
 268      73744765 
 268      74416C61 
 268      726D0000 
 269 0074 00000000 		.ascii	"\000\000\000\000\000\000\000\000\000\311\000\000\000"
 269      00000000 
 269      00C90000 
 269      00
 270 0081 73745F6C 		.ascii	"st_lld_init\000\000\002\000\000\000\000\000\000\000"
 270      6C645F69 
 270      6E697400 
 270      00020000 
 270      00000000 
 271 0096 0000CD00 		.ascii	"\000\000\315\000\000\000chSysHalt\000\000\002\000\000"
 271      00006368 
 271      53797348 
 271      616C7400 
 271      00020000 
 272 00aa 00000000 		.ascii	"\000\000\000\000\000\000\000\317\000\000\000"
 272      000000CF 
 272      000000
 273              		.text
 274              		.section	.gnu.lto_.opts,"",%progbits
 275 0000 272D6D63 		.ascii	"'-mcpu=cortex-m4' '-mno-thumb-interwork' '-mthumb' "
 275      70753D63 
 275      6F727465 
 275      782D6D34 
 275      2720272D 
 276 0033 272D6767 		.ascii	"'-ggdb' '-O2' '-fomit-frame-pointer' '-falign-funct"
 276      64622720 
ARM GAS  /var/folders/c6/c789hm653lg9vtl73krp73tm0000gn/T//ccdGzO1q.s 			page 21


 276      272D4F32 
 276      2720272D 
 276      666F6D69 
 277 0066 696F6E73 		.ascii	"ions=16' '-ffunction-sections' '-fdata-sections' '-"
 277      3D313627 
 277      20272D66 
 277      66756E63 
 277      74696F6E 
 278 0099 666E6F2D 		.ascii	"fno-common' '-flto'\000"
 278      636F6D6D 
 278      6F6E2720 
 278      272D666C 
 278      746F2700 
 279              		.text
 280              		.cfi_sections	.debug_frame
 281              		.section	.text.stInit,"ax",%progbits
 282              		.align	2
 283              		.p2align 4,,15
 284              		.global	stInit
 285              		.thumb
 286              		.thumb_func
 287              		.type	stInit, %function
 288              	stInit:
 289              	.LFB260:
 290              		.file 1 "../../../os/hal/src/st.c"
 291              		.loc 1 60 0
 292              		.cfi_startproc
 293              		@ args = 0, pretend = 0, frame = 0
 294              		@ frame_needed = 0, uses_anonymous_args = 0
 295              		@ link register save eliminated.
 296              		.loc 1 62 0
 297 0000 FFF7FEBF 		b	st_lld_init
 298              	.LVL0:
 299              		.cfi_endproc
 300              	.LFE260:
 301              		.size	stInit, .-stInit
 302 0004 AFF30080 		.section	.text.stStartAlarm,"ax",%progbits
 302      AFF30080 
 302      AFF30080 
 303              		.align	2
 304              		.p2align 4,,15
 305              		.global	stStartAlarm
 306              		.thumb
 307              		.thumb_func
 308              		.type	stStartAlarm, %function
 309              	stStartAlarm:
 310              	.LFB261:
 311              		.loc 1 77 0
 312              		.cfi_startproc
 313              		@ args = 0, pretend = 0, frame = 0
 314              		@ frame_needed = 0, uses_anonymous_args = 0
 315              	.LVL1:
 316              	.LBB16:
 317              	.LBB17:
 318              		.file 2 "../../../os/hal/ports/STM32/LLD/TIMv1/st_lld.h"
 319              		.loc 2 193 0
 320 0000 4FF08043 		mov	r3, #1073741824
ARM GAS  /var/folders/c6/c789hm653lg9vtl73krp73tm0000gn/T//ccdGzO1q.s 			page 22


 321              	.LBE17:
 322              	.LBE16:
 323              		.loc 1 77 0
 324 0004 10B5     		push	{r4, lr}
 325              		.cfi_def_cfa_offset 8
 326              		.cfi_offset 4, -8
 327              		.cfi_offset 14, -4
 328              	.LBB19:
 329              	.LBB18:
 330              		.loc 2 193 0
 331 0006 DB68     		ldr	r3, [r3, #12]
 332              	.LBE18:
 333              	.LBE19:
 334              		.loc 1 79 0
 335 0008 9B07     		lsls	r3, r3, #30
 336              		.loc 1 77 0
 337 000a 0446     		mov	r4, r0
 338              		.loc 1 79 0
 339 000c 02D5     		bpl	.L3
 340              		.loc 1 79 0 is_stmt 0 discriminator 1
 341 000e 0548     		ldr	r0, .L8
 342              	.LVL2:
 343 0010 FFF7FEFF 		bl	chSysHalt
 344              	.LVL3:
 345              	.L3:
 346              	.LBB20:
 347              	.LBB21:
 348              		.loc 2 143 0 is_stmt 1
 349 0014 4FF08043 		mov	r3, #1073741824
 350              		.loc 2 144 0
 351 0018 0021     		movs	r1, #0
 352              		.loc 2 145 0
 353 001a 0222     		movs	r2, #2
 354              		.loc 2 143 0
 355 001c 5C63     		str	r4, [r3, #52]
 356              		.loc 2 144 0
 357 001e 1961     		str	r1, [r3, #16]
 358              		.loc 2 145 0
 359 0020 DA60     		str	r2, [r3, #12]
 360 0022 10BD     		pop	{r4, pc}
 361              	.LVL4:
 362              	.L9:
 363              		.align	2
 364              	.L8:
 365 0024 00000000 		.word	.LANCHOR0
 366              	.LBE21:
 367              	.LBE20:
 368              		.cfi_endproc
 369              	.LFE261:
 370              		.size	stStartAlarm, .-stStartAlarm
 371 0028 AFF30080 		.section	.text.stStopAlarm,"ax",%progbits
 371      AFF30080 
 372              		.align	2
 373              		.p2align 4,,15
 374              		.global	stStopAlarm
 375              		.thumb
 376              		.thumb_func
ARM GAS  /var/folders/c6/c789hm653lg9vtl73krp73tm0000gn/T//ccdGzO1q.s 			page 23


 377              		.type	stStopAlarm, %function
 378              	stStopAlarm:
 379              	.LFB262:
 380              		.loc 1 91 0
 381              		.cfi_startproc
 382              		@ args = 0, pretend = 0, frame = 0
 383              		@ frame_needed = 0, uses_anonymous_args = 0
 384              		@ link register save eliminated.
 385              	.LBB22:
 386              	.LBB23:
 387              		.loc 2 155 0
 388 0000 4FF08043 		mov	r3, #1073741824
 389 0004 0022     		movs	r2, #0
 390 0006 DA60     		str	r2, [r3, #12]
 391 0008 7047     		bx	lr
 392              	.LBE23:
 393              	.LBE22:
 394              		.cfi_endproc
 395              	.LFE262:
 396              		.size	stStopAlarm, .-stStopAlarm
 397              		.section	.text.stSetAlarm,"ax",%progbits
 398              		.align	2
 399              		.p2align 4,,15
 400              		.global	stSetAlarm
 401              		.thumb
 402              		.thumb_func
 403              		.type	stSetAlarm, %function
 404              	stSetAlarm:
 405              	.LFB263:
 406              		.loc 1 105 0
 407              		.cfi_startproc
 408              		@ args = 0, pretend = 0, frame = 0
 409              		@ frame_needed = 0, uses_anonymous_args = 0
 410              	.LVL5:
 411              	.LBB24:
 412              	.LBB25:
 413              		.loc 2 193 0
 414 0000 4FF08043 		mov	r3, #1073741824
 415              	.LBE25:
 416              	.LBE24:
 417              		.loc 1 105 0
 418 0004 10B5     		push	{r4, lr}
 419              		.cfi_def_cfa_offset 8
 420              		.cfi_offset 4, -8
 421              		.cfi_offset 14, -4
 422              	.LBB27:
 423              	.LBB26:
 424              		.loc 2 193 0
 425 0006 DB68     		ldr	r3, [r3, #12]
 426              	.LBE26:
 427              	.LBE27:
 428              		.loc 1 107 0
 429 0008 9B07     		lsls	r3, r3, #30
 430              		.loc 1 105 0
 431 000a 0446     		mov	r4, r0
 432              		.loc 1 107 0
 433 000c 02D4     		bmi	.L12
ARM GAS  /var/folders/c6/c789hm653lg9vtl73krp73tm0000gn/T//ccdGzO1q.s 			page 24


 434              		.loc 1 107 0 is_stmt 0 discriminator 1
 435 000e 0348     		ldr	r0, .L13
 436              	.LVL6:
 437 0010 FFF7FEFF 		bl	chSysHalt
 438              	.LVL7:
 439              	.L12:
 440              	.LBB28:
 441              	.LBB29:
 442              		.loc 2 167 0 is_stmt 1
 443 0014 4FF08043 		mov	r3, #1073741824
 444 0018 5C63     		str	r4, [r3, #52]
 445 001a 10BD     		pop	{r4, pc}
 446              	.LVL8:
 447              	.L14:
 448              		.align	2
 449              	.L13:
 450 001c 00000000 		.word	.LANCHOR1
 451              	.LBE29:
 452              	.LBE28:
 453              		.cfi_endproc
 454              	.LFE263:
 455              		.size	stSetAlarm, .-stSetAlarm
 456              		.section	.text.stGetAlarm,"ax",%progbits
 457              		.align	2
 458              		.p2align 4,,15
 459              		.global	stGetAlarm
 460              		.thumb
 461              		.thumb_func
 462              		.type	stGetAlarm, %function
 463              	stGetAlarm:
 464              	.LFB264:
 465              		.loc 1 121 0
 466              		.cfi_startproc
 467              		@ args = 0, pretend = 0, frame = 0
 468              		@ frame_needed = 0, uses_anonymous_args = 0
 469 0000 08B5     		push	{r3, lr}
 470              		.cfi_def_cfa_offset 8
 471              		.cfi_offset 3, -8
 472              		.cfi_offset 14, -4
 473              	.LBB30:
 474              	.LBB31:
 475              		.loc 2 193 0
 476 0002 4FF08043 		mov	r3, #1073741824
 477 0006 DB68     		ldr	r3, [r3, #12]
 478              	.LBE31:
 479              	.LBE30:
 480              		.loc 1 123 0
 481 0008 9B07     		lsls	r3, r3, #30
 482 000a 02D4     		bmi	.L16
 483              		.loc 1 123 0 is_stmt 0 discriminator 1
 484 000c 0348     		ldr	r0, .L17
 485 000e FFF7FEFF 		bl	chSysHalt
 486              	.LVL9:
 487              	.L16:
 488              	.LBB32:
 489              	.LBB33:
 490              		.loc 2 179 0 is_stmt 1
ARM GAS  /var/folders/c6/c789hm653lg9vtl73krp73tm0000gn/T//ccdGzO1q.s 			page 25


 491 0012 4FF08043 		mov	r3, #1073741824
 492 0016 586B     		ldr	r0, [r3, #52]
 493              	.LBE33:
 494              	.LBE32:
 495              		.loc 1 126 0
 496 0018 08BD     		pop	{r3, pc}
 497              	.L18:
 498 001a 00BF     		.align	2
 499              	.L17:
 500 001c 00000000 		.word	.LANCHOR2
 501              		.cfi_endproc
 502              	.LFE264:
 503              		.size	stGetAlarm, .-stGetAlarm
 504              		.section	.rodata.__func__.7814,"a",%progbits
 505              		.align	2
 506              		.set	.LANCHOR2,. + 0
 507              		.type	__func__.7814, %object
 508              		.size	__func__.7814, 11
 509              	__func__.7814:
 510 0000 73744765 		.ascii	"stGetAlarm\000"
 510      74416C61 
 510      726D00
 511 000b 00       		.section	.rodata.__func__.7803,"a",%progbits
 512              		.align	2
 513              		.set	.LANCHOR0,. + 0
 514              		.type	__func__.7803, %object
 515              		.size	__func__.7803, 13
 516              	__func__.7803:
 517 0000 73745374 		.ascii	"stStartAlarm\000"
 517      61727441 
 517      6C61726D 
 517      00
 518 000d 000000   		.section	.rodata.__func__.7810,"a",%progbits
 519              		.align	2
 520              		.set	.LANCHOR1,. + 0
 521              		.type	__func__.7810, %object
 522              		.size	__func__.7810, 11
 523              	__func__.7810:
 524 0000 73745365 		.ascii	"stSetAlarm\000"
 524      74416C61 
 524      726D00
 525 000b 00       		.text
 526              	.Letext0:
 527              		.file 3 "/usr/local/Cellar/gcc-arm-none-eabi/20140805/arm-none-eabi/include/machine/_default_types
 528              		.file 4 "/usr/local/Cellar/gcc-arm-none-eabi/20140805/arm-none-eabi/include/stdint.h"
 529              		.file 5 "../../../os/rt/ports/ARMCMx/compilers/GCC/chtypes.h"
 530              		.file 6 "../../../os/rt/include/chsystypes.h"
 531              		.file 7 "../../../os/rt/include/chschd.h"
 532              		.file 8 "../../../os/rt/ports/ARMCMx/chcore.h"
 533              		.file 9 "../../../os/rt/ports/ARMCMx/chcore_v7m.h"
 534              		.file 10 "../../../os/hal/ports/STM32/LLD/TIMv1/stm32_tim.h"
 535              		.file 11 "../../../os/rt/include/chdebug.h"
 536              		.file 12 "../../../os/rt/include/chtm.h"
 537              		.file 13 "../../../os/rt/include/chstats.h"
 538              		.file 14 "../../../os/rt/include/chsem.h"
 539              		.file 15 "../../../os/rt/include/chmtx.h"
 540              		.file 16 "../../../os/ext/CMSIS/include/core_cm4.h"
ARM GAS  /var/folders/c6/c789hm653lg9vtl73krp73tm0000gn/T//ccdGzO1q.s 			page 26


 541              		.file 17 "../../../os/rt/include/chsys.h"