ARM GAS  /var/folders/c6/c789hm653lg9vtl73krp73tm0000gn/T//ccvMQiBd.s 			page 1


   1              		.syntax unified
   2              		.cpu cortex-m4
   3              		.fpu softvfp
   4              		.eabi_attribute 20, 1
   5              		.eabi_attribute 21, 1
   6              		.eabi_attribute 23, 3
   7              		.eabi_attribute 24, 1
   8              		.eabi_attribute 25, 1
   9              		.eabi_attribute 26, 1
  10              		.eabi_attribute 30, 2
  11              		.eabi_attribute 34, 1
  12              		.eabi_attribute 18, 4
  13              		.thumb
  14              		.file	"st_lld.c"
  15              		.text
  16              	.Ltext0:
  17              		.section	.gnu.lto_.jmpfuncs.52df4e4109ad5d5f,"",%progbits
  18 0000 789C6362 		.ascii	"x\234cb`b\300\006\224\2404\262,#\003\023S\004c&#\203"
  18      6062C006 
  18      94A034B2 
  18      2C230313 
  18      53046326 
  19 0016 0C501CCC 		.ascii	"\014P\034\314\340\000\212\002\000\034\007\001\332"
  19      E0008A02 
  19      001C0701 
  19      DA
  20              		.text
  21              		.section	.gnu.lto_.inline.52df4e4109ad5d5f,"",%progbits
  22 0000 789C6362 		.ascii	"x\234cb`b\300\006\342\2404PV\3700\003#\003\023\337\275"
  22      6062C006 
  22      E2A03450 
  22      56F83003 
  22      230313DF 
  23 0015 0006B605 		.ascii	"\000\006\266\005\362`\325\214\\\244\020\014\"2@\375"
  23      F260D58C 
  23      5CA4100C 
  23      223240FD 
  24 0025 320F6E31 		.ascii	"2\017n1\302\015`\346\001\233\314\000\000c\332\006\207"
  24      C20D60E6 
  24      019BCC00 
  24      0063DA06 
  24      87
  25              		.text
  26              		.section	.gnu.lto_.pureconst.52df4e4109ad5d5f,"",%progbits
  27 0000 789C6362 		.ascii	"x\234cb`b`e\200\000&\006+F)\000\001f\000a"
  27      60626065 
  27      80002606 
  27      2B462900 
  27      01660061 
  28              		.text
  29              		.section	.gnu.lto_VectorB0.52df4e4109ad5d5f,"",%progbits
  30 0000 789C8D54 		.ascii	"x\234\215T]H\024Q\024>gf\366Gsk\255\036c[\004\037\""
  30      5D481451 
  30      143E6766 
  30      F647736B 
  30      AD1E635B 
  31 0017 DB297BE8 		.ascii	"\333){\350\2650\002\301}qW(\010d\034\227v`\327\225\335"
ARM GAS  /var/folders/c6/c789hm653lg9vtl73krp73tm0000gn/T//ccvMQiBd.s 			page 2


  31      B53002C1 
  31      7D715728 
  31      08641C97 
  31      7660D795 
  32 002c 55941E9C 		.ascii	"U\224\036\234u7\010\224\020\011\261\242LB\350\007V\022"
  32      75370894 
  32      1009B1A2 
  32      4C42E807 
  32      5612
  33 003e 22DBB558 		.ascii	"\"\333\265X\364\245?\025\037\352!\0027\002\241,\324"
  33      F4A53F15 
  33      1FEA2102 
  33      3702A12C 
  33      D4
  34 004f 5EA234B6 		.ascii	"^\2424\26633\3733\373Cy\231{\317\275\367|\367\334\363"
  34      3333FB33 
  34      FB437999 
  34      7BCFBDF7 
  34      7CF7DCF3 
  35 0063 F3CD6580 		.ascii	"\363\315e\200\201\322\326H\375-\007\360\225$\032\000"
  35      81D2D648 
  35      FD2D07F0 
  35      95241A00 
  36 0073 99912580 		.ascii	"\231\221%\200\210\231a\330\204\015\344j\356=\017r\015"
  36      889961D8 
  36      840DE46A 
  36      EE3D0F72 
  36      0D
  37 0084 8B9CB6CD 		.ascii	"\213\234\266\315!*\023@\030`X\016\007.\240jd\232I\245"
  37      212A1340 
  37      1860580E 
  37      072EA06A 
  37      649A49A5 
  38 0098 33997862 		.ascii	"3\231xbh\342#N3\007\015 !\030\225\201\232\001b\262<"
  38      68E2234E 
  38      33070D20 
  38      21189581 
  38      9A0162B2 
  39 00ad 620710D5 		.ascii	"b\007\020\325\245\233F\305D\0332\212d\227!\232^\365"
  39      A59B46C5 
  39      441B328A 
  39      6497219A 
  39      5EF5
  40 00bf 08384997 		.ascii	"\0108I\227\003\\\206\337\362U\331*!\212\250\231\226"
  40      035C86DF 
  40      F255D92A 
  40      218AA899 
  40      96
  41 00d0 0807CBC0 		.ascii	"\010\007\313\300VB0\005\304\"\314\177\030O~b4\330%4"
  41      56423005 
  41      C422CC7F 
  41      184F7E62 
  41      34D82534 
  42 00e4 1C858772 		.ascii	"\034\205\207r\014%do\301M\022\334y\032\01425\016\324"
  42      0C25646F 
  42      C14D12DC 
  42      791A0C32 
ARM GAS  /var/folders/c6/c789hm653lg9vtl73krp73tm0000gn/T//ccvMQiBd.s 			page 3


  42      350ED4
  43 00f7 A97AB403 		.ascii	"\251z\264\003siX\204h2\272\206\271\343F\262\240\300"
  43      73695884 
  43      6832BA86 
  43      B9E346B2 
  43      A0C0
  44 0109 D484BD84 		.ascii	"\324\204\275\204\330\267\210%\257R\367\365\255\015Y"
  44      D8B78825 
  44      AF52F7F5 
  44      AD0D59
  45 0118 48D85872 		.ascii	"H\330Xrav6\271\225uA\275?\"\273v\351\201\262\303*\223"
  45      617636B9 
  45      957541BD 
  45      3F22BB76 
  45      E981B2C3 
  46 012e 57306806 		.ascii	"W0h\006\250\203IY\036M\277\333z\332pCN\305\356\312;"
  46      A8834959 
  46      1E4DBFDB 
  46      7ADA7043 
  46      4EC5EECA 
  47 0143 990C12C4 		.ascii	"\231\014\022\304\310\300ET2\251\340MvU\230\271\342\212"
  47      C8C04554 
  47      32A9E04D 
  47      765598B9 
  47      E28A
  48 0155 2A7B46CA 		.ascii	"*{F\3127,\301\340\326\353\205\231a6_\002m\222z\264\275"
  48      372CC1E0 
  48      D6EB8599 
  48      61365F02 
  48      6D927AB4 
  49 016a 612537EF 		.ascii	"a%7\357c]\276>\362\306\363Cy}\346\372\260\345\230\256"
  49      635DBE3E 
  49      F2C6F343 
  49      797DE6FA 
  49      B0E598AE 
  50 017e 72B9EDB1 		.ascii	"r\271\355\261\241\332\307\206\374\362\315\317\037\264"
  50      A1DAC786 
  50      FCF2CDCF 
  50      1FB4
  51 018c D0A215C9 		.ascii	"\320\242\025\311y\021UGDui\244n\002\225)\010\313\244"
  51      79115547 
  51      447569A4 
  51      6E029529 
  51      08CBA4
  52 019f A544B21A 		.ascii	"\245D\262\032\375l\220\306\333\362\370i\011\253\212"
  52      FD6C90C6 
  52      DBF2F869 
  52      09AB8A
  53 01ae DC2DE83F 		.ascii	"\334-\350?g\365\325Z@D\221\315\211\251{\013\234\200"
  53      67F5D55A 
  53      404491CD 
  53      89A97B0B 
  53      9C80
  54 01c0 F1320E98 		.ascii	"\3612\016\230\005\234\326r\231eJ4}\355\373\336J\310"
  54      059CD672 
  54      99654A34 
  54      7DEDFBDE 
ARM GAS  /var/folders/c6/c789hm653lg9vtl73krp73tm0000gn/T//ccvMQiBd.s 			page 4


  54      4AC8
  55 01d2 AA32E4E6 		.ascii	"\2522\344\346\352\324\332\360\261\3220\207v\006M\205"
  55      EAD4DAF0 
  55      B1D23087 
  55      76064D85 
  56 01e2 B8B23EE8 		.ascii	"\270\262>\350\015\355\021\360Y\211\241\211+\361\365"
  56      0DED11F0 
  56      5989A189 
  56      2BF1F5
  57 01f1 B23467C6 		.ascii	"\2624g\306\356\324\256\350\362\2653\252\263[C\335Rn"
  57      EED4AEE8 
  57      F2B533AA 
  57      B35B43DD 
  57      526E
  58 0203 9B3C9F2B 		.ascii	"\233<\237+\265=\025\337&\372'\313\002\332W\214-f\316"
  58      B53D15DF 
  58      26FA27CB 
  58      02DA578C 
  58      2D66CE
  59 0216 97B912E6 		.ascii	"\227\271\022\346\010\370\200P\273\240\016\374\223:\353"
  59      08F88050 
  59      BBA00EFC 
  59      933AEB
  60 0225 BF14EAA4 		.ascii	"\277\024\352\244\364\324I\276\260\351\250\223\260\360"
  60      F4D449BE 
  60      B0E9A893 
  60      B0F0
  61 0233 4A944935 		.ascii	"J\224I5J+\365\332\012T\020p\206&\371\353r\245\027\360"
  61      4A2BF5DA 
  61      0A541070 
  61      8626F9EB 
  61      72A517F0 
  62 0247 09DAF43F 		.ascii	"\011\332\364?\026\227{#6\347Wk*=\001\373\377\373H\034"
  62      16977B23 
  62      36E7576B 
  62      2A3D01FB 
  62      FFFB481C 
  63 025b 28205620 		.ascii	"( V \222\376S\237\003i\315M\357\014\335\241\\\317;\034"
  63      92FE539F 
  63      0369CD4D 
  63      EF0CDDA1 
  63      5CCF3B1C 
  64 026f D92F10E2 		.ascii	"\331/\020\342\275\202\217\357\016\004\303!\336\345v"
  64      BD828FEF 
  64      0E04C321 
  64      DEE576
  65 027e 9E6CE45B 		.ascii	"\236l\344[Z\316\362\356fg\357\011>\024n\367\371:\035"
  65      5ACEF2EE 
  65      6667EF09 
  65      3E146EF7 
  65      F93A1D
  66 0291 221CD1E3 		.ascii	"\"\034\321\343\203\341,\374L\253\263\311\331\307\213"
  66      83E12CFC 
  66      4CABB3C9 
  66      D9C78B
  67 02a0 5E3110F4 		.ascii	"^1\020\364\264\367\236\362;\274`\350\025|=\236\006="
  67      B4F79EF2 
ARM GAS  /var/folders/c6/c789hm653lg9vtl73krp73tm0000gn/T//ccvMQiBd.s 			page 5


  67      3BBC60E8 
  67      157C3D9E 
  67      063D
  68 02b2 DED317E6 		.ascii	"\336\323\027\346\233\234\256f\027/u\211\276\236N\017"
  68      9B9CAE66 
  68      172F7589 
  68      BE9E4E0F 
  69 02c2 AFE245FF 		.ascii	"\257\342E\377\271\236.\221\216\034.1\236GyC\375\241"
  69      B99E2E91 
  69      8E1C2E31 
  69      9E477943 
  69      FDA1
  70 02d4 52BDE26C 		.ascii	"R\275\342l D\003\001\025Iz\253\323\325j\357\020B\236"
  70      20440301 
  70      15497AAB 
  70      D3D56AEF 
  70      10429E
  71 02e7 EEA0D460 		.ascii	"\356\240\324`\257?\016L\020L~\217?\020\354\207\277\323"
  71      AF3F0E4C 
  71      104C7E8F 
  71      3F10EC87 
  71      BFD3
  72 02f9 397272   		.ascii	"9rr"
  73              		.text
  74              		.section	.gnu.lto_st_lld_init.52df4e4109ad5d5f,"",%progbits
  75 0000 789C95D3 		.ascii	"x\234\225\323\275KBQ\024\000\360s\356\373\360i\321\307"
  75      BD4B4251 
  75      1400F073 
  75      EEFBF069 
  75      D1C7
  76 0012 6834B435 		.ascii	"h4\2645D>\254? \202\026A\247^\220S\230\201\011\202\221"
  76      443EAC3F 
  76      20821641 
  76      A75E9053 
  76      98810982 
  77 0027 D2D2E095 		.ascii	"\322\322\340\225\014\232\302Q\252\2455\242\240\3515"
  77      0C9AC251 
  77      AAA535A2 
  77      A0E935
  78 0036 44E6D462 		.ascii	"D\346\324b\322&\015\341&TX\243\264\330\275\357\313\324"
  78      D2260DE1 
  78      265458A3 
  78      B4D8BDEF 
  78      CBD4
  79 0048 90DE41CF 		.ascii	"\220\336A\317}\317{\317\317#\236G\200@\177\370\331{"
  79      7DCF7BCF 
  79      CF239E47 
  79      80407FF8 
  79      D97B
  80 005a 4A0408B2 		.ascii	"J\004\010\262\025\005@R|\002\310+\004\221_\000B\216"
  80      15054052 
  80      7C02C82B 
  80      04915F00 
  80      428E
  81 006c 602E8AC6 		.ascii	"`.\212\306\331kRnt:W7\307g\037xG&\011$\021\004\236$"
  81      D96B526E 
  81      743A5737 
ARM GAS  /var/folders/c6/c789hm653lg9vtl73krp73tm0000gn/T//ccvMQiBd.s 			page 6


  81      C7671F78 
  81      47260924 
  82 0084 9E649E58 		.ascii	"\236d\236XHP\240\2648\003\0207n5\2269\265\206\204\257"
  82      4850A0B4 
  82      38031037 
  82      6E359639 
  82      B58684AF 
  83 0098 42152A2F 		.ascii	"B\025*/\355\246?\206\347(A\002\311\034\\\320B~\"\211"
  83      EDA63F86 
  83      E7284102 
  83      C91C5CD0 
  83      427E2289 
  84 00ac 780A2798 		.ascii	"x\012'\230D\262\316\222@\277\216\250\010\306\245\361"
  84      44B2CE92 
  84      40BF8EA8 
  84      08C6A5F1 
  85 00bc D59B6837 		.ascii	"\325\233h7\\\205\203[\301\256\026\022\346y@c\247\022"
  85      5C85835B 
  85      C1AE1612 
  85      E6794063 
  85      A712
  86 00ce 3237DC99 		.ascii	"27\334\231\011~\317\333z|C\033\226\372\011\221\327I"
  86      097ECFDB 
  86      7A7C431B 
  86      96FA0991 
  86      D749
  87 00e0 B45CA463 		.ascii	"\264\\\244c\006!Y\004\376\325\226\314\200\177\2645\334"
  87      06215904 
  87      FED596CC 
  87      807FB435 
  87      DC
  88 00f1 648C51AC 		.ascii	"d\214Q\254\353\357\017\302o\200.9\202\314\313<\224\205"
  88      EBEF0FC2 
  88      6F802E39 
  88      82CCCB3C 
  88      9485
  89 0103 F9C33C96 		.ascii	"\371\303<\226`\376\317\374\023\254-\233=\350u\367\214"
  89      60FECFFC 
  89      13AC2D9B 
  89      3DE875F7 
  89      8C
  90 0114 D0653A2C 		.ascii	"\320e:,\306-\251\355^\022\273\022XJ\251e+\363p\311\225"
  90      C62DA9ED 
  90      5E12BB12 
  90      584AA965 
  90      2BF370C9 
  91 0129 28DBEC82 		.ascii	"(\333\354\202\312pPr@\2573\313=\274\336r\335\244<\250"
  91      CA705072 
  91      40AF33CB 
  91      3DBCDE72 
  91      DDA43CA8 
  92 013d D4DD2B9E 		.ascii	"\324\335+\236A\245\355^Q\034\305\036\"\275\364\351Z"
  92      41A5ED5E 
  92      511CC51E 
  92      22BDF4E9 
  92      5A
  93 014e F1F62A35 		.ascii	"\361\366*58l\3347}&\002\260\017\337\364\210\262y\364"
ARM GAS  /var/folders/c6/c789hm653lg9vtl73krp73tm0000gn/T//ccvMQiBd.s 			page 7


  93      386CDC37 
  93      7D2602B0 
  93      0FDFF488 
  93      B279F4
  94 0161 C5AD99E3 		.ascii	"\305\255\231\343'G\246\315Ea\317\363(\3003\344\033\257"
  94      2747A6CD 
  94      4561CFF3 
  94      28C033E4 
  94      1BAF
  95 0173 B3768919 		.ascii	"\263v\211\031\032;\316\236e>ej `\275\322\031u;\226R"
  95      1A3BCE9E 
  95      653E656A 
  95      2060BDD2 
  95      19753B96 
  96 0188 77D2BBD9 		.ascii	"w\322\273\331\214\272\252E\026\027\324pxE\325B\221\275"
  96      8CBAAA45 
  96      1617D470 
  96      7845D542 
  96      91BD
  97 019a A09AC96E 		.ascii	"\240\232\311n\244R[\2018\374\000\300\237\372\212"
  97      A4525B81 
  97      38FC00C0 
  97      9FFA8A
  98              		.text
  99              		.section	.gnu.lto_.symbol_nodes.52df4e4109ad5d5f,"",%progbits
 100 0000 789C45CF 		.ascii	"x\234E\317\313\015\302@\024CQ\217'\377\024A\251\216"
 100      CB0DC240 
 100      1443518F 
 100      27FF1441 
 100      A98E
 101 0012 344042F8 		.ascii	"4@B\370V\300\206R\"\205\0355 eK\011\0101\004\304\363"
 101      56C08652 
 101      22851D35 
 101      20654B09 
 101      083104C4 
 102 0027 E6EA2C4D 		.ascii	"\346\352,M\020O\374\306%\005\234n\200t\356\034W\224"
 102      104FFCC6 
 102      25059C6E 
 102      8074EE1C 
 102      5794
 103 0039 33BA0DC5 		.ascii	"3\272\015\305/\233\306\271\216\362\246\003\225\230\366"
 103      2F9BC6B9 
 103      8EF2A603 
 103      9598F6
 104 0048 546ADA51 		.ascii	"Tj\332Q\231iK\345\246\236*L-U\232\326Te:R\365_\036\025"
 104      99694BE5 
 104      A69E2A4C 
 104      2D559AD6 
 104      54653A52 
 105 0060 C2FD155B 		.ascii	"\302\375\025[\3422\267@\030\307\314#\307en\206an\212"
 105      E232B740 
 105      18C7CC23 
 105      C7656E86 
 105      616E8A
 106 0073 696E8270 		.ascii	"in\202p\375\324cj\037\013\037o\207>\326\325\030\242"
 106      FDD4636A 
 106      1F0B1F6F 
ARM GAS  /var/folders/c6/c789hm653lg9vtl73krp73tm0000gn/T//ccvMQiBd.s 			page 8


 106      873ED6D5 
 106      18A2
 107 0085 F1064917 		.ascii	"\361\006I\027H\321"
 107      48D1
 108              		.text
 109              		.section	.gnu.lto_.refs.52df4e4109ad5d5f,"",%progbits
 110 0000 789C6362 		.ascii	"x\234cb`b`d\200\002\000\000F\000\006"
 110      60626064 
 110      80020000 
 110      460006
 111              		.text
 112              		.section	.gnu.lto_.decls.52df4e4109ad5d5f,"",%progbits
 113 0000 789CAD99 		.ascii	"x\234\255\231{p\324\306\035\307wu~b\343\022\207\246"
 113      7B70D4C6 
 113      1DC77775 
 113      7E62E312 
 113      87A6
 114 0012 24D34CCC 		.ascii	"$\323L\314\264\351#-\234\037\244\241\377d0g\003\236"
 114      B4E9232D 
 114      9C1FA4A1 
 114      FF643067 
 114      039E
 115 0024 B1C1A333 		.ascii	"\261\301\2433\031&\355\214\"\316\002\337\344|\347\236"
 115      1926ED8C 
 115      22CE02DF 
 115      E47CE79E 
 116 0034 CF14663A 		.ascii	"\317\024f:\023\201\011\343\264\224\036\016%\306!`\207"
 116      138109E3 
 116      B4941E0E 
 116      25C62160 
 116      87
 117 0045 472025E5 		.ascii	"G %\345M\014\341q8\005\234!\204\267\011\317\230Pb\300"
 117      4D0CE171 
 117      38059C21 
 117      84B709CF 
 117      985062C0 
 118 0059 09750975 		.ascii	"\011u\011uI\200\270\277]Ig\255N2R\232\033~?\311\322"
 118      4980B8BF 
 118      5D4967AD 
 118      4E32529A 
 118      1B7E3FC9 
 119 006e EEE7F7DD 		.ascii	"\356\347\367\335\337\376n\321\3528\304\241?`\204\372"
 119      DFFE6ED1 
 119      EA38C4A1 
 119      3F6084FA 
 120 007e E1131889 		.ascii	"\341\023\030\211\320[\311\010\271\020B\317\202\301e"
 120      D05BC908 
 120      B91042CF 
 120      82C165
 121 008d D48A944F 		.ascii	"\324\212\224O&\330:\260\015`\033\3016\203m\005\333\016"
 121      26D83AB0 
 121      0D601BC1 
 121      36836D05 
 121      DB0E
 122 009f F62ED84E 		.ascii	"\366.\330N\260\367\300\366\200\355\003\333\217\022?"
 122      B0F7C0F6 
 122      80ED03DB 
ARM GAS  /var/folders/c6/c789hm653lg9vtl73krp73tm0000gn/T//ccvMQiBd.s 			page 9


 122      8F123F
 123 00ae A47F0658 		.ascii	"\244\177\006X*\330A\260\365`\207\300:\300\356\252\261"
 123      2AD841B0 
 123      F56087C0 
 123      3AC0EEAA 
 123      B1
 124 00bf B2D458F7 		.ascii	"\262\324X\367\220\"\200h8\0156\\\355\277O\215\301\301"
 124      90228068 
 124      380D365C 
 124      EDBF4F8D 
 124      C1C1
 125 00d1 8D64B034 		.ascii	"\215d\2604\260\014\260,\254\304':~\200\025M\217\301"
 125      B00CB02C 
 125      ACC4273A 
 125      7E80154D 
 125      8FC1
 126 00e3 F171AC68 		.ascii	"\361q\254h$Zs\340\374GX\321\276\321D\037\031\333PU\037"
 126      245A73E0 
 126      FC4758D1 
 126      BED1441F 
 126      19DB5055 
 127 00f8 D1F51368 		.ascii	"\321\365\023h;\023\254\012,\202\007t^\003K\002\253\303"
 127      3B13AC0A 
 127      2C820774 
 127      5E034B02 
 127      ABC3
 128 010a 8AE676B0 		.ascii	"\212\346v\260!`%\360w\015\330e8\277\002v\026\254\033"
 128      216025F0 
 128      770DD865 
 128      38BF0276 
 128      16AC1B
 129 011d EC24D851 		.ascii	"\354$\330Q\2603`G\210v5\226Y\216\322Q\203,\317\223["
 129      B0336047 
 129      88763596 
 129      598ED251 
 129      832CCF93 
 130 0132 16C8933A 		.ascii	"\026\310\223: \027\323\260\210\263\322Q\016=\311L\247"
 130      2017D3B0 
 130      88B3D251 
 130      0E3DC94C 
 130      A7
 131 0143 619F44AB 		.ascii	"a\237D\253e9\332u\340\323.N\226\323D\334\212\323\001"
 131      6539DA75 
 131      E0D32E4E 
 131      96D344DC 
 131      8AD301
 132 0156 3905A3A7 		.ascii	"9\005\243\247\320z\031\356@\377\321\370\377B\367/\330"
 132      D07A19EE 
 132      40FFD1F8 
 132      FF42F72F 
 132      D8
 133 0167 FD6B8A5E 		.ascii	"\375k\212^C\321\2731F\"^\215\237RA\"NM\327\203\351\337"
 133      43D1BB31 
 133      46225E8D 
 133      9F524122 
 133      4E4DD783 
 134 017d 5A0342A3 		.ascii	"Z\003B\243\267\325\023RX\337CN\233?\201V\310-]]+?\272"
ARM GAS  /var/folders/c6/c789hm653lg9vtl73krp73tm0000gn/T//ccvMQiBd.s 			page 10


 134      B7D51352 
 134      58DF434E 
 134      9B3F8156 
 134      C82D5D5D 
 135 0194 99BD4C8E 		.ascii	"\231\275L\216\315\227\373\373_B\217\240\277\302\360"
 135      CD97FBFB 
 135      5F428FA0 
 135      BFC2F0
 136 01a3 887E1947 		.ascii	"\210~\031GD\374\354\367M\207@\370\353\361#\352\331T"
 136      44FCECF7 
 136      4D8740F8 
 136      EBF123EA 
 136      D954
 137 01b5 97129343 		.ascii	"\227\022\223C\3775\014\002\246\027\255!<y\235\354\242"
 137      FF350C02 
 137      A617AD21 
 137      3C799DEC 
 137      A2
 138 01c6 34D27E1D 		.ascii	"4\322~\035~\202\225\3726\346\364\027\024]\261\255\213"
 138      7E8295FA 
 138      36E6F417 
 138      145DB1AD 
 138      8B
 139 01d7 0E63B951 		.ascii	"\016c\271Q\276\327\337\357R\303qH\346\354\004\330`\014"
 139      BED7DFEF 
 139      52C37148 
 139      E6EC04D8 
 139      600C
 140 01e9 F04E6280 		.ascii	"\360Nb\200\256h\327\316\306\356\227\361\342\372\226"
 140      AE68D7CE 
 140      C6EE97F1 
 140      E2FA96
 141 01f8 0EB997E4 		.ascii	"\016\271\227\344C\213\261#!\206\002\331d\012\331\322"
 141      438BB123 
 141      218602D9 
 141      640AD9D2 
 142 0208 79C9B54C 		.ascii	"y\311\265LnW\262\247!z,\020[L\021\321\346\3238\001\361"
 142      6E57B2A7 
 142      217A2C10 
 142      5B4C11D1 
 142      E6D33801 
 143 021d A6CB1CB1 		.ascii	"\246\313\034\261\315B\305\305D\025\373,\020;L\021\267"
 143      CD42C5C5 
 143      4415FB2C 
 143      103B4C11 
 143      B7
 144 022e 575C484A 		.ascii	"W\\HJ@|m\201h3W\261\324D\305\237\223\314\021\273\314"
 144      407C6D81 
 144      683357B1 
 144      D444C59F 
 144      93CC11BB 
 145 0243 7371EE54 		.ascii	"sq\356Tb.\326Z v[\2500\231\221\177X \366Z\250\370(Q"
 145      622ED65A 
 145      20765BA8 
 145      3099917F 
 145      5820F65A 
 146 025b C5590B44 		.ascii	"\305Y\013D\314\024\261\253\273\367\3218\302\376\267"
ARM GAS  /var/folders/c6/c789hm653lg9vtl73krp73tm0000gn/T//ccvMQiBd.s 			page 11


 146      CC14B1AB 
 146      BBF7D138 
 146      C2FEB7
 147 026a AA5DFD56 		.ascii	"\252]\375V\271\350\002\206\224\205\207\371\003\351\277"
 147      B9E80286 
 147      948587F9 
 147      03E9BF
 148 0279 72887CEB 		.ascii	"r\210|\353\226%\233\013;\300\012\313@\177\034X\232\224"
 148      96259B0B 
 148      3BC00ACB 
 148      407F1C58 
 148      9A94
 149 028b 4159A938 		.ascii	"AY\2518\2103\264^tA\253\037tA\023\361\233\370I[+N6Z"
 149      8833B45E 
 149      7441AB1F 
 149      744113F1 
 149      9BF8495B 
 150 02a3 4CF290A3 		.ascii	"L\362\220\243#\311)\032\352\005\024_\033\267\367|\034"
 150      23C9291A 
 150      EA05145F 
 150      1BB7F77C 
 150      1C
 151 02b4 AC875C89 		.ascii	"\254\207\\\211\270\003g\303\010/\032F\370@\016\021u"
 151      B80367C3 
 151      082F1A46 
 151      F8400E11 
 151      75
 152 02c5 18BA2A9D 		.ascii	"\030\272*\235(U\216\335?\227)')\327\221I\302\324\317"
 152      28558EDD 
 152      3F972927 
 152      29D79149 
 152      C2D4CF
 153 02d8 48D422CF 		.ascii	"H\324\"\317\257\217\365\237[\376\250\334\322\016\310"
 153      AF8FF59F 
 153      5BFEA8DC 
 153      D20EC8
 154 02e7 43747DBE 		.ascii	"Ct}\276N%\220\276f)PO\225\217\332\200\345E\317gFE\015"
 154      4E2590BE 
 154      6629504F 
 154      958FDA80 
 154      E545CF67 
 155 02fe F6856358 		.ascii	"\366\205cX\016\003k\324\303\376m\007\226f\255l\211\036"
 155      0E036BD4 
 155      C3FE6D07 
 155      9666AD6C 
 155      891E
 156 0310 D6E718C6 		.ascii	"\326\347\030\306*[\252\207\335\265\003\033f\255\254"
 156      2A5BAA87 
 156      DDB5031B 
 156      66ADAC
 157 031f 490FFBC6 		.ascii	"I\017\373\3061\214U\326\254\207\315K\261\001\033a\255"
 157      318C55D6 
 157      AC87CD4B 
 157      B1011B61 
 157      AD
 158 0330 6CB91ED6 		.ascii	"l\271\036\326\340\030\306*[\241\207-\262\003\313\261"
 158      E018C62A 
ARM GAS  /var/folders/c6/c789hm653lg9vtl73krp73tm0000gn/T//ccvMQiBd.s 			page 12


 158      5BA1872D 
 158      B203CBB1 
 159 0340 56B6490F 		.ascii	"V\266I\017{\3251\214U\266E\017{\315\016\354g\326\312"
 159      7BD5318C 
 159      55B6450F 
 159      7BCD0EEC 
 159      67D6CA
 160 0353 B6E961AF 		.ascii	"\266\351a\257;\206\261\312v\350a+\355\300r\255\224\315"
 160      3B86B1CA 
 160      76E8612B 
 160      EDC072AD 
 160      94CD
 161 0365 8DB5FD26 		.ascii	"\215\265\375&*>\204\242\352\222\242P\265e\005\263\245"
 161      2A3E84A2 
 161      EA92A250 
 161      B56505B3 
 161      A5
 162 0376 A56FD66A 		.ascii	"\245o\326j\335L\304\327\361C\364\214\256\237r|\325\315"
 162      DD4CC4D7 
 162      F143F48C 
 162      AE9F727C 
 162      D5CD
 163 0388 4C37D548 		.ascii	"L7\325Hz\334P\026\367\201\257\277z2\260\324\353[\301"
 163      7ADC5016 
 163      F781AFBF 
 163      7A32B0D4 
 163      EB5BC1
 164 039b B0571987 		.ascii	"\260W\031\207\315\2520\0337\233\304]\372$\276e'\211"
 164      CDAA301B 
 164      379BC45D 
 164      FA24BE65 
 164      2789
 165 03ad E3AC61BB 		.ascii	"\343\254a\273\365\260\015v`\223\254ke\257\036\266\311"
 165      F5B00D76 
 165      6093AC6B 
 165      65AF1EB6 
 165      C9
 166 03be 318C5576 		.ascii	"1\214UvL\017\333n\007Vn\255\354\204\036\326\346\030"
 166      4C0FDB6E 
 166      07566EAD 
 166      EC841ED6 
 166      E618
 167 03d0 A6573637 		.ascii	"\246W67vj\240\360Z\306\031*o\034\273\3322\315Z-\233"
 167      766AA0F0 
 167      5AC6192A 
 167      6F1CBBDA 
 167      32CD5A2D 
 168 03e5 89F88EE3 		.ascii	"\211\370\216\343\302\373\312\242\360\364\373\233\201"
 168      C2FBCAA2 
 168      F0F4FB9B 
 168      81
 169 03f2 5630ECBD 		.ascii	"V0\354\275\306a3\"\324\323i&94\373\350\377\243\026\361"
 169      C6613322 
 169      D4D36926 
 169      3934FBE8 
 169      FFA316F1 
 170 0406 87F449E2 		.ascii	"\207\364I\342\010\036\011\376(\365\307\251?I\375i\352"
ARM GAS  /var/folders/c6/c789hm653lg9vtl73krp73tm0000gn/T//ccvMQiBd.s 			page 13


 170      081E09FE 
 170      28F5C7A9 
 170      3F49FD69 
 170      EA
 171 0417 CF507F96 		.ascii	"\317P\177\226\372\363\324_\244\376\023\352/S\177\205"
 171      FAF3D45F 
 171      A4FE13EA 
 171      2F537F85 
 172 0427 FAABD477 		.ascii	"\372\253\324wS\3779\3657\251\357\245\376\026\365\267"
 172      53FF39F5 
 172      37A9EFA5 
 172      FE16F5B7 
 173 0437 A9EF031F 		.ascii	"\251\357\003\037\377\030\236\224:,\346\227h\277;\360"
 173      FF189E94 
 173      3A2CE697 
 173      68BF3BF0 
 174 0447 A4149FA1 		.ascii	"\244\024\237\241\246,u\027\330\265F\0361\"\236\2034"
 174      A62C7517 
 174      D8B5461E 
 174      31229E83 
 174      34
 175 0458 7D5E9547 		.ascii	"}^\225G\022\350\300\211\370>\255\245\367S\314\366\223"
 175      12E8C089 
 175      F83EADA5 
 175      F753CCF6 
 175      93
 176 0469 34C87DDD 		.ascii	"4\310}\335\004)\347\332Y?\216\343\207ixN\355uO-\004"
 176      0429E7DA 
 176      593F8EE3 
 176      8769784E 
 176      ED754F2D 
 177 047e DDD469AB 		.ascii	"\335\324i\253WS\226\322]\355:V\353\232\252v\2209\247"
 177      575396D2 
 177      5DED3A56 
 177      EB9AAA76 
 177      9039A7
 178 0491 35349733 		.ascii	"54\2273\257\241\024u\020\344\2518\326\333\265\271\257"
 178      AFA11475 
 178      10E4A938 
 178      D6DBB5B9 
 178      AF
 179 04a2 A301EF5F 		.ascii	"\243\001\357_\263@\216\316\355\352\177iel\230\366p}"
 179      B3408ECE 
 179      EDEA7F69 
 179      656C98F6 
 179      707D
 180 04b4 2DC5CEC6 		.ascii	"-\305\316\306n\036g\330\330\325s\011\317\336\020\345"
 180      6E1E67D8 
 180      D8D57309 
 180      CFDE10E5 
 181 04c4 F68A0329 		.ascii	"\366\212\003)\332\216v\244\026\341\256\255\010/\033"
 181      DA8E76A4 
 181      16E1AEAD 
 181      082F1B
 182 04d3 232C308D 		.ascii	"#,0\215\320v\342BjB\204\205\251v\"4\030#\274b\026!v"
 182      D076E242 
 182      6A428485 
ARM GAS  /var/folders/c6/c789hm653lg9vtl73krp73tm0000gn/T//ccvMQiBd.s 			page 14


 182      A9762234 
 182      1823BC62 
 183 04ea 07D619C8 		.ascii	"\007\326\031\310Q\277.G+m\361\377d\344/4\035\301\326"
 183      51BF2E47 
 183      2B6DF1FF 
 183      64E42F34 
 183      1DC1D6
 184 04fd BBB18578 		.ascii	"\273\261\205x\361\306\370LD\223\354oR\376\302\231lR"
 184      F1C6F84C 
 184      4493EC6F 
 184      52FEC299 
 184      6C52
 185 050f 0C9B924E 		.ascii	"\014\233\222NF,m\311\241\177\246\2525\376c\264J\206"
 185      462C6DC9 
 185      A17FA6AA 
 185      35FE63B4 
 185      4A86
 186 0521 BDFDF183 		.ascii	"\275\375\361\203\231Q\254\275\\\271E{,\002\371\346\233"
 186      9951ACBD 
 186      5CB9457B 
 186      2C02F9E6 
 186      9B
 187 0532 0C75F3A3 		.ascii	"\014u\363\243\216\371\313\271\345#\342c^d\034\363b\323"
 187      8EF9CBB9 
 187      E523E263 
 187      5E641CF3 
 187      62D3
 188 0544 316FEEBB 		.ascii	"1o\356\273\323dZ}wle\3665c\224&\323\231k\373\264C}o"
 188      D3645A7D 
 188      776C65F6 
 188      35639426 
 188      D3996BFB 
 189 055c 51DFC0C5 		.ascii	"Q\337\300\305w\217\013\323\354\204h6\206x\335\242\300"
 189      778F0BD3 
 189      EC846836 
 189      8678DDA2 
 189      C0
 190 056d CF241678 		.ascii	"\317$\026x\253\255\010o\030#\2540/\360\306\317\022\013"
 190      ABAD086F 
 190      1823AC30 
 190      2FF0C6CF 
 190      120B
 191 057f 7C9BAD08 		.ascii	"|\233\255\010-\306\010\255\246i\332v)\241\300?\260\305"
 191      2DC608AD 
 191      A669DA76 
 191      29A1C03F 
 191      B0C5
 192 0591 5F65E4AF 		.ascii	"_e\344\257f\371&\233\303X|\355m\210/\276\321\256\363"
 192      66F9269B 
 192      C3587CED 
 192      6D882FBE 
 192      D1AEF3
 193 05a4 6BF7AFC7 		.ascii	"k\367\257\307\233e\031\342\257\345\3106\363\276!\376"
 193      9B6519E2 
 193      AFE5C836 
 193      F3BE21FE 
 194 05b4 8349F445 		.ascii	"\203I\364E\030g\330g\256\354\206\002 o\366\310\235\007"
ARM GAS  /var/folders/c6/c789hm653lg9vtl73krp73tm0000gn/T//ccvMQiBd.s 			page 15


 194      1867D867 
 194      AEEC8602 
 194      206FF6C8 
 194      9D07
 195 05c6 EF34B776 		.ascii	"\3574\267vwp$\325.\355\251\342\225t\254b\277\335Vs\033"
 195      777024D5 
 195      2EEDA9E2 
 195      9574AC62 
 195      BFDD5673 
 196 05db 89DF98A9 		.ascii	"\211\337\230\251\341\026:\306\3450\270\035,n\211\035"
 196      E1163AC6 
 196      E530B81D 
 196      2C6E891D 
 197 05eb DC20DBCD 		.ascii	"\334 \333\3156\026\267\3141\216U\267\213\305\275a\007"
 197      3616B7CC 
 197      318E55B7 
 197      8BC5BD61 
 197      07
 198 05fc 37C89673 		.ascii	"7\310\226s7\213[\353\030\307\252\333\313\3426\332\301"
 198      378B5BEB 
 198      18C7AADB 
 198      CBE236DA 
 198      C1
 199 060d 596D3BE5 		.ascii	"Ym;\345y\261c\032NY1\333\034\343Xu'Xu\355vp9\326\271"
 199      79B1631A 
 199      4E5931DB 
 199      1CE35875 
 199      275875ED 
 200 0626 3BC5E20E 		.ascii	";\305\342\016;\306\351\324\301\327\250\263;\215\322"
 200      3BC6E9D4 
 200      C1D7A8B3 
 200      3B8DD2
 201 0635 C8032D87 		.ascii	"\310\003-\207N\031if\317\234\203\354>?f\305]\262#\316"
 201      4E196966 
 201      CF9C83EC 
 201      3E3F66C5 
 201      5DB223CE 
 202 0649 72CB581F 		.ascii	"r\313X\037;\307\342>s\214cg\342\002\213\273i\0077\326"
 202      3BC7E23E 
 202      738C6367 
 202      E2028BBB 
 202      690737D6 
 203 065d BA4E2EB1 		.ascii	"\272N.\261u\322\347\030\307\252\353e\325\311Cl\340\306"
 203      75D2E718 
 203      C7AAEB65 
 203      D5C9436C 
 203      E0C6
 204 066f 59E7EE16 		.ascii	"Y\347\356\026\213kp\214c\353\3446S'Q#\315\254N\006\331"
 204      8B6B708C 
 204      63EBE436 
 204      53275123 
 204      CDAC4E06 
 205 0684 79F6B1E2 		.ascii	"y\366\261\342\232\355\210\033d\273x\207\305\255v\214"
 205      9AED881B 
 205      64BB7887 
 205      C5AD768C 
 206 0694 6367E26B 		.ascii	"cg\342k\026\367w;8\263\215\230Z'\367\014\353\211c\034"
ARM GAS  /var/folders/c6/c789hm653lg9vtl73krp73tm0000gn/T//ccvMQiBd.s 			page 16


 206      16F7773B 
 206      38B38D98 
 206      5A27F70C 
 206      EB89631C 
 207 06a8 ABEE1BC3 		.ascii	"\253\356\033\303zb\007\367\202u\356\2427\030\334\207"
 207      7A6207F7 
 207      8275EEA2 
 207      3718DC87 
 208 06b8 8E716C9D 		.ascii	"\216ql\2354\336\320\327I\247\235:\251\262\026\267\204"
 208      34DED0D7 
 208      49A79D3A 
 208      A9B216B7 
 208      84
 209 06c9 15D76547 		.ascii	"\025\327eG\\\2155n)\213\273\352\030\307\216\265\211"
 209      5C8D356E 
 209      298BBBEA 
 209      18C78EB5 
 209      89
 210 06da 19EB753B 		.ascii	"\031\353u;c\235m-\256\231\025\367\245\035q2\266\346"
 210      639D6D2D 
 210      AE9915F7 
 210      A51D7132 
 210      B6E6
 211 06ec 2D67795F 		.ascii	"-gy_9\347\345 \313\217\376\201L\304os\344}\302\3378"
 211      39E7E520 
 211      CB8FFE81 
 211      4CC46F73 
 211      E47DC2DF 
 212 0701 B2C77F87 		.ascii	"\262\307\177\207\372\215\324o\246~+\365\333\251\177"
 212      FA8DD46F 
 212      A67E2BF5 
 212      DBA97F
 213 0710 97FA9DD4 		.ascii	"\227\372\235\324\277G\375\036\352\367Q\277\237\372\367"
 213      BF47FD1E 
 213      EAF751BF 
 213      9FFAF7
 214 071f A93F40FD 		.ascii	"\251?@\375!\352?\240\3760\365G\250?J\375q\352OR\177"
 214      21EA3FA0 
 214      FE30F547 
 214      A83F4AFD 
 214      71EA4F52 
 215 0734 9AFA33D4 		.ascii	"\232\3723\324\237\245\376<\365\027\251\377\204\372\313"
 215      9FA5FE3C 
 215      F517A9FF 
 215      84FACB
 216 0743 D45FA1FE 		.ascii	"\324_\241\376*g\375.b\255E\226\310\270\273\271\370\273"
 216      2A67FD2E 
 216      62AD4596 
 216      C8B8BBB9 
 216      F8BB
 217 0755 08B31F48 		.ascii	"\010\263\037H\230\227\203\312#p\354\364R\234#\342k\364"
 217      989783CA 
 217      2370ECF4 
 217      529C23E2 
 217      6BF4
 218 0767 E9777EC6 		.ascii	"\351w~\306\203\177dIx\315\331c|\370\335\331I\177d\351"
 218      837F6449 
ARM GAS  /var/folders/c6/c789hm653lg9vtl73krp73tm0000gn/T//ccvMQiBd.s 			page 17


 218      78CDD963 
 218      7CF8DDD9 
 218      497F64E9 
 219 077b B1F5E8BB 		.ascii	"\261\365\350\273\247s\011\363#\313\253TB\317\267~\362"
 219      A77309F3 
 219      23CBAB54 
 219      42CFB77E 
 219      F2
 220 078c DDDB197F 		.ascii	"\335\333\031\1779'\342\015\034\347\020\226\303\300\216"
 220      3927E20D 
 220      1CE71096 
 220      C3C08E
 221 079b 75EADEF4 		.ascii	"u\352\336\3645\333Q6\310S\357\011=\254\3251l\320z\357"
 221      35DB5136 
 221      C853EF09 
 221      3DACD531 
 221      6CD07AEF 
 222 07af D1D5FBE7 		.ascii	"\321\325\373\347\264\336\277\240u\364/\352{\251\277"
 222      B4DEBFA0 
 222      75F42FEA 
 222      7BA9BF
 223 07be 35484D5D 		.ascii	"5HM]\033\244\246n\017\324\224\241W\373 \277\037\376"
 223      1BA4A66E 
 223      0FD494A1 
 223      57FB20BF 
 223      1FFE
 224 07d0 67A0172A 		.ascii	"g\240\027*u\327\325\206\335\201\220O\014\270=R  \206"
 224      75D7D586 
 224      DD81904F 
 224      0CB83D52 
 224      202086
 225 07e3 DD337DBE 		.ascii	"\3353}\276Qb\270zT0\024\224FI\342t\277;?7oL\356\330"
 225      5162B87A 
 225      54301494 
 225      4649E274 
 225      BF3B3F37 
 226 07fb DCA7DDEC 		.ascii	"\334\247\335\354e\177\320\027\250\253\224\334\265\221"
 226      657FD017 
 226      A8AB94DC 
 226      B591
 227 0809 4A7F3032 		.ascii	"J\17702\272\012\245\325\301\261 _\210\244L\234<5\307"
 227      BA0AA5D5 
 227      C1B1205F 
 227      88A44C9C 
 227      3C35C7
 228 081c 837EFB1D 		.ascii	"\203~\373\035\300\253E_\225?(\271\205Ji\206X\027\210"
 228      C0AB455F 
 228      953F28B9 
 228      854A6986 
 228      581788
 229 082f 08913935 		.ascii	"\010\22195R-\004\033\"\010Z8\367\350\321\352\277P\255"
 229      522D041B 
 229      22085A38 
 229      F7E8D1EA 
 229      BF50AD
 230 0842 BB0A82D5 		.ascii	"\273\012\202\325\204\302\221Z\267\267\242\254 \337]"
 230      84C2915A 
ARM GAS  /var/folders/c6/c789hm653lg9vtl73krp73tm0000gn/T//ccvMQiBd.s 			page 18


 230      B7B7A2AC 
 230      20DF5D
 231 0851 5A5AE4AE 		.ascii	"ZZ\344\256()\233\225\007:\205@\240r\264\017\245='\371"
 231      28299B95 
 231      073A8540 
 231      A072B40F 
 231      A53D27F9 
 232 0865 22A1F0F8 		.ascii	"\"\241\360\370\334\014\345\222\340\017\372#?\327C\302"
 232      DC0CE592 
 232      E00FFA23 
 232      3FD743C2 
 233 0875 119551C8 		.ascii	"\021\225Q\310\227y\312f\273}U\276PX\022f=S\015\221\263"
 233      9779CA66 
 233      BB7D55BE 
 233      50581266 
 233      3D530D91 
 234 088a 05724FF0 		.ascii	"\005rO\360\207\177'H5\376@hf\2354\322\320YS\357\253"
 234      877F2748 
 234      35FE4068 
 234      669D34D2 
 234      D05953EF 
 235 089f AA94A6D7 		.ascii	"\252\224\246\327\315\204N\303\205\312\3513\005_\225"
 235      CD844EC3 
 235      85CAE933 
 235      055F95
 236 08ae E47B5108 		.ascii	"\344{Q\010H\342,I\360\327\206\255\273\325F\304\010\031"
 236      48E22C49 
 236      F0D786AD 
 236      BBD546C4 
 236      0819
 237 08c0 E50F057A 		.ascii	"\345\017\005z\006>T#TKbm\035\310\360\205\375\021\322"
 237      063E5423 
 237      544B626D 
 237      1DC8F085 
 237      FD11D2
 238 08d3 FD311DB3 		.ascii	"\3751\035\263.\010y~Q\230\021\016U\223[OX\223\347\020"
 238      2E08797E 
 238      5198110E 
 238      55935B4F 
 238      5893E710 
 239 08e7 6EB6AFCA 		.ascii	"n\266\257\312;\247\266\302_-\205'\211\301\312\200\024"
 239      3BA7B6C2 
 239      5F2D8527 
 239      89C1CA80 
 239      14
 240 08f8 2E19A157 		.ascii	".\031\241W\250g=\036\327 \302\260\215\"\364\003\223"
 240      A8673D1E 
 240      D720C2B0 
 240      8D22F403 
 240      93
 241 0909 8211294C 		.ascii	"\202\021)L.>\254v\201\260ah/\221d\375\302|\226|\241"
 241      2E3EAC76 
 241      81B06168 
 241      2F9164FD 
 241      C27C967C 
 242 091e EAEA5050 		.ascii	"\352\352PPKtp\226\337\007\362\206\221cqP\234\036\220"
 242      4B747096 
ARM GAS  /var/folders/c6/c789hm653lg9vtl73krp73tm0000gn/T//ccvMQiBd.s 			page 19


 242      DF07F286 
 242      91637150 
 242      9C1E90
 243 0931 94B9CAB7 		.ascii	"\224\271\312\267;\305\325\244 \374d\2322\342\177\010"
 243      3BC5D5A4 
 243      20FC649A 
 243      32E27F08 
 244 0941 119787CF 		.ascii	"\021\227\207\317\003\313O\362\226y\370\244\242\222b"
 244      03CB4FF2 
 244      9679F8A4 
 244      A29262
 245 0950 9EF3F2AE 		.ascii	"\236\363\362\256\342\211|\262\307S\306\347Q\237\237"
 245      E2897CB2 
 245      C753C6E7 
 245      519F9F
 246 095f E4F114F3 		.ascii	"\344\361\024\363.\317\344\012W\271\327\343*\344y\027"
 246      2ECFE40A 
 246      57B9D7E3 
 246      2AE47917 
 247 096f EF81BFA1 		.ascii	"\357\201\277\241\303\370\242\012\336UDz\226\025\362"
 247      C3F8A20A 
 247      DE55447A 
 247      9615F2
 248 097e DC14A557 		.ascii	"\334\024\245W\001\264\237\306'\371\252D6\333D]\250\026"
 248      01B49FC6 
 248      27F9AA44 
 248      36DB445D 
 248      A816
 249 0990 1CA49D1C 		.ascii	"\034\244\235\034I\266\311\021\362]\012i\235\000Y-\361"
 249      49B6C911 
 249      F25D0A69 
 249      9D00592D 
 249      F1
 250 09a1 F2C3E804 		.ascii	"\362\303\350\004\350.d\323\242b\022\237\036\277\364"
 250      E82E64D3 
 250      A262129F 
 250      1EBFF4
 251 09b0 4B7D0069 		.ascii	"K}\000iv\304\355)\363\226x\007f\225\024\247\257zB]\220"
 251      76C4ED29 
 251      F3967807 
 251      669514A7 
 251      AF7A425D 
 252 09c5 246FA820 		.ascii	"$o\250 \324J\021a|\241\267\270\234/\031*\006~/\316!"
 252      D44A1161 
 252      7CA1B7B8 
 252      9C2F192A 
 252      067E2FCE 
 253 09da 531180EF 		.ascii	"S\021\200\357Q\362,1P'=L\364La\247\177\270\252q*-$M"
 253      51F22C31 
 253      50273D4C 
 253      F44C61A7 
 253      7FB8AA71 
 254 09f2 1455C95C 		.ascii	"\024U\311\\\032NE\031\312-Cw\361\247\346Z\275\025\312"
 254      1A4E4519 
 254      CA2D4377 
 254      F1A7E65A 
 254      BD15CA
ARM GAS  /var/folders/c6/c789hm653lg9vtl73krp73tm0000gn/T//ccvMQiBd.s 			page 20


 255 0a05 ECCC1893 		.ascii	"\354\314\030\223\373\314\354\331d~x\217G\250\200os\221"
 255      FBCCECD9 
 255      647E788F 
 255      47A8806F 
 255      7391
 256 0a17 3483F3F0 		.ascii	"4\203\363\360\251\345\245\245\236\011\023\371$\342\\"
 256      A9E5A5A5 
 256      9E0913F9 
 256      24E25C
 257 0a26 9E123EAD 		.ascii	"\236\022>\255p\322\370<\336[AO\362\265\223\002r\222"
 257      70D2F83C 
 257      DE5B414F 
 257      F2B59302 
 257      7292
 258 0a38 CE177B8B 		.ascii	"\316\027{\213\371\347\212\213r\323\012\313\265F\345"
 258      F9E78A8B 
 258      72D30ACB 
 258      B546E5
 259 0a47 4AA3F8BD 		.ascii	"J\243\370\275\274T\002(\236\314\223c\276z,\200c\274"
 259      BC540228 
 259      9ECC9363 
 259      BE7A2C80 
 259      63BC
 260 0a59 457E2AE9 		.ascii	"E~*\351M\357\224\323\026\361;\005\351\244oi9\271Fz\307"
 260      4DEF94D3 
 260      16F13B05 
 260      E9A46F69 
 260      39B9467A 
 261 0a6e CF0A9433 		.ascii	"\317\012\2243\255\335\230tBP\357\226k\355\264\273OC"
 261      ADDD9874 
 261      4250EF96 
 261      6BEDB4BB 
 261      4F43
 262 0a80 E1900AF2 		.ascii	"\341\220\012\362\016\\\372U\262\327\353\231\310\017"
 262      0E5CFA55 
 262      B2D7EB99 
 262      C80F
 263 0a8e 81C196E4 		.ascii	"\201\301\226\344{\311P\263\212\306O,\363L\3252\221R"
 263      7BC950B3 
 263      8AC64F2C 
 263      F34CD532 
 263      9152
 264 0aa0 52E49952 		.ascii	"R\344\231RT\234B\270\023\236'\207\374\011\317\377\017"
 264      549C42B8 
 264      139E2787 
 264      FC09CFFF 
 264      0F
 265 0ab1 85651771 		.ascii	"\205e\027q"
 266              		.text
 267              		.section	.gnu.lto_.symtab.52df4e4109ad5d5f,"",%progbits
 268 0000 56656374 		.ascii	"VectorB0\000\000\000\000\000\000\000\000\000\000\000"
 268      6F724230 
 268      00000000 
 268      00000000 
 268      000000
 269 0013 00A80000 		.ascii	"\000\250\000\000\000st_lld_init\000\000\000\000\000"
 269      0073745F 
ARM GAS  /var/folders/c6/c789hm653lg9vtl73krp73tm0000gn/T//ccvMQiBd.s 			page 21


 269      6C6C645F 
 269      696E6974 
 269      00000000 
 270 0028 00000000 		.ascii	"\000\000\000\000\000\000\000\254\000\000\000_port_i"
 270      000000AC 
 270      0000005F 
 270      706F7274 
 270      5F69
 271 003a 72715F65 		.ascii	"rq_epilogue\000\000\002\000\000\000\000\000\000\000"
 271      70696C6F 
 271      67756500 
 271      00020000 
 271      00000000 
 272 004f 0000AF00 		.ascii	"\000\000\257\000\000\000_dbg_check_leave_isr\000\000"
 272      00005F64 
 272      62675F63 
 272      6865636B 
 272      5F6C6561 
 273 006b 02000000 		.ascii	"\002\000\000\000\000\000\000\000\000\000\261\000\000"
 273      00000000 
 273      0000B100 
 273      00
 274 0078 005F7374 		.ascii	"\000_stats_stop_measure_crit_isr\000\000\002\000\000"
 274      6174735F 
 274      73746F70 
 274      5F6D6561 
 274      73757265 
 275 009a 00000000 		.ascii	"\000\000\000\000\000\000\000\263\000\000\000_dbg_ch"
 275      000000B3 
 275      0000005F 
 275      6462675F 
 275      6368
 276 00ac 65636B5F 		.ascii	"eck_unlock_from_isr\000\000\002\000\000\000\000\000"
 276      756E6C6F 
 276      636B5F66 
 276      726F6D5F 
 276      69737200 
 277 00c7 00000000 		.ascii	"\000\000\000\000\265\000\000\000chSysTimerHandlerI\000"
 277      B5000000 
 277      63685379 
 277      7354696D 
 277      65724861 
 278 00e2 00020000 		.ascii	"\000\002\000\000\000\000\000\000\000\000\000\267\000"
 278      00000000 
 278      000000B7 
 278      00
 279 00ef 00005F64 		.ascii	"\000\000_dbg_check_lock_from_isr\000\000\002\000\000"
 279      62675F63 
 279      6865636B 
 279      5F6C6F63 
 279      6B5F6672 
 280 010e 00000000 		.ascii	"\000\000\000\000\000\000\000\271\000\000\000_stats_"
 280      000000B9 
 280      0000005F 
 280      73746174 
 280      735F
 281 0120 73746172 		.ascii	"start_measure_crit_isr\000\000\002\000\000\000\000\000"
ARM GAS  /var/folders/c6/c789hm653lg9vtl73krp73tm0000gn/T//ccvMQiBd.s 			page 22


 281      745F6D65 
 281      61737572 
 281      655F6372 
 281      69745F69 
 282 013e 00000000 		.ascii	"\000\000\000\000\273\000\000\000_dbg_check_enter_is"
 282      BB000000 
 282      5F646267 
 282      5F636865 
 282      636B5F65 
 283 0159 72000002 		.ascii	"r\000\000\002\000\000\000\000\000\000\000\000\000\275"
 283      00000000 
 283      00000000 
 283      00BD
 284 0167 0000005F 		.ascii	"\000\000\000_stats_increase_irq\000\000\002\000\000"
 284      73746174 
 284      735F696E 
 284      63726561 
 284      73655F69 
 285 0182 00000000 		.ascii	"\000\000\000\000\000\000\000\277\000\000\000nvicEna"
 285      000000BF 
 285      0000006E 
 285      76696345 
 285      6E61
 286 0194 626C6556 		.ascii	"bleVector\000\000\002\000\000\000\000\000\000\000\000"
 286      6563746F 
 286      72000002 
 286      00000000 
 286      00000000 
 287 01a8 00C10000 		.ascii	"\000\301\000\000\000"
 287      00
 288              		.text
 289              		.section	.gnu.lto_.opts,"",%progbits
 290 0000 272D6D63 		.ascii	"'-mcpu=cortex-m4' '-mno-thumb-interwork' '-mthumb' "
 290      70753D63 
 290      6F727465 
 290      782D6D34 
 290      2720272D 
 291 0033 272D6767 		.ascii	"'-ggdb' '-O2' '-fomit-frame-pointer' '-falign-funct"
 291      64622720 
 291      272D4F32 
 291      2720272D 
 291      666F6D69 
 292 0066 696F6E73 		.ascii	"ions=16' '-ffunction-sections' '-fdata-sections' '-"
 292      3D313627 
 292      20272D66 
 292      66756E63 
 292      74696F6E 
 293 0099 666E6F2D 		.ascii	"fno-common' '-flto'\000"
 293      636F6D6D 
 293      6F6E2720 
 293      272D666C 
 293      746F2700 
 294              		.text
 295              		.cfi_sections	.debug_frame
 296              		.section	.text.VectorB0,"ax",%progbits
 297              		.align	2
 298              		.p2align 4,,15
ARM GAS  /var/folders/c6/c789hm653lg9vtl73krp73tm0000gn/T//ccvMQiBd.s 			page 23


 299              		.global	VectorB0
 300              		.thumb
 301              		.thumb_func
 302              		.type	VectorB0, %function
 303              	VectorB0:
 304              	.LFB260:
 305              		.file 1 "../../../os/hal/ports/STM32/LLD/TIMv1/st_lld.c"
 306              		.loc 1 173 0
 307              		.cfi_startproc
 308              		@ args = 0, pretend = 0, frame = 0
 309              		@ frame_needed = 0, uses_anonymous_args = 0
 310 0000 10B5     		push	{r4, lr}
 311              		.cfi_def_cfa_offset 8
 312              		.cfi_offset 4, -8
 313              		.cfi_offset 14, -4
 314              		.loc 1 175 0
 315 0002 FFF7FEFF 		bl	_stats_increase_irq
 316              	.LVL0:
 317 0006 FFF7FEFF 		bl	_dbg_check_enter_isr
 318              	.LVL1:
 319              		.loc 1 180 0
 320 000a 4FF08043 		mov	r3, #1073741824
 321 000e 1A69     		ldr	r2, [r3, #16]
 322 0010 9207     		lsls	r2, r2, #30
 323 0012 10D5     		bpl	.L2
 324              		.loc 1 181 0
 325 0014 0024     		movs	r4, #0
 326 0016 1C61     		str	r4, [r3, #16]
 327              	.LVL2:
 328              	.LBB54:
 329              	.LBB55:
 330              	.LBB56:
 331              	.LBB57:
 332              	.LBB58:
 333              	.LBB59:
 334              	.LBB60:
 335              		.file 2 "../../../os/ext/CMSIS/include/core_cmFunc.h"
 336              		.loc 2 546 0
 337 0018 2023     		movs	r3, #32
 338              	@ 546 "../../../os/ext/CMSIS/include/core_cmFunc.h" 1
 339 001a 83F31188 		MSR basepri, r3
 340              	@ 0 "" 2
 341              		.thumb
 342              	.LBE60:
 343              	.LBE59:
 344              	.LBE58:
 345              	.LBE57:
 346              		.file 3 "../../../os/rt/include/chsys.h"
 347              		.loc 3 389 0
 348 001e FFF7FEFF 		bl	_stats_start_measure_crit_isr
 349              	.LVL3:
 350              		.loc 3 390 0
 351 0022 FFF7FEFF 		bl	_dbg_check_lock_from_isr
 352              	.LVL4:
 353              	.LBE56:
 354              	.LBE55:
 355              	.LBE54:
ARM GAS  /var/folders/c6/c789hm653lg9vtl73krp73tm0000gn/T//ccvMQiBd.s 			page 24


 356              	.LBB61:
 357              	.LBB62:
 358              		.file 4 "../../../os/hal/osal/rt/osal.h"
 359              		.loc 4 585 0
 360 0026 FFF7FEFF 		bl	chSysTimerHandlerI
 361              	.LVL5:
 362              	.LBE62:
 363              	.LBE61:
 364              	.LBB63:
 365              	.LBB64:
 366              	.LBB65:
 367              		.loc 3 408 0
 368 002a FFF7FEFF 		bl	_dbg_check_unlock_from_isr
 369              	.LVL6:
 370              		.loc 3 409 0
 371 002e FFF7FEFF 		bl	_stats_stop_measure_crit_isr
 372              	.LVL7:
 373              	.LBB66:
 374              	.LBB67:
 375              	.LBB68:
 376              	.LBB69:
 377              		.loc 2 546 0
 378              	@ 546 "../../../os/ext/CMSIS/include/core_cmFunc.h" 1
 379 0032 84F31188 		MSR basepri, r4
 380              	@ 0 "" 2
 381              	.LVL8:
 382              		.thumb
 383              	.L2:
 384              	.LBE69:
 385              	.LBE68:
 386              	.LBE67:
 387              	.LBE66:
 388              	.LBE65:
 389              	.LBE64:
 390              	.LBE63:
 391              		.loc 1 188 0
 392 0036 FFF7FEFF 		bl	_dbg_check_leave_isr
 393              	.LVL9:
 394              		.loc 1 189 0
 395 003a BDE81040 		pop	{r4, lr}
 396              		.loc 1 188 0
 397 003e FFF7FEBF 		b	_port_irq_epilogue
 398              	.LVL10:
 399              		.cfi_endproc
 400              	.LFE260:
 401              		.size	VectorB0, .-VectorB0
 402 0042 00BFAFF3 		.section	.text.st_lld_init,"ax",%progbits
 402      0080AFF3 
 402      0080AFF3 
 402      0080
 403              		.align	2
 404              		.p2align 4,,15
 405              		.global	st_lld_init
 406              		.thumb
 407              		.thumb_func
 408              		.type	st_lld_init, %function
 409              	st_lld_init:
ARM GAS  /var/folders/c6/c789hm653lg9vtl73krp73tm0000gn/T//ccvMQiBd.s 			page 25


 410              	.LFB261:
 411              		.loc 1 201 0
 412              		.cfi_startproc
 413              		@ args = 0, pretend = 0, frame = 0
 414              		@ frame_needed = 0, uses_anonymous_args = 0
 415              		@ link register save eliminated.
 416              		.loc 1 207 0
 417 0000 0F4B     		ldr	r3, .L8
 418              		.loc 1 210 0
 419 0002 1049     		ldr	r1, .L8+4
 420              		.loc 1 207 0
 421 0004 1A6C     		ldr	r2, [r3, #64]
 422              		.loc 1 201 0
 423 0006 70B4     		push	{r4, r5, r6}
 424              		.cfi_def_cfa_offset 12
 425              		.cfi_offset 4, -12
 426              		.cfi_offset 5, -8
 427              		.cfi_offset 6, -4
 428              		.loc 1 207 0
 429 0008 42F00102 		orr	r2, r2, #1
 430 000c 1A64     		str	r2, [r3, #64]
 431              		.loc 1 210 0
 432 000e 8868     		ldr	r0, [r1, #8]
 433              		.loc 1 213 0
 434 0010 4FF08043 		mov	r3, #1073741824
 435              		.loc 1 215 0
 436 0014 0022     		movs	r2, #0
 437              		.loc 1 219 0
 438 0016 0124     		movs	r4, #1
 439              		.loc 1 210 0
 440 0018 40F00100 		orr	r0, r0, #1
 441              		.loc 1 213 0
 442 001c 42F2CF06 		movw	r6, #8399
 443              		.loc 1 214 0
 444 0020 4FF0FF35 		mov	r5, #-1
 445              		.loc 1 210 0
 446 0024 8860     		str	r0, [r1, #8]
 447              		.loc 1 213 0
 448 0026 9E62     		str	r6, [r3, #40]
 449              		.loc 1 223 0
 450 0028 1C20     		movs	r0, #28
 451              		.loc 1 214 0
 452 002a DD62     		str	r5, [r3, #44]
 453              		.loc 1 223 0
 454 002c 0821     		movs	r1, #8
 455              		.loc 1 215 0
 456 002e 9A61     		str	r2, [r3, #24]
 457              		.loc 1 216 0
 458 0030 5A63     		str	r2, [r3, #52]
 459              		.loc 1 217 0
 460 0032 DA60     		str	r2, [r3, #12]
 461              		.loc 1 218 0
 462 0034 5A60     		str	r2, [r3, #4]
 463              		.loc 1 219 0
 464 0036 5C61     		str	r4, [r3, #20]
 465              		.loc 1 220 0
 466 0038 1C60     		str	r4, [r3]
ARM GAS  /var/folders/c6/c789hm653lg9vtl73krp73tm0000gn/T//ccvMQiBd.s 			page 26


 467              		.loc 1 238 0
 468 003a 70BC     		pop	{r4, r5, r6}
 469              		.loc 1 223 0
 470 003c FFF7FEBF 		b	nvicEnableVector
 471              	.LVL11:
 472              	.L9:
 473              		.align	2
 474              	.L8:
 475 0040 00380240 		.word	1073887232
 476 0044 002004E0 		.word	-536600576
 477              		.cfi_endproc
 478              	.LFE261:
 479              		.size	st_lld_init, .-st_lld_init
 480 0048 AFF30080 		.text
 480      AFF30080 
 481              	.Letext0:
 482              		.file 5 "/usr/local/Cellar/gcc-arm-none-eabi/20140805/arm-none-eabi/include/machine/_default_types
 483              		.file 6 "/usr/local/Cellar/gcc-arm-none-eabi/20140805/arm-none-eabi/include/stdint.h"
 484              		.file 7 "../../../os/rt/ports/ARMCMx/compilers/GCC/chtypes.h"
 485              		.file 8 "../../../os/rt/include/chsystypes.h"
 486              		.file 9 "../../../os/rt/include/chschd.h"
 487              		.file 10 "../../../os/ext/CMSIS/ST/stm32f407xx.h"
 488              		.file 11 "../../../os/rt/ports/ARMCMx/chcore.h"
 489              		.file 12 "../../../os/rt/ports/ARMCMx/chcore_v7m.h"
 490              		.file 13 "../../../os/hal/ports/STM32/LLD/TIMv1/stm32_tim.h"
 491              		.file 14 "../../../os/rt/include/chdebug.h"
 492              		.file 15 "../../../os/rt/include/chtm.h"
 493              		.file 16 "../../../os/rt/include/chstats.h"
 494              		.file 17 "../../../os/rt/include/chsem.h"
 495              		.file 18 "../../../os/rt/include/chmtx.h"
 496              		.file 19 "../../../os/ext/CMSIS/include/core_cm4.h"
 497              		.file 20 "../../../os/hal/ports/common/ARMCMx/nvic.h"
 498              		.section	.debug_info,"",%progbits
 499              	.Ldebug_info0:
 500 0000 210D0000 		.4byte	0xd21
 501 0004 0400     		.2byte	0x4
 502 0006 00000000 		.4byte	.Ldebug_abbrev0
 503 000a 04       		.byte	0x4
 504 000b 01       		.uleb128 0x1
 505 000c 00000000 		.4byte	.LASF192
 506 0010 01       		.byte	0x1
 507 0011 9C070000 		.4byte	.LASF193
 508 0015 DC030000 		.4byte	.LASF194
 509 0019 00000000 		.4byte	.Ldebug_ranges0+0
 510 001d 00000000 		.4byte	0
 511 0021 00000000 		.4byte	.Ldebug_line0
 512 0025 02       		.uleb128 0x2
 513 0026 04       		.byte	0x4
 514 0027 05       		.byte	0x5
 515 0028 696E7400 		.ascii	"int\000"
 516 002c 03       		.uleb128 0x3
 517 002d 04       		.byte	0x4
 518 002e 07       		.byte	0x7
 519 002f 88030000 		.4byte	.LASF0
 520 0033 03       		.uleb128 0x3
 521 0034 01       		.byte	0x1
 522 0035 06       		.byte	0x6
ARM GAS  /var/folders/c6/c789hm653lg9vtl73krp73tm0000gn/T//ccvMQiBd.s 			page 27


 523 0036 4A020000 		.4byte	.LASF1
 524 003a 04       		.uleb128 0x4
 525 003b 1C010000 		.4byte	.LASF5
 526 003f 05       		.byte	0x5
 527 0040 1C       		.byte	0x1c
 528 0041 45000000 		.4byte	0x45
 529 0045 03       		.uleb128 0x3
 530 0046 01       		.byte	0x1
 531 0047 08       		.byte	0x8
 532 0048 98060000 		.4byte	.LASF2
 533 004c 03       		.uleb128 0x3
 534 004d 02       		.byte	0x2
 535 004e 05       		.byte	0x5
 536 004f BD060000 		.4byte	.LASF3
 537 0053 03       		.uleb128 0x3
 538 0054 02       		.byte	0x2
 539 0055 07       		.byte	0x7
 540 0056 EB020000 		.4byte	.LASF4
 541 005a 04       		.uleb128 0x4
 542 005b D2040000 		.4byte	.LASF6
 543 005f 05       		.byte	0x5
 544 0060 37       		.byte	0x37
 545 0061 65000000 		.4byte	0x65
 546 0065 03       		.uleb128 0x3
 547 0066 04       		.byte	0x4
 548 0067 05       		.byte	0x5
 549 0068 93020000 		.4byte	.LASF7
 550 006c 04       		.uleb128 0x4
 551 006d 29080000 		.4byte	.LASF8
 552 0071 05       		.byte	0x5
 553 0072 38       		.byte	0x38
 554 0073 77000000 		.4byte	0x77
 555 0077 03       		.uleb128 0x3
 556 0078 04       		.byte	0x4
 557 0079 07       		.byte	0x7
 558 007a 7E070000 		.4byte	.LASF9
 559 007e 03       		.uleb128 0x3
 560 007f 08       		.byte	0x8
 561 0080 05       		.byte	0x5
 562 0081 C3020000 		.4byte	.LASF10
 563 0085 04       		.uleb128 0x4
 564 0086 FE050000 		.4byte	.LASF11
 565 008a 05       		.byte	0x5
 566 008b 4E       		.byte	0x4e
 567 008c 90000000 		.4byte	0x90
 568 0090 03       		.uleb128 0x3
 569 0091 08       		.byte	0x8
 570 0092 07       		.byte	0x7
 571 0093 84010000 		.4byte	.LASF12
 572 0097 04       		.uleb128 0x4
 573 0098 0B090000 		.4byte	.LASF13
 574 009c 06       		.byte	0x6
 575 009d 2A       		.byte	0x2a
 576 009e 3A000000 		.4byte	0x3a
 577 00a2 04       		.uleb128 0x4
 578 00a3 90060000 		.4byte	.LASF14
 579 00a7 06       		.byte	0x6
ARM GAS  /var/folders/c6/c789hm653lg9vtl73krp73tm0000gn/T//ccvMQiBd.s 			page 28


 580 00a8 41       		.byte	0x41
 581 00a9 5A000000 		.4byte	0x5a
 582 00ad 04       		.uleb128 0x4
 583 00ae 40070000 		.4byte	.LASF15
 584 00b2 06       		.byte	0x6
 585 00b3 42       		.byte	0x42
 586 00b4 6C000000 		.4byte	0x6c
 587 00b8 04       		.uleb128 0x4
 588 00b9 06010000 		.4byte	.LASF16
 589 00bd 06       		.byte	0x6
 590 00be 4E       		.byte	0x4e
 591 00bf 85000000 		.4byte	0x85
 592 00c3 05       		.uleb128 0x5
 593 00c4 A2000000 		.4byte	0xa2
 594 00c8 05       		.uleb128 0x5
 595 00c9 AD000000 		.4byte	0xad
 596 00cd 04       		.uleb128 0x4
 597 00ce 88080000 		.4byte	.LASF17
 598 00d2 07       		.byte	0x7
 599 00d3 45       		.byte	0x45
 600 00d4 AD000000 		.4byte	0xad
 601 00d8 04       		.uleb128 0x4
 602 00d9 0D020000 		.4byte	.LASF18
 603 00dd 07       		.byte	0x7
 604 00de 46       		.byte	0x46
 605 00df B8000000 		.4byte	0xb8
 606 00e3 04       		.uleb128 0x4
 607 00e4 38090000 		.4byte	.LASF19
 608 00e8 07       		.byte	0x7
 609 00e9 48       		.byte	0x48
 610 00ea 97000000 		.4byte	0x97
 611 00ee 04       		.uleb128 0x4
 612 00ef AF020000 		.4byte	.LASF20
 613 00f3 07       		.byte	0x7
 614 00f4 49       		.byte	0x49
 615 00f5 97000000 		.4byte	0x97
 616 00f9 04       		.uleb128 0x4
 617 00fa 1B060000 		.4byte	.LASF21
 618 00fe 07       		.byte	0x7
 619 00ff 4A       		.byte	0x4a
 620 0100 97000000 		.4byte	0x97
 621 0104 04       		.uleb128 0x4
 622 0105 66060000 		.4byte	.LASF22
 623 0109 07       		.byte	0x7
 624 010a 4C       		.byte	0x4c
 625 010b AD000000 		.4byte	0xad
 626 010f 04       		.uleb128 0x4
 627 0110 61040000 		.4byte	.LASF23
 628 0114 07       		.byte	0x7
 629 0115 4D       		.byte	0x4d
 630 0116 A2000000 		.4byte	0xa2
 631 011a 04       		.uleb128 0x4
 632 011b C6040000 		.4byte	.LASF24
 633 011f 07       		.byte	0x7
 634 0120 4F       		.byte	0x4f
 635 0121 AD000000 		.4byte	0xad
 636 0125 04       		.uleb128 0x4
ARM GAS  /var/folders/c6/c789hm653lg9vtl73krp73tm0000gn/T//ccvMQiBd.s 			page 29


 637 0126 77030000 		.4byte	.LASF25
 638 012a 07       		.byte	0x7
 639 012b 51       		.byte	0x51
 640 012c A2000000 		.4byte	0xa2
 641 0130 04       		.uleb128 0x4
 642 0131 7B040000 		.4byte	.LASF26
 643 0135 07       		.byte	0x7
 644 0136 52       		.byte	0x52
 645 0137 AD000000 		.4byte	0xad
 646 013b 04       		.uleb128 0x4
 647 013c 03080000 		.4byte	.LASF27
 648 0140 08       		.byte	0x8
 649 0141 33       		.byte	0x33
 650 0142 AD000000 		.4byte	0xad
 651 0146 04       		.uleb128 0x4
 652 0147 EE070000 		.4byte	.LASF28
 653 014b 08       		.byte	0x8
 654 014c 3F       		.byte	0x3f
 655 014d 51010000 		.4byte	0x151
 656 0151 06       		.uleb128 0x6
 657 0152 4C040000 		.4byte	.LASF50
 658 0156 60       		.byte	0x60
 659 0157 09       		.byte	0x9
 660 0158 C2       		.byte	0xc2
 661 0159 57020000 		.4byte	0x257
 662 015d 07       		.uleb128 0x7
 663 015e E5060000 		.4byte	.LASF29
 664 0162 09       		.byte	0x9
 665 0163 C3       		.byte	0xc3
 666 0164 62020000 		.4byte	0x262
 667 0168 00       		.byte	0
 668 0169 07       		.uleb128 0x7
 669 016a 55060000 		.4byte	.LASF30
 670 016e 09       		.byte	0x9
 671 016f C5       		.byte	0xc5
 672 0170 62020000 		.4byte	0x262
 673 0174 04       		.byte	0x4
 674 0175 07       		.uleb128 0x7
 675 0176 20020000 		.4byte	.LASF31
 676 017a 09       		.byte	0x9
 677 017b C7       		.byte	0xc7
 678 017c 04010000 		.4byte	0x104
 679 0180 08       		.byte	0x8
 680 0181 07       		.uleb128 0x7
 681 0182 8D090000 		.4byte	.LASF32
 682 0186 09       		.byte	0x9
 683 0187 C8       		.byte	0xc8
 684 0188 CF060000 		.4byte	0x6cf
 685 018c 0C       		.byte	0xc
 686 018d 07       		.uleb128 0x7
 687 018e D1020000 		.4byte	.LASF33
 688 0192 09       		.byte	0x9
 689 0193 CA       		.byte	0xca
 690 0194 62020000 		.4byte	0x262
 691 0198 10       		.byte	0x10
 692 0199 07       		.uleb128 0x7
 693 019a CF060000 		.4byte	.LASF34
ARM GAS  /var/folders/c6/c789hm653lg9vtl73krp73tm0000gn/T//ccvMQiBd.s 			page 30


 694 019e 09       		.byte	0x9
 695 019f CB       		.byte	0xcb
 696 01a0 62020000 		.4byte	0x262
 697 01a4 14       		.byte	0x14
 698 01a5 07       		.uleb128 0x7
 699 01a6 24090000 		.4byte	.LASF35
 700 01aa 09       		.byte	0x9
 701 01ab D2       		.byte	0xd2
 702 01ac 950A0000 		.4byte	0xa95
 703 01b0 18       		.byte	0x18
 704 01b1 07       		.uleb128 0x7
 705 01b2 7D030000 		.4byte	.LASF36
 706 01b6 09       		.byte	0x9
 707 01b7 D8       		.byte	0xd8
 708 01b8 A70A0000 		.4byte	0xaa7
 709 01bc 1C       		.byte	0x1c
 710 01bd 07       		.uleb128 0x7
 711 01be C7060000 		.4byte	.LASF37
 712 01c2 09       		.byte	0x9
 713 01c3 DD       		.byte	0xdd
 714 01c4 EE000000 		.4byte	0xee
 715 01c8 20       		.byte	0x20
 716 01c9 07       		.uleb128 0x7
 717 01ca EC060000 		.4byte	.LASF38
 718 01ce 09       		.byte	0x9
 719 01cf E1       		.byte	0xe1
 720 01d0 E3000000 		.4byte	0xe3
 721 01d4 21       		.byte	0x21
 722 01d5 07       		.uleb128 0x7
 723 01d6 F1080000 		.4byte	.LASF39
 724 01da 09       		.byte	0x9
 725 01db E6       		.byte	0xe6
 726 01dc F9000000 		.4byte	0xf9
 727 01e0 22       		.byte	0x22
 728 01e1 08       		.uleb128 0x8
 729 01e2 705F7500 		.ascii	"p_u\000"
 730 01e6 09       		.byte	0x9
 731 01e7 3101     		.2byte	0x131
 732 01e9 D0090000 		.4byte	0x9d0
 733 01ed 24       		.byte	0x24
 734 01ee 09       		.uleb128 0x9
 735 01ef 40050000 		.4byte	.LASF40
 736 01f3 09       		.byte	0x9
 737 01f4 3601     		.2byte	0x136
 738 01f6 68020000 		.4byte	0x268
 739 01fa 28       		.byte	0x28
 740 01fb 09       		.uleb128 0x9
 741 01fc B9030000 		.4byte	.LASF41
 742 0200 09       		.byte	0x9
 743 0201 3C01     		.2byte	0x13c
 744 0203 8C020000 		.4byte	0x28c
 745 0207 2C       		.byte	0x2c
 746 0208 09       		.uleb128 0x9
 747 0209 4D090000 		.4byte	.LASF42
 748 020d 09       		.byte	0x9
 749 020e 4001     		.2byte	0x140
 750 0210 0F010000 		.4byte	0x10f
ARM GAS  /var/folders/c6/c789hm653lg9vtl73krp73tm0000gn/T//ccvMQiBd.s 			page 31


 751 0214 34       		.byte	0x34
 752 0215 09       		.uleb128 0x9
 753 0216 7D050000 		.4byte	.LASF43
 754 021a 09       		.byte	0x9
 755 021b 4601     		.2byte	0x146
 756 021d 1A010000 		.4byte	0x11a
 757 0221 38       		.byte	0x38
 758 0222 09       		.uleb128 0x9
 759 0223 B3060000 		.4byte	.LASF44
 760 0227 09       		.byte	0x9
 761 0228 4D01     		.2byte	0x14d
 762 022a 8F0A0000 		.4byte	0xa8f
 763 022e 3C       		.byte	0x3c
 764 022f 09       		.uleb128 0x9
 765 0230 70040000 		.4byte	.LASF45
 766 0234 09       		.byte	0x9
 767 0235 5101     		.2byte	0x151
 768 0237 04010000 		.4byte	0x104
 769 023b 40       		.byte	0x40
 770 023c 09       		.uleb128 0x9
 771 023d 0E030000 		.4byte	.LASF46
 772 0241 09       		.byte	0x9
 773 0242 5801     		.2byte	0x158
 774 0244 3F030000 		.4byte	0x33f
 775 0248 44       		.byte	0x44
 776 0249 09       		.uleb128 0x9
 777 024a F4060000 		.4byte	.LASF47
 778 024e 09       		.byte	0x9
 779 024f 5E01     		.2byte	0x15e
 780 0251 81090000 		.4byte	0x981
 781 0255 48       		.byte	0x48
 782 0256 00       		.byte	0
 783 0257 04       		.uleb128 0x4
 784 0258 53050000 		.4byte	.LASF48
 785 025c 08       		.byte	0x8
 786 025d 44       		.byte	0x44
 787 025e 62020000 		.4byte	0x262
 788 0262 0A       		.uleb128 0xa
 789 0263 04       		.byte	0x4
 790 0264 46010000 		.4byte	0x146
 791 0268 04       		.uleb128 0x4
 792 0269 19050000 		.4byte	.LASF49
 793 026d 08       		.byte	0x8
 794 026e 49       		.byte	0x49
 795 026f 73020000 		.4byte	0x273
 796 0273 06       		.uleb128 0x6
 797 0274 6E070000 		.4byte	.LASF51
 798 0278 04       		.byte	0x4
 799 0279 09       		.byte	0x9
 800 027a B0       		.byte	0xb0
 801 027b 8C020000 		.4byte	0x28c
 802 027f 07       		.uleb128 0x7
 803 0280 E5060000 		.4byte	.LASF29
 804 0284 09       		.byte	0x9
 805 0285 B1       		.byte	0xb1
 806 0286 62020000 		.4byte	0x262
 807 028a 00       		.byte	0
ARM GAS  /var/folders/c6/c789hm653lg9vtl73krp73tm0000gn/T//ccvMQiBd.s 			page 32


 808 028b 00       		.byte	0
 809 028c 04       		.uleb128 0x4
 810 028d D5080000 		.4byte	.LASF52
 811 0291 08       		.byte	0x8
 812 0292 50       		.byte	0x50
 813 0293 97020000 		.4byte	0x297
 814 0297 06       		.uleb128 0x6
 815 0298 32010000 		.4byte	.LASF53
 816 029c 08       		.byte	0x8
 817 029d 09       		.byte	0x9
 818 029e B7       		.byte	0xb7
 819 029f BC020000 		.4byte	0x2bc
 820 02a3 07       		.uleb128 0x7
 821 02a4 E5060000 		.4byte	.LASF29
 822 02a8 09       		.byte	0x9
 823 02a9 B8       		.byte	0xb8
 824 02aa 62020000 		.4byte	0x262
 825 02ae 00       		.byte	0
 826 02af 07       		.uleb128 0x7
 827 02b0 55060000 		.4byte	.LASF30
 828 02b4 09       		.byte	0x9
 829 02b5 B9       		.byte	0xb9
 830 02b6 62020000 		.4byte	0x262
 831 02ba 04       		.byte	0x4
 832 02bb 00       		.byte	0
 833 02bc 04       		.uleb128 0x4
 834 02bd E7000000 		.4byte	.LASF54
 835 02c1 08       		.byte	0x8
 836 02c2 57       		.byte	0x57
 837 02c3 C7020000 		.4byte	0x2c7
 838 02c7 0B       		.uleb128 0xb
 839 02c8 B8040000 		.4byte	.LASF55
 840 02cc 1C       		.byte	0x1c
 841 02cd 09       		.byte	0x9
 842 02ce 9001     		.2byte	0x190
 843 02d0 23030000 		.4byte	0x323
 844 02d4 09       		.uleb128 0x9
 845 02d5 5D070000 		.4byte	.LASF56
 846 02d9 09       		.byte	0x9
 847 02da 9101     		.2byte	0x191
 848 02dc 8C020000 		.4byte	0x28c
 849 02e0 00       		.byte	0
 850 02e1 09       		.uleb128 0x9
 851 02e2 D7060000 		.4byte	.LASF57
 852 02e6 09       		.byte	0x9
 853 02e7 9201     		.2byte	0x192
 854 02e9 04010000 		.4byte	0x104
 855 02ed 08       		.byte	0x8
 856 02ee 09       		.uleb128 0x9
 857 02ef B1050000 		.4byte	.LASF58
 858 02f3 09       		.byte	0x9
 859 02f4 9401     		.2byte	0x194
 860 02f6 CF060000 		.4byte	0x6cf
 861 02fa 0C       		.byte	0xc
 862 02fb 09       		.uleb128 0x9
 863 02fc 06030000 		.4byte	.LASF59
 864 0300 09       		.byte	0x9
ARM GAS  /var/folders/c6/c789hm653lg9vtl73krp73tm0000gn/T//ccvMQiBd.s 			page 33


 865 0301 9701     		.2byte	0x197
 866 0303 62020000 		.4byte	0x262
 867 0307 10       		.byte	0x10
 868 0308 09       		.uleb128 0x9
 869 0309 74080000 		.4byte	.LASF60
 870 030d 09       		.byte	0x9
 871 030e 9801     		.2byte	0x198
 872 0310 62020000 		.4byte	0x262
 873 0314 14       		.byte	0x14
 874 0315 09       		.uleb128 0x9
 875 0316 D2050000 		.4byte	.LASF61
 876 031a 09       		.byte	0x9
 877 031b 9B01     		.2byte	0x19b
 878 031d 62020000 		.4byte	0x262
 879 0321 18       		.byte	0x18
 880 0322 00       		.byte	0
 881 0323 04       		.uleb128 0x4
 882 0324 20080000 		.4byte	.LASF62
 883 0328 08       		.byte	0x8
 884 0329 5C       		.byte	0x5c
 885 032a 2E030000 		.4byte	0x32e
 886 032e 0A       		.uleb128 0xa
 887 032f 04       		.byte	0x4
 888 0330 34030000 		.4byte	0x334
 889 0334 0C       		.uleb128 0xc
 890 0335 3F030000 		.4byte	0x33f
 891 0339 0D       		.uleb128 0xd
 892 033a 3F030000 		.4byte	0x33f
 893 033e 00       		.byte	0
 894 033f 0E       		.uleb128 0xe
 895 0340 04       		.byte	0x4
 896 0341 04       		.uleb128 0x4
 897 0342 28050000 		.4byte	.LASF63
 898 0346 08       		.byte	0x8
 899 0347 61       		.byte	0x61
 900 0348 4C030000 		.4byte	0x34c
 901 034c 0B       		.uleb128 0xb
 902 034d 04070000 		.4byte	.LASF64
 903 0351 14       		.byte	0x14
 904 0352 09       		.byte	0x9
 905 0353 6B01     		.2byte	0x16b
 906 0355 9B030000 		.4byte	0x39b
 907 0359 09       		.uleb128 0x9
 908 035a 95030000 		.4byte	.LASF65
 909 035e 09       		.byte	0x9
 910 035f 6C01     		.2byte	0x16c
 911 0361 AD0A0000 		.4byte	0xaad
 912 0365 00       		.byte	0
 913 0366 09       		.uleb128 0x9
 914 0367 1F030000 		.4byte	.LASF66
 915 036b 09       		.byte	0x9
 916 036c 6D01     		.2byte	0x16d
 917 036e AD0A0000 		.4byte	0xaad
 918 0372 04       		.byte	0x4
 919 0373 09       		.uleb128 0x9
 920 0374 65070000 		.4byte	.LASF67
 921 0378 09       		.byte	0x9
ARM GAS  /var/folders/c6/c789hm653lg9vtl73krp73tm0000gn/T//ccvMQiBd.s 			page 34


 922 0379 6E01     		.2byte	0x16e
 923 037b 3B010000 		.4byte	0x13b
 924 037f 08       		.byte	0x8
 925 0380 09       		.uleb128 0x9
 926 0381 93090000 		.4byte	.LASF68
 927 0385 09       		.byte	0x9
 928 0386 6F01     		.2byte	0x16f
 929 0388 23030000 		.4byte	0x323
 930 038c 0C       		.byte	0xc
 931 038d 09       		.uleb128 0x9
 932 038e A3080000 		.4byte	.LASF69
 933 0392 09       		.byte	0x9
 934 0393 7101     		.2byte	0x171
 935 0395 3F030000 		.4byte	0x33f
 936 0399 10       		.byte	0x10
 937 039a 00       		.byte	0
 938 039b 04       		.uleb128 0x4
 939 039c D1010000 		.4byte	.LASF70
 940 03a0 08       		.byte	0x8
 941 03a1 66       		.byte	0x66
 942 03a2 A6030000 		.4byte	0x3a6
 943 03a6 0B       		.uleb128 0xb
 944 03a7 66050000 		.4byte	.LASF71
 945 03ab 10       		.byte	0x10
 946 03ac 09       		.byte	0x9
 947 03ad 7B01     		.2byte	0x17b
 948 03af E8030000 		.4byte	0x3e8
 949 03b3 09       		.uleb128 0x9
 950 03b4 95030000 		.4byte	.LASF65
 951 03b8 09       		.byte	0x9
 952 03b9 7C01     		.2byte	0x17c
 953 03bb AD0A0000 		.4byte	0xaad
 954 03bf 00       		.byte	0
 955 03c0 09       		.uleb128 0x9
 956 03c1 1F030000 		.4byte	.LASF66
 957 03c5 09       		.byte	0x9
 958 03c6 7E01     		.2byte	0x17e
 959 03c8 AD0A0000 		.4byte	0xaad
 960 03cc 04       		.byte	0x4
 961 03cd 09       		.uleb128 0x9
 962 03ce 65070000 		.4byte	.LASF67
 963 03d2 09       		.byte	0x9
 964 03d3 8001     		.2byte	0x180
 965 03d5 3B010000 		.4byte	0x13b
 966 03d9 08       		.byte	0x8
 967 03da 09       		.uleb128 0x9
 968 03db 90050000 		.4byte	.LASF72
 969 03df 09       		.byte	0x9
 970 03e0 8801     		.2byte	0x188
 971 03e2 3B010000 		.4byte	0x13b
 972 03e6 0C       		.byte	0xc
 973 03e7 00       		.byte	0
 974 03e8 04       		.uleb128 0x4
 975 03e9 43010000 		.4byte	.LASF73
 976 03ed 08       		.byte	0x8
 977 03ee 6B       		.byte	0x6b
 978 03ef F3030000 		.4byte	0x3f3
ARM GAS  /var/folders/c6/c789hm653lg9vtl73krp73tm0000gn/T//ccvMQiBd.s 			page 35


 979 03f3 0F       		.uleb128 0xf
 980 03f4 41030000 		.4byte	.LASF74
 981 03f8 1404     		.2byte	0x414
 982 03fa 09       		.byte	0x9
 983 03fb A201     		.2byte	0x1a2
 984 03fd 36040000 		.4byte	0x436
 985 0401 09       		.uleb128 0x9
 986 0402 42080000 		.4byte	.LASF75
 987 0406 09       		.byte	0x9
 988 0407 AA01     		.2byte	0x1aa
 989 0409 B30A0000 		.4byte	0xab3
 990 040d 00       		.byte	0
 991 040e 09       		.uleb128 0x9
 992 040f F8080000 		.4byte	.LASF76
 993 0413 09       		.byte	0x9
 994 0414 AF01     		.2byte	0x1af
 995 0416 25010000 		.4byte	0x125
 996 041a 04       		.byte	0x4
 997 041b 09       		.uleb128 0x9
 998 041c 5F030000 		.4byte	.LASF77
 999 0420 09       		.byte	0x9
 1000 0421 B301     		.2byte	0x1b3
 1001 0423 25010000 		.4byte	0x125
 1002 0427 08       		.byte	0x8
 1003 0428 09       		.uleb128 0x9
 1004 0429 40090000 		.4byte	.LASF78
 1005 042d 09       		.byte	0x9
 1006 042e B901     		.2byte	0x1b9
 1007 0430 13090000 		.4byte	0x913
 1008 0434 0C       		.byte	0xc
 1009 0435 00       		.byte	0
 1010 0436 04       		.uleb128 0x4
 1011 0437 7C080000 		.4byte	.LASF79
 1012 043b 08       		.byte	0x8
 1013 043c 70       		.byte	0x70
 1014 043d 41040000 		.4byte	0x441
 1015 0441 0F       		.uleb128 0xf
 1016 0442 89020000 		.4byte	.LASF80
 1017 0446 D805     		.2byte	0x5d8
 1018 0448 09       		.byte	0x9
 1019 0449 C201     		.2byte	0x1c2
 1020 044b AE040000 		.4byte	0x4ae
 1021 044f 09       		.uleb128 0x9
 1022 0450 05090000 		.4byte	.LASF81
 1023 0454 09       		.byte	0x9
 1024 0455 C601     		.2byte	0x1c6
 1025 0457 BC020000 		.4byte	0x2bc
 1026 045b 00       		.byte	0
 1027 045c 09       		.uleb128 0x9
 1028 045d 27030000 		.4byte	.LASF82
 1029 0461 09       		.byte	0x9
 1030 0462 CA01     		.2byte	0x1ca
 1031 0464 9B030000 		.4byte	0x39b
 1032 0468 1C       		.byte	0x1c
 1033 0469 08       		.uleb128 0x8
 1034 046a 64626700 		.ascii	"dbg\000"
 1035 046e 09       		.byte	0x9
ARM GAS  /var/folders/c6/c789hm653lg9vtl73krp73tm0000gn/T//ccvMQiBd.s 			page 36


 1036 046f CE01     		.2byte	0x1ce
 1037 0471 E8030000 		.4byte	0x3e8
 1038 0475 2C       		.byte	0x2c
 1039 0476 10       		.uleb128 0x10
 1040 0477 C6010000 		.4byte	.LASF83
 1041 047b 09       		.byte	0x9
 1042 047c D201     		.2byte	0x1d2
 1043 047e 46010000 		.4byte	0x146
 1044 0482 4004     		.2byte	0x440
 1045 0484 11       		.uleb128 0x11
 1046 0485 746D00   		.ascii	"tm\000"
 1047 0488 09       		.byte	0x9
 1048 0489 D701     		.2byte	0x1d7
 1049 048b 33090000 		.4byte	0x933
 1050 048f A004     		.2byte	0x4a0
 1051 0491 10       		.uleb128 0x10
 1052 0492 0F010000 		.4byte	.LASF84
 1053 0496 09       		.byte	0x9
 1054 0497 DD01     		.2byte	0x1dd
 1055 0499 C5090000 		.4byte	0x9c5
 1056 049d A804     		.2byte	0x4a8
 1057 049f 10       		.uleb128 0x10
 1058 04a0 68030000 		.4byte	.LASF85
 1059 04a4 09       		.byte	0x9
 1060 04a5 E301     		.2byte	0x1e3
 1061 04a7 B80A0000 		.4byte	0xab8
 1062 04ab E004     		.2byte	0x4e0
 1063 04ad 00       		.byte	0
 1064 04ae 03       		.uleb128 0x3
 1065 04af 04       		.byte	0x4
 1066 04b0 07       		.byte	0x7
 1067 04b1 4A050000 		.4byte	.LASF86
 1068 04b5 12       		.uleb128 0x12
 1069 04b6 AD000000 		.4byte	0xad
 1070 04ba C5040000 		.4byte	0x4c5
 1071 04be 13       		.uleb128 0x13
 1072 04bf AE040000 		.4byte	0x4ae
 1073 04c3 01       		.byte	0x1
 1074 04c4 00       		.byte	0
 1075 04c5 12       		.uleb128 0x12
 1076 04c6 AD000000 		.4byte	0xad
 1077 04ca D5040000 		.4byte	0x4d5
 1078 04ce 13       		.uleb128 0x13
 1079 04cf AE040000 		.4byte	0x4ae
 1080 04d3 03       		.byte	0x3
 1081 04d4 00       		.byte	0
 1082 04d5 14       		.uleb128 0x14
 1083 04d6 10       		.byte	0x10
 1084 04d7 0A       		.byte	0xa
 1085 04d8 4C01     		.2byte	0x14c
 1086 04da 12050000 		.4byte	0x512
 1087 04de 09       		.uleb128 0x9
 1088 04df B6010000 		.4byte	.LASF87
 1089 04e3 0A       		.byte	0xa
 1090 04e4 4E01     		.2byte	0x14e
 1091 04e6 C8000000 		.4byte	0xc8
 1092 04ea 00       		.byte	0
ARM GAS  /var/folders/c6/c789hm653lg9vtl73krp73tm0000gn/T//ccvMQiBd.s 			page 37


 1093 04eb 08       		.uleb128 0x8
 1094 04ec 435200   		.ascii	"CR\000"
 1095 04ef 0A       		.byte	0xa
 1096 04f0 4F01     		.2byte	0x14f
 1097 04f2 C8000000 		.4byte	0xc8
 1098 04f6 04       		.byte	0x4
 1099 04f7 09       		.uleb128 0x9
 1100 04f8 14060000 		.4byte	.LASF88
 1101 04fc 0A       		.byte	0xa
 1102 04fd 5001     		.2byte	0x150
 1103 04ff C8000000 		.4byte	0xc8
 1104 0503 08       		.byte	0x8
 1105 0504 09       		.uleb128 0x9
 1106 0505 82040000 		.4byte	.LASF89
 1107 0509 0A       		.byte	0xa
 1108 050a 5101     		.2byte	0x151
 1109 050c C8000000 		.4byte	0xc8
 1110 0510 0C       		.byte	0xc
 1111 0511 00       		.byte	0
 1112 0512 15       		.uleb128 0x15
 1113 0513 27070000 		.4byte	.LASF90
 1114 0517 0A       		.byte	0xa
 1115 0518 5201     		.2byte	0x152
 1116 051a D5040000 		.4byte	0x4d5
 1117 051e 14       		.uleb128 0x14
 1118 051f 88       		.byte	0x88
 1119 0520 0A       		.byte	0xa
 1120 0521 6702     		.2byte	0x267
 1121 0523 AD060000 		.4byte	0x6ad
 1122 0527 08       		.uleb128 0x8
 1123 0528 435200   		.ascii	"CR\000"
 1124 052b 0A       		.byte	0xa
 1125 052c 6902     		.2byte	0x269
 1126 052e C8000000 		.4byte	0xc8
 1127 0532 00       		.byte	0
 1128 0533 09       		.uleb128 0x9
 1129 0534 E3020000 		.4byte	.LASF91
 1130 0538 0A       		.byte	0xa
 1131 0539 6A02     		.2byte	0x26a
 1132 053b C8000000 		.4byte	0xc8
 1133 053f 04       		.byte	0x4
 1134 0540 09       		.uleb128 0x9
 1135 0541 33090000 		.4byte	.LASF92
 1136 0545 0A       		.byte	0xa
 1137 0546 6B02     		.2byte	0x26b
 1138 0548 C8000000 		.4byte	0xc8
 1139 054c 08       		.byte	0x8
 1140 054d 08       		.uleb128 0x8
 1141 054e 43495200 		.ascii	"CIR\000"
 1142 0552 0A       		.byte	0xa
 1143 0553 6C02     		.2byte	0x26c
 1144 0555 C8000000 		.4byte	0xc8
 1145 0559 0C       		.byte	0xc
 1146 055a 09       		.uleb128 0x9
 1147 055b 56020000 		.4byte	.LASF93
 1148 055f 0A       		.byte	0xa
 1149 0560 6D02     		.2byte	0x26d
ARM GAS  /var/folders/c6/c789hm653lg9vtl73krp73tm0000gn/T//ccvMQiBd.s 			page 38


 1150 0562 C8000000 		.4byte	0xc8
 1151 0566 10       		.byte	0x10
 1152 0567 09       		.uleb128 0x9
 1153 0568 D0070000 		.4byte	.LASF94
 1154 056c 0A       		.byte	0xa
 1155 056d 6E02     		.2byte	0x26e
 1156 056f C8000000 		.4byte	0xc8
 1157 0573 14       		.byte	0x14
 1158 0574 09       		.uleb128 0x9
 1159 0575 67040000 		.4byte	.LASF95
 1160 0579 0A       		.byte	0xa
 1161 057a 6F02     		.2byte	0x26f
 1162 057c C8000000 		.4byte	0xc8
 1163 0580 18       		.byte	0x18
 1164 0581 09       		.uleb128 0x9
 1165 0582 23060000 		.4byte	.LASF96
 1166 0586 0A       		.byte	0xa
 1167 0587 7002     		.2byte	0x270
 1168 0589 AD000000 		.4byte	0xad
 1169 058d 1C       		.byte	0x1c
 1170 058e 09       		.uleb128 0x9
 1171 058f DC050000 		.4byte	.LASF97
 1172 0593 0A       		.byte	0xa
 1173 0594 7102     		.2byte	0x271
 1174 0596 C8000000 		.4byte	0xc8
 1175 059a 20       		.byte	0x20
 1176 059b 09       		.uleb128 0x9
 1177 059c 9C020000 		.4byte	.LASF98
 1178 05a0 0A       		.byte	0xa
 1179 05a1 7202     		.2byte	0x272
 1180 05a3 C8000000 		.4byte	0xc8
 1181 05a7 24       		.byte	0x24
 1182 05a8 09       		.uleb128 0x9
 1183 05a9 2D060000 		.4byte	.LASF99
 1184 05ad 0A       		.byte	0xa
 1185 05ae 7302     		.2byte	0x273
 1186 05b0 B5040000 		.4byte	0x4b5
 1187 05b4 28       		.byte	0x28
 1188 05b5 09       		.uleb128 0x9
 1189 05b6 2B090000 		.4byte	.LASF100
 1190 05ba 0A       		.byte	0xa
 1191 05bb 7402     		.2byte	0x274
 1192 05bd C8000000 		.4byte	0xc8
 1193 05c1 30       		.byte	0x30
 1194 05c2 09       		.uleb128 0x9
 1195 05c3 64080000 		.4byte	.LASF101
 1196 05c7 0A       		.byte	0xa
 1197 05c8 7502     		.2byte	0x275
 1198 05ca C8000000 		.4byte	0xc8
 1199 05ce 34       		.byte	0x34
 1200 05cf 09       		.uleb128 0x9
 1201 05d0 88050000 		.4byte	.LASF102
 1202 05d4 0A       		.byte	0xa
 1203 05d5 7602     		.2byte	0x276
 1204 05d7 C8000000 		.4byte	0xc8
 1205 05db 38       		.byte	0x38
 1206 05dc 09       		.uleb128 0x9
ARM GAS  /var/folders/c6/c789hm653lg9vtl73krp73tm0000gn/T//ccvMQiBd.s 			page 39


 1207 05dd 37060000 		.4byte	.LASF103
 1208 05e1 0A       		.byte	0xa
 1209 05e2 7702     		.2byte	0x277
 1210 05e4 AD000000 		.4byte	0xad
 1211 05e8 3C       		.byte	0x3c
 1212 05e9 09       		.uleb128 0x9
 1213 05ea 53080000 		.4byte	.LASF104
 1214 05ee 0A       		.byte	0xa
 1215 05ef 7802     		.2byte	0x278
 1216 05f1 C8000000 		.4byte	0xc8
 1217 05f5 40       		.byte	0x40
 1218 05f6 09       		.uleb128 0x9
 1219 05f7 FC060000 		.4byte	.LASF105
 1220 05fb 0A       		.byte	0xa
 1221 05fc 7902     		.2byte	0x279
 1222 05fe C8000000 		.4byte	0xc8
 1223 0602 44       		.byte	0x44
 1224 0603 09       		.uleb128 0x9
 1225 0604 41060000 		.4byte	.LASF106
 1226 0608 0A       		.byte	0xa
 1227 0609 7A02     		.2byte	0x27a
 1228 060b B5040000 		.4byte	0x4b5
 1229 060f 48       		.byte	0x48
 1230 0610 09       		.uleb128 0x9
 1231 0611 16020000 		.4byte	.LASF107
 1232 0615 0A       		.byte	0xa
 1233 0616 7B02     		.2byte	0x27b
 1234 0618 C8000000 		.4byte	0xc8
 1235 061c 50       		.byte	0x50
 1236 061d 09       		.uleb128 0x9
 1237 061e B7050000 		.4byte	.LASF108
 1238 0622 0A       		.byte	0xa
 1239 0623 7C02     		.2byte	0x27c
 1240 0625 C8000000 		.4byte	0xc8
 1241 0629 54       		.byte	0x54
 1242 062a 09       		.uleb128 0x9
 1243 062b B0080000 		.4byte	.LASF109
 1244 062f 0A       		.byte	0xa
 1245 0630 7D02     		.2byte	0x27d
 1246 0632 C8000000 		.4byte	0xc8
 1247 0636 58       		.byte	0x58
 1248 0637 09       		.uleb128 0x9
 1249 0638 4B060000 		.4byte	.LASF110
 1250 063c 0A       		.byte	0xa
 1251 063d 7E02     		.2byte	0x27e
 1252 063f AD000000 		.4byte	0xad
 1253 0643 5C       		.byte	0x5c
 1254 0644 09       		.uleb128 0x9
 1255 0645 A5020000 		.4byte	.LASF111
 1256 0649 0A       		.byte	0xa
 1257 064a 7F02     		.2byte	0x27f
 1258 064c C8000000 		.4byte	0xc8
 1259 0650 60       		.byte	0x60
 1260 0651 09       		.uleb128 0x9
 1261 0652 A3040000 		.4byte	.LASF112
 1262 0656 0A       		.byte	0xa
 1263 0657 8002     		.2byte	0x280
ARM GAS  /var/folders/c6/c789hm653lg9vtl73krp73tm0000gn/T//ccvMQiBd.s 			page 40


 1264 0659 C8000000 		.4byte	0xc8
 1265 065d 64       		.byte	0x64
 1266 065e 09       		.uleb128 0x9
 1267 065f 36070000 		.4byte	.LASF113
 1268 0663 0A       		.byte	0xa
 1269 0664 8102     		.2byte	0x281
 1270 0666 B5040000 		.4byte	0x4b5
 1271 066a 68       		.byte	0x68
 1272 066b 09       		.uleb128 0x9
 1273 066c 00090000 		.4byte	.LASF114
 1274 0670 0A       		.byte	0xa
 1275 0671 8202     		.2byte	0x282
 1276 0673 C8000000 		.4byte	0xc8
 1277 0677 70       		.byte	0x70
 1278 0678 08       		.uleb128 0x8
 1279 0679 43535200 		.ascii	"CSR\000"
 1280 067d 0A       		.byte	0xa
 1281 067e 8302     		.2byte	0x283
 1282 0680 C8000000 		.4byte	0xc8
 1283 0684 74       		.byte	0x74
 1284 0685 09       		.uleb128 0x9
 1285 0686 5C060000 		.4byte	.LASF115
 1286 068a 0A       		.byte	0xa
 1287 068b 8402     		.2byte	0x284
 1288 068d B5040000 		.4byte	0x4b5
 1289 0691 78       		.byte	0x78
 1290 0692 09       		.uleb128 0x9
 1291 0693 AA080000 		.4byte	.LASF116
 1292 0697 0A       		.byte	0xa
 1293 0698 8502     		.2byte	0x285
 1294 069a C8000000 		.4byte	0xc8
 1295 069e 80       		.byte	0x80
 1296 069f 09       		.uleb128 0x9
 1297 06a0 56040000 		.4byte	.LASF117
 1298 06a4 0A       		.byte	0xa
 1299 06a5 8602     		.2byte	0x286
 1300 06a7 C8000000 		.4byte	0xc8
 1301 06ab 84       		.byte	0x84
 1302 06ac 00       		.byte	0
 1303 06ad 15       		.uleb128 0x15
 1304 06ae C4030000 		.4byte	.LASF118
 1305 06b2 0A       		.byte	0xa
 1306 06b3 8802     		.2byte	0x288
 1307 06b5 1E050000 		.4byte	0x51e
 1308 06b9 04       		.uleb128 0x4
 1309 06ba 16030000 		.4byte	.LASF119
 1310 06be 0B       		.byte	0xb
 1311 06bf 65       		.byte	0x65
 1312 06c0 3F030000 		.4byte	0x33f
 1313 06c4 04       		.uleb128 0x4
 1314 06c5 FA040000 		.4byte	.LASF120
 1315 06c9 0B       		.byte	0xb
 1316 06ca 6D       		.byte	0x6d
 1317 06cb B8000000 		.4byte	0xb8
 1318 06cf 06       		.uleb128 0x6
 1319 06d0 6C080000 		.4byte	.LASF121
 1320 06d4 04       		.byte	0x4
ARM GAS  /var/folders/c6/c789hm653lg9vtl73krp73tm0000gn/T//ccvMQiBd.s 			page 41


 1321 06d5 0B       		.byte	0xb
 1322 06d6 89       		.byte	0x89
 1323 06d7 E8060000 		.4byte	0x6e8
 1324 06db 16       		.uleb128 0x16
 1325 06dc 72313300 		.ascii	"r13\000"
 1326 06e0 0B       		.byte	0xb
 1327 06e1 8A       		.byte	0x8a
 1328 06e2 63070000 		.4byte	0x763
 1329 06e6 00       		.byte	0
 1330 06e7 00       		.byte	0
 1331 06e8 06       		.uleb128 0x6
 1332 06e9 26010000 		.4byte	.LASF122
 1333 06ed 24       		.byte	0x24
 1334 06ee 0C       		.byte	0xc
 1335 06ef F4       		.byte	0xf4
 1336 06f0 63070000 		.4byte	0x763
 1337 06f4 08       		.uleb128 0x8
 1338 06f5 723400   		.ascii	"r4\000"
 1339 06f8 0C       		.byte	0xc
 1340 06f9 0701     		.2byte	0x107
 1341 06fb B9060000 		.4byte	0x6b9
 1342 06ff 00       		.byte	0
 1343 0700 08       		.uleb128 0x8
 1344 0701 723500   		.ascii	"r5\000"
 1345 0704 0C       		.byte	0xc
 1346 0705 0801     		.2byte	0x108
 1347 0707 B9060000 		.4byte	0x6b9
 1348 070b 04       		.byte	0x4
 1349 070c 08       		.uleb128 0x8
 1350 070d 723600   		.ascii	"r6\000"
 1351 0710 0C       		.byte	0xc
 1352 0711 0901     		.2byte	0x109
 1353 0713 B9060000 		.4byte	0x6b9
 1354 0717 08       		.byte	0x8
 1355 0718 08       		.uleb128 0x8
 1356 0719 723700   		.ascii	"r7\000"
 1357 071c 0C       		.byte	0xc
 1358 071d 0A01     		.2byte	0x10a
 1359 071f B9060000 		.4byte	0x6b9
 1360 0723 0C       		.byte	0xc
 1361 0724 08       		.uleb128 0x8
 1362 0725 723800   		.ascii	"r8\000"
 1363 0728 0C       		.byte	0xc
 1364 0729 0B01     		.2byte	0x10b
 1365 072b B9060000 		.4byte	0x6b9
 1366 072f 10       		.byte	0x10
 1367 0730 08       		.uleb128 0x8
 1368 0731 723900   		.ascii	"r9\000"
 1369 0734 0C       		.byte	0xc
 1370 0735 0C01     		.2byte	0x10c
 1371 0737 B9060000 		.4byte	0x6b9
 1372 073b 14       		.byte	0x14
 1373 073c 08       		.uleb128 0x8
 1374 073d 72313000 		.ascii	"r10\000"
 1375 0741 0C       		.byte	0xc
 1376 0742 0D01     		.2byte	0x10d
 1377 0744 B9060000 		.4byte	0x6b9
ARM GAS  /var/folders/c6/c789hm653lg9vtl73krp73tm0000gn/T//ccvMQiBd.s 			page 42


 1378 0748 18       		.byte	0x18
 1379 0749 08       		.uleb128 0x8
 1380 074a 72313100 		.ascii	"r11\000"
 1381 074e 0C       		.byte	0xc
 1382 074f 0E01     		.2byte	0x10e
 1383 0751 B9060000 		.4byte	0x6b9
 1384 0755 1C       		.byte	0x1c
 1385 0756 08       		.uleb128 0x8
 1386 0757 6C7200   		.ascii	"lr\000"
 1387 075a 0C       		.byte	0xc
 1388 075b 0F01     		.2byte	0x10f
 1389 075d B9060000 		.4byte	0x6b9
 1390 0761 20       		.byte	0x20
 1391 0762 00       		.byte	0
 1392 0763 0A       		.uleb128 0xa
 1393 0764 04       		.byte	0x4
 1394 0765 E8060000 		.4byte	0x6e8
 1395 0769 14       		.uleb128 0x14
 1396 076a 60       		.byte	0x60
 1397 076b 0D       		.byte	0xd
 1398 076c 9E01     		.2byte	0x19e
 1399 076e 75080000 		.4byte	0x875
 1400 0772 08       		.uleb128 0x8
 1401 0773 43523100 		.ascii	"CR1\000"
 1402 0777 0D       		.byte	0xd
 1403 0778 9F01     		.2byte	0x19f
 1404 077a C8000000 		.4byte	0xc8
 1405 077e 00       		.byte	0
 1406 077f 08       		.uleb128 0x8
 1407 0780 43523200 		.ascii	"CR2\000"
 1408 0784 0D       		.byte	0xd
 1409 0785 A001     		.2byte	0x1a0
 1410 0787 C8000000 		.4byte	0xc8
 1411 078b 04       		.byte	0x4
 1412 078c 09       		.uleb128 0x9
 1413 078d 38040000 		.4byte	.LASF123
 1414 0791 0D       		.byte	0xd
 1415 0792 A101     		.2byte	0x1a1
 1416 0794 C8000000 		.4byte	0xc8
 1417 0798 08       		.byte	0x8
 1418 0799 09       		.uleb128 0x9
 1419 079a F4000000 		.4byte	.LASF124
 1420 079e 0D       		.byte	0xd
 1421 079f A201     		.2byte	0x1a2
 1422 07a1 C8000000 		.4byte	0xc8
 1423 07a5 0C       		.byte	0xc
 1424 07a6 08       		.uleb128 0x8
 1425 07a7 535200   		.ascii	"SR\000"
 1426 07aa 0D       		.byte	0xd
 1427 07ab A301     		.2byte	0x1a3
 1428 07ad C8000000 		.4byte	0xc8
 1429 07b1 10       		.byte	0x10
 1430 07b2 08       		.uleb128 0x8
 1431 07b3 45475200 		.ascii	"EGR\000"
 1432 07b7 0D       		.byte	0xd
 1433 07b8 A401     		.2byte	0x1a4
 1434 07ba C8000000 		.4byte	0xc8
ARM GAS  /var/folders/c6/c789hm653lg9vtl73krp73tm0000gn/T//ccvMQiBd.s 			page 43


 1435 07be 14       		.byte	0x14
 1436 07bf 09       		.uleb128 0x9
 1437 07c0 38020000 		.4byte	.LASF125
 1438 07c4 0D       		.byte	0xd
 1439 07c5 A501     		.2byte	0x1a5
 1440 07c7 C8000000 		.4byte	0xc8
 1441 07cb 18       		.byte	0x18
 1442 07cc 09       		.uleb128 0x9
 1443 07cd 3E020000 		.4byte	.LASF126
 1444 07d1 0D       		.byte	0xd
 1445 07d2 A601     		.2byte	0x1a6
 1446 07d4 C8000000 		.4byte	0xc8
 1447 07d8 1C       		.byte	0x1c
 1448 07d9 09       		.uleb128 0x9
 1449 07da B8020000 		.4byte	.LASF127
 1450 07de 0D       		.byte	0xd
 1451 07df A701     		.2byte	0x1a7
 1452 07e1 C8000000 		.4byte	0xc8
 1453 07e5 20       		.byte	0x20
 1454 07e6 08       		.uleb128 0x8
 1455 07e7 434E5400 		.ascii	"CNT\000"
 1456 07eb 0D       		.byte	0xd
 1457 07ec A801     		.2byte	0x1a8
 1458 07ee C8000000 		.4byte	0xc8
 1459 07f2 24       		.byte	0x24
 1460 07f3 08       		.uleb128 0x8
 1461 07f4 50534300 		.ascii	"PSC\000"
 1462 07f8 0D       		.byte	0xd
 1463 07f9 A901     		.2byte	0x1a9
 1464 07fb C8000000 		.4byte	0xc8
 1465 07ff 28       		.byte	0x28
 1466 0800 08       		.uleb128 0x8
 1467 0801 41525200 		.ascii	"ARR\000"
 1468 0805 0D       		.byte	0xd
 1469 0806 AA01     		.2byte	0x1aa
 1470 0808 C8000000 		.4byte	0xc8
 1471 080c 2C       		.byte	0x2c
 1472 080d 08       		.uleb128 0x8
 1473 080e 52435200 		.ascii	"RCR\000"
 1474 0812 0D       		.byte	0xd
 1475 0813 AB01     		.2byte	0x1ab
 1476 0815 C8000000 		.4byte	0xc8
 1477 0819 30       		.byte	0x30
 1478 081a 08       		.uleb128 0x8
 1479 081b 43435200 		.ascii	"CCR\000"
 1480 081f 0D       		.byte	0xd
 1481 0820 AC01     		.2byte	0x1ac
 1482 0822 75080000 		.4byte	0x875
 1483 0826 34       		.byte	0x34
 1484 0827 09       		.uleb128 0x9
 1485 0828 08020000 		.4byte	.LASF128
 1486 082c 0D       		.byte	0xd
 1487 082d AD01     		.2byte	0x1ad
 1488 082f C8000000 		.4byte	0xc8
 1489 0833 44       		.byte	0x44
 1490 0834 08       		.uleb128 0x8
 1491 0835 44435200 		.ascii	"DCR\000"
ARM GAS  /var/folders/c6/c789hm653lg9vtl73krp73tm0000gn/T//ccvMQiBd.s 			page 44


 1492 0839 0D       		.byte	0xd
 1493 083a AE01     		.2byte	0x1ae
 1494 083c C8000000 		.4byte	0xc8
 1495 0840 48       		.byte	0x48
 1496 0841 09       		.uleb128 0x9
 1497 0842 CB070000 		.4byte	.LASF129
 1498 0846 0D       		.byte	0xd
 1499 0847 AF01     		.2byte	0x1af
 1500 0849 C8000000 		.4byte	0xc8
 1501 084d 4C       		.byte	0x4c
 1502 084e 08       		.uleb128 0x8
 1503 084f 4F5200   		.ascii	"OR\000"
 1504 0852 0D       		.byte	0xd
 1505 0853 B001     		.2byte	0x1b0
 1506 0855 C8000000 		.4byte	0xc8
 1507 0859 50       		.byte	0x50
 1508 085a 09       		.uleb128 0x9
 1509 085b 44020000 		.4byte	.LASF130
 1510 085f 0D       		.byte	0xd
 1511 0860 B101     		.2byte	0x1b1
 1512 0862 C8000000 		.4byte	0xc8
 1513 0866 54       		.byte	0x54
 1514 0867 09       		.uleb128 0x9
 1515 0868 22070000 		.4byte	.LASF131
 1516 086c 0D       		.byte	0xd
 1517 086d B201     		.2byte	0x1b2
 1518 086f 7A080000 		.4byte	0x87a
 1519 0873 58       		.byte	0x58
 1520 0874 00       		.byte	0
 1521 0875 05       		.uleb128 0x5
 1522 0876 C5040000 		.4byte	0x4c5
 1523 087a 05       		.uleb128 0x5
 1524 087b B5040000 		.4byte	0x4b5
 1525 087f 15       		.uleb128 0x15
 1526 0880 E5080000 		.4byte	.LASF132
 1527 0884 0D       		.byte	0xd
 1528 0885 B301     		.2byte	0x1b3
 1529 0887 69070000 		.4byte	0x769
 1530 088b 17       		.uleb128 0x17
 1531 088c 10       		.byte	0x10
 1532 088d 0E       		.byte	0xe
 1533 088e 51       		.byte	0x51
 1534 088f C4080000 		.4byte	0x8c4
 1535 0893 07       		.uleb128 0x7
 1536 0894 5F020000 		.4byte	.LASF133
 1537 0898 0E       		.byte	0xe
 1538 0899 55       		.byte	0x55
 1539 089a 3B010000 		.4byte	0x13b
 1540 089e 00       		.byte	0
 1541 089f 07       		.uleb128 0x7
 1542 08a0 BD020000 		.4byte	.LASF134
 1543 08a4 0E       		.byte	0xe
 1544 08a5 59       		.byte	0x59
 1545 08a6 62020000 		.4byte	0x262
 1546 08aa 04       		.byte	0x4
 1547 08ab 07       		.uleb128 0x7
 1548 08ac 83090000 		.4byte	.LASF135
ARM GAS  /var/folders/c6/c789hm653lg9vtl73krp73tm0000gn/T//ccvMQiBd.s 			page 45


 1549 08b0 0E       		.byte	0xe
 1550 08b1 5D       		.byte	0x5d
 1551 08b2 3F030000 		.4byte	0x33f
 1552 08b6 08       		.byte	0x8
 1553 08b7 07       		.uleb128 0x7
 1554 08b8 AD010000 		.4byte	.LASF136
 1555 08bc 0E       		.byte	0xe
 1556 08bd 61       		.byte	0x61
 1557 08be 97000000 		.4byte	0x97
 1558 08c2 0C       		.byte	0xc
 1559 08c3 00       		.byte	0
 1560 08c4 04       		.uleb128 0x4
 1561 08c5 75010000 		.4byte	.LASF137
 1562 08c9 0E       		.byte	0xe
 1563 08ca 62       		.byte	0x62
 1564 08cb 8B080000 		.4byte	0x88b
 1565 08cf 18       		.uleb128 0x18
 1566 08d0 0804     		.2byte	0x408
 1567 08d2 0E       		.byte	0xe
 1568 08d3 67       		.byte	0x67
 1569 08d4 FD080000 		.4byte	0x8fd
 1570 08d8 07       		.uleb128 0x7
 1571 08d9 FE020000 		.4byte	.LASF138
 1572 08dd 0E       		.byte	0xe
 1573 08de 6B       		.byte	0x6b
 1574 08df 2C000000 		.4byte	0x2c
 1575 08e3 00       		.byte	0
 1576 08e4 07       		.uleb128 0x7
 1577 08e5 E0000000 		.4byte	.LASF139
 1578 08e9 0E       		.byte	0xe
 1579 08ea 6F       		.byte	0x6f
 1580 08eb FD080000 		.4byte	0x8fd
 1581 08ef 04       		.byte	0x4
 1582 08f0 07       		.uleb128 0x7
 1583 08f1 D9020000 		.4byte	.LASF140
 1584 08f5 0E       		.byte	0xe
 1585 08f6 73       		.byte	0x73
 1586 08f7 03090000 		.4byte	0x903
 1587 08fb 08       		.byte	0x8
 1588 08fc 00       		.byte	0
 1589 08fd 0A       		.uleb128 0xa
 1590 08fe 04       		.byte	0x4
 1591 08ff C4080000 		.4byte	0x8c4
 1592 0903 12       		.uleb128 0x12
 1593 0904 C4080000 		.4byte	0x8c4
 1594 0908 13090000 		.4byte	0x913
 1595 090c 13       		.uleb128 0x13
 1596 090d AE040000 		.4byte	0x4ae
 1597 0911 3F       		.byte	0x3f
 1598 0912 00       		.byte	0
 1599 0913 04       		.uleb128 0x4
 1600 0914 9B010000 		.4byte	.LASF141
 1601 0918 0E       		.byte	0xe
 1602 0919 74       		.byte	0x74
 1603 091a CF080000 		.4byte	0x8cf
 1604 091e 17       		.uleb128 0x17
 1605 091f 04       		.byte	0x4
ARM GAS  /var/folders/c6/c789hm653lg9vtl73krp73tm0000gn/T//ccvMQiBd.s 			page 46


 1606 0920 0F       		.byte	0xf
 1607 0921 38       		.byte	0x38
 1608 0922 33090000 		.4byte	0x933
 1609 0926 07       		.uleb128 0x7
 1610 0927 4C080000 		.4byte	.LASF142
 1611 092b 0F       		.byte	0xf
 1612 092c 3C       		.byte	0x3c
 1613 092d CD000000 		.4byte	0xcd
 1614 0931 00       		.byte	0
 1615 0932 00       		.byte	0
 1616 0933 04       		.uleb128 0x4
 1617 0934 C1050000 		.4byte	.LASF143
 1618 0938 0F       		.byte	0xf
 1619 0939 3D       		.byte	0x3d
 1620 093a 1E090000 		.4byte	0x91e
 1621 093e 17       		.uleb128 0x17
 1622 093f 18       		.byte	0x18
 1623 0940 0F       		.byte	0xf
 1624 0941 48       		.byte	0x48
 1625 0942 81090000 		.4byte	0x981
 1626 0946 07       		.uleb128 0x7
 1627 0947 F7070000 		.4byte	.LASF144
 1628 094b 0F       		.byte	0xf
 1629 094c 49       		.byte	0x49
 1630 094d CD000000 		.4byte	0xcd
 1631 0951 00       		.byte	0
 1632 0952 07       		.uleb128 0x7
 1633 0953 5C010000 		.4byte	.LASF145
 1634 0957 0F       		.byte	0xf
 1635 0958 4A       		.byte	0x4a
 1636 0959 CD000000 		.4byte	0xcd
 1637 095d 04       		.byte	0x4
 1638 095e 07       		.uleb128 0x7
 1639 095f 84020000 		.4byte	.LASF146
 1640 0963 0F       		.byte	0xf
 1641 0964 4B       		.byte	0x4b
 1642 0965 CD000000 		.4byte	0xcd
 1643 0969 08       		.byte	0x8
 1644 096a 16       		.uleb128 0x16
 1645 096b 6E00     		.ascii	"n\000"
 1646 096d 0F       		.byte	0xf
 1647 096e 4C       		.byte	0x4c
 1648 096f 30010000 		.4byte	0x130
 1649 0973 0C       		.byte	0xc
 1650 0974 07       		.uleb128 0x7
 1651 0975 09060000 		.4byte	.LASF147
 1652 0979 0F       		.byte	0xf
 1653 097a 4D       		.byte	0x4d
 1654 097b D8000000 		.4byte	0xd8
 1655 097f 10       		.byte	0x10
 1656 0980 00       		.byte	0
 1657 0981 04       		.uleb128 0x4
 1658 0982 62010000 		.4byte	.LASF148
 1659 0986 0F       		.byte	0xf
 1660 0987 4E       		.byte	0x4e
 1661 0988 3E090000 		.4byte	0x93e
 1662 098c 17       		.uleb128 0x17
ARM GAS  /var/folders/c6/c789hm653lg9vtl73krp73tm0000gn/T//ccvMQiBd.s 			page 47


 1663 098d 38       		.byte	0x38
 1664 098e 10       		.byte	0x10
 1665 098f 38       		.byte	0x38
 1666 0990 C5090000 		.4byte	0x9c5
 1667 0994 07       		.uleb128 0x7
 1668 0995 D0030000 		.4byte	.LASF149
 1669 0999 10       		.byte	0x10
 1670 099a 39       		.byte	0x39
 1671 099b 30010000 		.4byte	0x130
 1672 099f 00       		.byte	0
 1673 09a0 07       		.uleb128 0x7
 1674 09a1 81060000 		.4byte	.LASF150
 1675 09a5 10       		.byte	0x10
 1676 09a6 3A       		.byte	0x3a
 1677 09a7 30010000 		.4byte	0x130
 1678 09ab 04       		.byte	0x4
 1679 09ac 07       		.uleb128 0x7
 1680 09ad 70090000 		.4byte	.LASF151
 1681 09b1 10       		.byte	0x10
 1682 09b2 3B       		.byte	0x3b
 1683 09b3 81090000 		.4byte	0x981
 1684 09b7 08       		.byte	0x8
 1685 09b8 07       		.uleb128 0x7
 1686 09b9 AD040000 		.4byte	.LASF152
 1687 09bd 10       		.byte	0x10
 1688 09be 3D       		.byte	0x3d
 1689 09bf 81090000 		.4byte	0x981
 1690 09c3 20       		.byte	0x20
 1691 09c4 00       		.byte	0
 1692 09c5 04       		.uleb128 0x4
 1693 09c6 3D040000 		.4byte	.LASF153
 1694 09ca 10       		.byte	0x10
 1695 09cb 3F       		.byte	0x3f
 1696 09cc 8C090000 		.4byte	0x98c
 1697 09d0 19       		.uleb128 0x19
 1698 09d1 04       		.byte	0x4
 1699 09d2 09       		.byte	0x9
 1700 09d3 FA       		.byte	0xfa
 1701 09d4 2D0A0000 		.4byte	0xa2d
 1702 09d8 1A       		.uleb128 0x1a
 1703 09d9 FF000000 		.4byte	.LASF154
 1704 09dd 09       		.byte	0x9
 1705 09de 0101     		.2byte	0x101
 1706 09e0 0F010000 		.4byte	0x10f
 1707 09e4 1A       		.uleb128 0x1a
 1708 09e5 BD010000 		.4byte	.LASF155
 1709 09e9 09       		.byte	0x9
 1710 09ea 0801     		.2byte	0x108
 1711 09ec 0F010000 		.4byte	0x10f
 1712 09f0 1A       		.uleb128 0x1a
 1713 09f1 9C040000 		.4byte	.LASF156
 1714 09f5 09       		.byte	0x9
 1715 09f6 0F01     		.2byte	0x10f
 1716 09f8 3F030000 		.4byte	0x33f
 1717 09fc 1A       		.uleb128 0x1a
 1718 09fd F9000000 		.4byte	.LASF157
 1719 0a01 09       		.byte	0x9
ARM GAS  /var/folders/c6/c789hm653lg9vtl73krp73tm0000gn/T//ccvMQiBd.s 			page 48


 1720 0a02 1601     		.2byte	0x116
 1721 0a04 2D0A0000 		.4byte	0xa2d
 1722 0a08 1A       		.uleb128 0x1a
 1723 0a09 B2030000 		.4byte	.LASF158
 1724 0a0d 09       		.byte	0x9
 1725 0a0e 1E01     		.2byte	0x11e
 1726 0a10 580A0000 		.4byte	0xa58
 1727 0a14 1A       		.uleb128 0x1a
 1728 0a15 95070000 		.4byte	.LASF159
 1729 0a19 09       		.byte	0x9
 1730 0a1a 2701     		.2byte	0x127
 1731 0a1c 8F0A0000 		.4byte	0xa8f
 1732 0a20 1A       		.uleb128 0x1a
 1733 0a21 DE060000 		.4byte	.LASF160
 1734 0a25 09       		.byte	0x9
 1735 0a26 2F01     		.2byte	0x12f
 1736 0a28 1A010000 		.4byte	0x11a
 1737 0a2c 00       		.byte	0
 1738 0a2d 0A       		.uleb128 0xa
 1739 0a2e 04       		.byte	0x4
 1740 0a2f 57020000 		.4byte	0x257
 1741 0a33 06       		.uleb128 0x6
 1742 0a34 15070000 		.4byte	.LASF161
 1743 0a38 0C       		.byte	0xc
 1744 0a39 11       		.byte	0x11
 1745 0a3a 34       		.byte	0x34
 1746 0a3b 580A0000 		.4byte	0xa58
 1747 0a3f 07       		.uleb128 0x7
 1748 0a40 38050000 		.4byte	.LASF162
 1749 0a44 11       		.byte	0x11
 1750 0a45 35       		.byte	0x35
 1751 0a46 8C020000 		.4byte	0x28c
 1752 0a4a 00       		.byte	0
 1753 0a4b 07       		.uleb128 0x7
 1754 0a4c D6030000 		.4byte	.LASF163
 1755 0a50 11       		.byte	0x11
 1756 0a51 37       		.byte	0x37
 1757 0a52 25010000 		.4byte	0x125
 1758 0a56 08       		.byte	0x8
 1759 0a57 00       		.byte	0
 1760 0a58 0A       		.uleb128 0xa
 1761 0a59 04       		.byte	0x4
 1762 0a5a 330A0000 		.4byte	0xa33
 1763 0a5e 06       		.uleb128 0x6
 1764 0a5f 5B080000 		.4byte	.LASF164
 1765 0a63 10       		.byte	0x10
 1766 0a64 12       		.byte	0x12
 1767 0a65 39       		.byte	0x39
 1768 0a66 8F0A0000 		.4byte	0xa8f
 1769 0a6a 07       		.uleb128 0x7
 1770 0a6b 67020000 		.4byte	.LASF165
 1771 0a6f 12       		.byte	0x12
 1772 0a70 3A       		.byte	0x3a
 1773 0a71 8C020000 		.4byte	0x28c
 1774 0a75 00       		.byte	0
 1775 0a76 07       		.uleb128 0x7
 1776 0a77 7B090000 		.4byte	.LASF166
ARM GAS  /var/folders/c6/c789hm653lg9vtl73krp73tm0000gn/T//ccvMQiBd.s 			page 49


 1777 0a7b 12       		.byte	0x12
 1778 0a7c 3C       		.byte	0x3c
 1779 0a7d 62020000 		.4byte	0x262
 1780 0a81 08       		.byte	0x8
 1781 0a82 07       		.uleb128 0x7
 1782 0a83 FC070000 		.4byte	.LASF167
 1783 0a87 12       		.byte	0x12
 1784 0a88 3E       		.byte	0x3e
 1785 0a89 D30A0000 		.4byte	0xad3
 1786 0a8d 0C       		.byte	0xc
 1787 0a8e 00       		.byte	0
 1788 0a8f 0A       		.uleb128 0xa
 1789 0a90 04       		.byte	0x4
 1790 0a91 5E0A0000 		.4byte	0xa5e
 1791 0a95 0A       		.uleb128 0xa
 1792 0a96 04       		.byte	0x4
 1793 0a97 9B0A0000 		.4byte	0xa9b
 1794 0a9b 1B       		.uleb128 0x1b
 1795 0a9c A00A0000 		.4byte	0xaa0
 1796 0aa0 03       		.uleb128 0x3
 1797 0aa1 01       		.byte	0x1
 1798 0aa2 08       		.byte	0x8
 1799 0aa3 90070000 		.4byte	.LASF168
 1800 0aa7 0A       		.uleb128 0xa
 1801 0aa8 04       		.byte	0x4
 1802 0aa9 C4060000 		.4byte	0x6c4
 1803 0aad 0A       		.uleb128 0xa
 1804 0aae 04       		.byte	0x4
 1805 0aaf 41030000 		.4byte	0x341
 1806 0ab3 05       		.uleb128 0x5
 1807 0ab4 950A0000 		.4byte	0xa95
 1808 0ab8 12       		.uleb128 0x12
 1809 0ab9 C4060000 		.4byte	0x6c4
 1810 0abd C80A0000 		.4byte	0xac8
 1811 0ac1 13       		.uleb128 0x13
 1812 0ac2 AE040000 		.4byte	0x4ae
 1813 0ac6 1E       		.byte	0x1e
 1814 0ac7 00       		.byte	0
 1815 0ac8 04       		.uleb128 0x4
 1816 0ac9 51030000 		.4byte	.LASF169
 1817 0acd 12       		.byte	0x12
 1818 0ace 34       		.byte	0x34
 1819 0acf 5E0A0000 		.4byte	0xa5e
 1820 0ad3 0A       		.uleb128 0xa
 1821 0ad4 04       		.byte	0x4
 1822 0ad5 C80A0000 		.4byte	0xac8
 1823 0ad9 03       		.uleb128 0x3
 1824 0ada 01       		.byte	0x1
 1825 0adb 02       		.byte	0x2
 1826 0adc 8A060000 		.4byte	.LASF170
 1827 0ae0 1C       		.uleb128 0x1c
 1828 0ae1 34080000 		.4byte	.LASF195
 1829 0ae5 02       		.byte	0x2
 1830 0ae6 2002     		.2byte	0x220
 1831 0ae8 03       		.byte	0x3
 1832 0ae9 FA0A0000 		.4byte	0xafa
 1833 0aed 1D       		.uleb128 0x1d
ARM GAS  /var/folders/c6/c789hm653lg9vtl73krp73tm0000gn/T//ccvMQiBd.s 			page 50


 1834 0aee 59030000 		.4byte	.LASF196
 1835 0af2 02       		.byte	0x2
 1836 0af3 2002     		.2byte	0x220
 1837 0af5 AD000000 		.4byte	0xad
 1838 0af9 00       		.byte	0
 1839 0afa 1E       		.uleb128 0x1e
 1840 0afb 52010000 		.4byte	.LASF171
 1841 0aff 0C       		.byte	0xc
 1842 0b00 BC01     		.2byte	0x1bc
 1843 0b02 03       		.byte	0x3
 1844 0b03 1E       		.uleb128 0x1e
 1845 0b04 78020000 		.4byte	.LASF172
 1846 0b08 0C       		.byte	0xc
 1847 0b09 CA01     		.2byte	0x1ca
 1848 0b0b 03       		.byte	0x3
 1849 0b0c 1E       		.uleb128 0x1e
 1850 0b0d 90080000 		.4byte	.LASF173
 1851 0b11 0C       		.byte	0xc
 1852 0b12 D901     		.2byte	0x1d9
 1853 0b14 03       		.byte	0x3
 1854 0b15 1E       		.uleb128 0x1e
 1855 0b16 13090000 		.4byte	.LASF174
 1856 0b1a 03       		.byte	0x3
 1857 0b1b 8201     		.2byte	0x182
 1858 0b1d 03       		.byte	0x3
 1859 0b1e 1E       		.uleb128 0x1e
 1860 0b1f D9070000 		.4byte	.LASF175
 1861 0b23 0C       		.byte	0xc
 1862 0b24 E401     		.2byte	0x1e4
 1863 0b26 03       		.byte	0x3
 1864 0b27 1E       		.uleb128 0x1e
 1865 0b28 6E060000 		.4byte	.LASF176
 1866 0b2c 03       		.byte	0x3
 1867 0b2d 9601     		.2byte	0x196
 1868 0b2f 03       		.byte	0x3
 1869 0b30 1E       		.uleb128 0x1e
 1870 0b31 2E030000 		.4byte	.LASF177
 1871 0b35 04       		.byte	0x4
 1872 0b36 0102     		.2byte	0x201
 1873 0b38 03       		.byte	0x3
 1874 0b39 1E       		.uleb128 0x1e
 1875 0b3a 05050000 		.4byte	.LASF178
 1876 0b3e 04       		.byte	0x4
 1877 0b3f 4702     		.2byte	0x247
 1878 0b41 03       		.byte	0x3
 1879 0b42 1E       		.uleb128 0x1e
 1880 0b43 E7010000 		.4byte	.LASF179
 1881 0b47 04       		.byte	0x4
 1882 0b48 0C02     		.2byte	0x20c
 1883 0b4a 03       		.byte	0x3
 1884 0b4b 1F       		.uleb128 0x1f
 1885 0b4c 6F020000 		.4byte	.LASF180
 1886 0b50 01       		.byte	0x1
 1887 0b51 AD       		.byte	0xad
 1888 0b52 00000000 		.4byte	.LFB260
 1889 0b56 42000000 		.4byte	.LFE260-.LFB260
 1890 0b5a 01       		.uleb128 0x1
ARM GAS  /var/folders/c6/c789hm653lg9vtl73krp73tm0000gn/T//ccvMQiBd.s 			page 51


 1891 0b5b 9C       		.byte	0x9c
 1892 0b5c 900C0000 		.4byte	0xc90
 1893 0b60 20       		.uleb128 0x20
 1894 0b61 300B0000 		.4byte	0xb30
 1895 0b65 18000000 		.4byte	.LBB54
 1896 0b69 0E000000 		.4byte	.LBE54-.LBB54
 1897 0b6d 01       		.byte	0x1
 1898 0b6e B7       		.byte	0xb7
 1899 0b6f D70B0000 		.4byte	0xbd7
 1900 0b73 21       		.uleb128 0x21
 1901 0b74 150B0000 		.4byte	0xb15
 1902 0b78 18000000 		.4byte	.LBB55
 1903 0b7c 0E000000 		.4byte	.LBE55-.LBB55
 1904 0b80 04       		.byte	0x4
 1905 0b81 0302     		.2byte	0x203
 1906 0b83 22       		.uleb128 0x22
 1907 0b84 0C0B0000 		.4byte	0xb0c
 1908 0b88 18000000 		.4byte	.LBB57
 1909 0b8c 06000000 		.4byte	.LBE57-.LBB57
 1910 0b90 03       		.byte	0x3
 1911 0b91 8401     		.2byte	0x184
 1912 0b93 C30B0000 		.4byte	0xbc3
 1913 0b97 21       		.uleb128 0x21
 1914 0b98 FA0A0000 		.4byte	0xafa
 1915 0b9c 18000000 		.4byte	.LBB58
 1916 0ba0 06000000 		.4byte	.LBE58-.LBB58
 1917 0ba4 0C       		.byte	0xc
 1918 0ba5 DB01     		.2byte	0x1db
 1919 0ba7 21       		.uleb128 0x21
 1920 0ba8 E00A0000 		.4byte	0xae0
 1921 0bac 18000000 		.4byte	.LBB59
 1922 0bb0 06000000 		.4byte	.LBE59-.LBB59
 1923 0bb4 0C       		.byte	0xc
 1924 0bb5 BF01     		.2byte	0x1bf
 1925 0bb7 23       		.uleb128 0x23
 1926 0bb8 ED0A0000 		.4byte	0xaed
 1927 0bbc 00000000 		.4byte	.LLST0
 1928 0bc0 00       		.byte	0
 1929 0bc1 00       		.byte	0
 1930 0bc2 00       		.byte	0
 1931 0bc3 24       		.uleb128 0x24
 1932 0bc4 22000000 		.4byte	.LVL3
 1933 0bc8 D10C0000 		.4byte	0xcd1
 1934 0bcc 24       		.uleb128 0x24
 1935 0bcd 26000000 		.4byte	.LVL4
 1936 0bd1 D80C0000 		.4byte	0xcd8
 1937 0bd5 00       		.byte	0
 1938 0bd6 00       		.byte	0
 1939 0bd7 20       		.uleb128 0x20
 1940 0bd8 390B0000 		.4byte	0xb39
 1941 0bdc 26000000 		.4byte	.LBB61
 1942 0be0 04000000 		.4byte	.LBE61-.LBB61
 1943 0be4 01       		.byte	0x1
 1944 0be5 B8       		.byte	0xb8
 1945 0be6 F40B0000 		.4byte	0xbf4
 1946 0bea 24       		.uleb128 0x24
 1947 0beb 2A000000 		.4byte	.LVL5
ARM GAS  /var/folders/c6/c789hm653lg9vtl73krp73tm0000gn/T//ccvMQiBd.s 			page 52


 1948 0bef DF0C0000 		.4byte	0xcdf
 1949 0bf3 00       		.byte	0
 1950 0bf4 20       		.uleb128 0x20
 1951 0bf5 420B0000 		.4byte	0xb42
 1952 0bf9 2A000000 		.4byte	.LBB63
 1953 0bfd 0C000000 		.4byte	.LBE63-.LBB63
 1954 0c01 01       		.byte	0x1
 1955 0c02 B9       		.byte	0xb9
 1956 0c03 6B0C0000 		.4byte	0xc6b
 1957 0c07 21       		.uleb128 0x21
 1958 0c08 270B0000 		.4byte	0xb27
 1959 0c0c 2A000000 		.4byte	.LBB64
 1960 0c10 0C000000 		.4byte	.LBE64-.LBB64
 1961 0c14 04       		.byte	0x4
 1962 0c15 0E02     		.2byte	0x20e
 1963 0c17 22       		.uleb128 0x22
 1964 0c18 1E0B0000 		.4byte	0xb1e
 1965 0c1c 32000000 		.4byte	.LBB66
 1966 0c20 04000000 		.4byte	.LBE66-.LBB66
 1967 0c24 03       		.byte	0x3
 1968 0c25 9A01     		.2byte	0x19a
 1969 0c27 570C0000 		.4byte	0xc57
 1970 0c2b 21       		.uleb128 0x21
 1971 0c2c 030B0000 		.4byte	0xb03
 1972 0c30 32000000 		.4byte	.LBB67
 1973 0c34 04000000 		.4byte	.LBE67-.LBB67
 1974 0c38 0C       		.byte	0xc
 1975 0c39 E601     		.2byte	0x1e6
 1976 0c3b 21       		.uleb128 0x21
 1977 0c3c E00A0000 		.4byte	0xae0
 1978 0c40 32000000 		.4byte	.LBB68
 1979 0c44 04000000 		.4byte	.LBE68-.LBB68
 1980 0c48 0C       		.byte	0xc
 1981 0c49 CD01     		.2byte	0x1cd
 1982 0c4b 23       		.uleb128 0x23
 1983 0c4c ED0A0000 		.4byte	0xaed
 1984 0c50 15000000 		.4byte	.LLST1
 1985 0c54 00       		.byte	0
 1986 0c55 00       		.byte	0
 1987 0c56 00       		.byte	0
 1988 0c57 24       		.uleb128 0x24
 1989 0c58 2E000000 		.4byte	.LVL6
 1990 0c5c E70C0000 		.4byte	0xce7
 1991 0c60 24       		.uleb128 0x24
 1992 0c61 32000000 		.4byte	.LVL7
 1993 0c65 EE0C0000 		.4byte	0xcee
 1994 0c69 00       		.byte	0
 1995 0c6a 00       		.byte	0
 1996 0c6b 24       		.uleb128 0x24
 1997 0c6c 06000000 		.4byte	.LVL0
 1998 0c70 F50C0000 		.4byte	0xcf5
 1999 0c74 24       		.uleb128 0x24
 2000 0c75 0A000000 		.4byte	.LVL1
 2001 0c79 FC0C0000 		.4byte	0xcfc
 2002 0c7d 24       		.uleb128 0x24
 2003 0c7e 3A000000 		.4byte	.LVL9
 2004 0c82 030D0000 		.4byte	0xd03
ARM GAS  /var/folders/c6/c789hm653lg9vtl73krp73tm0000gn/T//ccvMQiBd.s 			page 53


 2005 0c86 25       		.uleb128 0x25
 2006 0c87 42000000 		.4byte	.LVL10
 2007 0c8b 0A0D0000 		.4byte	0xd0a
 2008 0c8f 00       		.byte	0
 2009 0c90 1F       		.uleb128 0x1f
 2010 0c91 FC010000 		.4byte	.LASF181
 2011 0c95 01       		.byte	0x1
 2012 0c96 C9       		.byte	0xc9
 2013 0c97 00000000 		.4byte	.LFB261
 2014 0c9b 48000000 		.4byte	.LFE261-.LFB261
 2015 0c9f 01       		.uleb128 0x1
 2016 0ca0 9C       		.byte	0x9c
 2017 0ca1 BA0C0000 		.4byte	0xcba
 2018 0ca5 26       		.uleb128 0x26
 2019 0ca6 40000000 		.4byte	.LVL11
 2020 0caa 120D0000 		.4byte	0xd12
 2021 0cae 27       		.uleb128 0x27
 2022 0caf 01       		.uleb128 0x1
 2023 0cb0 51       		.byte	0x51
 2024 0cb1 01       		.uleb128 0x1
 2025 0cb2 38       		.byte	0x38
 2026 0cb3 27       		.uleb128 0x27
 2027 0cb4 01       		.uleb128 0x1
 2028 0cb5 50       		.byte	0x50
 2029 0cb6 01       		.uleb128 0x1
 2030 0cb7 4C       		.byte	0x4c
 2031 0cb8 00       		.byte	0
 2032 0cb9 00       		.byte	0
 2033 0cba 28       		.uleb128 0x28
 2034 0cbb A6060000 		.4byte	.LASF182
 2035 0cbf 13       		.byte	0x13
 2036 0cc0 A706     		.2byte	0x6a7
 2037 0cc2 C3000000 		.4byte	0xc3
 2038 0cc6 29       		.uleb128 0x29
 2039 0cc7 636800   		.ascii	"ch\000"
 2040 0cca 09       		.byte	0x9
 2041 0ccb 0902     		.2byte	0x209
 2042 0ccd 36040000 		.4byte	0x436
 2043 0cd1 2A       		.uleb128 0x2a
 2044 0cd2 DC040000 		.4byte	.LASF183
 2045 0cd6 10       		.byte	0x10
 2046 0cd7 51       		.byte	0x51
 2047 0cd8 2A       		.uleb128 0x2a
 2048 0cd9 E5050000 		.4byte	.LASF184
 2049 0cdd 0E       		.byte	0xe
 2050 0cde DA       		.byte	0xda
 2051 0cdf 2B       		.uleb128 0x2b
 2052 0ce0 0D080000 		.4byte	.LASF185
 2053 0ce4 03       		.byte	0x3
 2054 0ce5 1801     		.2byte	0x118
 2055 0ce7 2A       		.uleb128 0x2a
 2056 0ce8 BA080000 		.4byte	.LASF186
 2057 0cec 0E       		.byte	0xe
 2058 0ced DB       		.byte	0xdb
 2059 0cee 2A       		.uleb128 0x2a
 2060 0cef 53090000 		.4byte	.LASF187
 2061 0cf3 10       		.byte	0x10
ARM GAS  /var/folders/c6/c789hm653lg9vtl73krp73tm0000gn/T//ccvMQiBd.s 			page 54


 2062 0cf4 52       		.byte	0x52
 2063 0cf5 2A       		.uleb128 0x2a
 2064 0cf6 49070000 		.4byte	.LASF188
 2065 0cfa 10       		.byte	0x10
 2066 0cfb 4D       		.byte	0x4d
 2067 0cfc 2A       		.uleb128 0x2a
 2068 0cfd 9C050000 		.4byte	.LASF189
 2069 0d01 0E       		.byte	0xe
 2070 0d02 DC       		.byte	0xdc
 2071 0d03 2A       		.uleb128 0x2a
 2072 0d04 9D030000 		.4byte	.LASF190
 2073 0d08 0E       		.byte	0xe
 2074 0d09 DD       		.byte	0xdd
 2075 0d0a 2B       		.uleb128 0x2b
 2076 0d0b 89040000 		.4byte	.LASF191
 2077 0d0f 0C       		.byte	0xc
 2078 0d10 6601     		.2byte	0x166
 2079 0d12 2C       		.uleb128 0x2c
 2080 0d13 27020000 		.4byte	.LASF197
 2081 0d17 14       		.byte	0x14
 2082 0d18 4E       		.byte	0x4e
 2083 0d19 0D       		.uleb128 0xd
 2084 0d1a AD000000 		.4byte	0xad
 2085 0d1e 0D       		.uleb128 0xd
 2086 0d1f AD000000 		.4byte	0xad
 2087 0d23 00       		.byte	0
 2088 0d24 00       		.byte	0
 2089              		.section	.debug_abbrev,"",%progbits
 2090              	.Ldebug_abbrev0:
 2091 0000 01       		.uleb128 0x1
 2092 0001 11       		.uleb128 0x11
 2093 0002 01       		.byte	0x1
 2094 0003 25       		.uleb128 0x25
 2095 0004 0E       		.uleb128 0xe
 2096 0005 13       		.uleb128 0x13
 2097 0006 0B       		.uleb128 0xb
 2098 0007 03       		.uleb128 0x3
 2099 0008 0E       		.uleb128 0xe
 2100 0009 1B       		.uleb128 0x1b
 2101 000a 0E       		.uleb128 0xe
 2102 000b 55       		.uleb128 0x55
 2103 000c 17       		.uleb128 0x17
 2104 000d 11       		.uleb128 0x11
 2105 000e 01       		.uleb128 0x1
 2106 000f 10       		.uleb128 0x10
 2107 0010 17       		.uleb128 0x17
 2108 0011 00       		.byte	0
 2109 0012 00       		.byte	0
 2110 0013 02       		.uleb128 0x2
 2111 0014 24       		.uleb128 0x24
 2112 0015 00       		.byte	0
 2113 0016 0B       		.uleb128 0xb
 2114 0017 0B       		.uleb128 0xb
 2115 0018 3E       		.uleb128 0x3e
 2116 0019 0B       		.uleb128 0xb
 2117 001a 03       		.uleb128 0x3
 2118 001b 08       		.uleb128 0x8
ARM GAS  /var/folders/c6/c789hm653lg9vtl73krp73tm0000gn/T//ccvMQiBd.s 			page 55


 2119 001c 00       		.byte	0
 2120 001d 00       		.byte	0
 2121 001e 03       		.uleb128 0x3
 2122 001f 24       		.uleb128 0x24
 2123 0020 00       		.byte	0
 2124 0021 0B       		.uleb128 0xb
 2125 0022 0B       		.uleb128 0xb
 2126 0023 3E       		.uleb128 0x3e
 2127 0024 0B       		.uleb128 0xb
 2128 0025 03       		.uleb128 0x3
 2129 0026 0E       		.uleb128 0xe
 2130 0027 00       		.byte	0
 2131 0028 00       		.byte	0
 2132 0029 04       		.uleb128 0x4
 2133 002a 16       		.uleb128 0x16
 2134 002b 00       		.byte	0
 2135 002c 03       		.uleb128 0x3
 2136 002d 0E       		.uleb128 0xe
 2137 002e 3A       		.uleb128 0x3a
 2138 002f 0B       		.uleb128 0xb
 2139 0030 3B       		.uleb128 0x3b
 2140 0031 0B       		.uleb128 0xb
 2141 0032 49       		.uleb128 0x49
 2142 0033 13       		.uleb128 0x13
 2143 0034 00       		.byte	0
 2144 0035 00       		.byte	0
 2145 0036 05       		.uleb128 0x5
 2146 0037 35       		.uleb128 0x35
 2147 0038 00       		.byte	0
 2148 0039 49       		.uleb128 0x49
 2149 003a 13       		.uleb128 0x13
 2150 003b 00       		.byte	0
 2151 003c 00       		.byte	0
 2152 003d 06       		.uleb128 0x6
 2153 003e 13       		.uleb128 0x13
 2154 003f 01       		.byte	0x1
 2155 0040 03       		.uleb128 0x3
 2156 0041 0E       		.uleb128 0xe
 2157 0042 0B       		.uleb128 0xb
 2158 0043 0B       		.uleb128 0xb
 2159 0044 3A       		.uleb128 0x3a
 2160 0045 0B       		.uleb128 0xb
 2161 0046 3B       		.uleb128 0x3b
 2162 0047 0B       		.uleb128 0xb
 2163 0048 01       		.uleb128 0x1
 2164 0049 13       		.uleb128 0x13
 2165 004a 00       		.byte	0
 2166 004b 00       		.byte	0
 2167 004c 07       		.uleb128 0x7
 2168 004d 0D       		.uleb128 0xd
 2169 004e 00       		.byte	0
 2170 004f 03       		.uleb128 0x3
 2171 0050 0E       		.uleb128 0xe
 2172 0051 3A       		.uleb128 0x3a
 2173 0052 0B       		.uleb128 0xb
 2174 0053 3B       		.uleb128 0x3b
 2175 0054 0B       		.uleb128 0xb
ARM GAS  /var/folders/c6/c789hm653lg9vtl73krp73tm0000gn/T//ccvMQiBd.s 			page 56


 2176 0055 49       		.uleb128 0x49
 2177 0056 13       		.uleb128 0x13
 2178 0057 38       		.uleb128 0x38
 2179 0058 0B       		.uleb128 0xb
 2180 0059 00       		.byte	0
 2181 005a 00       		.byte	0
 2182 005b 08       		.uleb128 0x8
 2183 005c 0D       		.uleb128 0xd
 2184 005d 00       		.byte	0
 2185 005e 03       		.uleb128 0x3
 2186 005f 08       		.uleb128 0x8
 2187 0060 3A       		.uleb128 0x3a
 2188 0061 0B       		.uleb128 0xb
 2189 0062 3B       		.uleb128 0x3b
 2190 0063 05       		.uleb128 0x5
 2191 0064 49       		.uleb128 0x49
 2192 0065 13       		.uleb128 0x13
 2193 0066 38       		.uleb128 0x38
 2194 0067 0B       		.uleb128 0xb
 2195 0068 00       		.byte	0
 2196 0069 00       		.byte	0
 2197 006a 09       		.uleb128 0x9
 2198 006b 0D       		.uleb128 0xd
 2199 006c 00       		.byte	0
 2200 006d 03       		.uleb128 0x3
 2201 006e 0E       		.uleb128 0xe
 2202 006f 3A       		.uleb128 0x3a
 2203 0070 0B       		.uleb128 0xb
 2204 0071 3B       		.uleb128 0x3b
 2205 0072 05       		.uleb128 0x5
 2206 0073 49       		.uleb128 0x49
 2207 0074 13       		.uleb128 0x13
 2208 0075 38       		.uleb128 0x38
 2209 0076 0B       		.uleb128 0xb
 2210 0077 00       		.byte	0
 2211 0078 00       		.byte	0
 2212 0079 0A       		.uleb128 0xa
 2213 007a 0F       		.uleb128 0xf
 2214 007b 00       		.byte	0
 2215 007c 0B       		.uleb128 0xb
 2216 007d 0B       		.uleb128 0xb
 2217 007e 49       		.uleb128 0x49
 2218 007f 13       		.uleb128 0x13
 2219 0080 00       		.byte	0
 2220 0081 00       		.byte	0
 2221 0082 0B       		.uleb128 0xb
 2222 0083 13       		.uleb128 0x13
 2223 0084 01       		.byte	0x1
 2224 0085 03       		.uleb128 0x3
 2225 0086 0E       		.uleb128 0xe
 2226 0087 0B       		.uleb128 0xb
 2227 0088 0B       		.uleb128 0xb
 2228 0089 3A       		.uleb128 0x3a
 2229 008a 0B       		.uleb128 0xb
 2230 008b 3B       		.uleb128 0x3b
 2231 008c 05       		.uleb128 0x5
 2232 008d 01       		.uleb128 0x1
ARM GAS  /var/folders/c6/c789hm653lg9vtl73krp73tm0000gn/T//ccvMQiBd.s 			page 57


 2233 008e 13       		.uleb128 0x13
 2234 008f 00       		.byte	0
 2235 0090 00       		.byte	0
 2236 0091 0C       		.uleb128 0xc
 2237 0092 15       		.uleb128 0x15
 2238 0093 01       		.byte	0x1
 2239 0094 27       		.uleb128 0x27
 2240 0095 19       		.uleb128 0x19
 2241 0096 01       		.uleb128 0x1
 2242 0097 13       		.uleb128 0x13
 2243 0098 00       		.byte	0
 2244 0099 00       		.byte	0
 2245 009a 0D       		.uleb128 0xd
 2246 009b 05       		.uleb128 0x5
 2247 009c 00       		.byte	0
 2248 009d 49       		.uleb128 0x49
 2249 009e 13       		.uleb128 0x13
 2250 009f 00       		.byte	0
 2251 00a0 00       		.byte	0
 2252 00a1 0E       		.uleb128 0xe
 2253 00a2 0F       		.uleb128 0xf
 2254 00a3 00       		.byte	0
 2255 00a4 0B       		.uleb128 0xb
 2256 00a5 0B       		.uleb128 0xb
 2257 00a6 00       		.byte	0
 2258 00a7 00       		.byte	0
 2259 00a8 0F       		.uleb128 0xf
 2260 00a9 13       		.uleb128 0x13
 2261 00aa 01       		.byte	0x1
 2262 00ab 03       		.uleb128 0x3
 2263 00ac 0E       		.uleb128 0xe
 2264 00ad 0B       		.uleb128 0xb
 2265 00ae 05       		.uleb128 0x5
 2266 00af 3A       		.uleb128 0x3a
 2267 00b0 0B       		.uleb128 0xb
 2268 00b1 3B       		.uleb128 0x3b
 2269 00b2 05       		.uleb128 0x5
 2270 00b3 01       		.uleb128 0x1
 2271 00b4 13       		.uleb128 0x13
 2272 00b5 00       		.byte	0
 2273 00b6 00       		.byte	0
 2274 00b7 10       		.uleb128 0x10
 2275 00b8 0D       		.uleb128 0xd
 2276 00b9 00       		.byte	0
 2277 00ba 03       		.uleb128 0x3
 2278 00bb 0E       		.uleb128 0xe
 2279 00bc 3A       		.uleb128 0x3a
 2280 00bd 0B       		.uleb128 0xb
 2281 00be 3B       		.uleb128 0x3b
 2282 00bf 05       		.uleb128 0x5
 2283 00c0 49       		.uleb128 0x49
 2284 00c1 13       		.uleb128 0x13
 2285 00c2 38       		.uleb128 0x38
 2286 00c3 05       		.uleb128 0x5
 2287 00c4 00       		.byte	0
 2288 00c5 00       		.byte	0
 2289 00c6 11       		.uleb128 0x11
ARM GAS  /var/folders/c6/c789hm653lg9vtl73krp73tm0000gn/T//ccvMQiBd.s 			page 58


 2290 00c7 0D       		.uleb128 0xd
 2291 00c8 00       		.byte	0
 2292 00c9 03       		.uleb128 0x3
 2293 00ca 08       		.uleb128 0x8
 2294 00cb 3A       		.uleb128 0x3a
 2295 00cc 0B       		.uleb128 0xb
 2296 00cd 3B       		.uleb128 0x3b
 2297 00ce 05       		.uleb128 0x5
 2298 00cf 49       		.uleb128 0x49
 2299 00d0 13       		.uleb128 0x13
 2300 00d1 38       		.uleb128 0x38
 2301 00d2 05       		.uleb128 0x5
 2302 00d3 00       		.byte	0
 2303 00d4 00       		.byte	0
 2304 00d5 12       		.uleb128 0x12
 2305 00d6 01       		.uleb128 0x1
 2306 00d7 01       		.byte	0x1
 2307 00d8 49       		.uleb128 0x49
 2308 00d9 13       		.uleb128 0x13
 2309 00da 01       		.uleb128 0x1
 2310 00db 13       		.uleb128 0x13
 2311 00dc 00       		.byte	0
 2312 00dd 00       		.byte	0
 2313 00de 13       		.uleb128 0x13
 2314 00df 21       		.uleb128 0x21
 2315 00e0 00       		.byte	0
 2316 00e1 49       		.uleb128 0x49
 2317 00e2 13       		.uleb128 0x13
 2318 00e3 2F       		.uleb128 0x2f
 2319 00e4 0B       		.uleb128 0xb
 2320 00e5 00       		.byte	0
 2321 00e6 00       		.byte	0
 2322 00e7 14       		.uleb128 0x14
 2323 00e8 13       		.uleb128 0x13
 2324 00e9 01       		.byte	0x1
 2325 00ea 0B       		.uleb128 0xb
 2326 00eb 0B       		.uleb128 0xb
 2327 00ec 3A       		.uleb128 0x3a
 2328 00ed 0B       		.uleb128 0xb
 2329 00ee 3B       		.uleb128 0x3b
 2330 00ef 05       		.uleb128 0x5
 2331 00f0 01       		.uleb128 0x1
 2332 00f1 13       		.uleb128 0x13
 2333 00f2 00       		.byte	0
 2334 00f3 00       		.byte	0
 2335 00f4 15       		.uleb128 0x15
 2336 00f5 16       		.uleb128 0x16
 2337 00f6 00       		.byte	0
 2338 00f7 03       		.uleb128 0x3
 2339 00f8 0E       		.uleb128 0xe
 2340 00f9 3A       		.uleb128 0x3a
 2341 00fa 0B       		.uleb128 0xb
 2342 00fb 3B       		.uleb128 0x3b
 2343 00fc 05       		.uleb128 0x5
 2344 00fd 49       		.uleb128 0x49
 2345 00fe 13       		.uleb128 0x13
 2346 00ff 00       		.byte	0
ARM GAS  /var/folders/c6/c789hm653lg9vtl73krp73tm0000gn/T//ccvMQiBd.s 			page 59


 2347 0100 00       		.byte	0
 2348 0101 16       		.uleb128 0x16
 2349 0102 0D       		.uleb128 0xd
 2350 0103 00       		.byte	0
 2351 0104 03       		.uleb128 0x3
 2352 0105 08       		.uleb128 0x8
 2353 0106 3A       		.uleb128 0x3a
 2354 0107 0B       		.uleb128 0xb
 2355 0108 3B       		.uleb128 0x3b
 2356 0109 0B       		.uleb128 0xb
 2357 010a 49       		.uleb128 0x49
 2358 010b 13       		.uleb128 0x13
 2359 010c 38       		.uleb128 0x38
 2360 010d 0B       		.uleb128 0xb
 2361 010e 00       		.byte	0
 2362 010f 00       		.byte	0
 2363 0110 17       		.uleb128 0x17
 2364 0111 13       		.uleb128 0x13
 2365 0112 01       		.byte	0x1
 2366 0113 0B       		.uleb128 0xb
 2367 0114 0B       		.uleb128 0xb
 2368 0115 3A       		.uleb128 0x3a
 2369 0116 0B       		.uleb128 0xb
 2370 0117 3B       		.uleb128 0x3b
 2371 0118 0B       		.uleb128 0xb
 2372 0119 01       		.uleb128 0x1
 2373 011a 13       		.uleb128 0x13
 2374 011b 00       		.byte	0
 2375 011c 00       		.byte	0
 2376 011d 18       		.uleb128 0x18
 2377 011e 13       		.uleb128 0x13
 2378 011f 01       		.byte	0x1
 2379 0120 0B       		.uleb128 0xb
 2380 0121 05       		.uleb128 0x5
 2381 0122 3A       		.uleb128 0x3a
 2382 0123 0B       		.uleb128 0xb
 2383 0124 3B       		.uleb128 0x3b
 2384 0125 0B       		.uleb128 0xb
 2385 0126 01       		.uleb128 0x1
 2386 0127 13       		.uleb128 0x13
 2387 0128 00       		.byte	0
 2388 0129 00       		.byte	0
 2389 012a 19       		.uleb128 0x19
 2390 012b 17       		.uleb128 0x17
 2391 012c 01       		.byte	0x1
 2392 012d 0B       		.uleb128 0xb
 2393 012e 0B       		.uleb128 0xb
 2394 012f 3A       		.uleb128 0x3a
 2395 0130 0B       		.uleb128 0xb
 2396 0131 3B       		.uleb128 0x3b
 2397 0132 0B       		.uleb128 0xb
 2398 0133 01       		.uleb128 0x1
 2399 0134 13       		.uleb128 0x13
 2400 0135 00       		.byte	0
 2401 0136 00       		.byte	0
 2402 0137 1A       		.uleb128 0x1a
 2403 0138 0D       		.uleb128 0xd
ARM GAS  /var/folders/c6/c789hm653lg9vtl73krp73tm0000gn/T//ccvMQiBd.s 			page 60


 2404 0139 00       		.byte	0
 2405 013a 03       		.uleb128 0x3
 2406 013b 0E       		.uleb128 0xe
 2407 013c 3A       		.uleb128 0x3a
 2408 013d 0B       		.uleb128 0xb
 2409 013e 3B       		.uleb128 0x3b
 2410 013f 05       		.uleb128 0x5
 2411 0140 49       		.uleb128 0x49
 2412 0141 13       		.uleb128 0x13
 2413 0142 00       		.byte	0
 2414 0143 00       		.byte	0
 2415 0144 1B       		.uleb128 0x1b
 2416 0145 26       		.uleb128 0x26
 2417 0146 00       		.byte	0
 2418 0147 49       		.uleb128 0x49
 2419 0148 13       		.uleb128 0x13
 2420 0149 00       		.byte	0
 2421 014a 00       		.byte	0
 2422 014b 1C       		.uleb128 0x1c
 2423 014c 2E       		.uleb128 0x2e
 2424 014d 01       		.byte	0x1
 2425 014e 03       		.uleb128 0x3
 2426 014f 0E       		.uleb128 0xe
 2427 0150 3A       		.uleb128 0x3a
 2428 0151 0B       		.uleb128 0xb
 2429 0152 3B       		.uleb128 0x3b
 2430 0153 05       		.uleb128 0x5
 2431 0154 27       		.uleb128 0x27
 2432 0155 19       		.uleb128 0x19
 2433 0156 20       		.uleb128 0x20
 2434 0157 0B       		.uleb128 0xb
 2435 0158 01       		.uleb128 0x1
 2436 0159 13       		.uleb128 0x13
 2437 015a 00       		.byte	0
 2438 015b 00       		.byte	0
 2439 015c 1D       		.uleb128 0x1d
 2440 015d 05       		.uleb128 0x5
 2441 015e 00       		.byte	0
 2442 015f 03       		.uleb128 0x3
 2443 0160 0E       		.uleb128 0xe
 2444 0161 3A       		.uleb128 0x3a
 2445 0162 0B       		.uleb128 0xb
 2446 0163 3B       		.uleb128 0x3b
 2447 0164 05       		.uleb128 0x5
 2448 0165 49       		.uleb128 0x49
 2449 0166 13       		.uleb128 0x13
 2450 0167 00       		.byte	0
 2451 0168 00       		.byte	0
 2452 0169 1E       		.uleb128 0x1e
 2453 016a 2E       		.uleb128 0x2e
 2454 016b 00       		.byte	0
 2455 016c 03       		.uleb128 0x3
 2456 016d 0E       		.uleb128 0xe
 2457 016e 3A       		.uleb128 0x3a
 2458 016f 0B       		.uleb128 0xb
 2459 0170 3B       		.uleb128 0x3b
 2460 0171 05       		.uleb128 0x5
ARM GAS  /var/folders/c6/c789hm653lg9vtl73krp73tm0000gn/T//ccvMQiBd.s 			page 61


 2461 0172 27       		.uleb128 0x27
 2462 0173 19       		.uleb128 0x19
 2463 0174 20       		.uleb128 0x20
 2464 0175 0B       		.uleb128 0xb
 2465 0176 00       		.byte	0
 2466 0177 00       		.byte	0
 2467 0178 1F       		.uleb128 0x1f
 2468 0179 2E       		.uleb128 0x2e
 2469 017a 01       		.byte	0x1
 2470 017b 3F       		.uleb128 0x3f
 2471 017c 19       		.uleb128 0x19
 2472 017d 03       		.uleb128 0x3
 2473 017e 0E       		.uleb128 0xe
 2474 017f 3A       		.uleb128 0x3a
 2475 0180 0B       		.uleb128 0xb
 2476 0181 3B       		.uleb128 0x3b
 2477 0182 0B       		.uleb128 0xb
 2478 0183 27       		.uleb128 0x27
 2479 0184 19       		.uleb128 0x19
 2480 0185 11       		.uleb128 0x11
 2481 0186 01       		.uleb128 0x1
 2482 0187 12       		.uleb128 0x12
 2483 0188 06       		.uleb128 0x6
 2484 0189 40       		.uleb128 0x40
 2485 018a 18       		.uleb128 0x18
 2486 018b 9742     		.uleb128 0x2117
 2487 018d 19       		.uleb128 0x19
 2488 018e 01       		.uleb128 0x1
 2489 018f 13       		.uleb128 0x13
 2490 0190 00       		.byte	0
 2491 0191 00       		.byte	0
 2492 0192 20       		.uleb128 0x20
 2493 0193 1D       		.uleb128 0x1d
 2494 0194 01       		.byte	0x1
 2495 0195 31       		.uleb128 0x31
 2496 0196 13       		.uleb128 0x13
 2497 0197 11       		.uleb128 0x11
 2498 0198 01       		.uleb128 0x1
 2499 0199 12       		.uleb128 0x12
 2500 019a 06       		.uleb128 0x6
 2501 019b 58       		.uleb128 0x58
 2502 019c 0B       		.uleb128 0xb
 2503 019d 59       		.uleb128 0x59
 2504 019e 0B       		.uleb128 0xb
 2505 019f 01       		.uleb128 0x1
 2506 01a0 13       		.uleb128 0x13
 2507 01a1 00       		.byte	0
 2508 01a2 00       		.byte	0
 2509 01a3 21       		.uleb128 0x21
 2510 01a4 1D       		.uleb128 0x1d
 2511 01a5 01       		.byte	0x1
 2512 01a6 31       		.uleb128 0x31
 2513 01a7 13       		.uleb128 0x13
 2514 01a8 11       		.uleb128 0x11
 2515 01a9 01       		.uleb128 0x1
 2516 01aa 12       		.uleb128 0x12
 2517 01ab 06       		.uleb128 0x6
ARM GAS  /var/folders/c6/c789hm653lg9vtl73krp73tm0000gn/T//ccvMQiBd.s 			page 62


 2518 01ac 58       		.uleb128 0x58
 2519 01ad 0B       		.uleb128 0xb
 2520 01ae 59       		.uleb128 0x59
 2521 01af 05       		.uleb128 0x5
 2522 01b0 00       		.byte	0
 2523 01b1 00       		.byte	0
 2524 01b2 22       		.uleb128 0x22
 2525 01b3 1D       		.uleb128 0x1d
 2526 01b4 01       		.byte	0x1
 2527 01b5 31       		.uleb128 0x31
 2528 01b6 13       		.uleb128 0x13
 2529 01b7 11       		.uleb128 0x11
 2530 01b8 01       		.uleb128 0x1
 2531 01b9 12       		.uleb128 0x12
 2532 01ba 06       		.uleb128 0x6
 2533 01bb 58       		.uleb128 0x58
 2534 01bc 0B       		.uleb128 0xb
 2535 01bd 59       		.uleb128 0x59
 2536 01be 05       		.uleb128 0x5
 2537 01bf 01       		.uleb128 0x1
 2538 01c0 13       		.uleb128 0x13
 2539 01c1 00       		.byte	0
 2540 01c2 00       		.byte	0
 2541 01c3 23       		.uleb128 0x23
 2542 01c4 05       		.uleb128 0x5
 2543 01c5 00       		.byte	0
 2544 01c6 31       		.uleb128 0x31
 2545 01c7 13       		.uleb128 0x13
 2546 01c8 02       		.uleb128 0x2
 2547 01c9 17       		.uleb128 0x17
 2548 01ca 00       		.byte	0
 2549 01cb 00       		.byte	0
 2550 01cc 24       		.uleb128 0x24
 2551 01cd 898201   		.uleb128 0x4109
 2552 01d0 00       		.byte	0
 2553 01d1 11       		.uleb128 0x11
 2554 01d2 01       		.uleb128 0x1
 2555 01d3 31       		.uleb128 0x31
 2556 01d4 13       		.uleb128 0x13
 2557 01d5 00       		.byte	0
 2558 01d6 00       		.byte	0
 2559 01d7 25       		.uleb128 0x25
 2560 01d8 898201   		.uleb128 0x4109
 2561 01db 00       		.byte	0
 2562 01dc 11       		.uleb128 0x11
 2563 01dd 01       		.uleb128 0x1
 2564 01de 9542     		.uleb128 0x2115
 2565 01e0 19       		.uleb128 0x19
 2566 01e1 31       		.uleb128 0x31
 2567 01e2 13       		.uleb128 0x13
 2568 01e3 00       		.byte	0
 2569 01e4 00       		.byte	0
 2570 01e5 26       		.uleb128 0x26
 2571 01e6 898201   		.uleb128 0x4109
 2572 01e9 01       		.byte	0x1
 2573 01ea 11       		.uleb128 0x11
 2574 01eb 01       		.uleb128 0x1
ARM GAS  /var/folders/c6/c789hm653lg9vtl73krp73tm0000gn/T//ccvMQiBd.s 			page 63


 2575 01ec 9542     		.uleb128 0x2115
 2576 01ee 19       		.uleb128 0x19
 2577 01ef 31       		.uleb128 0x31
 2578 01f0 13       		.uleb128 0x13
 2579 01f1 00       		.byte	0
 2580 01f2 00       		.byte	0
 2581 01f3 27       		.uleb128 0x27
 2582 01f4 8A8201   		.uleb128 0x410a
 2583 01f7 00       		.byte	0
 2584 01f8 02       		.uleb128 0x2
 2585 01f9 18       		.uleb128 0x18
 2586 01fa 9142     		.uleb128 0x2111
 2587 01fc 18       		.uleb128 0x18
 2588 01fd 00       		.byte	0
 2589 01fe 00       		.byte	0
 2590 01ff 28       		.uleb128 0x28
 2591 0200 34       		.uleb128 0x34
 2592 0201 00       		.byte	0
 2593 0202 03       		.uleb128 0x3
 2594 0203 0E       		.uleb128 0xe
 2595 0204 3A       		.uleb128 0x3a
 2596 0205 0B       		.uleb128 0xb
 2597 0206 3B       		.uleb128 0x3b
 2598 0207 05       		.uleb128 0x5
 2599 0208 49       		.uleb128 0x49
 2600 0209 13       		.uleb128 0x13
 2601 020a 3F       		.uleb128 0x3f
 2602 020b 19       		.uleb128 0x19
 2603 020c 3C       		.uleb128 0x3c
 2604 020d 19       		.uleb128 0x19
 2605 020e 00       		.byte	0
 2606 020f 00       		.byte	0
 2607 0210 29       		.uleb128 0x29
 2608 0211 34       		.uleb128 0x34
 2609 0212 00       		.byte	0
 2610 0213 03       		.uleb128 0x3
 2611 0214 08       		.uleb128 0x8
 2612 0215 3A       		.uleb128 0x3a
 2613 0216 0B       		.uleb128 0xb
 2614 0217 3B       		.uleb128 0x3b
 2615 0218 05       		.uleb128 0x5
 2616 0219 49       		.uleb128 0x49
 2617 021a 13       		.uleb128 0x13
 2618 021b 3F       		.uleb128 0x3f
 2619 021c 19       		.uleb128 0x19
 2620 021d 3C       		.uleb128 0x3c
 2621 021e 19       		.uleb128 0x19
 2622 021f 00       		.byte	0
 2623 0220 00       		.byte	0
 2624 0221 2A       		.uleb128 0x2a
 2625 0222 2E       		.uleb128 0x2e
 2626 0223 00       		.byte	0
 2627 0224 3F       		.uleb128 0x3f
 2628 0225 19       		.uleb128 0x19
 2629 0226 03       		.uleb128 0x3
 2630 0227 0E       		.uleb128 0xe
 2631 0228 3A       		.uleb128 0x3a
ARM GAS  /var/folders/c6/c789hm653lg9vtl73krp73tm0000gn/T//ccvMQiBd.s 			page 64


 2632 0229 0B       		.uleb128 0xb
 2633 022a 3B       		.uleb128 0x3b
 2634 022b 0B       		.uleb128 0xb
 2635 022c 27       		.uleb128 0x27
 2636 022d 19       		.uleb128 0x19
 2637 022e 3C       		.uleb128 0x3c
 2638 022f 19       		.uleb128 0x19
 2639 0230 00       		.byte	0
 2640 0231 00       		.byte	0
 2641 0232 2B       		.uleb128 0x2b
 2642 0233 2E       		.uleb128 0x2e
 2643 0234 00       		.byte	0
 2644 0235 3F       		.uleb128 0x3f
 2645 0236 19       		.uleb128 0x19
 2646 0237 03       		.uleb128 0x3
 2647 0238 0E       		.uleb128 0xe
 2648 0239 3A       		.uleb128 0x3a
 2649 023a 0B       		.uleb128 0xb
 2650 023b 3B       		.uleb128 0x3b
 2651 023c 05       		.uleb128 0x5
 2652 023d 27       		.uleb128 0x27
 2653 023e 19       		.uleb128 0x19
 2654 023f 3C       		.uleb128 0x3c
 2655 0240 19       		.uleb128 0x19
 2656 0241 00       		.byte	0
 2657 0242 00       		.byte	0
 2658 0243 2C       		.uleb128 0x2c
 2659 0244 2E       		.uleb128 0x2e
 2660 0245 01       		.byte	0x1
 2661 0246 3F       		.uleb128 0x3f
 2662 0247 19       		.uleb128 0x19
 2663 0248 03       		.uleb128 0x3
 2664 0249 0E       		.uleb128 0xe
 2665 024a 3A       		.uleb128 0x3a
 2666 024b 0B       		.uleb128 0xb
 2667 024c 3B       		.uleb128 0x3b
 2668 024d 0B       		.uleb128 0xb
 2669 024e 27       		.uleb128 0x27
 2670 024f 19       		.uleb128 0x19
 2671 0250 3C       		.uleb128 0x3c
 2672 0251 19       		.uleb128 0x19
 2673 0252 00       		.byte	0
 2674 0253 00       		.byte	0
 2675 0254 00       		.byte	0
 2676              		.section	.debug_loc,"",%progbits
 2677              	.Ldebug_loc0:
 2678              	.LLST0:
 2679 0000 18000000 		.4byte	.LVL2
 2680 0004 36000000 		.4byte	.LVL8
 2681 0008 0300     		.2byte	0x3
 2682 000a 08       		.byte	0x8
 2683 000b 20       		.byte	0x20
 2684 000c 9F       		.byte	0x9f
 2685 000d 00000000 		.4byte	0
 2686 0011 00000000 		.4byte	0
 2687              	.LLST1:
 2688 0015 32000000 		.4byte	.LVL7
ARM GAS  /var/folders/c6/c789hm653lg9vtl73krp73tm0000gn/T//ccvMQiBd.s 			page 65


 2689 0019 36000000 		.4byte	.LVL8
 2690 001d 0200     		.2byte	0x2
 2691 001f 30       		.byte	0x30
 2692 0020 9F       		.byte	0x9f
 2693 0021 00000000 		.4byte	0
 2694 0025 00000000 		.4byte	0
 2695              		.section	.debug_aranges,"",%progbits
 2696 0000 24000000 		.4byte	0x24
 2697 0004 0200     		.2byte	0x2
 2698 0006 00000000 		.4byte	.Ldebug_info0
 2699 000a 04       		.byte	0x4
 2700 000b 00       		.byte	0
 2701 000c 0000     		.2byte	0
 2702 000e 0000     		.2byte	0
 2703 0010 00000000 		.4byte	.LFB260
 2704 0014 42000000 		.4byte	.LFE260-.LFB260
 2705 0018 00000000 		.4byte	.LFB261
 2706 001c 48000000 		.4byte	.LFE261-.LFB261
 2707 0020 00000000 		.4byte	0
 2708 0024 00000000 		.4byte	0
 2709              		.section	.debug_ranges,"",%progbits
 2710              	.Ldebug_ranges0:
 2711 0000 00000000 		.4byte	.LFB260
 2712 0004 42000000 		.4byte	.LFE260
 2713 0008 00000000 		.4byte	.LFB261
 2714 000c 48000000 		.4byte	.LFE261
 2715 0010 00000000 		.4byte	0
 2716 0014 00000000 		.4byte	0
 2717              		.section	.debug_line,"",%progbits
 2718              	.Ldebug_line0:
 2719 0000 1A030000 		.section	.debug_str,"MS",%progbits,1
 2719      0200A002 
 2719      00000201 
 2719      FB0E0D00 
 2719      01010101 
 2720              	.LASF192:
 2721 0000 474E5520 		.ascii	"GNU C 4.8.4 20140725 (release) [ARM/embedded-4_8-br"
 2721      4320342E 
 2721      382E3420 
 2721      32303134 
 2721      30373235 
 2722 0033 616E6368 		.ascii	"anch revision 213147] -mcpu=cortex-m4 -mno-thumb-in"
 2722      20726576 
 2722      6973696F 
 2722      6E203231 
 2722      33313437 
 2723 0066 74657277 		.ascii	"terwork -mthumb -ggdb -O2 -fomit-frame-pointer -fal"
 2723      6F726B20 
 2723      2D6D7468 
 2723      756D6220 
 2723      2D676764 
 2724 0099 69676E2D 		.ascii	"ign-functions=16 -ffunction-sections -fdata-section"
 2724      66756E63 
 2724      74696F6E 
 2724      733D3136 
 2724      202D6666 
 2725 00cc 73202D66 		.ascii	"s -fno-common -flto\000"
ARM GAS  /var/folders/c6/c789hm653lg9vtl73krp73tm0000gn/T//ccvMQiBd.s 			page 66


 2725      6E6F2D63 
 2725      6F6D6D6F 
 2725      6E202D66 
 2725      6C746F00 
 2726              	.LASF139:
 2727 00e0 74625F70 		.ascii	"tb_ptr\000"
 2727      747200
 2728              	.LASF54:
 2729 00e7 72656164 		.ascii	"ready_list_t\000"
 2729      795F6C69 
 2729      73745F74 
 2729      00
 2730              	.LASF124:
 2731 00f4 44494552 		.ascii	"DIER\000"
 2731      00
 2732              	.LASF157:
 2733 00f9 77747472 		.ascii	"wttrp\000"
 2733      7000
 2734              	.LASF154:
 2735 00ff 7264796D 		.ascii	"rdymsg\000"
 2735      736700
 2736              	.LASF16:
 2737 0106 75696E74 		.ascii	"uint64_t\000"
 2737      36345F74 
 2737      00
 2738              	.LASF84:
 2739 010f 6B65726E 		.ascii	"kernel_stats\000"
 2739      656C5F73 
 2739      74617473 
 2739      00
 2740              	.LASF5:
 2741 011c 5F5F7569 		.ascii	"__uint8_t\000"
 2741      6E74385F 
 2741      7400
 2742              	.LASF122:
 2743 0126 706F7274 		.ascii	"port_intctx\000"
 2743      5F696E74 
 2743      63747800 
 2744              	.LASF53:
 2745 0132 63685F74 		.ascii	"ch_threads_queue\000"
 2745      68726561 
 2745      64735F71 
 2745      75657565 
 2745      00
 2746              	.LASF73:
 2747 0143 73797374 		.ascii	"system_debug_t\000"
 2747      656D5F64 
 2747      65627567 
 2747      5F7400
 2748              	.LASF171:
 2749 0152 706F7274 		.ascii	"port_lock\000"
 2749      5F6C6F63 
 2749      6B00
 2750              	.LASF145:
 2751 015c 776F7273 		.ascii	"worst\000"
 2751      7400
 2752              	.LASF148:
ARM GAS  /var/folders/c6/c789hm653lg9vtl73krp73tm0000gn/T//ccvMQiBd.s 			page 67


 2753 0162 74696D65 		.ascii	"time_measurement_t\000"
 2753      5F6D6561 
 2753      73757265 
 2753      6D656E74 
 2753      5F7400
 2754              	.LASF137:
 2755 0175 63685F73 		.ascii	"ch_swc_event_t\000"
 2755      77635F65 
 2755      76656E74 
 2755      5F7400
 2756              	.LASF12:
 2757 0184 6C6F6E67 		.ascii	"long long unsigned int\000"
 2757      206C6F6E 
 2757      6720756E 
 2757      7369676E 
 2757      65642069 
 2758              	.LASF141:
 2759 019b 63685F74 		.ascii	"ch_trace_buffer_t\000"
 2759      72616365 
 2759      5F627566 
 2759      6665725F 
 2759      7400
 2760              	.LASF136:
 2761 01ad 73655F73 		.ascii	"se_state\000"
 2761      74617465 
 2761      00
 2762              	.LASF87:
 2763 01b6 4944434F 		.ascii	"IDCODE\000"
 2763      444500
 2764              	.LASF155:
 2765 01bd 65786974 		.ascii	"exitcode\000"
 2765      636F6465 
 2765      00
 2766              	.LASF83:
 2767 01c6 6D61696E 		.ascii	"mainthread\000"
 2767      74687265 
 2767      616400
 2768              	.LASF70:
 2769 01d1 76697274 		.ascii	"virtual_timers_list_t\000"
 2769      75616C5F 
 2769      74696D65 
 2769      72735F6C 
 2769      6973745F 
 2770              	.LASF179:
 2771 01e7 6F73616C 		.ascii	"osalSysUnlockFromISR\000"
 2771      53797355 
 2771      6E6C6F63 
 2771      6B46726F 
 2771      6D495352 
 2772              	.LASF181:
 2773 01fc 73745F6C 		.ascii	"st_lld_init\000"
 2773      6C645F69 
 2773      6E697400 
 2774              	.LASF128:
 2775 0208 42445452 		.ascii	"BDTR\000"
 2775      00
 2776              	.LASF18:
ARM GAS  /var/folders/c6/c789hm653lg9vtl73krp73tm0000gn/T//ccvMQiBd.s 			page 68


 2777 020d 72747469 		.ascii	"rttime_t\000"
 2777      6D655F74 
 2777      00
 2778              	.LASF107:
 2779 0216 41484231 		.ascii	"AHB1LPENR\000"
 2779      4C50454E 
 2779      5200
 2780              	.LASF31:
 2781 0220 705F7072 		.ascii	"p_prio\000"
 2781      696F00
 2782              	.LASF197:
 2783 0227 6E766963 		.ascii	"nvicEnableVector\000"
 2783      456E6162 
 2783      6C655665 
 2783      63746F72 
 2783      00
 2784              	.LASF125:
 2785 0238 43434D52 		.ascii	"CCMR1\000"
 2785      3100
 2786              	.LASF126:
 2787 023e 43434D52 		.ascii	"CCMR2\000"
 2787      3200
 2788              	.LASF130:
 2789 0244 43434D52 		.ascii	"CCMR3\000"
 2789      3300
 2790              	.LASF1:
 2791 024a 7369676E 		.ascii	"signed char\000"
 2791      65642063 
 2791      68617200 
 2792              	.LASF93:
 2793 0256 41484231 		.ascii	"AHB1RSTR\000"
 2793      52535452 
 2793      00
 2794              	.LASF133:
 2795 025f 73655F74 		.ascii	"se_time\000"
 2795      696D6500 
 2796              	.LASF165:
 2797 0267 6D5F7175 		.ascii	"m_queue\000"
 2797      65756500 
 2798              	.LASF180:
 2799 026f 56656374 		.ascii	"VectorB0\000"
 2799      6F724230 
 2799      00
 2800              	.LASF172:
 2801 0278 706F7274 		.ascii	"port_unlock\000"
 2801      5F756E6C 
 2801      6F636B00 
 2802              	.LASF146:
 2803 0284 6C617374 		.ascii	"last\000"
 2803      00
 2804              	.LASF80:
 2805 0289 63685F73 		.ascii	"ch_system\000"
 2805      79737465 
 2805      6D00
 2806              	.LASF7:
 2807 0293 6C6F6E67 		.ascii	"long int\000"
 2807      20696E74 
ARM GAS  /var/folders/c6/c789hm653lg9vtl73krp73tm0000gn/T//ccvMQiBd.s 			page 69


 2807      00
 2808              	.LASF98:
 2809 029c 41504232 		.ascii	"APB2RSTR\000"
 2809      52535452 
 2809      00
 2810              	.LASF111:
 2811 02a5 41504231 		.ascii	"APB1LPENR\000"
 2811      4C50454E 
 2811      5200
 2812              	.LASF20:
 2813 02af 74737461 		.ascii	"tstate_t\000"
 2813      74655F74 
 2813      00
 2814              	.LASF127:
 2815 02b8 43434552 		.ascii	"CCER\000"
 2815      00
 2816              	.LASF134:
 2817 02bd 73655F74 		.ascii	"se_tp\000"
 2817      7000
 2818              	.LASF10:
 2819 02c3 6C6F6E67 		.ascii	"long long int\000"
 2819      206C6F6E 
 2819      6720696E 
 2819      7400
 2820              	.LASF33:
 2821 02d1 705F6E65 		.ascii	"p_newer\000"
 2821      77657200 
 2822              	.LASF140:
 2823 02d9 74625F62 		.ascii	"tb_buffer\000"
 2823      75666665 
 2823      7200
 2824              	.LASF91:
 2825 02e3 504C4C43 		.ascii	"PLLCFGR\000"
 2825      46475200 
 2826              	.LASF4:
 2827 02eb 73686F72 		.ascii	"short unsigned int\000"
 2827      7420756E 
 2827      7369676E 
 2827      65642069 
 2827      6E7400
 2828              	.LASF138:
 2829 02fe 74625F73 		.ascii	"tb_size\000"
 2829      697A6500 
 2830              	.LASF59:
 2831 0306 725F6E65 		.ascii	"r_newer\000"
 2831      77657200 
 2832              	.LASF46:
 2833 030e 705F6D70 		.ascii	"p_mpool\000"
 2833      6F6F6C00 
 2834              	.LASF119:
 2835 0316 72656761 		.ascii	"regarm_t\000"
 2835      726D5F74 
 2835      00
 2836              	.LASF66:
 2837 031f 76745F70 		.ascii	"vt_prev\000"
 2837      72657600 
 2838              	.LASF82:
ARM GAS  /var/folders/c6/c789hm653lg9vtl73krp73tm0000gn/T//ccvMQiBd.s 			page 70


 2839 0327 76746C69 		.ascii	"vtlist\000"
 2839      737400
 2840              	.LASF177:
 2841 032e 6F73616C 		.ascii	"osalSysLockFromISR\000"
 2841      5379734C 
 2841      6F636B46 
 2841      726F6D49 
 2841      535200
 2842              	.LASF74:
 2843 0341 63685F73 		.ascii	"ch_system_debug\000"
 2843      79737465 
 2843      6D5F6465 
 2843      62756700 
 2844              	.LASF169:
 2845 0351 6D757465 		.ascii	"mutex_t\000"
 2845      785F7400 
 2846              	.LASF196:
 2847 0359 76616C75 		.ascii	"value\000"
 2847      6500
 2848              	.LASF77:
 2849 035f 6C6F636B 		.ascii	"lock_cnt\000"
 2849      5F636E74 
 2849      00
 2850              	.LASF85:
 2851 0368 69646C65 		.ascii	"idle_thread_wa\000"
 2851      5F746872 
 2851      6561645F 
 2851      776100
 2852              	.LASF25:
 2853 0377 636E745F 		.ascii	"cnt_t\000"
 2853      7400
 2854              	.LASF36:
 2855 037d 705F7374 		.ascii	"p_stklimit\000"
 2855      6B6C696D 
 2855      697400
 2856              	.LASF0:
 2857 0388 756E7369 		.ascii	"unsigned int\000"
 2857      676E6564 
 2857      20696E74 
 2857      00
 2858              	.LASF65:
 2859 0395 76745F6E 		.ascii	"vt_next\000"
 2859      65787400 
 2860              	.LASF190:
 2861 039d 5F646267 		.ascii	"_dbg_check_leave_isr\000"
 2861      5F636865 
 2861      636B5F6C 
 2861      65617665 
 2861      5F697372 
 2862              	.LASF158:
 2863 03b2 77747365 		.ascii	"wtsemp\000"
 2863      6D7000
 2864              	.LASF41:
 2865 03b9 705F6D73 		.ascii	"p_msgqueue\000"
 2865      67717565 
 2865      756500
 2866              	.LASF118:
ARM GAS  /var/folders/c6/c789hm653lg9vtl73krp73tm0000gn/T//ccvMQiBd.s 			page 71


 2867 03c4 5243435F 		.ascii	"RCC_TypeDef\000"
 2867      54797065 
 2867      44656600 
 2868              	.LASF149:
 2869 03d0 6E5F6972 		.ascii	"n_irq\000"
 2869      7100
 2870              	.LASF163:
 2871 03d6 735F636E 		.ascii	"s_cnt\000"
 2871      7400
 2872              	.LASF194:
 2873 03dc 2F557365 		.ascii	"/Users/savonetj/Downloads/ChibiOS_3.0.2/demos/STM32"
 2873      72732F73 
 2873      61766F6E 
 2873      65746A2F 
 2873      446F776E 
 2874 040f 2F52542D 		.ascii	"/RT-STM32F407-OLIMEX_E407-LWIP-FATFS-USB\000"
 2874      53544D33 
 2874      32463430 
 2874      372D4F4C 
 2874      494D4558 
 2875              	.LASF123:
 2876 0438 534D4352 		.ascii	"SMCR\000"
 2876      00
 2877              	.LASF153:
 2878 043d 6B65726E 		.ascii	"kernel_stats_t\000"
 2878      656C5F73 
 2878      74617473 
 2878      5F7400
 2879              	.LASF50:
 2880 044c 63685F74 		.ascii	"ch_thread\000"
 2880      68726561 
 2880      6400
 2881              	.LASF117:
 2882 0456 504C4C49 		.ascii	"PLLI2SCFGR\000"
 2882      32534346 
 2882      475200
 2883              	.LASF23:
 2884 0461 6D73675F 		.ascii	"msg_t\000"
 2884      7400
 2885              	.LASF95:
 2886 0467 41484233 		.ascii	"AHB3RSTR\000"
 2886      52535452 
 2886      00
 2887              	.LASF45:
 2888 0470 705F7265 		.ascii	"p_realprio\000"
 2888      616C7072 
 2888      696F00
 2889              	.LASF26:
 2890 047b 75636E74 		.ascii	"ucnt_t\000"
 2890      5F7400
 2891              	.LASF89:
 2892 0482 41504232 		.ascii	"APB2FZ\000"
 2892      465A00
 2893              	.LASF191:
 2894 0489 5F706F72 		.ascii	"_port_irq_epilogue\000"
 2894      745F6972 
 2894      715F6570 
ARM GAS  /var/folders/c6/c789hm653lg9vtl73krp73tm0000gn/T//ccvMQiBd.s 			page 72


 2894      696C6F67 
 2894      756500
 2895              	.LASF156:
 2896 049c 77746F62 		.ascii	"wtobjp\000"
 2896      6A7000
 2897              	.LASF112:
 2898 04a3 41504232 		.ascii	"APB2LPENR\000"
 2898      4C50454E 
 2898      5200
 2899              	.LASF152:
 2900 04ad 6D5F6372 		.ascii	"m_crit_isr\000"
 2900      69745F69 
 2900      737200
 2901              	.LASF55:
 2902 04b8 63685F72 		.ascii	"ch_ready_list\000"
 2902      65616479 
 2902      5F6C6973 
 2902      7400
 2903              	.LASF24:
 2904 04c6 6576656E 		.ascii	"eventmask_t\000"
 2904      746D6173 
 2904      6B5F7400 
 2905              	.LASF6:
 2906 04d2 5F5F696E 		.ascii	"__int32_t\000"
 2906      7433325F 
 2906      7400
 2907              	.LASF183:
 2908 04dc 5F737461 		.ascii	"_stats_start_measure_crit_isr\000"
 2908      74735F73 
 2908      74617274 
 2908      5F6D6561 
 2908      73757265 
 2909              	.LASF120:
 2910 04fa 73746B61 		.ascii	"stkalign_t\000"
 2910      6C69676E 
 2910      5F7400
 2911              	.LASF178:
 2912 0505 6F73616C 		.ascii	"osalOsTimerHandlerI\000"
 2912      4F735469 
 2912      6D657248 
 2912      616E646C 
 2912      65724900 
 2913              	.LASF49:
 2914 0519 74687265 		.ascii	"threads_list_t\000"
 2914      6164735F 
 2914      6C697374 
 2914      5F7400
 2915              	.LASF63:
 2916 0528 76697274 		.ascii	"virtual_timer_t\000"
 2916      75616C5F 
 2916      74696D65 
 2916      725F7400 
 2917              	.LASF162:
 2918 0538 735F7175 		.ascii	"s_queue\000"
 2918      65756500 
 2919              	.LASF40:
 2920 0540 705F7761 		.ascii	"p_waiting\000"
ARM GAS  /var/folders/c6/c789hm653lg9vtl73krp73tm0000gn/T//ccvMQiBd.s 			page 73


 2920      6974696E 
 2920      6700
 2921              	.LASF86:
 2922 054a 73697A65 		.ascii	"sizetype\000"
 2922      74797065 
 2922      00
 2923              	.LASF48:
 2924 0553 74687265 		.ascii	"thread_reference_t\000"
 2924      61645F72 
 2924      65666572 
 2924      656E6365 
 2924      5F7400
 2925              	.LASF71:
 2926 0566 63685F76 		.ascii	"ch_virtual_timers_list\000"
 2926      69727475 
 2926      616C5F74 
 2926      696D6572 
 2926      735F6C69 
 2927              	.LASF43:
 2928 057d 705F6570 		.ascii	"p_epending\000"
 2928      656E6469 
 2928      6E6700
 2929              	.LASF102:
 2930 0588 41484233 		.ascii	"AHB3ENR\000"
 2930      454E5200 
 2931              	.LASF72:
 2932 0590 76745F6C 		.ascii	"vt_lasttime\000"
 2932      61737474 
 2932      696D6500 
 2933              	.LASF189:
 2934 059c 5F646267 		.ascii	"_dbg_check_enter_isr\000"
 2934      5F636865 
 2934      636B5F65 
 2934      6E746572 
 2934      5F697372 
 2935              	.LASF58:
 2936 05b1 725F6374 		.ascii	"r_ctx\000"
 2936      7800
 2937              	.LASF108:
 2938 05b7 41484232 		.ascii	"AHB2LPENR\000"
 2938      4C50454E 
 2938      5200
 2939              	.LASF143:
 2940 05c1 746D5F63 		.ascii	"tm_calibration_t\000"
 2940      616C6962 
 2940      72617469 
 2940      6F6E5F74 
 2940      00
 2941              	.LASF61:
 2942 05d2 725F6375 		.ascii	"r_current\000"
 2942      7272656E 
 2942      7400
 2943              	.LASF97:
 2944 05dc 41504231 		.ascii	"APB1RSTR\000"
 2944      52535452 
 2944      00
 2945              	.LASF184:
ARM GAS  /var/folders/c6/c789hm653lg9vtl73krp73tm0000gn/T//ccvMQiBd.s 			page 74


 2946 05e5 5F646267 		.ascii	"_dbg_check_lock_from_isr\000"
 2946      5F636865 
 2946      636B5F6C 
 2946      6F636B5F 
 2946      66726F6D 
 2947              	.LASF11:
 2948 05fe 5F5F7569 		.ascii	"__uint64_t\000"
 2948      6E743634 
 2948      5F7400
 2949              	.LASF147:
 2950 0609 63756D75 		.ascii	"cumulative\000"
 2950      6C617469 
 2950      766500
 2951              	.LASF88:
 2952 0614 41504231 		.ascii	"APB1FZ\000"
 2952      465A00
 2953              	.LASF21:
 2954 061b 74726566 		.ascii	"trefs_t\000"
 2954      735F7400 
 2955              	.LASF96:
 2956 0623 52455345 		.ascii	"RESERVED0\000"
 2956      52564544 
 2956      3000
 2957              	.LASF99:
 2958 062d 52455345 		.ascii	"RESERVED1\000"
 2958      52564544 
 2958      3100
 2959              	.LASF103:
 2960 0637 52455345 		.ascii	"RESERVED2\000"
 2960      52564544 
 2960      3200
 2961              	.LASF106:
 2962 0641 52455345 		.ascii	"RESERVED3\000"
 2962      52564544 
 2962      3300
 2963              	.LASF110:
 2964 064b 52455345 		.ascii	"RESERVED4\000"
 2964      52564544 
 2964      3400
 2965              	.LASF30:
 2966 0655 705F7072 		.ascii	"p_prev\000"
 2966      657600
 2967              	.LASF115:
 2968 065c 52455345 		.ascii	"RESERVED6\000"
 2968      52564544 
 2968      3600
 2969              	.LASF22:
 2970 0666 74707269 		.ascii	"tprio_t\000"
 2970      6F5F7400 
 2971              	.LASF176:
 2972 066e 63685379 		.ascii	"chSysUnlockFromISR\000"
 2972      73556E6C 
 2972      6F636B46 
 2972      726F6D49 
 2972      535200
 2973              	.LASF150:
 2974 0681 6E5F6374 		.ascii	"n_ctxswc\000"
ARM GAS  /var/folders/c6/c789hm653lg9vtl73krp73tm0000gn/T//ccvMQiBd.s 			page 75


 2974      78737763 
 2974      00
 2975              	.LASF170:
 2976 068a 5F426F6F 		.ascii	"_Bool\000"
 2976      6C00
 2977              	.LASF14:
 2978 0690 696E7433 		.ascii	"int32_t\000"
 2978      325F7400 
 2979              	.LASF2:
 2980 0698 756E7369 		.ascii	"unsigned char\000"
 2980      676E6564 
 2980      20636861 
 2980      7200
 2981              	.LASF182:
 2982 06a6 49544D5F 		.ascii	"ITM_RxBuffer\000"
 2982      52784275 
 2982      66666572 
 2982      00
 2983              	.LASF44:
 2984 06b3 705F6D74 		.ascii	"p_mtxlist\000"
 2984      786C6973 
 2984      7400
 2985              	.LASF3:
 2986 06bd 73686F72 		.ascii	"short int\000"
 2986      7420696E 
 2986      7400
 2987              	.LASF37:
 2988 06c7 705F7374 		.ascii	"p_state\000"
 2988      61746500 
 2989              	.LASF34:
 2990 06cf 705F6F6C 		.ascii	"p_older\000"
 2990      64657200 
 2991              	.LASF57:
 2992 06d7 725F7072 		.ascii	"r_prio\000"
 2992      696F00
 2993              	.LASF160:
 2994 06de 65776D61 		.ascii	"ewmask\000"
 2994      736B00
 2995              	.LASF29:
 2996 06e5 705F6E65 		.ascii	"p_next\000"
 2996      787400
 2997              	.LASF38:
 2998 06ec 705F666C 		.ascii	"p_flags\000"
 2998      61677300 
 2999              	.LASF47:
 3000 06f4 705F7374 		.ascii	"p_stats\000"
 3000      61747300 
 3001              	.LASF105:
 3002 06fc 41504232 		.ascii	"APB2ENR\000"
 3002      454E5200 
 3003              	.LASF64:
 3004 0704 63685F76 		.ascii	"ch_virtual_timer\000"
 3004      69727475 
 3004      616C5F74 
 3004      696D6572 
 3004      00
 3005              	.LASF161:
ARM GAS  /var/folders/c6/c789hm653lg9vtl73krp73tm0000gn/T//ccvMQiBd.s 			page 76


 3006 0715 63685F73 		.ascii	"ch_semaphore\000"
 3006      656D6170 
 3006      686F7265 
 3006      00
 3007              	.LASF131:
 3008 0722 43435852 		.ascii	"CCXR\000"
 3008      00
 3009              	.LASF90:
 3010 0727 4442474D 		.ascii	"DBGMCU_TypeDef\000"
 3010      43555F54 
 3010      79706544 
 3010      656600
 3011              	.LASF113:
 3012 0736 52455345 		.ascii	"RESERVED5\000"
 3012      52564544 
 3012      3500
 3013              	.LASF15:
 3014 0740 75696E74 		.ascii	"uint32_t\000"
 3014      33325F74 
 3014      00
 3015              	.LASF188:
 3016 0749 5F737461 		.ascii	"_stats_increase_irq\000"
 3016      74735F69 
 3016      6E637265 
 3016      6173655F 
 3016      69727100 
 3017              	.LASF56:
 3018 075d 725F7175 		.ascii	"r_queue\000"
 3018      65756500 
 3019              	.LASF67:
 3020 0765 76745F64 		.ascii	"vt_delta\000"
 3020      656C7461 
 3020      00
 3021              	.LASF51:
 3022 076e 63685F74 		.ascii	"ch_threads_list\000"
 3022      68726561 
 3022      64735F6C 
 3022      69737400 
 3023              	.LASF9:
 3024 077e 6C6F6E67 		.ascii	"long unsigned int\000"
 3024      20756E73 
 3024      69676E65 
 3024      6420696E 
 3024      7400
 3025              	.LASF168:
 3026 0790 63686172 		.ascii	"char\000"
 3026      00
 3027              	.LASF159:
 3028 0795 77746D74 		.ascii	"wtmtxp\000"
 3028      787000
 3029              	.LASF193:
 3030 079c 2E2E2F2E 		.ascii	"../../../os/hal/ports/STM32/LLD/TIMv1/st_lld.c\000"
 3030      2E2F2E2E 
 3030      2F6F732F 
 3030      68616C2F 
 3030      706F7274 
 3031              	.LASF129:
ARM GAS  /var/folders/c6/c789hm653lg9vtl73krp73tm0000gn/T//ccvMQiBd.s 			page 77


 3032 07cb 444D4152 		.ascii	"DMAR\000"
 3032      00
 3033              	.LASF94:
 3034 07d0 41484232 		.ascii	"AHB2RSTR\000"
 3034      52535452 
 3034      00
 3035              	.LASF175:
 3036 07d9 706F7274 		.ascii	"port_unlock_from_isr\000"
 3036      5F756E6C 
 3036      6F636B5F 
 3036      66726F6D 
 3036      5F697372 
 3037              	.LASF28:
 3038 07ee 74687265 		.ascii	"thread_t\000"
 3038      61645F74 
 3038      00
 3039              	.LASF144:
 3040 07f7 62657374 		.ascii	"best\000"
 3040      00
 3041              	.LASF167:
 3042 07fc 6D5F6E65 		.ascii	"m_next\000"
 3042      787400
 3043              	.LASF27:
 3044 0803 73797374 		.ascii	"systime_t\000"
 3044      696D655F 
 3044      7400
 3045              	.LASF185:
 3046 080d 63685379 		.ascii	"chSysTimerHandlerI\000"
 3046      7354696D 
 3046      65724861 
 3046      6E646C65 
 3046      724900
 3047              	.LASF62:
 3048 0820 76746675 		.ascii	"vtfunc_t\000"
 3048      6E635F74 
 3048      00
 3049              	.LASF8:
 3050 0829 5F5F7569 		.ascii	"__uint32_t\000"
 3050      6E743332 
 3050      5F7400
 3051              	.LASF195:
 3052 0834 5F5F7365 		.ascii	"__set_BASEPRI\000"
 3052      745F4241 
 3052      53455052 
 3052      4900
 3053              	.LASF75:
 3054 0842 70616E69 		.ascii	"panic_msg\000"
 3054      635F6D73 
 3054      6700
 3055              	.LASF142:
 3056 084c 6F666673 		.ascii	"offset\000"
 3056      657400
 3057              	.LASF104:
 3058 0853 41504231 		.ascii	"APB1ENR\000"
 3058      454E5200 
 3059              	.LASF164:
 3060 085b 63685F6D 		.ascii	"ch_mutex\000"
ARM GAS  /var/folders/c6/c789hm653lg9vtl73krp73tm0000gn/T//ccvMQiBd.s 			page 78


 3060      75746578 
 3060      00
 3061              	.LASF101:
 3062 0864 41484232 		.ascii	"AHB2ENR\000"
 3062      454E5200 
 3063              	.LASF121:
 3064 086c 636F6E74 		.ascii	"context\000"
 3064      65787400 
 3065              	.LASF60:
 3066 0874 725F6F6C 		.ascii	"r_older\000"
 3066      64657200 
 3067              	.LASF79:
 3068 087c 63685F73 		.ascii	"ch_system_t\000"
 3068      79737465 
 3068      6D5F7400 
 3069              	.LASF17:
 3070 0888 7274636E 		.ascii	"rtcnt_t\000"
 3070      745F7400 
 3071              	.LASF173:
 3072 0890 706F7274 		.ascii	"port_lock_from_isr\000"
 3072      5F6C6F63 
 3072      6B5F6672 
 3072      6F6D5F69 
 3072      737200
 3073              	.LASF69:
 3074 08a3 76745F70 		.ascii	"vt_par\000"
 3074      617200
 3075              	.LASF116:
 3076 08aa 53534347 		.ascii	"SSCGR\000"
 3076      5200
 3077              	.LASF109:
 3078 08b0 41484233 		.ascii	"AHB3LPENR\000"
 3078      4C50454E 
 3078      5200
 3079              	.LASF186:
 3080 08ba 5F646267 		.ascii	"_dbg_check_unlock_from_isr\000"
 3080      5F636865 
 3080      636B5F75 
 3080      6E6C6F63 
 3080      6B5F6672 
 3081              	.LASF52:
 3082 08d5 74687265 		.ascii	"threads_queue_t\000"
 3082      6164735F 
 3082      71756575 
 3082      655F7400 
 3083              	.LASF132:
 3084 08e5 73746D33 		.ascii	"stm32_tim_t\000"
 3084      325F7469 
 3084      6D5F7400 
 3085              	.LASF39:
 3086 08f1 705F7265 		.ascii	"p_refs\000"
 3086      667300
 3087              	.LASF76:
 3088 08f8 6973725F 		.ascii	"isr_cnt\000"
 3088      636E7400 
 3089              	.LASF114:
 3090 0900 42444352 		.ascii	"BDCR\000"
ARM GAS  /var/folders/c6/c789hm653lg9vtl73krp73tm0000gn/T//ccvMQiBd.s 			page 79


 3090      00
 3091              	.LASF81:
 3092 0905 726C6973 		.ascii	"rlist\000"
 3092      7400
 3093              	.LASF13:
 3094 090b 75696E74 		.ascii	"uint8_t\000"
 3094      385F7400 
 3095              	.LASF174:
 3096 0913 63685379 		.ascii	"chSysLockFromISR\000"
 3096      734C6F63 
 3096      6B46726F 
 3096      6D495352 
 3096      00
 3097              	.LASF35:
 3098 0924 705F6E61 		.ascii	"p_name\000"
 3098      6D6500
 3099              	.LASF100:
 3100 092b 41484231 		.ascii	"AHB1ENR\000"
 3100      454E5200 
 3101              	.LASF92:
 3102 0933 43464752 		.ascii	"CFGR\000"
 3102      00
 3103              	.LASF19:
 3104 0938 746D6F64 		.ascii	"tmode_t\000"
 3104      655F7400 
 3105              	.LASF78:
 3106 0940 74726163 		.ascii	"trace_buffer\000"
 3106      655F6275 
 3106      66666572 
 3106      00
 3107              	.LASF42:
 3108 094d 705F6D73 		.ascii	"p_msg\000"
 3108      6700
 3109              	.LASF187:
 3110 0953 5F737461 		.ascii	"_stats_stop_measure_crit_isr\000"
 3110      74735F73 
 3110      746F705F 
 3110      6D656173 
 3110      7572655F 
 3111              	.LASF151:
 3112 0970 6D5F6372 		.ascii	"m_crit_thd\000"
 3112      69745F74 
 3112      686400
 3113              	.LASF166:
 3114 097b 6D5F6F77 		.ascii	"m_owner\000"
 3114      6E657200 
 3115              	.LASF135:
 3116 0983 73655F77 		.ascii	"se_wtobjp\000"
 3116      746F626A 
 3116      7000
 3117              	.LASF32:
 3118 098d 705F6374 		.ascii	"p_ctx\000"
 3118      7800
 3119              	.LASF68:
 3120 0993 76745F66 		.ascii	"vt_func\000"
 3120      756E6300 
 3121              		.comm	__gnu_lto_v1,1,1
ARM GAS  /var/folders/c6/c789hm653lg9vtl73krp73tm0000gn/T//ccvMQiBd.s 			page 80


 3122              		.ident	"GCC: (GNU Tools for ARM Embedded Processors) 4.8.4 20140725 (release) [ARM/embedded-4_8-br
ARM GAS  /var/folders/c6/c789hm653lg9vtl73krp73tm0000gn/T//ccvMQiBd.s 			page 81


DEFINED SYMBOLS
                            *ABS*:0000000000000000 st_lld.c
/var/folders/c6/c789hm653lg9vtl73krp73tm0000gn/T//ccvMQiBd.s:297    .text.VectorB0:0000000000000000 $t
/var/folders/c6/c789hm653lg9vtl73krp73tm0000gn/T//ccvMQiBd.s:303    .text.VectorB0:0000000000000000 VectorB0
/var/folders/c6/c789hm653lg9vtl73krp73tm0000gn/T//ccvMQiBd.s:403    .text.st_lld_init:0000000000000000 $t
/var/folders/c6/c789hm653lg9vtl73krp73tm0000gn/T//ccvMQiBd.s:409    .text.st_lld_init:0000000000000000 st_lld_init
/var/folders/c6/c789hm653lg9vtl73krp73tm0000gn/T//ccvMQiBd.s:475    .text.st_lld_init:0000000000000040 $d
                            *COM*:0000000000000001 __gnu_lto_v1
                     .debug_frame:0000000000000010 $d
/var/folders/c6/c789hm653lg9vtl73krp73tm0000gn/T//ccvMQiBd.s:480    .text.st_lld_init:0000000000000048 $t

UNDEFINED SYMBOLS
_stats_increase_irq
_dbg_check_enter_isr
_stats_start_measure_crit_isr
_dbg_check_lock_from_isr
chSysTimerHandlerI
_dbg_check_unlock_from_isr
_stats_stop_measure_crit_isr
_dbg_check_leave_isr
_port_irq_epilogue
nvicEnableVector
