ARM GAS  /var/folders/c6/c789hm653lg9vtl73krp73tm0000gn/T//ccvMQiBd.s 			page 1


   1              		.syntax unified
   2              		.cpu cortex-m4
   3              		.fpu softvfp
   4              		.eabi_attribute 20, 1
   5              		.eabi_attribute 21, 1
   6              		.eabi_attribute 23, 3
   7              		.eabi_attribute 24, 1
   8              		.eabi_attribute 25, 1
   9              		.eabi_attribute 26, 1
  10              		.eabi_attribute 30, 2
  11              		.eabi_attribute 34, 1
  12              		.eabi_attribute 18, 4
  13              		.thumb
  14              		.file	"st_lld.c"
  15              		.text
  16              	.Ltext0:
  17              		.section	.gnu.lto_.jmpfuncs.52df4e4109ad5d5f,"",%progbits
  18 0000 789C6362 		.ascii	"x\234cb`b\300\006\224\2404\262,#\003\023S\004c&#\203"
  18      6062C006 
  18      94A034B2 
  18      2C230313 
  18      53046326 
  19 0016 0C501CCC 		.ascii	"\014P\034\314\340\000\212\002\000\034\007\001\332"
  19      E0008A02 
  19      001C0701 
  19      DA
  20              		.text
  21              		.section	.gnu.lto_.inline.52df4e4109ad5d5f,"",%progbits
  22 0000 789C6362 		.ascii	"x\234cb`b\300\006\342\2404PV\3700\003#\003\023\337\275"
  22      6062C006 
  22      E2A03450 
  22      56F83003 
  22      230313DF 
  23 0015 0006B605 		.ascii	"\000\006\266\005\362`\325\214\\\244\020\014\"2@\375"
  23      F260D58C 
  23      5CA4100C 
  23      223240FD 
  24 0025 320F6E31 		.ascii	"2\017n1\302\015`\346\001\233\314\000\000c\332\006\207"
  24      C20D60E6 
  24      019BCC00 
  24      0063DA06 
  24      87
  25              		.text
  26              		.section	.gnu.lto_.pureconst.52df4e4109ad5d5f,"",%progbits
  27 0000 789C6362 		.ascii	"x\234cb`b`e\200\000&\006+F)\000\001f\000a"
  27      60626065 
  27      80002606 
  27      2B462900 
  27      01660061 
  28              		.text
  29              		.section	.gnu.lto_VectorB0.52df4e4109ad5d5f,"",%progbits
  30 0000 789C8D54 		.ascii	"x\234\215T]H\024Q\024>gf\366Gsk\255\036c[\004\037\""
  30      5D481451 
  30      143E6766 
  30      F647736B 
  30      AD1E635B 
  31 0017 DB297BE8 		.ascii	"\333){\350\2650\002\301}qW(\010d\034\227v`\327\225\335"
ARM GAS  /var/folders/c6/c789hm653lg9vtl73krp73tm0000gn/T//ccvMQiBd.s 			page 2


  31      B53002C1 
  31      7D715728 
  31      08641C97 
  31      7660D795 
  32 002c 55941E9C 		.ascii	"U\224\036\234u7\010\224\020\011\261\242LB\350\007V\022"
  32      75370894 
  32      1009B1A2 
  32      4C42E807 
  32      5612
  33 003e 22DBB558 		.ascii	"\"\333\265X\364\245?\025\037\352!\0027\002\241,\324"
  33      F4A53F15 
  33      1FEA2102 
  33      3702A12C 
  33      D4
  34 004f 5EA234B6 		.ascii	"^\2424\26633\3733\373Cy\231{\317\275\367|\367\334\363"
  34      3333FB33 
  34      FB437999 
  34      7BCFBDF7 
  34      7CF7DCF3 
  35 0063 F3CD6580 		.ascii	"\363\315e\200\201\322\326H\375-\007\360\225$\032\000"
  35      81D2D648 
  35      FD2D07F0 
  35      95241A00 
  36 0073 99912580 		.ascii	"\231\221%\200\210\231a\330\204\015\344j\356=\017r\015"
  36      889961D8 
  36      840DE46A 
  36      EE3D0F72 
  36      0D
  37 0084 8B9CB6CD 		.ascii	"\213\234\266\315!*\023@\030`X\016\007.\240jd\232I\245"
  37      212A1340 
  37      1860580E 
  37      072EA06A 
  37      649A49A5 
  38 0098 33997862 		.ascii	"3\231xbh\342#N3\007\015 !\030\225\201\232\001b\262<"
  38      68E2234E 
  38      33070D20 
  38      21189581 
  38      9A0162B2 
  39 00ad 620710D5 		.ascii	"b\007\020\325\245\233F\305D\0332\212d\227!\232^\365"
  39      A59B46C5 
  39      441B328A 
  39      6497219A 
  39      5EF5
  40 00bf 08384997 		.ascii	"\0108I\227\003\\\206\337\362U\331*!\212\250\231\226"
  40      035C86DF 
  40      F255D92A 
  40      218AA899 
  40      96
  41 00d0 0807CBC0 		.ascii	"\010\007\313\300VB0\005\304\"\314\177\030O~b4\330%4"
  41      56423005 
  41      C422CC7F 
  41      184F7E62 
  41      34D82534 
  42 00e4 1C858772 		.ascii	"\034\205\207r\014%do\301M\022\334y\032\01425\016\324"
  42      0C25646F 
  42      C14D12DC 
  42      791A0C32 
ARM GAS  /var/folders/c6/c789hm653lg9vtl73krp73tm0000gn/T//ccvMQiBd.s 			page 3


  42      350ED4
  43 00f7 A97AB403 		.ascii	"\251z\264\003siX\204h2\272\206\271\343F\262\240\300"
  43      73695884 
  43      6832BA86 
  43      B9E346B2 
  43      A0C0
  44 0109 D484BD84 		.ascii	"\324\204\275\204\330\267\210%\257R\367\365\255\015Y"
  44      D8B78825 
  44      AF52F7F5 
  44      AD0D59
  45 0118 48D85872 		.ascii	"H\330Xrav6\271\225uA\275?\"\273v\351\201\262\303*\223"
  45      617636B9 
  45      957541BD 
  45      3F22BB76 
  45      E981B2C3 
  46 012e 57306806 		.ascii	"W0h\006\250\203IY\036M\277\333z\332pCN\305\356\312;"
  46      A8834959 
  46      1E4DBFDB 
  46      7ADA7043 
  46      4EC5EECA 
  47 0143 990C12C4 		.ascii	"\231\014\022\304\310\300ET2\251\340MvU\230\271\342\212"
  47      C8C04554 
  47      32A9E04D 
  47      765598B9 
  47      E28A
  48 0155 2A7B46CA 		.ascii	"*{F\3127,\301\340\326\353\205\231a6_\002m\222z\264\275"
  48      372CC1E0 
  48      D6EB8599 
  48      61365F02 
  48      6D927AB4 
  49 016a 612537EF 		.ascii	"a%7\357c]\276>\362\306\363Cy}\346\372\260\345\230\256"
  49      635DBE3E 
  49      F2C6F343 
  49      797DE6FA 
  49      B0E598AE 
  50 017e 72B9EDB1 		.ascii	"r\271\355\261\241\332\307\206\374\362\315\317\037\264"
  50      A1DAC786 
  50      FCF2CDCF 
  50      1FB4
  51 018c D0A215C9 		.ascii	"\320\242\025\311y\021UGDui\244n\002\225)\010\313\244"
  51      79115547 
  51      447569A4 
  51      6E029529 
  51      08CBA4
  52 019f A544B21A 		.ascii	"\245D\262\032\375l\220\306\333\362\370i\011\253\212"
  52      FD6C90C6 
  52      DBF2F869 
  52      09AB8A
  53 01ae DC2DE83F 		.ascii	"\334-\350?g\365\325Z@D\221\315\211\251{\013\234\200"
  53      67F5D55A 
  53      404491CD 
  53      89A97B0B 
  53      9C80
  54 01c0 F1320E98 		.ascii	"\3612\016\230\005\234\326r\231eJ4}\355\373\336J\310"
  54      059CD672 
  54      99654A34 
  54      7DEDFBDE 
ARM GAS  /var/folders/c6/c789hm653lg9vtl73krp73tm0000gn/T//ccvMQiBd.s 			page 4


  54      4AC8
  55 01d2 AA32E4E6 		.ascii	"\2522\344\346\352\324\332\360\261\3220\207v\006M\205"
  55      EAD4DAF0 
  55      B1D23087 
  55      76064D85 
  56 01e2 B8B23EE8 		.ascii	"\270\262>\350\015\355\021\360Y\211\241\211+\361\365"
  56      0DED11F0 
  56      5989A189 
  56      2BF1F5
  57 01f1 B23467C6 		.ascii	"\2624g\306\356\324\256\350\362\2653\252\263[C\335Rn"
  57      EED4AEE8 
  57      F2B533AA 
  57      B35B43DD 
  57      526E
  58 0203 9B3C9F2B 		.ascii	"\233<\237+\265=\025\337&\372'\313\002\332W\214-f\316"
  58      B53D15DF 
  58      26FA27CB 
  58      02DA578C 
  58      2D66CE
  59 0216 97B912E6 		.ascii	"\227\271\022\346\010\370\200P\273\240\016\374\223:\353"
  59      08F88050 
  59      BBA00EFC 
  59      933AEB
  60 0225 BF14EAA4 		.ascii	"\277\024\352\244\364\324I\276\260\351\250\223\260\360"
  60      F4D449BE 
  60      B0E9A893 
  60      B0F0
  61 0233 4A944935 		.ascii	"J\224I5J+\365\332\012T\020p\206&\371\353r\245\027\360"
  61      4A2BF5DA 
  61      0A541070 
  61      8626F9EB 
  61      72A517F0 
  62 0247 09DAF43F 		.ascii	"\011\332\364?\026\227{#6\347Wk*=\001\373\377\373H\034"
  62      16977B23 
  62      36E7576B 
  62      2A3D01FB 
  62      FFFB481C 
  63 025b 28205620 		.ascii	"( V \222\376S\237\003i\315M\357\014\335\241\\\317;\034"
  63      92FE539F 
  63      0369CD4D 
  63      EF0CDDA1 
  63      5CCF3B1C 
  64 026f D92F10E2 		.ascii	"\331/\020\342\275\202\217\357\016\004\303!\336\345v"
  64      BD828FEF 
  64      0E04C321 
  64      DEE576
  65 027e 9E6CE45B 		.ascii	"\236l\344[Z\316\362\356fg\357\011>\024n\367\371:\035"
  65      5ACEF2EE 
  65      6667EF09 
  65      3E146EF7 
  65      F93A1D
  66 0291 221CD1E3 		.ascii	"\"\034\321\343\203\341,\374L\253\263\311\331\307\213"
  66      83E12CFC 
  66      4CABB3C9 
  66      D9C78B
  67 02a0 5E3110F4 		.ascii	"^1\020\364\264\367\236\362;\274`\350\025|=\236\006="
  67      B4F79EF2 
ARM GAS  /var/folders/c6/c789hm653lg9vtl73krp73tm0000gn/T//ccvMQiBd.s 			page 5


  67      3BBC60E8 
  67      157C3D9E 
  67      063D
  68 02b2 DED317E6 		.ascii	"\336\323\027\346\233\234\256f\027/u\211\276\236N\017"
  68      9B9CAE66 
  68      172F7589 
  68      BE9E4E0F 
  69 02c2 AFE245FF 		.ascii	"\257\342E\377\271\236.\221\216\034.1\236GyC\375\241"
  69      B99E2E91 
  69      8E1C2E31 
  69      9E477943 
  69      FDA1
  70 02d4 52BDE26C 		.ascii	"R\275\342l D\003\001\025Iz\253\323\325j\357\020B\236"
  70      20440301 
  70      15497AAB 
  70      D3D56AEF 
  70      10429E
  71 02e7 EEA0D460 		.ascii	"\356\240\324`\257?\016L\020L~\217?\020\354\207\277\323"
  71      AF3F0E4C 
  71      104C7E8F 
  71      3F10EC87 
  71      BFD3
  72 02f9 397272   		.ascii	"9rr"
  73              		.text
  74              		.section	.gnu.lto_st_lld_init.52df4e4109ad5d5f,"",%progbits
  75 0000 789C95D3 		.ascii	"x\234\225\323\275KBQ\024\000\360s\356\373\360i\321\307"
  75      BD4B4251 
  75      1400F073 
  75      EEFBF069 
  75      D1C7
  76 0012 6834B435 		.ascii	"h4\2645D>\254? \202\026A\247^\220S\230\201\011\202\221"
  76      443EAC3F 
  76      20821641 
  76      A75E9053 
  76      98810982 
  77 0027 D2D2E095 		.ascii	"\322\322\340\225\014\232\302Q\252\2455\242\240\3515"
  77      0C9AC251 
  77      AAA535A2 
  77      A0E935
  78 0036 44E6D462 		.ascii	"D\346\324b\322&\015\341&TX\243\264\330\275\357\313\324"
  78      D2260DE1 
  78      265458A3 
  78      B4D8BDEF 
  78      CBD4
  79 0048 90DE41CF 		.ascii	"\220\336A\317}\317{\317\317#\236G\200@\177\370\331{"
  79      7DCF7BCF 
  79      CF239E47 
  79      80407FF8 
  79      D97B
  80 005a 4A0408B2 		.ascii	"J\004\010\262\025\005@R|\002\310+\004\221_\000B\216"
  80      15054052 
  80      7C02C82B 
  80      04915F00 
  80      428E
  81 006c 602E8AC6 		.ascii	"`.\212\306\331kRnt:W7\307g\037xG&\011$\021\004\236$"
  81      D96B526E 
  81      743A5737 
ARM GAS  /var/folders/c6/c789hm653lg9vtl73krp73tm0000gn/T//ccvMQiBd.s 			page 6


  81      C7671F78 
  81      47260924 
  82 0084 9E649E58 		.ascii	"\236d\236XHP\240\2648\003\0207n5\2269\265\206\204\257"
  82      4850A0B4 
  82      38031037 
  82      6E359639 
  82      B58684AF 
  83 0098 42152A2F 		.ascii	"B\025*/\355\246?\206\347(A\002\311\034\\\320B~\"\211"
  83      EDA63F86 
  83      E7284102 
  83      C91C5CD0 
  83      427E2289 
  84 00ac 780A2798 		.ascii	"x\012'\230D\262\316\222@\277\216\250\010\306\245\361"
  84      44B2CE92 
  84      40BF8EA8 
  84      08C6A5F1 
  85 00bc D59B6837 		.ascii	"\325\233h7\\\205\203[\301\256\026\022\346y@c\247\022"
  85      5C85835B 
  85      C1AE1612 
  85      E6794063 
  85      A712
  86 00ce 3237DC99 		.ascii	"27\334\231\011~\317\333z|C\033\226\372\011\221\327I"
  86      097ECFDB 
  86      7A7C431B 
  86      96FA0991 
  86      D749
  87 00e0 B45CA463 		.ascii	"\264\\\244c\006!Y\004\376\325\226\314\200\177\2645\334"
  87      06215904 
  87      FED596CC 
  87      807FB435 
  87      DC
  88 00f1 648C51AC 		.ascii	"d\214Q\254\353\357\017\302o\200.9\202\314\313<\224\205"
  88      EBEF0FC2 
  88      6F802E39 
  88      82CCCB3C 
  88      9485
  89 0103 F9C33C96 		.ascii	"\371\303<\226`\376\317\374\023\254-\233=\350u\367\214"
  89      60FECFFC 
  89      13AC2D9B 
  89      3DE875F7 
  89      8C
  90 0114 D0653A2C 		.ascii	"\320e:,\306-\251\355^\022\273\022XJ\251e+\363p\311\225"
  90      C62DA9ED 
  90      5E12BB12 
  90      584AA965 
  90      2BF370C9 
  91 0129 28DBEC82 		.ascii	"(\333\354\202\312pPr@\2573\313=\274\336r\335\244<\250"
  91      CA705072 
  91      40AF33CB 
  91      3DBCDE72 
  91      DDA43CA8 
  92 013d D4DD2B9E 		.ascii	"\324\335+\236A\245\355^Q\034\305\036\"\275\364\351Z"
  92      41A5ED5E 
  92      511CC51E 
  92      22BDF4E9 
  92      5A
  93 014e F1F62A35 		.ascii	"\361\366*58l\3347}&\002\260\017\337\364\210\262y\364"
ARM GAS  /var/folders/c6/c789hm653lg9vtl73krp73tm0000gn/T//ccvMQiBd.s 			page 7


  93      386CDC37 
  93      7D2602B0 
  93      0FDFF488 
  93      B279F4
  94 0161 C5AD99E3 		.ascii	"\305\255\231\343'G\246\315Ea\317\363(\3003\344\033\257"
  94      2747A6CD 
  94      4561CFF3 
  94      28C033E4 
  94      1BAF
  95 0173 B3768919 		.ascii	"\263v\211\031\032;\316\236e>ej `\275\322\031u;\226R"
  95      1A3BCE9E 
  95      653E656A 
  95      2060BDD2 
  95      19753B96 
  96 0188 77D2BBD9 		.ascii	"w\322\273\331\214\272\252E\026\027\324pxE\325B\221\275"
  96      8CBAAA45 
  96      1617D470 
  96      7845D542 
  96      91BD
  97 019a A09AC96E 		.ascii	"\240\232\311n\244R[\2018\374\000\300\237\372\212"
  97      A4525B81 
  97      38FC00C0 
  97      9FFA8A
  98              		.text
  99              		.section	.gnu.lto_.symbol_nodes.52df4e4109ad5d5f,"",%progbits
 100 0000 789C45CF 		.ascii	"x\234E\317\313\015\302@\024CQ\217'\377\024A\251\216"
 100      CB0DC240 
 100      1443518F 
 100      27FF1441 
 100      A98E
 101 0012 344042F8 		.ascii	"4@B\370V\300\206R\"\205\0355 eK\011\0101\004\304\363"
 101      56C08652 
 101      22851D35 
 101      20654B09 
 101      083104C4 
 102 0027 E6EA2C4D 		.ascii	"\346\352,M\020O\374\306%\005\234n\200t\356\034W\224"
 102      104FFCC6 
 102      25059C6E 
 102      8074EE1C 
 102      5794
 103 0039 33BA0DC5 		.ascii	"3\272\015\305/\233\306\271\216\362\246\003\225\230\366"
 103      2F9BC6B9 
 103      8EF2A603 
 103      9598F6
 104 0048 546ADA51 		.ascii	"Tj\332Q\231iK\345\246\236*L-U\232\326Te:R\365_\036\025"
 104      99694BE5 
 104      A69E2A4C 
 104      2D559AD6 
 104      54653A52 
 105 0060 C2FD155B 		.ascii	"\302\375\025[\3422\267@\030\307\314#\307en\206an\212"
 105      E232B740 
 105      18C7CC23 
 105      C7656E86 
 105      616E8A
 106 0073 696E8270 		.ascii	"in\202p\375\324cj\037\013\037o\207>\326\325\030\242"
 106      FDD4636A 
 106      1F0B1F6F 
ARM GAS  /var/folders/c6/c789hm653lg9vtl73krp73tm0000gn/T//ccvMQiBd.s 			page 8


 106      873ED6D5 
 106      18A2
 107 0085 F1064917 		.ascii	"\361\006I\027H\321"
 107      48D1
 108              		.text
 109              		.section	.gnu.lto_.refs.52df4e4109ad5d5f,"",%progbits
 110 0000 789C6362 		.ascii	"x\234cb`b`d\200\002\000\000F\000\006"
 110      60626064 
 110      80020000 
 110      460006
 111              		.text
 112              		.section	.gnu.lto_.decls.52df4e4109ad5d5f,"",%progbits
 113 0000 789CAD99 		.ascii	"x\234\255\231{p\324\306\035\307wu~b\343\022\207\246"
 113      7B70D4C6 
 113      1DC77775 
 113      7E62E312 
 113      87A6
 114 0012 24D34CCC 		.ascii	"$\323L\314\264\351#-\234\037\244\241\377d0g\003\236"
 114      B4E9232D 
 114      9C1FA4A1 
 114      FF643067 
 114      039E
 115 0024 B1C1A333 		.ascii	"\261\301\2433\031&\355\214\"\316\002\337\344|\347\236"
 115      1926ED8C 
 115      22CE02DF 
 115      E47CE79E 
 116 0034 CF14663A 		.ascii	"\317\024f:\023\201\011\343\264\224\036\016%\306!`\207"
 116      138109E3 
 116      B4941E0E 
 116      25C62160 
 116      87
 117 0045 472025E5 		.ascii	"G %\345M\014\341q8\005\234!\204\267\011\317\230Pb\300"
 117      4D0CE171 
 117      38059C21 
 117      84B709CF 
 117      985062C0 
 118 0059 09750975 		.ascii	"\011u\011uI\200\270\277]Ig\255N2R\232\033~?\311\322"
 118      4980B8BF 
 118      5D4967AD 
 118      4E32529A 
 118      1B7E3FC9 
 119 006e EEE7F7DD 		.ascii	"\356\347\367\335\337\376n\321\3528\304\241?`\204\372"
 119      DFFE6ED1 
 119      EA38C4A1 
 119      3F6084FA 
 120 007e E1131889 		.ascii	"\341\023\030\211\320[\311\010\271\020B\317\202\301e"
 120      D05BC908 
 120      B91042CF 
 120      82C165
 121 008d D48A944F 		.ascii	"\324\212\224O&\330:\260\015`\033\3016\203m\005\333\016"
 121      26D83AB0 
 121      0D601BC1 
 121      36836D05 
 121      DB0E
 122 009f F62ED84E 		.ascii	"\366.\330N\260\367\300\366\200\355\003\333\217\022?"
 122      B0F7C0F6 
 122      80ED03DB 
ARM GAS  /var/folders/c6/c789hm653lg9vtl73krp73tm0000gn/T//ccvMQiBd.s 			page 9


 122      8F123F
 123 00ae A47F0658 		.ascii	"\244\177\006X*\330A\260\365`\207\300:\300\356\252\261"
 123      2AD841B0 
 123      F56087C0 
 123      3AC0EEAA 
 123      B1
 124 00bf B2D458F7 		.ascii	"\262\324X\367\220\"\200h8\0156\\\355\277O\215\301\301"
 124      90228068 
 124      380D365C 
 124      EDBF4F8D 
 124      C1C1
 125 00d1 8D64B034 		.ascii	"\215d\2604\260\014\260,\254\304':~\200\025M\217\301"
 125      B00CB02C 
 125      ACC4273A 
 125      7E80154D 
 125      8FC1
 126 00e3 F171AC68 		.ascii	"\361q\254h$Zs\340\374GX\321\276\321D\037\031\333PU\037"
 126      245A73E0 
 126      FC4758D1 
 126      BED1441F 
 126      19DB5055 
 127 00f8 D1F51368 		.ascii	"\321\365\023h;\023\254\012,\202\007t^\003K\002\253\303"
 127      3B13AC0A 
 127      2C820774 
 127      5E034B02 
 127      ABC3
 128 010a 8AE676B0 		.ascii	"\212\346v\260!`%\360w\015\330e8\277\002v\026\254\033"
 128      216025F0 
 128      770DD865 
 128      38BF0276 
 128      16AC1B
 129 011d EC24D851 		.ascii	"\354$\330Q\2603`G\210v5\226Y\216\322Q\203,\317\223["
 129      B0336047 
 129      88763596 
 129      598ED251 
 129      832CCF93 
 130 0132 16C8933A 		.ascii	"\026\310\223: \027\323\260\210\263\322Q\016=\311L\247"
 130      2017D3B0 
 130      88B3D251 
 130      0E3DC94C 
 130      A7
 131 0143 619F44AB 		.ascii	"a\237D\253e9\332u\340\323.N\226\323D\334\212\323\001"
 131      6539DA75 
 131      E0D32E4E 
 131      96D344DC 
 131      8AD301
 132 0156 3905A3A7 		.ascii	"9\005\243\247\320z\031\356@\377\321\370\377B\367/\330"
 132      D07A19EE 
 132      40FFD1F8 
 132      FF42F72F 
 132      D8
 133 0167 FD6B8A5E 		.ascii	"\375k\212^C\321\2731F\"^\215\237RA\"NM\327\203\351\337"
 133      43D1BB31 
 133      46225E8D 
 133      9F524122 
 133      4E4DD783 
 134 017d 5A0342A3 		.ascii	"Z\003B\243\267\325\023RX\337CN\233?\201V\310-]]+?\272"
ARM GAS  /var/folders/c6/c789hm653lg9vtl73krp73tm0000gn/T//ccvMQiBd.s 			page 10


 134      B7D51352 
 134      58DF434E 
 134      9B3F8156 
 134      C82D5D5D 
 135 0194 99BD4C8E 		.ascii	"\231\275L\216\315\227\373\373_B\217\240\277\302\360"
 135      CD97FBFB 
 135      5F428FA0 
 135      BFC2F0
 136 01a3 887E1947 		.ascii	"\210~\031GD\374\354\367M\207@\370\353\361#\352\331T"
 136      44FCECF7 
 136      4D8740F8 
 136      EBF123EA 
 136      D954
 137 01b5 97129343 		.ascii	"\227\022\223C\3775\014\002\246\027\255!<y\235\354\242"
 137      FF350C02 
 137      A617AD21 
 137      3C799DEC 
 137      A2
 138 01c6 34D27E1D 		.ascii	"4\322~\035~\202\225\3726\346\364\027\024]\261\255\213"
 138      7E8295FA 
 138      36E6F417 
 138      145DB1AD 
 138      8B
 139 01d7 0E63B951 		.ascii	"\016c\271Q\276\327\337\357R\303qH\346\354\004\330`\014"
 139      BED7DFEF 
 139      52C37148 
 139      E6EC04D8 
 139      600C
 140 01e9 F04E6280 		.ascii	"\360Nb\200\256h\327\316\306\356\227\361\342\372\226"
 140      AE68D7CE 
 140      C6EE97F1 
 140      E2FA96
 141 01f8 0EB997E4 		.ascii	"\016\271\227\344C\213\261#!\206\002\331d\012\331\322"
 141      438BB123 
 141      218602D9 
 141      640AD9D2 
 142 0208 79C9B54C 		.ascii	"y\311\265LnW\262\247!z,\020[L\021\321\346\3238\001\361"
 142      6E57B2A7 
 142      217A2C10 
 142      5B4C11D1 
 142      E6D33801 
 143 021d A6CB1CB1 		.ascii	"\246\313\034\261\315B\305\305D\025\373,\020;L\021\267"
 143      CD42C5C5 
 143      4415FB2C 
 143      103B4C11 
 143      B7
 144 022e 575C484A 		.ascii	"W\\HJ@|m\201h3W\261\324D\305\237\223\314\021\273\314"
 144      407C6D81 
 144      683357B1 
 144      D444C59F 
 144      93CC11BB 
 145 0243 7371EE54 		.ascii	"sq\356Tb.\326Z v[\2500\231\221\177X \366Z\250\370(Q"
 145      622ED65A 
 145      20765BA8 
 145      3099917F 
 145      5820F65A 
 146 025b C5590B44 		.ascii	"\305Y\013D\314\024\261\253\273\367\3218\302\376\267"
ARM GAS  /var/folders/c6/c789hm653lg9vtl73krp73tm0000gn/T//ccvMQiBd.s 			page 11


 146      CC14B1AB 
 146      BBF7D138 
 146      C2FEB7
 147 026a AA5DFD56 		.ascii	"\252]\375V\271\350\002\206\224\205\207\371\003\351\277"
 147      B9E80286 
 147      948587F9 
 147      03E9BF
 148 0279 72887CEB 		.ascii	"r\210|\353\226%\233\013;\300\012\313@\177\034X\232\224"
 148      96259B0B 
 148      3BC00ACB 
 148      407F1C58 
 148      9A94
 149 028b 4159A938 		.ascii	"AY\2518\2103\264^tA\253\037tA\023\361\233\370I[+N6Z"
 149      8833B45E 
 149      7441AB1F 
 149      744113F1 
 149      9BF8495B 
 150 02a3 4CF290A3 		.ascii	"L\362\220\243#\311)\032\352\005\024_\033\267\367|\034"
 150      23C9291A 
 150      EA05145F 
 150      1BB7F77C 
 150      1C
 151 02b4 AC875C89 		.ascii	"\254\207\\\211\270\003g\303\010/\032F\370@\016\021u"
 151      B80367C3 
 151      082F1A46 
 151      F8400E11 
 151      75
 152 02c5 18BA2A9D 		.ascii	"\030\272*\235(U\216\335?\227)')\327\221I\302\324\317"
 152      28558EDD 
 152      3F972927 
 152      29D79149 
 152      C2D4CF
 153 02d8 48D422CF 		.ascii	"H\324\"\317\257\217\365\237[\376\250\334\322\016\310"
 153      AF8FF59F 
 153      5BFEA8DC 
 153      D20EC8
 154 02e7 43747DBE 		.ascii	"Ct}\276N%\220\276f)PO\225\217\332\200\345E\317gFE\015"
 154      4E2590BE 
 154      6629504F 
 154      958FDA80 
 154      E545CF67 
 155 02fe F6856358 		.ascii	"\366\205cX\016\003k\324\303\376m\007\226f\255l\211\036"
 155      0E036BD4 
 155      C3FE6D07 
 155      9666AD6C 
 155      891E
 156 0310 D6E718C6 		.ascii	"\326\347\030\306*[\252\207\335\265\003\033f\255\254"
 156      2A5BAA87 
 156      DDB5031B 
 156      66ADAC
 157 031f 490FFBC6 		.ascii	"I\017\373\3061\214U\326\254\207\315K\261\001\033a\255"
 157      318C55D6 
 157      AC87CD4B 
 157      B1011B61 
 157      AD
 158 0330 6CB91ED6 		.ascii	"l\271\036\326\340\030\306*[\241\207-\262\003\313\261"
 158      E018C62A 
ARM GAS  /var/folders/c6/c789hm653lg9vtl73krp73tm0000gn/T//ccvMQiBd.s 			page 12


 158      5BA1872D 
 158      B203CBB1 
 159 0340 56B6490F 		.ascii	"V\266I\017{\3251\214U\266E\017{\315\016\354g\326\312"
 159      7BD5318C 
 159      55B6450F 
 159      7BCD0EEC 
 159      67D6CA
 160 0353 B6E961AF 		.ascii	"\266\351a\257;\206\261\312v\350a+\355\300r\255\224\315"
 160      3B86B1CA 
 160      76E8612B 
 160      EDC072AD 
 160      94CD
 161 0365 8DB5FD26 		.ascii	"\215\265\375&*>\204\242\352\222\242P\265e\005\263\245"
 161      2A3E84A2 
 161      EA92A250 
 161      B56505B3 
 161      A5
 162 0376 A56FD66A 		.ascii	"\245o\326j\335L\304\327\361C\364\214\256\237r|\325\315"
 162      DD4CC4D7 
 162      F143F48C 
 162      AE9F727C 
 162      D5CD
 163 0388 4C37D548 		.ascii	"L7\325Hz\334P\026\367\201\257\277z2\260\324\353[\301"
 163      7ADC5016 
 163      F781AFBF 
 163      7A32B0D4 
 163      EB5BC1
 164 039b B0571987 		.ascii	"\260W\031\207\315\2520\0337\233\304]\372$\276e'\211"
 164      CDAA301B 
 164      379BC45D 
 164      FA24BE65 
 164      2789
 165 03ad E3AC61BB 		.ascii	"\343\254a\273\365\260\015v`\223\254ke\257\036\266\311"
 165      F5B00D76 
 165      6093AC6B 
 165      65AF1EB6 
 165      C9
 166 03be 318C5576 		.ascii	"1\214UvL\017\333n\007Vn\255\354\204\036\326\346\030"
 166      4C0FDB6E 
 166      07566EAD 
 166      EC841ED6 
 166      E618
 167 03d0 A6573637 		.ascii	"\246W67vj\240\360Z\306\031*o\034\273\3322\315Z-\233"
 167      766AA0F0 
 167      5AC6192A 
 167      6F1CBBDA 
 167      32CD5A2D 
 168 03e5 89F88EE3 		.ascii	"\211\370\216\343\302\373\312\242\360\364\373\233\201"
 168      C2FBCAA2 
 168      F0F4FB9B 
 168      81
 169 03f2 5630ECBD 		.ascii	"V0\354\275\306a3\"\324\323i&94\373\350\377\243\026\361"
 169      C6613322 
 169      D4D36926 
 169      3934FBE8 
 169      FFA316F1 
 170 0406 87F449E2 		.ascii	"\207\364I\342\010\036\011\376(\365\307\251?I\375i\352"
ARM GAS  /var/folders/c6/c789hm653lg9vtl73krp73tm0000gn/T//ccvMQiBd.s 			page 13


 170      081E09FE 
 170      28F5C7A9 
 170      3F49FD69 
 170      EA
 171 0417 CF507F96 		.ascii	"\317P\177\226\372\363\324_\244\376\023\352/S\177\205"
 171      FAF3D45F 
 171      A4FE13EA 
 171      2F537F85 
 172 0427 FAABD477 		.ascii	"\372\253\324wS\3779\3657\251\357\245\376\026\365\267"
 172      53FF39F5 
 172      37A9EFA5 
 172      FE16F5B7 
 173 0437 A9EF031F 		.ascii	"\251\357\003\037\377\030\236\224:,\346\227h\277;\360"
 173      FF189E94 
 173      3A2CE697 
 173      68BF3BF0 
 174 0447 A4149FA1 		.ascii	"\244\024\237\241\246,u\027\330\265F\0361\"\236\2034"
 174      A62C7517 
 174      D8B5461E 
 174      31229E83 
 174      34
 175 0458 7D5E9547 		.ascii	"}^\225G\022\350\300\211\370>\255\245\367S\314\366\223"
 175      12E8C089 
 175      F83EADA5 
 175      F753CCF6 
 175      93
 176 0469 34C87DDD 		.ascii	"4\310}\335\004)\347\332Y?\216\343\207ixN\355uO-\004"
 176      0429E7DA 
 176      593F8EE3 
 176      8769784E 
 176      ED754F2D 
 177 047e DDD469AB 		.ascii	"\335\324i\253WS\226\322]\355:V\353\232\252v\2209\247"
 177      575396D2 
 177      5DED3A56 
 177      EB9AAA76 
 177      9039A7
 178 0491 35349733 		.ascii	"54\2273\257\241\024u\020\344\2518\326\333\265\271\257"
 178      AFA11475 
 178      10E4A938 
 178      D6DBB5B9 
 178      AF
 179 04a2 A301EF5F 		.ascii	"\243\001\357_\263@\216\316\355\352\177iel\230\366p}"
 179      B3408ECE 
 179      EDEA7F69 
 179      656C98F6 
 179      707D
 180 04b4 2DC5CEC6 		.ascii	"-\305\316\306n\036g\330\330\325s\011\317\336\020\345"
 180      6E1E67D8 
 180      D8D57309 
 180      CFDE10E5 
 181 04c4 F68A0329 		.ascii	"\366\212\003)\332\216v\244\026\341\256\255\010/\033"
 181      DA8E76A4 
 181      16E1AEAD 
 181      082F1B
 182 04d3 232C308D 		.ascii	"#,0\215\320v\342BjB\204\205\251v\"4\030#\274b\026!v"
 182      D076E242 
 182      6A428485 
ARM GAS  /var/folders/c6/c789hm653lg9vtl73krp73tm0000gn/T//ccvMQiBd.s 			page 14


 182      A9762234 
 182      1823BC62 
 183 04ea 07D619C8 		.ascii	"\007\326\031\310Q\277.G+m\361\377d\344/4\035\301\326"
 183      51BF2E47 
 183      2B6DF1FF 
 183      64E42F34 
 183      1DC1D6
 184 04fd BBB18578 		.ascii	"\273\261\205x\361\306\370LD\223\354oR\376\302\231lR"
 184      F1C6F84C 
 184      4493EC6F 
 184      52FEC299 
 184      6C52
 185 050f 0C9B924E 		.ascii	"\014\233\222NF,m\311\241\177\246\2525\376c\264J\206"
 185      462C6DC9 
 185      A17FA6AA 
 185      35FE63B4 
 185      4A86
 186 0521 BDFDF183 		.ascii	"\275\375\361\203\231Q\254\275\\\271E{,\002\371\346\233"
 186      9951ACBD 
 186      5CB9457B 
 186      2C02F9E6 
 186      9B
 187 0532 0C75F3A3 		.ascii	"\014u\363\243\216\371\313\271\345#\342c^d\034\363b\323"
 187      8EF9CBB9 
 187      E523E263 
 187      5E641CF3 
 187      62D3
 188 0544 316FEEBB 		.ascii	"1o\356\273\323dZ}wle\3665c\224&\323\231k\373\264C}o"
 188      D3645A7D 
 188      776C65F6 
 188      35639426 
 188      D3996BFB 
 189 055c 51DFC0C5 		.ascii	"Q\337\300\305w\217\013\323\354\204h6\206x\335\242\300"
 189      778F0BD3 
 189      EC846836 
 189      8678DDA2 
 189      C0
 190 056d CF241678 		.ascii	"\317$\026x\253\255\010o\030#\2540/\360\306\317\022\013"
 190      ABAD086F 
 190      1823AC30 
 190      2FF0C6CF 
 190      120B
 191 057f 7C9BAD08 		.ascii	"|\233\255\010-\306\010\255\246i\332v)\241\300?\260\305"
 191      2DC608AD 
 191      A669DA76 
 191      29A1C03F 
 191      B0C5
 192 0591 5F65E4AF 		.ascii	"_e\344\257f\371&\233\303X|\355m\210/\276\321\256\363"
 192      66F9269B 
 192      C3587CED 
 192      6D882FBE 
 192      D1AEF3
 193 05a4 6BF7AFC7 		.ascii	"k\367\257\307\233e\031\342\257\345\3106\363\276!\376"
 193      9B6519E2 
 193      AFE5C836 
 193      F3BE21FE 
 194 05b4 8349F445 		.ascii	"\203I\364E\030g\330g\256\354\206\002 o\366\310\235\007"
ARM GAS  /var/folders/c6/c789hm653lg9vtl73krp73tm0000gn/T//ccvMQiBd.s 			page 15


 194      1867D867 
 194      AEEC8602 
 194      206FF6C8 
 194      9D07
 195 05c6 EF34B776 		.ascii	"\3574\267vwp$\325.\355\251\342\225t\254b\277\335Vs\033"
 195      777024D5 
 195      2EEDA9E2 
 195      9574AC62 
 195      BFDD5673 
 196 05db 89DF98A9 		.ascii	"\211\337\230\251\341\026:\306\3450\270\035,n\211\035"
 196      E1163AC6 
 196      E530B81D 
 196      2C6E891D 
 197 05eb DC20DBCD 		.ascii	"\334 \333\3156\026\267\3141\216U\267\213\305\275a\007"
 197      3616B7CC 
 197      318E55B7 
 197      8BC5BD61 
 197      07
 198 05fc 37C89673 		.ascii	"7\310\226s7\213[\353\030\307\252\333\313\3426\332\301"
 198      378B5BEB 
 198      18C7AADB 
 198      CBE236DA 
 198      C1
 199 060d 596D3BE5 		.ascii	"Ym;\345y\261c\032NY1\333\034\343Xu'Xu\355vp9\326\271"
 199      79B1631A 
 199      4E5931DB 
 199      1CE35875 
 199      275875ED 
 200 0626 3BC5E20E 		.ascii	";\305\342\016;\306\351\324\301\327\250\263;\215\322"
 200      3BC6E9D4 
 200      C1D7A8B3 
 200      3B8DD2
 201 0635 C8032D87 		.ascii	"\310\003-\207N\031if\317\234\203\354>?f\305]\262#\316"
 201      4E196966 
 201      CF9C83EC 
 201      3E3F66C5 
 201      5DB223CE 
 202 0649 72CB581F 		.ascii	"r\313X\037;\307\342>s\214cg\342\002\213\273i\0077\326"
 202      3BC7E23E 
 202      738C6367 
 202      E2028BBB 
 202      690737D6 
 203 065d BA4E2EB1 		.ascii	"\272N.\261u\322\347\030\307\252\353e\325\311Cl\340\306"
 203      75D2E718 
 203      C7AAEB65 
 203      D5C9436C 
 203      E0C6
 204 066f 59E7EE16 		.ascii	"Y\347\356\026\213kp\214c\353\3446S'Q#\315\254N\006\331"
 204      8B6B708C 
 204      63EBE436 
 204      53275123 
 204      CDAC4E06 
 205 0684 79F6B1E2 		.ascii	"y\366\261\342\232\355\210\033d\273x\207\305\255v\214"
 205      9AED881B 
 205      64BB7887 
 205      C5AD768C 
 206 0694 6367E26B 		.ascii	"cg\342k\026\367w;8\263\215\230Z'\367\014\353\211c\034"
ARM GAS  /var/folders/c6/c789hm653lg9vtl73krp73tm0000gn/T//ccvMQiBd.s 			page 16


 206      16F7773B 
 206      38B38D98 
 206      5A27F70C 
 206      EB89631C 
 207 06a8 ABEE1BC3 		.ascii	"\253\356\033\303zb\007\367\202u\356\2427\030\334\207"
 207      7A6207F7 
 207      8275EEA2 
 207      3718DC87 
 208 06b8 8E716C9D 		.ascii	"\216ql\2354\336\320\327I\247\235:\251\262\026\267\204"
 208      34DED0D7 
 208      49A79D3A 
 208      A9B216B7 
 208      84
 209 06c9 15D76547 		.ascii	"\025\327eG\\\2155n)\213\273\352\030\307\216\265\211"
 209      5C8D356E 
 209      298BBBEA 
 209      18C78EB5 
 209      89
 210 06da 19EB753B 		.ascii	"\031\353u;c\235m-\256\231\025\367\245\035q2\266\346"
 210      639D6D2D 
 210      AE9915F7 
 210      A51D7132 
 210      B6E6
 211 06ec 2D67795F 		.ascii	"-gy_9\347\345 \313\217\376\201L\304os\344}\302\3378"
 211      39E7E520 
 211      CB8FFE81 
 211      4CC46F73 
 211      E47DC2DF 
 212 0701 B2C77F87 		.ascii	"\262\307\177\207\372\215\324o\246~+\365\333\251\177"
 212      FA8DD46F 
 212      A67E2BF5 
 212      DBA97F
 213 0710 97FA9DD4 		.ascii	"\227\372\235\324\277G\375\036\352\367Q\277\237\372\367"
 213      BF47FD1E 
 213      EAF751BF 
 213      9FFAF7
 214 071f A93F40FD 		.ascii	"\251?@\375!\352?\240\3760\365G\250?J\375q\352OR\177"
 214      21EA3FA0 
 214      FE30F547 
 214      A83F4AFD 
 214      71EA4F52 
 215 0734 9AFA33D4 		.ascii	"\232\3723\324\237\245\376<\365\027\251\377\204\372\313"
 215      9FA5FE3C 
 215      F517A9FF 
 215      84FACB
 216 0743 D45FA1FE 		.ascii	"\324_\241\376*g\375.b\255E\226\310\270\273\271\370\273"
 216      2A67FD2E 
 216      62AD4596 
 216      C8B8BBB9 
 216      F8BB
 217 0755 08B31F48 		.ascii	"\010\263\037H\230\227\203\312#p\354\364R\234#\342k\364"
 217      989783CA 
 217      2370ECF4 
 217      529C23E2 
 217      6BF4
 218 0767 E9777EC6 		.ascii	"\351w~\306\203\177dIx\315\331c|\370\335\331I\177d\351"
 218      837F6449 
ARM GAS  /var/folders/c6/c789hm653lg9vtl73krp73tm0000gn/T//ccvMQiBd.s 			page 17


 218      78CDD963 
 218      7CF8DDD9 
 218      497F64E9 
 219 077b B1F5E8BB 		.ascii	"\261\365\350\273\247s\011\363#\313\253TB\317\267~\362"
 219      A77309F3 
 219      23CBAB54 
 219      42CFB77E 
 219      F2
 220 078c DDDB197F 		.ascii	"\335\333\031\1779'\342\015\034\347\020\226\303\300\216"
 220      3927E20D 
 220      1CE71096 
 220      C3C08E
 221 079b 75EADEF4 		.ascii	"u\352\336\3645\333Q6\310S\357\011=\254\3251l\320z\357"
 221      35DB5136 
 221      C853EF09 
 221      3DACD531 
 221      6CD07AEF 
 222 07af D1D5FBE7 		.ascii	"\321\325\373\347\264\336\277\240u\364/\352{\251\277"
 222      B4DEBFA0 
 222      75F42FEA 
 222      7BA9BF
 223 07be 35484D5D 		.ascii	"5HM]\033\244\246n\017\324\224\241W\373 \277\037\376"
 223      1BA4A66E 
 223      0FD494A1 
 223      57FB20BF 
 223      1FFE
 224 07d0 67A0172A 		.ascii	"g\240\027*u\327\325\206\335\201\220O\014\270=R  \206"
 224      75D7D586 
 224      DD81904F 
 224      0CB83D52 
 224      202086
 225 07e3 DD337DBE 		.ascii	"\3353}\276Qb\270zT0\024\224FI\342t\277;?7oL\356\330"
 225      5162B87A 
 225      54301494 
 225      4649E274 
 225      BF3B3F37 
 226 07fb DCA7DDEC 		.ascii	"\334\247\335\354e\177\320\027\250\253\224\334\265\221"
 226      657FD017 
 226      A8AB94DC 
 226      B591
 227 0809 4A7F3032 		.ascii	"J\17702\272\012\245\325\301\261 _\210\244L\234<5\307"
 227      BA0AA5D5 
 227      C1B1205F 
 227      88A44C9C 
 227      3C35C7
 228 081c 837EFB1D 		.ascii	"\203~\373\035\300\253E_\225?(\271\205Ji\206X\027\210"
 228      C0AB455F 
 228      953F28B9 
 228      854A6986 
 228      581788
 229 082f 08913935 		.ascii	"\010\22195R-\004\033\"\010Z8\367\350\321\352\277P\255"
 229      522D041B 
 229      22085A38 
 229      F7E8D1EA 
 229      BF50AD
 230 0842 BB0A82D5 		.ascii	"\273\012\202\325\204\302\221Z\267\267\242\254 \337]"
 230      84C2915A 
ARM GAS  /var/folders/c6/c789hm653lg9vtl73krp73tm0000gn/T//ccvMQiBd.s 			page 18


 230      B7B7A2AC 
 230      20DF5D
 231 0851 5A5AE4AE 		.ascii	"ZZ\344\256()\233\225\007:\205@\240r\264\017\245='\371"
 231      28299B95 
 231      073A8540 
 231      A072B40F 
 231      A53D27F9 
 232 0865 22A1F0F8 		.ascii	"\"\241\360\370\334\014\345\222\340\017\372#?\327C\302"
 232      DC0CE592 
 232      E00FFA23 
 232      3FD743C2 
 233 0875 119551C8 		.ascii	"\021\225Q\310\227y\312f\273}U\276PX\022f=S\015\221\263"
 233      9779CA66 
 233      BB7D55BE 
 233      50581266 
 233      3D530D91 
 234 088a 05724FF0 		.ascii	"\005rO\360\207\177'H5\376@hf\2354\322\320YS\357\253"
 234      877F2748 
 234      35FE4068 
 234      669D34D2 
 234      D05953EF 
 235 089f AA94A6D7 		.ascii	"\252\224\246\327\315\204N\303\205\312\3513\005_\225"
 235      CD844EC3 
 235      85CAE933 
 235      055F95
 236 08ae E47B5108 		.ascii	"\344{Q\010H\342,I\360\327\206\255\273\325F\304\010\031"
 236      48E22C49 
 236      F0D786AD 
 236      BBD546C4 
 236      0819
 237 08c0 E50F057A 		.ascii	"\345\017\005z\006>T#TKbm\035\310\360\205\375\021\322"
 237      063E5423 
 237      544B626D 
 237      1DC8F085 
 237      FD11D2
 238 08d3 FD311DB3 		.ascii	"\3751\035\263.\010y~Q\230\021\016U\223[OX\223\347\020"
 238      2E08797E 
 238      5198110E 
 238      55935B4F 
 238      5893E710 
 239 08e7 6EB6AFCA 		.ascii	"n\266\257\312;\247\266\302_-\205'\211\301\312\200\024"
 239      3BA7B6C2 
 239      5F2D8527 
 239      89C1CA80 
 239      14
 240 08f8 2E19A157 		.ascii	".\031\241W\250g=\036\327 \302\260\215\"\364\003\223"
 240      A8673D1E 
 240      D720C2B0 
 240      8D22F403 
 240      93
 241 0909 8211294C 		.ascii	"\202\021)L.>\254v\201\260ah/\221d\375\302|\226|\241"
 241      2E3EAC76 
 241      81B06168 
 241      2F9164FD 
 241      C27C967C 
 242 091e EAEA5050 		.ascii	"\352\352PPKtp\226\337\007\362\206\221cqP\234\036\220"
 242      4B747096 
ARM GAS  /var/folders/c6/c789hm653lg9vtl73krp73tm0000gn/T//ccvMQiBd.s 			page 19


 242      DF07F286 
 242      91637150 
 242      9C1E90
 243 0931 94B9CAB7 		.ascii	"\224\271\312\267;\305\325\244 \374d\2322\342\177\010"
 243      3BC5D5A4 
 243      20FC649A 
 243      32E27F08 
 244 0941 119787CF 		.ascii	"\021\227\207\317\003\313O\362\226y\370\244\242\222b"
 244      03CB4FF2 
 244      9679F8A4 
 244      A29262
 245 0950 9EF3F2AE 		.ascii	"\236\363\362\256\342\211|\262\307S\306\347Q\237\237"
 245      E2897CB2 
 245      C753C6E7 
 245      519F9F
 246 095f E4F114F3 		.ascii	"\344\361\024\363.\317\344\012W\271\327\343*\344y\027"
 246      2ECFE40A 
 246      57B9D7E3 
 246      2AE47917 
 247 096f EF81BFA1 		.ascii	"\357\201\277\241\303\370\242\012\336UDz\226\025\362"
 247      C3F8A20A 
 247      DE55447A 
 247      9615F2
 248 097e DC14A557 		.ascii	"\334\024\245W\001\264\237\306'\371\252D6\333D]\250\026"
 248      01B49FC6 
 248      27F9AA44 
 248      36DB445D 
 248      A816
 249 0990 1CA49D1C 		.ascii	"\034\244\235\034I\266\311\021\362]\012i\235\000Y-\361"
 249      49B6C911 
 249      F25D0A69 
 249      9D00592D 
 249      F1
 250 09a1 F2C3E804 		.ascii	"\362\303\350\004\350.d\323\242b\022\237\036\277\364"
 250      E82E64D3 
 250      A262129F 
 250      1EBFF4
 251 09b0 4B7D0069 		.ascii	"K}\000iv\304\355)\363\226x\007f\225\024\247\257zB]\220"
 251      76C4ED29 
 251      F3967807 
 251      669514A7 
 251      AF7A425D 
 252 09c5 246FA820 		.ascii	"$o\250 \324J\021a|\241\267\270\234/\031*\006~/\316!"
 252      D44A1161 
 252      7CA1B7B8 
 252      9C2F192A 
 252      067E2FCE 
 253 09da 531180EF 		.ascii	"S\021\200\357Q\362,1P'=L\364La\247\177\270\252q*-$M"
 253      51F22C31 
 253      50273D4C 
 253      F44C61A7 
 253      7FB8AA71 
 254 09f2 1455C95C 		.ascii	"\024U\311\\\032NE\031\312-Cw\361\247\346Z\275\025\312"
 254      1A4E4519 
 254      CA2D4377 
 254      F1A7E65A 
 254      BD15CA
ARM GAS  /var/folders/c6/c789hm653lg9vtl73krp73tm0000gn/T//ccvMQiBd.s 			page 20


 255 0a05 ECCC1893 		.ascii	"\354\314\030\223\373\314\354\331d~x\217G\250\200os\221"
 255      FBCCECD9 
 255      647E788F 
 255      47A8806F 
 255      7391
 256 0a17 3483F3F0 		.ascii	"4\203\363\360\251\345\245\245\236\011\023\371$\342\\"
 256      A9E5A5A5 
 256      9E0913F9 
 256      24E25C
 257 0a26 9E123EAD 		.ascii	"\236\022>\255p\322\370<\336[AO\362\265\223\002r\222"
 257      70D2F83C 
 257      DE5B414F 
 257      F2B59302 
 257      7292
 258 0a38 CE177B8B 		.ascii	"\316\027{\213\371\347\212\213r\323\012\313\265F\345"
 258      F9E78A8B 
 258      72D30ACB 
 258      B546E5
 259 0a47 4AA3F8BD 		.ascii	"J\243\370\275\274T\002(\236\314\223c\276z,\200c\274"
 259      BC540228 
 259      9ECC9363 
 259      BE7A2C80 
 259      63BC
 260 0a59 457E2AE9 		.ascii	"E~*\351M\357\224\323\026\361;\005\351\244oi9\271Fz\307"
 260      4DEF94D3 
 260      16F13B05 
 260      E9A46F69 
 260      39B9467A 
 261 0a6e CF0A9433 		.ascii	"\317\012\2243\255\335\230tBP\357\226k\355\264\273OC"
 261      ADDD9874 
 261      4250EF96 
 261      6BEDB4BB 
 261      4F43
 262 0a80 E1900AF2 		.ascii	"\341\220\012\362\016\\\372U\262\327\353\231\310\017"
 262      0E5CFA55 
 262      B2D7EB99 
 262      C80F
 263 0a8e 81C196E4 		.ascii	"\201\301\226\344{\311P\263\212\306O,\363L\3252\221R"
 263      7BC950B3 
 263      8AC64F2C 
 263      F34CD532 
 263      9152
 264 0aa0 52E49952 		.ascii	"R\344\231RT\234B\270\023\236'\207\374\011\317\377\017"
 264      549C42B8 
 264      139E2787 
 264      FC09CFFF 
 264      0F
 265 0ab1 85651771 		.ascii	"\205e\027q"
 266              		.text
 267              		.section	.gnu.lto_.symtab.52df4e4109ad5d5f,"",%progbits
 268 0000 56656374 		.ascii	"VectorB0\000\000\000\000\000\000\000\000\000\000\000"
 268      6F724230 
 268      00000000 
 268      00000000 
 268      000000
 269 0013 00A80000 		.ascii	"\000\250\000\000\000st_lld_init\000\000\000\000\000"
 269      0073745F 
ARM GAS  /var/folders/c6/c789hm653lg9vtl73krp73tm0000gn/T//ccvMQiBd.s 			page 21


 269      6C6C645F 
 269      696E6974 
 269      00000000 
 270 0028 00000000 		.ascii	"\000\000\000\000\000\000\000\254\000\000\000_port_i"
 270      000000AC 
 270      0000005F 
 270      706F7274 
 270      5F69
 271 003a 72715F65 		.ascii	"rq_epilogue\000\000\002\000\000\000\000\000\000\000"
 271      70696C6F 
 271      67756500 
 271      00020000 
 271      00000000 
 272 004f 0000AF00 		.ascii	"\000\000\257\000\000\000_dbg_check_leave_isr\000\000"
 272      00005F64 
 272      62675F63 
 272      6865636B 
 272      5F6C6561 
 273 006b 02000000 		.ascii	"\002\000\000\000\000\000\000\000\000\000\261\000\000"
 273      00000000 
 273      0000B100 
 273      00
 274 0078 005F7374 		.ascii	"\000_stats_stop_measure_crit_isr\000\000\002\000\000"
 274      6174735F 
 274      73746F70 
 274      5F6D6561 
 274      73757265 
 275 009a 00000000 		.ascii	"\000\000\000\000\000\000\000\263\000\000\000_dbg_ch"
 275      000000B3 
 275      0000005F 
 275      6462675F 
 275      6368
 276 00ac 65636B5F 		.ascii	"eck_unlock_from_isr\000\000\002\000\000\000\000\000"
 276      756E6C6F 
 276      636B5F66 
 276      726F6D5F 
 276      69737200 
 277 00c7 00000000 		.ascii	"\000\000\000\000\265\000\000\000chSysTimerHandlerI\000"
 277      B5000000 
 277      63685379 
 277      7354696D 
 277      65724861 
 278 00e2 00020000 		.ascii	"\000\002\000\000\000\000\000\000\000\000\000\267\000"
 278      00000000 
 278      000000B7 
 278      00
 279 00ef 00005F64 		.ascii	"\000\000_dbg_check_lock_from_isr\000\000\002\000\000"
 279      62675F63 
 279      6865636B 
 279      5F6C6F63 
 279      6B5F6672 
 280 010e 00000000 		.ascii	"\000\000\000\000\000\000\000\271\000\000\000_stats_"
 280      000000B9 
 280      0000005F 
 280      73746174 
 280      735F
 281 0120 73746172 		.ascii	"start_measure_crit_isr\000\000\002\000\000\000\000\000"
ARM GAS  /var/folders/c6/c789hm653lg9vtl73krp73tm0000gn/T//ccvMQiBd.s 			page 22


 281      745F6D65 
 281      61737572 
 281      655F6372 
 281      69745F69 
 282 013e 00000000 		.ascii	"\000\000\000\000\273\000\000\000_dbg_check_enter_is"
 282      BB000000 
 282      5F646267 
 282      5F636865 
 282      636B5F65 
 283 0159 72000002 		.ascii	"r\000\000\002\000\000\000\000\000\000\000\000\000\275"
 283      00000000 
 283      00000000 
 283      00BD
 284 0167 0000005F 		.ascii	"\000\000\000_stats_increase_irq\000\000\002\000\000"
 284      73746174 
 284      735F696E 
 284      63726561 
 284      73655F69 
 285 0182 00000000 		.ascii	"\000\000\000\000\000\000\000\277\000\000\000nvicEna"
 285      000000BF 
 285      0000006E 
 285      76696345 
 285      6E61
 286 0194 626C6556 		.ascii	"bleVector\000\000\002\000\000\000\000\000\000\000\000"
 286      6563746F 
 286      72000002 
 286      00000000 
 286      00000000 
 287 01a8 00C10000 		.ascii	"\000\301\000\000\000"
 287      00
 288              		.text
 289              		.section	.gnu.lto_.opts,"",%progbits
 290 0000 272D6D63 		.ascii	"'-mcpu=cortex-m4' '-mno-thumb-interwork' '-mthumb' "
 290      70753D63 
 290      6F727465 
 290      782D6D34 
 290      2720272D 
 291 0033 272D6767 		.ascii	"'-ggdb' '-O2' '-fomit-frame-pointer' '-falign-funct"
 291      64622720 
 291      272D4F32 
 291      2720272D 
 291      666F6D69 
 292 0066 696F6E73 		.ascii	"ions=16' '-ffunction-sections' '-fdata-sections' '-"
 292      3D313627 
 292      20272D66 
 292      66756E63 
 292      74696F6E 
 293 0099 666E6F2D 		.ascii	"fno-common' '-flto'\000"
 293      636F6D6D 
 293      6F6E2720 
 293      272D666C 
 293      746F2700 
 294              		.text
 295              		.cfi_sections	.debug_frame
 296              		.section	.text.VectorB0,"ax",%progbits
 297              		.align	2
 298              		.p2align 4,,15
ARM GAS  /var/folders/c6/c789hm653lg9vtl73krp73tm0000gn/T//ccvMQiBd.s 			page 23


 299              		.global	VectorB0
 300              		.thumb
 301              		.thumb_func
 302              		.type	VectorB0, %function
 303              	VectorB0:
 304              	.LFB260:
 305              		.file 1 "../../../os/hal/ports/STM32/LLD/TIMv1/st_lld.c"
 306              		.loc 1 173 0
 307              		.cfi_startproc
 308              		@ args = 0, pretend = 0, frame = 0
 309              		@ frame_needed = 0, uses_anonymous_args = 0
 310 0000 10B5     		push	{r4, lr}
 311              		.cfi_def_cfa_offset 8
 312              		.cfi_offset 4, -8
 313              		.cfi_offset 14, -4
 314              		.loc 1 175 0
 315 0002 FFF7FEFF 		bl	_stats_increase_irq
 316              	.LVL0:
 317 0006 FFF7FEFF 		bl	_dbg_check_enter_isr
 318              	.LVL1:
 319              		.loc 1 180 0
 320 000a 4FF08043 		mov	r3, #1073741824
 321 000e 1A69     		ldr	r2, [r3, #16]
 322 0010 9207     		lsls	r2, r2, #30
 323 0012 10D5     		bpl	.L2
 324              		.loc 1 181 0
 325 0014 0024     		movs	r4, #0
 326 0016 1C61     		str	r4, [r3, #16]
 327              	.LVL2:
 328              	.LBB54:
 329              	.LBB55:
 330              	.LBB56:
 331              	.LBB57:
 332              	.LBB58:
 333              	.LBB59:
 334              	.LBB60:
 335              		.file 2 "../../../os/ext/CMSIS/include/core_cmFunc.h"
 336              		.loc 2 546 0
 337 0018 2023     		movs	r3, #32
 338              	@ 546 "../../../os/ext/CMSIS/include/core_cmFunc.h" 1
 339 001a 83F31188 		MSR basepri, r3
 340              	@ 0 "" 2
 341              		.thumb
 342              	.LBE60:
 343              	.LBE59:
 344              	.LBE58:
 345              	.LBE57:
 346              		.file 3 "../../../os/rt/include/chsys.h"
 347              		.loc 3 389 0
 348 001e FFF7FEFF 		bl	_stats_start_measure_crit_isr
 349              	.LVL3:
 350              		.loc 3 390 0
 351 0022 FFF7FEFF 		bl	_dbg_check_lock_from_isr
 352              	.LVL4:
 353              	.LBE56:
 354              	.LBE55:
 355              	.LBE54:
ARM GAS  /var/folders/c6/c789hm653lg9vtl73krp73tm0000gn/T//ccvMQiBd.s 			page 24


 356              	.LBB61:
 357              	.LBB62:
 358              		.file 4 "../../../os/hal/osal/rt/osal.h"
 359              		.loc 4 585 0
 360 0026 FFF7FEFF 		bl	chSysTimerHandlerI
 361              	.LVL5:
 362              	.LBE62:
 363              	.LBE61:
 364              	.LBB63:
 365              	.LBB64:
 366              	.LBB65:
 367              		.loc 3 408 0
 368 002a FFF7FEFF 		bl	_dbg_check_unlock_from_isr
 369              	.LVL6:
 370              		.loc 3 409 0
 371 002e FFF7FEFF 		bl	_stats_stop_measure_crit_isr
 372              	.LVL7:
 373              	.LBB66:
 374              	.LBB67:
 375              	.LBB68:
 376              	.LBB69:
 377              		.loc 2 546 0
 378              	@ 546 "../../../os/ext/CMSIS/include/core_cmFunc.h" 1
 379 0032 84F31188 		MSR basepri, r4
 380              	@ 0 "" 2
 381              	.LVL8:
 382              		.thumb
 383              	.L2:
 384              	.LBE69:
 385              	.LBE68:
 386              	.LBE67:
 387              	.LBE66:
 388              	.LBE65:
 389              	.LBE64:
 390              	.LBE63:
 391              		.loc 1 188 0
 392 0036 FFF7FEFF 		bl	_dbg_check_leave_isr
 393              	.LVL9:
 394              		.loc 1 189 0
 395 003a BDE81040 		pop	{r4, lr}
 396              		.loc 1 188 0
 397 003e FFF7FEBF 		b	_port_irq_epilogue
 398              	.LVL10:
 399              		.cfi_endproc
 400              	.LFE260:
 401              		.size	VectorB0, .-VectorB0
 402 0042 00BFAFF3 		.section	.text.st_lld_init,"ax",%progbits
 402      0080AFF3 
 402      0080AFF3 
 402      0080
 403              		.align	2
 404              		.p2align 4,,15
 405              		.global	st_lld_init
 406              		.thumb
 407              		.thumb_func
 408              		.type	st_lld_init, %function
 409              	st_lld_init:
ARM GAS  /var/folders/c6/c789hm653lg9vtl73krp73tm0000gn/T//ccvMQiBd.s 			page 25


 410              	.LFB261:
 411              		.loc 1 201 0
 412              		.cfi_startproc
 413              		@ args = 0, pretend = 0, frame = 0
 414              		@ frame_needed = 0, uses_anonymous_args = 0
 415              		@ link register save eliminated.
 416              		.loc 1 207 0
 417 0000 0F4B     		ldr	r3, .L8
 418              		.loc 1 210 0
 419 0002 1049     		ldr	r1, .L8+4
 420              		.loc 1 207 0
 421 0004 1A6C     		ldr	r2, [r3, #64]
 422              		.loc 1 201 0
 423 0006 70B4     		push	{r4, r5, r6}
 424              		.cfi_def_cfa_offset 12
 425              		.cfi_offset 4, -12
 426              		.cfi_offset 5, -8
 427              		.cfi_offset 6, -4
 428              		.loc 1 207 0
 429 0008 42F00102 		orr	r2, r2, #1
 430 000c 1A64     		str	r2, [r3, #64]
 431              		.loc 1 210 0
 432 000e 8868     		ldr	r0, [r1, #8]
 433              		.loc 1 213 0
 434 0010 4FF08043 		mov	r3, #1073741824
 435              		.loc 1 215 0
 436 0014 0022     		movs	r2, #0
 437              		.loc 1 219 0
 438 0016 0124     		movs	r4, #1
 439              		.loc 1 210 0
 440 0018 40F00100 		orr	r0, r0, #1
 441              		.loc 1 213 0
 442 001c 42F2CF06 		movw	r6, #8399
 443              		.loc 1 214 0
 444 0020 4FF0FF35 		mov	r5, #-1
 445              		.loc 1 210 0
 446 0024 8860     		str	r0, [r1, #8]
 447              		.loc 1 213 0
 448 0026 9E62     		str	r6, [r3, #40]
 449              		.loc 1 223 0
 450 0028 1C20     		movs	r0, #28
 451              		.loc 1 214 0
 452 002a DD62     		str	r5, [r3, #44]
 453              		.loc 1 223 0
 454 002c 0821     		movs	r1, #8
 455              		.loc 1 215 0
 456 002e 9A61     		str	r2, [r3, #24]
 457              		.loc 1 216 0
 458 0030 5A63     		str	r2, [r3, #52]
 459              		.loc 1 217 0
 460 0032 DA60     		str	r2, [r3, #12]
 461              		.loc 1 218 0
 462 0034 5A60     		str	r2, [r3, #4]
 463              		.loc 1 219 0
 464 0036 5C61     		str	r4, [r3, #20]
 465              		.loc 1 220 0
 466 0038 1C60     		str	r4, [r3]
ARM GAS  /var/folders/c6/c789hm653lg9vtl73krp73tm0000gn/T//ccvMQiBd.s 			page 26


 467              		.loc 1 238 0
 468 003a 70BC     		pop	{r4, r5, r6}
 469              		.loc 1 223 0
 470 003c FFF7FEBF 		b	nvicEnableVector
 471              	.LVL11:
 472              	.L9:
 473              		.align	2
 474              	.L8:
 475 0040 00380240 		.word	1073887232
 476 0044 002004E0 		.word	-536600576
 477              		.cfi_endproc
 478              	.LFE261:
 479              		.size	st_lld_init, .-st_lld_init
 480 0048 AFF30080 		.text
 480      AFF30080 
 481              	.Letext0:
 482              		.file 5 "/usr/local/Cellar/gcc-arm-none-eabi/20140805/arm-none-eabi/include/machine/_default_types
 483              		.file 6 "/usr/local/Cellar/gcc-arm-none-eabi/20140805/arm-none-eabi/include/stdint.h"
 484              		.file 7 "../../../os/rt/ports/ARMCMx/compilers/GCC/chtypes.h"
 485              		.file 8 "../../../os/rt/include/chsystypes.h"
 486              		.file 9 "../../../os/rt/include/chschd.h"
 487              		.file 10 "../../../os/ext/CMSIS/ST/stm32f407xx.h"
 488              		.file 11 "../../../os/rt/ports/ARMCMx/chcore.h"
 489              		.file 12 "../../../os/rt/ports/ARMCMx/chcore_v7m.h"
 490              		.file 13 "../../../os/hal/ports/STM32/LLD/TIMv1/stm32_tim.h"
 491              		.file 14 "../../../os/rt/include/chdebug.h"
 492              		.file 15 "../../../os/rt/include/chtm.h"
 493              		.file 16 "../../../os/rt/include/chstats.h"
 494              		.file 17 "../../../os/rt/include/chsem.h"
 495              		.file 18 "../../../os/rt/include/chmtx.h"
 496              		.file 19 "../../../os/ext/CMSIS/include/core_cm4.h"
 497              		.file 20 "../../../os/hal/ports/common/ARMCMx/nvic.h"