ARM GAS  /var/folders/c6/c789hm653lg9vtl73krp73tm0000gn/T//ccGBNNCQ.s 			page 1


   1              		.syntax unified
   2              		.cpu cortex-m4
   3              		.fpu softvfp
   4              		.eabi_attribute 20, 1
   5              		.eabi_attribute 21, 1
   6              		.eabi_attribute 23, 3
   7              		.eabi_attribute 24, 1
   8              		.eabi_attribute 25, 1
   9              		.eabi_attribute 26, 1
  10              		.eabi_attribute 30, 2
  11              		.eabi_attribute 34, 1
  12              		.eabi_attribute 18, 4
  13              		.thumb
  14              		.file	"testmsg.c"
  15              		.text
  16              	.Ltext0:
  17              		.section	.gnu.lto_.jmpfuncs.8a4171ef9de68e69,"",%progbits
  18 0000 789C6362 		.ascii	"x\234cb`b\300\006f\0031+\020\003e\231\230\"\0303\031"
  18      6062C006 
  18      6603312B 
  18      10036599 
  18      98221833 
  19 0015 191881AC 		.ascii	"\031\030\201\254j\206_\0153\032\0042\031\031\345\030"
  19      6A865F0D 
  19      331A0432 
  19      1919E518 
  20 0025 18E736CC 		.ascii	"\030\3476\314p\310d\204hgd`\300\305\000\232\0021\340"
  20      70C86484 
  20      68676460 
  20      C0C5009A 
  20      0231E0
  21 0038 05980F36 		.ascii	"\005\230\0176\243\003d\006s2#\3242fF&f U\006U\311\342"
  21      A3036406 
  21      733223D4 
  21      32664626 
  21      66205506 
  22 004f 0C64A008 		.ascii	"\014d\240\0108\241\0138\0029,\216N\316\014\000o\235"
  22      38A10B38 
  22      02392C8E 
  22      4ECE0C00 
  22      6F9D
  23 0061 1276     		.ascii	"\022v"
  24              		.text
  25              		.section	.gnu.lto_.inline.8a4171ef9de68e69,"",%progbits
  26 0000 789C6362 		.ascii	"x\234cb`b\300\006&Ci\240\254V\017##\003\223@C-\003\333"
  26      6062C006 
  26      264369A0 
  26      AC560F23 
  26      23039340 
  27 0018 0279B06A 		.ascii	"\002y\260jf\036\260\004\0237\003\003\343\004?0o\202"
  27      661EB004 
  27      13370303 
  27      E3043F30 
  27      6F82
  28 002a DF043F10 		.ascii	"\337\004?\020\237\004Av\001\006\006\326\011~\014`\304"
  28      9F044176 
  28      010606D6 
ARM GAS  /var/folders/c6/c789hm653lg9vtl73krp73tm0000gn/T//ccGBNNCQ.s 			page 2


  28      097E0C60 
  28      C4
  29 003b CCC0A3C6 		.ascii	"\314\300\243\306\010v\013\212%@9t\232\001\000a\243\022"
  29      08760B8A 
  29      25403974 
  29      9A010061 
  29      A312
  30 004d 0D       		.ascii	"\015"
  31              		.text
  32              		.section	.gnu.lto_.pureconst.8a4171ef9de68e69,"",%progbits
  33 0000 789C6362 		.ascii	"x\234cb`b`e\200\000&\006If\011\000\001\005\000@"
  33      60626065 
  33      80002606 
  33      49660900 
  33      01050040 
  34              		.text
  35              		.section	.gnu.lto_msg1_execute.8a4171ef9de68e69,"",%progbits
  36 0000 789CAD94 		.ascii	"x\234\255\224\317O\023A\024\307\337\333\266\320Zm)\026"
  36      CF4F1341 
  36      14C7DFDB 
  36      B6D05A6D 
  36      2916
  37 0012 4A29BFD4 		.ascii	"J)\277\324\033\30661z\360\346\217\177\001\023=\326\205"
  37      1BC63631 
  37      7AF0E68F 
  37      7F01133D 
  37      D685
  38 0024 B49B5835 		.ascii	"\264\233X5\264\236<0\264`8`R\361\000\210DP\017\0125"
  38      B49E3C30 
  38      B4603860 
  38      52F10088 
  38      44500F0A 
  39 0039 841013A2 		.ascii	"\204\020\023\242&6\222\030\010(z5\036\032PC\342\305"
  39      26369218 
  39      08287A35 
  39      1E1A5043 
  39      E2C5
  40 004b 18131335 		.ascii	"\030\023\0235\326\367f\177\324\002\002\0076\355\354"
  40      D6F7667F 
  40      D4020207 
  40      36EDEC
  41 005a DB99F7BE 		.ascii	"\333\231\367\276\363\235\317\316\254\002\012\254\277"
  41      F39DCFCE 
  41      AC020AAC 
  41      BF
  42 0067 82F4FF56 		.ascii	"\202\364\377V\001\220\240;\332\000\225\354\033\200n"
  42      0190A03B 
  42      DA0095EC 
  42      1B806E
  43 0076 A782C801 		.ascii	"\247\202\310\001 t)\330u\0369\025\017\302\270\020\003"
  43      207429D8 
  43      751E3915 
  43      0FC2B810 
  43      03
  44 0087 854F2B6B 		.ascii	"\205O+k8,\362=c\342w\261\210\250!\3116!\250\010\347"
  44      382CF23D 
  44      63E277B1 
ARM GAS  /var/folders/c6/c789hm653lg9vtl73krp73tm0000gn/T//ccGBNNCQ.s 			page 3


  44      88A821C9 
  44      3621A808 
  45 009c E8015BE4 		.ascii	"\350\001[\344M\261\227\3173\245\344\013\305bnzle\026"
  45      4DB197CF 
  45      33A5E40B 
  45      C5626E7A 
  45      6C6516
  46 00af 7D0D0A68 		.ascii	"}\015\012hh\263QcwP\003N\210\3428\311\273\350\301\341"
  46      68B35163 
  46      7750034E 
  46      88E238C9 
  46      BBE8C1E1 
  47 00c3 A6A6C263 		.ascii	"\246\246\302c\364x\271\307\307=~\243\247\206{\002\334"
  47      F478B9C7 
  47      C73D7EA3 
  47      A7867B02 
  47      DC
  48 00d4 53CFA521 		.ascii	"S\317\245!j*I\337\001=Bd[\364\034i4\233\037~\325\037"
  48      6A2A49DF 
  48      013D4264 
  48      5BF41C69 
  48      349B1F7E 
  49 00ea 1463E9AC 		.ascii	"\024c\351\254\370C>5t*p`;\233\300\343t\265Q\313\000"
  49      F8433E35 
  49      742A7060 
  49      3B9BC0E3 
  49      74B551CB 
  50 00ff CEA2C277 		.ascii	"\316\242\302w\333kH\177\230\375<o\217\342}t@\014\225"
  50      DB6B487F 
  50      98FD3C6F 
  50      8FE27D74 
  50      400C95
  51 0112 23901355 		.ascii	"#\220\023U\032\272F\340vw\226\243=\327\340\247\030\342"
  51      1ABA46E0 
  51      767796A3 
  51      3DD7E0A7 
  51      18E2
  52 0124 C89D9012 		.ascii	"\310\235\220\022,\357\0063\332\373\317\024$\366\376"
  52      2CEF0633 
  52      DAFBCF14 
  52      24F6FE
  53 0133 F9ADEF47 		.ascii	"\371\255\357G\015\317\246y\361c0b-\304\014\362\213K"
  53      0DCFA679 
  53      F1633062 
  53      2DC40CF2 
  53      8B4B
  54 0145 D33ED2D3 		.ascii	"\323>\322\323'V\021u\217\362E\306\260\3760L\010!\012"
  54      27561175 
  54      8FF245C6 
  54      B0FE304C 
  54      08210A
  55 0158 23E383AD 		.ascii	"#\343\203\255\004C\177\022'4\334\307\276\004\273\361"
  55      04437F12 
  55      2734DCC7 
  55      BE04BBF1 
  56 0168 B0AF3E8E 		.ascii	"\260\257>\216\274\011Y\315n\274\322\307\005~\214\342"
  56      BC0959CD 
ARM GAS  /var/folders/c6/c789hm653lg9vtl73krp73tm0000gn/T//ccGBNNCQ.s 			page 4


  56      6EBCD2C7 
  56      057E8CE2 
  57 0178 0409538C 		.ascii	"\004\011S\214V\254;\234}\021\214\342\244\\m\310\020"
  57      56AC3B9C 
  57      7D118CE2 
  57      A45C6DC8 
  57      10
  58 0189 4E126B4B 		.ascii	"N\022kK\270\212\246g-0\264\024\256\317\231\365\231\276"
  58      B88AA667 
  58      2D30B414 
  58      AECF99F5 
  58      99BE
  59 019b B9C5A59B 		.ascii	"\271\305\245\233.\223\227\215D8\331\316\351\313Pg\366"
  59      2E93978D 
  59      4438D9CE 
  59      E9CB5067 
  59      F6
  60 01ac 3B2C773E 		.ascii	";,w>\225\266\237\276*\2053\253\327\024\256\343q\247"
  60      95B69FBE 
  60      2A8533AB 
  60      D714AEE3 
  60      71A7
  61 01be 86FB5534 		.ascii	"\206\373U4\330\363\2525\364K\217\013o+\365N~\033t\035"
  61      D8F3AA35 
  61      F44B8F0B 
  61      6F2BF54E 
  61      7E1B741D 
  62 01d2 273796BF 		.ascii	"'7\226\277\032K\2726!y\261j\355&/$\306\252\313\220)"
  62      1A4BBA36 
  62      2179B16A 
  62      ED262F24 
  62      C6AACB90 
  63 01e7 8CCCA1E9 		.ascii	"\214\314\241\351\313i\025\007T}I\264\317\352\000\026"
  63      CB691507 
  63      547D49B4 
  63      CFEA0016 
  64 01f7 40D153F4 		.ascii	"@\321S\364\215F\211\322\310\323\336\251\376FV\342\375"
  64      8D4689D2 
  64      C8D3DEA9 
  64      FE4656E2 
  64      FD
  65 0208 C05B8D06 		.ascii	"\300[\215\006$\233c\372\024\013\220.\334Y5\324\023L"
  65      249B63FA 
  65      140B902E 
  65      DC5935D4 
  65      134C
  66 021a C3293BA9 		.ascii	"\303);\2515\016\325\314\365\217\357p #\346EO\236vk3"
  66      350ED5CC 
  66      F58FEF70 
  66      2023E645 
  66      4F9E766B 
  67 022f D546F11E 		.ascii	"\325F\361\036\371\336z\277&\030\032\011}}9\323`\032"
  67      F9DE7ABF 
  67      26181A09 
  67      7D7D39D3 
  67      601A
  68 0241 7B40C640 		.ascii	"{@\306@b\356-\214\256\032\204\000\254\025\005U\2540"
ARM GAS  /var/folders/c6/c789hm653lg9vtl73krp73tm0000gn/T//ccGBNNCQ.s 			page 5


  68      62EE2D8C 
  68      AE1A8400 
  68      AC150555 
  68      AC30
  69 0253 164E3E5D 		.ascii	"\026N>]\032\326\3135|\311\374\352o5\327\357\246\001"
  69      1AD6CB35 
  69      7CC9FCEA 
  69      6F35D7EF 
  69      A601
  70 0265 56B06FA8 		.ascii	"V\260o\250\016\251\362\274q\265[\303\006\235\334\335"
  70      0EA9F2BC 
  70      71B55BC3 
  70      069DDCDD 
  71 0275 1239CF4E 		.ascii	"\0229\317N\311y\312\311y-r\236\365\344\036\226\221\363"
  71      C979CAC9 
  71      792D729E 
  71      F5E41E96 
  71      91F3
  72 0287 EC32B9F4 		.ascii	"\3542\271\364\223M\311=\332\232\234\207\034\227\310"
  72      934DC93D 
  72      DA9A9C87 
  72      1C97C8
  73 0296 4DDEB0C8 		.ascii	"M\336\260\310\371b|\272\266!\347\263\310M\226\310\371"
  73      F9627CBA 
  73      B621E7B3 
  73      C84D96C8 
  73      F9
  74 02a7 774ACE5F 		.ascii	"wJ\316_N\256\306\"\347_O.WF\316\277\333{nsr\217\267"
  74      4EAEC622 
  74      E75F4F2E 
  74      5746CEBF 
  74      DB7B6E73 
  75 02be 26E727C7 		.ascii	"&\347'\307%r\317J\344\0024\260-\271\200A\256\2670\245"
  75      2572CF4A 
  75      E40234B0 
  75      2DB98041 
  75      AEB730A5 
  76 02d2 6EC86B54 		.ascii	"n\310kT\371\\\031\007\274\032\345@\235\206MM\240\215"
  76      F95C1907 
  76      BC1AE540 
  76      9D864D4D 
  76      A08D
  77 02e4 8AA1931A 		.ascii	"\212\241\223\0326\033\337Q\002\333\002\360\016\320\224"
  77      361BDF51 
  77      02DB02F0 
  77      0ED094
  78 02f3 D0AF36FA 		.ascii	"\320\2576\372\010\322\327\236?\026\241p8\242\377R\035"
  78      08D2D79E 
  78      3F16A170 
  78      38A2FF52 
  78      1D
  79 0304 C954A433 		.ascii	"\311T\2443%\357\211d,\254\202\222\272b\243\350\220\225"
  79      25EF8964 
  79      2CAC8292 
  79      BA62A3E8 
  79      9095
  80 0316 7239C909 		.ascii	"r9\311\011\332%\365\342\325\366\216\210\032O\305;;\242"
ARM GAS  /var/folders/c6/c789hm653lg9vtl73krp73tm0000gn/T//ccGBNNCQ.s 			page 6


  80      DA25F5E2 
  80      D5F68E88 
  80      1A4FC53B 
  80      3BA2
  81 0328 EDC9701C 		.ascii	"\355\311p\034\232\377\233\303Rq\260\237:}\006\376\002"
  81      9AFF9BC3 
  81      5271B09F 
  81      3A7D06FE 
  81      02
  82 0339 C13BB8FD 		.ascii	"\301;\270\375"
  83              		.text
  84              		.section	.gnu.lto_thread.8a4171ef9de68e69,"",%progbits
  85 0000 789C6362 		.ascii	"x\234cb`b@\007\222@\374\024\210e\201\230\221\231\201"
  85      60624007 
  85      9240FC14 
  85      88658198 
  85      919981
  86 0013 9169C239 		.ascii	"\221i\3029\006\206F\016&FF\020\203\201\221\241\236\211"
  86      0686460E 
  86      26464610 
  86      838191A1 
  86      9E89
  87 0025 B13E9211 		.ascii	"\261>\222\021\254v=\323\201\007\377\377\257\373\266"
  87      AC763DD3 
  87      8107FFFF 
  87      AFFBB6
  88 0034 F05107A3 		.ascii	"\360Q\007\243 \033\023c.X\230\225\241\245\241a\202\002"
  88      201B1363 
  88      2E589895 
  88      A1A5A161 
  88      8202
  89 0046 03433298 		.ascii	"\003C2\230\033\002$AZC\031\231@4\363y\206\326\007\177"
  89      1B022441 
  89      5A431999 
  89      4034F379 
  89      86D6077F 
  90 005a 2D121917 		.ascii	"-\022\031\0272\262\002e\253\031~5t4\010d2\002UC\014"
  90      32B20265 
  90      AB197E35 
  90      74340864 
  90      32025543 
  91 006f 4D67648A 		.ascii	"Mgd\212`\314ddtd\310\004\352`\000*_PGX\265\023Bu=a\325"
  91      60CC6464 
  91      7464C804 
  91      EA60002A 
  91      5F504758 
  92 008a CE10D517 		.ascii	"\316\020\325\027\031\032\037t(\303\224C@\010P)\320\231"
  92      191A1F74 
  92      28C39443 
  92      40085029 
  92      D099
  93 009c A08091D6 		.ascii	"\240\200\221\326\323\323\207\240\222\324\342\022\375"
  93      D3D387A0 
  93      92D4E212 
  93      FD
  94 00a9 A212309D 		.ascii	"\242\0220\235[\234\256\227\314\000\000?\201>\341"
  94      5B9CAE97 
ARM GAS  /var/folders/c6/c789hm653lg9vtl73krp73tm0000gn/T//ccGBNNCQ.s 			page 7


  94      CC00003F 
  94      813EE1
  95              		.text
  96              		.section	.gnu.lto_.symbol_nodes.8a4171ef9de68e69,"",%progbits
  97 0000 789C4DCC 		.ascii	"x\234M\314M\012\3020\024\004\340\231\244\265V\275\203"
  97      4D0AC230 
  97      1404E099 
  97      A4B556BD 
  97      83
  98 0011 67F324AF 		.ascii	"g\363$\257\220\205HA\305\265\273\036%{\317\240\024\377"
  98      90854841 
  98      C5B5BB1E 
  98      257BCFA0 
  98      14FF
  99 0023 EBDF05C4 		.ascii	"\353\337\005\304\327F\214\331|\314\314#\006\006\031"
  99      D7468CD9 
  99      7CCCCC23 
  99      060619
 100 0032 119E3950 		.ascii	"\021\2369P\210\345\006\020Y\317&\351Y\007A\372\"\025"
 100      88E50610 
 100      59CF26E9 
 100      590741FA 
 100      2215
 101 0044 B3A7E06F 		.ascii	"\263\247\340o\274\322\264\343\2116U\216L\024>(&\334"
 101      BCD2B4E3 
 101      8936558E 
 101      4C143E28 
 101      26DC
 102 0056 140579A7 		.ascii	"\024\005y\247\330\230n\224$\246\206\222\306t\241\364"
 102      D8986E94 
 102      24A68692 
 102      C674A1F4 
 103 0066 627A52B2 		.ascii	"bzR\262_\262\030\302\355\336\352\000\2763\207\2336c"
 103      5FB218C2 
 103      EDDEEA00 
 103      BE33879B 
 103      3663
 104 0078 8B3E7CE7 		.ascii	"\213>|\347\000ug\216\252\014}]\206\336\315C\357\027"
 104      0075678E 
 104      AA0C7D5D 
 104      86DECD43 
 104      EF17
 105 008a A177ABD6 		.ascii	"\241w\253\326\014U\253\035\301m\365?\265\372\352U|\000"
 105      0C55AB1D 
 105      C16DF53F 
 105      B5FAEA55 
 105      7C00
 106 009c 48134D77 		.ascii	"H\023Mw"
 107              		.text
 108              		.section	.gnu.lto_.refs.8a4171ef9de68e69,"",%progbits
 109 0000 789C25C1 		.ascii	"x\234%\301A\001\0000\010\304\260^\007\030\300\277\327"
 109      41010030 
 109      08C4B05E 
 109      0718C0BF 
 109      D7
 110 0011 3D484496 		.ascii	"=HD\226S\020\364\245\322NF\370\004\007\000@"
 110      5310F4A5 
ARM GAS  /var/folders/c6/c789hm653lg9vtl73krp73tm0000gn/T//ccGBNNCQ.s 			page 8


 110      D24E46F8 
 110      04070040 
 111              		.text
 112              		.section	.gnu.lto_.decls.8a4171ef9de68e69,"",%progbits
 113 0000 789CBD5C 		.ascii	"x\234\275\\{t\024U\232\257\252\356NwCH\300Y]8\353b\263"
 113      7B741455 
 113      9AAFAAEE 
 113      4E774348 
 113      C0595D38 
 114 0017 ABBBABBB 		.ascii	"\253\273\253\273\022\230aFf\316\216\340\360\2073\347"
 114      12986146 
 114      66CE8EE0 
 114      F08733E7 
 115 0027 AC7BF68C 		.ascii	"\254{\366\214;\273\236}\265E\247Hz\355N\267\325\025"
 115      3BBB9E7D 
 115      B545A748 
 115      7AED4EB7 
 115      D515
 116 0039 C0DD3FAC 		.ascii	"\300\335?\254$<\"\202\023\036\222\360\012A\336\010\010"
 116      243C2282 
 116      131E92F0 
 116      0A41DE08 
 116      08
 117 004a 84B7064A 		.ascii	"\204\267\006J\007\302\033% \020\300\030\004D<0\006\004"
 117      07C21B25 
 117      2010C018 
 117      04443C30 
 117      0604
 118 005c 210A66BF 		.ascii	"!\012f\277\373\335\252\356\252\352\252\356\252\250["
 118      FBDDAAEE 
 118      AAEAAAEE 
 118      AAA85B
 119 006b 87BA7DBB 		.ascii	"\207\272}\273\372\336\337\375\336\337\275\267.\341\030"
 119      FADEDFFD 
 119      DEDFBDB7 
 119      2EE118
 120 007a 8EA96519 		.ascii	"\216\251e\031\246\007\256O\177\3030\333\002\014\343"
 120      A607AE4F 
 120      7FC330DB 
 120      020CE3
 121 0089 6118E649 		.ascii	"a\030\346I\270}\352\275\004\3567\340^\011\367\233\014"
 121      B87DEABD 
 121      04EE37E0 
 121      5E09F79B 
 121      0C
 122 009a BDA019B3 		.ascii	"\275\240\031\263\031\356\035p\267\300\335\012\367A\270"
 122      19EE1D70 
 122      B7C0DD0A 
 122      F741B8
 123 00a9 EB016B3E 		.ascii	"\353\001k>\334\253X\332w\035|n\202\373\3579\206\031"
 123      DCAB58DA 
 123      771D7C6E 
 123      82FBEF39 
 123      8619
 124 00bb 0DF7BF70 		.ascii	"\015\367\277p\214\341\"\375\207\300}\004\356\"\270\013"
 124      8CE122FD 
 124      87C07D04 
ARM GAS  /var/folders/c6/c789hm653lg9vtl73krp73tm0000gn/T//ccGBNNCQ.s 			page 9


 124      EE22B80B 
 125 00cb E11E05B7 		.ascii	"\341\036\005\267\037\356\002\270\227\302\335\256\216"
 125      1FEE02B8 
 125      97C2DDAE 
 125      8E
 126 00d8 FB16E0AC 		.ascii	"\373\026\340\254\207\373y\300\360\302\367\235Po\206"
 126      87FB79C0 
 126      F0C2F79D 
 126      506F86
 127 00e7 9B87EF47 		.ascii	"\233\207\357G\341\373X\216\216I\350\\\000\317\177\011"
 127      E1FB588E 
 127      8E49E85C 
 127      00CF7F09 
 128 00f7 DF237097 		.ascii	"\337#p\227\302\335\000\337\005\370<\004\277\215\203"
 128      C2DD00DF 
 128      05F83C04 
 128      BF8D83
 129 0106 CF7DF059 		.ascii	"\317}\360Y\306ex\333\305P\276w@\273\203p\237\206zP\245"
 129      C66578DB 
 129      C550BE77 
 129      40BB8370 
 129      9F867A50 
 130 011b AF1CDAC5 		.ascii	"\257\034\332\3058\312\327f\225\307\203*\317\204w\257"
 130      38CAD766 
 130      95C7832A 
 130      CF8477AF 
 131 012b 89CF8489 		.ascii	"\211\317\204\211\307\315*v\222\243|\254f\351sN\375\215"
 131      C7CD2A76 
 131      92A37CAC 
 131      66E9734E 
 131      FD8D
 132 013d C88A3CDA 		.ascii	"\310\212<\332j\354\306\364e\246\311r\265\3344E\376\365"
 132      6AECC6F4 
 132      65A6C972 
 132      B5DC3445 
 132      FEF5
 133 014f FEA2014C 		.ascii	"\376\242\001L\235\014W\323\350\206\242 SK\236w.\227"
 133      9D0C57D3 
 133      E886A220 
 133      534B9E77 
 133      2E97
 134 0161 070E6498 		.ascii	"\007\016d\230\347X\236\205G\001\254\024\006\021\351"
 134      E7589E85 
 134      4701AC14 
 134      0611E9
 135 0170 116619B4 		.ascii	"\021f\031\264\205\016\034\317.e\2030\022\3072\226\027"
 135      850E1CCF 
 135      2E658330 
 135      12C73296 
 135      17
 136 0181 FD9D5CA4 		.ascii	"\375\235\\\244;\255k\265\0366\215\036\322\320\275j\257"
 136      3BAD6BB5 
 136      1E368D1E 
 136      D2D0BD6A 
 136      AF
 137 0192 37D80158 		.ascii	"7\330\001XCZd\225Fla\327c\205n\234\302`\246\342Q)\261"
 137      435A6495 
ARM GAS  /var/folders/c6/c789hm653lg9vtl73krp73tm0000gn/T//ccGBNNCQ.s 			page 10


 137      466C61D7 
 137      63856E9C 
 137      C260A6E2 
 138 01a9 EBB784ED 		.ascii	"\353\267\204\355k)\220\007\230\327\325\221eV\342\331"
 138      6B299007 
 138      98D7D591 
 138      6556E2D9 
 139 01b9 27EFB745 		.ascii	"'\357\267EX\305>\2005\017J\034\036\214\352\013\305\357"
 139      58C53E80 
 139      350F4A1C 
 139      1E8CEA0B 
 139      C5EF
 140 01cb B481ED87 		.ascii	"\264\201\355\207^\011C?\306\254\246\242\374\304B\202"
 140      5E09433F 
 140      C6ACA6A2 
 140      FCC44282 
 141 01db 06EEAD71 		.ascii	"\006\356\255qP\025u\235-7\247\377R\226\003<\373&\252"
 141      5015759D 
 141      2D37A7FF 
 141      5296033C 
 141      FB26AA
 142 01ee 630C0BF0 		.ascii	"c\014\013\360k\330\307\\\3434\267\356\331\310V\003\313"
 142      6BD8C75C 
 142      E334B7EE 
 142      D9C85603 
 142      CB
 143 01ff 3CBB1E91 		.ascii	"<\273\036\221\346\262\275\205\272wp\333H$i#\002}c\002"
 143      E6B2BD85 
 143      BA7770DB 
 143      48246923 
 143      027D6302 
 144 0213 E2D982A0 		.ascii	"\342\331\202\240\321R\340\273\326\200\240\301W2\322"
 144      D152E0BB 
 144      D680A0C1 
 144      5732D2
 145 0222 1D123AD8 		.ascii	"\035\022:\330\227\325'\344\213\237\371\177\357\367\020"
 145      97D527E4 
 145      8B9FF97F 
 145      EFF710
 146 0231 D3282B5D 		.ascii	"\323(+]\235\013\332Z\006\316\223\225IrO\317\313\252"
 146      9D0BDA5A 
 146      06CE9395 
 146      49724FCF 
 146      CBAA
 147 0243 E2396609 		.ascii	"\3429f\011gd\354af\251,\317\2227\311r\020M\201cVa\213"
 147      6764EC61 
 147      66A92CCF 
 147      9237C972 
 147      104D8163 
 148 025a CDEC4396 		.ascii	"\315\354C\226\342\302Fp\375\025\263\234\214/\257\222"
 148      E2C24670 
 148      FD15B39C 
 148      8C2FAF92 
 149 026a 3D686E8C 		.ascii	"=hn\214\332\307@\363\026\326\340\374\224.\345\365\326"
 149      DAC740F3 
 149      16D6E0FC 
 149      942EE5F5 
ARM GAS  /var/folders/c6/c789hm653lg9vtl73krp73tm0000gn/T//ccGBNNCQ.s 			page 11


 149      D6
 150 027b D706C94D 		.ascii	"\327\006\311M\325JO\317(\306\271\335\356T\3556c\253"
 150      D54A4FCF 
 150      28C6B9DD 
 150      EE54ED36 
 150      63AB
 151 028d 1CB3C6C4 		.ascii	"\034\263\306\304\2145Y;\314d\275\235MVg]\347\307\307"
 151      8C35593B 
 151      CC64BD9D 
 151      4D56675D 
 151      E7C7C7
 152 02a0 3FAA6267 		.ascii	"?\252bg\3264\355\227\273zz\212\215\224\005\230\251\030"
 152      D634ED97 
 152      BB7A7A8A 
 152      8D940598 
 152      A918
 153 02b2 6426CB55 		.ascii	"d&\313U\354\213\371\243\314n6\000\324}`\037fH\003F\325"
 153      EC8BF9A3 
 153      CC6E3600 
 153      D47D601F 
 153      66480346 
 154 02c7 24AD6BB5 		.ascii	"$\255k\265\034Qf\227\331s}A\255n\210\0054^\331\241\354"
 154      1C516697 
 154      D9737D41 
 154      AD6E8805 
 154      345ED9A1 
 155 02dc C9441083 		.ascii	"\311D\020\2034Q\240'\263\004J\033\355\265\222\230\322"
 155      3451A027 
 155      B3044A1B 
 155      EDB59298 
 155      D2
 156 02ed D53A5D66 		.ascii	"\325:]f\353\252:{z\036r\256\307}f.\010\261&2\256\332"
 156      EBAA3A7B 
 156      7A1E72AE 
 156      C77D662E 
 156      08B12632 
 157 0303 9071C052 		.ascii	"\220q\300Rqw\352w\017\222\227\270\265\247CF:\014\022"
 157      7177EA77 
 157      0F9297B8 
 157      B5A74346 
 157      3A0C12
 158 0316 BC8F9949 		.ascii	"\274\217\231IPB\265\0272\352\220\0134\204\347\231t\324"
 158      5042B517 
 158      32EA900B 
 158      3484E799 
 158      74D4
 159 0328 E83EB3FB 		.ascii	"\350>\263\373\027\0305\216\262\367\001\316\273\036#"
 159      1718358E 
 159      B2F701CE 
 159      BB1E23
 160 0337 DDF97138 		.ascii	"\335\371q8\346 \3669\006\375iOjG\235\355\215{k\330*"
 160      E620F639 
 160      06FD694F 
 160      6A479DED 
 160      8D7B6BD8 
 161 034c 0C6DE437 		.ascii	"\014m\3447\306B\036\3525\204i\002\312\225\372\327\026"
 161      C6421EEA 
ARM GAS  /var/folders/c6/c789hm653lg9vtl73krp73tm0000gn/T//ccGBNNCQ.s 			page 12


 161      35846902 
 161      CA95FAD7 
 161      16
 162 035d 8157BD07 		.ascii	"\201W\275\007\355\217\260\304\215o\245q\255$\220\316"
 162      ED8FB0C4 
 162      8D6FA571 
 162      AD2490CE 
 163 036d 3B0C93A6 		.ascii	";\014\223\246\314\2107\377ha\035\257\201\335u\015\026"
 163      CC8837FF 
 163      68611DAF 
 163      81DD750D 
 163      16
 164 037e 32802D3E 		.ascii	"2\200->\272\020\211S\223\265\223\024\321\245\246\210"
 164      BA108953 
 164      93B59314 
 164      D1A5A688 
 165 038e 768CC735 		.ascii	"v\214\3075^\213\300\356\010\250y\312\336w\325\034q\016"
 165      5E8BC0EE 
 165      08A879CA 
 165      DE77D51C 
 165      710E
 166 03a0 A15EED35 		.ascii	"\241^\3555\324\275i\357\374\034i\372\030\201\346x\315"
 166      D4BD69EF 
 166      FC1C69FA 
 166      1881E678 
 166      CD
 167 03b1 39C26FCA 		.ascii	"9\302o\312\021~c\314\366\0073\025\022\252\213\231\037"
 167      117E63CC 
 167      F6073315 
 167      12AA8B99 
 167      1F
 168 03c2 B839C72C 		.ascii	"\2709\307,\366:P\\&\026\231\254@\356<\335x\330Cr\210"
 168      F63A505C 
 168      261699AC 
 168      40EE3CDD 
 168      78D84372 
 169 03d7 4735E5A6 		.ascii	"G5\345\246\002;\031q\314\012\034\353\242\331\222[.\354"
 169      023B1971 
 169      CC0A1CEB 
 169      A2D9925B 
 169      2EEC
 170 03e9 7FB44196 		.ascii	"\177\264A\226\373\323\237\362\033\362\226\203\365h+"
 170      FBD39FF2 
 170      1BF29683 
 170      F5682B
 171 03f8 961EA91B 		.ascii	"\226\036\251\033\275\211\323\206\177\030\207?\201\303"
 171      BD89D386 
 171      7F18873F 
 171      81C3
 172 0406 5F310F3F 		.ascii	"_1\017?\363r\347\223t\370+\216\206_\3346'{x\333H\242"
 172      F372E793 
 172      74F82B8E 
 172      865FDC36 
 172      277B78DB 
 173 041c 59EB85CF 		.ascii	"Y\353\205\317\036\\\214\203\\C\177\231\3463\233\306"
 173      1E5C8C83 
 173      5C437F99 
ARM GAS  /var/folders/c6/c789hm653lg9vtl73krp73tm0000gn/T//ccGBNNCQ.s 			page 13


 173      E6339BC6 
 174 042c 287DD4D5 		.ascii	"(}\324\325f]\351\006\0343\333\247Q\337+w\0056\225\337"
 174      665DE906 
 174      1C33DBA7 
 174      51DF2B77 
 174      053695DF 
 175 0440 AC862CFE 		.ascii	"\254\206,\376J\201F\303\\\327\210!\203 6\265a\000\240"
 175      4A8146C3 
 175      5CD78821 
 175      832036B5 
 175      6100A0
 176 0453 60F39C80 		.ascii	"`\363\234\200\331\332Q\265\262Y\017\266\3205\230\221"
 176      D9DA51B5 
 176      B2590FB6 
 176      D0359891 
 177 0463 B2AD7AB0 		.ascii	"\262\255z\260\305N\300\372\333S\266]\017\366\206k0#"
 177      C54EC0FA 
 177      DB53B65D 
 177      0FF6866B 
 177      3023
 178 0475 653BF560 		.ascii	"e;\365`\313\235\200\015\264\247\354\035=\330j\327`F"
 178      CB9D800D 
 178      B4A7EC1D 
 178      3DD86AD7 
 178      6046
 179 0487 CA76E9C1 		.ascii	"\312v\351\301\3269\001\013YP\226\276\354\262\352g\231"
 179      D639010B 
 179      595096BE 
 179      ECB2EA67 
 179      99
 180 0498 D905C76C 		.ascii	"\331\005\307l\360i\001\301\245M3\031\214\315>\267\001"
 180      F06901C1 
 180      A54D3319 
 180      8CCD3EB7 
 180      01
 181 04a9 CCC037E4 		.ascii	"\314\3007\344\321#K\331\3315\362\376aZ.\333\351\004"
 181      D1234BD9 
 181      D935F2FE 
 181      615A2EDB 
 181      E904
 182 04bb 3187C16C 		.ascii	"1\207\301l\325'\306\367\\\203\031\325r\202\200\031B"
 182      D527C6F7 
 182      5C8319D5 
 182      72828019 
 182      42
 183 04cc 4D7A3DAB 		.ascii	"Mz=\253\014l\310\004;\303T\223g\227\261\217\364z\261"
 183      0C6CC804 
 183      3BC35493 
 183      6797B18F 
 183      F47AB1
 184 04df 5ACBE954 		.ascii	"Z\313\351Tt\320\011\3759l\264\313\216~e\212\\\313Vm"
 184      74D009FD 
 184      396CB4CB 
 184      8E7E658A 
 184      5CCB566D 
 185 04f3 7C30DD6F 		.ascii	"|0\335o\264^Y\231\260\371\347k0l\316\340HF=\346\263"
 185      B45E5999 
ARM GAS  /var/folders/c6/c789hm653lg9vtl73krp73tm0000gn/T//ccGBNNCQ.s 			page 14


 185      B0F9E76B 
 185      306CCEE0 
 185      48463DE6 
 186 0508 4CCD8EB0 		.ascii	"L\315\216\260\232\247\274\257\345\371:\004;\327{\260"
 186      9AA7BCAF 
 186      E5F93A04 
 186      3BD77BB0 
 187 0518 A67B071F 		.ascii	"\246{\007\037\224\275<;\033\201.e\005\363\240)\317\007"
 187      94BD3C3B 
 187      1B812E65 
 187      05F3A029 
 187      CF07
 188 052a 8D993818 		.ascii	"\215\2318\030\314Tz\264\313\270\026\370A\373\330i~\272"
 188      CC547AB4 
 188      CBB816F8 
 188      41FBD869 
 188      7EBA
 189 053c 5EF35DAE 		.ascii	"^\363]\2565ot\254\323\035\035\236zY\251\362\3506`\354"
 189      356F74AC 
 189      D31D1D9E 
 189      7A59A9F2 
 189      E83660EC 
 190 0550 0C5653F7 		.ascii	"\014VS\367EuN\327\200r\375\306ZA\016\200\232\247\254"
 190      45754ED7 
 190      8072FDC6 
 190      5A410E80 
 190      9AA7AC
 191 0563 FB5B045A 		.ascii	"\373[\004Z\200@\223\012z\013toZ#]\3657\"\320\364\002"
 191      8040930A 
 191      7A0B746F 
 191      5A235DF5 
 191      3722D0F4 
 192 0578 B3A65993 		.ascii	"\263\246Y\223\246Y\243\006\322N\247\372\334\017\325"
 192      A659A306 
 192      D24EA7FA 
 192      DC0FD5
 193 0587 16B27981 		.ascii	"\026\262y\201I]\006vr\204l-\016v\\\234\315~Y-7\014s"
 193      495D0676 
 193      72846C2D 
 193      0E765C9C 
 193      CD7E592D 
 194 059e A1AF4E55 		.ascii	"\241\257NU_KQ:\215Y\322!\342w\307\306\012\327l\004\214"
 194      5F4B513A 
 194      8D59D221 
 194      E277C7C6 
 194      0AD76C04 
 195 05b3 6C345E76 		.ascii	"l4^v\317\306g*\033\253\220\215\365\337\003\033[]\263"
 195      CFC6672A 
 195      1BAB908D 
 195      F5DF031B 
 195      5B5DB3
 196 05c6 D15FC706 		.ascii	"\321_\307\006\254\356:n\316\241Y\351G\314\254\334\363"
 196      ACEE3A6E 
 196      CEA159E9 
 196      47CCACDC 
 196      F3
 197 05d7 6A42CF3A 		.ascii	"jB\317:\356G\206I\255r\353}6D\037\347\233\320\312\312"
ARM GAS  /var/folders/c6/c789hm653lg9vtl73krp73tm0000gn/T//ccGBNNCQ.s 			page 15


 197      EE478649 
 197      AD72EB7D 
 197      36441FE7 
 197      9BD0CACA 
 198 05eb ECB685EA 		.ascii	"\354\266\205\352\302\220\356\266\265 \355\244oof\232"
 198      C290EEB6 
 198      B520EDA4 
 198      6F6F669A 
 199 05fb B2B281CE 		.ascii	"\262\262\201\316$(\330\236\357\004V\255\354\236\245"
 199      2428D89E 
 199      EF0456AD 
 199      EC9EA5
 200 060a AD5A71EF 		.ascii	"\255Zq\357\351\310w\204;\327fNG\246i\374Q\233x\247\255"
 200      E9C87784 
 200      3BD7664E 
 200      47A669FC 
 200      519B78A7 
 201 061f E7E7B76A 		.ascii	"\347\347\267jId\033G\010:\221e,GX\323L\236<\3205\261"
 201      49641B47 
 201      083A9165 
 201      2C4758D3 
 201      4C9E3CD0 
 202 0635 D3E1567D 		.ascii	"\323\341V}\360\275\374\335\370\0047\370x\031\265\237"
 202      F0BDFCDD 
 202      F80437F8 
 202      7819B59F 
 203 0645 7CABA4E7 		.ascii	"|\253\244\3475\264B\034\370\032\016\334\302\231\026"
 203      35B4421C 
 203      F81A0EDC 
 203      C29916
 204 0654 49B76E77 		.ascii	"I\267nwNQ\371&\277\3457\252\263\227\202\362\254B\213"
 204      4E51F926 
 204      BFE537AA 
 204      B39782F2 
 204      AC428B
 205 0667 F1AC5273 		.ascii	"\361\254Rs\367\374\0233\331I\210\376.G\366I\346\373"
 205      F7FC1333 
 205      D94988FE 
 205      2E47F649 
 205      E6FB
 206 0679 2DF7499A 		.ascii	"-\367I\232F\333\001q\314\032\354\262\307Lx{\307\355"
 206      46DB0171 
 206      CC1AECB2 
 206      C74C787B 
 206      C7ED
 207 068b 6A759B64 		.ascii	"ju\233d\217\003\302\253\225\353\257\352\267Ix\366C\226"
 207      8F03C2AB 
 207      95EBAFEA 
 207      B74978F6 
 207      4396
 208 069d 53717B67 		.ascii	"Sq{gq7\016\245g\203<{\3125X\310\212T\315\2622\334\362"
 208      71370EA5 
 208      67833C7B 
 208      CA3558C8 
 208      8A54CDB2 
 209 06b4 6C2B4766 		.ascii	"l+Gf|\373\270!P\356\347\206d\232q\314\333~M\247V\242"
 209      7CFBB821 
ARM GAS  /var/folders/c6/c789hm653lg9vtl73krp73tm0000gn/T//ccGBNNCQ.s 			page 16


 209      50EEE786 
 209      649A71CC 
 209      DB7E4DA7 
 210 06ca CBEBD0A0 		.ascii	"\313\353\320\240\374;s\2511\271\330\301_6\203\306\324"
 210      FC3B73A9 
 210      31B9D8C1 
 210      5F3683C6 
 210      D4
 211 06db 431853FF 		.ascii	"C\030S\377\3407\273\311zs\346t\261\177\3151\007\314"
 211      E037BBC9 
 211      7A73E674 
 211      B17FCD31 
 211      07CC
 212 06ed 2C395D6E 		.ascii	",9]n\246/;7|G\357\206\357\373\277\243\033v\\v\350\206"
 212      A62F3B37 
 212      7C47EF86 
 212      EFFBBFA3 
 212      1B765C76 
 213 0703 32AB5F0C 		.ascii	"2\253_\014p\314I\034\271\315l\316=\337\356\237\252\232"
 213      70CC491C 
 213      B9CD6CCE 
 213      3DDFEE9F 
 213      AA9A
 214 0715 739B233F 		.ascii	"s\233#?\274\205~\250\371UO\032\2657\226P\255t_9\300"
 214      BC857EA8 
 214      F9554F1A 
 214      B5379650 
 214      AD745F39 
 215 072a 221C5DDC 		.ascii	"\"\034]\334L\015\230\340\\.\372\357\012n\005C\255Ki"
 215      4C0D98E0 
 215      5C2EFAEF 
 215      0A6E0543 
 215      AD4B69
 216 073d BF44D2DB 		.ascii	"\277D\322\333Y\344\351\367\001\263iQ\311\350L\253M\347"
 216      59E4E9F7 
 216      01B36951 
 216      C9E84CAB 
 216      4DE7
 217 074f 2727D04F 		.ascii	"''\320O>D?9\205e\273\336[\354\314\342\214\336,\352]"
 217      3E443F39 
 217      8565BBDE 
 217      5BECCCE2 
 217      8CDE2CEA 
 218 0764 F31D7268 		.ascii	"\363\035rh}\307\364\3034\006\276\233\365\235\356\370"
 218      7DC7F4C3 
 218      3406BE9B 
 218      F59DEEF8 
 219 0774 C28B7B73 		.ascii	"\302\213{s.vU\357\252S\241\363\350\266\313\263d{\316"
 219      2E7655EF 
 219      AA53A1F3 
 219      E8B6CBB3 
 219      647BCE
 220 0787 ECB64E36 		.ascii	"\354\266N6\0317\366\226\221\364\3051\333\003\016\226"
 220      1937F696 
 220      91F4C531 
 220      DB030E96 
 221 0797 23210B99 		.ascii	"#!\013\231k3\252\306\333\352\214*\357Nez\357\376p\225"
ARM GAS  /var/folders/c6/c789hm653lg9vtl73krp73tm0000gn/T//ccGBNNCQ.s 			page 17


 221      6B33AAC6 
 221      DBEA8C2A 
 221      EF4E657A 
 221      EFFE7095 
 222 07ab 9A952EA3 		.ascii	"\232\225.\243\245\275\023\260\316J9\266<\017a\227\317"
 222      A5BD13B0 
 222      CE4A39B6 
 222      3C0F6197 
 222      CF
 223 07bc B3B252E3 		.ascii	"\263\262R\343M-+}\356(+\035\267\314J\237\273\317JV"
 223      4D2D2B7D 
 223      EE282B1D 
 223      B7CC4A9F 
 223      BBCF4A56 
 224 07d0 979E409E 		.ascii	"\227\236@\236\275\212\016r\315\230B\316:\221\376\337"
 224      BD8A0E72 
 224      CD9842CE 
 224      3A91FEDF 
 225 07e0 D899A2AC 		.ascii	"\330\231\242\254t\037_\310R\372i \272d\306\263\012D"
 225      741F5FC8 
 225      52FA6920 
 225      BA64C6B3 
 225      0A44
 226 07f2 063C8336 		.ascii	"\006<\2036\225\272\223\2729f\227\023\342\206\331\201"
 226      95BA93BA 
 226      39669713 
 226      E286D981 
 227 0802 552B0B29 		.ascii	"U+\013)\0305\371\257\234\200\215\264\343\264Zy{\256"
 227      1835F9AF 
 227      9C808DB4 
 227      E3B45A79 
 227      7BAE
 228 0814 A6A96338 		.ascii	"\246\251c8A\254\012\272\3053\022w\374\2446;\247/:^u"
 228      41AC0ABA 
 228      C5331277 
 228      FCA4363B 
 228      A72F3A5E 
 229 0829 8237DA9E 		.ascii	"\2027\332\236\276\353s\015\023\352\271\256\341\214\212"
 229      BEEB730D 
 229      13EAB9AE 
 229      E18C8A
 230 0838 B8779228 		.ascii	"\270w\222(v\372@\2537YJ:t\223m\002mE\275\346\372\240"
 230      76FA40AB 
 230      37594A3A 
 230      74936D02 
 230      6D45BDE6 
 231 084e 1AB4FCBB 		.ascii	"\032\264\374\273h\011-\301\374\257\304\214@\304`{L\036"
 231      68092DC1 
 231      FCAFC48C 
 231      40C4607B 
 231      4C1E
 232 0860 A56C6C2D 		.ascii	"\245ll-$\0332=\216\274\251\271\325\365\333\246\315j"
 232      241B323D 
 232      8EBCA9B9 
 232      D5F5DBA6 
 232      CD6A
 233 0872 5CACF610 		.ascii	"\\\254\366\020%|\020\374^\342\342i\204\351\351\355\334"
ARM GAS  /var/folders/c6/c789hm653lg9vtl73krp73tm0000gn/T//ccGBNNCQ.s 			page 18


 233      257C10FC 
 233      5EE2E269 
 233      84E9E9ED 
 233      DC
 234 0883 1264796C 		.ascii	"\022dyl\320\016uO\237\022\366\221kD\243\265mmEW\240"
 234      D00E754F 
 234      9F12F691 
 234      6B44A3B5 
 234      6D6D4557 
 235 0898 60179C80 		.ascii	"`\027\234\200\345H\357\333\011\230\013\031\257R\247"
 235      E548EFDB 
 235      09980B19 
 235      AF52A7
 236 08a7 8CAFE2E8 		.ascii	"\214\257\342\350\237}?2\376\3025\023\006\211\200\214"
 236      9F7D3F32 
 236      FEC23513 
 236      0689808C 
 237 08b7 AF0CDAB1 		.ascii	"\257\014\332\261Y\2267>\357j\343r\273j/u\310\313\365"
 237      5996373E 
 237      EF6AE372 
 237      BB6A2F75 
 237      C8CBF5
 238 08ca 2C5EEACC 		.ascii	",^\352\314[\012\016\267\3568\346k3CV\241\323j{\332\352"
 238      5B0A0EB7 
 238      EE38E66B 
 238      334356A1 
 238      D36A7BDA 
 239 08df D27B12CF 		.ascii	"\322{\022\317\312\036\022\372\253<dV4\005\313Z,\247"
 239      CA1E12FA 
 239      AB3C6456 
 239      3405CB5A 
 239      2CA7
 240 08f1 61F97B8F 		.ascii	"a\371{\217!%L\356c\212\034F/U\253\277vLH\346\0157\317"
 240      21254CEE 
 240      638A1C46 
 240      2F55ABBF 
 240      764C48E6 
 241 0908 1EC7EDEB 		.ascii	"\036\307\355\353\023,\031\366$\226\247\261\274\200e"
 241      132C19F6 
 241      2496A7B1 
 241      BC8065
 242 0917 0D4EDB26 		.ascii	"\015N\333&c9\025\313W\261\254\307\362\015,Wb\271\026"
 242      633915CB 
 242      57B1ACC7 
 242      F20D2C57 
 242      62B916
 243 092a CB4FB1FC 		.ascii	"\313O\261\374\002\313\353X~\211\345-,oc\331\215\345"
 243      02CBEB58 
 243      7E89E52D 
 243      2C6F63D9 
 243      8DE5
 244 093c 374EA682 		.ascii	"7N\246\202\246\365|\372\234\302\233\324<MG\025f\364"
 244      A6F57CFA 
 244      9CC29BD4 
 244      3C4D4715 
 244      66F4
 245 094e B13EAA30 		.ascii	"\261>\2520\327cuT\241\373\324\256\301\363\344\367\350"
ARM GAS  /var/folders/c6/c789hm653lg9vtl73krp73tm0000gn/T//ccGBNNCQ.s 			page 19


 245      D7637554 
 245      A1FBD4AE 
 245      C1F3E4F7 
 245      E8
 246 095f 911CD359 		.ascii	"\221\034\323Y\0052\256\035M\015\236\354\303/\363mF\236"
 246      0532AE1D 
 246      4D0D9EEC 
 246      C32FF36D 
 246      469E
 247 0971 6739F2BC 		.ascii	"g9\362\274\346\003\217.\332$OzE\376\266\347e\326\305"
 247      E6038F2E 
 247      DA244F7A 
 247      45FEB6E7 
 247      65D6C5
 248 0984 D00B3CD9 		.ascii	"\320\013<\331\347\305\324\272s\337\337\270\365\374/"
 248      E7C5D4BA 
 248      73DFDFB8 
 248      F5FC2F
 249 0993 DEC28DFE 		.ascii	"\336\302\215\376Ft\230\245}\315\016\3433\371\213\317"
 249      467498A5 
 249      7DCD0EE3 
 249      33F98BCF 
 250 09a3 E82FBE60 		.ascii	"\350/\276`\246\222y\027\236\246\251\235\352\306\372"
 250      A6927917 
 250      9EA6A99D 
 250      EAC6FA
 251 09b2 340C39F8 		.ascii	"4\0149\370\224\203\266y\315\347\265\275\217\245\036"
 251      9483B679 
 251      CDE7B5BD 
 251      8FA51E
 252 09c1 9233D764 		.ascii	"\2223\327d\021\267\322\274\347\263\322h#&\361d[\311"
 252      11B7D2BC 
 252      E7B3D268 
 252      2326F164 
 252      5BC9
 253 09d3 A6BED6BA 		.ascii	"\246\276\326\272Zim%\365\273\006\331Y\311\2339\216\366"
 253      5A696D25 
 253      F5BB06D9 
 253      59C99B39 
 253      8EF6
 254 09e5 AC36AB8A 		.ascii	"\2546\253\212\3505\217\375\356\261\241l\255\221\262"
 254      E8358FFD 
 254      EEB1A16C 
 254      AD91B2
 255 09f4 BF6096C8 		.ascii	"\277`\226\310\033\310\031\251\253\325\354l\271i?\244"
 255      1BC819A9 
 255      ABD5EC6C 
 255      B9693FA4 
 256 0a04 6488570F 		.ascii	"d\210W\017\251\3470C\272}6%\327\353\362\3547\337\332"
 256      A9E73043 
 256      BA7D3625 
 256      D7EBF2EC 
 256      37DFDA
 257 0a17 954132BC 		.ascii	"\225A2\274+\347\331\015\236\001\214\365\3051G\263\210"
 257      2BE7D90D 
 257      9E018CF5 
 257      C53147B3 
ARM GAS  /var/folders/c6/c789hm653lg9vtl73krp73tm0000gn/T//ccGBNNCQ.s 			page 20


 257      88
 258 0a28 E7D98D19 		.ascii	"\347\331\215\031\302\011\321 \316\366\216\303\003\327"
 258      C209D120 
 258      CEF68EC3 
 258      03D7
 259 0a36 56CB9336 		.ascii	"V\313\2236\002~\017\3333\312r\012\362\237\032\231\247"
 259      027E0FDB 
 259      33CA720A 
 259      F29F1A99 
 259      A7
 260 0a47 C9E0E98D 		.ascii	"\311\340\351\215\253\233KX:\233i\366\220\331\3141\323"
 260      AB9B4B58 
 260      3A9B69F6 
 260      90D9CC31 
 260      D3
 261 0a58 800EA020 		.ascii	"\200\016\240 ic\247\255\236\354\023>\332Z\237\374\226"
 261      6963A7AD 
 261      9EEC133E 
 261      DA5A9FFC 
 261      96
 262 0a69 7FADBFA8 		.ascii	"\177\255\277\250\203N\262-V\321\235\351\330\374\240"
 262      834EB22D 
 262      56D19DE9 
 262      D8FCA0
 263 0a78 8EFA33A7 		.ascii	"\216\3723\247\316\253\324\357D\352/\333Po\013\30417"
 263      CEABD4EF 
 263      44EA2FDB 
 263      506F0BC4 
 263      3137
 264 0a8a B14B4B36 		.ascii	"\261KK6\355'\246\250\264\2678\242\375\370\031\343\002"
 264      ED27A6A8 
 264      B4B738A2 
 264      FDF819E3 
 264      02
 265 0a9b A1BA50C3 		.ascii	"\241\272P\303\315\221\345\350e9\3678q\006'2t\316<\315"
 265      CD91E5E8 
 265      6539F738 
 265      71062732 
 265      74CE3CCD 
 266 0aaf 0CE66A22 		.ascii	"\014\346j\"#+\247)\330E<\3035\3235X\310@\331\307\363"
 266      232BA729 
 266      D8453CC3 
 266      35D33558 
 266      C840D9C7 
 267 0ac4 8DE7B0EA 		.ascii	"\215\347\260\352\235\340\345x\335\334uF\367\272y\261"
 267      9DE0E578 
 267      DDDC7546 
 267      F7BA79B1 
 268 0ad4 6B302371 		.ascii	"k0#q_\351\301V:\001\263z\367ku\351\215\204gw\343LC\301"
 268      5FE9C156 
 268      3A01B37A 
 268      F76B75E9 
 268      8D846777 
 269 0aec 79C57B58 		.ascii	"y\305{X\356\301\262\025\313\375X\0364\31676\026j^bi"
 269      EEC1B215 
 269      CBFD581E 
 269      34CE3736 
ARM GAS  /var/folders/c6/c789hm653lg9vtl73krp73tm0000gn/T//ccGBNNCQ.s 			page 21


 269      166A5E62 
 270 0b01 8AF94C42 		.ascii	"\212\371LBV\266\330\273\207\325&\0238\367\345*v2\332"
 270      56B6D8BB 
 270      87D52613 
 270      38F7E52A 
 270      7632DA
 271 0b14 F051748F 		.ascii	"\360Qt\217m\205y\335\303\274\215w\004\273\034\313r\217"
 271      6D8579DD 
 271      C3BC8D77 
 271      04BB1CCB 
 271      728F
 272 0b26 8E7B93B5 		.ascii	"\216{\223\265\303{\016\334\243Z\351\256_\344\354\314"
 272      C37B0EDC 
 272      A35AE9AE 
 272      5FE4ECCC 
 273 0b36 537AFC3F 		.ascii	"Sz\374?\3211r\346\242\266\275~\022\031\271\230\237\021"
 273      D13172E6 
 273      A2B6BD7E 
 273      1219B998 
 273      9F11
 274 0b48 2310F839 		.ascii	"#\020\3709vi\317f\344\232\306H\273#Fv\324k\326\377!"
 274      7669CF66 
 274      E49AC648 
 274      BB234676 
 274      D46BD6FF 
 275 0b5d E6D2C9FD 		.ascii	"\346\322\311\3754\334^-\201\224\235\247\320`)\330\014"
 275      34DC5E2D 
 275      81949DA7 
 275      D06029D8 
 275      0C
 276 0b6e D76046EB 		.ascii	"\327`F\353o9\345v]\330}f\313ct\277\014\247-\257\367"
 276      6F39E576 
 276      5DD87D66 
 276      CB6374BF 
 276      0CA72DAF 
 277 0b83 FB5ED62C 		.ascii	"\373^\326,\213\235\360a\277\360\002\255|\361\272\305"
 277      8B9DF061 
 277      BFF002AD 
 277      7CF1BAC5 
 278 0b93 B673DE99 		.ascii	"\266s\336\231N\367\374\216*u\246\363)\012tU\026?\371"
 278      4EF7FC8E 
 278      2A75A6F3 
 278      290A7455 
 278      163FF9
 279 0ba6 663AE0A7 		.ascii	"f:\340\247\256\211\017\231\210\277\271\\;\220\203[\024"
 279      AE890F99 
 279      88BFB95C 
 279      3B90835B 
 279      14
 280 0bb7 3B9C003A 		.ascii	";\234\000:_\360\264\353\302\320Y\014C\3470\334t`\331"
 280      5FF0B4EB 
 280      C2D0590C 
 280      43E730DC 
 280      7460D9
 281 0bca 89E5252C 		.ascii	"\211\345%,?\3678X\015\020\313Kc\177\344\341Tw\357\235"
 281      3FF73858 
 281      0D10CB4B 
ARM GAS  /var/folders/c6/c789hm653lg9vtl73krp73tm0000gn/T//ccGBNNCQ.s 			page 22


 281      637FE4E1 
 281      5477EF9D 
 282 0bde 35DFCD58 		.ascii	"5\337\315X3\317~\354\032\314h\3153\317h;G\3048!}9\301"
 282      33CF7EEC 
 282      1ACC68CD 
 282      33CF683B 
 282      47C43821 
 283 0bf5 CBB19CDF 		.ascii	"\313\261\234\337@s\003\265t\245\037\353\022,\224K)\307"
 283      407303B5 
 283      74A51FEB 
 283      122C944B 
 283      29C7
 284 0c07 744A398E 		.ascii	"tJ9\216J9\201*\270\212\3455,\377h\314\007\207\373\231"
 284      4A39812A 
 284      B88AE535 
 284      2CFF68CC 
 284      0787FB99 
 285 0c1b F28131F6 		.ascii	"\362\2011\366Z\245'\275|d\345\235\377\252\343\255\""
 285      5AA527BD 
 285      7C64E59D 
 285      FFAAE3AD 
 285      22
 286 0c2c DF535ADF 		.ascii	"\337SZ\3379\372W\224g\256i\233\30170\206\036\357\227"
 286      39FA5794 
 286      67AE699B 
 286      C1373086 
 286      1EEF97
 287 0c3f 3F861A91 		.ascii	"?\206\032\2218\346\023\354s+{\262tI\233,\335\312\037"
 287      38E613EC 
 287      732B7BB2 
 287      74499B2C 
 287      DDCA1F
 288 0c52 4427D528 		.ascii	"D'\325([\026\254\310d\203\232\264w\277\302\331O\375"
 288      5B16ACC8 
 288      64839AB4 
 288      77BFC2D9 
 288      4FFD
 289 0c64 0D87BA6E 		.ascii	"\015\207\272n\244\351\350\215\231\312\312\356\263\232"
 289      A4E9E88D 
 289      99CACAEE 
 289      B39A
 290 0c72 65D1B77B 		.ascii	"e\321\267{w]\343\0315q\362,Z\026\005\233T\344\000,\307"
 290      775DE319 
 290      3571F22C 
 290      5A16059B 
 290      54E4002C 
 291 0c87 64EDC6BF 		.ascii	"d\355\306\277[\252UIO kuj}\373\306\371\301t\006,{\211"
 291      5BAA5549 
 291      4F206B75 
 291      6A7DFBC6 
 291      F9C17406 
 292 0c9e 56DF2ACA 		.ascii	"V\337*\312\253U\023\020\021n\215\327\264\033\271x\037"
 292      AB551310 
 292      116E8DD7 
 292      B41BB978 
 292      1F
 293 0caf EE4692E7 		.ascii	"\356F\222\347\371S\342\266}\2324}\204\377w\221\004\322"
ARM GAS  /var/folders/c6/c789hm653lg9vtl73krp73tm0000gn/T//ccGBNNCQ.s 			page 23


 293      F953E2B6 
 293      7D9A347D 
 293      84FF7791 
 293      04D2
 294 0cc1 B5773164 		.ascii	"\265w1d\367TgS\005\313\027k\257\357#/\326^AY\034\310"
 294      F7546753 
 294      05CB176B 
 294      AFEF232F 
 294      D65E4159 
 295 0cd7 2F0B2306 		.ascii	"/\013#\006\036!3\213\3428\335\230\235\356H\024g[\365"
 295      1E21338B 
 295      E238DD98 
 295      9DEE4814 
 295      675BF5
 296 0cea 218B634E 		.ascii	"!\213cN#\011\323{-\213/\247\030\347\332\235\256\361"
 296      2309D37B 
 296      2D8B2FA7 
 296      18E7DA9D 
 296      AEF1
 297 0cfc 4206BCAF 		.ascii	"B\006\274\257\351\366(\246\245O\235`\345\010\247\263"
 297      E9F628A6 
 297      A54F9D60 
 297      E508A7B3 
 298 0d0c F72DFC53 		.ascii	"\367-\374S\271Sa\265Cj]f<\253#C\316#jF\021<;\303K\""
 298      B95361B5 
 298      436A5D66 
 298      3CAB2343 
 298      CE236A46 
 299 0d26 EA6B5E12 		.ascii	"\352k^\022E\353\260\234\205\345\034\257\203\004W\353"
 299      45EBB09C 
 299      85E51CAF 
 299      830457EB 
 300 0d36 D5458E6E 		.ascii	"\325E\216n\327\306\251\027 x\372\323u\274~%\377J\006"
 300      D7C6A917 
 300      2078FAD3 
 300      75BC7E25 
 300      FF4A06
 301 0d49 494EFB95 		.ascii	"IN\373\225\254\371U\203\327\355\177\233\234\347\265"
 301      ACF95583 
 301      D7ED7F9B 
 301      9CE7B5
 302 0d58 FE6F93A3 		.ascii	"\376o\223\243\322\034\310\305&\016L\343\346P\234\265"
 302      D21CC8C5 
 302      260E4CE3 
 302      E6509CB5 
 303 0d68 A06B7482 		.ascii	"\240kt\202\236\204\202\236\214\302\235\212e\275\327"
 303      9E84829E 
 303      8CC29D8A 
 303      65BDD7
 304 0d77 90B4A615 		.ascii	"\220\264\246\025\233\202\233)\232\270V\363-]\342\274"
 304      9B829B29 
 304      9AB856F3 
 304      2D5DE2BC 
 305 0d87 8D89F30E 		.ascii	"\215\211\363\016&\313o\260\274\207e\2171q\326\027\233"
 305      26CB6FB0 
 305      BC87658F 
 305      3171D617 
ARM GAS  /var/folders/c6/c789hm653lg9vtl73krp73tm0000gn/T//ccGBNNCQ.s 			page 24


 305      9B
 306 0d98 12A7294F 		.ascii	"\022\247)O\251u\373\267o\235\247\033?\364W\311J\303"
 306      A975FBB7 
 306      6F9DA71B 
 306      3FF457C9 
 306      4AC3
 307 0daa 30EDFF35 		.ascii	"0\355\3775-0C\032\377\023\223ZUrD\355\216\216\302t\330"
 307      2D30431A 
 307      FF13935A 
 307      557244ED 
 307      8E8EC274 
 308 0dbf CEFB66F6 		.ascii	"\316\373f\366\336\232+O\340\254\273\011\003\325\212"
 308      DE9A2B4F 
 308      E0ACBB09 
 308      03D58A
 309 0dce 6297EF65 		.ascii	"b\227\357e\361\177\225\231\003\325u!D\237:X\215]R\217"
 309      F17F9599 
 309      03D57521 
 309      449F3A58 
 309      8D5D528F 
 310 0de2 41D0F724 		.ascii	"A\320\367$\333p\374\245\356\243\224\265J\227\352\014"
 310      DB70FCA5 
 310      EEA394B5 
 310      4A97EA0C 
 311 0df2 6A191AD4 		.ascii	"j\031\032\324r\243\021\3552K\333j\274\246\214#\230\205"
 311      72A311ED 
 311      324BDB6A 
 311      BCA68C23 
 311      9885
 312 0e04 4D8EE652 		.ascii	"M\216\346R\375YnOy4\210\221\031\211\317\376\266\233"
 312      FD596E4F 
 312      79348891 
 312      1989CFFE 
 312      B69B
 313 0e16 4A7C354A 		.ascii	"J|5J\374\202\265\304s\340\340\226\241\245\310\327:\022"
 313      FC82B5C4 
 313      73E0E096 
 313      A1A5C8D7 
 313      3A12
 314 0e28 F9979AC8 		.ascii	"\371\227\232\310\351\313\241\033H\300\332^'\206\233"
 314      E9CBA11B 
 314      48C0DA5E 
 314      27869B
 315 0e37 02595E50 		.ascii	"\002Y^P\254;\256\261Bzi*_\371jk\012\264\327\231U\375"
 315      AC3BAEB1 
 315      427A692A 
 315      5FF96A6B 
 315      0AB4D799 
 316 0e4d 4D60966F 		.ascii	"M`\226oEr8\302\327z\264\351\216\320B\216Mk\255\316\264"
 316      457238C2 
 316      D77AB4E9 
 316      8ED0428E 
 316      4D6BADCE 
 317 0e62 D6A169AD 		.ascii	"\326\241i\255\307(\265\001\313MXn6\032[}\177\223\261"
 317      C728B501 
 317      CB4D586E 
 317      361A5B7D 
ARM GAS  /var/folders/c6/c789hm653lg9vtl73krp73tm0000gn/T//ccGBNNCQ.s 			page 25


 317      7F93B1
 318 0e75 19F5AA56 		.ascii	"\031\365\252VW\345\260\266\366\216KO\240\265i\201\037"
 318      57E5B0B6 
 318      F68E4B4F 
 318      A0B56981 
 318      1F
 319 0e86 AC841EE8 		.ascii	"\254\204\036\350\327\020\2135\230;\254J\350v\327\221"
 319      D7108B35 
 319      983BAC4A 
 319      E876D791 
 320 0e96 7F874DE4 		.ascii	"\177\207M\344\037\234\346dY\026'\306q\325z\247\025+"
 320      1F9CE664 
 320      591627C6 
 320      71D57AA7 
 320      152B
 321 0ea8 D6E2DCAA 		.ascii	"\326\342\334\252\013\276\3331\370\356\300\200{\004\313"
 321      0BBEDB31 
 321      F8EEC080 
 321      7B04CB
 322 0eb7 EB582E42 		.ascii	"\353X.B\241.\306r\025\226\333\214\002n\356\257\371\222"
 322      A12EC672 
 322      1596DB8C 
 322      026EEEAF 
 322      F992
 323 0ec9 4696717F 		.ascii	"F\226q\177\230\014\364\266\327\260g\335D6\332/\277\301"
 323      980CF4B6 
 323      D7B067DD 
 323      4436DA2F 
 323      BFC1
 324 0edb CEB2DA68 		.ascii	"\316\262\332h7\274\2551n\343\340.\234k\311\356\262\221"
 324      37BCAD31 
 324      6EE3E02E 
 324      9C6BC9EE 
 324      B291
 325 0eed AC37CDC2 		.ascii	"\2547\315\302V3\013\331\303\3566r\260A\351\\0\353\362"
 325      56330BD9 
 325      C3EE3672 
 325      B041E95C 
 325      30EBF2
 326 0f00 31768E2C 		.ascii	"1v\216,\2338 g<\015\357\012\264h\016\263\364\034\033"
 326      9B382067 
 326      3C0DEF0A 
 326      B4680EB3 
 326      F41C1B
 327 0f13 6DBB8084 		.ascii	"m\273\200\204\274\023T\236\335\343%k\340\275\246@\004"
 327      BC13549E 
 327      DDE3256B 
 327      E0BDA640 
 327      04
 328 0f24 D26C1988 		.ascii	"\322l\031\210\341m\257\263\370\177o?\015F\265x\304c"
 328      E16DAFB3 
 328      F87F6F3F 
 328      0D46B578 
 328      C463
 329 0f36 1FB2BFB7 		.ascii	"\037\262\277\267\327\301\350\233+\010g\332\253\331i"
 329      D7C1E89B 
 329      2B0867DA 
ARM GAS  /var/folders/c6/c789hm653lg9vtl73krp73tm0000gn/T//ccGBNNCQ.s 			page 26


 329      ABD969
 330 0f45 B35743C8 		.ascii	"\263WC\310;\250\237\223\035v=|\3100\374]\214\205\004"
 330      3BA89F93 
 330      1D763D7C 
 330      C830FC5D 
 330      8C8504
 331 0f58 9263DA9C 		.ascii	"\222c\332\234`\345\230\324~\253\303:\353\032+\224\345"
 331      60E598D4 
 331      7EABC33A 
 331      EB1A2B94 
 331      E5
 332 0f69 61540F3C 		.ascii	"aT\017<\273\017=\347\000\226\207\261<\232\177\356j\022"
 332      BB0F3DE7 
 332      009687B1 
 332      3C9A7FEE 
 332      6A12
 333 0f7b E81F6C28 		.ascii	"\350\037l(!\370\037x\373\232\306V[\2166\022\2523R\332"
 333      21F81F78 
 333      FB9AC656 
 333      5B8E3612 
 333      AA3352DA 
 334 0f8f C9BA19CF 		.ascii	"\311\272\031\317\036s\355fm6n\306\032\004\242\265\""
 334      1E73ED66 
 334      6D366EC6 
 334      1A04A2B5 
 334      22
 335 0fa0 49D8EC75 		.ascii	"I\330\354uYD\034W\235n\004\323,\327*\220k\337\005\252"
 335      59441C57 
 335      9D6E04D3 
 335      2CD72A90 
 335      6BDF05AA 
 336 0fb4 D27AFB5F 		.ascii	"\322z\373_\346k\271A\006?\274:\234\362B\034\263\353"
 336      E66BB941 
 336      063FBC3A 
 336      9CF2421C 
 336      B3EB
 337 0fc6 03E5D694 		.ascii	"\003\345\326\224E\254\334T-\313\337\202[R\261q\314\037"
 337      45ACDC54 
 337      2DCBDF82 
 337      5B52B171 
 337      CC1F
 338 0fd8 CD83652F 		.ascii	"\315\203e/\375N\301h\203\231\333\375\027\251\363w:\352"
 338      FD4EC168 
 338      8399DBFD 
 338      17A9F377 
 338      3AEA
 339 0fea 688A4055 		.ascii	"h\212@UH\207Tn\267\262V\177\255%\324`\374\323\004\023"
 339      4887546E 
 339      B7B2567F 
 339      AD25D460 
 339      FCD30413 
 340 0ffe B511     		.ascii	"\265\021"
 341 1000 8AD511CE 		.ascii	"\212\325\021\316\271\026\352G6B-\312i8<{6c\017\203\231"
 341      B916EA47 
 341      36422DCA 
 341      69383C7B 
 341      36630F83 
ARM GAS  /var/folders/c6/c789hm653lg9vtl73krp73tm0000gn/T//ccGBNNCQ.s 			page 27


 342 1015 DA018BE4 		.ascii	"\332\001\213\344\206\321\231\341\251!\222\036\324\017"
 342      86D199E1 
 342      A921921E 
 342      D40F
 343 1023 A949EABF 		.ascii	"\251I\352\277\037Uy\255\225\225\273\005\364\261\361"
 343      1F5579AD 
 343      9595BB05 
 343      F4B1F1
 344 1032 CF4CA8E3 		.ascii	"\317L\250\343R\031j\306g\262\327\365\236\001\266\364"
 344      52196AC6 
 344      67B2D7F5 
 344      9E01B6F4 
 345 1042 757AADFF 		.ascii	"uz\255\377\314\013}\017i\327\353\274m/\362\022\337\256"
 345      CC0B7D0F 
 345      69D7EBBC 
 345      6D2FF212 
 345      DFAE
 346 1054 D727B6BD 		.ascii	"\327'\266\275Z\274\366\024^\260\355\325\220c\254\213"
 346      5ABCF614 
 346      5EB0EDD5 
 346      9063AC8B 
 347 1064 B6BD0EE5 		.ascii	"\266\275\016\345\010\207\227l{\355\313\321\353S\333"
 347      0887976C 
 347      7BEDCBD1 
 347      EB53DB
 348 1073 5EBB72F4 		.ascii	"^\273r\364\272\234\351\245\376\031\225y\315\355%o\221"
 348      BA9CE9A5 
 348      FE199579 
 348      CDED256F 
 348      91
 349 1084 5358E4E4 		.ascii	"SX\344\344D\325\244\247L/\344\333s\274\220\277\342\315"
 349      44D5A4A7 
 349      4C2FE4DB 
 349      73BC90BF 
 349      E2CD
 350 1096 3EB6D130 		.ascii	">\266\3210\300\374\316\032\377fI\265\274i\025\371\023"
 350      C0FCCE1A 
 350      FF6649B5 
 350      BC6915F9 
 350      13
 351 10a7 2CF42403 		.ascii	",\364$\003\317~\346\265\376\373+*\336\347\336\254\203"
 351      CF7EE6B5 
 351      FEFB2B2A 
 351      DEE7DEAC 
 351      83
 352 10b8 034A97D2 		.ascii	"\003J\227\322rh\241\372\227Uv\313C\002T\025\034\263"
 352      7268A1FA 
 352      975576CB 
 352      43025415 
 352      1CB3
 353 10ca 26F788F4 		.ascii	"&\367\210\364?\264\360\354\325\334#^3\216\370\327\314"
 353      3FB4F0EC 
 353      D5DC235E 
 353      338EF8D7 
 353      CC
 354 10db 0A925917 		.ascii	"\012\222Y\027\264]\0330\257.\220\365\337b\262d\276:"
 354      B45D1B30 
ARM GAS  /var/folders/c6/c789hm653lg9vtl73krp73tm0000gn/T//ccGBNNCQ.s 			page 28


 354      AF2E90F5 
 354      DF62B264 
 354      BE3A
 355 10ed 875574E9 		.ascii	"\207Ut\351\242\2637R\316\213\005O\377\343\357Bc\230"
 355      A2B33752 
 355      CE8B054F 
 355      FFE3EF42 
 355      6398
 356 10ff 11438796 		.ascii	"\021C\207\226\320\177\211T\211(\225$\023\242\224*y\352"
 356      D07F8954 
 356      89289524 
 356      13A2942A 
 356      79EA
 357 1111 B7CF8C79 		.ascii	"\267\317\214yfbI$\021OFc\202\230*yz\314\230\222H\271"
 357      66624924 
 357      114F4663 
 357      82982A79 
 357      7ACC9892 
 358 1127 F4525248 		.ascii	"\364RRH\015-g|\361TYX\372\207\222\312\224X\022KD\370"
 358      0D2D677C 
 358      F1545958 
 358      FA8792CA 
 358      9458124B 
 359 113d 58C91821 		.ascii	"X\311\030!\026\343\305\222\262H\344q^\214?^\221\250"
 359      16E3C592 
 359      B248E471 
 359      5E8C3F5E 
 359      91A8
 360 114f 101E17F8 		.ascii	"\020\036\027\370\261\321\222\037\017\033>b\330\310a"
 360      B1D1921F 
 360      0F1B3E62 
 360      D8C861
 361 115e 3F2D313E 		.ascii	"?-1>\216VDb\225\245BIJ*\215VH\000\351\207\217\237\374"
 361      8E564462 
 361      95A54249 
 361      4A2A8D56 
 361      4800E987 
 362 1175 382CFDC7 		.ascii	"8,\375\307\367\000\032\347#\345\321\012\241$\\*\214"
 362      F7001AE7 
 362      23E5D10A 
 362      A1245C2A 
 362      8C
 363 1186 E32B6352 		.ascii	"\343+cRX\243;\030\016\253\303\374Y\232mIHI\204q\362"
 363      58A33B18 
 363      0EABC3FC 
 363      599A6D49 
 363      48498471 
 364 119b 096C0D8D 		.ascii	"\011l\015\2150\005R\271(\360\245l\262\020\276\017\017"
 364      300552B9 
 364      28F0A56C 
 364      B210BE0F 
 364      0F
 365 11ac 0B138548 		.ascii	"\013\023\205H\245$\014\264\354A\204\021\376U\"\021\273"
 365      A5240CB4 
 365      EC418411 
 365      FE552211 
 365      BB
ARM GAS  /var/folders/c6/c789hm653lg9vtl73krp73tm0000gn/T//ccGBNNCQ.s 			page 29


 366 11bd 3F4CBE86 		.ascii	"?L\276\206\371TJ\020\245pJx\261R\250\210\010\305\370"
 366      F9544A10 
 366      A5704A78 
 366      B152A888 
 366      08C5F8
 367 11d0 50884781 		.ascii	"P\210G\201\206\304\013B\305C&ik\024G\312\311\320\345"
 367      86C40B42 
 367      C5432669 
 367      6B1447CA 
 367      C9D0E5
 368 11e3 CCC3B6BF 		.ascii	"\314\303\266\277\247^Ji\\\004(}a)\030)\017\323z\310"
 368      A75E4A69 
 368      5C04287D 
 368      61291829 
 368      0FD37AC8 
 369 11f7 BE5FA4BC 		.ascii	"\276_\244\274\024\372\024$\303\025\302D\011>\222\242"
 369      14FA1424 
 369      C315C244 
 369      093E92A2 
 370 1207 30DE2F25 		.ascii	"0\336/%\305h\",\005*Uq\364\011\207\265*6\211&\374\221"
 370      C568222C 
 370      052A5571 
 370      F40987B5 
 370      2A368926 
 371 121d 4485043D 		.ascii	"D\205\004=\036\311i\037\345\221\204(\000|_\362\230\310"
 371      1EC9691F 
 371      E5918428 
 371      007C5FF2 
 371      98C8
 372 122f 36224D7C 		.ascii	"6\"M|4\177\217\360\370'\342\204\021Q(\003\015\206%N"
 372      347F8FF0 
 372      F827E284 
 372      11512803 
 372      0D86254E 
 373 1243 1CC1893F 		.ascii	"\034\301\211?\345\304\237q\342\023\2348\222\023\177"
 373      E5C49F71 
 373      E2139C38 
 373      92137F
 374 1252 EE11870F 		.ascii	"\356\021\207\017\203{8\027\023\341\343'\276d\030\220"
 374      837B3817 
 374      13E1E327 
 374      BE641890 
 375 1262 FD848909 		.ascii	"\375\204\211\011\202\010\237\211X\251 \022\246\370\270"
 375      82089F89 
 375      58A92012 
 375      A6F8B8
 376 1271 D02725BD 		.ascii	"\320'%\275\300\307\242e\025*C?\033\221f\010\253\311"
 376      C0C7A265 
 376      152A433F 
 376      1B916608 
 376      ABC9
 377 1283 30348845 		.ascii	"04\210EA\011\001)%\361\222\020\226\374\344\307\221 "
 377      41090129 
 377      25F19210 
 377      96FCE4C7 
 377      9120
 378 1295 41DA0C6A 		.ascii	"A\332\014j~\322\012~\363K\361D\251\200\337\307\305\370"
ARM GAS  /var/folders/c6/c789hm653lg9vtl73krp73tm0000gn/T//ccGBNNCQ.s 			page 30


 378      7ED20A7E 
 378      F34BF144 
 378      A980DFC7 
 378      C5F8
 379 12a7 B2945F12 		.ascii	"\262\224_\022\205q)\024\013\251\024\210\245/\201\252"
 379      85712914 
 379      0BA91488 
 379      A52F81AA 
 380 12b7 02C2C4A8 		.ascii	"\002\302\304\250\024\201\206\005\023\244\304\330\377"
 380      14818605 
 380      13A4C4D8 
 380      FF
 381 12c4 4EDEA7AA 		.ascii	"N\336\247\252\004\232\010\"Q|X\362M\220$1Y\010*J\011"
 381      049A0822 
 381      517C58F2 
 381      4D902431 
 381      59082A4A 
 382 12d9 713E590E 		.ascii	"q>Y\016l\333k\037\232\200<\212)J*\014\306S\011\020\375"
 382      6CDB6B1F 
 382      9A803C8A 
 382      294A2A0C 
 382      C6530910 
 383 12ee D3FA551F 		.ascii	"\323\372U\037\371\325O_\244\002\014\312\227\012\303"
 383      F9D54F5F 
 383      A4020CCA 
 383      970AC3
 384 12fd 275000BD 		.ascii	"'P\000\275\223\001h\033\0073\235\230\303\304\244\211"
 384      9301681B 
 384      07339D98 
 384      C3C4A489 
 385 130d C4D1E22A 		.ascii	"\304\321\342*V<\234\230P\001\302\304^\300`\234Z\310"
 385      563C9C98 
 385      5001C2C4 
 385      5EC0609C 
 385      5AC8
 386 131f 0409DA25 		.ascii	"\004\011\332%\373\012\343\205\012)\316\247^\200_\204"
 386      FB0AE385 
 386      0A29CEA7 
 386      5E805F84 
 387 132f 09A4E249 		.ascii	"\011\244\342I\206+\2134rbQ\260k\251XG y\022L\206'\360"
 387      862B8B34 
 387      726251B0 
 387      6BA95847 
 387      2079124C 
 388 1346 51295A51 		.ascii	"Q)ZQ\006B\0071Qb\261\012\017\204\244P\001\336^\006\255"
 388      06420731 
 388      5162B10A 
 388      0F84A450 
 388      01DE5E06 
 389 135b 6008D2BE 		.ascii	"`\010\322\276\017\021*\037C{\203\207I\360\243\301\266"
 389      0F112A1F 
 389      437B8387 
 389      49F0A3C1 
 389      B6
 390 136c E44B4444 		.ascii	"\344KDD\367I\321\270\020\216\013|\252R\024\342\002\021"
 390      F749D1B8 
 390      108E0B7C 
ARM GAS  /var/folders/c6/c789hm653lg9vtl73krp73tm0000gn/T//ccGBNNCQ.s 			page 31


 390      AA5214E2 
 390      0211
 391 137e 835F9450 		.ascii	"\203_\224P\034\336\261\340k\276\011\0111%yc|J*\250\304"
 391      1CDEB1E0 
 391      6BBE0909 
 391      31257963 
 391      7C4A2AA8 
 392 1393 C76C4540 		.ascii	"\307lE@\224\260\227\324'R\031\257\214\361Rt\274\240"
 392      94B097D4 
 392      275219AF 
 392      8CF15274 
 392      BCA0
 393 13a5 AA3B05FA 		.ascii	"\252;\005\372y&U\366[!\006\210B\020\277\374+p\360\227"
 393      792655F6 
 393      5B210688 
 393      4210BFFC 
 393      2B70F097 
 394 13b9 F6545076 		.ascii	"\366TPv\201\224\177s\025\251b\321\261\344gS\304\032"
 394      81947F73 
 394      15A962D1 
 394      B1E46753 
 394      C41A
 395 13cb 3174E4D0 		.ascii	"1t\344\320\021\372`\010\021\213xk*\372?\304\006\245"
 395      11FA6008 
 395      118B786B 
 395      2AFA3FC4 
 395      06A5
 396 13dd 71951591 		.ascii	"q\225\025\221\2604 R\376\317\345\245c``Ix\026\250\216"
 396      B0342052 
 396      FECFE5A5 
 396      63606049 
 396      7816A88E 
 397 13f1 4628A5CF 		.ascii	"F(\245\317\202<\271\011|_bc\020\036\2048\015\011\264"
 397      823CB909 
 397      7C5F6263 
 397      101E8438 
 397      0D09B4
 398 1404 5E48E87C 		.ascii	"^H\350|IUT?x\234\371\356\027\251\011\024\210\350\352"
 398      4955543F 
 398      789CF9EE 
 398      17A90914 
 398      88E8EA
 399 1417 3E119D4B 		.ascii	">\021\235KT\235K\244\316\025\204\247\225\"\030\263\344"
 399      549D4BA4 
 399      CE1584A7 
 399      952218B3 
 399      E4
 400 1428 1349A7FB 		.ascii	"\023I\247\373\307GE\251\222\217\205\211,E\315\002\036"
 400      C74745A9 
 400      928F8589 
 400      2C45CD02 
 400      1E
 401 1439 00608B1F 		.ascii	"\000`\213\037\212\015\317\250%\033\036\371\307Khn\344"
 401      8A0DCFA8 
 401      251B1EF9 
 401      C74B686E 
 401      E4
ARM GAS  /var/folders/c6/c789hm653lg9vtl73krp73tm0000gn/T//ccGBNNCQ.s 			page 32


 402 144a 9344A420 		.ascii	"\223D\244 !\032\225\024\200'\245BL\342\241B\331'mH\255"
 402      211A9514 
 402      8027A542 
 402      4CE2A142 
 402      D9276D48 
 403 145f 80B4E5C5 		.ascii	"\200\264\345\305\276\360A\364K\232\303#2\\\221\312~"
 403      BEF041F4 
 403      4B9AC323 
 403      325C91CA 
 403      7E
 404 1470 A930B6B2 		.ascii	"\2510\266\262\214\232\245\376I0\311WD#\304\012\375\321"
 404      8C9AA5FE 
 404      4930C957 
 404      4423C40A 
 404      FDD1
 405 1482 94489C26 		.ascii	"\224H\234&\000j{\201T\206\330*\032{\202.\006\020\033"
 405      006A7B81 
 405      5486D82A 
 405      1A7B822E 
 405      06101B
 406 1495 177970E9 		.ascii	"\027yp\351\261\225\343\306\021f\374\322\3300QP\021\031"
 406      B195E3C6 
 406      1166FCD2 
 406      D8305150 
 406      1119
 407 14a7 6642248C 		.ascii	"fB$\214\256\002\217S\002\362\346#\237\311 \22446\004"
 407      AE028F53 
 407      02F2E623 
 407      9FC92094 
 407      343604
 408 14ba A086A1A5 		.ascii	"\240\206\241\245\000\372%%1\010\037\024\252P\217\353"
 408      00FA2525 
 408      31081F14 
 408      AA508FEB 
 409 14ca 291D5BD6 		.ascii	")\035[\326'\316C4B\013\353/\305\303`Y\321\261\"\350"
 409      27CE4334 
 409      420BEB2F 
 409      C5C36059 
 409      D1B122E8 
 410 14de 3B01A1AD 		.ascii	";\001\241\255 1n\\J\2208)nO3\2324\320\\\364\202 V\010"
 410      20316E5C 
 410      4A903829 
 410      6E4F339A 
 410      34D05CF4 
 411 14f6 316AE210 		.ascii	"1j\342\020(*\302Q\361\305@\005Q3\020\334\007\220E\222"
 411      282AC251 
 411      F1C54005 
 411      513310DC 
 411      07904592 
 412 150a 91CA4BB5 		.ascii	"\221\312K\265*\210\245P\337\247(Z\032\023T\327\006\227"
 412      2A88A550 
 412      DFA7285A 
 412      1A1354D7 
 412      0697
 413 151c E622E57E 		.ascii	"\346\"\345~\325\360\003$\243E\300Y\274$\364\002\257"
 413      D5F00324 
 413      A345C059 
ARM GAS  /var/folders/c6/c789hm653lg9vtl73krp73tm0000gn/T//ccGBNNCQ.s 			page 33


 413      BC24F402 
 413      AF
 414 152d 5265129E 		.ascii	"Re\022\236\361b)D\023\277\232+\373$yI\0028\022)\325"
 414      F1622944 
 414      13BF9A2B 
 414      FB247949 
 414      02381229 
 415 1542 BC3ABCFF 		.ascii	"\274:\274\377P1Q\312K\374P\355A\3613B*\305\227\011\251"
 415      503151CA 
 415      4BFC50ED 
 415      41F13342 
 415      2AC59709 
 416 1557 BF0BC512 		.ascii	"\277\013\305\022\211$C\255\374iA\372'\260I \352\245"
 416      892443AD 
 416      FC6941FA 
 416      27B04920 
 416      EAA5
 417 1569 E7FA694F 		.ascii	"\347\372iO\236\025b\343\236\373?\322\233\311\002"
 417      9E1562E3 
 417      9EFB3FD2 
 417      9BC902
 418              		.text
 419              		.section	.gnu.lto_.symtab.8a4171ef9de68e69,"",%progbits
 420 0000 70617474 		.ascii	"patternmsg\000\000\000\000\000\000\000\000\000\000\000"
 420      65726E6D 
 420      73670000 
 420      00000000 
 420      00000000 
 421 0015 00400200 		.ascii	"\000@\002\000\000testmsg1\000\000\000\000\000\000\000"
 421      00746573 
 421      746D7367 
 421      31000000 
 421      00000000 
 422 0029 00000000 		.ascii	"\000\000\000\000\000V\002\000\000wa\000\000\002\000"
 422      00560200 
 422      00776100 
 422      000200
 423 0038 00000000 		.ascii	"\000\000\000\000\000\000\000\000\255\001\000\000ch\000"
 423      00000000 
 423      AD010000 
 423      636800
 424 0047 00020000 		.ascii	"\000\002\000\000\000\000\000\000\000\000\000\262\001"
 424      00000000 
 424      000000B2 
 424      01
 425 0054 00007468 		.ascii	"\000\000threads\000\000\002\000\000\000\000\000\000"
 425      72656164 
 425      73000002 
 425      00000000 
 425      0000
 426 0066 0000003C 		.ascii	"\000\000\000<\002\000\000_test_assert_sequence\000\000"
 426      0200005F 
 426      74657374 
 426      5F617373 
 426      6572745F 
 427 0084 02000000 		.ascii	"\002\000\000\000\000\000\000\000\000\000\275\000\000"
 427      00000000 
ARM GAS  /var/folders/c6/c789hm653lg9vtl73krp73tm0000gn/T//ccGBNNCQ.s 			page 34


 427      0000BD00 
 427      00
 428 0091 00746573 		.ascii	"\000test_emit_token\000\000\002\000\000\000\000\000"
 428      745F656D 
 428      69745F74 
 428      6F6B656E 
 428      00000200 
 429 00a9 00000000 		.ascii	"\000\000\000\000\306\000\000\000chMsgRelease\000\000"
 429      C6000000 
 429      63684D73 
 429      6752656C 
 429      65617365 
 430 00bf 02000000 		.ascii	"\002\000\000\000\000\000\000\000\000\000\312\000\000"
 430      00000000 
 430      0000CA00 
 430      00
 431 00cc 0063684D 		.ascii	"\000chMsgWait\000\000\002\000\000\000\000\000\000\000"
 431      73675761 
 431      69740000 
 431      02000000 
 431      00000000 
 432 00e0 00009701 		.ascii	"\000\000\227\001\000\000chThdCreateStatic\000\000\002"
 432      00006368 
 432      54686443 
 432      72656174 
 432      65537461 
 433 00fa 00000000 		.ascii	"\000\000\000\000\000\000\000\000\000\232\001\000\000"
 433      00000000 
 433      009A0100 
 433      00
 434 0107 63684D73 		.ascii	"chMsgSend\000\000\002\000\000\000\000\000\000\000\000"
 434      6753656E 
 434      64000002 
 434      00000000 
 434      00000000 
 435 011b 00A80100 		.ascii	"\000\250\001\000\000"
 435      00
 436              		.text
 437              		.section	.gnu.lto_.opts,"",%progbits
 438 0000 272D6D63 		.ascii	"'-mcpu=cortex-m4' '-mno-thumb-interwork' '-mthumb' "
 438      70753D63 
 438      6F727465 
 438      782D6D34 
 438      2720272D 
 439 0033 272D6767 		.ascii	"'-ggdb' '-O2' '-fomit-frame-pointer' '-falign-funct"
 439      64622720 
 439      272D4F32 
 439      2720272D 
 439      666F6D69 
 440 0066 696F6E73 		.ascii	"ions=16' '-ffunction-sections' '-fdata-sections' '-"
 440      3D313627 
 440      20272D66 
 440      66756E63 
 440      74696F6E 
 441 0099 666E6F2D 		.ascii	"fno-common' '-flto'\000"
 441      636F6D6D 
 441      6F6E2720 
ARM GAS  /var/folders/c6/c789hm653lg9vtl73krp73tm0000gn/T//ccGBNNCQ.s 			page 35


 441      272D666C 
 441      746F2700 
 442              		.text
 443              		.cfi_sections	.debug_frame
 444              		.section	.text.msg1_execute,"ax",%progbits
 445              		.align	2
 446              		.p2align 4,,15
 447              		.thumb
 448              		.thumb_func
 449              		.type	msg1_execute, %function
 450              	msg1_execute:
 451              	.LFB230:
 452              		.file 1 "../../../test/rt/testmsg.c"
 453              		.loc 1 66 0
 454              		.cfi_startproc
 455              		@ args = 0, pretend = 0, frame = 0
 456              		@ frame_needed = 0, uses_anonymous_args = 0
 457 0000 10B5     		push	{r4, lr}
 458              		.cfi_def_cfa_offset 8
 459              		.cfi_offset 4, -8
 460              		.cfi_offset 14, -4
 461              	.LBB16:
 462              	.LBB17:
 463              	.LBB18:
 464              	.LBB19:
 465              		.file 2 "../../../os/rt/include/chthreads.h"
 466              		.loc 2 176 0
 467 0002 184A     		ldr	r2, .L2
 468              	.LBE19:
 469              	.LBE18:
 470              	.LBE17:
 471              	.LBE16:
 472              		.loc 1 73 0
 473 0004 184B     		ldr	r3, .L2+4
 474              	.LBB23:
 475              	.LBB22:
 476              	.LBB21:
 477              	.LBB20:
 478              		.loc 2 176 0
 479 0006 9169     		ldr	r1, [r2, #24]
 480              	.LBE20:
 481              	.LBE21:
 482              	.LBE22:
 483              	.LBE23:
 484              		.loc 1 73 0
 485 0008 1868     		ldr	r0, [r3]
 486 000a 8A68     		ldr	r2, [r1, #8]
 487 000c 174B     		ldr	r3, .L2+8
 488              		.loc 1 66 0
 489 000e 82B0     		sub	sp, sp, #8
 490              		.cfi_def_cfa_offset 16
 491              		.loc 1 73 0
 492 0010 0132     		adds	r2, r2, #1
 493 0012 0091     		str	r1, [sp]
 494 0014 4FF4B471 		mov	r1, #360
 495 0018 FFF7FEFF 		bl	chThdCreateStatic
 496              	.LVL0:
ARM GAS  /var/folders/c6/c789hm653lg9vtl73krp73tm0000gn/T//ccGBNNCQ.s 			page 36


 497 001c 144B     		ldr	r3, .L2+12
 498 001e 1860     		str	r0, [r3]
 499              		.loc 1 75 0
 500 0020 FFF7FEFF 		bl	chMsgWait
 501              	.LVL1:
 502              		.loc 1 67 0
 503 0024 446B     		ldr	r4, [r0, #52]
 504              	.LVL2:
 505              		.loc 1 77 0
 506 0026 2146     		mov	r1, r4
 507 0028 FFF7FEFF 		bl	chMsgRelease
 508              	.LVL3:
 509              		.loc 1 78 0
 510 002c E0B2     		uxtb	r0, r4
 511 002e FFF7FEFF 		bl	test_emit_token
 512              	.LVL4:
 513              		.loc 1 79 0
 514 0032 FFF7FEFF 		bl	chMsgWait
 515              	.LVL5:
 516              		.loc 1 67 0
 517 0036 446B     		ldr	r4, [r0, #52]
 518              	.LVL6:
 519              		.loc 1 81 0
 520 0038 2146     		mov	r1, r4
 521 003a FFF7FEFF 		bl	chMsgRelease
 522              	.LVL7:
 523              		.loc 1 82 0
 524 003e E0B2     		uxtb	r0, r4
 525 0040 FFF7FEFF 		bl	test_emit_token
 526              	.LVL8:
 527              		.loc 1 83 0
 528 0044 FFF7FEFF 		bl	chMsgWait
 529              	.LVL9:
 530              		.loc 1 67 0
 531 0048 446B     		ldr	r4, [r0, #52]
 532              	.LVL10:
 533              		.loc 1 85 0
 534 004a 2146     		mov	r1, r4
 535 004c FFF7FEFF 		bl	chMsgRelease
 536              	.LVL11:
 537              		.loc 1 86 0
 538 0050 E0B2     		uxtb	r0, r4
 539 0052 FFF7FEFF 		bl	test_emit_token
 540              	.LVL12:
 541              		.loc 1 87 0
 542 0056 0749     		ldr	r1, .L2+16
 543 0058 0120     		movs	r0, #1
 544              		.loc 1 88 0
 545 005a 02B0     		add	sp, sp, #8
 546              		@ sp needed
 547 005c BDE81040 		pop	{r4, lr}
 548              		.loc 1 87 0
 549 0060 FFF7FEBF 		b	_test_assert_sequence
 550              	.LVL13:
 551              	.L3:
 552              		.align	2
 553              	.L2:
ARM GAS  /var/folders/c6/c789hm653lg9vtl73krp73tm0000gn/T//ccGBNNCQ.s 			page 37


 554 0064 00000000 		.word	ch
 555 0068 00000000 		.word	wa
 556 006c 00000000 		.word	thread
 557 0070 00000000 		.word	threads
 558 0074 00000000 		.word	.LC0
 559              		.cfi_endproc
 560              	.LFE230:
 561              		.size	msg1_execute, .-msg1_execute
 562 0078 AFF30080 		.section	.text.thread,"ax",%progbits
 562      AFF30080 
 563              		.align	2
 564              		.p2align 4,,15
 565              		.thumb
 566              		.thumb_func
 567              		.type	thread, %function
 568              	thread:
 569              	.LFB229:
 570              		.loc 1 59 0
 571              		.cfi_startproc
 572              		@ args = 0, pretend = 0, frame = 0
 573              		@ frame_needed = 0, uses_anonymous_args = 0
 574              	.LVL14:
 575 0000 10B5     		push	{r4, lr}
 576              		.cfi_def_cfa_offset 8
 577              		.cfi_offset 4, -8
 578              		.cfi_offset 14, -4
 579              		.loc 1 61 0
 580 0002 4121     		movs	r1, #65
 581              		.loc 1 59 0
 582 0004 0446     		mov	r4, r0
 583              		.loc 1 61 0
 584 0006 FFF7FEFF 		bl	chMsgSend
 585              	.LVL15:
 586              		.loc 1 62 0
 587 000a 2046     		mov	r0, r4
 588 000c 4221     		movs	r1, #66
 589 000e FFF7FEFF 		bl	chMsgSend
 590              	.LVL16:
 591              		.loc 1 63 0
 592 0012 2046     		mov	r0, r4
 593 0014 4321     		movs	r1, #67
 594              		.loc 1 64 0
 595 0016 BDE81040 		pop	{r4, lr}
 596              	.LVL17:
 597              		.loc 1 63 0
 598 001a FFF7FEBF 		b	chMsgSend
 599              	.LVL18:
 600              		.cfi_endproc
 601              	.LFE229:
 602              		.size	thread, .-thread
 603              		.global	patternmsg
 604              		.global	testmsg1
 605 001e 00BF     		.section	.rodata.testmsg1,"a",%progbits
 606              		.align	2
 607              		.type	testmsg1, %object
 608              		.size	testmsg1, 16
 609              	testmsg1:
ARM GAS  /var/folders/c6/c789hm653lg9vtl73krp73tm0000gn/T//ccGBNNCQ.s 			page 38


 610 0000 04000000 		.word	.LC1
 611 0004 00000000 		.word	0
 612 0008 00000000 		.word	0
 613 000c 00000000 		.word	msg1_execute
 614              		.section	.rodata.str1.4,"aMS",%progbits,1
 615              		.align	2
 616              	.LC0:
 617 0000 41424300 		.ascii	"ABC\000"
 618              	.LC1:
 619 0004 4D657373 		.ascii	"Messages, loop\000"
 619      61676573 
 619      2C206C6F 
 619      6F7000
 620 0013 00       		.section	.rodata.patternmsg,"a",%progbits
 621              		.align	2
 622              		.type	patternmsg, %object
 623              		.size	patternmsg, 8
 624              	patternmsg:
 625 0000 00000000 		.word	testmsg1
 626 0004 00000000 		.word	0
 627              		.text
 628              	.Letext0:
 629              		.file 3 "/usr/local/Cellar/gcc-arm-none-eabi/20140805/lib/gcc/arm-none-eabi/4.8.4/include/stddef.h
 630              		.file 4 "/usr/local/Cellar/gcc-arm-none-eabi/20140805/arm-none-eabi/include/machine/_default_types
 631              		.file 5 "/usr/local/Cellar/gcc-arm-none-eabi/20140805/arm-none-eabi/include/stdint.h"
 632              		.file 6 "../../../os/rt/ports/ARMCMx/compilers/GCC/chtypes.h"
 633              		.file 7 "../../../os/rt/include/chsystypes.h"
 634              		.file 8 "../../../os/rt/include/chschd.h"
 635              		.file 9 "../../../os/rt/ports/ARMCMx/chcore.h"
 636              		.file 10 "../../../os/rt/ports/ARMCMx/chcore_v7m.h"
 637              		.file 11 "../../../os/rt/include/chdebug.h"
 638              		.file 12 "../../../os/rt/include/chtm.h"
 639              		.file 13 "../../../os/rt/include/chstats.h"
 640              		.file 14 "../../../os/rt/include/chsem.h"
 641              		.file 15 "../../../os/rt/include/chmtx.h"
 642              		.file 16 "../../../test/rt/test.h"
 643              		.file 17 "../../../os/ext/CMSIS/include/core_cm4.h"
 644              		.file 18 "../../../os/rt/include/chmsg.h"
 645              		.section	.debug_info,"",%progbits
 646              	.Ldebug_info0:
 647 0000 E70A0000 		.4byte	0xae7
 648 0004 0400     		.2byte	0x4
 649 0006 00000000 		.4byte	.Ldebug_abbrev0
 650 000a 04       		.byte	0x4
 651 000b 01       		.uleb128 0x1
 652 000c 55060000 		.4byte	.LASF149
 653 0010 01       		.byte	0x1
 654 0011 E5020000 		.4byte	.LASF150
 655 0015 3F020000 		.4byte	.LASF151
 656 0019 30000000 		.4byte	.Ldebug_ranges0+0x30
 657 001d 00000000 		.4byte	0
 658 0021 00000000 		.4byte	.Ldebug_line0
 659 0025 02       		.uleb128 0x2
 660 0026 04       		.byte	0x4
 661 0027 05       		.byte	0x5
 662 0028 696E7400 		.ascii	"int\000"
 663 002c 03       		.uleb128 0x3
ARM GAS  /var/folders/c6/c789hm653lg9vtl73krp73tm0000gn/T//ccGBNNCQ.s 			page 39


 664 002d 24000000 		.4byte	.LASF2
 665 0031 03       		.byte	0x3
 666 0032 D4       		.byte	0xd4
 667 0033 37000000 		.4byte	0x37
 668 0037 04       		.uleb128 0x4
 669 0038 04       		.byte	0x4
 670 0039 07       		.byte	0x7
 671 003a F5010000 		.4byte	.LASF0
 672 003e 04       		.uleb128 0x4
 673 003f 01       		.byte	0x1
 674 0040 06       		.byte	0x6
 675 0041 1E010000 		.4byte	.LASF1
 676 0045 03       		.uleb128 0x3
 677 0046 48000000 		.4byte	.LASF3
 678 004a 04       		.byte	0x4
 679 004b 1C       		.byte	0x1c
 680 004c 50000000 		.4byte	0x50
 681 0050 04       		.uleb128 0x4
 682 0051 01       		.byte	0x1
 683 0052 08       		.byte	0x8
 684 0053 83040000 		.4byte	.LASF4
 685 0057 04       		.uleb128 0x4
 686 0058 02       		.byte	0x2
 687 0059 05       		.byte	0x5
 688 005a 9B040000 		.4byte	.LASF5
 689 005e 04       		.uleb128 0x4
 690 005f 02       		.byte	0x2
 691 0060 07       		.byte	0x7
 692 0061 9B020000 		.4byte	.LASF6
 693 0065 03       		.uleb128 0x3
 694 0066 2D030000 		.4byte	.LASF7
 695 006a 04       		.byte	0x4
 696 006b 37       		.byte	0x37
 697 006c 70000000 		.4byte	0x70
 698 0070 04       		.uleb128 0x4
 699 0071 04       		.byte	0x4
 700 0072 05       		.byte	0x5
 701 0073 61010000 		.4byte	.LASF8
 702 0077 03       		.uleb128 0x3
 703 0078 9D050000 		.4byte	.LASF9
 704 007c 04       		.byte	0x4
 705 007d 38       		.byte	0x38
 706 007e 82000000 		.4byte	0x82
 707 0082 04       		.uleb128 0x4
 708 0083 04       		.byte	0x4
 709 0084 07       		.byte	0x7
 710 0085 53050000 		.4byte	.LASF10
 711 0089 04       		.uleb128 0x4
 712 008a 08       		.byte	0x8
 713 008b 05       		.byte	0x5
 714 008c 10010000 		.4byte	.LASF11
 715 0090 03       		.uleb128 0x3
 716 0091 16040000 		.4byte	.LASF12
 717 0095 04       		.byte	0x4
 718 0096 4E       		.byte	0x4e
 719 0097 9B000000 		.4byte	0x9b
 720 009b 04       		.uleb128 0x4
ARM GAS  /var/folders/c6/c789hm653lg9vtl73krp73tm0000gn/T//ccGBNNCQ.s 			page 40


 721 009c 08       		.byte	0x8
 722 009d 07       		.byte	0x7
 723 009e 97000000 		.4byte	.LASF13
 724 00a2 03       		.uleb128 0x3
 725 00a3 16060000 		.4byte	.LASF14
 726 00a7 05       		.byte	0x5
 727 00a8 2A       		.byte	0x2a
 728 00a9 45000000 		.4byte	0x45
 729 00ad 03       		.uleb128 0x3
 730 00ae 7B040000 		.4byte	.LASF15
 731 00b2 05       		.byte	0x5
 732 00b3 41       		.byte	0x41
 733 00b4 65000000 		.4byte	0x65
 734 00b8 03       		.uleb128 0x3
 735 00b9 22050000 		.4byte	.LASF16
 736 00bd 05       		.byte	0x5
 737 00be 42       		.byte	0x42
 738 00bf 77000000 		.4byte	0x77
 739 00c3 03       		.uleb128 0x3
 740 00c4 32000000 		.4byte	.LASF17
 741 00c8 05       		.byte	0x5
 742 00c9 4E       		.byte	0x4e
 743 00ca 90000000 		.4byte	0x90
 744 00ce 05       		.uleb128 0x5
 745 00cf AD000000 		.4byte	0xad
 746 00d3 03       		.uleb128 0x3
 747 00d4 C1050000 		.4byte	.LASF18
 748 00d8 06       		.byte	0x6
 749 00d9 45       		.byte	0x45
 750 00da B8000000 		.4byte	0xb8
 751 00de 03       		.uleb128 0x3
 752 00df 00010000 		.4byte	.LASF19
 753 00e3 06       		.byte	0x6
 754 00e4 46       		.byte	0x46
 755 00e5 C3000000 		.4byte	0xc3
 756 00e9 03       		.uleb128 0x3
 757 00ea 00030000 		.4byte	.LASF20
 758 00ee 06       		.byte	0x6
 759 00ef 48       		.byte	0x48
 760 00f0 A2000000 		.4byte	0xa2
 761 00f4 03       		.uleb128 0x3
 762 00f5 74010000 		.4byte	.LASF21
 763 00f9 06       		.byte	0x6
 764 00fa 49       		.byte	0x49
 765 00fb A2000000 		.4byte	0xa2
 766 00ff 03       		.uleb128 0x3
 767 0100 2C040000 		.4byte	.LASF22
 768 0104 06       		.byte	0x6
 769 0105 4A       		.byte	0x4a
 770 0106 A2000000 		.4byte	0xa2
 771 010a 03       		.uleb128 0x3
 772 010b 5D040000 		.4byte	.LASF23
 773 010f 06       		.byte	0x6
 774 0110 4C       		.byte	0x4c
 775 0111 B8000000 		.4byte	0xb8
 776 0115 03       		.uleb128 0x3
 777 0116 C7020000 		.4byte	.LASF24
ARM GAS  /var/folders/c6/c789hm653lg9vtl73krp73tm0000gn/T//ccGBNNCQ.s 			page 41


 778 011a 06       		.byte	0x6
 779 011b 4D       		.byte	0x4d
 780 011c AD000000 		.4byte	0xad
 781 0120 03       		.uleb128 0x3
 782 0121 21030000 		.4byte	.LASF25
 783 0125 06       		.byte	0x6
 784 0126 4F       		.byte	0x4f
 785 0127 B8000000 		.4byte	0xb8
 786 012b 03       		.uleb128 0x3
 787 012c E4010000 		.4byte	.LASF26
 788 0130 06       		.byte	0x6
 789 0131 51       		.byte	0x51
 790 0132 AD000000 		.4byte	0xad
 791 0136 03       		.uleb128 0x3
 792 0137 D2020000 		.4byte	.LASF27
 793 013b 06       		.byte	0x6
 794 013c 52       		.byte	0x52
 795 013d B8000000 		.4byte	0xb8
 796 0141 03       		.uleb128 0x3
 797 0142 7F050000 		.4byte	.LASF28
 798 0146 07       		.byte	0x7
 799 0147 33       		.byte	0x33
 800 0148 B8000000 		.4byte	0xb8
 801 014c 03       		.uleb128 0x3
 802 014d 6A050000 		.4byte	.LASF29
 803 0151 07       		.byte	0x7
 804 0152 3F       		.byte	0x3f
 805 0153 57010000 		.4byte	0x157
 806 0157 06       		.uleb128 0x6
 807 0158 BD020000 		.4byte	.LASF51
 808 015c 60       		.byte	0x60
 809 015d 08       		.byte	0x8
 810 015e C2       		.byte	0xc2
 811 015f 5D020000 		.4byte	0x25d
 812 0163 07       		.uleb128 0x7
 813 0164 CC040000 		.4byte	.LASF30
 814 0168 08       		.byte	0x8
 815 0169 C3       		.byte	0xc3
 816 016a 68020000 		.4byte	0x268
 817 016e 00       		.byte	0
 818 016f 07       		.uleb128 0x7
 819 0170 4E040000 		.4byte	.LASF31
 820 0174 08       		.byte	0x8
 821 0175 C5       		.byte	0xc5
 822 0176 68020000 		.4byte	0x268
 823 017a 04       		.byte	0x4
 824 017b 07       		.uleb128 0x7
 825 017c 09010000 		.4byte	.LASF32
 826 0180 08       		.byte	0x8
 827 0181 C7       		.byte	0xc7
 828 0182 0A010000 		.4byte	0x10a
 829 0186 08       		.byte	0x8
 830 0187 07       		.uleb128 0x7
 831 0188 58070000 		.4byte	.LASF33
 832 018c 08       		.byte	0x8
 833 018d C8       		.byte	0xc8
 834 018e D1040000 		.4byte	0x4d1
ARM GAS  /var/folders/c6/c789hm653lg9vtl73krp73tm0000gn/T//ccGBNNCQ.s 			page 42


 835 0192 0C       		.byte	0xc
 836 0193 07       		.uleb128 0x7
 837 0194 83010000 		.4byte	.LASF34
 838 0198 08       		.byte	0x8
 839 0199 CA       		.byte	0xca
 840 019a 68020000 		.4byte	0x268
 841 019e 10       		.byte	0x10
 842 019f 07       		.uleb128 0x7
 843 01a0 C8030000 		.4byte	.LASF35
 844 01a4 08       		.byte	0x8
 845 01a5 CB       		.byte	0xcb
 846 01a6 68020000 		.4byte	0x268
 847 01aa 14       		.byte	0x14
 848 01ab 07       		.uleb128 0x7
 849 01ac 32060000 		.4byte	.LASF36
 850 01b0 08       		.byte	0x8
 851 01b1 D2       		.byte	0xd2
 852 01b2 75070000 		.4byte	0x775
 853 01b6 18       		.byte	0x18
 854 01b7 07       		.uleb128 0x7
 855 01b8 EA010000 		.4byte	.LASF37
 856 01bc 08       		.byte	0x8
 857 01bd D8       		.byte	0xd8
 858 01be 87070000 		.4byte	0x787
 859 01c2 1C       		.byte	0x1c
 860 01c3 07       		.uleb128 0x7
 861 01c4 A5040000 		.4byte	.LASF38
 862 01c8 08       		.byte	0x8
 863 01c9 DD       		.byte	0xdd
 864 01ca F4000000 		.4byte	0xf4
 865 01ce 20       		.byte	0x20
 866 01cf 07       		.uleb128 0x7
 867 01d0 D3040000 		.4byte	.LASF39
 868 01d4 08       		.byte	0x8
 869 01d5 E1       		.byte	0xe1
 870 01d6 E9000000 		.4byte	0xe9
 871 01da 21       		.byte	0x21
 872 01db 07       		.uleb128 0x7
 873 01dc F3050000 		.4byte	.LASF40
 874 01e0 08       		.byte	0x8
 875 01e1 E6       		.byte	0xe6
 876 01e2 FF000000 		.4byte	0xff
 877 01e6 22       		.byte	0x22
 878 01e7 08       		.uleb128 0x8
 879 01e8 705F7500 		.ascii	"p_u\000"
 880 01ec 08       		.byte	0x8
 881 01ed 3101     		.2byte	0x131
 882 01ef B0060000 		.4byte	0x6b0
 883 01f3 24       		.byte	0x24
 884 01f4 09       		.uleb128 0x9
 885 01f5 54030000 		.4byte	.LASF41
 886 01f9 08       		.byte	0x8
 887 01fa 3601     		.2byte	0x136
 888 01fc 6E020000 		.4byte	0x26e
 889 0200 28       		.byte	0x28
 890 0201 09       		.uleb128 0x9
 891 0202 11020000 		.4byte	.LASF42
ARM GAS  /var/folders/c6/c789hm653lg9vtl73krp73tm0000gn/T//ccGBNNCQ.s 			page 43


 892 0206 08       		.byte	0x8
 893 0207 3C01     		.2byte	0x13c
 894 0209 92020000 		.4byte	0x292
 895 020d 2C       		.byte	0x2c
 896 020e 09       		.uleb128 0x9
 897 020f 35070000 		.4byte	.LASF43
 898 0213 08       		.byte	0x8
 899 0214 4001     		.2byte	0x140
 900 0216 15010000 		.4byte	0x115
 901 021a 34       		.byte	0x34
 902 021b 09       		.uleb128 0x9
 903 021c 17050000 		.4byte	.LASF44
 904 0220 08       		.byte	0x8
 905 0221 4601     		.2byte	0x146
 906 0223 20010000 		.4byte	0x120
 907 0227 38       		.byte	0x38
 908 0228 09       		.uleb128 0x9
 909 0229 91040000 		.4byte	.LASF45
 910 022d 08       		.byte	0x8
 911 022e 4D01     		.2byte	0x14d
 912 0230 6F070000 		.4byte	0x76f
 913 0234 3C       		.byte	0x3c
 914 0235 09       		.uleb128 0x9
 915 0236 89050000 		.4byte	.LASF46
 916 023a 08       		.byte	0x8
 917 023b 5101     		.2byte	0x151
 918 023d 0A010000 		.4byte	0x10a
 919 0241 40       		.byte	0x40
 920 0242 09       		.uleb128 0x9
 921 0243 2A010000 		.4byte	.LASF47
 922 0247 08       		.byte	0x8
 923 0248 5801     		.2byte	0x158
 924 024a 45030000 		.4byte	0x345
 925 024e 44       		.byte	0x44
 926 024f 09       		.uleb128 0x9
 927 0250 DB040000 		.4byte	.LASF48
 928 0254 08       		.byte	0x8
 929 0255 5E01     		.2byte	0x15e
 930 0257 61060000 		.4byte	0x661
 931 025b 48       		.byte	0x48
 932 025c 00       		.byte	0
 933 025d 03       		.uleb128 0x3
 934 025e 72030000 		.4byte	.LASF49
 935 0262 07       		.byte	0x7
 936 0263 44       		.byte	0x44
 937 0264 68020000 		.4byte	0x268
 938 0268 0A       		.uleb128 0xa
 939 0269 04       		.byte	0x4
 940 026a 4C010000 		.4byte	0x14c
 941 026e 03       		.uleb128 0x3
 942 026f 39060000 		.4byte	.LASF50
 943 0273 07       		.byte	0x7
 944 0274 49       		.byte	0x49
 945 0275 79020000 		.4byte	0x279
 946 0279 06       		.uleb128 0x6
 947 027a 43050000 		.4byte	.LASF52
 948 027e 04       		.byte	0x4
ARM GAS  /var/folders/c6/c789hm653lg9vtl73krp73tm0000gn/T//ccGBNNCQ.s 			page 44


 949 027f 08       		.byte	0x8
 950 0280 B0       		.byte	0xb0
 951 0281 92020000 		.4byte	0x292
 952 0285 07       		.uleb128 0x7
 953 0286 CC040000 		.4byte	.LASF30
 954 028a 08       		.byte	0x8
 955 028b B1       		.byte	0xb1
 956 028c 68020000 		.4byte	0x268
 957 0290 00       		.byte	0
 958 0291 00       		.byte	0
 959 0292 03       		.uleb128 0x3
 960 0293 DA050000 		.4byte	.LASF53
 961 0297 07       		.byte	0x7
 962 0298 50       		.byte	0x50
 963 0299 9D020000 		.4byte	0x29d
 964 029d 06       		.uleb128 0x6
 965 029e 5E000000 		.4byte	.LASF54
 966 02a2 08       		.byte	0x8
 967 02a3 08       		.byte	0x8
 968 02a4 B7       		.byte	0xb7
 969 02a5 C2020000 		.4byte	0x2c2
 970 02a9 07       		.uleb128 0x7
 971 02aa CC040000 		.4byte	.LASF30
 972 02ae 08       		.byte	0x8
 973 02af B8       		.byte	0xb8
 974 02b0 68020000 		.4byte	0x268
 975 02b4 00       		.byte	0
 976 02b5 07       		.uleb128 0x7
 977 02b6 4E040000 		.4byte	.LASF31
 978 02ba 08       		.byte	0x8
 979 02bb B9       		.byte	0xb9
 980 02bc 68020000 		.4byte	0x268
 981 02c0 04       		.byte	0x4
 982 02c1 00       		.byte	0
 983 02c2 03       		.uleb128 0x3
 984 02c3 0F000000 		.4byte	.LASF55
 985 02c7 07       		.byte	0x7
 986 02c8 57       		.byte	0x57
 987 02c9 CD020000 		.4byte	0x2cd
 988 02cd 0B       		.uleb128 0xb
 989 02ce 13030000 		.4byte	.LASF56
 990 02d2 1C       		.byte	0x1c
 991 02d3 08       		.byte	0x8
 992 02d4 9001     		.2byte	0x190
 993 02d6 29030000 		.4byte	0x329
 994 02da 09       		.uleb128 0x9
 995 02db 32050000 		.4byte	.LASF57
 996 02df 08       		.byte	0x8
 997 02e0 9101     		.2byte	0x191
 998 02e2 92020000 		.4byte	0x292
 999 02e6 00       		.byte	0
 1000 02e7 09       		.uleb128 0x9
 1001 02e8 B5040000 		.4byte	.LASF58
 1002 02ec 08       		.byte	0x8
 1003 02ed 9201     		.2byte	0x192
 1004 02ef 0A010000 		.4byte	0x10a
 1005 02f3 08       		.byte	0x8
ARM GAS  /var/folders/c6/c789hm653lg9vtl73krp73tm0000gn/T//ccGBNNCQ.s 			page 45


 1006 02f4 09       		.uleb128 0x9
 1007 02f5 D0030000 		.4byte	.LASF59
 1008 02f9 08       		.byte	0x8
 1009 02fa 9401     		.2byte	0x194
 1010 02fc D1040000 		.4byte	0x4d1
 1011 0300 0C       		.byte	0xc
 1012 0301 09       		.uleb128 0x9
 1013 0302 9B010000 		.4byte	.LASF60
 1014 0306 08       		.byte	0x8
 1015 0307 9701     		.2byte	0x197
 1016 0309 68020000 		.4byte	0x268
 1017 030d 10       		.byte	0x10
 1018 030e 09       		.uleb128 0x9
 1019 030f 0E040000 		.4byte	.LASF61
 1020 0313 08       		.byte	0x8
 1021 0314 9801     		.2byte	0x198
 1022 0316 68020000 		.4byte	0x268
 1023 031a 14       		.byte	0x14
 1024 031b 09       		.uleb128 0x9
 1025 031c 04040000 		.4byte	.LASF62
 1026 0320 08       		.byte	0x8
 1027 0321 9B01     		.2byte	0x19b
 1028 0323 68020000 		.4byte	0x268
 1029 0327 18       		.byte	0x18
 1030 0328 00       		.byte	0
 1031 0329 03       		.uleb128 0x3
 1032 032a 94050000 		.4byte	.LASF63
 1033 032e 07       		.byte	0x7
 1034 032f 5C       		.byte	0x5c
 1035 0330 34030000 		.4byte	0x334
 1036 0334 0A       		.uleb128 0xa
 1037 0335 04       		.byte	0x4
 1038 0336 3A030000 		.4byte	0x33a
 1039 033a 0C       		.uleb128 0xc
 1040 033b 45030000 		.4byte	0x345
 1041 033f 0D       		.uleb128 0xd
 1042 0340 45030000 		.4byte	0x345
 1043 0344 00       		.byte	0
 1044 0345 0E       		.uleb128 0xe
 1045 0346 04       		.byte	0x4
 1046 0347 03       		.uleb128 0x3
 1047 0348 3E040000 		.4byte	.LASF64
 1048 034c 07       		.byte	0x7
 1049 034d 61       		.byte	0x61
 1050 034e 52030000 		.4byte	0x352
 1051 0352 0B       		.uleb128 0xb
 1052 0353 E3040000 		.4byte	.LASF65
 1053 0357 14       		.byte	0x14
 1054 0358 08       		.byte	0x8
 1055 0359 6B01     		.2byte	0x16b
 1056 035b A1030000 		.4byte	0x3a1
 1057 035f 09       		.uleb128 0x9
 1058 0360 02020000 		.4byte	.LASF66
 1059 0364 08       		.byte	0x8
 1060 0365 6C01     		.2byte	0x16c
 1061 0367 8D070000 		.4byte	0x78d
 1062 036b 00       		.byte	0
ARM GAS  /var/folders/c6/c789hm653lg9vtl73krp73tm0000gn/T//ccGBNNCQ.s 			page 46


 1063 036c 09       		.uleb128 0x9
 1064 036d AC010000 		.4byte	.LASF67
 1065 0371 08       		.byte	0x8
 1066 0372 6D01     		.2byte	0x16d
 1067 0374 8D070000 		.4byte	0x78d
 1068 0378 04       		.byte	0x4
 1069 0379 09       		.uleb128 0x9
 1070 037a 3A050000 		.4byte	.LASF68
 1071 037e 08       		.byte	0x8
 1072 037f 6E01     		.2byte	0x16e
 1073 0381 41010000 		.4byte	0x141
 1074 0385 08       		.byte	0x8
 1075 0386 09       		.uleb128 0x9
 1076 0387 5E070000 		.4byte	.LASF69
 1077 038b 08       		.byte	0x8
 1078 038c 6F01     		.2byte	0x16f
 1079 038e 29030000 		.4byte	0x329
 1080 0392 0C       		.byte	0xc
 1081 0393 09       		.uleb128 0x9
 1082 0394 C9050000 		.4byte	.LASF70
 1083 0398 08       		.byte	0x8
 1084 0399 7101     		.2byte	0x171
 1085 039b 45030000 		.4byte	0x345
 1086 039f 10       		.byte	0x10
 1087 03a0 00       		.byte	0
 1088 03a1 03       		.uleb128 0x3
 1089 03a2 DD000000 		.4byte	.LASF71
 1090 03a6 07       		.byte	0x7
 1091 03a7 66       		.byte	0x66
 1092 03a8 AC030000 		.4byte	0x3ac
 1093 03ac 0B       		.uleb128 0xb
 1094 03ad 96030000 		.4byte	.LASF72
 1095 03b1 10       		.byte	0x10
 1096 03b2 08       		.byte	0x8
 1097 03b3 7B01     		.2byte	0x17b
 1098 03b5 EE030000 		.4byte	0x3ee
 1099 03b9 09       		.uleb128 0x9
 1100 03ba 02020000 		.4byte	.LASF66
 1101 03be 08       		.byte	0x8
 1102 03bf 7C01     		.2byte	0x17c
 1103 03c1 8D070000 		.4byte	0x78d
 1104 03c5 00       		.byte	0
 1105 03c6 09       		.uleb128 0x9
 1106 03c7 AC010000 		.4byte	.LASF67
 1107 03cb 08       		.byte	0x8
 1108 03cc 7E01     		.2byte	0x17e
 1109 03ce 8D070000 		.4byte	0x78d
 1110 03d2 04       		.byte	0x4
 1111 03d3 09       		.uleb128 0x9
 1112 03d4 3A050000 		.4byte	.LASF68
 1113 03d8 08       		.byte	0x8
 1114 03d9 8001     		.2byte	0x180
 1115 03db 41010000 		.4byte	0x141
 1116 03df 08       		.byte	0x8
 1117 03e0 09       		.uleb128 0x9
 1118 03e1 BC030000 		.4byte	.LASF73
 1119 03e5 08       		.byte	0x8
ARM GAS  /var/folders/c6/c789hm653lg9vtl73krp73tm0000gn/T//ccGBNNCQ.s 			page 47


 1120 03e6 8801     		.2byte	0x188
 1121 03e8 41010000 		.4byte	0x141
 1122 03ec 0C       		.byte	0xc
 1123 03ed 00       		.byte	0
 1124 03ee 03       		.uleb128 0x3
 1125 03ef 6F000000 		.4byte	.LASF74
 1126 03f3 07       		.byte	0x7
 1127 03f4 6B       		.byte	0x6b
 1128 03f5 F9030000 		.4byte	0x3f9
 1129 03f9 0F       		.uleb128 0xf
 1130 03fa B4010000 		.4byte	.LASF75
 1131 03fe 1404     		.2byte	0x414
 1132 0400 08       		.byte	0x8
 1133 0401 A201     		.2byte	0x1a2
 1134 0403 3C040000 		.4byte	0x43c
 1135 0407 09       		.uleb128 0x9
 1136 0408 A8050000 		.4byte	.LASF76
 1137 040c 08       		.byte	0x8
 1138 040d AA01     		.2byte	0x1aa
 1139 040f 93070000 		.4byte	0x793
 1140 0413 00       		.byte	0
 1141 0414 09       		.uleb128 0x9
 1142 0415 FA050000 		.4byte	.LASF77
 1143 0419 08       		.byte	0x8
 1144 041a AF01     		.2byte	0x1af
 1145 041c 2B010000 		.4byte	0x12b
 1146 0420 04       		.byte	0x4
 1147 0421 09       		.uleb128 0x9
 1148 0422 CC010000 		.4byte	.LASF78
 1149 0426 08       		.byte	0x8
 1150 0427 B301     		.2byte	0x1b3
 1151 0429 2B010000 		.4byte	0x12b
 1152 042d 08       		.byte	0x8
 1153 042e 09       		.uleb128 0x9
 1154 042f 48060000 		.4byte	.LASF79
 1155 0433 08       		.byte	0x8
 1156 0434 B901     		.2byte	0x1b9
 1157 0436 F3050000 		.4byte	0x5f3
 1158 043a 0C       		.byte	0xc
 1159 043b 00       		.byte	0
 1160 043c 03       		.uleb128 0x3
 1161 043d D9020000 		.4byte	.LASF80
 1162 0441 07       		.byte	0x7
 1163 0442 70       		.byte	0x70
 1164 0443 47040000 		.4byte	0x447
 1165 0447 0F       		.uleb128 0xf
 1166 0448 57010000 		.4byte	.LASF81
 1167 044c D805     		.2byte	0x5d8
 1168 044e 08       		.byte	0x8
 1169 044f C201     		.2byte	0x1c2
 1170 0451 B4040000 		.4byte	0x4b4
 1171 0455 09       		.uleb128 0x9
 1172 0456 02060000 		.4byte	.LASF82
 1173 045a 08       		.byte	0x8
 1174 045b C601     		.2byte	0x1c6
 1175 045d C2020000 		.4byte	0x2c2
 1176 0461 00       		.byte	0
ARM GAS  /var/folders/c6/c789hm653lg9vtl73krp73tm0000gn/T//ccGBNNCQ.s 			page 48


 1177 0462 09       		.uleb128 0x9
 1178 0463 4A010000 		.4byte	.LASF83
 1179 0467 08       		.byte	0x8
 1180 0468 CA01     		.2byte	0x1ca
 1181 046a A1030000 		.4byte	0x3a1
 1182 046e 1C       		.byte	0x1c
 1183 046f 08       		.uleb128 0x8
 1184 0470 64626700 		.ascii	"dbg\000"
 1185 0474 08       		.byte	0x8
 1186 0475 CE01     		.2byte	0x1ce
 1187 0477 EE030000 		.4byte	0x3ee
 1188 047b 2C       		.byte	0x2c
 1189 047c 10       		.uleb128 0x10
 1190 047d D2000000 		.4byte	.LASF84
 1191 0481 08       		.byte	0x8
 1192 0482 D201     		.2byte	0x1d2
 1193 0484 4C010000 		.4byte	0x14c
 1194 0488 4004     		.2byte	0x440
 1195 048a 11       		.uleb128 0x11
 1196 048b 746D00   		.ascii	"tm\000"
 1197 048e 08       		.byte	0x8
 1198 048f D701     		.2byte	0x1d7
 1199 0491 13060000 		.4byte	0x613
 1200 0495 A004     		.2byte	0x4a0
 1201 0497 10       		.uleb128 0x10
 1202 0498 3B000000 		.4byte	.LASF85
 1203 049c 08       		.byte	0x8
 1204 049d DD01     		.2byte	0x1dd
 1205 049f A5060000 		.4byte	0x6a5
 1206 04a3 A804     		.2byte	0x4a8
 1207 04a5 10       		.uleb128 0x10
 1208 04a6 D5010000 		.4byte	.LASF86
 1209 04aa 08       		.byte	0x8
 1210 04ab E301     		.2byte	0x1e3
 1211 04ad 98070000 		.4byte	0x798
 1212 04b1 E004     		.2byte	0x4e0
 1213 04b3 00       		.byte	0
 1214 04b4 04       		.uleb128 0x4
 1215 04b5 04       		.byte	0x4
 1216 04b6 07       		.byte	0x7
 1217 04b7 69030000 		.4byte	.LASF87
 1218 04bb 03       		.uleb128 0x3
 1219 04bc A3010000 		.4byte	.LASF88
 1220 04c0 09       		.byte	0x9
 1221 04c1 65       		.byte	0x65
 1222 04c2 45030000 		.4byte	0x345
 1223 04c6 03       		.uleb128 0x3
 1224 04c7 37030000 		.4byte	.LASF89
 1225 04cb 09       		.byte	0x9
 1226 04cc 6D       		.byte	0x6d
 1227 04cd C3000000 		.4byte	0xc3
 1228 04d1 06       		.uleb128 0x6
 1229 04d2 B9050000 		.4byte	.LASF90
 1230 04d6 04       		.byte	0x4
 1231 04d7 09       		.byte	0x9
 1232 04d8 89       		.byte	0x89
 1233 04d9 EA040000 		.4byte	0x4ea
ARM GAS  /var/folders/c6/c789hm653lg9vtl73krp73tm0000gn/T//ccGBNNCQ.s 			page 49


 1234 04dd 12       		.uleb128 0x12
 1235 04de 72313300 		.ascii	"r13\000"
 1236 04e2 09       		.byte	0x9
 1237 04e3 8A       		.byte	0x8a
 1238 04e4 65050000 		.4byte	0x565
 1239 04e8 00       		.byte	0
 1240 04e9 00       		.byte	0
 1241 04ea 06       		.uleb128 0x6
 1242 04eb 52000000 		.4byte	.LASF91
 1243 04ef 24       		.byte	0x24
 1244 04f0 0A       		.byte	0xa
 1245 04f1 F4       		.byte	0xf4
 1246 04f2 65050000 		.4byte	0x565
 1247 04f6 08       		.uleb128 0x8
 1248 04f7 723400   		.ascii	"r4\000"
 1249 04fa 0A       		.byte	0xa
 1250 04fb 0701     		.2byte	0x107
 1251 04fd BB040000 		.4byte	0x4bb
 1252 0501 00       		.byte	0
 1253 0502 08       		.uleb128 0x8
 1254 0503 723500   		.ascii	"r5\000"
 1255 0506 0A       		.byte	0xa
 1256 0507 0801     		.2byte	0x108
 1257 0509 BB040000 		.4byte	0x4bb
 1258 050d 04       		.byte	0x4
 1259 050e 08       		.uleb128 0x8
 1260 050f 723600   		.ascii	"r6\000"
 1261 0512 0A       		.byte	0xa
 1262 0513 0901     		.2byte	0x109
 1263 0515 BB040000 		.4byte	0x4bb
 1264 0519 08       		.byte	0x8
 1265 051a 08       		.uleb128 0x8
 1266 051b 723700   		.ascii	"r7\000"
 1267 051e 0A       		.byte	0xa
 1268 051f 0A01     		.2byte	0x10a
 1269 0521 BB040000 		.4byte	0x4bb
 1270 0525 0C       		.byte	0xc
 1271 0526 08       		.uleb128 0x8
 1272 0527 723800   		.ascii	"r8\000"
 1273 052a 0A       		.byte	0xa
 1274 052b 0B01     		.2byte	0x10b
 1275 052d BB040000 		.4byte	0x4bb
 1276 0531 10       		.byte	0x10
 1277 0532 08       		.uleb128 0x8
 1278 0533 723900   		.ascii	"r9\000"
 1279 0536 0A       		.byte	0xa
 1280 0537 0C01     		.2byte	0x10c
 1281 0539 BB040000 		.4byte	0x4bb
 1282 053d 14       		.byte	0x14
 1283 053e 08       		.uleb128 0x8
 1284 053f 72313000 		.ascii	"r10\000"
 1285 0543 0A       		.byte	0xa
 1286 0544 0D01     		.2byte	0x10d
 1287 0546 BB040000 		.4byte	0x4bb
 1288 054a 18       		.byte	0x18
 1289 054b 08       		.uleb128 0x8
 1290 054c 72313100 		.ascii	"r11\000"
ARM GAS  /var/folders/c6/c789hm653lg9vtl73krp73tm0000gn/T//ccGBNNCQ.s 			page 50


 1291 0550 0A       		.byte	0xa
 1292 0551 0E01     		.2byte	0x10e
 1293 0553 BB040000 		.4byte	0x4bb
 1294 0557 1C       		.byte	0x1c
 1295 0558 08       		.uleb128 0x8
 1296 0559 6C7200   		.ascii	"lr\000"
 1297 055c 0A       		.byte	0xa
 1298 055d 0F01     		.2byte	0x10f
 1299 055f BB040000 		.4byte	0x4bb
 1300 0563 20       		.byte	0x20
 1301 0564 00       		.byte	0
 1302 0565 0A       		.uleb128 0xa
 1303 0566 04       		.byte	0x4
 1304 0567 EA040000 		.4byte	0x4ea
 1305 056b 13       		.uleb128 0x13
 1306 056c 10       		.byte	0x10
 1307 056d 0B       		.byte	0xb
 1308 056e 51       		.byte	0x51
 1309 056f A4050000 		.4byte	0x5a4
 1310 0573 07       		.uleb128 0x7
 1311 0574 1C000000 		.4byte	.LASF92
 1312 0578 0B       		.byte	0xb
 1313 0579 55       		.byte	0x55
 1314 057a 41010000 		.4byte	0x141
 1315 057e 00       		.byte	0
 1316 057f 07       		.uleb128 0x7
 1317 0580 7D010000 		.4byte	.LASF93
 1318 0584 0B       		.byte	0xb
 1319 0585 59       		.byte	0x59
 1320 0586 68020000 		.4byte	0x268
 1321 058a 04       		.byte	0x4
 1322 058b 07       		.uleb128 0x7
 1323 058c 4E070000 		.4byte	.LASF94
 1324 0590 0B       		.byte	0xb
 1325 0591 5D       		.byte	0x5d
 1326 0592 45030000 		.4byte	0x345
 1327 0596 08       		.byte	0x8
 1328 0597 07       		.uleb128 0x7
 1329 0598 C0000000 		.4byte	.LASF95
 1330 059c 0B       		.byte	0xb
 1331 059d 61       		.byte	0x61
 1332 059e A2000000 		.4byte	0xa2
 1333 05a2 0C       		.byte	0xc
 1334 05a3 00       		.byte	0
 1335 05a4 03       		.uleb128 0x3
 1336 05a5 AD030000 		.4byte	.LASF96
 1337 05a9 0B       		.byte	0xb
 1338 05aa 62       		.byte	0x62
 1339 05ab 6B050000 		.4byte	0x56b
 1340 05af 14       		.uleb128 0x14
 1341 05b0 0804     		.2byte	0x408
 1342 05b2 0B       		.byte	0xb
 1343 05b3 67       		.byte	0x67
 1344 05b4 DD050000 		.4byte	0x5dd
 1345 05b8 07       		.uleb128 0x7
 1346 05b9 93010000 		.4byte	.LASF97
 1347 05bd 0B       		.byte	0xb
ARM GAS  /var/folders/c6/c789hm653lg9vtl73krp73tm0000gn/T//ccGBNNCQ.s 			page 51


 1348 05be 6B       		.byte	0x6b
 1349 05bf 37000000 		.4byte	0x37
 1350 05c3 00       		.byte	0
 1351 05c4 07       		.uleb128 0x7
 1352 05c5 08000000 		.4byte	.LASF98
 1353 05c9 0B       		.byte	0xb
 1354 05ca 6F       		.byte	0x6f
 1355 05cb DD050000 		.4byte	0x5dd
 1356 05cf 04       		.byte	0x4
 1357 05d0 07       		.uleb128 0x7
 1358 05d1 34040000 		.4byte	.LASF99
 1359 05d5 0B       		.byte	0xb
 1360 05d6 73       		.byte	0x73
 1361 05d7 E3050000 		.4byte	0x5e3
 1362 05db 08       		.byte	0x8
 1363 05dc 00       		.byte	0
 1364 05dd 0A       		.uleb128 0xa
 1365 05de 04       		.byte	0x4
 1366 05df A4050000 		.4byte	0x5a4
 1367 05e3 15       		.uleb128 0x15
 1368 05e4 A4050000 		.4byte	0x5a4
 1369 05e8 F3050000 		.4byte	0x5f3
 1370 05ec 16       		.uleb128 0x16
 1371 05ed B4040000 		.4byte	0x4b4
 1372 05f1 3F       		.byte	0x3f
 1373 05f2 00       		.byte	0
 1374 05f3 03       		.uleb128 0x3
 1375 05f4 AE000000 		.4byte	.LASF100
 1376 05f8 0B       		.byte	0xb
 1377 05f9 74       		.byte	0x74
 1378 05fa AF050000 		.4byte	0x5af
 1379 05fe 13       		.uleb128 0x13
 1380 05ff 04       		.byte	0x4
 1381 0600 0C       		.byte	0xc
 1382 0601 38       		.byte	0x38
 1383 0602 13060000 		.4byte	0x613
 1384 0606 07       		.uleb128 0x7
 1385 0607 B2050000 		.4byte	.LASF101
 1386 060b 0C       		.byte	0xc
 1387 060c 3C       		.byte	0x3c
 1388 060d D3000000 		.4byte	0xd3
 1389 0611 00       		.byte	0
 1390 0612 00       		.byte	0
 1391 0613 03       		.uleb128 0x3
 1392 0614 85030000 		.4byte	.LASF102
 1393 0618 0C       		.byte	0xc
 1394 0619 3D       		.byte	0x3d
 1395 061a FE050000 		.4byte	0x5fe
 1396 061e 13       		.uleb128 0x13
 1397 061f 18       		.byte	0x18
 1398 0620 0C       		.byte	0xc
 1399 0621 48       		.byte	0x48
 1400 0622 61060000 		.4byte	0x661
 1401 0626 07       		.uleb128 0x7
 1402 0627 73050000 		.4byte	.LASF103
 1403 062b 0C       		.byte	0xc
 1404 062c 49       		.byte	0x49
ARM GAS  /var/folders/c6/c789hm653lg9vtl73krp73tm0000gn/T//ccGBNNCQ.s 			page 52


 1405 062d D3000000 		.4byte	0xd3
 1406 0631 00       		.byte	0
 1407 0632 07       		.uleb128 0x7
 1408 0633 7E000000 		.4byte	.LASF104
 1409 0637 0C       		.byte	0xc
 1410 0638 4A       		.byte	0x4a
 1411 0639 D3000000 		.4byte	0xd3
 1412 063d 04       		.byte	0x4
 1413 063e 07       		.uleb128 0x7
 1414 063f CD020000 		.4byte	.LASF105
 1415 0643 0C       		.byte	0xc
 1416 0644 4B       		.byte	0x4b
 1417 0645 D3000000 		.4byte	0xd3
 1418 0649 08       		.byte	0x8
 1419 064a 12       		.uleb128 0x12
 1420 064b 6E00     		.ascii	"n\000"
 1421 064d 0C       		.byte	0xc
 1422 064e 4C       		.byte	0x4c
 1423 064f 36010000 		.4byte	0x136
 1424 0653 0C       		.byte	0xc
 1425 0654 07       		.uleb128 0x7
 1426 0655 21040000 		.4byte	.LASF106
 1427 0659 0C       		.byte	0xc
 1428 065a 4D       		.byte	0x4d
 1429 065b DE000000 		.4byte	0xde
 1430 065f 10       		.byte	0x10
 1431 0660 00       		.byte	0
 1432 0661 03       		.uleb128 0x3
 1433 0662 84000000 		.4byte	.LASF107
 1434 0666 0C       		.byte	0xc
 1435 0667 4E       		.byte	0x4e
 1436 0668 1E060000 		.4byte	0x61e
 1437 066c 13       		.uleb128 0x13
 1438 066d 38       		.byte	0x38
 1439 066e 0D       		.byte	0xd
 1440 066f 38       		.byte	0x38
 1441 0670 A5060000 		.4byte	0x6a5
 1442 0674 07       		.uleb128 0x7
 1443 0675 2E020000 		.4byte	.LASF108
 1444 0679 0D       		.byte	0xd
 1445 067a 39       		.byte	0x39
 1446 067b 36010000 		.4byte	0x136
 1447 067f 00       		.byte	0
 1448 0680 07       		.uleb128 0x7
 1449 0681 6C040000 		.4byte	.LASF109
 1450 0685 0D       		.byte	0xd
 1451 0686 3A       		.byte	0x3a
 1452 0687 36010000 		.4byte	0x136
 1453 068b 04       		.byte	0x4
 1454 068c 07       		.uleb128 0x7
 1455 068d 3B070000 		.4byte	.LASF110
 1456 0691 0D       		.byte	0xd
 1457 0692 3B       		.byte	0x3b
 1458 0693 61060000 		.4byte	0x661
 1459 0697 08       		.byte	0x8
 1460 0698 07       		.uleb128 0x7
 1461 0699 08030000 		.4byte	.LASF111
ARM GAS  /var/folders/c6/c789hm653lg9vtl73krp73tm0000gn/T//ccGBNNCQ.s 			page 53


 1462 069d 0D       		.byte	0xd
 1463 069e 3D       		.byte	0x3d
 1464 069f 61060000 		.4byte	0x661
 1465 06a3 20       		.byte	0x20
 1466 06a4 00       		.byte	0
 1467 06a5 03       		.uleb128 0x3
 1468 06a6 AE020000 		.4byte	.LASF112
 1469 06aa 0D       		.byte	0xd
 1470 06ab 3F       		.byte	0x3f
 1471 06ac 6C060000 		.4byte	0x66c
 1472 06b0 17       		.uleb128 0x17
 1473 06b1 04       		.byte	0x4
 1474 06b2 08       		.byte	0x8
 1475 06b3 FA       		.byte	0xfa
 1476 06b4 0D070000 		.4byte	0x70d
 1477 06b8 18       		.uleb128 0x18
 1478 06b9 2B000000 		.4byte	.LASF113
 1479 06bd 08       		.byte	0x8
 1480 06be 0101     		.2byte	0x101
 1481 06c0 15010000 		.4byte	0x115
 1482 06c4 18       		.uleb128 0x18
 1483 06c5 C9000000 		.4byte	.LASF114
 1484 06c9 08       		.byte	0x8
 1485 06ca 0801     		.2byte	0x108
 1486 06cc 15010000 		.4byte	0x115
 1487 06d0 18       		.uleb128 0x18
 1488 06d1 2B060000 		.4byte	.LASF115
 1489 06d5 08       		.byte	0x8
 1490 06d6 0F01     		.2byte	0x10f
 1491 06d8 45030000 		.4byte	0x345
 1492 06dc 18       		.uleb128 0x18
 1493 06dd 51010000 		.4byte	.LASF116
 1494 06e1 08       		.byte	0x8
 1495 06e2 1601     		.2byte	0x116
 1496 06e4 0D070000 		.4byte	0x70d
 1497 06e8 18       		.uleb128 0x18
 1498 06e9 0A020000 		.4byte	.LASF117
 1499 06ed 08       		.byte	0x8
 1500 06ee 1E01     		.2byte	0x11e
 1501 06f0 38070000 		.4byte	0x738
 1502 06f4 18       		.uleb128 0x18
 1503 06f5 2B050000 		.4byte	.LASF118
 1504 06f9 08       		.byte	0x8
 1505 06fa 2701     		.2byte	0x127
 1506 06fc 6F070000 		.4byte	0x76f
 1507 0700 18       		.uleb128 0x18
 1508 0701 C5040000 		.4byte	.LASF119
 1509 0705 08       		.byte	0x8
 1510 0706 2F01     		.2byte	0x12f
 1511 0708 20010000 		.4byte	0x120
 1512 070c 00       		.byte	0
 1513 070d 0A       		.uleb128 0xa
 1514 070e 04       		.byte	0x4
 1515 070f 5D020000 		.4byte	0x25d
 1516 0713 06       		.uleb128 0x6
 1517 0714 0A050000 		.4byte	.LASF120
 1518 0718 0C       		.byte	0xc
ARM GAS  /var/folders/c6/c789hm653lg9vtl73krp73tm0000gn/T//ccGBNNCQ.s 			page 54


 1519 0719 0E       		.byte	0xe
 1520 071a 34       		.byte	0x34
 1521 071b 38070000 		.4byte	0x738
 1522 071f 07       		.uleb128 0x7
 1523 0720 8B010000 		.4byte	.LASF121
 1524 0724 0E       		.byte	0xe
 1525 0725 35       		.byte	0x35
 1526 0726 92020000 		.4byte	0x292
 1527 072a 00       		.byte	0
 1528 072b 07       		.uleb128 0x7
 1529 072c 34020000 		.4byte	.LASF122
 1530 0730 0E       		.byte	0xe
 1531 0731 37       		.byte	0x37
 1532 0732 2B010000 		.4byte	0x12b
 1533 0736 08       		.byte	0x8
 1534 0737 00       		.byte	0
 1535 0738 0A       		.uleb128 0xa
 1536 0739 04       		.byte	0x4
 1537 073a 13070000 		.4byte	0x713
 1538 073e 06       		.uleb128 0x6
 1539 073f EA050000 		.4byte	.LASF123
 1540 0743 10       		.byte	0x10
 1541 0744 0F       		.byte	0xf
 1542 0745 39       		.byte	0x39
 1543 0746 6F070000 		.4byte	0x76f
 1544 074a 07       		.uleb128 0x7
 1545 074b 32010000 		.4byte	.LASF124
 1546 074f 0F       		.byte	0xf
 1547 0750 3A       		.byte	0x3a
 1548 0751 92020000 		.4byte	0x292
 1549 0755 00       		.byte	0
 1550 0756 07       		.uleb128 0x7
 1551 0757 46070000 		.4byte	.LASF125
 1552 075b 0F       		.byte	0xf
 1553 075c 3C       		.byte	0x3c
 1554 075d 68020000 		.4byte	0x268
 1555 0761 08       		.byte	0x8
 1556 0762 07       		.uleb128 0x7
 1557 0763 78050000 		.4byte	.LASF126
 1558 0767 0F       		.byte	0xf
 1559 0768 3E       		.byte	0x3e
 1560 0769 BE070000 		.4byte	0x7be
 1561 076d 0C       		.byte	0xc
 1562 076e 00       		.byte	0
 1563 076f 0A       		.uleb128 0xa
 1564 0770 04       		.byte	0x4
 1565 0771 3E070000 		.4byte	0x73e
 1566 0775 0A       		.uleb128 0xa
 1567 0776 04       		.byte	0x4
 1568 0777 7B070000 		.4byte	0x77b
 1569 077b 19       		.uleb128 0x19
 1570 077c 80070000 		.4byte	0x780
 1571 0780 04       		.uleb128 0x4
 1572 0781 01       		.byte	0x1
 1573 0782 08       		.byte	0x8
 1574 0783 65050000 		.4byte	.LASF127
 1575 0787 0A       		.uleb128 0xa
ARM GAS  /var/folders/c6/c789hm653lg9vtl73krp73tm0000gn/T//ccGBNNCQ.s 			page 55


 1576 0788 04       		.byte	0x4
 1577 0789 C6040000 		.4byte	0x4c6
 1578 078d 0A       		.uleb128 0xa
 1579 078e 04       		.byte	0x4
 1580 078f 47030000 		.4byte	0x347
 1581 0793 05       		.uleb128 0x5
 1582 0794 75070000 		.4byte	0x775
 1583 0798 15       		.uleb128 0x15
 1584 0799 C6040000 		.4byte	0x4c6
 1585 079d A8070000 		.4byte	0x7a8
 1586 07a1 16       		.uleb128 0x16
 1587 07a2 B4040000 		.4byte	0x4b4
 1588 07a6 1E       		.byte	0x1e
 1589 07a7 00       		.byte	0
 1590 07a8 03       		.uleb128 0x3
 1591 07a9 00000000 		.4byte	.LASF128
 1592 07ad 02       		.byte	0x2
 1593 07ae 34       		.byte	0x34
 1594 07af 34030000 		.4byte	0x334
 1595 07b3 03       		.uleb128 0x3
 1596 07b4 C4010000 		.4byte	.LASF129
 1597 07b8 0F       		.byte	0xf
 1598 07b9 34       		.byte	0x34
 1599 07ba 3E070000 		.4byte	0x73e
 1600 07be 0A       		.uleb128 0xa
 1601 07bf 04       		.byte	0x4
 1602 07c0 B3070000 		.4byte	0x7b3
 1603 07c4 06       		.uleb128 0x6
 1604 07c5 01050000 		.4byte	.LASF130
 1605 07c9 10       		.byte	0x10
 1606 07ca 10       		.byte	0x10
 1607 07cb 3B       		.byte	0x3b
 1608 07cc 01080000 		.4byte	0x801
 1609 07d0 07       		.uleb128 0x7
 1610 07d1 3A020000 		.4byte	.LASF131
 1611 07d5 10       		.byte	0x10
 1612 07d6 3C       		.byte	0x3c
 1613 07d7 75070000 		.4byte	0x775
 1614 07db 00       		.byte	0
 1615 07dc 07       		.uleb128 0x7
 1616 07dd E8030000 		.4byte	.LASF132
 1617 07e1 10       		.byte	0x10
 1618 07e2 3D       		.byte	0x3d
 1619 07e3 02080000 		.4byte	0x802
 1620 07e7 04       		.byte	0x4
 1621 07e8 07       		.uleb128 0x7
 1622 07e9 1C020000 		.4byte	.LASF133
 1623 07ed 10       		.byte	0x10
 1624 07ee 3E       		.byte	0x3e
 1625 07ef 02080000 		.4byte	0x802
 1626 07f3 08       		.byte	0x8
 1627 07f4 07       		.uleb128 0x7
 1628 07f5 55040000 		.4byte	.LASF134
 1629 07f9 10       		.byte	0x10
 1630 07fa 3F       		.byte	0x3f
 1631 07fb 02080000 		.4byte	0x802
 1632 07ff 0C       		.byte	0xc
ARM GAS  /var/folders/c6/c789hm653lg9vtl73krp73tm0000gn/T//ccGBNNCQ.s 			page 56


 1633 0800 00       		.byte	0
 1634 0801 1A       		.uleb128 0x1a
 1635 0802 0A       		.uleb128 0xa
 1636 0803 04       		.byte	0x4
 1637 0804 01080000 		.4byte	0x801
 1638 0808 1B       		.uleb128 0x1b
 1639 0809 08060000 		.4byte	.LASF135
 1640 080d 02       		.byte	0x2
 1641 080e AE       		.byte	0xae
 1642 080f 68020000 		.4byte	0x268
 1643 0813 03       		.byte	0x3
 1644 0814 1C       		.uleb128 0x1c
 1645 0815 25020000 		.4byte	.LASF152
 1646 0819 12       		.byte	0x12
 1647 081a 60       		.byte	0x60
 1648 081b 15010000 		.4byte	0x115
 1649 081f 03       		.byte	0x3
 1650 0820 2F080000 		.4byte	0x82f
 1651 0824 1D       		.uleb128 0x1d
 1652 0825 747000   		.ascii	"tp\000"
 1653 0828 12       		.byte	0x12
 1654 0829 60       		.byte	0x60
 1655 082a 68020000 		.4byte	0x268
 1656 082e 00       		.byte	0
 1657 082f 1B       		.uleb128 0x1b
 1658 0830 D6030000 		.4byte	.LASF136
 1659 0834 02       		.byte	0x2
 1660 0835 BB       		.byte	0xbb
 1661 0836 0A010000 		.4byte	0x10a
 1662 083a 03       		.byte	0x3
 1663 083b 1E       		.uleb128 0x1e
 1664 083c 1E060000 		.4byte	.LASF137
 1665 0840 01       		.byte	0x1
 1666 0841 42       		.byte	0x42
 1667 0842 00000000 		.4byte	.LFB230
 1668 0846 78000000 		.4byte	.LFE230-.LFB230
 1669 084a 01       		.uleb128 0x1
 1670 084b 9C       		.byte	0x9c
 1671 084c 56090000 		.4byte	0x956
 1672 0850 1F       		.uleb128 0x1f
 1673 0851 747000   		.ascii	"tp\000"
 1674 0854 01       		.byte	0x1
 1675 0855 43       		.byte	0x43
 1676 0856 68020000 		.4byte	0x268
 1677 085a 00000000 		.4byte	.LLST0
 1678 085e 20       		.uleb128 0x20
 1679 085f 6D736700 		.ascii	"msg\000"
 1680 0863 01       		.byte	0x1
 1681 0864 44       		.byte	0x44
 1682 0865 15010000 		.4byte	0x115
 1683 0869 21       		.uleb128 0x21
 1684 086a 2F080000 		.4byte	0x82f
 1685 086e 02000000 		.4byte	.LBB16
 1686 0872 00000000 		.4byte	.Ldebug_ranges0+0
 1687 0876 01       		.byte	0x1
 1688 0877 49       		.byte	0x49
 1689 0878 8C080000 		.4byte	0x88c
ARM GAS  /var/folders/c6/c789hm653lg9vtl73krp73tm0000gn/T//ccGBNNCQ.s 			page 57


 1690 087c 22       		.uleb128 0x22
 1691 087d 08080000 		.4byte	0x808
 1692 0881 02000000 		.4byte	.LBB18
 1693 0885 18000000 		.4byte	.Ldebug_ranges0+0x18
 1694 0889 02       		.byte	0x2
 1695 088a BD       		.byte	0xbd
 1696 088b 00       		.byte	0
 1697 088c 23       		.uleb128 0x23
 1698 088d 1C000000 		.4byte	.LVL0
 1699 0891 520A0000 		.4byte	0xa52
 1700 0895 AA080000 		.4byte	0x8aa
 1701 0899 24       		.uleb128 0x24
 1702 089a 01       		.uleb128 0x1
 1703 089b 53       		.byte	0x53
 1704 089c 05       		.uleb128 0x5
 1705 089d 03       		.byte	0x3
 1706 089e 00000000 		.4byte	thread
 1707 08a2 24       		.uleb128 0x24
 1708 08a3 01       		.uleb128 0x1
 1709 08a4 51       		.byte	0x51
 1710 08a5 03       		.uleb128 0x3
 1711 08a6 0A       		.byte	0xa
 1712 08a7 6801     		.2byte	0x168
 1713 08a9 00       		.byte	0
 1714 08aa 25       		.uleb128 0x25
 1715 08ab 24000000 		.4byte	.LVL1
 1716 08af 7B0A0000 		.4byte	0xa7b
 1717 08b3 23       		.uleb128 0x23
 1718 08b4 2C000000 		.4byte	.LVL3
 1719 08b8 860A0000 		.4byte	0xa86
 1720 08bc C7080000 		.4byte	0x8c7
 1721 08c0 24       		.uleb128 0x24
 1722 08c1 01       		.uleb128 0x1
 1723 08c2 51       		.byte	0x51
 1724 08c3 02       		.uleb128 0x2
 1725 08c4 74       		.byte	0x74
 1726 08c5 00       		.sleb128 0
 1727 08c6 00       		.byte	0
 1728 08c7 23       		.uleb128 0x23
 1729 08c8 32000000 		.4byte	.LVL4
 1730 08cc 9C0A0000 		.4byte	0xa9c
 1731 08d0 DB080000 		.4byte	0x8db
 1732 08d4 24       		.uleb128 0x24
 1733 08d5 01       		.uleb128 0x1
 1734 08d6 50       		.byte	0x50
 1735 08d7 02       		.uleb128 0x2
 1736 08d8 74       		.byte	0x74
 1737 08d9 00       		.sleb128 0
 1738 08da 00       		.byte	0
 1739 08db 25       		.uleb128 0x25
 1740 08dc 36000000 		.4byte	.LVL5
 1741 08e0 7B0A0000 		.4byte	0xa7b
 1742 08e4 23       		.uleb128 0x23
 1743 08e5 3E000000 		.4byte	.LVL7
 1744 08e9 860A0000 		.4byte	0xa86
 1745 08ed F8080000 		.4byte	0x8f8
 1746 08f1 24       		.uleb128 0x24
ARM GAS  /var/folders/c6/c789hm653lg9vtl73krp73tm0000gn/T//ccGBNNCQ.s 			page 58


 1747 08f2 01       		.uleb128 0x1
 1748 08f3 51       		.byte	0x51
 1749 08f4 02       		.uleb128 0x2
 1750 08f5 74       		.byte	0x74
 1751 08f6 00       		.sleb128 0
 1752 08f7 00       		.byte	0
 1753 08f8 23       		.uleb128 0x23
 1754 08f9 44000000 		.4byte	.LVL8
 1755 08fd 9C0A0000 		.4byte	0xa9c
 1756 0901 0C090000 		.4byte	0x90c
 1757 0905 24       		.uleb128 0x24
 1758 0906 01       		.uleb128 0x1
 1759 0907 50       		.byte	0x50
 1760 0908 02       		.uleb128 0x2
 1761 0909 74       		.byte	0x74
 1762 090a 00       		.sleb128 0
 1763 090b 00       		.byte	0
 1764 090c 25       		.uleb128 0x25
 1765 090d 48000000 		.4byte	.LVL9
 1766 0911 7B0A0000 		.4byte	0xa7b
 1767 0915 23       		.uleb128 0x23
 1768 0916 50000000 		.4byte	.LVL11
 1769 091a 860A0000 		.4byte	0xa86
 1770 091e 29090000 		.4byte	0x929
 1771 0922 24       		.uleb128 0x24
 1772 0923 01       		.uleb128 0x1
 1773 0924 51       		.byte	0x51
 1774 0925 02       		.uleb128 0x2
 1775 0926 74       		.byte	0x74
 1776 0927 00       		.sleb128 0
 1777 0928 00       		.byte	0
 1778 0929 23       		.uleb128 0x23
 1779 092a 56000000 		.4byte	.LVL12
 1780 092e 9C0A0000 		.4byte	0xa9c
 1781 0932 3D090000 		.4byte	0x93d
 1782 0936 24       		.uleb128 0x24
 1783 0937 01       		.uleb128 0x1
 1784 0938 50       		.byte	0x50
 1785 0939 02       		.uleb128 0x2
 1786 093a 74       		.byte	0x74
 1787 093b 00       		.sleb128 0
 1788 093c 00       		.byte	0
 1789 093d 26       		.uleb128 0x26
 1790 093e 64000000 		.4byte	.LVL13
 1791 0942 AD0A0000 		.4byte	0xaad
 1792 0946 24       		.uleb128 0x24
 1793 0947 01       		.uleb128 0x1
 1794 0948 51       		.byte	0x51
 1795 0949 05       		.uleb128 0x5
 1796 094a 03       		.byte	0x3
 1797 094b 00000000 		.4byte	.LC0
 1798 094f 24       		.uleb128 0x24
 1799 0950 01       		.uleb128 0x1
 1800 0951 50       		.byte	0x50
 1801 0952 01       		.uleb128 0x1
 1802 0953 31       		.byte	0x31
 1803 0954 00       		.byte	0
ARM GAS  /var/folders/c6/c789hm653lg9vtl73krp73tm0000gn/T//ccGBNNCQ.s 			page 59


 1804 0955 00       		.byte	0
 1805 0956 1E       		.uleb128 0x1e
 1806 0957 65040000 		.4byte	.LASF138
 1807 095b 01       		.byte	0x1
 1808 095c 3B       		.byte	0x3b
 1809 095d 00000000 		.4byte	.LFB229
 1810 0961 1E000000 		.4byte	.LFE229-.LFB229
 1811 0965 01       		.uleb128 0x1
 1812 0966 9C       		.byte	0x9c
 1813 0967 C4090000 		.4byte	0x9c4
 1814 096b 27       		.uleb128 0x27
 1815 096c 7000     		.ascii	"p\000"
 1816 096e 01       		.byte	0x1
 1817 096f 3B       		.byte	0x3b
 1818 0970 45030000 		.4byte	0x345
 1819 0974 29000000 		.4byte	.LLST1
 1820 0978 23       		.uleb128 0x23
 1821 0979 0A000000 		.4byte	.LVL15
 1822 097d D40A0000 		.4byte	0xad4
 1823 0981 92090000 		.4byte	0x992
 1824 0985 24       		.uleb128 0x24
 1825 0986 01       		.uleb128 0x1
 1826 0987 51       		.byte	0x51
 1827 0988 02       		.uleb128 0x2
 1828 0989 08       		.byte	0x8
 1829 098a 41       		.byte	0x41
 1830 098b 24       		.uleb128 0x24
 1831 098c 01       		.uleb128 0x1
 1832 098d 50       		.byte	0x50
 1833 098e 02       		.uleb128 0x2
 1834 098f 74       		.byte	0x74
 1835 0990 00       		.sleb128 0
 1836 0991 00       		.byte	0
 1837 0992 23       		.uleb128 0x23
 1838 0993 12000000 		.4byte	.LVL16
 1839 0997 D40A0000 		.4byte	0xad4
 1840 099b AC090000 		.4byte	0x9ac
 1841 099f 24       		.uleb128 0x24
 1842 09a0 01       		.uleb128 0x1
 1843 09a1 51       		.byte	0x51
 1844 09a2 02       		.uleb128 0x2
 1845 09a3 08       		.byte	0x8
 1846 09a4 42       		.byte	0x42
 1847 09a5 24       		.uleb128 0x24
 1848 09a6 01       		.uleb128 0x1
 1849 09a7 50       		.byte	0x50
 1850 09a8 02       		.uleb128 0x2
 1851 09a9 74       		.byte	0x74
 1852 09aa 00       		.sleb128 0
 1853 09ab 00       		.byte	0
 1854 09ac 26       		.uleb128 0x26
 1855 09ad 1E000000 		.4byte	.LVL18
 1856 09b1 D40A0000 		.4byte	0xad4
 1857 09b5 24       		.uleb128 0x24
 1858 09b6 01       		.uleb128 0x1
 1859 09b7 51       		.byte	0x51
 1860 09b8 02       		.uleb128 0x2
ARM GAS  /var/folders/c6/c789hm653lg9vtl73krp73tm0000gn/T//ccGBNNCQ.s 			page 60


 1861 09b9 08       		.byte	0x8
 1862 09ba 43       		.byte	0x43
 1863 09bb 24       		.uleb128 0x24
 1864 09bc 01       		.uleb128 0x1
 1865 09bd 50       		.byte	0x50
 1866 09be 03       		.uleb128 0x3
 1867 09bf F3       		.byte	0xf3
 1868 09c0 01       		.uleb128 0x1
 1869 09c1 50       		.byte	0x50
 1870 09c2 00       		.byte	0
 1871 09c3 00       		.byte	0
 1872 09c4 28       		.uleb128 0x28
 1873 09c5 F3000000 		.4byte	.LASF139
 1874 09c9 11       		.byte	0x11
 1875 09ca A706     		.2byte	0x6a7
 1876 09cc CE000000 		.4byte	0xce
 1877 09d0 29       		.uleb128 0x29
 1878 09d1 636800   		.ascii	"ch\000"
 1879 09d4 08       		.byte	0x8
 1880 09d5 0902     		.2byte	0x209
 1881 09d7 3C040000 		.4byte	0x43c
 1882 09db 15       		.uleb128 0x15
 1883 09dc 68020000 		.4byte	0x268
 1884 09e0 EB090000 		.4byte	0x9eb
 1885 09e4 16       		.uleb128 0x16
 1886 09e5 B4040000 		.4byte	0x4b4
 1887 09e9 04       		.byte	0x4
 1888 09ea 00       		.byte	0
 1889 09eb 2A       		.uleb128 0x2a
 1890 09ec AD040000 		.4byte	.LASF140
 1891 09f0 10       		.byte	0x10
 1892 09f1 A7       		.byte	0xa7
 1893 09f2 DB090000 		.4byte	0x9db
 1894 09f6 15       		.uleb128 0x15
 1895 09f7 45030000 		.4byte	0x345
 1896 09fb 010A0000 		.4byte	0xa01
 1897 09ff 2B       		.uleb128 0x2b
 1898 0a00 00       		.byte	0
 1899 0a01 2C       		.uleb128 0x2c
 1900 0a02 776100   		.ascii	"wa\000"
 1901 0a05 10       		.byte	0x10
 1902 0a06 A9       		.byte	0xa9
 1903 0a07 0B0A0000 		.4byte	0xa0b
 1904 0a0b 19       		.uleb128 0x19
 1905 0a0c F6090000 		.4byte	0x9f6
 1906 0a10 2D       		.uleb128 0x2d
 1907 0a11 BC040000 		.4byte	.LASF141
 1908 0a15 01       		.byte	0x1
 1909 0a16 5A       		.byte	0x5a
 1910 0a17 210A0000 		.4byte	0xa21
 1911 0a1b 05       		.uleb128 0x5
 1912 0a1c 03       		.byte	0x3
 1913 0a1d 00000000 		.4byte	testmsg1
 1914 0a21 19       		.uleb128 0x19
 1915 0a22 C4070000 		.4byte	0x7c4
 1916 0a26 15       		.uleb128 0x15
 1917 0a27 360A0000 		.4byte	0xa36
ARM GAS  /var/folders/c6/c789hm653lg9vtl73krp73tm0000gn/T//ccGBNNCQ.s 			page 61


 1918 0a2b 360A0000 		.4byte	0xa36
 1919 0a2f 16       		.uleb128 0x16
 1920 0a30 B4040000 		.4byte	0x4b4
 1921 0a34 01       		.byte	0x1
 1922 0a35 00       		.byte	0
 1923 0a36 0A       		.uleb128 0xa
 1924 0a37 04       		.byte	0x4
 1925 0a38 210A0000 		.4byte	0xa21
 1926 0a3c 2D       		.uleb128 0x2d
 1927 0a3d 5E030000 		.4byte	.LASF142
 1928 0a41 01       		.byte	0x1
 1929 0a42 66       		.byte	0x66
 1930 0a43 4D0A0000 		.4byte	0xa4d
 1931 0a47 05       		.uleb128 0x5
 1932 0a48 03       		.byte	0x3
 1933 0a49 00000000 		.4byte	patternmsg
 1934 0a4d 19       		.uleb128 0x19
 1935 0a4e 260A0000 		.4byte	0xa26
 1936 0a52 2E       		.uleb128 0x2e
 1937 0a53 42030000 		.4byte	.LASF145
 1938 0a57 02       		.byte	0x2
 1939 0a58 89       		.byte	0x89
 1940 0a59 68020000 		.4byte	0x268
 1941 0a5d 7B0A0000 		.4byte	0xa7b
 1942 0a61 0D       		.uleb128 0xd
 1943 0a62 45030000 		.4byte	0x345
 1944 0a66 0D       		.uleb128 0xd
 1945 0a67 2C000000 		.4byte	0x2c
 1946 0a6b 0D       		.uleb128 0xd
 1947 0a6c 0A010000 		.4byte	0x10a
 1948 0a70 0D       		.uleb128 0xd
 1949 0a71 A8070000 		.4byte	0x7a8
 1950 0a75 0D       		.uleb128 0xd
 1951 0a76 45030000 		.4byte	0x345
 1952 0a7a 00       		.byte	0
 1953 0a7b 2F       		.uleb128 0x2f
 1954 0a7c D0050000 		.4byte	.LASF153
 1955 0a80 12       		.byte	0x12
 1956 0a81 3D       		.byte	0x3d
 1957 0a82 68020000 		.4byte	0x268
 1958 0a86 30       		.uleb128 0x30
 1959 0a87 F4040000 		.4byte	.LASF143
 1960 0a8b 12       		.byte	0x12
 1961 0a8c 3E       		.byte	0x3e
 1962 0a8d 9C0A0000 		.4byte	0xa9c
 1963 0a91 0D       		.uleb128 0xd
 1964 0a92 68020000 		.4byte	0x268
 1965 0a96 0D       		.uleb128 0xd
 1966 0a97 15010000 		.4byte	0x115
 1967 0a9b 00       		.byte	0
 1968 0a9c 30       		.uleb128 0x30
 1969 0a9d 3A010000 		.4byte	.LASF144
 1970 0aa1 10       		.byte	0x10
 1971 0aa2 58       		.byte	0x58
 1972 0aa3 AD0A0000 		.4byte	0xaad
 1973 0aa7 0D       		.uleb128 0xd
 1974 0aa8 80070000 		.4byte	0x780
ARM GAS  /var/folders/c6/c789hm653lg9vtl73krp73tm0000gn/T//ccGBNNCQ.s 			page 62


 1975 0aac 00       		.byte	0
 1976 0aad 2E       		.uleb128 0x2e
 1977 0aae EE030000 		.4byte	.LASF146
 1978 0ab2 10       		.byte	0x10
 1979 0ab3 5B       		.byte	0x5b
 1980 0ab4 C70A0000 		.4byte	0xac7
 1981 0ab8 C70A0000 		.4byte	0xac7
 1982 0abc 0D       		.uleb128 0xd
 1983 0abd 37000000 		.4byte	0x37
 1984 0ac1 0D       		.uleb128 0xd
 1985 0ac2 CE0A0000 		.4byte	0xace
 1986 0ac6 00       		.byte	0
 1987 0ac7 04       		.uleb128 0x4
 1988 0ac8 01       		.byte	0x1
 1989 0ac9 02       		.byte	0x2
 1990 0aca 75040000 		.4byte	.LASF147
 1991 0ace 0A       		.uleb128 0xa
 1992 0acf 04       		.byte	0x4
 1993 0ad0 80070000 		.4byte	0x780
 1994 0ad4 31       		.uleb128 0x31
 1995 0ad5 6A010000 		.4byte	.LASF148
 1996 0ad9 12       		.byte	0x12
 1997 0ada 3C       		.byte	0x3c
 1998 0adb 15010000 		.4byte	0x115
 1999 0adf 0D       		.uleb128 0xd
 2000 0ae0 68020000 		.4byte	0x268
 2001 0ae4 0D       		.uleb128 0xd
 2002 0ae5 15010000 		.4byte	0x115
 2003 0ae9 00       		.byte	0
 2004 0aea 00       		.byte	0
 2005              		.section	.debug_abbrev,"",%progbits
 2006              	.Ldebug_abbrev0:
 2007 0000 01       		.uleb128 0x1
 2008 0001 11       		.uleb128 0x11
 2009 0002 01       		.byte	0x1
 2010 0003 25       		.uleb128 0x25
 2011 0004 0E       		.uleb128 0xe
 2012 0005 13       		.uleb128 0x13
 2013 0006 0B       		.uleb128 0xb
 2014 0007 03       		.uleb128 0x3
 2015 0008 0E       		.uleb128 0xe
 2016 0009 1B       		.uleb128 0x1b
 2017 000a 0E       		.uleb128 0xe
 2018 000b 55       		.uleb128 0x55
 2019 000c 17       		.uleb128 0x17
 2020 000d 11       		.uleb128 0x11
 2021 000e 01       		.uleb128 0x1
 2022 000f 10       		.uleb128 0x10
 2023 0010 17       		.uleb128 0x17
 2024 0011 00       		.byte	0
 2025 0012 00       		.byte	0
 2026 0013 02       		.uleb128 0x2
 2027 0014 24       		.uleb128 0x24
 2028 0015 00       		.byte	0
 2029 0016 0B       		.uleb128 0xb
 2030 0017 0B       		.uleb128 0xb
 2031 0018 3E       		.uleb128 0x3e
ARM GAS  /var/folders/c6/c789hm653lg9vtl73krp73tm0000gn/T//ccGBNNCQ.s 			page 63


 2032 0019 0B       		.uleb128 0xb
 2033 001a 03       		.uleb128 0x3
 2034 001b 08       		.uleb128 0x8
 2035 001c 00       		.byte	0
 2036 001d 00       		.byte	0
 2037 001e 03       		.uleb128 0x3
 2038 001f 16       		.uleb128 0x16
 2039 0020 00       		.byte	0
 2040 0021 03       		.uleb128 0x3
 2041 0022 0E       		.uleb128 0xe
 2042 0023 3A       		.uleb128 0x3a
 2043 0024 0B       		.uleb128 0xb
 2044 0025 3B       		.uleb128 0x3b
 2045 0026 0B       		.uleb128 0xb
 2046 0027 49       		.uleb128 0x49
 2047 0028 13       		.uleb128 0x13
 2048 0029 00       		.byte	0
 2049 002a 00       		.byte	0
 2050 002b 04       		.uleb128 0x4
 2051 002c 24       		.uleb128 0x24
 2052 002d 00       		.byte	0
 2053 002e 0B       		.uleb128 0xb
 2054 002f 0B       		.uleb128 0xb
 2055 0030 3E       		.uleb128 0x3e
 2056 0031 0B       		.uleb128 0xb
 2057 0032 03       		.uleb128 0x3
 2058 0033 0E       		.uleb128 0xe
 2059 0034 00       		.byte	0
 2060 0035 00       		.byte	0
 2061 0036 05       		.uleb128 0x5
 2062 0037 35       		.uleb128 0x35
 2063 0038 00       		.byte	0
 2064 0039 49       		.uleb128 0x49
 2065 003a 13       		.uleb128 0x13
 2066 003b 00       		.byte	0
 2067 003c 00       		.byte	0
 2068 003d 06       		.uleb128 0x6
 2069 003e 13       		.uleb128 0x13
 2070 003f 01       		.byte	0x1
 2071 0040 03       		.uleb128 0x3
 2072 0041 0E       		.uleb128 0xe
 2073 0042 0B       		.uleb128 0xb
 2074 0043 0B       		.uleb128 0xb
 2075 0044 3A       		.uleb128 0x3a
 2076 0045 0B       		.uleb128 0xb
 2077 0046 3B       		.uleb128 0x3b
 2078 0047 0B       		.uleb128 0xb
 2079 0048 01       		.uleb128 0x1
 2080 0049 13       		.uleb128 0x13
 2081 004a 00       		.byte	0
 2082 004b 00       		.byte	0
 2083 004c 07       		.uleb128 0x7
 2084 004d 0D       		.uleb128 0xd
 2085 004e 00       		.byte	0
 2086 004f 03       		.uleb128 0x3
 2087 0050 0E       		.uleb128 0xe
 2088 0051 3A       		.uleb128 0x3a
ARM GAS  /var/folders/c6/c789hm653lg9vtl73krp73tm0000gn/T//ccGBNNCQ.s 			page 64


 2089 0052 0B       		.uleb128 0xb
 2090 0053 3B       		.uleb128 0x3b
 2091 0054 0B       		.uleb128 0xb
 2092 0055 49       		.uleb128 0x49
 2093 0056 13       		.uleb128 0x13
 2094 0057 38       		.uleb128 0x38
 2095 0058 0B       		.uleb128 0xb
 2096 0059 00       		.byte	0
 2097 005a 00       		.byte	0
 2098 005b 08       		.uleb128 0x8
 2099 005c 0D       		.uleb128 0xd
 2100 005d 00       		.byte	0
 2101 005e 03       		.uleb128 0x3
 2102 005f 08       		.uleb128 0x8
 2103 0060 3A       		.uleb128 0x3a
 2104 0061 0B       		.uleb128 0xb
 2105 0062 3B       		.uleb128 0x3b
 2106 0063 05       		.uleb128 0x5
 2107 0064 49       		.uleb128 0x49
 2108 0065 13       		.uleb128 0x13
 2109 0066 38       		.uleb128 0x38
 2110 0067 0B       		.uleb128 0xb
 2111 0068 00       		.byte	0
 2112 0069 00       		.byte	0
 2113 006a 09       		.uleb128 0x9
 2114 006b 0D       		.uleb128 0xd
 2115 006c 00       		.byte	0
 2116 006d 03       		.uleb128 0x3
 2117 006e 0E       		.uleb128 0xe
 2118 006f 3A       		.uleb128 0x3a
 2119 0070 0B       		.uleb128 0xb
 2120 0071 3B       		.uleb128 0x3b
 2121 0072 05       		.uleb128 0x5
 2122 0073 49       		.uleb128 0x49
 2123 0074 13       		.uleb128 0x13
 2124 0075 38       		.uleb128 0x38
 2125 0076 0B       		.uleb128 0xb
 2126 0077 00       		.byte	0
 2127 0078 00       		.byte	0
 2128 0079 0A       		.uleb128 0xa
 2129 007a 0F       		.uleb128 0xf
 2130 007b 00       		.byte	0
 2131 007c 0B       		.uleb128 0xb
 2132 007d 0B       		.uleb128 0xb
 2133 007e 49       		.uleb128 0x49
 2134 007f 13       		.uleb128 0x13
 2135 0080 00       		.byte	0
 2136 0081 00       		.byte	0
 2137 0082 0B       		.uleb128 0xb
 2138 0083 13       		.uleb128 0x13
 2139 0084 01       		.byte	0x1
 2140 0085 03       		.uleb128 0x3
 2141 0086 0E       		.uleb128 0xe
 2142 0087 0B       		.uleb128 0xb
 2143 0088 0B       		.uleb128 0xb
 2144 0089 3A       		.uleb128 0x3a
 2145 008a 0B       		.uleb128 0xb
ARM GAS  /var/folders/c6/c789hm653lg9vtl73krp73tm0000gn/T//ccGBNNCQ.s 			page 65


 2146 008b 3B       		.uleb128 0x3b
 2147 008c 05       		.uleb128 0x5
 2148 008d 01       		.uleb128 0x1
 2149 008e 13       		.uleb128 0x13
 2150 008f 00       		.byte	0
 2151 0090 00       		.byte	0
 2152 0091 0C       		.uleb128 0xc
 2153 0092 15       		.uleb128 0x15
 2154 0093 01       		.byte	0x1
 2155 0094 27       		.uleb128 0x27
 2156 0095 19       		.uleb128 0x19
 2157 0096 01       		.uleb128 0x1
 2158 0097 13       		.uleb128 0x13
 2159 0098 00       		.byte	0
 2160 0099 00       		.byte	0
 2161 009a 0D       		.uleb128 0xd
 2162 009b 05       		.uleb128 0x5
 2163 009c 00       		.byte	0
 2164 009d 49       		.uleb128 0x49
 2165 009e 13       		.uleb128 0x13
 2166 009f 00       		.byte	0
 2167 00a0 00       		.byte	0
 2168 00a1 0E       		.uleb128 0xe
 2169 00a2 0F       		.uleb128 0xf
 2170 00a3 00       		.byte	0
 2171 00a4 0B       		.uleb128 0xb
 2172 00a5 0B       		.uleb128 0xb
 2173 00a6 00       		.byte	0
 2174 00a7 00       		.byte	0
 2175 00a8 0F       		.uleb128 0xf
 2176 00a9 13       		.uleb128 0x13
 2177 00aa 01       		.byte	0x1
 2178 00ab 03       		.uleb128 0x3
 2179 00ac 0E       		.uleb128 0xe
 2180 00ad 0B       		.uleb128 0xb
 2181 00ae 05       		.uleb128 0x5
 2182 00af 3A       		.uleb128 0x3a
 2183 00b0 0B       		.uleb128 0xb
 2184 00b1 3B       		.uleb128 0x3b
 2185 00b2 05       		.uleb128 0x5
 2186 00b3 01       		.uleb128 0x1
 2187 00b4 13       		.uleb128 0x13
 2188 00b5 00       		.byte	0
 2189 00b6 00       		.byte	0
 2190 00b7 10       		.uleb128 0x10
 2191 00b8 0D       		.uleb128 0xd
 2192 00b9 00       		.byte	0
 2193 00ba 03       		.uleb128 0x3
 2194 00bb 0E       		.uleb128 0xe
 2195 00bc 3A       		.uleb128 0x3a
 2196 00bd 0B       		.uleb128 0xb
 2197 00be 3B       		.uleb128 0x3b
 2198 00bf 05       		.uleb128 0x5
 2199 00c0 49       		.uleb128 0x49
 2200 00c1 13       		.uleb128 0x13
 2201 00c2 38       		.uleb128 0x38
 2202 00c3 05       		.uleb128 0x5
ARM GAS  /var/folders/c6/c789hm653lg9vtl73krp73tm0000gn/T//ccGBNNCQ.s 			page 66


 2203 00c4 00       		.byte	0
 2204 00c5 00       		.byte	0
 2205 00c6 11       		.uleb128 0x11
 2206 00c7 0D       		.uleb128 0xd
 2207 00c8 00       		.byte	0
 2208 00c9 03       		.uleb128 0x3
 2209 00ca 08       		.uleb128 0x8
 2210 00cb 3A       		.uleb128 0x3a
 2211 00cc 0B       		.uleb128 0xb
 2212 00cd 3B       		.uleb128 0x3b
 2213 00ce 05       		.uleb128 0x5
 2214 00cf 49       		.uleb128 0x49
 2215 00d0 13       		.uleb128 0x13
 2216 00d1 38       		.uleb128 0x38
 2217 00d2 05       		.uleb128 0x5
 2218 00d3 00       		.byte	0
 2219 00d4 00       		.byte	0
 2220 00d5 12       		.uleb128 0x12
 2221 00d6 0D       		.uleb128 0xd
 2222 00d7 00       		.byte	0
 2223 00d8 03       		.uleb128 0x3
 2224 00d9 08       		.uleb128 0x8
 2225 00da 3A       		.uleb128 0x3a
 2226 00db 0B       		.uleb128 0xb
 2227 00dc 3B       		.uleb128 0x3b
 2228 00dd 0B       		.uleb128 0xb
 2229 00de 49       		.uleb128 0x49
 2230 00df 13       		.uleb128 0x13
 2231 00e0 38       		.uleb128 0x38
 2232 00e1 0B       		.uleb128 0xb
 2233 00e2 00       		.byte	0
 2234 00e3 00       		.byte	0
 2235 00e4 13       		.uleb128 0x13
 2236 00e5 13       		.uleb128 0x13
 2237 00e6 01       		.byte	0x1
 2238 00e7 0B       		.uleb128 0xb
 2239 00e8 0B       		.uleb128 0xb
 2240 00e9 3A       		.uleb128 0x3a
 2241 00ea 0B       		.uleb128 0xb
 2242 00eb 3B       		.uleb128 0x3b
 2243 00ec 0B       		.uleb128 0xb
 2244 00ed 01       		.uleb128 0x1
 2245 00ee 13       		.uleb128 0x13
 2246 00ef 00       		.byte	0
 2247 00f0 00       		.byte	0
 2248 00f1 14       		.uleb128 0x14
 2249 00f2 13       		.uleb128 0x13
 2250 00f3 01       		.byte	0x1
 2251 00f4 0B       		.uleb128 0xb
 2252 00f5 05       		.uleb128 0x5
 2253 00f6 3A       		.uleb128 0x3a
 2254 00f7 0B       		.uleb128 0xb
 2255 00f8 3B       		.uleb128 0x3b
 2256 00f9 0B       		.uleb128 0xb
 2257 00fa 01       		.uleb128 0x1
 2258 00fb 13       		.uleb128 0x13
 2259 00fc 00       		.byte	0
ARM GAS  /var/folders/c6/c789hm653lg9vtl73krp73tm0000gn/T//ccGBNNCQ.s 			page 67


 2260 00fd 00       		.byte	0
 2261 00fe 15       		.uleb128 0x15
 2262 00ff 01       		.uleb128 0x1
 2263 0100 01       		.byte	0x1
 2264 0101 49       		.uleb128 0x49
 2265 0102 13       		.uleb128 0x13
 2266 0103 01       		.uleb128 0x1
 2267 0104 13       		.uleb128 0x13
 2268 0105 00       		.byte	0
 2269 0106 00       		.byte	0
 2270 0107 16       		.uleb128 0x16
 2271 0108 21       		.uleb128 0x21
 2272 0109 00       		.byte	0
 2273 010a 49       		.uleb128 0x49
 2274 010b 13       		.uleb128 0x13
 2275 010c 2F       		.uleb128 0x2f
 2276 010d 0B       		.uleb128 0xb
 2277 010e 00       		.byte	0
 2278 010f 00       		.byte	0
 2279 0110 17       		.uleb128 0x17
 2280 0111 17       		.uleb128 0x17
 2281 0112 01       		.byte	0x1
 2282 0113 0B       		.uleb128 0xb
 2283 0114 0B       		.uleb128 0xb
 2284 0115 3A       		.uleb128 0x3a
 2285 0116 0B       		.uleb128 0xb
 2286 0117 3B       		.uleb128 0x3b
 2287 0118 0B       		.uleb128 0xb
 2288 0119 01       		.uleb128 0x1
 2289 011a 13       		.uleb128 0x13
 2290 011b 00       		.byte	0
 2291 011c 00       		.byte	0
 2292 011d 18       		.uleb128 0x18
 2293 011e 0D       		.uleb128 0xd
 2294 011f 00       		.byte	0
 2295 0120 03       		.uleb128 0x3
 2296 0121 0E       		.uleb128 0xe
 2297 0122 3A       		.uleb128 0x3a
 2298 0123 0B       		.uleb128 0xb
 2299 0124 3B       		.uleb128 0x3b
 2300 0125 05       		.uleb128 0x5
 2301 0126 49       		.uleb128 0x49
 2302 0127 13       		.uleb128 0x13
 2303 0128 00       		.byte	0
 2304 0129 00       		.byte	0
 2305 012a 19       		.uleb128 0x19
 2306 012b 26       		.uleb128 0x26
 2307 012c 00       		.byte	0
 2308 012d 49       		.uleb128 0x49
 2309 012e 13       		.uleb128 0x13
 2310 012f 00       		.byte	0
 2311 0130 00       		.byte	0
 2312 0131 1A       		.uleb128 0x1a
 2313 0132 15       		.uleb128 0x15
 2314 0133 00       		.byte	0
 2315 0134 27       		.uleb128 0x27
 2316 0135 19       		.uleb128 0x19
ARM GAS  /var/folders/c6/c789hm653lg9vtl73krp73tm0000gn/T//ccGBNNCQ.s 			page 68


 2317 0136 00       		.byte	0
 2318 0137 00       		.byte	0
 2319 0138 1B       		.uleb128 0x1b
 2320 0139 2E       		.uleb128 0x2e
 2321 013a 00       		.byte	0
 2322 013b 03       		.uleb128 0x3
 2323 013c 0E       		.uleb128 0xe
 2324 013d 3A       		.uleb128 0x3a
 2325 013e 0B       		.uleb128 0xb
 2326 013f 3B       		.uleb128 0x3b
 2327 0140 0B       		.uleb128 0xb
 2328 0141 27       		.uleb128 0x27
 2329 0142 19       		.uleb128 0x19
 2330 0143 49       		.uleb128 0x49
 2331 0144 13       		.uleb128 0x13
 2332 0145 20       		.uleb128 0x20
 2333 0146 0B       		.uleb128 0xb
 2334 0147 00       		.byte	0
 2335 0148 00       		.byte	0
 2336 0149 1C       		.uleb128 0x1c
 2337 014a 2E       		.uleb128 0x2e
 2338 014b 01       		.byte	0x1
 2339 014c 03       		.uleb128 0x3
 2340 014d 0E       		.uleb128 0xe
 2341 014e 3A       		.uleb128 0x3a
 2342 014f 0B       		.uleb128 0xb
 2343 0150 3B       		.uleb128 0x3b
 2344 0151 0B       		.uleb128 0xb
 2345 0152 27       		.uleb128 0x27
 2346 0153 19       		.uleb128 0x19
 2347 0154 49       		.uleb128 0x49
 2348 0155 13       		.uleb128 0x13
 2349 0156 20       		.uleb128 0x20
 2350 0157 0B       		.uleb128 0xb
 2351 0158 01       		.uleb128 0x1
 2352 0159 13       		.uleb128 0x13
 2353 015a 00       		.byte	0
 2354 015b 00       		.byte	0
 2355 015c 1D       		.uleb128 0x1d
 2356 015d 05       		.uleb128 0x5
 2357 015e 00       		.byte	0
 2358 015f 03       		.uleb128 0x3
 2359 0160 08       		.uleb128 0x8
 2360 0161 3A       		.uleb128 0x3a
 2361 0162 0B       		.uleb128 0xb
 2362 0163 3B       		.uleb128 0x3b
 2363 0164 0B       		.uleb128 0xb
 2364 0165 49       		.uleb128 0x49
 2365 0166 13       		.uleb128 0x13
 2366 0167 00       		.byte	0
 2367 0168 00       		.byte	0
 2368 0169 1E       		.uleb128 0x1e
 2369 016a 2E       		.uleb128 0x2e
 2370 016b 01       		.byte	0x1
 2371 016c 03       		.uleb128 0x3
 2372 016d 0E       		.uleb128 0xe
 2373 016e 3A       		.uleb128 0x3a
ARM GAS  /var/folders/c6/c789hm653lg9vtl73krp73tm0000gn/T//ccGBNNCQ.s 			page 69


 2374 016f 0B       		.uleb128 0xb
 2375 0170 3B       		.uleb128 0x3b
 2376 0171 0B       		.uleb128 0xb
 2377 0172 27       		.uleb128 0x27
 2378 0173 19       		.uleb128 0x19
 2379 0174 11       		.uleb128 0x11
 2380 0175 01       		.uleb128 0x1
 2381 0176 12       		.uleb128 0x12
 2382 0177 06       		.uleb128 0x6
 2383 0178 40       		.uleb128 0x40
 2384 0179 18       		.uleb128 0x18
 2385 017a 9742     		.uleb128 0x2117
 2386 017c 19       		.uleb128 0x19
 2387 017d 01       		.uleb128 0x1
 2388 017e 13       		.uleb128 0x13
 2389 017f 00       		.byte	0
 2390 0180 00       		.byte	0
 2391 0181 1F       		.uleb128 0x1f
 2392 0182 34       		.uleb128 0x34
 2393 0183 00       		.byte	0
 2394 0184 03       		.uleb128 0x3
 2395 0185 08       		.uleb128 0x8
 2396 0186 3A       		.uleb128 0x3a
 2397 0187 0B       		.uleb128 0xb
 2398 0188 3B       		.uleb128 0x3b
 2399 0189 0B       		.uleb128 0xb
 2400 018a 49       		.uleb128 0x49
 2401 018b 13       		.uleb128 0x13
 2402 018c 02       		.uleb128 0x2
 2403 018d 17       		.uleb128 0x17
 2404 018e 00       		.byte	0
 2405 018f 00       		.byte	0
 2406 0190 20       		.uleb128 0x20
 2407 0191 34       		.uleb128 0x34
 2408 0192 00       		.byte	0
 2409 0193 03       		.uleb128 0x3
 2410 0194 08       		.uleb128 0x8
 2411 0195 3A       		.uleb128 0x3a
 2412 0196 0B       		.uleb128 0xb
 2413 0197 3B       		.uleb128 0x3b
 2414 0198 0B       		.uleb128 0xb
 2415 0199 49       		.uleb128 0x49
 2416 019a 13       		.uleb128 0x13
 2417 019b 00       		.byte	0
 2418 019c 00       		.byte	0
 2419 019d 21       		.uleb128 0x21
 2420 019e 1D       		.uleb128 0x1d
 2421 019f 01       		.byte	0x1
 2422 01a0 31       		.uleb128 0x31
 2423 01a1 13       		.uleb128 0x13
 2424 01a2 52       		.uleb128 0x52
 2425 01a3 01       		.uleb128 0x1
 2426 01a4 55       		.uleb128 0x55
 2427 01a5 17       		.uleb128 0x17
 2428 01a6 58       		.uleb128 0x58
 2429 01a7 0B       		.uleb128 0xb
 2430 01a8 59       		.uleb128 0x59
ARM GAS  /var/folders/c6/c789hm653lg9vtl73krp73tm0000gn/T//ccGBNNCQ.s 			page 70


 2431 01a9 0B       		.uleb128 0xb
 2432 01aa 01       		.uleb128 0x1
 2433 01ab 13       		.uleb128 0x13
 2434 01ac 00       		.byte	0
 2435 01ad 00       		.byte	0
 2436 01ae 22       		.uleb128 0x22
 2437 01af 1D       		.uleb128 0x1d
 2438 01b0 00       		.byte	0
 2439 01b1 31       		.uleb128 0x31
 2440 01b2 13       		.uleb128 0x13
 2441 01b3 52       		.uleb128 0x52
 2442 01b4 01       		.uleb128 0x1
 2443 01b5 55       		.uleb128 0x55
 2444 01b6 17       		.uleb128 0x17
 2445 01b7 58       		.uleb128 0x58
 2446 01b8 0B       		.uleb128 0xb
 2447 01b9 59       		.uleb128 0x59
 2448 01ba 0B       		.uleb128 0xb
 2449 01bb 00       		.byte	0
 2450 01bc 00       		.byte	0
 2451 01bd 23       		.uleb128 0x23
 2452 01be 898201   		.uleb128 0x4109
 2453 01c1 01       		.byte	0x1
 2454 01c2 11       		.uleb128 0x11
 2455 01c3 01       		.uleb128 0x1
 2456 01c4 31       		.uleb128 0x31
 2457 01c5 13       		.uleb128 0x13
 2458 01c6 01       		.uleb128 0x1
 2459 01c7 13       		.uleb128 0x13
 2460 01c8 00       		.byte	0
 2461 01c9 00       		.byte	0
 2462 01ca 24       		.uleb128 0x24
 2463 01cb 8A8201   		.uleb128 0x410a
 2464 01ce 00       		.byte	0
 2465 01cf 02       		.uleb128 0x2
 2466 01d0 18       		.uleb128 0x18
 2467 01d1 9142     		.uleb128 0x2111
 2468 01d3 18       		.uleb128 0x18
 2469 01d4 00       		.byte	0
 2470 01d5 00       		.byte	0
 2471 01d6 25       		.uleb128 0x25
 2472 01d7 898201   		.uleb128 0x4109
 2473 01da 00       		.byte	0
 2474 01db 11       		.uleb128 0x11
 2475 01dc 01       		.uleb128 0x1
 2476 01dd 31       		.uleb128 0x31
 2477 01de 13       		.uleb128 0x13
 2478 01df 00       		.byte	0
 2479 01e0 00       		.byte	0
 2480 01e1 26       		.uleb128 0x26
 2481 01e2 898201   		.uleb128 0x4109
 2482 01e5 01       		.byte	0x1
 2483 01e6 11       		.uleb128 0x11
 2484 01e7 01       		.uleb128 0x1
 2485 01e8 9542     		.uleb128 0x2115
 2486 01ea 19       		.uleb128 0x19
 2487 01eb 31       		.uleb128 0x31
ARM GAS  /var/folders/c6/c789hm653lg9vtl73krp73tm0000gn/T//ccGBNNCQ.s 			page 71


 2488 01ec 13       		.uleb128 0x13
 2489 01ed 00       		.byte	0
 2490 01ee 00       		.byte	0
 2491 01ef 27       		.uleb128 0x27
 2492 01f0 05       		.uleb128 0x5
 2493 01f1 00       		.byte	0
 2494 01f2 03       		.uleb128 0x3
 2495 01f3 08       		.uleb128 0x8
 2496 01f4 3A       		.uleb128 0x3a
 2497 01f5 0B       		.uleb128 0xb
 2498 01f6 3B       		.uleb128 0x3b
 2499 01f7 0B       		.uleb128 0xb
 2500 01f8 49       		.uleb128 0x49
 2501 01f9 13       		.uleb128 0x13
 2502 01fa 02       		.uleb128 0x2
 2503 01fb 17       		.uleb128 0x17
 2504 01fc 00       		.byte	0
 2505 01fd 00       		.byte	0
 2506 01fe 28       		.uleb128 0x28
 2507 01ff 34       		.uleb128 0x34
 2508 0200 00       		.byte	0
 2509 0201 03       		.uleb128 0x3
 2510 0202 0E       		.uleb128 0xe
 2511 0203 3A       		.uleb128 0x3a
 2512 0204 0B       		.uleb128 0xb
 2513 0205 3B       		.uleb128 0x3b
 2514 0206 05       		.uleb128 0x5
 2515 0207 49       		.uleb128 0x49
 2516 0208 13       		.uleb128 0x13
 2517 0209 3F       		.uleb128 0x3f
 2518 020a 19       		.uleb128 0x19
 2519 020b 3C       		.uleb128 0x3c
 2520 020c 19       		.uleb128 0x19
 2521 020d 00       		.byte	0
 2522 020e 00       		.byte	0
 2523 020f 29       		.uleb128 0x29
 2524 0210 34       		.uleb128 0x34
 2525 0211 00       		.byte	0
 2526 0212 03       		.uleb128 0x3
 2527 0213 08       		.uleb128 0x8
 2528 0214 3A       		.uleb128 0x3a
 2529 0215 0B       		.uleb128 0xb
 2530 0216 3B       		.uleb128 0x3b
 2531 0217 05       		.uleb128 0x5
 2532 0218 49       		.uleb128 0x49
 2533 0219 13       		.uleb128 0x13
 2534 021a 3F       		.uleb128 0x3f
 2535 021b 19       		.uleb128 0x19
 2536 021c 3C       		.uleb128 0x3c
 2537 021d 19       		.uleb128 0x19
 2538 021e 00       		.byte	0
 2539 021f 00       		.byte	0
 2540 0220 2A       		.uleb128 0x2a
 2541 0221 34       		.uleb128 0x34
 2542 0222 00       		.byte	0
 2543 0223 03       		.uleb128 0x3
 2544 0224 0E       		.uleb128 0xe
ARM GAS  /var/folders/c6/c789hm653lg9vtl73krp73tm0000gn/T//ccGBNNCQ.s 			page 72


 2545 0225 3A       		.uleb128 0x3a
 2546 0226 0B       		.uleb128 0xb
 2547 0227 3B       		.uleb128 0x3b
 2548 0228 0B       		.uleb128 0xb
 2549 0229 49       		.uleb128 0x49
 2550 022a 13       		.uleb128 0x13
 2551 022b 3F       		.uleb128 0x3f
 2552 022c 19       		.uleb128 0x19
 2553 022d 3C       		.uleb128 0x3c
 2554 022e 19       		.uleb128 0x19
 2555 022f 00       		.byte	0
 2556 0230 00       		.byte	0
 2557 0231 2B       		.uleb128 0x2b
 2558 0232 21       		.uleb128 0x21
 2559 0233 00       		.byte	0
 2560 0234 00       		.byte	0
 2561 0235 00       		.byte	0
 2562 0236 2C       		.uleb128 0x2c
 2563 0237 34       		.uleb128 0x34
 2564 0238 00       		.byte	0
 2565 0239 03       		.uleb128 0x3
 2566 023a 08       		.uleb128 0x8
 2567 023b 3A       		.uleb128 0x3a
 2568 023c 0B       		.uleb128 0xb
 2569 023d 3B       		.uleb128 0x3b
 2570 023e 0B       		.uleb128 0xb
 2571 023f 49       		.uleb128 0x49
 2572 0240 13       		.uleb128 0x13
 2573 0241 3F       		.uleb128 0x3f
 2574 0242 19       		.uleb128 0x19
 2575 0243 3C       		.uleb128 0x3c
 2576 0244 19       		.uleb128 0x19
 2577 0245 00       		.byte	0
 2578 0246 00       		.byte	0
 2579 0247 2D       		.uleb128 0x2d
 2580 0248 34       		.uleb128 0x34
 2581 0249 00       		.byte	0
 2582 024a 03       		.uleb128 0x3
 2583 024b 0E       		.uleb128 0xe
 2584 024c 3A       		.uleb128 0x3a
 2585 024d 0B       		.uleb128 0xb
 2586 024e 3B       		.uleb128 0x3b
 2587 024f 0B       		.uleb128 0xb
 2588 0250 49       		.uleb128 0x49
 2589 0251 13       		.uleb128 0x13
 2590 0252 3F       		.uleb128 0x3f
 2591 0253 19       		.uleb128 0x19
 2592 0254 02       		.uleb128 0x2
 2593 0255 18       		.uleb128 0x18
 2594 0256 00       		.byte	0
 2595 0257 00       		.byte	0
 2596 0258 2E       		.uleb128 0x2e
 2597 0259 2E       		.uleb128 0x2e
 2598 025a 01       		.byte	0x1
 2599 025b 3F       		.uleb128 0x3f
 2600 025c 19       		.uleb128 0x19
 2601 025d 03       		.uleb128 0x3
ARM GAS  /var/folders/c6/c789hm653lg9vtl73krp73tm0000gn/T//ccGBNNCQ.s 			page 73


 2602 025e 0E       		.uleb128 0xe
 2603 025f 3A       		.uleb128 0x3a
 2604 0260 0B       		.uleb128 0xb
 2605 0261 3B       		.uleb128 0x3b
 2606 0262 0B       		.uleb128 0xb
 2607 0263 27       		.uleb128 0x27
 2608 0264 19       		.uleb128 0x19
 2609 0265 49       		.uleb128 0x49
 2610 0266 13       		.uleb128 0x13
 2611 0267 3C       		.uleb128 0x3c
 2612 0268 19       		.uleb128 0x19
 2613 0269 01       		.uleb128 0x1
 2614 026a 13       		.uleb128 0x13
 2615 026b 00       		.byte	0
 2616 026c 00       		.byte	0
 2617 026d 2F       		.uleb128 0x2f
 2618 026e 2E       		.uleb128 0x2e
 2619 026f 00       		.byte	0
 2620 0270 3F       		.uleb128 0x3f
 2621 0271 19       		.uleb128 0x19
 2622 0272 03       		.uleb128 0x3
 2623 0273 0E       		.uleb128 0xe
 2624 0274 3A       		.uleb128 0x3a
 2625 0275 0B       		.uleb128 0xb
 2626 0276 3B       		.uleb128 0x3b
 2627 0277 0B       		.uleb128 0xb
 2628 0278 27       		.uleb128 0x27
 2629 0279 19       		.uleb128 0x19
 2630 027a 49       		.uleb128 0x49
 2631 027b 13       		.uleb128 0x13
 2632 027c 3C       		.uleb128 0x3c
 2633 027d 19       		.uleb128 0x19
 2634 027e 00       		.byte	0
 2635 027f 00       		.byte	0
 2636 0280 30       		.uleb128 0x30
 2637 0281 2E       		.uleb128 0x2e
 2638 0282 01       		.byte	0x1
 2639 0283 3F       		.uleb128 0x3f
 2640 0284 19       		.uleb128 0x19
 2641 0285 03       		.uleb128 0x3
 2642 0286 0E       		.uleb128 0xe
 2643 0287 3A       		.uleb128 0x3a
 2644 0288 0B       		.uleb128 0xb
 2645 0289 3B       		.uleb128 0x3b
 2646 028a 0B       		.uleb128 0xb
 2647 028b 27       		.uleb128 0x27
 2648 028c 19       		.uleb128 0x19
 2649 028d 3C       		.uleb128 0x3c
 2650 028e 19       		.uleb128 0x19
 2651 028f 01       		.uleb128 0x1
 2652 0290 13       		.uleb128 0x13
 2653 0291 00       		.byte	0
 2654 0292 00       		.byte	0
 2655 0293 31       		.uleb128 0x31
 2656 0294 2E       		.uleb128 0x2e
 2657 0295 01       		.byte	0x1
 2658 0296 3F       		.uleb128 0x3f
ARM GAS  /var/folders/c6/c789hm653lg9vtl73krp73tm0000gn/T//ccGBNNCQ.s 			page 74


 2659 0297 19       		.uleb128 0x19
 2660 0298 03       		.uleb128 0x3
 2661 0299 0E       		.uleb128 0xe
 2662 029a 3A       		.uleb128 0x3a
 2663 029b 0B       		.uleb128 0xb
 2664 029c 3B       		.uleb128 0x3b
 2665 029d 0B       		.uleb128 0xb
 2666 029e 27       		.uleb128 0x27
 2667 029f 19       		.uleb128 0x19
 2668 02a0 49       		.uleb128 0x49
 2669 02a1 13       		.uleb128 0x13
 2670 02a2 3C       		.uleb128 0x3c
 2671 02a3 19       		.uleb128 0x19
 2672 02a4 00       		.byte	0
 2673 02a5 00       		.byte	0
 2674 02a6 00       		.byte	0
 2675              		.section	.debug_loc,"",%progbits
 2676              	.Ldebug_loc0:
 2677              	.LLST0:
 2678 0000 24000000 		.4byte	.LVL1
 2679 0004 2B000000 		.4byte	.LVL3-1
 2680 0008 0100     		.2byte	0x1
 2681 000a 50       		.byte	0x50
 2682 000b 36000000 		.4byte	.LVL5
 2683 000f 3D000000 		.4byte	.LVL7-1
 2684 0013 0100     		.2byte	0x1
 2685 0015 50       		.byte	0x50
 2686 0016 48000000 		.4byte	.LVL9
 2687 001a 4F000000 		.4byte	.LVL11-1
 2688 001e 0100     		.2byte	0x1
 2689 0020 50       		.byte	0x50
 2690 0021 00000000 		.4byte	0
 2691 0025 00000000 		.4byte	0
 2692              	.LLST1:
 2693 0029 00000000 		.4byte	.LVL14
 2694 002d 09000000 		.4byte	.LVL15-1
 2695 0031 0100     		.2byte	0x1
 2696 0033 50       		.byte	0x50
 2697 0034 09000000 		.4byte	.LVL15-1
 2698 0038 1A000000 		.4byte	.LVL17
 2699 003c 0100     		.2byte	0x1
 2700 003e 54       		.byte	0x54
 2701 003f 1A000000 		.4byte	.LVL17
 2702 0043 1D000000 		.4byte	.LVL18-1
 2703 0047 0100     		.2byte	0x1
 2704 0049 50       		.byte	0x50
 2705 004a 1D000000 		.4byte	.LVL18-1
 2706 004e 1E000000 		.4byte	.LFE229
 2707 0052 0400     		.2byte	0x4
 2708 0054 F3       		.byte	0xf3
 2709 0055 01       		.uleb128 0x1
 2710 0056 50       		.byte	0x50
 2711 0057 9F       		.byte	0x9f
 2712 0058 00000000 		.4byte	0
 2713 005c 00000000 		.4byte	0
 2714              		.section	.debug_aranges,"",%progbits
 2715 0000 24000000 		.4byte	0x24
ARM GAS  /var/folders/c6/c789hm653lg9vtl73krp73tm0000gn/T//ccGBNNCQ.s 			page 75


 2716 0004 0200     		.2byte	0x2
 2717 0006 00000000 		.4byte	.Ldebug_info0
 2718 000a 04       		.byte	0x4
 2719 000b 00       		.byte	0
 2720 000c 0000     		.2byte	0
 2721 000e 0000     		.2byte	0
 2722 0010 00000000 		.4byte	.LFB230
 2723 0014 78000000 		.4byte	.LFE230-.LFB230
 2724 0018 00000000 		.4byte	.LFB229
 2725 001c 1E000000 		.4byte	.LFE229-.LFB229
 2726 0020 00000000 		.4byte	0
 2727 0024 00000000 		.4byte	0
 2728              		.section	.debug_ranges,"",%progbits
 2729              	.Ldebug_ranges0:
 2730 0000 02000000 		.4byte	.LBB16
 2731 0004 04000000 		.4byte	.LBE16
 2732 0008 06000000 		.4byte	.LBB23
 2733 000c 08000000 		.4byte	.LBE23
 2734 0010 00000000 		.4byte	0
 2735 0014 00000000 		.4byte	0
 2736 0018 02000000 		.4byte	.LBB18
 2737 001c 04000000 		.4byte	.LBE18
 2738 0020 06000000 		.4byte	.LBB21
 2739 0024 08000000 		.4byte	.LBE21
 2740 0028 00000000 		.4byte	0
 2741 002c 00000000 		.4byte	0
 2742 0030 00000000 		.4byte	.LFB230
 2743 0034 78000000 		.4byte	.LFE230
 2744 0038 00000000 		.4byte	.LFB229
 2745 003c 1E000000 		.4byte	.LFE229
 2746 0040 00000000 		.4byte	0
 2747 0044 00000000 		.4byte	0
 2748              		.section	.debug_line,"",%progbits
 2749              	.Ldebug_line0:
 2750 0000 CB020000 		.section	.debug_str,"MS",%progbits,1
 2750      02006802 
 2750      00000201 
 2750      FB0E0D00 
 2750      01010101 
 2751              	.LASF128:
 2752 0000 7466756E 		.ascii	"tfunc_t\000"
 2752      635F7400 
 2753              	.LASF98:
 2754 0008 74625F70 		.ascii	"tb_ptr\000"
 2754      747200
 2755              	.LASF55:
 2756 000f 72656164 		.ascii	"ready_list_t\000"
 2756      795F6C69 
 2756      73745F74 
 2756      00
 2757              	.LASF92:
 2758 001c 73655F74 		.ascii	"se_time\000"
 2758      696D6500 
 2759              	.LASF2:
 2760 0024 73697A65 		.ascii	"size_t\000"
 2760      5F7400
 2761              	.LASF113:
ARM GAS  /var/folders/c6/c789hm653lg9vtl73krp73tm0000gn/T//ccGBNNCQ.s 			page 76


 2762 002b 7264796D 		.ascii	"rdymsg\000"
 2762      736700
 2763              	.LASF17:
 2764 0032 75696E74 		.ascii	"uint64_t\000"
 2764      36345F74 
 2764      00
 2765              	.LASF85:
 2766 003b 6B65726E 		.ascii	"kernel_stats\000"
 2766      656C5F73 
 2766      74617473 
 2766      00
 2767              	.LASF3:
 2768 0048 5F5F7569 		.ascii	"__uint8_t\000"
 2768      6E74385F 
 2768      7400
 2769              	.LASF91:
 2770 0052 706F7274 		.ascii	"port_intctx\000"
 2770      5F696E74 
 2770      63747800 
 2771              	.LASF54:
 2772 005e 63685F74 		.ascii	"ch_threads_queue\000"
 2772      68726561 
 2772      64735F71 
 2772      75657565 
 2772      00
 2773              	.LASF74:
 2774 006f 73797374 		.ascii	"system_debug_t\000"
 2774      656D5F64 
 2774      65627567 
 2774      5F7400
 2775              	.LASF104:
 2776 007e 776F7273 		.ascii	"worst\000"
 2776      7400
 2777              	.LASF107:
 2778 0084 74696D65 		.ascii	"time_measurement_t\000"
 2778      5F6D6561 
 2778      73757265 
 2778      6D656E74 
 2778      5F7400
 2779              	.LASF13:
 2780 0097 6C6F6E67 		.ascii	"long long unsigned int\000"
 2780      206C6F6E 
 2780      6720756E 
 2780      7369676E 
 2780      65642069 
 2781              	.LASF100:
 2782 00ae 63685F74 		.ascii	"ch_trace_buffer_t\000"
 2782      72616365 
 2782      5F627566 
 2782      6665725F 
 2782      7400
 2783              	.LASF95:
 2784 00c0 73655F73 		.ascii	"se_state\000"
 2784      74617465 
 2784      00
 2785              	.LASF114:
 2786 00c9 65786974 		.ascii	"exitcode\000"
ARM GAS  /var/folders/c6/c789hm653lg9vtl73krp73tm0000gn/T//ccGBNNCQ.s 			page 77


 2786      636F6465 
 2786      00
 2787              	.LASF84:
 2788 00d2 6D61696E 		.ascii	"mainthread\000"
 2788      74687265 
 2788      616400
 2789              	.LASF71:
 2790 00dd 76697274 		.ascii	"virtual_timers_list_t\000"
 2790      75616C5F 
 2790      74696D65 
 2790      72735F6C 
 2790      6973745F 
 2791              	.LASF139:
 2792 00f3 49544D5F 		.ascii	"ITM_RxBuffer\000"
 2792      52784275 
 2792      66666572 
 2792      00
 2793              	.LASF19:
 2794 0100 72747469 		.ascii	"rttime_t\000"
 2794      6D655F74 
 2794      00
 2795              	.LASF32:
 2796 0109 705F7072 		.ascii	"p_prio\000"
 2796      696F00
 2797              	.LASF11:
 2798 0110 6C6F6E67 		.ascii	"long long int\000"
 2798      206C6F6E 
 2798      6720696E 
 2798      7400
 2799              	.LASF1:
 2800 011e 7369676E 		.ascii	"signed char\000"
 2800      65642063 
 2800      68617200 
 2801              	.LASF47:
 2802 012a 705F6D70 		.ascii	"p_mpool\000"
 2802      6F6F6C00 
 2803              	.LASF124:
 2804 0132 6D5F7175 		.ascii	"m_queue\000"
 2804      65756500 
 2805              	.LASF144:
 2806 013a 74657374 		.ascii	"test_emit_token\000"
 2806      5F656D69 
 2806      745F746F 
 2806      6B656E00 
 2807              	.LASF83:
 2808 014a 76746C69 		.ascii	"vtlist\000"
 2808      737400
 2809              	.LASF116:
 2810 0151 77747472 		.ascii	"wttrp\000"
 2810      7000
 2811              	.LASF81:
 2812 0157 63685F73 		.ascii	"ch_system\000"
 2812      79737465 
 2812      6D00
 2813              	.LASF8:
 2814 0161 6C6F6E67 		.ascii	"long int\000"
 2814      20696E74 
ARM GAS  /var/folders/c6/c789hm653lg9vtl73krp73tm0000gn/T//ccGBNNCQ.s 			page 78


 2814      00
 2815              	.LASF148:
 2816 016a 63684D73 		.ascii	"chMsgSend\000"
 2816      6753656E 
 2816      6400
 2817              	.LASF21:
 2818 0174 74737461 		.ascii	"tstate_t\000"
 2818      74655F74 
 2818      00
 2819              	.LASF93:
 2820 017d 73655F74 		.ascii	"se_tp\000"
 2820      7000
 2821              	.LASF34:
 2822 0183 705F6E65 		.ascii	"p_newer\000"
 2822      77657200 
 2823              	.LASF121:
 2824 018b 735F7175 		.ascii	"s_queue\000"
 2824      65756500 
 2825              	.LASF97:
 2826 0193 74625F73 		.ascii	"tb_size\000"
 2826      697A6500 
 2827              	.LASF60:
 2828 019b 725F6E65 		.ascii	"r_newer\000"
 2828      77657200 
 2829              	.LASF88:
 2830 01a3 72656761 		.ascii	"regarm_t\000"
 2830      726D5F74 
 2830      00
 2831              	.LASF67:
 2832 01ac 76745F70 		.ascii	"vt_prev\000"
 2832      72657600 
 2833              	.LASF75:
 2834 01b4 63685F73 		.ascii	"ch_system_debug\000"
 2834      79737465 
 2834      6D5F6465 
 2834      62756700 
 2835              	.LASF129:
 2836 01c4 6D757465 		.ascii	"mutex_t\000"
 2836      785F7400 
 2837              	.LASF78:
 2838 01cc 6C6F636B 		.ascii	"lock_cnt\000"
 2838      5F636E74 
 2838      00
 2839              	.LASF86:
 2840 01d5 69646C65 		.ascii	"idle_thread_wa\000"
 2840      5F746872 
 2840      6561645F 
 2840      776100
 2841              	.LASF26:
 2842 01e4 636E745F 		.ascii	"cnt_t\000"
 2842      7400
 2843              	.LASF37:
 2844 01ea 705F7374 		.ascii	"p_stklimit\000"
 2844      6B6C696D 
 2844      697400
 2845              	.LASF0:
 2846 01f5 756E7369 		.ascii	"unsigned int\000"
ARM GAS  /var/folders/c6/c789hm653lg9vtl73krp73tm0000gn/T//ccGBNNCQ.s 			page 79


 2846      676E6564 
 2846      20696E74 
 2846      00
 2847              	.LASF66:
 2848 0202 76745F6E 		.ascii	"vt_next\000"
 2848      65787400 
 2849              	.LASF117:
 2850 020a 77747365 		.ascii	"wtsemp\000"
 2850      6D7000
 2851              	.LASF42:
 2852 0211 705F6D73 		.ascii	"p_msgqueue\000"
 2852      67717565 
 2852      756500
 2853              	.LASF133:
 2854 021c 74656172 		.ascii	"teardown\000"
 2854      646F776E 
 2854      00
 2855              	.LASF152:
 2856 0225 63684D73 		.ascii	"chMsgGet\000"
 2856      67476574 
 2856      00
 2857              	.LASF108:
 2858 022e 6E5F6972 		.ascii	"n_irq\000"
 2858      7100
 2859              	.LASF122:
 2860 0234 735F636E 		.ascii	"s_cnt\000"
 2860      7400
 2861              	.LASF131:
 2862 023a 6E616D65 		.ascii	"name\000"
 2862      00
 2863              	.LASF151:
 2864 023f 2F557365 		.ascii	"/Users/savonetj/Downloads/ChibiOS_3.0.2/demos/STM32"
 2864      72732F73 
 2864      61766F6E 
 2864      65746A2F 
 2864      446F776E 
 2865 0272 2F52542D 		.ascii	"/RT-STM32F407-OLIMEX_E407-LWIP-FATFS-USB\000"
 2865      53544D33 
 2865      32463430 
 2865      372D4F4C 
 2865      494D4558 
 2866              	.LASF6:
 2867 029b 73686F72 		.ascii	"short unsigned int\000"
 2867      7420756E 
 2867      7369676E 
 2867      65642069 
 2867      6E7400
 2868              	.LASF112:
 2869 02ae 6B65726E 		.ascii	"kernel_stats_t\000"
 2869      656C5F73 
 2869      74617473 
 2869      5F7400
 2870              	.LASF51:
 2871 02bd 63685F74 		.ascii	"ch_thread\000"
 2871      68726561 
 2871      6400
 2872              	.LASF24:
ARM GAS  /var/folders/c6/c789hm653lg9vtl73krp73tm0000gn/T//ccGBNNCQ.s 			page 80


 2873 02c7 6D73675F 		.ascii	"msg_t\000"
 2873      7400
 2874              	.LASF105:
 2875 02cd 6C617374 		.ascii	"last\000"
 2875      00
 2876              	.LASF27:
 2877 02d2 75636E74 		.ascii	"ucnt_t\000"
 2877      5F7400
 2878              	.LASF80:
 2879 02d9 63685F73 		.ascii	"ch_system_t\000"
 2879      79737465 
 2879      6D5F7400 
 2880              	.LASF150:
 2881 02e5 2E2E2F2E 		.ascii	"../../../test/rt/testmsg.c\000"
 2881      2E2F2E2E 
 2881      2F746573 
 2881      742F7274 
 2881      2F746573 
 2882              	.LASF20:
 2883 0300 746D6F64 		.ascii	"tmode_t\000"
 2883      655F7400 
 2884              	.LASF111:
 2885 0308 6D5F6372 		.ascii	"m_crit_isr\000"
 2885      69745F69 
 2885      737200
 2886              	.LASF56:
 2887 0313 63685F72 		.ascii	"ch_ready_list\000"
 2887      65616479 
 2887      5F6C6973 
 2887      7400
 2888              	.LASF25:
 2889 0321 6576656E 		.ascii	"eventmask_t\000"
 2889      746D6173 
 2889      6B5F7400 
 2890              	.LASF7:
 2891 032d 5F5F696E 		.ascii	"__int32_t\000"
 2891      7433325F 
 2891      7400
 2892              	.LASF89:
 2893 0337 73746B61 		.ascii	"stkalign_t\000"
 2893      6C69676E 
 2893      5F7400
 2894              	.LASF145:
 2895 0342 63685468 		.ascii	"chThdCreateStatic\000"
 2895      64437265 
 2895      61746553 
 2895      74617469 
 2895      6300
 2896              	.LASF41:
 2897 0354 705F7761 		.ascii	"p_waiting\000"
 2897      6974696E 
 2897      6700
 2898              	.LASF142:
 2899 035e 70617474 		.ascii	"patternmsg\000"
 2899      65726E6D 
 2899      736700
 2900              	.LASF87:
ARM GAS  /var/folders/c6/c789hm653lg9vtl73krp73tm0000gn/T//ccGBNNCQ.s 			page 81


 2901 0369 73697A65 		.ascii	"sizetype\000"
 2901      74797065 
 2901      00
 2902              	.LASF49:
 2903 0372 74687265 		.ascii	"thread_reference_t\000"
 2903      61645F72 
 2903      65666572 
 2903      656E6365 
 2903      5F7400
 2904              	.LASF102:
 2905 0385 746D5F63 		.ascii	"tm_calibration_t\000"
 2905      616C6962 
 2905      72617469 
 2905      6F6E5F74 
 2905      00
 2906              	.LASF72:
 2907 0396 63685F76 		.ascii	"ch_virtual_timers_list\000"
 2907      69727475 
 2907      616C5F74 
 2907      696D6572 
 2907      735F6C69 
 2908              	.LASF96:
 2909 03ad 63685F73 		.ascii	"ch_swc_event_t\000"
 2909      77635F65 
 2909      76656E74 
 2909      5F7400
 2910              	.LASF73:
 2911 03bc 76745F6C 		.ascii	"vt_lasttime\000"
 2911      61737474 
 2911      696D6500 
 2912              	.LASF35:
 2913 03c8 705F6F6C 		.ascii	"p_older\000"
 2913      64657200 
 2914              	.LASF59:
 2915 03d0 725F6374 		.ascii	"r_ctx\000"
 2915      7800
 2916              	.LASF136:
 2917 03d6 63685468 		.ascii	"chThdGetPriorityX\000"
 2917      64476574 
 2917      5072696F 
 2917      72697479 
 2917      5800
 2918              	.LASF132:
 2919 03e8 73657475 		.ascii	"setup\000"
 2919      7000
 2920              	.LASF146:
 2921 03ee 5F746573 		.ascii	"_test_assert_sequence\000"
 2921      745F6173 
 2921      73657274 
 2921      5F736571 
 2921      75656E63 
 2922              	.LASF62:
 2923 0404 725F6375 		.ascii	"r_current\000"
 2923      7272656E 
 2923      7400
 2924              	.LASF61:
 2925 040e 725F6F6C 		.ascii	"r_older\000"
ARM GAS  /var/folders/c6/c789hm653lg9vtl73krp73tm0000gn/T//ccGBNNCQ.s 			page 82


 2925      64657200 
 2926              	.LASF12:
 2927 0416 5F5F7569 		.ascii	"__uint64_t\000"
 2927      6E743634 
 2927      5F7400
 2928              	.LASF106:
 2929 0421 63756D75 		.ascii	"cumulative\000"
 2929      6C617469 
 2929      766500
 2930              	.LASF22:
 2931 042c 74726566 		.ascii	"trefs_t\000"
 2931      735F7400 
 2932              	.LASF99:
 2933 0434 74625F62 		.ascii	"tb_buffer\000"
 2933      75666665 
 2933      7200
 2934              	.LASF64:
 2935 043e 76697274 		.ascii	"virtual_timer_t\000"
 2935      75616C5F 
 2935      74696D65 
 2935      725F7400 
 2936              	.LASF31:
 2937 044e 705F7072 		.ascii	"p_prev\000"
 2937      657600
 2938              	.LASF134:
 2939 0455 65786563 		.ascii	"execute\000"
 2939      75746500 
 2940              	.LASF23:
 2941 045d 74707269 		.ascii	"tprio_t\000"
 2941      6F5F7400 
 2942              	.LASF138:
 2943 0465 74687265 		.ascii	"thread\000"
 2943      616400
 2944              	.LASF109:
 2945 046c 6E5F6374 		.ascii	"n_ctxswc\000"
 2945      78737763 
 2945      00
 2946              	.LASF147:
 2947 0475 5F426F6F 		.ascii	"_Bool\000"
 2947      6C00
 2948              	.LASF15:
 2949 047b 696E7433 		.ascii	"int32_t\000"
 2949      325F7400 
 2950              	.LASF4:
 2951 0483 756E7369 		.ascii	"unsigned char\000"
 2951      676E6564 
 2951      20636861 
 2951      7200
 2952              	.LASF45:
 2953 0491 705F6D74 		.ascii	"p_mtxlist\000"
 2953      786C6973 
 2953      7400
 2954              	.LASF5:
 2955 049b 73686F72 		.ascii	"short int\000"
 2955      7420696E 
 2955      7400
 2956              	.LASF38:
ARM GAS  /var/folders/c6/c789hm653lg9vtl73krp73tm0000gn/T//ccGBNNCQ.s 			page 83


 2957 04a5 705F7374 		.ascii	"p_state\000"
 2957      61746500 
 2958              	.LASF140:
 2959 04ad 74687265 		.ascii	"threads\000"
 2959      61647300 
 2960              	.LASF58:
 2961 04b5 725F7072 		.ascii	"r_prio\000"
 2961      696F00
 2962              	.LASF141:
 2963 04bc 74657374 		.ascii	"testmsg1\000"
 2963      6D736731 
 2963      00
 2964              	.LASF119:
 2965 04c5 65776D61 		.ascii	"ewmask\000"
 2965      736B00
 2966              	.LASF30:
 2967 04cc 705F6E65 		.ascii	"p_next\000"
 2967      787400
 2968              	.LASF39:
 2969 04d3 705F666C 		.ascii	"p_flags\000"
 2969      61677300 
 2970              	.LASF48:
 2971 04db 705F7374 		.ascii	"p_stats\000"
 2971      61747300 
 2972              	.LASF65:
 2973 04e3 63685F76 		.ascii	"ch_virtual_timer\000"
 2973      69727475 
 2973      616C5F74 
 2973      696D6572 
 2973      00
 2974              	.LASF143:
 2975 04f4 63684D73 		.ascii	"chMsgRelease\000"
 2975      6752656C 
 2975      65617365 
 2975      00
 2976              	.LASF130:
 2977 0501 74657374 		.ascii	"testcase\000"
 2977      63617365 
 2977      00
 2978              	.LASF120:
 2979 050a 63685F73 		.ascii	"ch_semaphore\000"
 2979      656D6170 
 2979      686F7265 
 2979      00
 2980              	.LASF44:
 2981 0517 705F6570 		.ascii	"p_epending\000"
 2981      656E6469 
 2981      6E6700
 2982              	.LASF16:
 2983 0522 75696E74 		.ascii	"uint32_t\000"
 2983      33325F74 
 2983      00
 2984              	.LASF118:
 2985 052b 77746D74 		.ascii	"wtmtxp\000"
 2985      787000
 2986              	.LASF57:
 2987 0532 725F7175 		.ascii	"r_queue\000"
ARM GAS  /var/folders/c6/c789hm653lg9vtl73krp73tm0000gn/T//ccGBNNCQ.s 			page 84


 2987      65756500 
 2988              	.LASF68:
 2989 053a 76745F64 		.ascii	"vt_delta\000"
 2989      656C7461 
 2989      00
 2990              	.LASF52:
 2991 0543 63685F74 		.ascii	"ch_threads_list\000"
 2991      68726561 
 2991      64735F6C 
 2991      69737400 
 2992              	.LASF10:
 2993 0553 6C6F6E67 		.ascii	"long unsigned int\000"
 2993      20756E73 
 2993      69676E65 
 2993      6420696E 
 2993      7400
 2994              	.LASF127:
 2995 0565 63686172 		.ascii	"char\000"
 2995      00
 2996              	.LASF29:
 2997 056a 74687265 		.ascii	"thread_t\000"
 2997      61645F74 
 2997      00
 2998              	.LASF103:
 2999 0573 62657374 		.ascii	"best\000"
 2999      00
 3000              	.LASF126:
 3001 0578 6D5F6E65 		.ascii	"m_next\000"
 3001      787400
 3002              	.LASF28:
 3003 057f 73797374 		.ascii	"systime_t\000"
 3003      696D655F 
 3003      7400
 3004              	.LASF46:
 3005 0589 705F7265 		.ascii	"p_realprio\000"
 3005      616C7072 
 3005      696F00
 3006              	.LASF63:
 3007 0594 76746675 		.ascii	"vtfunc_t\000"
 3007      6E635F74 
 3007      00
 3008              	.LASF9:
 3009 059d 5F5F7569 		.ascii	"__uint32_t\000"
 3009      6E743332 
 3009      5F7400
 3010              	.LASF76:
 3011 05a8 70616E69 		.ascii	"panic_msg\000"
 3011      635F6D73 
 3011      6700
 3012              	.LASF101:
 3013 05b2 6F666673 		.ascii	"offset\000"
 3013      657400
 3014              	.LASF90:
 3015 05b9 636F6E74 		.ascii	"context\000"
 3015      65787400 
 3016              	.LASF18:
 3017 05c1 7274636E 		.ascii	"rtcnt_t\000"
ARM GAS  /var/folders/c6/c789hm653lg9vtl73krp73tm0000gn/T//ccGBNNCQ.s 			page 85


 3017      745F7400 
 3018              	.LASF70:
 3019 05c9 76745F70 		.ascii	"vt_par\000"
 3019      617200
 3020              	.LASF153:
 3021 05d0 63684D73 		.ascii	"chMsgWait\000"
 3021      67576169 
 3021      7400
 3022              	.LASF53:
 3023 05da 74687265 		.ascii	"threads_queue_t\000"
 3023      6164735F 
 3023      71756575 
 3023      655F7400 
 3024              	.LASF123:
 3025 05ea 63685F6D 		.ascii	"ch_mutex\000"
 3025      75746578 
 3025      00
 3026              	.LASF40:
 3027 05f3 705F7265 		.ascii	"p_refs\000"
 3027      667300
 3028              	.LASF77:
 3029 05fa 6973725F 		.ascii	"isr_cnt\000"
 3029      636E7400 
 3030              	.LASF82:
 3031 0602 726C6973 		.ascii	"rlist\000"
 3031      7400
 3032              	.LASF135:
 3033 0608 63685468 		.ascii	"chThdGetSelfX\000"
 3033      64476574 
 3033      53656C66 
 3033      5800
 3034              	.LASF14:
 3035 0616 75696E74 		.ascii	"uint8_t\000"
 3035      385F7400 
 3036              	.LASF137:
 3037 061e 6D736731 		.ascii	"msg1_execute\000"
 3037      5F657865 
 3037      63757465 
 3037      00
 3038              	.LASF115:
 3039 062b 77746F62 		.ascii	"wtobjp\000"
 3039      6A7000
 3040              	.LASF36:
 3041 0632 705F6E61 		.ascii	"p_name\000"
 3041      6D6500
 3042              	.LASF50:
 3043 0639 74687265 		.ascii	"threads_list_t\000"
 3043      6164735F 
 3043      6C697374 
 3043      5F7400
 3044              	.LASF79:
 3045 0648 74726163 		.ascii	"trace_buffer\000"
 3045      655F6275 
 3045      66666572 
 3045      00
 3046              	.LASF149:
 3047 0655 474E5520 		.ascii	"GNU C 4.8.4 20140725 (release) [ARM/embedded-4_8-br"
ARM GAS  /var/folders/c6/c789hm653lg9vtl73krp73tm0000gn/T//ccGBNNCQ.s 			page 86


 3047      4320342E 
 3047      382E3420 
 3047      32303134 
 3047      30373235 
 3048 0688 616E6368 		.ascii	"anch revision 213147] -mcpu=cortex-m4 -mno-thumb-in"
 3048      20726576 
 3048      6973696F 
 3048      6E203231 
 3048      33313437 
 3049 06bb 74657277 		.ascii	"terwork -mthumb -ggdb -O2 -fomit-frame-pointer -fal"
 3049      6F726B20 
 3049      2D6D7468 
 3049      756D6220 
 3049      2D676764 
 3050 06ee 69676E2D 		.ascii	"ign-functions=16 -ffunction-sections -fdata-section"
 3050      66756E63 
 3050      74696F6E 
 3050      733D3136 
 3050      202D6666 
 3051 0721 73202D66 		.ascii	"s -fno-common -flto\000"
 3051      6E6F2D63 
 3051      6F6D6D6F 
 3051      6E202D66 
 3051      6C746F00 
 3052              	.LASF43:
 3053 0735 705F6D73 		.ascii	"p_msg\000"
 3053      6700
 3054              	.LASF110:
 3055 073b 6D5F6372 		.ascii	"m_crit_thd\000"
 3055      69745F74 
 3055      686400
 3056              	.LASF125:
 3057 0746 6D5F6F77 		.ascii	"m_owner\000"
 3057      6E657200 
 3058              	.LASF94:
 3059 074e 73655F77 		.ascii	"se_wtobjp\000"
 3059      746F626A 
 3059      7000
 3060              	.LASF33:
 3061 0758 705F6374 		.ascii	"p_ctx\000"
 3061      7800
 3062              	.LASF69:
 3063 075e 76745F66 		.ascii	"vt_func\000"
 3063      756E6300 
 3064              		.comm	__gnu_lto_v1,1,1
 3065              		.ident	"GCC: (GNU Tools for ARM Embedded Processors) 4.8.4 20140725 (release) [ARM/embedded-4_8-br
ARM GAS  /var/folders/c6/c789hm653lg9vtl73krp73tm0000gn/T//ccGBNNCQ.s 			page 87


DEFINED SYMBOLS
                            *ABS*:0000000000000000 testmsg.c
/var/folders/c6/c789hm653lg9vtl73krp73tm0000gn/T//ccGBNNCQ.s:445    .text.msg1_execute:0000000000000000 $t
/var/folders/c6/c789hm653lg9vtl73krp73tm0000gn/T//ccGBNNCQ.s:450    .text.msg1_execute:0000000000000000 msg1_execute
/var/folders/c6/c789hm653lg9vtl73krp73tm0000gn/T//ccGBNNCQ.s:554    .text.msg1_execute:0000000000000064 $d
/var/folders/c6/c789hm653lg9vtl73krp73tm0000gn/T//ccGBNNCQ.s:568    .text.thread:0000000000000000 thread
/var/folders/c6/c789hm653lg9vtl73krp73tm0000gn/T//ccGBNNCQ.s:563    .text.thread:0000000000000000 $t
/var/folders/c6/c789hm653lg9vtl73krp73tm0000gn/T//ccGBNNCQ.s:624    .rodata.patternmsg:0000000000000000 patternmsg
/var/folders/c6/c789hm653lg9vtl73krp73tm0000gn/T//ccGBNNCQ.s:609    .rodata.testmsg1:0000000000000000 testmsg1
/var/folders/c6/c789hm653lg9vtl73krp73tm0000gn/T//ccGBNNCQ.s:606    .rodata.testmsg1:0000000000000000 $d
/var/folders/c6/c789hm653lg9vtl73krp73tm0000gn/T//ccGBNNCQ.s:615    .rodata.str1.4:0000000000000000 $d
/var/folders/c6/c789hm653lg9vtl73krp73tm0000gn/T//ccGBNNCQ.s:621    .rodata.patternmsg:0000000000000000 $d
                            *COM*:0000000000000001 __gnu_lto_v1
                     .debug_frame:0000000000000010 $d
/var/folders/c6/c789hm653lg9vtl73krp73tm0000gn/T//ccGBNNCQ.s:562    .text.msg1_execute:0000000000000078 $t

UNDEFINED SYMBOLS
chThdCreateStatic
chMsgWait
chMsgRelease
test_emit_token
_test_assert_sequence
ch
wa
threads
chMsgSend
