ARM GAS  /var/folders/c6/c789hm653lg9vtl73krp73tm0000gn/T//ccGBNNCQ.s 			page 1


   1              		.syntax unified
   2              		.cpu cortex-m4
   3              		.fpu softvfp
   4              		.eabi_attribute 20, 1
   5              		.eabi_attribute 21, 1
   6              		.eabi_attribute 23, 3
   7              		.eabi_attribute 24, 1
   8              		.eabi_attribute 25, 1
   9              		.eabi_attribute 26, 1
  10              		.eabi_attribute 30, 2
  11              		.eabi_attribute 34, 1
  12              		.eabi_attribute 18, 4
  13              		.thumb
  14              		.file	"testmsg.c"
  15              		.text
  16              	.Ltext0:
  17              		.section	.gnu.lto_.jmpfuncs.8a4171ef9de68e69,"",%progbits
  18 0000 789C6362 		.ascii	"x\234cb`b\300\006f\0031+\020\003e\231\230\"\0303\031"
  18      6062C006 
  18      6603312B 
  18      10036599 
  18      98221833 
  19 0015 191881AC 		.ascii	"\031\030\201\254j\206_\0153\032\0042\031\031\345\030"
  19      6A865F0D 
  19      331A0432 
  19      1919E518 
  20 0025 18E736CC 		.ascii	"\030\3476\314p\310d\204hgd`\300\305\000\232\0021\340"
  20      70C86484 
  20      68676460 
  20      C0C5009A 
  20      0231E0
  21 0038 05980F36 		.ascii	"\005\230\0176\243\003d\006s2#\3242fF&f U\006U\311\342"
  21      A3036406 
  21      733223D4 
  21      32664626 
  21      66205506 
  22 004f 0C64A008 		.ascii	"\014d\240\0108\241\0138\0029,\216N\316\014\000o\235"
  22      38A10B38 
  22      02392C8E 
  22      4ECE0C00 
  22      6F9D
  23 0061 1276     		.ascii	"\022v"
  24              		.text
  25              		.section	.gnu.lto_.inline.8a4171ef9de68e69,"",%progbits
  26 0000 789C6362 		.ascii	"x\234cb`b\300\006&Ci\240\254V\017##\003\223@C-\003\333"
  26      6062C006 
  26      264369A0 
  26      AC560F23 
  26      23039340 
  27 0018 0279B06A 		.ascii	"\002y\260jf\036\260\004\0237\003\003\343\004?0o\202"
  27      661EB004 
  27      13370303 
  27      E3043F30 
  27      6F82
  28 002a DF043F10 		.ascii	"\337\004?\020\237\004Av\001\006\006\326\011~\014`\304"
  28      9F044176 
  28      010606D6 
ARM GAS  /var/folders/c6/c789hm653lg9vtl73krp73tm0000gn/T//ccGBNNCQ.s 			page 2


  28      097E0C60 
  28      C4
  29 003b CCC0A3C6 		.ascii	"\314\300\243\306\010v\013\212%@9t\232\001\000a\243\022"
  29      08760B8A 
  29      25403974 
  29      9A010061 
  29      A312
  30 004d 0D       		.ascii	"\015"
  31              		.text
  32              		.section	.gnu.lto_.pureconst.8a4171ef9de68e69,"",%progbits
  33 0000 789C6362 		.ascii	"x\234cb`b`e\200\000&\006If\011\000\001\005\000@"
  33      60626065 
  33      80002606 
  33      49660900 
  33      01050040 
  34              		.text
  35              		.section	.gnu.lto_msg1_execute.8a4171ef9de68e69,"",%progbits
  36 0000 789CAD94 		.ascii	"x\234\255\224\317O\023A\024\307\337\333\266\320Zm)\026"
  36      CF4F1341 
  36      14C7DFDB 
  36      B6D05A6D 
  36      2916
  37 0012 4A29BFD4 		.ascii	"J)\277\324\033\30661z\360\346\217\177\001\023=\326\205"
  37      1BC63631 
  37      7AF0E68F 
  37      7F01133D 
  37      D685
  38 0024 B49B5835 		.ascii	"\264\233X5\264\236<0\264`8`R\361\000\210DP\017\0125"
  38      B49E3C30 
  38      B4603860 
  38      52F10088 
  38      44500F0A 
  39 0039 841013A2 		.ascii	"\204\020\023\242&6\222\030\010(z5\036\032PC\342\305"
  39      26369218 
  39      08287A35 
  39      1E1A5043 
  39      E2C5
  40 004b 18131335 		.ascii	"\030\023\0235\326\367f\177\324\002\002\0076\355\354"
  40      D6F7667F 
  40      D4020207 
  40      36EDEC
  41 005a DB99F7BE 		.ascii	"\333\231\367\276\363\235\317\316\254\002\012\254\277"
  41      F39DCFCE 
  41      AC020AAC 
  41      BF
  42 0067 82F4FF56 		.ascii	"\202\364\377V\001\220\240;\332\000\225\354\033\200n"
  42      0190A03B 
  42      DA0095EC 
  42      1B806E
  43 0076 A782C801 		.ascii	"\247\202\310\001 t)\330u\0369\025\017\302\270\020\003"
  43      207429D8 
  43      751E3915 
  43      0FC2B810 
  43      03
  44 0087 854F2B6B 		.ascii	"\205O+k8,\362=c\342w\261\210\250!\3116!\250\010\347"
  44      382CF23D 
  44      63E277B1 
ARM GAS  /var/folders/c6/c789hm653lg9vtl73krp73tm0000gn/T//ccGBNNCQ.s 			page 3


  44      88A821C9 
  44      3621A808 
  45 009c E8015BE4 		.ascii	"\350\001[\344M\261\227\3173\245\344\013\305bnzle\026"
  45      4DB197CF 
  45      33A5E40B 
  45      C5626E7A 
  45      6C6516
  46 00af 7D0D0A68 		.ascii	"}\015\012hh\263QcwP\003N\210\3428\311\273\350\301\341"
  46      68B35163 
  46      7750034E 
  46      88E238C9 
  46      BBE8C1E1 
  47 00c3 A6A6C263 		.ascii	"\246\246\302c\364x\271\307\307=~\243\247\206{\002\334"
  47      F478B9C7 
  47      C73D7EA3 
  47      A7867B02 
  47      DC
  48 00d4 53CFA521 		.ascii	"S\317\245!j*I\337\001=Bd[\364\034i4\233\037~\325\037"
  48      6A2A49DF 
  48      013D4264 
  48      5BF41C69 
  48      349B1F7E 
  49 00ea 1463E9AC 		.ascii	"\024c\351\254\370C>5t*p`;\233\300\343t\265Q\313\000"
  49      F8433E35 
  49      742A7060 
  49      3B9BC0E3 
  49      74B551CB 
  50 00ff CEA2C277 		.ascii	"\316\242\302w\333kH\177\230\375<o\217\342}t@\014\225"
  50      DB6B487F 
  50      98FD3C6F 
  50      8FE27D74 
  50      400C95
  51 0112 23901355 		.ascii	"#\220\023U\032\272F\340vw\226\243=\327\340\247\030\342"
  51      1ABA46E0 
  51      767796A3 
  51      3DD7E0A7 
  51      18E2
  52 0124 C89D9012 		.ascii	"\310\235\220\022,\357\0063\332\373\317\024$\366\376"
  52      2CEF0633 
  52      DAFBCF14 
  52      24F6FE
  53 0133 F9ADEF47 		.ascii	"\371\255\357G\015\317\246y\361c0b-\304\014\362\213K"
  53      0DCFA679 
  53      F1633062 
  53      2DC40CF2 
  53      8B4B
  54 0145 D33ED2D3 		.ascii	"\323>\322\323'V\021u\217\362E\306\260\3760L\010!\012"
  54      27561175 
  54      8FF245C6 
  54      B0FE304C 
  54      08210A
  55 0158 23E383AD 		.ascii	"#\343\203\255\004C\177\022'4\334\307\276\004\273\361"
  55      04437F12 
  55      2734DCC7 
  55      BE04BBF1 
  56 0168 B0AF3E8E 		.ascii	"\260\257>\216\274\011Y\315n\274\322\307\005~\214\342"
  56      BC0959CD 
ARM GAS  /var/folders/c6/c789hm653lg9vtl73krp73tm0000gn/T//ccGBNNCQ.s 			page 4


  56      6EBCD2C7 
  56      057E8CE2 
  57 0178 0409538C 		.ascii	"\004\011S\214V\254;\234}\021\214\342\244\\m\310\020"
  57      56AC3B9C 
  57      7D118CE2 
  57      A45C6DC8 
  57      10
  58 0189 4E126B4B 		.ascii	"N\022kK\270\212\246g-0\264\024\256\317\231\365\231\276"
  58      B88AA667 
  58      2D30B414 
  58      AECF99F5 
  58      99BE
  59 019b B9C5A59B 		.ascii	"\271\305\245\233.\223\227\215D8\331\316\351\313Pg\366"
  59      2E93978D 
  59      4438D9CE 
  59      E9CB5067 
  59      F6
  60 01ac 3B2C773E 		.ascii	";,w>\225\266\237\276*\2053\253\327\024\256\343q\247"
  60      95B69FBE 
  60      2A8533AB 
  60      D714AEE3 
  60      71A7
  61 01be 86FB5534 		.ascii	"\206\373U4\330\363\2525\364K\217\013o+\365N~\033t\035"
  61      D8F3AA35 
  61      F44B8F0B 
  61      6F2BF54E 
  61      7E1B741D 
  62 01d2 273796BF 		.ascii	"'7\226\277\032K\2726!y\261j\355&/$\306\252\313\220)"
  62      1A4BBA36 
  62      2179B16A 
  62      ED262F24 
  62      C6AACB90 
  63 01e7 8CCCA1E9 		.ascii	"\214\314\241\351\313i\025\007T}I\264\317\352\000\026"
  63      CB691507 
  63      547D49B4 
  63      CFEA0016 
  64 01f7 40D153F4 		.ascii	"@\321S\364\215F\211\322\310\323\336\251\376FV\342\375"
  64      8D4689D2 
  64      C8D3DEA9 
  64      FE4656E2 
  64      FD
  65 0208 C05B8D06 		.ascii	"\300[\215\006$\233c\372\024\013\220.\334Y5\324\023L"
  65      249B63FA 
  65      140B902E 
  65      DC5935D4 
  65      134C
  66 021a C3293BA9 		.ascii	"\303);\2515\016\325\314\365\217\357p #\346EO\236vk3"
  66      350ED5CC 
  66      F58FEF70 
  66      2023E645 
  66      4F9E766B 
  67 022f D546F11E 		.ascii	"\325F\361\036\371\336z\277&\030\032\011}}9\323`\032"
  67      F9DE7ABF 
  67      26181A09 
  67      7D7D39D3 
  67      601A
  68 0241 7B40C640 		.ascii	"{@\306@b\356-\214\256\032\204\000\254\025\005U\2540"
ARM GAS  /var/folders/c6/c789hm653lg9vtl73krp73tm0000gn/T//ccGBNNCQ.s 			page 5


  68      62EE2D8C 
  68      AE1A8400 
  68      AC150555 
  68      AC30
  69 0253 164E3E5D 		.ascii	"\026N>]\032\326\3135|\311\374\352o5\327\357\246\001"
  69      1AD6CB35 
  69      7CC9FCEA 
  69      6F35D7EF 
  69      A601
  70 0265 56B06FA8 		.ascii	"V\260o\250\016\251\362\274q\265[\303\006\235\334\335"
  70      0EA9F2BC 
  70      71B55BC3 
  70      069DDCDD 
  71 0275 1239CF4E 		.ascii	"\0229\317N\311y\312\311y-r\236\365\344\036\226\221\363"
  71      C979CAC9 
  71      792D729E 
  71      F5E41E96 
  71      91F3
  72 0287 EC32B9F4 		.ascii	"\3542\271\364\223M\311=\332\232\234\207\034\227\310"
  72      934DC93D 
  72      DA9A9C87 
  72      1C97C8
  73 0296 4DDEB0C8 		.ascii	"M\336\260\310\371b|\272\266!\347\263\310M\226\310\371"
  73      F9627CBA 
  73      B621E7B3 
  73      C84D96C8 
  73      F9
  74 02a7 774ACE5F 		.ascii	"wJ\316_N\256\306\"\347_O.WF\316\277\333{nsr\217\267"
  74      4EAEC622 
  74      E75F4F2E 
  74      5746CEBF 
  74      DB7B6E73 
  75 02be 26E727C7 		.ascii	"&\347'\307%r\317J\344\0024\260-\271\200A\256\2670\245"
  75      2572CF4A 
  75      E40234B0 
  75      2DB98041 
  75      AEB730A5 
  76 02d2 6EC86B54 		.ascii	"n\310kT\371\\\031\007\274\032\345@\235\206MM\240\215"
  76      F95C1907 
  76      BC1AE540 
  76      9D864D4D 
  76      A08D
  77 02e4 8AA1931A 		.ascii	"\212\241\223\0326\033\337Q\002\333\002\360\016\320\224"
  77      361BDF51 
  77      02DB02F0 
  77      0ED094
  78 02f3 D0AF36FA 		.ascii	"\320\2576\372\010\322\327\236?\026\241p8\242\377R\035"
  78      08D2D79E 
  78      3F16A170 
  78      38A2FF52 
  78      1D
  79 0304 C954A433 		.ascii	"\311T\2443%\357\211d,\254\202\222\272b\243\350\220\225"
  79      25EF8964 
  79      2CAC8292 
  79      BA62A3E8 
  79      9095
  80 0316 7239C909 		.ascii	"r9\311\011\332%\365\342\325\366\216\210\032O\305;;\242"
ARM GAS  /var/folders/c6/c789hm653lg9vtl73krp73tm0000gn/T//ccGBNNCQ.s 			page 6


  80      DA25F5E2 
  80      D5F68E88 
  80      1A4FC53B 
  80      3BA2
  81 0328 EDC9701C 		.ascii	"\355\311p\034\232\377\233\303Rq\260\237:}\006\376\002"
  81      9AFF9BC3 
  81      5271B09F 
  81      3A7D06FE 
  81      02
  82 0339 C13BB8FD 		.ascii	"\301;\270\375"
  83              		.text
  84              		.section	.gnu.lto_thread.8a4171ef9de68e69,"",%progbits
  85 0000 789C6362 		.ascii	"x\234cb`b@\007\222@\374\024\210e\201\230\221\231\201"
  85      60624007 
  85      9240FC14 
  85      88658198 
  85      919981
  86 0013 9169C239 		.ascii	"\221i\3029\006\206F\016&FF\020\203\201\221\241\236\211"
  86      0686460E 
  86      26464610 
  86      838191A1 
  86      9E89
  87 0025 B13E9211 		.ascii	"\261>\222\021\254v=\323\201\007\377\377\257\373\266"
  87      AC763DD3 
  87      8107FFFF 
  87      AFFBB6
  88 0034 F05107A3 		.ascii	"\360Q\007\243 \033\023c.X\230\225\241\245\241a\202\002"
  88      201B1363 
  88      2E589895 
  88      A1A5A161 
  88      8202
  89 0046 03433298 		.ascii	"\003C2\230\033\002$AZC\031\231@4\363y\206\326\007\177"
  89      1B022441 
  89      5A431999 
  89      4034F379 
  89      86D6077F 
  90 005a 2D121917 		.ascii	"-\022\031\0272\262\002e\253\031~5t4\010d2\002UC\014"
  90      32B20265 
  90      AB197E35 
  90      74340864 
  90      32025543 
  91 006f 4D67648A 		.ascii	"Mgd\212`\314ddtd\310\004\352`\000*_PGX\265\023Bu=a\325"
  91      60CC6464 
  91      7464C804 
  91      EA60002A 
  91      5F504758 
  92 008a CE10D517 		.ascii	"\316\020\325\027\031\032\037t(\303\224C@\010P)\320\231"
  92      191A1F74 
  92      28C39443 
  92      40085029 
  92      D099
  93 009c A08091D6 		.ascii	"\240\200\221\326\323\323\207\240\222\324\342\022\375"
  93      D3D387A0 
  93      92D4E212 
  93      FD
  94 00a9 A212309D 		.ascii	"\242\0220\235[\234\256\227\314\000\000?\201>\341"
  94      5B9CAE97 
ARM GAS  /var/folders/c6/c789hm653lg9vtl73krp73tm0000gn/T//ccGBNNCQ.s 			page 7


  94      CC00003F 
  94      813EE1
  95              		.text
  96              		.section	.gnu.lto_.symbol_nodes.8a4171ef9de68e69,"",%progbits
  97 0000 789C4DCC 		.ascii	"x\234M\314M\012\3020\024\004\340\231\244\265V\275\203"
  97      4D0AC230 
  97      1404E099 
  97      A4B556BD 
  97      83
  98 0011 67F324AF 		.ascii	"g\363$\257\220\205HA\305\265\273\036%{\317\240\024\377"
  98      90854841 
  98      C5B5BB1E 
  98      257BCFA0 
  98      14FF
  99 0023 EBDF05C4 		.ascii	"\353\337\005\304\327F\214\331|\314\314#\006\006\031"
  99      D7468CD9 
  99      7CCCCC23 
  99      060619
 100 0032 119E3950 		.ascii	"\021\2369P\210\345\006\020Y\317&\351Y\007A\372\"\025"
 100      88E50610 
 100      59CF26E9 
 100      590741FA 
 100      2215
 101 0044 B3A7E06F 		.ascii	"\263\247\340o\274\322\264\343\2116U\216L\024>(&\334"
 101      BCD2B4E3 
 101      8936558E 
 101      4C143E28 
 101      26DC
 102 0056 140579A7 		.ascii	"\024\005y\247\330\230n\224$\246\206\222\306t\241\364"
 102      D8986E94 
 102      24A68692 
 102      C674A1F4 
 103 0066 627A52B2 		.ascii	"bzR\262_\262\030\302\355\336\352\000\2763\207\2336c"
 103      5FB218C2 
 103      EDDEEA00 
 103      BE33879B 
 103      3663
 104 0078 8B3E7CE7 		.ascii	"\213>|\347\000ug\216\252\014}]\206\336\315C\357\027"
 104      0075678E 
 104      AA0C7D5D 
 104      86DECD43 
 104      EF17
 105 008a A177ABD6 		.ascii	"\241w\253\326\014U\253\035\301m\365?\265\372\352U|\000"
 105      0C55AB1D 
 105      C16DF53F 
 105      B5FAEA55 
 105      7C00
 106 009c 48134D77 		.ascii	"H\023Mw"
 107              		.text
 108              		.section	.gnu.lto_.refs.8a4171ef9de68e69,"",%progbits
 109 0000 789C25C1 		.ascii	"x\234%\301A\001\0000\010\304\260^\007\030\300\277\327"
 109      41010030 
 109      08C4B05E 
 109      0718C0BF 
 109      D7
 110 0011 3D484496 		.ascii	"=HD\226S\020\364\245\322NF\370\004\007\000@"
 110      5310F4A5 
ARM GAS  /var/folders/c6/c789hm653lg9vtl73krp73tm0000gn/T//ccGBNNCQ.s 			page 8


 110      D24E46F8 
 110      04070040 
 111              		.text
 112              		.section	.gnu.lto_.decls.8a4171ef9de68e69,"",%progbits
 113 0000 789CBD5C 		.ascii	"x\234\275\\{t\024U\232\257\252\356NwCH\300Y]8\353b\263"
 113      7B741455 
 113      9AAFAAEE 
 113      4E774348 
 113      C0595D38 
 114 0017 ABBBABBB 		.ascii	"\253\273\253\273\022\230aFf\316\216\340\360\2073\347"
 114      12986146 
 114      66CE8EE0 
 114      F08733E7 
 115 0027 AC7BF68C 		.ascii	"\254{\366\214;\273\236}\265E\247Hz\355N\267\325\025"
 115      3BBB9E7D 
 115      B545A748 
 115      7AED4EB7 
 115      D515
 116 0039 C0DD3FAC 		.ascii	"\300\335?\254$<\"\202\023\036\222\360\012A\336\010\010"
 116      243C2282 
 116      131E92F0 
 116      0A41DE08 
 116      08
 117 004a 84B7064A 		.ascii	"\204\267\006J\007\302\033% \020\300\030\004D<0\006\004"
 117      07C21B25 
 117      2010C018 
 117      04443C30 
 117      0604
 118 005c 210A66BF 		.ascii	"!\012f\277\373\335\252\356\252\352\252\356\252\250["
 118      FBDDAAEE 
 118      AAEAAAEE 
 118      AAA85B
 119 006b 87BA7DBB 		.ascii	"\207\272}\273\372\336\337\375\336\337\275\267.\341\030"
 119      FADEDFFD 
 119      DEDFBDB7 
 119      2EE118
 120 007a 8EA96519 		.ascii	"\216\251e\031\246\007\256O\177\3030\333\002\014\343"
 120      A607AE4F 
 120      7FC330DB 
 120      020CE3
 121 0089 6118E649 		.ascii	"a\030\346I\270}\352\275\004\3567\340^\011\367\233\014"
 121      B87DEABD 
 121      04EE37E0 
 121      5E09F79B 
 121      0C
 122 009a BDA019B3 		.ascii	"\275\240\031\263\031\356\035p\267\300\335\012\367A\270"
 122      19EE1D70 
 122      B7C0DD0A 
 122      F741B8
 123 00a9 EB016B3E 		.ascii	"\353\001k>\334\253X\332w\035|n\202\373\3579\206\031"
 123      DCAB58DA 
 123      771D7C6E 
 123      82FBEF39 
 123      8619
 124 00bb 0DF7BF70 		.ascii	"\015\367\277p\214\341\"\375\207\300}\004\356\"\270\013"
 124      8CE122FD 
 124      87C07D04 
ARM GAS  /var/folders/c6/c789hm653lg9vtl73krp73tm0000gn/T//ccGBNNCQ.s 			page 9


 124      EE22B80B 
 125 00cb E11E05B7 		.ascii	"\341\036\005\267\037\356\002\270\227\302\335\256\216"
 125      1FEE02B8 
 125      97C2DDAE 
 125      8E
 126 00d8 FB16E0AC 		.ascii	"\373\026\340\254\207\373y\300\360\302\367\235Po\206"
 126      87FB79C0 
 126      F0C2F79D 
 126      506F86
 127 00e7 9B87EF47 		.ascii	"\233\207\357G\341\373X\216\216I\350\\\000\317\177\011"
 127      E1FB588E 
 127      8E49E85C 
 127      00CF7F09 
 128 00f7 DF237097 		.ascii	"\337#p\227\302\335\000\337\005\370<\004\277\215\203"
 128      C2DD00DF 
 128      05F83C04 
 128      BF8D83
 129 0106 CF7DF059 		.ascii	"\317}\360Y\306ex\333\305P\276w@\273\203p\237\206zP\245"
 129      C66578DB 
 129      C550BE77 
 129      40BB8370 
 129      9F867A50 
 130 011b AF1CDAC5 		.ascii	"\257\034\332\3058\312\327f\225\307\203*\317\204w\257"
 130      38CAD766 
 130      95C7832A 
 130      CF8477AF 
 131 012b 89CF8489 		.ascii	"\211\317\204\211\307\315*v\222\243|\254f\351sN\375\215"
 131      C7CD2A76 
 131      92A37CAC 
 131      66E9734E 
 131      FD8D
 132 013d C88A3CDA 		.ascii	"\310\212<\332j\354\306\364e\246\311r\265\3344E\376\365"
 132      6AECC6F4 
 132      65A6C972 
 132      B5DC3445 
 132      FEF5
 133 014f FEA2014C 		.ascii	"\376\242\001L\235\014W\323\350\206\242 SK\236w.\227"
 133      9D0C57D3 
 133      E886A220 
 133      534B9E77 
 133      2E97
 134 0161 070E6498 		.ascii	"\007\016d\230\347X\236\205G\001\254\024\006\021\351"
 134      E7589E85 
 134      4701AC14 
 134      0611E9
 135 0170 116619B4 		.ascii	"\021f\031\264\205\016\034\317.e\2030\022\3072\226\027"
 135      850E1CCF 
 135      2E658330 
 135      12C73296 
 135      17
 136 0181 FD9D5CA4 		.ascii	"\375\235\\\244;\255k\265\0366\215\036\322\320\275j\257"
 136      3BAD6BB5 
 136      1E368D1E 
 136      D2D0BD6A 
 136      AF
 137 0192 37D80158 		.ascii	"7\330\001XCZd\225Fla\327c\205n\234\302`\246\342Q)\261"
 137      435A6495 
ARM GAS  /var/folders/c6/c789hm653lg9vtl73krp73tm0000gn/T//ccGBNNCQ.s 			page 10


 137      466C61D7 
 137      63856E9C 
 137      C260A6E2 
 138 01a9 EBB784ED 		.ascii	"\353\267\204\355k)\220\007\230\327\325\221eV\342\331"
 138      6B299007 
 138      98D7D591 
 138      6556E2D9 
 139 01b9 27EFB745 		.ascii	"'\357\267EX\305>\2005\017J\034\036\214\352\013\305\357"
 139      58C53E80 
 139      350F4A1C 
 139      1E8CEA0B 
 139      C5EF
 140 01cb B481ED87 		.ascii	"\264\201\355\207^\011C?\306\254\246\242\374\304B\202"
 140      5E09433F 
 140      C6ACA6A2 
 140      FCC44282 
 141 01db 06EEAD71 		.ascii	"\006\356\255qP\025u\235-7\247\377R\226\003<\373&\252"
 141      5015759D 
 141      2D37A7FF 
 141      5296033C 
 141      FB26AA
 142 01ee 630C0BF0 		.ascii	"c\014\013\360k\330\307\\\3434\267\356\331\310V\003\313"
 142      6BD8C75C 
 142      E334B7EE 
 142      D9C85603 
 142      CB
 143 01ff 3CBB1E91 		.ascii	"<\273\036\221\346\262\275\205\272wp\333H$i#\002}c\002"
 143      E6B2BD85 
 143      BA7770DB 
 143      48246923 
 143      027D6302 
 144 0213 E2D982A0 		.ascii	"\342\331\202\240\321R\340\273\326\200\240\301W2\322"
 144      D152E0BB 
 144      D680A0C1 
 144      5732D2
 145 0222 1D123AD8 		.ascii	"\035\022:\330\227\325'\344\213\237\371\177\357\367\020"
 145      97D527E4 
 145      8B9FF97F 
 145      EFF710
 146 0231 D3282B5D 		.ascii	"\323(+]\235\013\332Z\006\316\223\225IrO\317\313\252"
 146      9D0BDA5A 
 146      06CE9395 
 146      49724FCF 
 146      CBAA
 147 0243 E2396609 		.ascii	"\3429f\011gd\354af\251,\317\2227\311r\020M\201cVa\213"
 147      6764EC61 
 147      66A92CCF 
 147      9237C972 
 147      104D8163 
 148 025a CDEC4396 		.ascii	"\315\354C\226\342\302Fp\375\025\263\234\214/\257\222"
 148      E2C24670 
 148      FD15B39C 
 148      8C2FAF92 
 149 026a 3D686E8C 		.ascii	"=hn\214\332\307@\363\026\326\340\374\224.\345\365\326"
 149      DAC740F3 
 149      16D6E0FC 
 149      942EE5F5 
ARM GAS  /var/folders/c6/c789hm653lg9vtl73krp73tm0000gn/T//ccGBNNCQ.s 			page 11


 149      D6
 150 027b D706C94D 		.ascii	"\327\006\311M\325JO\317(\306\271\335\356T\3556c\253"
 150      D54A4FCF 
 150      28C6B9DD 
 150      EE54ED36 
 150      63AB
 151 028d 1CB3C6C4 		.ascii	"\034\263\306\304\2145Y;\314d\275\235MVg]\347\307\307"
 151      8C35593B 
 151      CC64BD9D 
 151      4D56675D 
 151      E7C7C7
 152 02a0 3FAA6267 		.ascii	"?\252bg\3264\355\227\273zz\212\215\224\005\230\251\030"
 152      D634ED97 
 152      BB7A7A8A 
 152      8D940598 
 152      A918
 153 02b2 6426CB55 		.ascii	"d&\313U\354\213\371\243\314n6\000\324}`\037fH\003F\325"
 153      EC8BF9A3 
 153      CC6E3600 
 153      D47D601F 
 153      66480346 
 154 02c7 24AD6BB5 		.ascii	"$\255k\265\034Qf\227\331s}A\255n\210\0054^\331\241\354"
 154      1C516697 
 154      D9737D41 
 154      AD6E8805 
 154      345ED9A1 
 155 02dc C9441083 		.ascii	"\311D\020\2034Q\240'\263\004J\033\355\265\222\230\322"
 155      3451A027 
 155      B3044A1B 
 155      EDB59298 
 155      D2
 156 02ed D53A5D66 		.ascii	"\325:]f\353\252:{z\036r\256\307}f.\010\261&2\256\332"
 156      EBAA3A7B 
 156      7A1E72AE 
 156      C77D662E 
 156      08B12632 
 157 0303 9071C052 		.ascii	"\220q\300Rqw\352w\017\222\227\270\265\247CF:\014\022"
 157      7177EA77 
 157      0F9297B8 
 157      B5A74346 
 157      3A0C12
 158 0316 BC8F9949 		.ascii	"\274\217\231IPB\265\0272\352\220\0134\204\347\231t\324"
 158      5042B517 
 158      32EA900B 
 158      3484E799 
 158      74D4
 159 0328 E83EB3FB 		.ascii	"\350>\263\373\027\0305\216\262\367\001\316\273\036#"
 159      1718358E 
 159      B2F701CE 
 159      BB1E23
 160 0337 DDF97138 		.ascii	"\335\371q8\346 \3669\006\375iOjG\235\355\215{k\330*"
 160      E620F639 
 160      06FD694F 
 160      6A479DED 
 160      8D7B6BD8 
 161 034c 0C6DE437 		.ascii	"\014m\3447\306B\036\3525\204i\002\312\225\372\327\026"
 161      C6421EEA 
ARM GAS  /var/folders/c6/c789hm653lg9vtl73krp73tm0000gn/T//ccGBNNCQ.s 			page 12


 161      35846902 
 161      CA95FAD7 
 161      16
 162 035d 8157BD07 		.ascii	"\201W\275\007\355\217\260\304\215o\245q\255$\220\316"
 162      ED8FB0C4 
 162      8D6FA571 
 162      AD2490CE 
 163 036d 3B0C93A6 		.ascii	";\014\223\246\314\2107\377ha\035\257\201\335u\015\026"
 163      CC8837FF 
 163      68611DAF 
 163      81DD750D 
 163      16
 164 037e 32802D3E 		.ascii	"2\200->\272\020\211S\223\265\223\024\321\245\246\210"
 164      BA108953 
 164      93B59314 
 164      D1A5A688 
 165 038e 768CC735 		.ascii	"v\214\3075^\213\300\356\010\250y\312\336w\325\034q\016"
 165      5E8BC0EE 
 165      08A879CA 
 165      DE77D51C 
 165      710E
 166 03a0 A15EED35 		.ascii	"\241^\3555\324\275i\357\374\034i\372\030\201\346x\315"
 166      D4BD69EF 
 166      FC1C69FA 
 166      1881E678 
 166      CD
 167 03b1 39C26FCA 		.ascii	"9\302o\312\021~c\314\366\0073\025\022\252\213\231\037"
 167      117E63CC 
 167      F6073315 
 167      12AA8B99 
 167      1F
 168 03c2 B839C72C 		.ascii	"\2709\307,\366:P\\&\026\231\254@\356<\335x\330Cr\210"
 168      F63A505C 
 168      261699AC 
 168      40EE3CDD 
 168      78D84372 
 169 03d7 4735E5A6 		.ascii	"G5\345\246\002;\031q\314\012\034\353\242\331\222[.\354"
 169      023B1971 
 169      CC0A1CEB 
 169      A2D9925B 
 169      2EEC
 170 03e9 7FB44196 		.ascii	"\177\264A\226\373\323\237\362\033\362\226\203\365h+"
 170      FBD39FF2 
 170      1BF29683 
 170      F5682B
 171 03f8 961EA91B 		.ascii	"\226\036\251\033\275\211\323\206\177\030\207?\201\303"
 171      BD89D386 
 171      7F18873F 
 171      81C3
 172 0406 5F310F3F 		.ascii	"_1\017?\363r\347\223t\370+\216\206_\3346'{x\333H\242"
 172      F372E793 
 172      74F82B8E 
 172      865FDC36 
 172      277B78DB 
 173 041c 59EB85CF 		.ascii	"Y\353\205\317\036\\\214\203\\C\177\231\3463\233\306"
 173      1E5C8C83 
 173      5C437F99 
ARM GAS  /var/folders/c6/c789hm653lg9vtl73krp73tm0000gn/T//ccGBNNCQ.s 			page 13


 173      E6339BC6 
 174 042c 287DD4D5 		.ascii	"(}\324\325f]\351\006\0343\333\247Q\337+w\0056\225\337"
 174      665DE906 
 174      1C33DBA7 
 174      51DF2B77 
 174      053695DF 
 175 0440 AC862CFE 		.ascii	"\254\206,\376J\201F\303\\\327\210!\203 6\265a\000\240"
 175      4A8146C3 
 175      5CD78821 
 175      832036B5 
 175      6100A0
 176 0453 60F39C80 		.ascii	"`\363\234\200\331\332Q\265\262Y\017\266\3205\230\221"
 176      D9DA51B5 
 176      B2590FB6 
 176      D0359891 
 177 0463 B2AD7AB0 		.ascii	"\262\255z\260\305N\300\372\333S\266]\017\366\206k0#"
 177      C54EC0FA 
 177      DB53B65D 
 177      0FF6866B 
 177      3023
 178 0475 653BF560 		.ascii	"e;\365`\313\235\200\015\264\247\354\035=\330j\327`F"
 178      CB9D800D 
 178      B4A7EC1D 
 178      3DD86AD7 
 178      6046
 179 0487 CA76E9C1 		.ascii	"\312v\351\301\3269\001\013YP\226\276\354\262\352g\231"
 179      D639010B 
 179      595096BE 
 179      ECB2EA67 
 179      99
 180 0498 D905C76C 		.ascii	"\331\005\307l\360i\001\301\245M3\031\214\315>\267\001"
 180      F06901C1 
 180      A54D3319 
 180      8CCD3EB7 
 180      01
 181 04a9 CCC037E4 		.ascii	"\314\3007\344\321#K\331\3315\362\376aZ.\333\351\004"
 181      D1234BD9 
 181      D935F2FE 
 181      615A2EDB 
 181      E904
 182 04bb 3187C16C 		.ascii	"1\207\301l\325'\306\367\\\203\031\325r\202\200\031B"
 182      D527C6F7 
 182      5C8319D5 
 182      72828019 
 182      42
 183 04cc 4D7A3DAB 		.ascii	"Mz=\253\014l\310\004;\303T\223g\227\261\217\364z\261"
 183      0C6CC804 
 183      3BC35493 
 183      6797B18F 
 183      F47AB1
 184 04df 5ACBE954 		.ascii	"Z\313\351Tt\320\011\3759l\264\313\216~e\212\\\313Vm"
 184      74D009FD 
 184      396CB4CB 
 184      8E7E658A 
 184      5CCB566D 
 185 04f3 7C30DD6F 		.ascii	"|0\335o\264^Y\231\260\371\347k0l\316\340HF=\346\263"
 185      B45E5999 
ARM GAS  /var/folders/c6/c789hm653lg9vtl73krp73tm0000gn/T//ccGBNNCQ.s 			page 14


 185      B0F9E76B 
 185      306CCEE0 
 185      48463DE6 
 186 0508 4CCD8EB0 		.ascii	"L\315\216\260\232\247\274\257\345\371:\004;\327{\260"
 186      9AA7BCAF 
 186      E5F93A04 
 186      3BD77BB0 
 187 0518 A67B071F 		.ascii	"\246{\007\037\224\275<;\033\201.e\005\363\240)\317\007"
 187      94BD3C3B 
 187      1B812E65 
 187      05F3A029 
 187      CF07
 188 052a 8D993818 		.ascii	"\215\2318\030\314Tz\264\313\270\026\370A\373\330i~\272"
 188      CC547AB4 
 188      CBB816F8 
 188      41FBD869 
 188      7EBA
 189 053c 5EF35DAE 		.ascii	"^\363]\2565ot\254\323\035\035\236zY\251\362\3506`\354"
 189      356F74AC 
 189      D31D1D9E 
 189      7A59A9F2 
 189      E83660EC 
 190 0550 0C5653F7 		.ascii	"\014VS\367EuN\327\200r\375\306ZA\016\200\232\247\254"
 190      45754ED7 
 190      8072FDC6 
 190      5A410E80 
 190      9AA7AC
 191 0563 FB5B045A 		.ascii	"\373[\004Z\200@\223\012z\013toZ#]\3657\"\320\364\002"
 191      8040930A 
 191      7A0B746F 
 191      5A235DF5 
 191      3722D0F4 
 192 0578 B3A65993 		.ascii	"\263\246Y\223\246Y\243\006\322N\247\372\334\017\325"
 192      A659A306 
 192      D24EA7FA 
 192      DC0FD5
 193 0587 16B27981 		.ascii	"\026\262y\201I]\006vr\204l-\016v\\\234\315~Y-7\014s"
 193      495D0676 
 193      72846C2D 
 193      0E765C9C 
 193      CD7E592D 
 194 059e A1AF4E55 		.ascii	"\241\257NU_KQ:\215Y\322!\342w\307\306\012\327l\004\214"
 194      5F4B513A 
 194      8D59D221 
 194      E277C7C6 
 194      0AD76C04 
 195 05b3 6C345E76 		.ascii	"l4^v\317\306g*\033\253\220\215\365\337\003\033[]\263"
 195      CFC6672A 
 195      1BAB908D 
 195      F5DF031B 
 195      5B5DB3
 196 05c6 D15FC706 		.ascii	"\321_\307\006\254\356:n\316\241Y\351G\314\254\334\363"
 196      ACEE3A6E 
 196      CEA159E9 
 196      47CCACDC 
 196      F3
 197 05d7 6A42CF3A 		.ascii	"jB\317:\356G\206I\255r\353}6D\037\347\233\320\312\312"
ARM GAS  /var/folders/c6/c789hm653lg9vtl73krp73tm0000gn/T//ccGBNNCQ.s 			page 15


 197      EE478649 
 197      AD72EB7D 
 197      36441FE7 
 197      9BD0CACA 
 198 05eb ECB685EA 		.ascii	"\354\266\205\352\302\220\356\266\265 \355\244oof\232"
 198      C290EEB6 
 198      B520EDA4 
 198      6F6F669A 
 199 05fb B2B281CE 		.ascii	"\262\262\201\316$(\330\236\357\004V\255\354\236\245"
 199      2428D89E 
 199      EF0456AD 
 199      EC9EA5
 200 060a AD5A71EF 		.ascii	"\255Zq\357\351\310w\204;\327fNG\246i\374Q\233x\247\255"
 200      E9C87784 
 200      3BD7664E 
 200      47A669FC 
 200      519B78A7 
 201 061f E7E7B76A 		.ascii	"\347\347\267jId\033G\010:\221e,GX\323L\236<\3205\261"
 201      49641B47 
 201      083A9165 
 201      2C4758D3 
 201      4C9E3CD0 
 202 0635 D3E1567D 		.ascii	"\323\341V}\360\275\374\335\370\0047\370x\031\265\237"
 202      F0BDFCDD 
 202      F80437F8 
 202      7819B59F 
 203 0645 7CABA4E7 		.ascii	"|\253\244\3475\264B\034\370\032\016\334\302\231\026"
 203      35B4421C 
 203      F81A0EDC 
 203      C29916
 204 0654 49B76E77 		.ascii	"I\267nwNQ\371&\277\3457\252\263\227\202\362\254B\213"
 204      4E51F926 
 204      BFE537AA 
 204      B39782F2 
 204      AC428B
 205 0667 F1AC5273 		.ascii	"\361\254Rs\367\374\0233\331I\210\376.G\366I\346\373"
 205      F7FC1333 
 205      D94988FE 
 205      2E47F649 
 205      E6FB
 206 0679 2DF7499A 		.ascii	"-\367I\232F\333\001q\314\032\354\262\307Lx{\307\355"
 206      46DB0171 
 206      CC1AECB2 
 206      C74C787B 
 206      C7ED
 207 068b 6A759B64 		.ascii	"ju\233d\217\003\302\253\225\353\257\352\267Ix\366C\226"
 207      8F03C2AB 
 207      95EBAFEA 
 207      B74978F6 
 207      4396
 208 069d 53717B67 		.ascii	"Sq{gq7\016\245g\203<{\3125X\310\212T\315\2622\334\362"
 208      71370EA5 
 208      67833C7B 
 208      CA3558C8 
 208      8A54CDB2 
 209 06b4 6C2B4766 		.ascii	"l+Gf|\373\270!P\356\347\206d\232q\314\333~M\247V\242"
 209      7CFBB821 
ARM GAS  /var/folders/c6/c789hm653lg9vtl73krp73tm0000gn/T//ccGBNNCQ.s 			page 16


 209      50EEE786 
 209      649A71CC 
 209      DB7E4DA7 
 210 06ca CBEBD0A0 		.ascii	"\313\353\320\240\374;s\2511\271\330\301_6\203\306\324"
 210      FC3B73A9 
 210      31B9D8C1 
 210      5F3683C6 
 210      D4
 211 06db 431853FF 		.ascii	"C\030S\377\3407\273\311zs\346t\261\177\3151\007\314"
 211      E037BBC9 
 211      7A73E674 
 211      B17FCD31 
 211      07CC
 212 06ed 2C395D6E 		.ascii	",9]n\246/;7|G\357\206\357\373\277\243\033v\\v\350\206"
 212      A62F3B37 
 212      7C47EF86 
 212      EFFBBFA3 
 212      1B765C76 
 213 0703 32AB5F0C 		.ascii	"2\253_\014p\314I\034\271\315l\316=\337\356\237\252\232"
 213      70CC491C 
 213      B9CD6CCE 
 213      3DDFEE9F 
 213      AA9A
 214 0715 739B233F 		.ascii	"s\233#?\274\205~\250\371UO\032\2657\226P\255t_9\300"
 214      BC857EA8 
 214      F9554F1A 
 214      B5379650 
 214      AD745F39 
 215 072a 221C5DDC 		.ascii	"\"\034]\334L\015\230\340\\.\372\357\012n\005C\255Ki"
 215      4C0D98E0 
 215      5C2EFAEF 
 215      0A6E0543 
 215      AD4B69
 216 073d BF44D2DB 		.ascii	"\277D\322\333Y\344\351\367\001\263iQ\311\350L\253M\347"
 216      59E4E9F7 
 216      01B36951 
 216      C9E84CAB 
 216      4DE7
 217 074f 2727D04F 		.ascii	"''\320O>D?9\205e\273\336[\354\314\342\214\336,\352]"
 217      3E443F39 
 217      8565BBDE 
 217      5BECCCE2 
 217      8CDE2CEA 
 218 0764 F31D7268 		.ascii	"\363\035rh}\307\364\3034\006\276\233\365\235\356\370"
 218      7DC7F4C3 
 218      3406BE9B 
 218      F59DEEF8 
 219 0774 C28B7B73 		.ascii	"\302\213{s.vU\357\252S\241\363\350\266\313\263d{\316"
 219      2E7655EF 
 219      AA53A1F3 
 219      E8B6CBB3 
 219      647BCE
 220 0787 ECB64E36 		.ascii	"\354\266N6\0317\366\226\221\364\3051\333\003\016\226"
 220      1937F696 
 220      91F4C531 
 220      DB030E96 
 221 0797 23210B99 		.ascii	"#!\013\231k3\252\306\333\352\214*\357Nez\357\376p\225"
ARM GAS  /var/folders/c6/c789hm653lg9vtl73krp73tm0000gn/T//ccGBNNCQ.s 			page 17


 221      6B33AAC6 
 221      DBEA8C2A 
 221      EF4E657A 
 221      EFFE7095 
 222 07ab 9A952EA3 		.ascii	"\232\225.\243\245\275\023\260\316J9\266<\017a\227\317"
 222      A5BD13B0 
 222      CE4A39B6 
 222      3C0F6197 
 222      CF
 223 07bc B3B252E3 		.ascii	"\263\262R\343M-+}\356(+\035\267\314J\237\273\317JV"
 223      4D2D2B7D 
 223      EE282B1D 
 223      B7CC4A9F 
 223      BBCF4A56 
 224 07d0 979E409E 		.ascii	"\227\236@\236\275\212\016r\315\230B\316:\221\376\337"
 224      BD8A0E72 
 224      CD9842CE 
 224      3A91FEDF 
 225 07e0 D899A2AC 		.ascii	"\330\231\242\254t\037_\310R\372i \272d\306\263\012D"
 225      741F5FC8 
 225      52FA6920 
 225      BA64C6B3 
 225      0A44
 226 07f2 063C8336 		.ascii	"\006<\2036\225\272\223\2729f\227\023\342\206\331\201"
 226      95BA93BA 
 226      39669713 
 226      E286D981 
 227 0802 552B0B29 		.ascii	"U+\013)\0305\371\257\234\200\215\264\343\264Zy{\256"
 227      1835F9AF 
 227      9C808DB4 
 227      E3B45A79 
 227      7BAE
 228 0814 A6A96338 		.ascii	"\246\251c8A\254\012\272\3053\022w\374\2446;\247/:^u"
 228      41AC0ABA 
 228      C5331277 
 228      FCA4363B 
 228      A72F3A5E 
 229 0829 8237DA9E 		.ascii	"\2027\332\236\276\353s\015\023\352\271\256\341\214\212"
 229      BEEB730D 
 229      13EAB9AE 
 229      E18C8A
 230 0838 B8779228 		.ascii	"\270w\222(v\372@\2537YJ:t\223m\002mE\275\346\372\240"
 230      76FA40AB 
 230      37594A3A 
 230      74936D02 
 230      6D45BDE6 
 231 084e 1AB4FCBB 		.ascii	"\032\264\374\273h\011-\301\374\257\304\214@\304`{L\036"
 231      68092DC1 
 231      FCAFC48C 
 231      40C4607B 
 231      4C1E
 232 0860 A56C6C2D 		.ascii	"\245ll-$\0332=\216\274\251\271\325\365\333\246\315j"
 232      241B323D 
 232      8EBCA9B9 
 232      D5F5DBA6 
 232      CD6A
 233 0872 5CACF610 		.ascii	"\\\254\366\020%|\020\374^\342\342i\204\351\351\355\334"
ARM GAS  /var/folders/c6/c789hm653lg9vtl73krp73tm0000gn/T//ccGBNNCQ.s 			page 18


 233      257C10FC 
 233      5EE2E269 
 233      84E9E9ED 
 233      DC
 234 0883 1264796C 		.ascii	"\022dyl\320\016uO\237\022\366\221kD\243\265mmEW\240"
 234      D00E754F 
 234      9F12F691 
 234      6B44A3B5 
 234      6D6D4557 
 235 0898 60179C80 		.ascii	"`\027\234\200\345H\357\333\011\230\013\031\257R\247"
 235      E548EFDB 
 235      09980B19 
 235      AF52A7
 236 08a7 8CAFE2E8 		.ascii	"\214\257\342\350\237}?2\376\3025\023\006\211\200\214"
 236      9F7D3F32 
 236      FEC23513 
 236      0689808C 
 237 08b7 AF0CDAB1 		.ascii	"\257\014\332\261Y\2267>\357j\343r\273j/u\310\313\365"
 237      5996373E 
 237      EF6AE372 
 237      BB6A2F75 
 237      C8CBF5
 238 08ca 2C5EEACC 		.ascii	",^\352\314[\012\016\267\3568\346k3CV\241\323j{\332\352"
 238      5B0A0EB7 
 238      EE38E66B 
 238      334356A1 
 238      D36A7BDA 
 239 08df D27B12CF 		.ascii	"\322{\022\317\312\036\022\372\253<dV4\005\313Z,\247"
 239      CA1E12FA 
 239      AB3C6456 
 239      3405CB5A 
 239      2CA7
 240 08f1 61F97B8F 		.ascii	"a\371{\217!%L\356c\212\034F/U\253\277vLH\346\0157\317"
 240      21254CEE 
 240      638A1C46 
 240      2F55ABBF 
 240      764C48E6 
 241 0908 1EC7EDEB 		.ascii	"\036\307\355\353\023,\031\366$\226\247\261\274\200e"
 241      132C19F6 
 241      2496A7B1 
 241      BC8065
 242 0917 0D4EDB26 		.ascii	"\015N\333&c9\025\313W\261\254\307\362\015,Wb\271\026"
 242      633915CB 
 242      57B1ACC7 
 242      F20D2C57 
 242      62B916
 243 092a CB4FB1FC 		.ascii	"\313O\261\374\002\313\353X~\211\345-,oc\331\215\345"
 243      02CBEB58 
 243      7E89E52D 
 243      2C6F63D9 
 243      8DE5
 244 093c 374EA682 		.ascii	"7N\246\202\246\365|\372\234\302\233\324<MG\025f\364"
 244      A6F57CFA 
 244      9CC29BD4 
 244      3C4D4715 
 244      66F4
 245 094e B13EAA30 		.ascii	"\261>\2520\327cuT\241\373\324\256\301\363\344\367\350"
ARM GAS  /var/folders/c6/c789hm653lg9vtl73krp73tm0000gn/T//ccGBNNCQ.s 			page 19


 245      D7637554 
 245      A1FBD4AE 
 245      C1F3E4F7 
 245      E8
 246 095f 911CD359 		.ascii	"\221\034\323Y\0052\256\035M\015\236\354\303/\363mF\236"
 246      0532AE1D 
 246      4D0D9EEC 
 246      C32FF36D 
 246      469E
 247 0971 6739F2BC 		.ascii	"g9\362\274\346\003\217.\332$OzE\376\266\347e\326\305"
 247      E6038F2E 
 247      DA244F7A 
 247      45FEB6E7 
 247      65D6C5
 248 0984 D00B3CD9 		.ascii	"\320\013<\331\347\305\324\272s\337\337\270\365\374/"
 248      E7C5D4BA 
 248      73DFDFB8 
 248      F5FC2F
 249 0993 DEC28DFE 		.ascii	"\336\302\215\376Ft\230\245}\315\016\3433\371\213\317"
 249      467498A5 
 249      7DCD0EE3 
 249      33F98BCF 
 250 09a3 E82FBE60 		.ascii	"\350/\276`\246\222y\027\236\246\251\235\352\306\372"
 250      A6927917 
 250      9EA6A99D 
 250      EAC6FA
 251 09b2 340C39F8 		.ascii	"4\0149\370\224\203\266y\315\347\265\275\217\245\036"
 251      9483B679 
 251      CDE7B5BD 
 251      8FA51E
 252 09c1 9233D764 		.ascii	"\2223\327d\021\267\322\274\347\263\322h#&\361d[\311"
 252      11B7D2BC 
 252      E7B3D268 
 252      2326F164 
 252      5BC9
 253 09d3 A6BED6BA 		.ascii	"\246\276\326\272Zim%\365\273\006\331Y\311\2339\216\366"
 253      5A696D25 
 253      F5BB06D9 
 253      59C99B39 
 253      8EF6
 254 09e5 AC36AB8A 		.ascii	"\2546\253\212\3505\217\375\356\261\241l\255\221\262"
 254      E8358FFD 
 254      EEB1A16C 
 254      AD91B2
 255 09f4 BF6096C8 		.ascii	"\277`\226\310\033\310\031\251\253\325\354l\271i?\244"
 255      1BC819A9 
 255      ABD5EC6C 
 255      B9693FA4 
 256 0a04 6488570F 		.ascii	"d\210W\017\251\3470C\272}6%\327\353\362\3547\337\332"
 256      A9E73043 
 256      BA7D3625 
 256      D7EBF2EC 
 256      37DFDA
 257 0a17 954132BC 		.ascii	"\225A2\274+\347\331\015\236\001\214\365\3051G\263\210"
 257      2BE7D90D 
 257      9E018CF5 
 257      C53147B3 
ARM GAS  /var/folders/c6/c789hm653lg9vtl73krp73tm0000gn/T//ccGBNNCQ.s 			page 20


 257      88
 258 0a28 E7D98D19 		.ascii	"\347\331\215\031\302\011\321 \316\366\216\303\003\327"
 258      C209D120 
 258      CEF68EC3 
 258      03D7
 259 0a36 56CB9336 		.ascii	"V\313\2236\002~\017\3333\312r\012\362\237\032\231\247"
 259      027E0FDB 
 259      33CA720A 
 259      F29F1A99 
 259      A7
 260 0a47 C9E0E98D 		.ascii	"\311\340\351\215\253\233KX:\233i\366\220\331\3141\323"
 260      AB9B4B58 
 260      3A9B69F6 
 260      90D9CC31 
 260      D3
 261 0a58 800EA020 		.ascii	"\200\016\240 ic\247\255\236\354\023>\332Z\237\374\226"
 261      6963A7AD 
 261      9EEC133E 
 261      DA5A9FFC 
 261      96
 262 0a69 7FADBFA8 		.ascii	"\177\255\277\250\203N\262-V\321\235\351\330\374\240"
 262      834EB22D 
 262      56D19DE9 
 262      D8FCA0
 263 0a78 8EFA33A7 		.ascii	"\216\3723\247\316\253\324\357D\352/\333Po\013\30417"
 263      CEABD4EF 
 263      44EA2FDB 
 263      506F0BC4 
 263      3137
 264 0a8a B14B4B36 		.ascii	"\261KK6\355'\246\250\264\2678\242\375\370\031\343\002"
 264      ED27A6A8 
 264      B4B738A2 
 264      FDF819E3 
 264      02
 265 0a9b A1BA50C3 		.ascii	"\241\272P\303\315\221\345\350e9\3678q\006'2t\316<\315"
 265      CD91E5E8 
 265      6539F738 
 265      71062732 
 265      74CE3CCD 
 266 0aaf 0CE66A22 		.ascii	"\014\346j\"#+\247)\330E<\3035\3235X\310@\331\307\363"
 266      232BA729 
 266      D8453CC3 
 266      35D33558 
 266      C840D9C7 
 267 0ac4 8DE7B0EA 		.ascii	"\215\347\260\352\235\340\345x\335\334uF\367\272y\261"
 267      9DE0E578 
 267      DDDC7546 
 267      F7BA79B1 
 268 0ad4 6B302371 		.ascii	"k0#q_\351\301V:\001\263z\367ku\351\215\204gw\343LC\301"
 268      5FE9C156 
 268      3A01B37A 
 268      F76B75E9 
 268      8D846777 
 269 0aec 79C57B58 		.ascii	"y\305{X\356\301\262\025\313\375X\0364\31676\026j^bi"
 269      EEC1B215 
 269      CBFD581E 
 269      34CE3736 
ARM GAS  /var/folders/c6/c789hm653lg9vtl73krp73tm0000gn/T//ccGBNNCQ.s 			page 21


 269      166A5E62 
 270 0b01 8AF94C42 		.ascii	"\212\371LBV\266\330\273\207\325&\0238\367\345*v2\332"
 270      56B6D8BB 
 270      87D52613 
 270      38F7E52A 
 270      7632DA
 271 0b14 F051748F 		.ascii	"\360Qt\217m\205y\335\303\274\215w\004\273\034\313r\217"
 271      6D8579DD 
 271      C3BC8D77 
 271      04BB1CCB 
 271      728F
 272 0b26 8E7B93B5 		.ascii	"\216{\223\265\303{\016\334\243Z\351\256_\344\354\314"
 272      C37B0EDC 
 272      A35AE9AE 
 272      5FE4ECCC 
 273 0b36 537AFC3F 		.ascii	"Sz\374?\3211r\346\242\266\275~\022\031\271\230\237\021"
 273      D13172E6 
 273      A2B6BD7E 
 273      1219B998 
 273      9F11
 274 0b48 2310F839 		.ascii	"#\020\3709vi\317f\344\232\306H\273#Fv\324k\326\377!"
 274      7669CF66 
 274      E49AC648 
 274      BB234676 
 274      D46BD6FF 
 275 0b5d E6D2C9FD 		.ascii	"\346\322\311\3754\334^-\201\224\235\247\320`)\330\014"
 275      34DC5E2D 
 275      81949DA7 
 275      D06029D8 
 275      0C
 276 0b6e D76046EB 		.ascii	"\327`F\353o9\345v]\330}f\313ct\277\014\247-\257\367"
 276      6F39E576 
 276      5DD87D66 
 276      CB6374BF 
 276      0CA72DAF 
 277 0b83 FB5ED62C 		.ascii	"\373^\326,\213\235\360a\277\360\002\255|\361\272\305"
 277      8B9DF061 
 277      BFF002AD 
 277      7CF1BAC5 
 278 0b93 B673DE99 		.ascii	"\266s\336\231N\367\374\216*u\246\363)\012tU\026?\371"
 278      4EF7FC8E 
 278      2A75A6F3 
 278      290A7455 
 278      163FF9
 279 0ba6 663AE0A7 		.ascii	"f:\340\247\256\211\017\231\210\277\271\\;\220\203[\024"
 279      AE890F99 
 279      88BFB95C 
 279      3B90835B 
 279      14
 280 0bb7 3B9C003A 		.ascii	";\234\000:_\360\264\353\302\320Y\014C\3470\334t`\331"
 280      5FF0B4EB 
 280      C2D0590C 
 280      43E730DC 
 280      7460D9
 281 0bca 89E5252C 		.ascii	"\211\345%,?\3678X\015\020\313Kc\177\344\341Tw\357\235"
 281      3FF73858 
 281      0D10CB4B 
ARM GAS  /var/folders/c6/c789hm653lg9vtl73krp73tm0000gn/T//ccGBNNCQ.s 			page 22


 281      637FE4E1 
 281      5477EF9D 
 282 0bde 35DFCD58 		.ascii	"5\337\315X3\317~\354\032\314h\3153\317h;G\3048!}9\301"
 282      33CF7EEC 
 282      1ACC68CD 
 282      33CF683B 
 282      47C43821 
 283 0bf5 CBB19CDF 		.ascii	"\313\261\234\337@s\003\265t\245\037\353\022,\224K)\307"
 283      407303B5 
 283      74A51FEB 
 283      122C944B 
 283      29C7
 284 0c07 744A398E 		.ascii	"tJ9\216J9\201*\270\212\3455,\377h\314\007\207\373\231"
 284      4A39812A 
 284      B88AE535 
 284      2CFF68CC 
 284      0787FB99 
 285 0c1b F28131F6 		.ascii	"\362\2011\366Z\245'\275|d\345\235\377\252\343\255\""
 285      5AA527BD 
 285      7C64E59D 
 285      FFAAE3AD 
 285      22
 286 0c2c DF535ADF 		.ascii	"\337SZ\3379\372W\224g\256i\233\30170\206\036\357\227"
 286      39FA5794 
 286      67AE699B 
 286      C1373086 
 286      1EEF97
 287 0c3f 3F861A91 		.ascii	"?\206\032\2218\346\023\354s+{\262tI\233,\335\312\037"
 287      38E613EC 
 287      732B7BB2 
 287      74499B2C 
 287      DDCA1F
 288 0c52 4427D528 		.ascii	"D'\325([\026\254\310d\203\232\264w\277\302\331O\375"
 288      5B16ACC8 
 288      64839AB4 
 288      77BFC2D9 
 288      4FFD
 289 0c64 0D87BA6E 		.ascii	"\015\207\272n\244\351\350\215\231\312\312\356\263\232"
 289      A4E9E88D 
 289      99CACAEE 
 289      B39A
 290 0c72 65D1B77B 		.ascii	"e\321\267{w]\343\0315q\362,Z\026\005\233T\344\000,\307"
 290      775DE319 
 290      3571F22C 
 290      5A16059B 
 290      54E4002C 
 291 0c87 64EDC6BF 		.ascii	"d\355\306\277[\252UIO kuj}\373\306\371\301t\006,{\211"
 291      5BAA5549 
 291      4F206B75 
 291      6A7DFBC6 
 291      F9C17406 
 292 0c9e 56DF2ACA 		.ascii	"V\337*\312\253U\023\020\021n\215\327\264\033\271x\037"
 292      AB551310 
 292      116E8DD7 
 292      B41BB978 
 292      1F
 293 0caf EE4692E7 		.ascii	"\356F\222\347\371S\342\266}\2324}\204\377w\221\004\322"
ARM GAS  /var/folders/c6/c789hm653lg9vtl73krp73tm0000gn/T//ccGBNNCQ.s 			page 23


 293      F953E2B6 
 293      7D9A347D 
 293      84FF7791 
 293      04D2
 294 0cc1 B5773164 		.ascii	"\265w1d\367TgS\005\313\027k\257\357#/\326^AY\034\310"
 294      F7546753 
 294      05CB176B 
 294      AFEF232F 
 294      D65E4159 
 295 0cd7 2F0B2306 		.ascii	"/\013#\006\036!3\213\3428\335\230\235\356H\024g[\365"
 295      1E21338B 
 295      E238DD98 
 295      9DEE4814 
 295      675BF5
 296 0cea 218B634E 		.ascii	"!\213cN#\011\323{-\213/\247\030\347\332\235\256\361"
 296      2309D37B 
 296      2D8B2FA7 
 296      18E7DA9D 
 296      AEF1
 297 0cfc 4206BCAF 		.ascii	"B\006\274\257\351\366(\246\245O\235`\345\010\247\263"
 297      E9F628A6 
 297      A54F9D60 
 297      E508A7B3 
 298 0d0c F72DFC53 		.ascii	"\367-\374S\271Sa\265Cj]f<\253#C\316#jF\021<;\303K\""
 298      B95361B5 
 298      436A5D66 
 298      3CAB2343 
 298      CE236A46 
 299 0d26 EA6B5E12 		.ascii	"\352k^\022E\353\260\234\205\345\034\257\203\004W\353"
 299      45EBB09C 
 299      85E51CAF 
 299      830457EB 
 300 0d36 D5458E6E 		.ascii	"\325E\216n\327\306\251\027 x\372\323u\274~%\377J\006"
 300      D7C6A917 
 300      2078FAD3 
 300      75BC7E25 
 300      FF4A06
 301 0d49 494EFB95 		.ascii	"IN\373\225\254\371U\203\327\355\177\233\234\347\265"
 301      ACF95583 
 301      D7ED7F9B 
 301      9CE7B5
 302 0d58 FE6F93A3 		.ascii	"\376o\223\243\322\034\310\305&\016L\343\346P\234\265"
 302      D21CC8C5 
 302      260E4CE3 
 302      E6509CB5 
 303 0d68 A06B7482 		.ascii	"\240kt\202\236\204\202\236\214\302\235\212e\275\327"
 303      9E84829E 
 303      8CC29D8A 
 303      65BDD7
 304 0d77 90B4A615 		.ascii	"\220\264\246\025\233\202\233)\232\270V\363-]\342\274"
 304      9B829B29 
 304      9AB856F3 
 304      2D5DE2BC 
 305 0d87 8D89F30E 		.ascii	"\215\211\363\016&\313o\260\274\207e\2171q\326\027\233"
 305      26CB6FB0 
 305      BC87658F 
 305      3171D617 
ARM GAS  /var/folders/c6/c789hm653lg9vtl73krp73tm0000gn/T//ccGBNNCQ.s 			page 24


 305      9B
 306 0d98 12A7294F 		.ascii	"\022\247)O\251u\373\267o\235\247\033?\364W\311J\303"
 306      A975FBB7 
 306      6F9DA71B 
 306      3FF457C9 
 306      4AC3
 307 0daa 30EDFF35 		.ascii	"0\355\3775-0C\032\377\023\223ZUrD\355\216\216\302t\330"
 307      2D30431A 
 307      FF13935A 
 307      557244ED 
 307      8E8EC274 
 308 0dbf CEFB66F6 		.ascii	"\316\373f\366\336\232+O\340\254\273\011\003\325\212"
 308      DE9A2B4F 
 308      E0ACBB09 
 308      03D58A
 309 0dce 6297EF65 		.ascii	"b\227\357e\361\177\225\231\003\325u!D\237:X\215]R\217"
 309      F17F9599 
 309      03D57521 
 309      449F3A58 
 309      8D5D528F 
 310 0de2 41D0F724 		.ascii	"A\320\367$\333p\374\245\356\243\224\265J\227\352\014"
 310      DB70FCA5 
 310      EEA394B5 
 310      4A97EA0C 
 311 0df2 6A191AD4 		.ascii	"j\031\032\324r\243\021\3552K\333j\274\246\214#\230\205"
 311      72A311ED 
 311      324BDB6A 
 311      BCA68C23 
 311      9885
 312 0e04 4D8EE652 		.ascii	"M\216\346R\375YnOy4\210\221\031\211\317\376\266\233"
 312      FD596E4F 
 312      79348891 
 312      1989CFFE 
 312      B69B
 313 0e16 4A7C354A 		.ascii	"J|5J\374\202\265\304s\340\340\226\241\245\310\327:\022"
 313      FC82B5C4 
 313      73E0E096 
 313      A1A5C8D7 
 313      3A12
 314 0e28 F9979AC8 		.ascii	"\371\227\232\310\351\313\241\033H\300\332^'\206\233"
 314      E9CBA11B 
 314      48C0DA5E 
 314      27869B
 315 0e37 02595E50 		.ascii	"\002Y^P\254;\256\261Bzi*_\371jk\012\264\327\231U\375"
 315      AC3BAEB1 
 315      427A692A 
 315      5FF96A6B 
 315      0AB4D799 
 316 0e4d 4D60966F 		.ascii	"M`\226oEr8\302\327z\264\351\216\320B\216Mk\255\316\264"
 316      457238C2 
 316      D77AB4E9 
 316      8ED0428E 
 316      4D6BADCE 
 317 0e62 D6A169AD 		.ascii	"\326\241i\255\307(\265\001\313MXn6\032[}\177\223\261"
 317      C728B501 
 317      CB4D586E 
 317      361A5B7D 
ARM GAS  /var/folders/c6/c789hm653lg9vtl73krp73tm0000gn/T//ccGBNNCQ.s 			page 25


 317      7F93B1
 318 0e75 19F5AA56 		.ascii	"\031\365\252VW\345\260\266\366\216KO\240\265i\201\037"
 318      57E5B0B6 
 318      F68E4B4F 
 318      A0B56981 
 318      1F
 319 0e86 AC841EE8 		.ascii	"\254\204\036\350\327\020\2135\230;\254J\350v\327\221"
 319      D7108B35 
 319      983BAC4A 
 319      E876D791 
 320 0e96 7F874DE4 		.ascii	"\177\207M\344\037\234\346dY\026'\306q\325z\247\025+"
 320      1F9CE664 
 320      591627C6 
 320      71D57AA7 
 320      152B
 321 0ea8 D6E2DCAA 		.ascii	"\326\342\334\252\013\276\3331\370\356\300\200{\004\313"
 321      0BBEDB31 
 321      F8EEC080 
 321      7B04CB
 322 0eb7 EB582E42 		.ascii	"\353X.B\241.\306r\025\226\333\214\002n\356\257\371\222"
 322      A12EC672 
 322      1596DB8C 
 322      026EEEAF 
 322      F992
 323 0ec9 4696717F 		.ascii	"F\226q\177\230\014\364\266\327\260g\335D6\332/\277\301"
 323      980CF4B6 
 323      D7B067DD 
 323      4436DA2F 
 323      BFC1
 324 0edb CEB2DA68 		.ascii	"\316\262\332h7\274\2551n\343\340.\234k\311\356\262\221"
 324      37BCAD31 
 324      6EE3E02E 
 324      9C6BC9EE 
 324      B291
 325 0eed AC37CDC2 		.ascii	"\2547\315\302V3\013\331\303\3566r\260A\351\\0\353\362"
 325      56330BD9 
 325      C3EE3672 
 325      B041E95C 
 325      30EBF2
 326 0f00 31768E2C 		.ascii	"1v\216,\2338 g<\015\357\012\264h\016\263\364\034\033"
 326      9B382067 
 326      3C0DEF0A 
 326      B4680EB3 
 326      F41C1B
 327 0f13 6DBB8084 		.ascii	"m\273\200\204\274\023T\236\335\343%k\340\275\246@\004"
 327      BC13549E 
 327      DDE3256B 
 327      E0BDA640 
 327      04
 328 0f24 D26C1988 		.ascii	"\322l\031\210\341m\257\263\370\177o?\015F\265x\304c"
 328      E16DAFB3 
 328      F87F6F3F 
 328      0D46B578 
 328      C463
 329 0f36 1FB2BFB7 		.ascii	"\037\262\277\267\327\301\350\233+\010g\332\253\331i"
 329      D7C1E89B 
 329      2B0867DA 
ARM GAS  /var/folders/c6/c789hm653lg9vtl73krp73tm0000gn/T//ccGBNNCQ.s 			page 26


 329      ABD969
 330 0f45 B35743C8 		.ascii	"\263WC\310;\250\237\223\035v=|\3100\374]\214\205\004"
 330      3BA89F93 
 330      1D763D7C 
 330      C830FC5D 
 330      8C8504
 331 0f58 9263DA9C 		.ascii	"\222c\332\234`\345\230\324~\253\303:\353\032+\224\345"
 331      60E598D4 
 331      7EABC33A 
 331      EB1A2B94 
 331      E5
 332 0f69 61540F3C 		.ascii	"aT\017<\273\017=\347\000\226\207\261<\232\177\356j\022"
 332      BB0F3DE7 
 332      009687B1 
 332      3C9A7FEE 
 332      6A12
 333 0f7b E81F6C28 		.ascii	"\350\037l(!\370\037x\373\232\306V[\2166\022\2523R\332"
 333      21F81F78 
 333      FB9AC656 
 333      5B8E3612 
 333      AA3352DA 
 334 0f8f C9BA19CF 		.ascii	"\311\272\031\317\036s\355fm6n\306\032\004\242\265\""
 334      1E73ED66 
 334      6D366EC6 
 334      1A04A2B5 
 334      22
 335 0fa0 49D8EC75 		.ascii	"I\330\354uYD\034W\235n\004\323,\327*\220k\337\005\252"
 335      59441C57 
 335      9D6E04D3 
 335      2CD72A90 
 335      6BDF05AA 
 336 0fb4 D27AFB5F 		.ascii	"\322z\373_\346k\271A\006?\274:\234\362B\034\263\353"
 336      E66BB941 
 336      063FBC3A 
 336      9CF2421C 
 336      B3EB
 337 0fc6 03E5D694 		.ascii	"\003\345\326\224E\254\334T-\313\337\202[R\261q\314\037"
 337      45ACDC54 
 337      2DCBDF82 
 337      5B52B171 
 337      CC1F
 338 0fd8 CD83652F 		.ascii	"\315\203e/\375N\301h\203\231\333\375\027\251\363w:\352"
 338      FD4EC168 
 338      8399DBFD 
 338      17A9F377 
 338      3AEA
 339 0fea 688A4055 		.ascii	"h\212@UH\207Tn\267\262V\177\255%\324`\374\323\004\023"
 339      4887546E 
 339      B7B2567F 
 339      AD25D460 
 339      FCD30413 
 340 0ffe B511     		.ascii	"\265\021"
 341 1000 8AD511CE 		.ascii	"\212\325\021\316\271\026\352G6B-\312i8<{6c\017\203\231"
 341      B916EA47 
 341      36422DCA 
 341      69383C7B 
 341      36630F83 
ARM GAS  /var/folders/c6/c789hm653lg9vtl73krp73tm0000gn/T//ccGBNNCQ.s 			page 27


 342 1015 DA018BE4 		.ascii	"\332\001\213\344\206\321\231\341\251!\222\036\324\017"
 342      86D199E1 
 342      A921921E 
 342      D40F
 343 1023 A949EABF 		.ascii	"\251I\352\277\037Uy\255\225\225\273\005\364\261\361"
 343      1F5579AD 
 343      9595BB05 
 343      F4B1F1
 344 1032 CF4CA8E3 		.ascii	"\317L\250\343R\031j\306g\262\327\365\236\001\266\364"
 344      52196AC6 
 344      67B2D7F5 
 344      9E01B6F4 
 345 1042 757AADFF 		.ascii	"uz\255\377\314\013}\017i\327\353\274m/\362\022\337\256"
 345      CC0B7D0F 
 345      69D7EBBC 
 345      6D2FF212 
 345      DFAE
 346 1054 D727B6BD 		.ascii	"\327'\266\275Z\274\366\024^\260\355\325\220c\254\213"
 346      5ABCF614 
 346      5EB0EDD5 
 346      9063AC8B 
 347 1064 B6BD0EE5 		.ascii	"\266\275\016\345\010\207\227l{\355\313\321\353S\333"
 347      0887976C 
 347      7BEDCBD1 
 347      EB53DB
 348 1073 5EBB72F4 		.ascii	"^\273r\364\272\234\351\245\376\031\225y\315\355%o\221"
 348      BA9CE9A5 
 348      FE199579 
 348      CDED256F 
 348      91
 349 1084 5358E4E4 		.ascii	"SX\344\344D\325\244\247L/\344\333s\274\220\277\342\315"
 349      44D5A4A7 
 349      4C2FE4DB 
 349      73BC90BF 
 349      E2CD
 350 1096 3EB6D130 		.ascii	">\266\3210\300\374\316\032\377fI\265\274i\025\371\023"
 350      C0FCCE1A 
 350      FF6649B5 
 350      BC6915F9 
 350      13
 351 10a7 2CF42403 		.ascii	",\364$\003\317~\346\265\376\373+*\336\347\336\254\203"
 351      CF7EE6B5 
 351      FEFB2B2A 
 351      DEE7DEAC 
 351      83
 352 10b8 034A97D2 		.ascii	"\003J\227\322rh\241\372\227Uv\313C\002T\025\034\263"
 352      7268A1FA 
 352      975576CB 
 352      43025415 
 352      1CB3
 353 10ca 26F788F4 		.ascii	"&\367\210\364?\264\360\354\325\334#^3\216\370\327\314"
 353      3FB4F0EC 
 353      D5DC235E 
 353      338EF8D7 
 353      CC
 354 10db 0A925917 		.ascii	"\012\222Y\027\264]\0330\257.\220\365\337b\262d\276:"
 354      B45D1B30 
ARM GAS  /var/folders/c6/c789hm653lg9vtl73krp73tm0000gn/T//ccGBNNCQ.s 			page 28


 354      AF2E90F5 
 354      DF62B264 
 354      BE3A
 355 10ed 875574E9 		.ascii	"\207Ut\351\242\2637R\316\213\005O\377\343\357Bc\230"
 355      A2B33752 
 355      CE8B054F 
 355      FFE3EF42 
 355      6398
 356 10ff 11438796 		.ascii	"\021C\207\226\320\177\211T\211(\225$\023\242\224*y\352"
 356      D07F8954 
 356      89289524 
 356      13A2942A 
 356      79EA
 357 1111 B7CF8C79 		.ascii	"\267\317\214yfbI$\021OFc\202\230*yz\314\230\222H\271"
 357      66624924 
 357      114F4663 
 357      82982A79 
 357      7ACC9892 
 358 1127 F4525248 		.ascii	"\364RRH\015-g|\361TYX\372\207\222\312\224X\022KD\370"
 358      0D2D677C 
 358      F1545958 
 358      FA8792CA 
 358      9458124B 
 359 113d 58C91821 		.ascii	"X\311\030!\026\343\305\222\262H\344q^\214?^\221\250"
 359      16E3C592 
 359      B248E471 
 359      5E8C3F5E 
 359      91A8
 360 114f 101E17F8 		.ascii	"\020\036\027\370\261\321\222\037\017\033>b\330\310a"
 360      B1D1921F 
 360      0F1B3E62 
 360      D8C861
 361 115e 3F2D313E 		.ascii	"?-1>\216VDb\225\245BIJ*\215VH\000\351\207\217\237\374"
 361      8E564462 
 361      95A54249 
 361      4A2A8D56 
 361      4800E987 
 362 1175 382CFDC7 		.ascii	"8,\375\307\367\000\032\347#\345\321\012\241$\\*\214"
 362      F7001AE7 
 362      23E5D10A 
 362      A1245C2A 
 362      8C
 363 1186 E32B6352 		.ascii	"\343+cRX\243;\030\016\253\303\374Y\232mIHI\204q\362"
 363      58A33B18 
 363      0EABC3FC 
 363      599A6D49 
 363      48498471 
 364 119b 096C0D8D 		.ascii	"\011l\015\2150\005R\271(\360\245l\262\020\276\017\017"
 364      300552B9 
 364      28F0A56C 
 364      B210BE0F 
 364      0F
 365 11ac 0B138548 		.ascii	"\013\023\205H\245$\014\264\354A\204\021\376U\"\021\273"
 365      A5240CB4 
 365      EC418411 
 365      FE552211 
 365      BB
ARM GAS  /var/folders/c6/c789hm653lg9vtl73krp73tm0000gn/T//ccGBNNCQ.s 			page 29


 366 11bd 3F4CBE86 		.ascii	"?L\276\206\371TJ\020\245pJx\261R\250\210\010\305\370"
 366      F9544A10 
 366      A5704A78 
 366      B152A888 
 366      08C5F8
 367 11d0 50884781 		.ascii	"P\210G\201\206\304\013B\305C&ik\024G\312\311\320\345"
 367      86C40B42 
 367      C5432669 
 367      6B1447CA 
 367      C9D0E5
 368 11e3 CCC3B6BF 		.ascii	"\314\303\266\277\247^Ji\\\004(}a)\030)\017\323z\310"
 368      A75E4A69 
 368      5C04287D 
 368      61291829 
 368      0FD37AC8 
 369 11f7 BE5FA4BC 		.ascii	"\276_\244\274\024\372\024$\303\025\302D\011>\222\242"
 369      14FA1424 
 369      C315C244 
 369      093E92A2 
 370 1207 30DE2F25 		.ascii	"0\336/%\305h\",\005*Uq\364\011\207\265*6\211&\374\221"
 370      C568222C 
 370      052A5571 
 370      F40987B5 
 370      2A368926 
 371 121d 4485043D 		.ascii	"D\205\004=\036\311i\037\345\221\204(\000|_\362\230\310"
 371      1EC9691F 
 371      E5918428 
 371      007C5FF2 
 371      98C8
 372 122f 36224D7C 		.ascii	"6\"M|4\177\217\360\370'\342\204\021Q(\003\015\206%N"
 372      347F8FF0 
 372      F827E284 
 372      11512803 
 372      0D86254E 
 373 1243 1CC1893F 		.ascii	"\034\301\211?\345\304\237q\342\023\2348\222\023\177"
 373      E5C49F71 
 373      E2139C38 
 373      92137F
 374 1252 EE11870F 		.ascii	"\356\021\207\017\203{8\027\023\341\343'\276d\030\220"
 374      837B3817 
 374      13E1E327 
 374      BE641890 
 375 1262 FD848909 		.ascii	"\375\204\211\011\202\010\237\211X\251 \022\246\370\270"
 375      82089F89 
 375      58A92012 
 375      A6F8B8
 376 1271 D02725BD 		.ascii	"\320'%\275\300\307\242e\025*C?\033\221f\010\253\311"
 376      C0C7A265 
 376      152A433F 
 376      1B916608 
 376      ABC9
 377 1283 30348845 		.ascii	"04\210EA\011\001)%\361\222\020\226\374\344\307\221 "
 377      41090129 
 377      25F19210 
 377      96FCE4C7 
 377      9120
 378 1295 41DA0C6A 		.ascii	"A\332\014j~\322\012~\363K\361D\251\200\337\307\305\370"
ARM GAS  /var/folders/c6/c789hm653lg9vtl73krp73tm0000gn/T//ccGBNNCQ.s 			page 30


 378      7ED20A7E 
 378      F34BF144 
 378      A980DFC7 
 378      C5F8
 379 12a7 B2945F12 		.ascii	"\262\224_\022\205q)\024\013\251\024\210\245/\201\252"
 379      85712914 
 379      0BA91488 
 379      A52F81AA 
 380 12b7 02C2C4A8 		.ascii	"\002\302\304\250\024\201\206\005\023\244\304\330\377"
 380      14818605 
 380      13A4C4D8 
 380      FF
 381 12c4 4EDEA7AA 		.ascii	"N\336\247\252\004\232\010\"Q|X\362M\220$1Y\010*J\011"
 381      049A0822 
 381      517C58F2 
 381      4D902431 
 381      59082A4A 
 382 12d9 713E590E 		.ascii	"q>Y\016l\333k\037\232\200<\212)J*\014\306S\011\020\375"
 382      6CDB6B1F 
 382      9A803C8A 
 382      294A2A0C 
 382      C6530910 
 383 12ee D3FA551F 		.ascii	"\323\372U\037\371\325O_\244\002\014\312\227\012\303"
 383      F9D54F5F 
 383      A4020CCA 
 383      970AC3
 384 12fd 275000BD 		.ascii	"'P\000\275\223\001h\033\0073\235\230\303\304\244\211"
 384      9301681B 
 384      07339D98 
 384      C3C4A489 
 385 130d C4D1E22A 		.ascii	"\304\321\342*V<\234\230P\001\302\304^\300`\234Z\310"
 385      563C9C98 
 385      5001C2C4 
 385      5EC0609C 
 385      5AC8
 386 131f 0409DA25 		.ascii	"\004\011\332%\373\012\343\205\012)\316\247^\200_\204"
 386      FB0AE385 
 386      0A29CEA7 
 386      5E805F84 
 387 132f 09A4E249 		.ascii	"\011\244\342I\206+\2134rbQ\260k\251XG y\022L\206'\360"
 387      862B8B34 
 387      726251B0 
 387      6BA95847 
 387      2079124C 
 388 1346 51295A51 		.ascii	"Q)ZQ\006B\0071Qb\261\012\017\204\244P\001\336^\006\255"
 388      06420731 
 388      5162B10A 
 388      0F84A450 
 388      01DE5E06 
 389 135b 6008D2BE 		.ascii	"`\010\322\276\017\021*\037C{\203\207I\360\243\301\266"
 389      0F112A1F 
 389      437B8387 
 389      49F0A3C1 
 389      B6
 390 136c E44B4444 		.ascii	"\344KDD\367I\321\270\020\216\013|\252R\024\342\002\021"
 390      F749D1B8 
 390      108E0B7C 
ARM GAS  /var/folders/c6/c789hm653lg9vtl73krp73tm0000gn/T//ccGBNNCQ.s 			page 31


 390      AA5214E2 
 390      0211
 391 137e 835F9450 		.ascii	"\203_\224P\034\336\261\340k\276\011\0111%yc|J*\250\304"
 391      1CDEB1E0 
 391      6BBE0909 
 391      31257963 
 391      7C4A2AA8 
 392 1393 C76C4540 		.ascii	"\307lE@\224\260\227\324'R\031\257\214\361Rt\274\240"
 392      94B097D4 
 392      275219AF 
 392      8CF15274 
 392      BCA0
 393 13a5 AA3B05FA 		.ascii	"\252;\005\372y&U\366[!\006\210B\020\277\374+p\360\227"
 393      792655F6 
 393      5B210688 
 393      4210BFFC 
 393      2B70F097 
 394 13b9 F6545076 		.ascii	"\366TPv\201\224\177s\025\251b\321\261\344gS\304\032"
 394      81947F73 
 394      15A962D1 
 394      B1E46753 
 394      C41A
 395 13cb 3174E4D0 		.ascii	"1t\344\320\021\372`\010\021\213xk*\372?\304\006\245"
 395      11FA6008 
 395      118B786B 
 395      2AFA3FC4 
 395      06A5
 396 13dd 71951591 		.ascii	"q\225\025\221\2604 R\376\317\345\245c``Ix\026\250\216"
 396      B0342052 
 396      FECFE5A5 
 396      63606049 
 396      7816A88E 
 397 13f1 4628A5CF 		.ascii	"F(\245\317\202<\271\011|_bc\020\036\2048\015\011\264"
 397      823CB909 
 397      7C5F6263 
 397      101E8438 
 397      0D09B4
 398 1404 5E48E87C 		.ascii	"^H\350|IUT?x\234\371\356\027\251\011\024\210\350\352"
 398      4955543F 
 398      789CF9EE 
 398      17A90914 
 398      88E8EA
 399 1417 3E119D4B 		.ascii	">\021\235KT\235K\244\316\025\204\247\225\"\030\263\344"
 399      549D4BA4 
 399      CE1584A7 
 399      952218B3 
 399      E4
 400 1428 1349A7FB 		.ascii	"\023I\247\373\307GE\251\222\217\205\211,E\315\002\036"
 400      C74745A9 
 400      928F8589 
 400      2C45CD02 
 400      1E
 401 1439 00608B1F 		.ascii	"\000`\213\037\212\015\317\250%\033\036\371\307Khn\344"
 401      8A0DCFA8 
 401      251B1EF9 
 401      C74B686E 
 401      E4
ARM GAS  /var/folders/c6/c789hm653lg9vtl73krp73tm0000gn/T//ccGBNNCQ.s 			page 32


 402 144a 9344A420 		.ascii	"\223D\244 !\032\225\024\200'\245BL\342\241B\331'mH\255"
 402      211A9514 
 402      8027A542 
 402      4CE2A142 
 402      D9276D48 
 403 145f 80B4E5C5 		.ascii	"\200\264\345\305\276\360A\364K\232\303#2\\\221\312~"
 403      BEF041F4 
 403      4B9AC323 
 403      325C91CA 
 403      7E
 404 1470 A930B6B2 		.ascii	"\2510\266\262\214\232\245\376I0\311WD#\304\012\375\321"
 404      8C9AA5FE 
 404      4930C957 
 404      4423C40A 
 404      FDD1
 405 1482 94489C26 		.ascii	"\224H\234&\000j{\201T\206\330*\032{\202.\006\020\033"
 405      006A7B81 
 405      5486D82A 
 405      1A7B822E 
 405      06101B
 406 1495 177970E9 		.ascii	"\027yp\351\261\225\343\306\021f\374\322\3300QP\021\031"
 406      B195E3C6 
 406      1166FCD2 
 406      D8305150 
 406      1119
 407 14a7 6642248C 		.ascii	"fB$\214\256\002\217S\002\362\346#\237\311 \22446\004"
 407      AE028F53 
 407      02F2E623 
 407      9FC92094 
 407      343604
 408 14ba A086A1A5 		.ascii	"\240\206\241\245\000\372%%1\010\037\024\252P\217\353"
 408      00FA2525 
 408      31081F14 
 408      AA508FEB 
 409 14ca 291D5BD6 		.ascii	")\035[\326'\316C4B\013\353/\305\303`Y\321\261\"\350"
 409      27CE4334 
 409      420BEB2F 
 409      C5C36059 
 409      D1B122E8 
 410 14de 3B01A1AD 		.ascii	";\001\241\255 1n\\J\2208)nO3\2324\320\\\364\202 V\010"
 410      20316E5C 
 410      4A903829 
 410      6E4F339A 
 410      34D05CF4 
 411 14f6 316AE210 		.ascii	"1j\342\020(*\302Q\361\305@\005Q3\020\334\007\220E\222"
 411      282AC251 
 411      F1C54005 
 411      513310DC 
 411      07904592 
 412 150a 91CA4BB5 		.ascii	"\221\312K\265*\210\245P\337\247(Z\032\023T\327\006\227"
 412      2A88A550 
 412      DFA7285A 
 412      1A1354D7 
 412      0697
 413 151c E622E57E 		.ascii	"\346\"\345~\325\360\003$\243E\300Y\274$\364\002\257"
 413      D5F00324 
 413      A345C059 
ARM GAS  /var/folders/c6/c789hm653lg9vtl73krp73tm0000gn/T//ccGBNNCQ.s 			page 33


 413      BC24F402 
 413      AF
 414 152d 5265129E 		.ascii	"Re\022\236\361b)D\023\277\232+\373$yI\0028\022)\325"
 414      F1622944 
 414      13BF9A2B 
 414      FB247949 
 414      02381229 
 415 1542 BC3ABCFF 		.ascii	"\274:\274\377P1Q\312K\374P\355A\3613B*\305\227\011\251"
 415      503151CA 
 415      4BFC50ED 
 415      41F13342 
 415      2AC59709 
 416 1557 BF0BC512 		.ascii	"\277\013\305\022\211$C\255\374iA\372'\260I \352\245"
 416      892443AD 
 416      FC6941FA 
 416      27B04920 
 416      EAA5
 417 1569 E7FA694F 		.ascii	"\347\372iO\236\025b\343\236\373?\322\233\311\002"
 417      9E1562E3 
 417      9EFB3FD2 
 417      9BC902
 418              		.text
 419              		.section	.gnu.lto_.symtab.8a4171ef9de68e69,"",%progbits
 420 0000 70617474 		.ascii	"patternmsg\000\000\000\000\000\000\000\000\000\000\000"
 420      65726E6D 
 420      73670000 
 420      00000000 
 420      00000000 
 421 0015 00400200 		.ascii	"\000@\002\000\000testmsg1\000\000\000\000\000\000\000"
 421      00746573 
 421      746D7367 
 421      31000000 
 421      00000000 
 422 0029 00000000 		.ascii	"\000\000\000\000\000V\002\000\000wa\000\000\002\000"
 422      00560200 
 422      00776100 
 422      000200
 423 0038 00000000 		.ascii	"\000\000\000\000\000\000\000\000\255\001\000\000ch\000"
 423      00000000 
 423      AD010000 
 423      636800
 424 0047 00020000 		.ascii	"\000\002\000\000\000\000\000\000\000\000\000\262\001"
 424      00000000 
 424      000000B2 
 424      01
 425 0054 00007468 		.ascii	"\000\000threads\000\000\002\000\000\000\000\000\000"
 425      72656164 
 425      73000002 
 425      00000000 
 425      0000
 426 0066 0000003C 		.ascii	"\000\000\000<\002\000\000_test_assert_sequence\000\000"
 426      0200005F 
 426      74657374 
 426      5F617373 
 426      6572745F 
 427 0084 02000000 		.ascii	"\002\000\000\000\000\000\000\000\000\000\275\000\000"
 427      00000000 
ARM GAS  /var/folders/c6/c789hm653lg9vtl73krp73tm0000gn/T//ccGBNNCQ.s 			page 34


 427      0000BD00 
 427      00
 428 0091 00746573 		.ascii	"\000test_emit_token\000\000\002\000\000\000\000\000"
 428      745F656D 
 428      69745F74 
 428      6F6B656E 
 428      00000200 
 429 00a9 00000000 		.ascii	"\000\000\000\000\306\000\000\000chMsgRelease\000\000"
 429      C6000000 
 429      63684D73 
 429      6752656C 
 429      65617365 
 430 00bf 02000000 		.ascii	"\002\000\000\000\000\000\000\000\000\000\312\000\000"
 430      00000000 
 430      0000CA00 
 430      00
 431 00cc 0063684D 		.ascii	"\000chMsgWait\000\000\002\000\000\000\000\000\000\000"
 431      73675761 
 431      69740000 
 431      02000000 
 431      00000000 
 432 00e0 00009701 		.ascii	"\000\000\227\001\000\000chThdCreateStatic\000\000\002"
 432      00006368 
 432      54686443 
 432      72656174 
 432      65537461 
 433 00fa 00000000 		.ascii	"\000\000\000\000\000\000\000\000\000\232\001\000\000"
 433      00000000 
 433      009A0100 
 433      00
 434 0107 63684D73 		.ascii	"chMsgSend\000\000\002\000\000\000\000\000\000\000\000"
 434      6753656E 
 434      64000002 
 434      00000000 
 434      00000000 
 435 011b 00A80100 		.ascii	"\000\250\001\000\000"
 435      00
 436              		.text
 437              		.section	.gnu.lto_.opts,"",%progbits
 438 0000 272D6D63 		.ascii	"'-mcpu=cortex-m4' '-mno-thumb-interwork' '-mthumb' "
 438      70753D63 
 438      6F727465 
 438      782D6D34 
 438      2720272D 
 439 0033 272D6767 		.ascii	"'-ggdb' '-O2' '-fomit-frame-pointer' '-falign-funct"
 439      64622720 
 439      272D4F32 
 439      2720272D 
 439      666F6D69 
 440 0066 696F6E73 		.ascii	"ions=16' '-ffunction-sections' '-fdata-sections' '-"
 440      3D313627 
 440      20272D66 
 440      66756E63 
 440      74696F6E 
 441 0099 666E6F2D 		.ascii	"fno-common' '-flto'\000"
 441      636F6D6D 
 441      6F6E2720 
ARM GAS  /var/folders/c6/c789hm653lg9vtl73krp73tm0000gn/T//ccGBNNCQ.s 			page 35


 441      272D666C 
 441      746F2700 
 442              		.text
 443              		.cfi_sections	.debug_frame
 444              		.section	.text.msg1_execute,"ax",%progbits
 445              		.align	2
 446              		.p2align 4,,15
 447              		.thumb
 448              		.thumb_func
 449              		.type	msg1_execute, %function
 450              	msg1_execute:
 451              	.LFB230:
 452              		.file 1 "../../../test/rt/testmsg.c"
 453              		.loc 1 66 0
 454              		.cfi_startproc
 455              		@ args = 0, pretend = 0, frame = 0
 456              		@ frame_needed = 0, uses_anonymous_args = 0
 457 0000 10B5     		push	{r4, lr}
 458              		.cfi_def_cfa_offset 8
 459              		.cfi_offset 4, -8
 460              		.cfi_offset 14, -4
 461              	.LBB16:
 462              	.LBB17:
 463              	.LBB18:
 464              	.LBB19:
 465              		.file 2 "../../../os/rt/include/chthreads.h"
 466              		.loc 2 176 0
 467 0002 184A     		ldr	r2, .L2
 468              	.LBE19:
 469              	.LBE18:
 470              	.LBE17:
 471              	.LBE16:
 472              		.loc 1 73 0
 473 0004 184B     		ldr	r3, .L2+4
 474              	.LBB23:
 475              	.LBB22:
 476              	.LBB21:
 477              	.LBB20:
 478              		.loc 2 176 0
 479 0006 9169     		ldr	r1, [r2, #24]
 480              	.LBE20:
 481              	.LBE21:
 482              	.LBE22:
 483              	.LBE23:
 484              		.loc 1 73 0
 485 0008 1868     		ldr	r0, [r3]
 486 000a 8A68     		ldr	r2, [r1, #8]
 487 000c 174B     		ldr	r3, .L2+8
 488              		.loc 1 66 0
 489 000e 82B0     		sub	sp, sp, #8
 490              		.cfi_def_cfa_offset 16
 491              		.loc 1 73 0
 492 0010 0132     		adds	r2, r2, #1
 493 0012 0091     		str	r1, [sp]
 494 0014 4FF4B471 		mov	r1, #360
 495 0018 FFF7FEFF 		bl	chThdCreateStatic
 496              	.LVL0:
ARM GAS  /var/folders/c6/c789hm653lg9vtl73krp73tm0000gn/T//ccGBNNCQ.s 			page 36


 497 001c 144B     		ldr	r3, .L2+12
 498 001e 1860     		str	r0, [r3]
 499              		.loc 1 75 0
 500 0020 FFF7FEFF 		bl	chMsgWait
 501              	.LVL1:
 502              		.loc 1 67 0
 503 0024 446B     		ldr	r4, [r0, #52]
 504              	.LVL2:
 505              		.loc 1 77 0
 506 0026 2146     		mov	r1, r4
 507 0028 FFF7FEFF 		bl	chMsgRelease
 508              	.LVL3:
 509              		.loc 1 78 0
 510 002c E0B2     		uxtb	r0, r4
 511 002e FFF7FEFF 		bl	test_emit_token
 512              	.LVL4:
 513              		.loc 1 79 0
 514 0032 FFF7FEFF 		bl	chMsgWait
 515              	.LVL5:
 516              		.loc 1 67 0
 517 0036 446B     		ldr	r4, [r0, #52]
 518              	.LVL6:
 519              		.loc 1 81 0
 520 0038 2146     		mov	r1, r4
 521 003a FFF7FEFF 		bl	chMsgRelease
 522              	.LVL7:
 523              		.loc 1 82 0
 524 003e E0B2     		uxtb	r0, r4
 525 0040 FFF7FEFF 		bl	test_emit_token
 526              	.LVL8:
 527              		.loc 1 83 0
 528 0044 FFF7FEFF 		bl	chMsgWait
 529              	.LVL9:
 530              		.loc 1 67 0
 531 0048 446B     		ldr	r4, [r0, #52]
 532              	.LVL10:
 533              		.loc 1 85 0
 534 004a 2146     		mov	r1, r4
 535 004c FFF7FEFF 		bl	chMsgRelease
 536              	.LVL11:
 537              		.loc 1 86 0
 538 0050 E0B2     		uxtb	r0, r4
 539 0052 FFF7FEFF 		bl	test_emit_token
 540              	.LVL12:
 541              		.loc 1 87 0
 542 0056 0749     		ldr	r1, .L2+16
 543 0058 0120     		movs	r0, #1
 544              		.loc 1 88 0
 545 005a 02B0     		add	sp, sp, #8
 546              		@ sp needed
 547 005c BDE81040 		pop	{r4, lr}
 548              		.loc 1 87 0
 549 0060 FFF7FEBF 		b	_test_assert_sequence
 550              	.LVL13:
 551              	.L3:
 552              		.align	2
 553              	.L2:
ARM GAS  /var/folders/c6/c789hm653lg9vtl73krp73tm0000gn/T//ccGBNNCQ.s 			page 37


 554 0064 00000000 		.word	ch
 555 0068 00000000 		.word	wa
 556 006c 00000000 		.word	thread
 557 0070 00000000 		.word	threads
 558 0074 00000000 		.word	.LC0
 559              		.cfi_endproc
 560              	.LFE230:
 561              		.size	msg1_execute, .-msg1_execute
 562 0078 AFF30080 		.section	.text.thread,"ax",%progbits
 562      AFF30080 
 563              		.align	2
 564              		.p2align 4,,15
 565              		.thumb
 566              		.thumb_func
 567              		.type	thread, %function
 568              	thread:
 569              	.LFB229:
 570              		.loc 1 59 0
 571              		.cfi_startproc
 572              		@ args = 0, pretend = 0, frame = 0
 573              		@ frame_needed = 0, uses_anonymous_args = 0
 574              	.LVL14:
 575 0000 10B5     		push	{r4, lr}
 576              		.cfi_def_cfa_offset 8
 577              		.cfi_offset 4, -8
 578              		.cfi_offset 14, -4
 579              		.loc 1 61 0
 580 0002 4121     		movs	r1, #65
 581              		.loc 1 59 0
 582 0004 0446     		mov	r4, r0
 583              		.loc 1 61 0
 584 0006 FFF7FEFF 		bl	chMsgSend
 585              	.LVL15:
 586              		.loc 1 62 0
 587 000a 2046     		mov	r0, r4
 588 000c 4221     		movs	r1, #66
 589 000e FFF7FEFF 		bl	chMsgSend
 590              	.LVL16:
 591              		.loc 1 63 0
 592 0012 2046     		mov	r0, r4
 593 0014 4321     		movs	r1, #67
 594              		.loc 1 64 0
 595 0016 BDE81040 		pop	{r4, lr}
 596              	.LVL17:
 597              		.loc 1 63 0
 598 001a FFF7FEBF 		b	chMsgSend
 599              	.LVL18:
 600              		.cfi_endproc
 601              	.LFE229:
 602              		.size	thread, .-thread
 603              		.global	patternmsg
 604              		.global	testmsg1
 605 001e 00BF     		.section	.rodata.testmsg1,"a",%progbits
 606              		.align	2
 607              		.type	testmsg1, %object
 608              		.size	testmsg1, 16
 609              	testmsg1:
ARM GAS  /var/folders/c6/c789hm653lg9vtl73krp73tm0000gn/T//ccGBNNCQ.s 			page 38


 610 0000 04000000 		.word	.LC1
 611 0004 00000000 		.word	0
 612 0008 00000000 		.word	0
 613 000c 00000000 		.word	msg1_execute
 614              		.section	.rodata.str1.4,"aMS",%progbits,1
 615              		.align	2
 616              	.LC0:
 617 0000 41424300 		.ascii	"ABC\000"
 618              	.LC1:
 619 0004 4D657373 		.ascii	"Messages, loop\000"
 619      61676573 
 619      2C206C6F 
 619      6F7000
 620 0013 00       		.section	.rodata.patternmsg,"a",%progbits
 621              		.align	2
 622              		.type	patternmsg, %object
 623              		.size	patternmsg, 8
 624              	patternmsg:
 625 0000 00000000 		.word	testmsg1
 626 0004 00000000 		.word	0
 627              		.text
 628              	.Letext0:
 629              		.file 3 "/usr/local/Cellar/gcc-arm-none-eabi/20140805/lib/gcc/arm-none-eabi/4.8.4/include/stddef.h
 630              		.file 4 "/usr/local/Cellar/gcc-arm-none-eabi/20140805/arm-none-eabi/include/machine/_default_types
 631              		.file 5 "/usr/local/Cellar/gcc-arm-none-eabi/20140805/arm-none-eabi/include/stdint.h"
 632              		.file 6 "../../../os/rt/ports/ARMCMx/compilers/GCC/chtypes.h"
 633              		.file 7 "../../../os/rt/include/chsystypes.h"
 634              		.file 8 "../../../os/rt/include/chschd.h"
 635              		.file 9 "../../../os/rt/ports/ARMCMx/chcore.h"
 636              		.file 10 "../../../os/rt/ports/ARMCMx/chcore_v7m.h"
 637              		.file 11 "../../../os/rt/include/chdebug.h"
 638              		.file 12 "../../../os/rt/include/chtm.h"
 639              		.file 13 "../../../os/rt/include/chstats.h"
 640              		.file 14 "../../../os/rt/include/chsem.h"
 641              		.file 15 "../../../os/rt/include/chmtx.h"
 642              		.file 16 "../../../test/rt/test.h"
 643              		.file 17 "../../../os/ext/CMSIS/include/core_cm4.h"
 644              		.file 18 "../../../os/rt/include/chmsg.h"