ARM GAS  /var/folders/c6/c789hm653lg9vtl73krp73tm0000gn/T//ccKhBMj9.s 			page 1


   1              		.syntax unified
   2              		.cpu cortex-m4
   3              		.fpu softvfp
   4              		.eabi_attribute 20, 1
   5              		.eabi_attribute 21, 1
   6              		.eabi_attribute 23, 3
   7              		.eabi_attribute 24, 1
   8              		.eabi_attribute 25, 1
   9              		.eabi_attribute 26, 1
  10              		.eabi_attribute 30, 2
  11              		.eabi_attribute 34, 1
  12              		.eabi_attribute 18, 4
  13              		.thumb
  14              		.file	"testpools.c"
  15              		.text
  16              	.Ltext0:
  17              		.section	.gnu.lto_.jmpfuncs.6e49600ae6294f9,"",%progbits
  18 0000 789C6362 		.ascii	"x\234cb`b\300\006t\031!4\013\003\003#\0033S5\303\257"
  18      6062C006 
  18      74192134 
  18      0B030323 
  18      03335335 
  19 0016 868E0681 		.ascii	"\206\216\006\201LF\206\\\210\004S\004c&#\343\013&(\013"
  19      4C46865C 
  19      88045304 
  19      632623E3 
  19      0B26280B 
  20 002a 64083303 		.ascii	"d\0103\003\023\246:\240v,\232!\272\231\361K\263\200"
  20      13A63AA0 
  20      762C9A21 
  20      BA99F14B 
  20      B380
  21 003c D8B8AC66 		.ascii	"\330\270\254f\026\0002\340R,\311\214\004\354b\005\261"
  21      160032E0 
  21      522CC98C 
  21      04EC6205 
  21      B1
  22 004d 59E15C26 		.ascii	"Y\341\\&\374\252\031qHcq\015\314= \013\000\352u/c"
  22      FCAA1971 
  22      4863710D 
  22      CC3D200B 
  22      00EA752F 
  23              		.text
  24              		.section	.gnu.lto_.inline.6e49600ae6294f9,"",%progbits
  25 0000 789C6362 		.ascii	"x\234cb`b\300\006\366@i\026\006\006f&F\260\"\266\005"
  25      6062C006 
  25      F6406916 
  25      06066626 
  25      46B022B6 
  26 0015 F260B58C 		.ascii	"\362`\265\214\014\354\374\250\",\274@U\014 \254\363"
  26      0CECFCA8 
  26      222CBC40 
  26      550C20AC 
  26      F3
  27 0026 9D112825 		.ascii	"\235\021(%\3230\203\015.\311\314\003R<\301\017D3\002"
  27      D330830D 
  27      2EC9CC03 
ARM GAS  /var/folders/c6/c789hm653lg9vtl73krp73tm0000gn/T//ccKhBMj9.s 			page 2


  27      523CC10F 
  27      443302
  28 0039 95C2780C 		.ascii	"\225\302x\014`\036\003\230\0077\000,\012\"A\242\254"
  28      601E0398 
  28      0737002C 
  28      0A2241A2 
  28      AC
  29 004a 0C0A6B40 		.ascii	"\014\012k@\306\211\264\235fF\330\316\005\265\020\331"
  29      C689B49D 
  29      6646D8CE 
  29      05B510D9 
  30 005a 14541B40 		.ascii	"\024T\033@fM\360c`\000\000\2755\017\300"
  30      664DF063 
  30      600000BD 
  30      350FC0
  31              		.text
  32              		.section	.gnu.lto_.pureconst.6e49600ae6294f9,"",%progbits
  33 0000 789C6362 		.ascii	"x\234cb`b\340d\200\000\026\006\006F\011f\011V\011\000"
  33      6062E064 
  33      80001606 
  33      06460966 
  33      09560900 
  34 0014 02160063 		.ascii	"\002\026\000c"
  35              		.text
  36              		.section	.gnu.lto_null_provider.6e49600ae6294f9,"",%progbits
  37 0000 789C6362 		.ascii	"x\234cb`b@\007\222@\034\005\304\362@\314\310\314\300"
  37      60624007 
  37      92401C05 
  37      C4F240CC 
  37      C8CCC0
  38 0013 C834E11C 		.ascii	"\3104\341\034\003C#\007\023##\210\301\300\310P\317\304"
  38      03432307 
  38      13232388 
  38      C1C0C850 
  38      CFC4
  39 0025 581FC908 		.ascii	"X\037\311\010V\273\236\351\300\203\377\377\327\375x"
  39      56BB9EE9 
  39      C083FFFF 
  39      D7FD78
  40 0034 FAA88351 		.ascii	"\372\250\203Q\020d\024+CKC\303\004\005\006\206d\260"
  40      1064142B 
  40      434B43C3 
  40      04050686 
  40      64B0
  41 0046 82102009 		.ascii	"\202\020 \011\322\025\312\310\004\242\231/24>\370\317"
  41      D215CAC8 
  41      04A2992F 
  41      32343EF8 
  41      CF
  42 0057 96C8B890 		.ascii	"\226\310\270\220\221\225!\2021\223\021ni\010##H\001"
  42      91952182 
  42      3193116E 
  42      69082323 
  42      4801
  43 0069 C808593D 		.ascii	"\310\010Y==}\010*I-.\321/*\001\323\005\371\3719\305"
  43      3D7D082A 
  43      492D2ED1 
ARM GAS  /var/folders/c6/c789hm653lg9vtl73krp73tm0000gn/T//ccKhBMj9.s 			page 3


  43      2F2A01D3 
  43      05F9F939 
  44 007e 7AC90C00 		.ascii	"z\311\014\0000z#\235"
  44      307A239D 
  45              		.text
  46              		.section	.gnu.lto_pools1_setup.6e49600ae6294f9,"",%progbits
  47 0000 789C6362 		.ascii	"x\234cb`b@\007\222@<\027\210\345\201\230\221\231\201"
  47      60624007 
  47      92403C17 
  47      88E58198 
  47      919981
  48 0013 9169C239 		.ascii	"\221i\3029\006\206F\016&FF\020\203\201\221\241\236\211"
  48      0686460E 
  48      26464610 
  48      838191A1 
  48      9E89
  49 0025 B13E9211 		.ascii	"\261>\222\021\254v=\323\201\007\377\377\257\233\322"
  49      AC763DD3 
  49      8107FFFF 
  49      AF9BD2
  50 0034 B6E40EE3 		.ascii	"\266\344\016\343\014&f\240\010+CKC\303\004\005\006\206"
  50      0C2666A0 
  50      082B434B 
  50      43C30405 
  50      0686
  51 0046 64B08A10 		.ascii	"d\260\212\020 \011\322\026\312\310\004\242\231\3173"
  51      2009D216 
  51      CAC804A2 
  51      99CF33
  52 0055 B43DE879 		.ascii	"\264=\350y\314\225\310\270\220\221\025(]\315\360\253"
  52      CC95C8B8 
  52      90911528 
  52      5DCDF0AB 
  53 0065 A1A34120 		.ascii	"\241\243A \223\021\250\034b\"H\204#\223\2211\227\221"
  53      9311A81C 
  53      62224884 
  53      23939131 
  53      9791
  54 0077 01AA2882 		.ascii	"\001\252(\2021\223\221\351\005\023\230\006\332\220\311"
  54      319391E9 
  54      05139806 
  54      DA90C9
  55 0086 C8C2C070 		.ascii	"\310\302\300p\221\241\361A\2572\314\024\010\010\001"
  55      91A1F141 
  55      AF32CC14 
  55      080801
  56 0095 9A00B402 		.ascii	"\232\000\264\002\344!Y==}\010*I-.\321/*\001\323\005"
  56      E421593D 
  56      3D7D082A 
  56      492D2ED1 
  56      2F2A01D3 
  57 00aa F9F939C5 		.ascii	"\371\3719\305z\311\014\000mM1\372"
  57      7AC90C00 
  57      6D4D31FA 
  58              		.text
  59              		.section	.gnu.lto_pools1_execute.part.0.6e49600ae6294f9,"",%progbits
  60 0000 789C9D54 		.ascii	"x\234\235T=hSQ\024>\347\336\367s\337O~\324IP\211\356"
ARM GAS  /var/folders/c6/c789hm653lg9vtl73krp73tm0000gn/T//ccKhBMj9.s 			page 4


  60      3D685351 
  60      143EE7DE 
  60      F773DF4F 
  60      7ED44950 
  61 0016 2620383B 		.ascii	"& 8;\273'\240cyH|`\251\330l\016}\371Q\272\024\202.E"
  61      BB27A063 
  61      79487C60 
  61      A9D86C0E 
  61      7DF951BA 
  62 002e 1D2C5D05 		.ascii	"\035,]\005'\251\024\034\342\324\010m\350\"\015t\210"
  62      27A9141C 
  62      E2D4086D 
  62      E8220D74 
  62      88
  63 003f 2875D0C9 		.ascii	"(u\320\311I\034\214\347\334\367\023\2234\203>\222{\356"
  63      491C8CE7 
  63      DCF71393 
  63      34833E92 
  63      7BEE
  64 0051 B9E77CE7 		.ascii	"\271\347|\347\234\357\273/\021 `\366\351\322\267o\000"
  64      9CEFBB2F 
  64      112060F6 
  64      E9D2B76F 
  64      00
  65 0062 5C268B39 		.ascii	"\\&\2139@\277{@\033\037\205\266\002\015mel{\312\020"
  65      40BF7B40 
  65      1B1F85B6 
  65      020D6D65 
  65      6C7BCA10 
  66 0076 72A30710 		.ascii	"r\243\007\020\271f;\007\221o\242\322qKx\357%\235\332"
  66      B9663B07 
  66      916FA2D2 
  66      714B78EF 
  66      259DDA
  67 0089 071F28E8 		.ascii	"\007\037(\350\333\361qO)a\305\351\216Nw\204\367\261"
  67      DBF1714F 
  67      2961C5E9 
  67      8E4E7784 
  67      F7B1
  68 009b 429EBB7B 		.ascii	"B\236\273{\211<\027=\316j*\017\2217\200\260\346\013"
  68      893C173D 
  68      CE6A2A0F 
  68      913780B0 
  68      E60B
  69 00ad 699896AD 		.ascii	"i\230\226\255\034\327\303\265\333\310\023\342\025\330"
  69      1CD7C3B5 
  69      DBC813E2 
  69      15D8
  70 00bb 8AA2EEE8 		.ascii	"\212\242\356\350\321\311\333\363\321\313V7\372=\036"
  70      D1C9DBF3 
  70      D1CB5637 
  70      FA3D1E
  71 00ca 6388C4A5 		.ascii	"c\210\304\245\204\020 \334\"\007K\332\010c\232\334k"
  71      841020DC 
  71      22074BDA 
  71      08639ADC 
  71      6B
ARM GAS  /var/folders/c6/c789hm653lg9vtl73krp73tm0000gn/T//ccKhBMj9.s 			page 5


  72 00db 118DC6E3 		.ascii	"\021\215\306\343\341\017u\001a\011\267\250\222\200\020"
  72      E10F7501 
  72      6109B7A8 
  72      928010
  73 00ea A54C1C83 		.ascii	"\245L\034\203\035\223\026\303\342\305N\216Ub\035\016"
  73      1D9316C3 
  73      E2C54E8E 
  73      55621D0E 
  74 00fa BB1CF178 		.ascii	"\273\034\361x\361\331\315\361.\237$\024\022K\217\011"
  74      F1D9CDF1 
  74      2E9F2414 
  74      124B8F09 
  75 010a 1D9AB194 		.ascii	"\035\232\261\224\372\201\236\274J+\361\256\242OF\326"
  75      FA819EBC 
  75      4A2BF1AE 
  75      A24F46D6 
  76 011a 50B00118 		.ascii	"P\260\001\030B\236\207\245\004\377\370\315]\200\032"
  76      429E87A5 
  76      04FFF8CD 
  76      5D801A
  77 0129 4A2095E4 		.ascii	"J \225\344>\264\216\217\276\375\304%\334F\023\352(\256"
  77      3EB48E8F 
  77      BEFDC425 
  77      DC4613EA 
  77      28AE
  78 013b C2ABA818 		.ascii	"\302\253\250\030\242\371\034\2365\273\274\263\036\302"
  78      A2F91C9E 
  78      35BBBCB3 
  78      1EC2
  79 0149 AF689377 		.ascii	"\257h\223w\366\262\356\300ulM\265\216\230\321\036\200"
  79      F6B2EEC0 
  79      756C4DB5 
  79      8E98D11E 
  79      80
  80 015a 19D70060 		.ascii	"\031\327\000`\300:\003T\220$\360\211\012\321Y\306\244"
  80      C03A0354 
  80      9024F089 
  80      0AD159C6 
  80      A4
  81 016b 11770AD1 		.ascii	"\021w\012\321\005\330\207\366z{g\343f\332_RM=(\003\373"
  81      05D887F6 
  81      7A7B67E3 
  81      66DA5F52 
  81      4D3D2803 
  82 0180 20E2F398 		.ascii	" \342\363\230\"E\343^54\200.O\366\241\245 \013\022b"
  82      2245E35E 
  82      3534802E 
  82      4FF6A1A5 
  82      200B1262 
  83 0194 0F3A274D 		.ascii	"\017:'M;\255\025\027\232\\\317\020\260\216yA\213\224"
  83      3BAD1517 
  83      9A5CCF10 
  83      B08E7941 
  83      8B94
  84 01a6 9B0E9731 		.ascii	"\233\016\2271Sq\012\2118\306\213\035-\216\005O\257\313"
  84      53710A89 
  84      38C68B1D 
ARM GAS  /var/folders/c6/c789hm653lg9vtl73krp73tm0000gn/T//ccKhBMj9.s 			page 6


  84      2D8E054F 
  84      AFCB
  85 01b8 017446BB 		.ascii	"\001tF\273\333\2314F\306\313\013P,\340\025\222\356L"
  85      DB993446 
  85      C6CB0B50 
  85      2CE01592 
  85      EE4C
  86 01ca EA48A630 		.ascii	"\352H\2460\223\220\\]N\251T\217u\325\345rAB\214\323"
  86      93905C5D 
  86      4EA9548F 
  86      75D5E572 
  86      41428CD3 
  87 01de F2923121 		.ascii	"\362\2221!\0264\233\357Yw\213\203S\257Z\215n\341\323"
  87      16349BEF 
  87      59778B83 
  87      53AF5A8D 
  87      6EE1D3
  88 01f1 35A915FC 		.ascii	"5\251\025\374:QP\325\321^\254\240J\261\012\276\334\230"
  88      3A5150D5 
  88      D15EACA0 
  88      4AB10ABE 
  88      DC98
  89 0203 11D09E15 		.ascii	"\021\320\236\025\320\236\023\320\256c\301$\001\225\035"
  89      D09E13D0 
  89      AE63C124 
  89      01951D
  90 0212 0BE8C0A1 		.ascii	"\013\350\300\241\253uz\027\244 \347_d\032d2\271\204"
  90      AB757A17 
  90      A420E75F 
  90      641A6432 
  90      B984
  91 0224 3C4D266F 		.ascii	"<M&o\201L\006c\346e\362N\221\311\205'\006\015\371x\264"
  91      814C0663 
  91      E665F24E 
  91      91C98527 
  91      060DF978 
  92 0239 F7D99D7B 		.ascii	"\367\331\235{G\213A\222>?$\227:SL\003g\0034\263\351"
  92      478B4192 
  92      3E3F2497 
  92      3A534C03 
  92      670334B3 
  93 024e CFF18C9D 		.ascii	"\317\361\214\235Q?c\355\377\037\353\034!\347Y\3775\336"
  93      513F63ED 
  93      FF1FEB1C 
  93      21E759FF 
  93      35DE
  94 0260 34690DD1 		.ascii	"4i\015\321\244cf\036\277\277\207\364o6\241[\245\337"
  94      A463661E 
  94      BFBF87F4 
  94      6F36A15B 
  94      A5DF
  95 0272 413BC713 		.ascii	"A;\307\023\\,\227+\361\247qg\265Qy\320\320\366\376\312"
  95      5C2C972B 
  95      F1A77167 
  95      B55179D0 
  95      D0F6FECA 
  96 0286 CABDD572 		.ascii	"\312\275\325r\000\030\376\001\344\015\016\026"
ARM GAS  /var/folders/c6/c789hm653lg9vtl73krp73tm0000gn/T//ccKhBMj9.s 			page 7


  96      0018FE01 
  96      E40D0E16 
  97              		.text
  98              		.section	.gnu.lto_pools1_execute.6e49600ae6294f9,"",%progbits
  99 0000 789C9553 		.ascii	"x\234\225SMk\023Q\024=\367\275\371x\371n\304\215\013"
  99      4D6B1351 
  99      143DF7BD 
  99      F978F96E 
  99      C48D0B
 100 0013 25BA37F9 		.ascii	"%\2727\371\007\356\3357\240\3132\224:`\251\330\354\\"
 100      07EEDD37 
 100      A0CB3294 
 100      3A60A9D8 
 100      EC5C
 101 0025 74928950 		.ascii	"t\222\211PA!+)\025\324\322M\021A\\\010.\\X\335\330B"
 101      41212B29 
 101      15D4D24D 
 101      11415C08 
 101      2E5C58DD 
 102 003b 1B05170A 		.ascii	"\033\005\027\012]\004\027Y\371\0034\212\361\336y3ic"
 102      5D041759 
 102      F903348A 
 102      F1DE7933 
 102      6963
 103 004d DB8543F2 		.ascii	"\333\205C\362\336\273_\347\236{\346\215\202\302\277"
 103      DEBB5FE7 
 103      9E7BE68D 
 103      82C2BF
 104 005c CF3CFFEF 		.ascii	"\317<\377\357i\340\"\357\224\003\251\336>\3206\212\\"
 104      69E022EF 
 104      9403A9DE 
 104      3ED0368A 
 104      5C
 105 006d 7BD0CABC 		.ascii	"{\320\312\274\323\210\362\316\376.\020\025\035\353\337"
 105      D388F2CE 
 105      FE2E1015 
 105      1DEBDF
 106 007c 36AED20F 		.ascii	"6\256\322\017\266\331\223\367\342\022\373=e\336\\`\313"
 106      B6D993F7 
 106      E212FB3D 
 106      65DE5C60 
 106      CB
 107 008d FFDC60CB 		.ascii	"\377\334`\313'#Yd\210d\007aEi\307\365|C+\327I\332\322"
 107      27235964 
 107      88640761 
 107      4569C7F5 
 107      7C432BD7 
 108 00a4 256C4451 		.ascii	"%lDQopw\370\372\\\364\264\323\213\376\214\307\024\022"
 108      6F7077F8 
 108      FA5CF4B4 
 108      D38BFE8C 
 108      C71412
 109 00b7 13AC1102 		.ascii	"\023\254\021\002\30256\250\226l\312\231f\374B\275\035"
 109      C23536A8 
 109      966CCA99 
 109      66FC42BD 
 109      1D
ARM GAS  /var/folders/c6/c789hm653lg9vtl73krp73tm0000gn/T//ccKhBMj9.s 			page 8


 110 00c8 8CC7BF5F 		.ascii	"\214\307\277_n}\333\245\352Y\302\034m0\232\203\220\264"
 110      6E7DDBA5 
 110      EA59C21C 
 110      6D309A83 
 110      90B4
 111 00da 971A468C 		.ascii	"\227\032F\214\034/NA\226b\352.\213\273\"\236\252,\214"
 111      1C2F4E41 
 111      9662EA2E 
 111      8BBB229E 
 111      AA2C8C
 112 00ed E5A2CB2C 		.ascii	"\345\242\313,j6\014i\314\317,\257\243\012\232\244x\323"
 112      6A360C69 
 112      CCCF2CAF 
 112      A30A9AA4 
 112      78D3
 113 00ff 7BE81CFC 		.ascii	"{\350\034\374\030~Ts\264I.\026\310\271\214\347\321L"
 113      187E5473 
 113      B4492E16 
 113      C8B98CE7 
 113      D14C
 114 0111 48EE23AC 		.ascii	"H\356#\254\267{r\362\356`\024\255\311\311_L\000\204"
 114      B77B72F2 
 114      EE6014AD 
 114      C9C95F4C 
 114      0084
 115 0123 B58FEC74 		.ascii	"\265\217\354t\224{\037\236\305\001\244hU\212L@6G<&\244"
 115      947B1F9E 
 115      C501A468 
 115      558A4C40 
 115      36473C26 
 116 0138 DC22519A 		.ascii	"\334\"Q\232\304\335\004!\3572\335\002\260\203\316\340"
 116      C4DD0421 
 116      EF32DD02 
 116      B083CEE0 
 117 0148 F1FB14C1 		.ascii	"\361\373\024\301r\236j\320$\015~)\272\217\356\340\311"
 117      729E6AD0 
 117      240D7E29 
 117      BA8FEEE0 
 117      C9
 118 0159 26658CCD 		.ascii	"&e\214\315\244U1 uJ\253\220J\300\036\342/:+\313q\245"
 118      A4553120 
 118      754AAB90 
 118      4AC01EE2 
 118      2F3A2BCB 
 119 016f C06B4BDC 		.ascii	"\300kK\334\315\374\205\011\\9\260\301\204E\205\244&"
 119      CDFC8509 
 119      5C39B0C1 
 119      844585A4 
 119      26
 120 0180 A419E003 		.ascii	"\244\031\340\003\272\337'\335\013\022\234z\205M6\037"
 120      BADF27DD 
 120      0B129C7A 
 120      854D361F 
 121 0190 5E6161E3 		.ascii	"^aa\343\325\370\327\375\253Ybq\201(\031G\006\332\201"
 121      D5F8D7FD 
 121      AB596271 
 121      81281947 
ARM GAS  /var/folders/c6/c789hm653lg9vtl73krp73tm0000gn/T//ccKhBMj9.s 			page 9


 121      06DA81
 122 01a3 3A3A2647 		.ascii	"::&G\263Z\027|\2454Ka0\011R\322s\330\3663,\013t\330"
 122      B35A177C 
 122      A5344B61 
 122      300952D2 
 122      73D8F633 
 123 01bb F52B2855 		.ascii	"\365+(UJmi\006s\326r\202\345!.%j=\013\262\312\362\377"
 123      4A6D6906 
 123      73D67282 
 123      E5212E25 
 123      6A3D0BB2 
 124 01d2 88D59F88 		.ascii	"\210\325\237\210U\341\312\223\304\252\236\"\226\222"
 124      55E1CA93 
 124      C4AA9E22 
 124      9692
 125 01e0 9AE36255 		.ascii	"\232\343bUO\020\313\307O\237I\306\346\330\315\251\006"
 125      4F10CBC7 
 125      4F9F49C6 
 125      E6D8CDA9 
 125      06
 126 01f1 696E4867 		.ascii	"inHg\354\224^:\245w\360\352\206\324\032\271\301\237"
 126      EC945E3A 
 126      A577F0EA 
 126      86D41AB9 
 126      C19F
 127 0203 F8333E04 		.ascii	"\3703>\004\234e\265F\025\231\354|\275\336\260\277\326"
 127      9C65B546 
 127      1599EC7C 
 127      BDDEB0BF 
 127      D6
 128 0214 FC72AB71 		.ascii	"\374r\253q\273\225\354\267\226\226n.\327\003P\370\027"
 128      BB95ECB7 
 128      96966E2E 
 128      D70350F8 
 128      17
 129 0225 D2AACD2D 		.ascii	"\322\252\315-"
 130              		.text
 131              		.section	.gnu.lto_.symbol_nodes.6e49600ae6294f9,"",%progbits
 132 0000 789C4D8C 		.ascii	"x\234M\214]\216\001Q\024\204\253\356\351\243\333\260"
 132      5D8E0151 
 132      1484ABEE 
 132      E9A3DBB0 
 133 0010 00129BB3 		.ascii	"\000\022\233\263\222#\2210\343\311\002LBz\023\336\373"
 133      92239130 
 133      E3C9024C 
 133      427A13DE 
 133      FB
 134 0021 8DC41A84 		.ascii	"\215\304\032\204\37073$\355\225\271\027\321\316K\345"
 134      F8373324 
 134      ED95B917 
 134      D1CE4BE5 
 135 0031 AB3A550E 		.ascii	"\253:U\016\0165\342qnM\003\3723\300l\360\325t\033\032"
 135      0E35E271 
 135      6E4D03FA 
 135      33C06CF0 
 135      D5741B1A 
 136 0045 0BD41511 		.ascii	"\013\324\025\021\231\2703\315=\335\357O\352\201\204"
ARM GAS  /var/folders/c6/c789hm653lg9vtl73krp73tm0000gn/T//ccKhBMj9.s 			page 10


 136      99B833CD 
 136      3DDDEF4F 
 136      EA8184
 137 0054 C16D69F2 		.ascii	"\301mi\362\366\273\247S\203\356(^x\242E\217\260\325"
 137      F6BBA753 
 137      83EE285E 
 137      78A2458F 
 137      B0D5
 138 0066 22FF685A 		.ascii	"\"\377hZ\320\017\255T\320/-.\350HK^$L\320\236_)RA:\275"
 138      D00FAD54 
 138      D02F2D2E 
 138      E8484B5E 
 138      244CD09E 
 139 0080 46221F58 		.ascii	"F\"\037XN\202&\310\356ZA\273\2277\202\237u\203z\356"
 139      4E8226C8 
 139      EE5A41BB 
 139      9737829F 
 139      75837AEE 
 140 0094 E476E7D1 		.ascii	"\344v\347\321-\026)#\035\347u\321*\322\260\243\276?"
 140      2D162923 
 140      1DE775D1 
 140      2AD2B0A3 
 140      BE3F
 141 00a6 F4BEFABD 		.ascii	"\364\276\372\275\220\007\356\370^\340\320W\301\242{"
 141      9007EEF8 
 141      5EE0D057 
 141      C1A27B
 142 00b5 89F10FE7 		.ascii	"\211\361\017\347\\U\236"
 142      5C559E
 143              		.text
 144              		.section	.gnu.lto_.refs.6e49600ae6294f9,"",%progbits
 145 0000 789C35C7 		.ascii	"x\2345\307\301\015\0000\010\303\300\304\2052K\367_\020"
 145      C10D0030 
 145      08C3C0C4 
 145      85324BF7 
 145      5F10
 146 0012 A48AF3CB 		.ascii	"\244\212\363\313\010=}6\324Q\260\004\221\373\276\324"
 146      083D7D36 
 146      D451B004 
 146      91FBBED4 
 147 0022 64520D10 		.ascii	"dR\015\020\271\000\224"
 147      B90094
 148              		.text
 149              		.section	.gnu.lto_.decls.6e49600ae6294f9,"",%progbits
 150 0000 789C9D58 		.ascii	"x\234\235XklTE\024\236\271\333\322\226.\005\252\220"
 150      6B6C5445 
 150      149EB9DB 
 150      D2962E05 
 150      AA90
 151 0012 22AF4541 		.ascii	"\"\257EA#\221\335\326`\302\017CA\242\326\304\007\177"
 151      2391DDD6 
 151      60C20F43 
 151      41A2D6C4 
 151      077F
 152 0024 488C7FD6 		.ascii	"H\214\177\326a{\2415\333\335r\367V@\1778\024\013\025"
 152      617BA135 
 152      DBDD72F7 
ARM GAS  /var/folders/c6/c789hm653lg9vtl73krp73tm0000gn/T//ccKhBMj9.s 			page 11


 152      56407F38 
 152      140B15
 153 0037 092905B4 		.ascii	"\011)\005\264EJZ\036\012\374*\240\220H\212\233\212m"
 153      454A5A1E 
 153      0AFC2AA0 
 153      90488A9B 
 153      8A6D
 154 0049 C594F08A 		.ascii	"\305\224\360\212\012Z\262\021\210\202\200E\204\206\012"
 154      0A5AB211 
 154      88828045 
 154      84860A
 155 0058 AC671EBB 		.ascii	"\254g\036\273{\357\335{\227\326I\317\275sg\316\343;"
 155      7BEFDD7B 
 155      97D649CF 
 155      BD7367CE 
 155      E33B
 156 006a 67CECC9C 		.ascii	"g\316\314\234\255\202\024t\015#\024\207\266\263\020"
 156      AD821474 
 156      0D231487 
 156      B6B310
 157 0079 A1171584 		.ascii	"\241\027\025\204\262\021Bs\221x\267\311\367!\240\375"
 157      B2114273 
 157      9178B7C9 
 157      F721A0FD 
 158 0089 40479068 		.ascii	"@G\220hy@\035@\235@]@\307\201z\201\316\000\375\014\364"
 158      79401D40 
 158      9D405D40 
 158      C7817A81 
 158      CE00FD0C 
 159 009e 2BD025A0 		.ascii	"+\320%\240,\240\253@\327\201\376\006\032\205\221\251"
 159      2CA0AB40 
 159      D781FE06 
 159      1A8591A9 
 160 00ae 311D6CA8 		.ascii	"1\035l\250T~c9fm\235\022G\0216c:!\347\025\311\323+u"
 160      547E6339 
 160      666D9D12 
 160      47113663 
 160      3A21E715 
 161 00c6 5CB5C833 		.ascii	"\\\265\3103\214\217J<\005@ni\363\002\320_@7\200&\200"
 161      8C8F4A3C 
 161      05406E69 
 161      F302D05F 
 161      40378026 
 162 00db E06352FF 		.ascii	"\340cR\377Y\240\211\320?\007\357IX\330\353\223\366\023"
 162      59A089D0 
 162      3F07EF49 
 162      58D8EB93 
 162      F613
 163 00ed 7148D81E 		.ascii	"qH\330\036!\365\033}\357\225~(\322w+\036\026\257G\206"
 163      21F51B7D 
 163      EF957E28 
 163      D2772B1E 
 163      16AF4786 
 164 0101 8067B2C4 		.ascii	"\200g\262\304\303l^v\3004\005\372\335Ro\266\324}\311"
 164      C36C5E76 
 164      C03405FA 
 164      DD526FB6 
ARM GAS  /var/folders/c6/c789hm653lg9vtl73krp73tm0000gn/T//ccKhBMj9.s 			page 12


 164      D47DC9
 165 0114 80A52B03 		.ascii	"\200\245+\003\216|\264\216\322Z\332\272\206\226\365"
 165      8E7CB48E 
 165      D25ADABA 
 165      8696F5
 166 0123 1414A28D 		.ascii	"\024\024\242\215\024\232\247\007\020\275\211\011.\310"
 166      149AA707 
 166      10BD8909 
 166      2EC8
 167 0131 436FF38E 		.ascii	"Co\363\216;\217\003\234\201vQ\332\020\373\356b\021\315"
 167      3B8F039C 
 167      817651DA 
 167      10FBEE62 
 167      11CD
 168 0143 2278072E 		.ascii	"\"x\007.\004\265Oa4\023\355\005\251\006JwLL_8\3640\245"
 168      04B54F61 
 168      3413ED05 
 168      A9064A77 
 168      4C4C5F38 
 169 015a 0811FC39 		.ascii	"\010\021\3749\250\"x7\236)L\320\350\306.73\301\306\221"
 169      A8227837 
 169      9E294CD0 
 169      E8C62E37 
 169      33C1C691 
 170 016e 9CB169D3 		.ascii	"\234\261i\323P+\200\217nZ\3232\201\266vb;_ZG\030\354"
 170      502B808F 
 170      6E5AD332 
 170      81B67662 
 170      3B5F5A47 
 171 0184 7A1276B3 		.ascii	"z\022v\263xD\236\307\240z\237\325\364M\342\021\243\017"
 171      78449EC7 
 171      A07A9FD5 
 171      F44DE211 
 171      A30F
 172 0196 377CEBCA 		.ascii	"7|\353\312\367\2306\272\011\336\013\266\025T\226\320"
 172      F79836BA 
 172      09DE0BB6 
 172      155496D0 
 173 01a6 67674E76 		.ascii	"ggNvE\223\014\326f'\307P0\365\262)h!\226\001\033\246"
 173      45930CD6 
 173      6627C750 
 173      30F5B229 
 173      68219601 
 174 01bc 1589794B 		.ascii	"\025\211yK\3276\036\254<T\237\012\226\275i\271\3347"
 174      D7361EAC 
 174      3C549F0A 
 174      96BD69B9 
 174      DC37
 175 01ce D7FC780B 		.ascii	"\327\374x\013\327R\012\023\373ALA\00716\205\206\340"
 175      D7520A13 
 175      FB414C41 
 175      07313685 
 175      86E0
 176 01e0 6C932FFC 		.ascii	"l\223/\374;\301\300\364\361i\331a\007\315h\346\307\327"
 176      3BC1C0F4 
 176      F169D961 
 176      07CD68E6 
ARM GAS  /var/folders/c6/c789hm653lg9vtl73krp73tm0000gn/T//ccKhBMj9.s 			page 13


 176      C7D7
 177 01f2 78B88E78 		.ascii	"x\270\216x\214\216\304\352.\366\270\232i\364C\227i\331"
 177      8C8EC4EA 
 177      2EF6B89A 
 177      69F44397 
 177      69D9
 178 0204 C7A32D7C 		.ascii	"\307\243-|\331\327\000^\235\340\322|\307\240\036\306"
 178      D9D7005E 
 178      9DE0D27C 
 178      C7A01EC6 
 179 0214 E379CFC5 		.ascii	"\343y\317\305\367\006\022\316\021\274\310\225q9dL\016"
 179      F70612CE 
 179      11BCC895 
 179      7139644C 
 179      0E
 180 0225 6E38FC34 		.ascii	"n8\3744\245\271\004\037\342+\177\335\022\021\023$a\312"
 180      A5B9041F 
 180      E22B7FDD 
 180      12111324 
 180      61CA
 181 0237 09C61150 		.ascii	"\011\306\021P`\237gis\012\032\034J\314r3\245\230I\177"
 181      609F6769 
 181      730A1A1C 
 181      4ACC7233 
 181      A598497F 
 182 024b 6ADB11FC 		.ascii	"j\333\021\374\005\236\001\317=x\032<\333\371\363+xf"
 182      059E01CF 
 182      3D781A3C 
 182      DBF9F32B 
 182      7866
 183 025d 8C0553D1 		.ascii	"\214\005S\321\226J\315\251h;=\331\037ki<:\205\255\013"
 183      964ACDA9 
 183      683B3DD9 
 183      1F6B693C 
 183      3A85AD0B 
 184 0271 8DC73F90 		.ascii	"\215\307?\220aV\320.\305\034\240\351h'\245\215\364S"
 184      6156D02E 
 184      C51CA0E9 
 184      6827A58D 
 184      F453
 185 0283 B52C9154 		.ascii	"\265,\221T\0078G\007\236jkJpA{\022\355f\221\355\270"
 185      07384707 
 185      9E6A6B4A 
 185      70417B12 
 185      ED6691ED 
 186 0298 B4B08CAF 		.ascii	"\264\260\214\257.\312 $!\036\305\212\321m\0063\332\017"
 186      2ECA2024 
 186      211EC58A 
 186      D16D0633 
 186      DA0F
 187 02aa FB6003EC 		.ascii	"\373`\003\354\203\332h<^\212,I3w\234\243\273\337\312"
 187      83DA683C 
 187      5E8A2C49 
 187      33779CA3 
 187      BBDFCA
 188 02bd A449E589 		.ascii	"\244I\345\211\202\016[|\223 \241\355\241.\256\215\361"
 188      820E5B7C 
ARM GAS  /var/folders/c6/c789hm653lg9vtl73krp73tm0000gn/T//ccKhBMj9.s 			page 14


 188      9320A1ED 
 188      A12EAE8D 
 188      F1
 189 02ce 77024853 		.ascii	"w\002HS\360\217\331\302\332\336\265>\267aU,\036\237"
 189      F08FD9C2 
 189      DADEB53E 
 189      B761552C 
 189      1E9F
 190 02e0 3A7450DD 		.ascii	":tP\3356\240\216\331\203j0\203\352\262\202\352\261\003"
 190      36A08ED9 
 190      836A3083 
 190      EAB282EA 
 190      B103
 191 02f2 450F509A 		.ascii	"E\017P\232\007\313\031\247\212\210\200\202\316\017\311"
 191      07CB19A7 
 191      8A888082 
 191      CE0FC9
 192 0301 E7E356F5 		.ascii	"\347\343V\365?\244\253\2175\304\352\006\242\270\231"
 192      3FA4AB8F 
 192      35C4EA06 
 192      A2B899
 193 0310 768A8C19 		.ascii	"v\212\214\031\272\333'\254\033\230\345\242i7\033'\017"
 193      BADB27AC 
 193      1B98E5A2 
 193      69371B27 
 193      0F
 194 0321 8944356D 		.ascii	"\211D5mp\005]I\363C0\235\266\003\032=\335\275\236\342"
 194      70055D49 
 194      F343309D 
 194      B6031A3D 
 194      DDBD9EE2 
 195 0335 E1AECED9 		.ascii	"\341\256\316\331\2140K\355P\015:\240\372\311\026\325"
 195      8C304BED 
 195      500D3AA0 
 195      FAC916D5 
 196 0345 37DDEB27 		.ascii	"7\335\353'\3206\333L\316p\374\235\263\203e\301Q\347"
 196      D036DB4C 
 196      CE70FC9D 
 196      B38365C1 
 196      51E7
 197 0357 B2C7F18B 		.ascii	"\262\307\361\213\3552\236\331\332\267\012o\\\335\332"
 197      ED329ED9 
 197      DAB70A6F 
 197      5CDDDA
 198 0366 43FBD911 		.ascii	"C\373\331\021o\202\222\213\326\262m\033\253\243\253"
 198      6F82928B 
 198      D6B26D1B 
 198      ABA3AB
 199 0375 F0B2E469 		.ascii	"\360\262\344i\222\233\000\305*6q\375B\202B\222]\300"
 199      929B00C5 
 199      2A3671FD 
 199      42824292 
 199      5DC0
 200 0387 B9607E9F 		.ascii	"\271`~\237\313R,\246\0200\006\326\230\274\350'z\330"
 200      CB522CA6 
 200      103006D6 
 200      98BCE827 
ARM GAS  /var/folders/c6/c789hm653lg9vtl73krp73tm0000gn/T//ccKhBMj9.s 			page 15


 200      7AD8
 201 0399 F9ACEAB3 		.ascii	"\371\254\352\263\272\014\327Q\262/5Z\"\320\356\020\201"
 201      BA0CD751 
 201      B22F355A 
 201      22D0EE10 
 201      81
 202 03aa 8BB611D8 		.ascii	"\213\266\021\3305\320\203\353\033\351\275x\3345\214"
 202      35D083EB 
 202      1BE9BD78 
 202      DC358C
 203 03b9 3CBE3C84 		.ascii	"<\276<\204\004\261\246\265\005f\207\003\314+f\230\217"
 203      04B1A6B5 
 203      05668703 
 203      CC2B6698 
 203      8F
 204 03ca A3361A3D 		.ascii	"\2436\032=\031\333v\372K\014G\037\245\017\342q\234\250"
 204      19DB76FA 
 204      4B0C471F 
 204      A50FE271 
 204      9CA8
 205 03dc E37A932A 		.ascii	"\343z\223*\234\212\264?\245\262\331\350 \255\217\026"
 205      9C8AB43F 
 205      A5B2D9E8 
 205      20AD8F16 
 206 03ec 0B417165 		.ascii	"\013Aqe0NQ\244\210\313C\336\365\177(\362\032a\337G\344"
 206      304E51A4 
 206      88CB43DE 
 206      F57F28F2 
 206      1A61DF47 
 207 0401 4DC140F4 		.ascii	"M\301@\364C\266\234\277V\2137Q\310\026\012\231\213\247"
 207      43B69CBF 
 207      568B3751 
 207      C8160A99 
 207      8BA7
 208 0413 8E450DB2 		.ascii	"\216E\015\262LL^\236Q~yf\210\\\251\355\325\231\322\224"
 208      4C4C5E9E 
 208      517E7966 
 208      885CA9ED 
 208      D599D294 
 209 0427 889E64EF 		.ascii	"\210\236d\357\307c\221}S\320\251\264\010\022|3\025="
 209      C763917D 
 209      53D0A9B4 
 209      08127C33 
 209      153D
 210 0439 06BA3D0A 		.ascii	"\006\272=\012w\333?\247\360fJ-\240[\347YP'\212OX{Cq"
 210      77DB3FA7 
 210      F0664A2D 
 210      A05BE759 
 210      50278A4F 
 211 0451 4571C281 		.ascii	"Eq\302\2011\334\346Y\260iS\035\233\331\010\276\203Y"
 211      31DCE659 
 211      B069531D 
 211      9BD908BE 
 211      8359
 212 0463 18072C75 		.ascii	"\030\007,u*\004\260\243\210\227 \003C\252U\357\336\357"
 212      2A04B0A3 
 212      88972003 
ARM GAS  /var/folders/c6/c789hm653lg9vtl73krp73tm0000gn/T//ccKhBMj9.s 			page 16


 212      43AA55EF 
 212      DEEF
 213 0475 61B5AAA9 		.ascii	"a\265\252\2512\2215`lw\264\250\251\340a\2732\311L\213"
 213      32913560 
 213      6C77B4A8 
 213      A9E061BB 
 213      32C94C8B 
 214 0489 8AEC7909 		.ascii	"\212\354y\011\276\307\213\210\373\"G\371\224\350'zq"
 214      BEC78B88 
 214      FB2247F9 
 214      94E8277A 
 214      71
 215 049a CCFCEE73 		.ascii	"\314\374\356s\336\327\231E\235\362`\320X\037\377\306"
 215      DED79945 
 215      9DF260D0 
 215      581FFFC6 
 216 04aa 5772E07F 		.ascii	"Wr\340\177\027\310\377^I\017\224\270\366\234\314\257"
 216      17C8FF5E 
 216      490F94B8 
 216      F69CCCAF 
 217 04ba 520CE67F 		.ascii	"R\014\346\177\037\266y\217\311\374=\265\247X\250\204"
 217      1FB6798F 
 217      C9FC3DB5 
 217      A758A884 
 218 04ca B27228BA 		.ascii	"\262r(\272\354\312=\251\353\201A\327\235a\353\362\244"
 218      ECCA3DA9 
 218      EB8141D7 
 218      9D61EBF2 
 218      A4
 219 04db AD8EC830 		.ascii	"\255\216\3100\202\357\362\372\220*\354\271\232?\353"
 219      82EFF2FA 
 219      902AECB9 
 219      9A3FEB
 220 04ea 9487D68A 		.ascii	"\224\207\326\212\226\200\336v@\302\364\257M\005\324"
 220      9680DE76 
 220      40C2F4AF 
 220      4D05D4
 221 04f9 AC729E19 		.ascii	"\254r\236\031\250a\373\011!{6\202\353\025\261\363y\016"
 221      A861FB09 
 221      217B3682 
 221      EB15B1F3 
 221      790E
 222 050b D32406E0 		.ascii	"\323$\006\340p\202\360\221\222JDw^\252c\314\334\024"
 222      7082F091 
 222      924A4477 
 222      5EAA63CC 
 222      DC14
 223 051d 17C4F781 		.ascii	"\027\304\367\201\365\374L\003\261N1\236\237\360#\363"
 223      F5FC4C03 
 223      B14E319E 
 223      9FF023F3 
 224 052d 169C47C9 		.ascii	"\026\234G\311u{\037\015\322&\012'\314\355\022\341\013"
 224      757B1F0D 
 224      D2260A27 
 224      CCED12E1 
 224      0B
 225 053e 3F274F46 		.ascii	"?'OF\233\327\266\030\017\353\333\374\260\3768\313b\314"
ARM GAS  /var/folders/c6/c789hm653lg9vtl73krp73tm0000gn/T//ccKhBMj9.s 			page 17


 225      9BD7B618 
 225      0FEBDBFC 
 225      B0FE38CB 
 225      62CC
 226 0550 7C66306B 		.ascii	"|f0k\033\300\332\024\364IV\013\3155X\235'4\210%\024"
 226      1BC0DA14 
 226      F449560B 
 226      CD35589D 
 226      27348825 
 227 0565 26A39F75 		.ascii	"&\243\237u\233\1779'\316\317\246\002\261\363\244\211"
 227      9B7F3927 
 227      CECFA602 
 227      B1F3A489 
 228 0575 58D2C424 		.ascii	"X\322\304$ib\323\260\243\272\331!\252\211\377\0338\311"
 228      6962D3B0 
 228      A3BAD921 
 228      AA89FF1B 
 228      38C9
 229 0587 35A61262 		.ascii	"5\246\022b\012\332\013>5\315K\231\027\231\310\234\251"
 229      0ADA0B3E 
 229      35CD4B99 
 229      1799C89C 
 229      A9
 230 0598 A7D16D39 		.ascii	"\247\321m9\"\341\223\005\267\310P\246OlS\221\253\222"
 230      22E19305 
 230      B7C850A6 
 230      4F6C5391 
 230      AB92
 231 05aa BB3DC96D 		.ascii	"\273=\311m,U%\012\341o\"\027-\351{\"\303y\320\224Bk"
 231      2C55250A 
 231      E16F2217 
 231      2DE97B22 
 231      C379D094 
 232 05c0 91BA915A 		.ascii	"\221\272\221Z\3614\251fG\251\263\031lmu\224:\227A\352"
 232      F134A966 
 232      47A9B319 
 232      6C6D7594 
 232      3A9741EA 
 233 05d4 3347A9BE 		.ascii	"3G\251\276\014R\333\034\245.g\220jq\224\352\316 \265"
 233      0C52DB1C 
 233      A52E6790 
 233      6A7194EA 
 233      CE20B5
 234 05e7 DD70044C 		.ascii	"\335p\004L\367z}\342/\034\361i\272\2572\024\010\326"
 234      F77A7DE2 
 234      2F1CF169 
 234      BAAF3214 
 234      08D6
 235 05f9 94ABBE40 		.ascii	"\224\253\276@E\225ZU\035\016\007#\336\0124\012\372a"
 235      45955A55 
 235      1D0E0723 
 235      DE0A340A 
 235      FA61
 236 060b 6DA59F7D 		.ascii	"m\245\237}\373\365\021/\277\276\310\263\000\345\363"
 236      FBF5112F 
 236      BFBEC8B3 
 236      00E5F3
ARM GAS  /var/folders/c6/c789hm653lg9vtl73krp73tm0000gn/T//ccKhBMj9.s 			page 18


 237 061a AF0A9594 		.ascii	"\257\012\225\224\253ZNu\205?\244\256\320s\252\252\371"
 237      AB5A4E75 
 237      853FA4AE 
 237      D073AAAA 
 237      F9
 238 062b FB2D5F4D 		.ascii	"\373-_MD\363\005\303\001\022\364-P\203A\242\371\226"
 238      44F305C3 
 238      0112F42D 
 238      508341A2 
 238      F996
 239 063d 0602B388 		.ascii	"\006\002\263\210V5+\024\016\251\263T\262\270\322\367"
 239      56352B14 
 239      0EA9B354 
 239      B2B8D2F7 
 240 064d 6C71C9EC 		.ascii	"lq\311\354\3429\305\317\371\202\225\213\331\264\317"
 240      E239C5CF 
 240      F982958B 
 240      D9B4CF
 241 065c 3C3DDB3B 		.ascii	"<=\333;\307;;\211'\242\227\227\253K\000\313\210H\345"
 241      C73B3B89 
 241      27A29797 
 241      AB4B00CB 
 241      8848E5
 242 066f 7BAA5F2F 		.ascii	"{\252_/\000K\341\305\357\250\001\335\317\006\236\310"
 242      004BE1C5 
 242      EFA801DD 
 242      CF069EC8 
 243 067f E44620AC 		.ascii	"\344F \254\251 \351\206\356RU_R\023\012\370\365|\220"
 243      A920E986 
 243      EE52555F 
 243      52130AF8 
 243      F57C90
 244 0692 AFD6C2EF 		.ascii	"\257\326\302\357V\002\372\311Ia]\215\350L\234\275\205"
 244      5602FAC9 
 244      49615D8D 
 244      E84C9CBD 
 244      85
 245 06a3 F301342A 		.ascii	"\363\0014*T\023\014&y\263\23057\237+\361GT\275\246z"
 245      54130C26 
 245      79B39835 
 245      379F2BF1 
 245      4754BDA6 
 246 06b8 9CFC5057 		.ascii	"\234\374PW\250\201\032]\365V\023M\367\026\027\230G\307"
 246      A8811A5D 
 246      F556134D 
 246      F7161798 
 246      47C7
 247 06ca 042A16C2 		.ascii	"\004*\026\302\300\033\034\361+\241J}\244\030xIS\325"
 247      C01B1CF1 
 247      2BA14A7D 
 247      A4187849 
 247      53D5
 248 06dc 7CD19D1F 		.ascii	"|\321\235\037\204x\025\331B\001\360\331\376\027\200"
 248      847815D9 
 248      4201F0D9 
 248      FE1780
 249 06eb C7ED679F 		.ascii	"\307\355g\237~\022\211\250\232>Z\310\275\032&\345\363"
ARM GAS  /var/folders/c6/c789hm653lg9vtl73krp73tm0000gn/T//ccKhBMj9.s 			page 19


 249      7E1289A8 
 249      9A3E5AC8 
 249      BD1A26E5 
 249      F3
 250 06fc 358DAC74 		.ascii	"5\215\254tUU\227(\313I.c\011\220\210\232\025\250 ZV"
 250      55559728 
 250      CB492E63 
 250      0990889A 
 250      15A8205A 
 251 0711 8854A9D9 		.ascii	"\210T\251\331\034(L\020\255<\274<\224#A\271\253\211"
 251      1C284C10 
 251      AD3CBC3C 
 251      942341B9 
 251      AB89
 252 0723 AEAB5A88 		.ascii	"\256\253Z\210C\035\231\364\271\244\320\253\205\313\211"
 252      431D99F4 
 252      B9A4D0AB 
 252      85CB89
 253 0732 4EBCA9A1 		.ascii	"N\274\251\241I\257\361\014\3600\203\221g<\313j\324\032"
 253      49AFF10C 
 253      F0308391 
 253      673CCB6A 
 253      D41A
 254 0744 D557AEF2 		.ascii	"\325W\256\3627\372\017\337\323f["
 254      37FA0FDF 
 254      D3665B
 255              		.text
 256              		.section	.gnu.lto_.symtab.6e49600ae6294f9,"",%progbits
 257 0000 70617474 		.ascii	"patternpools\000\000\000\000\000\000\000\000\000\000"
 257      65726E70 
 257      6F6F6C73 
 257      00000000 
 257      00000000 
 258 0016 0000F200 		.ascii	"\000\000\362\000\000\000testpools1\000\000\000\000\000"
 258      00007465 
 258      7374706F 
 258      6F6C7331 
 258      00000000 
 259 002b 00000000 		.ascii	"\000\000\000\000\000\000\000\015\001\000\000wa\000\000"
 259      0000000D 
 259      01000077 
 259      610000
 260 003a 02000000 		.ascii	"\002\000\000\000\000\000\000\000\000\000\355\000\000"
 260      00000000 
 260      0000ED00 
 260      00
 261 0047 00636850 		.ascii	"\000chPoolObjectInit\000\000\002\000\000\000\000\000"
 261      6F6F6C4F 
 261      626A6563 
 261      74496E69 
 261      74000002 
 262 0060 00000000 		.ascii	"\000\000\000\000\315\000\000\000chPoolFree\000\000\002"
 262      CD000000 
 262      6368506F 
 262      6F6C4672 
 262      65650000 
 263 0075 00000000 		.ascii	"\000\000\000\000\000\000\000\000\000\323\000\000\000"
ARM GAS  /var/folders/c6/c789hm653lg9vtl73krp73tm0000gn/T//ccKhBMj9.s 			page 20


 263      00000000 
 263      00D30000 
 263      00
 264 0082 6368506F 		.ascii	"chPoolAlloc\000\000\002\000\000\000\000\000\000\000"
 264      6F6C416C 
 264      6C6F6300 
 264      00020000 
 264      00000000 
 265 0097 0000D800 		.ascii	"\000\000\330\000\000\000_test_assert\000\000\002\000"
 265      00005F74 
 265      6573745F 
 265      61737365 
 265      72740000 
 266 00ad 00000000 		.ascii	"\000\000\000\000\000\000\000\000\334\000\000\000chP"
 266      00000000 
 266      DC000000 
 266      636850
 267 00bc 6F6F6C4C 		.ascii	"oolLoadArray\000\000\002\000\000\000\000\000\000\000"
 267      6F616441 
 267      72726179 
 267      00000200 
 267      00000000 
 268 00d2 0000E400 		.ascii	"\000\000\344\000\000\000"
 268      0000
 269              		.text
 270              		.section	.gnu.lto_.opts,"",%progbits
 271 0000 272D6D63 		.ascii	"'-mcpu=cortex-m4' '-mno-thumb-interwork' '-mthumb' "
 271      70753D63 
 271      6F727465 
 271      782D6D34 
 271      2720272D 
 272 0033 272D6767 		.ascii	"'-ggdb' '-O2' '-fomit-frame-pointer' '-falign-funct"
 272      64622720 
 272      272D4F32 
 272      2720272D 
 272      666F6D69 
 273 0066 696F6E73 		.ascii	"ions=16' '-ffunction-sections' '-fdata-sections' '-"
 273      3D313627 
 273      20272D66 
 273      66756E63 
 273      74696F6E 
 274 0099 666E6F2D 		.ascii	"fno-common' '-flto'\000"
 274      636F6D6D 
 274      6F6E2720 
 274      272D666C 
 274      746F2700 
 275              		.text
 276              		.cfi_sections	.debug_frame
 277              		.section	.text.null_provider,"ax",%progbits
 278              		.align	2
 279              		.p2align 4,,15
 280              		.thumb
 281              		.thumb_func
 282              		.type	null_provider, %function
 283              	null_provider:
 284              	.LFB229:
 285              		.file 1 "../../../test/rt/testpools.c"
ARM GAS  /var/folders/c6/c789hm653lg9vtl73krp73tm0000gn/T//ccKhBMj9.s 			page 21


 286              		.loc 1 60 0
 287              		.cfi_startproc
 288              		@ args = 0, pretend = 0, frame = 0
 289              		@ frame_needed = 0, uses_anonymous_args = 0
 290              		@ link register save eliminated.
 291              	.LVL0:
 292              		.loc 1 64 0
 293 0000 0020     		movs	r0, #0
 294              	.LVL1:
 295 0002 7047     		bx	lr
 296              		.cfi_endproc
 297              	.LFE229:
 298              		.size	null_provider, .-null_provider
 299 0004 AFF30080 		.section	.text.pools1_setup,"ax",%progbits
 299      AFF30080 
 299      AFF30080 
 300              		.align	2
 301              		.p2align 4,,15
 302              		.thumb
 303              		.thumb_func
 304              		.type	pools1_setup, %function
 305              	pools1_setup:
 306              	.LFB230:
 307              		.loc 1 66 0
 308              		.cfi_startproc
 309              		@ args = 0, pretend = 0, frame = 0
 310              		@ frame_needed = 0, uses_anonymous_args = 0
 311              		@ link register save eliminated.
 312              		.loc 1 68 0
 313 0000 0248     		ldr	r0, .L3
 314 0002 4FF4B471 		mov	r1, #360
 315 0006 0022     		movs	r2, #0
 316 0008 FFF7FEBF 		b	chPoolObjectInit
 317              	.LVL2:
 318              	.L4:
 319              		.align	2
 320              	.L3:
 321 000c 00000000 		.word	.LANCHOR0
 322              		.cfi_endproc
 323              	.LFE230:
 324              		.size	pools1_setup, .-pools1_setup
 325              		.section	.text.pools1_execute,"ax",%progbits
 326              		.align	2
 327              		.p2align 4,,15
 328              		.thumb
 329              		.thumb_func
 330              		.type	pools1_execute, %function
 331              	pools1_execute:
 332              	.LFB231:
 333              		.loc 1 71 0
 334              		.cfi_startproc
 335              		@ args = 0, pretend = 0, frame = 0
 336              		@ frame_needed = 0, uses_anonymous_args = 0
 337 0000 38B5     		push	{r3, r4, r5, lr}
 338              		.cfi_def_cfa_offset 16
 339              		.cfi_offset 3, -16
 340              		.cfi_offset 4, -12
ARM GAS  /var/folders/c6/c789hm653lg9vtl73krp73tm0000gn/T//ccKhBMj9.s 			page 22


 341              		.cfi_offset 5, -8
 342              		.cfi_offset 14, -4
 343              		.loc 1 75 0
 344 0002 2C4B     		ldr	r3, .L18
 345 0004 2C48     		ldr	r0, .L18+4
 346 0006 1D68     		ldr	r5, [r3]
 347 0008 0522     		movs	r2, #5
 348 000a 2946     		mov	r1, r5
 349 000c FFF7FEFF 		bl	chPoolLoadArray
 350              	.LVL3:
 351 0010 0524     		movs	r4, #5
 352              	.LVL4:
 353              	.L9:
 354              		.loc 1 79 0
 355 0012 2948     		ldr	r0, .L18+4
 356 0014 FFF7FEFF 		bl	chPoolAlloc
 357              	.LVL5:
 358 0018 011C     		adds	r1, r0, #0
 359 001a 18BF     		it	ne
 360 001c 0121     		movne	r1, #1
 361 001e 0120     		movs	r0, #1
 362 0020 FFF7FEFF 		bl	_test_assert
 363              	.LVL6:
 364 0024 A0BB     		cbnz	r0, .L5
 365              		.loc 1 78 0
 366 0026 013C     		subs	r4, r4, #1
 367              	.LVL7:
 368 0028 F3D1     		bne	.L9
 369              		.loc 1 82 0
 370 002a 2348     		ldr	r0, .L18+4
 371 002c FFF7FEFF 		bl	chPoolAlloc
 372              	.LVL8:
 373 0030 D0F10101 		rsbs	r1, r0, #1
 374 0034 38BF     		it	cc
 375 0036 0021     		movcc	r1, #0
 376 0038 0220     		movs	r0, #2
 377 003a FFF7FEFF 		bl	_test_assert
 378              	.LVL9:
 379 003e 38BB     		cbnz	r0, .L5
 380 0040 1C4C     		ldr	r4, .L18
 381              	.LVL10:
 382              	.LBB4:
 383              	.LBB5:
 384              		.loc 1 86 0
 385 0042 1D48     		ldr	r0, .L18+4
 386              	.LBE5:
 387              	.LBE4:
 388              		.loc 1 82 0
 389 0044 2946     		mov	r1, r5
 390 0046 04F11005 		add	r5, r4, #16
 391              	.LBB8:
 392              	.LBB6:
 393              		.loc 1 86 0
 394 004a FFF7FEFF 		bl	chPoolFree
 395              	.LVL11:
 396              		.loc 1 85 0
 397 004e AC42     		cmp	r4, r5
ARM GAS  /var/folders/c6/c789hm653lg9vtl73krp73tm0000gn/T//ccKhBMj9.s 			page 23


 398 0050 06D0     		beq	.L11
 399              	.L16:
 400 0052 54F8041F 		ldr	r1, [r4, #4]!
 401              		.loc 1 86 0
 402 0056 1848     		ldr	r0, .L18+4
 403 0058 FFF7FEFF 		bl	chPoolFree
 404              	.LVL12:
 405              		.loc 1 85 0
 406 005c AC42     		cmp	r4, r5
 407 005e F8D1     		bne	.L16
 408              	.L11:
 409 0060 0524     		movs	r4, #5
 410              	.L14:
 411              	.LVL13:
 412              		.loc 1 90 0
 413 0062 1548     		ldr	r0, .L18+4
 414 0064 FFF7FEFF 		bl	chPoolAlloc
 415              	.LVL14:
 416 0068 011C     		adds	r1, r0, #0
 417 006a 18BF     		it	ne
 418 006c 0121     		movne	r1, #1
 419 006e 0320     		movs	r0, #3
 420 0070 FFF7FEFF 		bl	_test_assert
 421              	.LVL15:
 422 0074 60B9     		cbnz	r0, .L5
 423              		.loc 1 89 0
 424 0076 013C     		subs	r4, r4, #1
 425              	.LVL16:
 426 0078 F3D1     		bne	.L14
 427              		.loc 1 93 0
 428 007a 0F48     		ldr	r0, .L18+4
 429 007c FFF7FEFF 		bl	chPoolAlloc
 430              	.LVL17:
 431 0080 D0F10101 		rsbs	r1, r0, #1
 432 0084 38BF     		it	cc
 433 0086 0021     		movcc	r1, #0
 434 0088 0420     		movs	r0, #4
 435 008a FFF7FEFF 		bl	_test_assert
 436              	.LVL18:
 437 008e 00B1     		cbz	r0, .L17
 438              	.LVL19:
 439              	.L5:
 440 0090 38BD     		pop	{r3, r4, r5, pc}
 441              	.LVL20:
 442              	.L17:
 443              		.loc 1 96 0
 444 0092 1021     		movs	r1, #16
 445 0094 0848     		ldr	r0, .L18+4
 446 0096 094A     		ldr	r2, .L18+8
 447 0098 FFF7FEFF 		bl	chPoolObjectInit
 448              	.LVL21:
 449              		.loc 1 97 0
 450 009c 0648     		ldr	r0, .L18+4
 451 009e FFF7FEFF 		bl	chPoolAlloc
 452              	.LVL22:
 453 00a2 D0F10101 		rsbs	r1, r0, #1
 454 00a6 38BF     		it	cc
ARM GAS  /var/folders/c6/c789hm653lg9vtl73krp73tm0000gn/T//ccKhBMj9.s 			page 24


 455 00a8 0021     		movcc	r1, #0
 456 00aa 0520     		movs	r0, #5
 457              	.LBE6:
 458              	.LBE8:
 459              		.loc 1 98 0
 460 00ac BDE83840 		pop	{r3, r4, r5, lr}
 461              	.LVL23:
 462              	.LBB9:
 463              	.LBB7:
 464              		.loc 1 97 0
 465 00b0 FFF7FEBF 		b	_test_assert
 466              	.LVL24:
 467              	.L19:
 468              		.align	2
 469              	.L18:
 470 00b4 00000000 		.word	wa
 471 00b8 00000000 		.word	.LANCHOR0
 472 00bc 00000000 		.word	null_provider
 473              	.LBE7:
 474              	.LBE9:
 475              		.cfi_endproc
 476              	.LFE231:
 477              		.size	pools1_execute, .-pools1_execute
 478              		.global	patternpools
 479              		.global	testpools1
 480              		.section	.rodata.str1.4,"aMS",%progbits,1
 481              		.align	2
 482              	.LC0:
 483 0000 4D656D6F 		.ascii	"Memory Pools, queue/dequeue\000"
 483      72792050 
 483      6F6F6C73 
 483      2C207175 
 483      6575652F 
 484              		.section	.rodata.patternpools,"a",%progbits
 485              		.align	2
 486              		.type	patternpools, %object
 487              		.size	patternpools, 8
 488              	patternpools:
 489 0000 00000000 		.word	testpools1
 490 0004 00000000 		.word	0
 491              		.section	.data.mp1,"aw",%progbits
 492              		.align	2
 493              		.set	.LANCHOR0,. + 0
 494              		.type	mp1, %object
 495              		.size	mp1, 12
 496              	mp1:
 497 0000 00000000 		.word	0
 498 0004 68010000 		.word	360
 499 0008 00000000 		.word	0
 500              		.section	.rodata.testpools1,"a",%progbits
 501              		.align	2
 502              		.type	testpools1, %object
 503              		.size	testpools1, 16
 504              	testpools1:
 505 0000 00000000 		.word	.LC0
 506 0004 00000000 		.word	pools1_setup
 507 0008 00000000 		.word	0
ARM GAS  /var/folders/c6/c789hm653lg9vtl73krp73tm0000gn/T//ccKhBMj9.s 			page 25


 508 000c 00000000 		.word	pools1_execute
 509              		.text
 510              	.Letext0:
 511              		.file 2 "/usr/local/Cellar/gcc-arm-none-eabi/20140805/lib/gcc/arm-none-eabi/4.8.4/include/stddef.h
 512              		.file 3 "/usr/local/Cellar/gcc-arm-none-eabi/20140805/arm-none-eabi/include/machine/_default_types
 513              		.file 4 "/usr/local/Cellar/gcc-arm-none-eabi/20140805/arm-none-eabi/include/stdint.h"
 514              		.file 5 "../../../os/rt/ports/ARMCMx/compilers/GCC/chtypes.h"
 515              		.file 6 "../../../os/rt/include/chsystypes.h"
 516              		.file 7 "../../../os/rt/include/chschd.h"
 517              		.file 8 "../../../os/rt/ports/ARMCMx/chcore.h"
 518              		.file 9 "../../../os/rt/ports/ARMCMx/chcore_v7m.h"
 519              		.file 10 "../../../os/rt/include/chdebug.h"
 520              		.file 11 "../../../os/rt/include/chtm.h"
 521              		.file 12 "../../../os/rt/include/chstats.h"
 522              		.file 13 "../../../os/rt/include/chsem.h"
 523              		.file 14 "../../../os/rt/include/chmtx.h"
 524              		.file 15 "../../../os/rt/include/chmemcore.h"
 525              		.file 16 "../../../os/rt/include/chmempools.h"
 526              		.file 17 "../../../test/rt/test.h"
 527              		.file 18 "../../../os/ext/CMSIS/include/core_cm4.h"