ARM GAS  /var/folders/c6/c789hm653lg9vtl73krp73tm0000gn/T//ccOdjWuU.s 			page 1


   1              		.syntax unified
   2              		.cpu cortex-m4
   3              		.fpu softvfp
   4              		.eabi_attribute 20, 1
   5              		.eabi_attribute 21, 1
   6              		.eabi_attribute 23, 3
   7              		.eabi_attribute 24, 1
   8              		.eabi_attribute 25, 1
   9              		.eabi_attribute 26, 1
  10              		.eabi_attribute 30, 2
  11              		.eabi_attribute 34, 1
  12              		.eabi_attribute 18, 4
  13              		.thumb
  14              		.file	"testmbox.c"
  15              		.text
  16              	.Ltext0:
  17              		.section	.gnu.lto_.jmpfuncs.8c9fbc276003b95a,"",%progbits
  18 0000 789C9592 		.ascii	"x\234\225\222Ib\3020\014E%\207$\014m\241\023\235\351"
  18      4962C230 
  18      0C452587 
  18      240C6DA1 
  18      139DE9
  19 0013 3CD2E10A 		.ascii	"<\322\341\012\015\220;\260f\227EN\320\215\227=\002\233"
  19      0D903BB0 
  19      6697454E 
  19      D08D973D 
  19      029B
  20 0025 5EA047EC 		.ascii	"^\240G\354\246M\210Q\204\035\\\307\233H\366\323\227"
  20      A64D8851 
  20      841D5CC7 
  20      9B48F6D3 
  20      97
  21 0036 F5630102 		.ascii	"\365c\001\002\252V?\000\010\263\257\007\200\342\003"
  21      AA563F00 
  21      08B3AF07 
  21      80E203
  22 0045 7EE45CF6 		.ascii	"~\344\\\366\022\204\024\325y\266\017BL1A|[\326\250\374"
  22      128414D5 
  22      79B60F42 
  22      4C31417C 
  22      5BD6A8FC 
  23 0059 55CB5F4A 		.ascii	"U\313_JU\265\363\274\314\013\351\317\\Z\244\210\014"
  23      55B5F3BC 
  23      CC0BE9CF 
  23      5C5AA488 
  23      0C
  24 006a 19AE143C 		.ascii	"\031\256\024<\031\022\217Z\376\220EtMo\000\370%\347"
  24      19128F5A 
  24      FE904574 
  24      4D6F00F8 
  24      25E7
  25 007c EF09368A 		.ascii	"\357\0116\2126\204\335\253\032\243-\223\272c\361\355"
  25      3684DDAB 
  25      1AA32D93 
  25      BA63F1ED 
  26 008c 3A7E71EC 		.ascii	":~q\354G\004\336X\271\021q\327VnL\334\225\225\233\020"
  26      4704DE58 
ARM GAS  /var/folders/c6/c789hm653lg9vtl73krp73tm0000gn/T//ccOdjWuU.s 			page 2


  26      B91171D7 
  26      566E4CDC 
  26      95959B10 
  27 00a0 7769E562 		.ascii	"wi\345b6\312\305\312\220\347\206\243\003-?ss\364\324"
  27      36CAC5CA 
  27      90E786A3 
  27      032D3F73 
  27      73F4D4
  28 00b3 C1D11316 		.ascii	"\301\321\023\026\037\333\035\215\011<rt\340\320\321"
  28      1FDB1D8D 
  28      093C7274 
  28      E0D0D1
  29 00c2 D103C73F 		.ascii	"\321\003\307?\324\377\357\217\263a\366\265A\367\014"
  29      D4FFEF8F 
  29      B361F6B5 
  29      41F70C
  30 00d1 5777B57C 		.ascii	"Ww\265|\307\301\256\355<\366\252\220\305yP\232\337c"
  30      C7C1AEED 
  30      3CF6AA90 
  30      C579509A 
  30      DF63
  31 00e3 555D166F 		.ascii	"U]\026o\331\025\302\337lu\211\336\254Eo\270\275\213"
  31      D915C2DF 
  31      6C7589DE 
  31      AC456FB8 
  31      BD8B
  32 00f5 8E9B28F1 		.ascii	"\216\233(\361m\315\204\226aeS\313C\373K\23224Xs\031"
  32      6DCD8496 
  32      616553CB 
  32      43FB4B9A 
  32      32345873 
  33 010a 2275637D 		.ascii	"\"uc}w\355F]m\317Z\020U\273.j\332Io\312\257lE;\315!"
  33      77ED465D 
  33      6DCF5A10 
  33      55BB2E6A 
  33      DA496FCA 
  34 0124 7C4B9947 		.ascii	"|K\231G-\212\332)\212\231\022\230\225JE\247NnM\020\215"
  34      2D8ADA29 
  34      8A991298 
  34      954A45A7 
  34      4E6E4D10 
  35 0139 C69318FE 		.ascii	"\306\223\030\376\000\333U\330\313"
  35      00DB55D8 
  35      CB
  36              		.text
  37              		.section	.gnu.lto_.inline.8c9fbc276003b95a,"",%progbits
  38 0000 789C6362 		.ascii	"x\234cb`b\300\006\246\262@hf\006\006\001%F\006&\241"
  38      6062C006 
  38      A6B24068 
  38      66060601 
  38      25460626 
  39 0015 2B2D8C0C 		.ascii	"+-\214\014l\013\344\301\252\231\270\031\030\030\031"
  39      6C0BE4C1 
  39      AA99B819 
  39      181819
  40 0024 18B9804C 		.ascii	"\030\271\200L0\301\314\362\210e2#P\325\002\346g\353"
  40      30C1CCF2 
ARM GAS  /var/folders/c6/c789hm653lg9vtl73krp73tm0000gn/T//ccOdjWuU.s 			page 3


  40      88653223 
  40      50D502E6 
  40      67EB
  41 0036 99E0CA10 		.ascii	"\231\340\312\020\012Xx\201\232\030&\370!D(\227#N\025"
  41      0A587881 
  41      9A1826F8 
  41      21442897 
  41      234E15
  42 0049 C4A9982A 		.ascii	"\304\251\230*(7\031\"\007\264\000\030\022\023\374Xx"
  42      28371922 
  42      07B40018 
  42      1213FC58 
  42      78
  43 005a 19A12A19 		.ascii	"\031\241*\031AR \016\003\230\015\025\200\230\203b\036"
  43      4152200E 
  43      03980D15 
  43      80988362 
  43      1E
  44 006b D4005439 		.ascii	"\324\000T9\322\270\370\\:\334|H\257\024\203\315\007"
  44      D2B8F85C 
  44      3ADC7C48 
  44      AF1483CD 
  44      07
  45 007c 98B2AC7C 		.ascii	"\230\262\254|\340\274\201\341o\\\362\020\376\004?\034"
  45      E0BC81E1 
  45      6F5CF210 
  45      FE043F1C 
  46 008c 81CACAC7 		.ascii	"\201\312\312\307\010V>\270=I\232j\004\037\331\217\300"
  46      08563EB8 
  46      3D499A6A 
  46      041FD98F 
  46      C0
  47 009d 2020CE89 		.ascii	"  \316\211\254\014\354\374\340D\006/O@\252A\0062\000"
  47      AC0CECFC 
  47      E044062F 
  47      4F40AA41 
  47      063200
  48 00b0 0034DB3D 		.ascii	"\0004\333=("
  48      28
  49              		.text
  50              		.section	.gnu.lto_.pureconst.8c9fbc276003b95a,"",%progbits
  51 0000 789C6362 		.ascii	"x\234cb`b`g\200\000f\006+f+V\011\000\002\327\000\243"
  51      60626067 
  51      80006606 
  51      2B662B56 
  51      090002D7 
  52              		.text
  53              		.section	.gnu.lto_chSysUnlock.8c9fbc276003b95a,"",%progbits
  54 0000 789C9553 		.ascii	"x\234\225SMh\023A\024~ov'\273\266i\033=\211B\015\005"
  54      4D681341 
  54      147E6F76 
  54      27BBB669 
  54      1B3D8942 
  55 0016 0FDA90F5 		.ascii	"\017\332\220\365\346U-\010\212\2714-\250\027I\327\305"
  55      E6552D08 
  55      8AB9342D 
  55      A81749D7 
ARM GAS  /var/folders/c6/c789hm653lg9vtl73krp73tm0000gn/T//ccOdjWuU.s 			page 4


  55      C5
  56 0027 2E749BB2 		.ascii	".t\233\262IJ\213\207Nb\016\202\036\202\"jT\260'A\301"
  56      494A8B87 
  56      4E620E82 
  56      1E82226A 
  56      54B02741 
  57 003c 82070FE2 		.ascii	"\202\007\017\342!\240HE\255x\021\355Ar\351A\355\305"
  57      21A04845 
  57      AD7811ED 
  57      4172E941 
  57      EDC5
  58 004e 43FD4388 		.ascii	"C\375C\210o\366'\177\346\342\220\2747\273\363}\337|"
  58      6FF6277F 
  58      E6E290BC 
  58      37BBF37D 
  58      DF7C
  59 0060 6FE62D03 		.ascii	"o\346-\003\006\335\343\010\375\217+\000U\312\030\001"
  59      06DDE308 
  59      FD8F2B00 
  59      55CA1801 
  60 0070 64953580 		.ascii	"d\2255\200\242\316\230R}\001 \372\370w\015DTa\352\223"
  60      A2CE9852 
  60      7D0120FA 
  60      F8770D44 
  60      5461EA93 
  61 0084 61F9F4DE 		.ascii	"a\371\364\336\240'\025\271\217\342\210r\002\010KLQ9"
  61      A02715B9 
  61      8FE28872 
  61      02084B4C 
  61      5139
  62 0096 2E9D42A9 		.ascii	".\235B\251\211\016\302\012\253\325\033\215\207\267\257"
  62      890EC20A 
  62      ABD51B8D 
  62      87B7AF
  63 00a5 DF7B8D9F 		.ascii	"\337{\215\237X\224\203\215\020\221A\243\200\272\014"
  63      5894838D 
  63      109141A3 
  63      80BA0C
  64 00b4 84E45016 		.ascii	"\204\344P\026\242\022w\344\334\364\270\023\024\245\346"
  64      A21277E4 
  64      DCF4B813 
  64      14A5E6
  65 00c3 24329995 		.ascii	"$2\231\225\267p\241\376\341R\177\006\227\221\323\362"
  65      B770A1FE 
  65      E1527F06 
  65      9791D3F2 
  66 00d3 79F82D2E 		.ascii	"y\370-.\212\230\215\314\364\004\200\204\310\275D}\374"
  66      8A988DCC 
  66      F4048084 
  66      C8BD447D 
  66      FC
  67 00e4 3AD40BC5 		.ascii	":\324\013\305Z\2507PZ\377\371c\227\217:\207|\024\366"
  67      5AA83750 
  67      5AFFF963 
  67      978F3A87 
  67      7C14F6
  68 00f7 93212FAA 		.ascii	"\223!/\252^\344\267\240Z\024\222\030iJh\216\267\321"
ARM GAS  /var/folders/c6/c789hm653lg9vtl73krp73tm0000gn/T//ccOdjWuU.s 			page 5


  68      5EE4B7A0 
  68      5A149218 
  68      694A688E 
  68      B7D1
  69 0109 49A4A927 		.ascii	"I\244\251'5\345\357K\031\203\034\236\352*\2247\261\251"
  69      35E5EF4B 
  69      19831C9E 
  69      EA2A9437 
  69      B1A9
  70 011b 2E15741B 		.ascii	".\025t\033\365v}\322\352\246w\214I\262I\347\256\220"
  70      F5767DD2 
  70      EAA6778C 
  70      49B249E7 
  70      AE90
  71 012d D3D3A150 		.ascii	"\323\323\241P\244\315\346\177\032T\002\331v9\315\023"
  71      A4CDE67F 
  71      1A5402D9 
  71      7639CD13 
  72 013d DA464244 		.ascii	"\332FBD\350#yI\014\011j\017\202\336E\340\275\010\253"
  72      E8237949 
  72      0C096A0F 
  72      82DE45E0 
  72      BD08AB
  73 0150 F07CA359 		.ascii	"\360|\243Y\272F\244\366\232TX\331M\027\251\376s=\375"
  73      BA46A4F6 
  73      9A5458D9 
  73      4D17A9FE 
  73      733DFD
  74 0163 666051BE 		.ascii	"f`Q\276\331ic\224\032!\000\3318\020\322\271\327\010"
  74      D9696394 
  74      1A2100D9 
  74      3810D2B9 
  74      D708
  75 0175 2FA144A2 		.ascii	"/\241D\242#\260,\304\225\372\265\317O\0237E\255|W\374"
  75      23B02CC4 
  75      95FAB5CF 
  75      4F133745 
  75      AD7C57FC 
  76 0189 693490FC 		.ascii	"i4\220\374\01428\201\262\205\244\271\241\270\227b*t"
  76      0C323881 
  76      B285A4B9 
  76      A1B89762 
  76      2A74
  77 019b 0CF96E50 		.ascii	"\014\371nPN\326\240\364\355\376\263G\227\225\240\375"
  77      4ED6A0F4 
  77      EDFEB347 
  77      9795A0FD 
  78 01ab C23EAC3D 		.ascii	"\302>\254=\370\362+\3062\370\030G\232\275Y{\265\265"
  78      F8F22BC6 
  78      32F81847 
  78      9ABD597B 
  78      B5B5
  79 01bd 411E7D57 		.ascii	"A\036}W&\225bz%P\313S\323+\362\203R\374\257j\030*xG"
  79      2695627A 
  79      2550CB53 
  79      D32BF283 
  79      52FCAF6A 
ARM GAS  /var/folders/c6/c789hm653lg9vtl73krp73tm0000gn/T//ccOdjWuU.s 			page 6


  80 01d5 DC3864E3 		.ascii	"\3348d\343\366\216\315Z\353W\203\365\035\276\235wP\254"
  80      F68ECD5A 
  80      EB5783F5 
  80      1DBE9D77 
  80      50AC
  81 01e7 6F8E8667 		.ascii	"o\216\206g\342\217\011\272J*V\022\366$\223\206\377\313"
  81      E28F09BA 
  81      4A2A5612 
  81      F6249386 
  81      FFCB
  82 01f9 E60C376F 		.ascii	"\346\0147o\330\263\346L\341\254e\230\323\271\305\\r"
  82      D8B3E64C 
  82      E1AC6598 
  82      D3B9C55C 
  82      72
  83 020a 1AF675AD 		.ascii	"\032\366u\255\317e\335|\3168<\236\032K-\020\310\314"
  83      CF65DD7C 
  83      CE383C9E 
  83      1A4B2D10 
  83      C8CC
  84 021c BAD699F9 		.ascii	"\272\326\231\371\203\016!\371|f\246`%\332\361\326B\336"
  84      830E21F9 
  84      7C66A660 
  84      25DAF1D6 
  84      42DE
  85 022e 184BA58F 		.ascii	"\030K\245\217\245[\262\022o:G\013\263&Qb\251\364x|*"
  85      A55BB212 
  85      6F3A470B 
  85      B3265162 
  85      A9F4787C 
  86 0243 93B3E65C 		.ascii	"\223\263\346\\;\021\337{\000\230\013\232c9Yw\021\376"
  86      3B11DF7B 
  86      00980B9A 
  86      63395977 
  86      11FE
  87 0255 022699DD 		.ascii	"\002&\231\335U"
  87      55
  88              		.text
  89              		.section	.gnu.lto_mbox1_execute.8c9fbc276003b95a,"",%progbits
  90 0000 789CCD5C 		.ascii	"x\234\315\\\011p\024\307\325\356\236\331\221\2048$\020"
  90      097014C7 
  90      D5EE9ED9 
  90      91843824 
  90      10
  91 0011 37020921 		.ascii	"7\002\011!N\201$.c\016\203\001_\204\020\247\300v\300"
  91      4E81242E 
  91      630E8301 
  91      5F8410A7 
  91      C076C0
  92 0024 B18B2C8B 		.ascii	"\261\213,\213\"\3261\207\021\246\210S)\326:\270\017"
  92      22D63187 
  92      11A68853 
  92      29D63AB8 
  92      0F
  93 0035 C5C60402 		.ascii	"\305\306\004\002\2629L0(\030\012\314)\221\210\303\200"
  93      B2394C30 
  93      28180ACC 
ARM GAS  /var/folders/c6/c789hm653lg9vtl73krp73tm0000gn/T//ccOdjWuU.s 			page 7


  93      299188C3 
  93      80
  94 0046 10978DB9 		.ascii	"\020\227\215\271\014\030\205\303\202\037\003\302\024"
  94      0C1885C3 
  94      821F03C2 
  94      14
  95 0053 10C0467F 		.ascii	"\020\300F\177\367\233\236Y\315\316\033\355\254%m\241"
  95      F79B9E59 
  95      CDCE1BED 
  95      AC256DA1 
  96 0063 72BDDD7E 		.ascii	"r\275\335~\375^O\177o\336\327\323\375f\261D$\342\373"
  96      FD5E4F7F 
  96      6FDED7D3 
  96      FD66B144 
  96      24E2FB
  97 0076 D7D54148 		.ascii	"\327\325AH\203?\020\322\214\022B_&T\312>B\310\373a\222"
  97      833F10D2 
  97      8C12425F 
  97      2654CA3E 
  97      42C8FB61 
  98 008b 24CF684B 		.ascii	"$\317hK<\341\016.k\311t\210\252v\320P\365\213\"\015"
  98      3CE10E2E 
  98      6BC97488 
  98      AA76D050 
  98      F58B220D 
  99 009f D92DB3FE 		.ascii	"\331-\263\376\220#\007\0113\010Q\365\273\302B%\245\240"
  99      90230709 
  99      330851F5 
  99      BBC24225 
  99      A5A0
 100 00b1 2FD3871D 		.ascii	"/\323\207\035\213`\3520iH~\017\326\252\361MC\326\252"
 100      8B60EA30 
 100      69487E0F 
 100      D6AAF14D 
 100      43D6AA
 101 00c4 215AE1D0 		.ascii	"!Z\341\320\012\027\255\232\320\252)Z\265\240UK\264j"
 101      0A17AD9A 
 101      D0AA295A 
 101      B5A0554B 
 101      B46A
 102 00d6 43ABB654 		.ascii	"C\253\266T\007\346\022\001s\251\243\315%B\212\004u]"
 102      07E61201 
 102      73A9A3CD 
 102      25428A04 
 102      755D
 103 00e8 50476AEA 		.ascii	"PGj\352\272R=PG\201\272\236\246\216\242\015\325/\365"
 103      BA523D50 
 103      4781BA9E 
 103      A68EA20D 
 103      D52FF5
 104 00fb C5CC1BA8 		.ascii	"\305\314\033\2503o\240\352w\2055\224\352\317\335\305"
 104      336FA0EA 
 104      77853594 
 104      EACFDDC5 
 105 010b 34E18D32 		.ascii	"4\341\2152j3}#1\205\3060\205\306\242\325\004ZMD\253"
 105      6A337D23 
 105      3185C630 
ARM GAS  /var/folders/c6/c789hm653lg9vtl73krp73tm0000gn/T//ccOdjWuU.s 			page 8


 105      85C6A2D5 
 105      045A4D44 
 106 0120 29B49A8A 		.ascii	")\264\232\212V3h5\023\255hhE\213Vsh5\027\255\026\320"
 106      56336835 
 106      13AD6868 
 106      458B5673 
 106      683517AD 
 107 0136 6A21C5C0 		.ascii	"j!\305\300Dca\2421\332Dc\245\226\240\216\003uKM\035"
 107      446361A2 
 107      31DA4463 
 107      A596A08E 
 107      03754B4D 
 108 014b 27B50275 		.ascii	"'\265\002u<\250[i\352x1dk\030\262\265h\265\201V\033"
 108      3CA85B69 
 108      EA783164 
 108      6B18B2B5 
 108      68B58156 
 109 0160 D16A0BAD 		.ascii	"\321j\013\255\266\242\325\016Z\355D\253=\264\332KC`"
 109      B6A2D50E 
 109      5AED44AB 
 109      3DB4DA4B 
 109      4360
 110 0172 F00E3078 		.ascii	"\360\0160x\007\332\211\017N\023D\244:\252\221\352\250"
 110      07DA890F 
 110      4E1344A4 
 110      3AAA91EA 
 110      A8
 111 0183 AA778575 		.ascii	"\252w\205u\222\022\324H%B\244\022\305PI0T\222\224\014"
 111      9212D448 
 111      2542A412 
 111      C5504930 
 111      5492940C 
 112 0197 437586A1 		.ascii	"Cu\206\241\222\265yv\226\272\200\272+\250\273h\352\256"
 112      92B57976 
 112      96BA80BA 
 112      2BA8BB68 
 112      EAAE
 113 01a9 C2B71BF8 		.ascii	"\302\267\033\370v\023\255\356\320\352.ZOA\353)\321\352"
 113      7613ADEE 
 113      D0EA2E5A 
 113      4F41EB29 
 113      D1EA
 114 01bb 01AD1EA2 		.ascii	"\001\255\036\242\3654\264\236\026\255\236\320\352)\300"
 114      F534B49E 
 114      16AD9ED0 
 114      EA29C0
 115 01ca F4824BF5 		.ascii	"\364\202K\365\242\317\000\230\336\002L\037\025L\037"
 115      A2CF0098 
 115      DE024C1F 
 115      154C1F
 116 01d9 55BD2BEC 		.ascii	"U\275+\354\031\251\267\012\246/\200\351+\206\352\007"
 116      19A9B70A 
 116      A62F80E9 
 116      2B86EA07 
 117 01e9 43F5939E 		.ascii	"C\365\223\236\205\241\372\303P\005D\233\366.\"\015\200"
 117      85A1FAC3 
 117      5005449B 
ARM GAS  /var/folders/c6/c789hm653lg9vtl73krp73tm0000gn/T//ccOdjWuU.s 			page 9


 117      F62E220D 
 117      80
 118 01fa 8E81D0B1 		.ascii	"\216\201\320\261[\357\330C\204\377s\340\277\227H\317"
 118      5BEFD843 
 118      84FF73E0 
 118      BF9748CF 
 119 020a 83DD0B60 		.ascii	"\203\335\013`\367\245n\267\217H/B\307K\320\261_\357"
 119      F7A56EB7 
 119      8F482F42 
 119      C74BD0B1 
 119      5FEF
 120 021c 3840A441 		.ascii	"8@\244A\320\361+\350(\324;\016\022i\3607I\254\343\327"
 120      D0F12BE8 
 120      28D43B0E 
 120      1269F037 
 120      49ACE3D7 
 121 0230 F92D5847 		.ascii	"\371-XG\221\336q\210\320\337\250\337\016\353\337\216"
 121      91DE7188 
 121      D0DFA8DF 
 121      0EEBDF8E 
 122 0240 104AF937 		.ascii	"\020J\3717B\311TIv(!\241a5\302k\326\252]'\"\262n\275"
 122      42C95449 
 122      762821A1 
 122      6135C26B 
 122      D6AA5D27 
 123 0258 A8FA0D1A 		.ascii	"\250\372\015\0326j\334\244i\263\350\346-bb[\306\265"
 123      366ADCA4 
 123      69B3E8E6 
 123      2D62625B 
 123      C6B5
 124 026a 8A6FDDA6 		.ascii	"\212o\335\246m\273\366\035\022:vJLJ\356\334\245k\267"
 124      6DBBF61D 
 124      123A764A 
 124      4C4AEEDC 
 124      A56BB7
 125 027d EE4FF578 		.ascii	"\356O\365x\272g\257\336}\236\351\333\257\200\354\"\273"
 125      BA67AFDE 
 125      7D9EE9DB 
 125      AF80EC22 
 125      BB
 126 028e C91EB297 		.ascii	"\311\036\262\227|I\366\221\375\344\000)$\007I\0219D"
 126      7C49F691 
 126      FDE40029 
 126      24074911 
 126      3944
 127 02a0 0E137695 		.ascii	"\016\023v\225\251#(_D\034qd\271\307\223]\234UV,-^P\220"
 127      A923285F 
 127      441C7164 
 127      B9C7935D 
 127      9C55562C 
 128 02b8 B9CCF353 		.ascii	"\271\314\363SY\031\245n\312\026\234\030J\\\224\014g"
 128      5919A56E 
 128      CA169C18 
 128      4A5C940C 
 128      67
 129 02c9 0D1A0B1F 		.ascii	"\015\032\013\037\222\303\270\002\251\276\005y\373\346"
 129      92C3B802 
ARM GAS  /var/folders/c6/c789hm653lg9vtl73krp73tm0000gn/T//ccOdjWuU.s 			page 10


 129      A9BE0579 
 129      FBE6
 130 02d7 34F12C4B 		.ascii	"4\361,K\317\366<f\256n*K\244\215\035\317\202l\317\177"
 130      CFF63C66 
 130      AE6E2A4B 
 130      A48D1DCF 
 130      826CCF7F 
 131 02eb 461FF064 		.ascii	"F\037\360d\026\224\225\365\003\257\004[\327\373\240"
 131      169495F5 
 131      03AF045B 
 131      D7FBA0
 132 02fa 60E7B479 		.ascii	"`\347\264y\345\257\347\220H\262?\317\365RAqY\331\241"
 132      E5AFE790 
 132      48B23FCF 
 132      F5524171 
 132      59D9A1
 133 030d 4D9F5ECC 		.ascii	"M\237^\314\247Q\177\227)q\322\3254\216aT?e\361\351\020"
 133      A7517F97 
 133      2971D2D5 
 133      348E6154 
 133      3F65F1E9 
 134 0322 9F75889B 		.ascii	"\237u\210\233*\221\\D1\341\250\317\004i\310\372V\262"
 134      2A915C44 
 134      31E1A8CF 
 134      0469C8FA 
 134      56B2
 135 0334 BE465CDD 		.ascii	"\276F\\\335\204\213\246\302:Z\3644\347\312\030.Z\012"
 135      848BA6C2 
 135      3A5AF434 
 135      E7CA182E 
 135      5A0A
 136 0346 4D1C6FC4 		.ascii	"M\034o\304s\321Vh\332\363F\002\027\235\204&\2217\222"
 136      73D15668 
 136      DAF34602 
 136      179D8426 
 136      913792
 137 0359 B9E82A34 		.ascii	"\271\350*4\335y\243\007\027\275\270\350\303E\177.\006"
 137      DD79A307 
 137      17BDB8E8 
 137      C3457F2E 
 137      06
 138 036a 72F12213 		.ascii	"r\361\"\023!/q1\2107\007s\361\262\360\374-o\014\345"
 138      212F7131 
 138      88370773 
 138      F1B2F0FC 
 138      2D6F0CE5 
 139 037e 6218D32C 		.ascii	"b\030\323,g\232WX#\36451\321\341\274g\004G\364:G\364"
 139      679A5758 
 139      23F43531 
 139      D1E1BC67 
 139      0447F43A 
 140 0394 86F07A93 		.ascii	"\206\360z\223\253Gr\341\024\232Q\2741\232\213\024~\241"
 140      AB4772E1 
 140      149A51BC 
 140      319A8B14 
 140      7EA1
 141 03a6 3F7291CA 		.ascii	"?r\221\312\233n.\336\342\315?q\3616o\216\343b\202\360"
ARM GAS  /var/folders/c6/c789hm653lg9vtl73krp73tm0000gn/T//ccOdjWuU.s 			page 11


 141      9B6E2EDE 
 141      E2CD3F71 
 141      F1366F8E 
 141      E36282F0 
 142 03ba 7C8737D2 		.ascii	"|\2077\322\270\230,4Sx\343=.\376\312\305T.2)\227\323"
 142      B8982C34 
 142      5378E33D 
 142      2EFECAC5 
 142      542E3229 
 143 03d0 40CEE232 		.ascii	"@\316\3422d6\3109\240\231\007\362C*\006X\000\315\205"
 143      6436C839 
 143      A09907F2 
 143      432A0658 
 143      00CD85
 144 03e3 201769CA 		.ascii	" \027i\312\305\320\\\0022GS~\014\315e Wh\312\225\320"
 144      C5D05C02 
 144      3247537E 
 144      0CCD6520 
 144      5768CA95 
 145 03f8 5C0572B5 		.ascii	"\\\005r\265\246\\\003\315\\\220\377\202K\257\003\371"
 145      A65C03CD 
 145      5C90FF82 
 145      4BAF03F9 
 146 0408 39683680 		.ascii	"9h6\200\334\244\031o\206\346V\220\333\250\010\354v\336"
 146      DCA4196F 
 146      86E65690 
 146      DBA808EC 
 146      76DE
 147 041a 0CCDD332 		.ascii	"\014\315\3232i'\364\026\200\334\015r?\310B\220\207`"
 147      6927F416 
 147      80DC0D72 
 147      3FC84290 
 147      8760
 148 042c F0C3208F 		.ascii	"\360\303 \217\200\346\030\310\343\332%\276\201\346I"
 148      80E618C8 
 148      E3DA25BE 
 148      81E649
 149 043b 90A735E5 		.ascii	"\220\2475\345\031h\236\005y^S~\007\315b\220\0275\345"
 149      19689E05 
 149      795E537E 
 149      07CD6290 
 149      1735E5
 150 044e 25685E01 		.ascii	"%h^\001Y\242)\257A\363:\310\037\340\3227@\336\004M)"
 150      59A229AF 
 150      41F33AC8 
 150      1FE0D237 
 150      40DE044D 
 151 0463 C83B9AF1 		.ascii	"\310;\232\361]h\336\007\371?\015\343\003\300\370H\303"
 151      5D68DE07 
 151      F93F0DE3 
 151      03C0F848 
 151      C3
 152 0474 F833F47A 		.ascii	"\3703\364z$.\323AN\0079\023\344\034.C\346\202\234\007"
 152      242ED341 
 152      4E073913 
 152      E41C2E43 
 152      E6829C07 
ARM GAS  /var/folders/c6/c789hm653lg9vtl73krp73tm0000gn/T//ccOdjWuU.s 			page 12


 153 0488 9A6C900B 		.ascii	"\232l\220\013@.\004\271\004d\016\310\345`\271\002\344"
 153      402E04B9 
 153      04640EC8 
 153      E560B902 
 153      E4
 154 0499 4AD0AC02 		.ascii	"J\320\254\002\271\0064kA\346\202f\035\310\215\\\206"
 154      B906346B 
 154      41E68266 
 154      1DC88D5C 
 154      86
 155 04aa 6D02F905 		.ascii	"m\002\371\005\310\315 \267\200\334\012r\033\310\355"
 155      C8CD20B7 
 155      80DC0A72 
 155      1BC8ED
 156 04b9 207780CC 		.ascii	" w\200\314\003\231\0172S\243\371,\355\013\373SH&[\303"
 156      03990F32 
 156      53A3F92C 
 156      ED0BFB53 
 156      48265BC3 
 157 04cd 62D52838 		.ascii	"b\325(8\351*\220j\237\013V\310W\230,\215'\257R\211}"
 157      E92A906A 
 157      9F0B56C8 
 157      57982C8D 
 157      27AF5289 
 158 04e2 C885243D 		.ascii	"\310\205$=L[\210\212O\334\336\332q\261\247\334\242Y"
 158      4C5B888A 
 158      4FDCDEDA 
 158      71B1A7DC 
 158      A259
 159 04f4 43226FF8 		.ascii	"C\"o\370[\212\270\256F,\373r\204\244\337>\270g\343\034"
 159      5B8AB8AE 
 159      462CFB72 
 159      84A4DF3E 
 159      B867E31C 
 160 0508 594C419B 		.ascii	"YLA\233KA\356\243[\221\222\223\256\205I\010]\331\202"
 160      4B41EEA3 
 160      5B919293 
 160      AE854908 
 160      5DD982
 161 051b FC9AD1FA 		.ascii	"\374\232\321\372luu\321\211\316\204\315w\015U\330Ua"
 161      6C7575D1 
 161      89CE84CD 
 161      770D55D8 
 161      5561
 162 052d BA2E364F 		.ascii	"\272.6O\027\225\011<B(Y\317\276\262\255\243\254\356"
 162      1795093C 
 162      422859CF 
 162      BEB2ADA3 
 162      ACEE
 163 053f 1F5B9002 		.ascii	"\037[\220\002\232\343Y\364\254\233\206\033\246\342\355"
 163      9AE359F4 
 163      AC9B861B 
 163      A6E2ED
 164 054e DF23FA6B 		.ascii	"\337#\372k\252\223=J2J?Yuk\267\303I\327\263k\020\362"
 164      AA933D4A 
 164      324A3F59 
 164      756BB7C3 
ARM GAS  /var/folders/c6/c789hm653lg9vtl73krp73tm0000gn/T//ccOdjWuU.s 			page 13


 164      49D7B36B 
 165 0564 17F2D033 		.ascii	"\027\362\3203\303\023\351\246\265\\\224)7\200\222\005"
 165      C313E9A6 
 165      B55C9429 
 165      37809205 
 166 0574 B736D816 		.ascii	"\2676\330\026\377\273(\034\263T\214\226\206 f\225\\"
 166      FFBB281C 
 166      B3548C96 
 166      86206695 
 166      5C
 167 0585 A58620D6 		.ascii	"\245\206 \326\221H\021\365\027Eu\364\202S\373\270\303"
 167      914811F5 
 167      174575F4 
 167      8253FBB8 
 167      C3
 168 0596 582A62A0 		.ascii	"X*b\240\315x\372\3063\022\022*'\335\0061\325\002\026"
 168      CD78FAC6 
 168      3312122A 
 168      27DD0631 
 168      D50216
 169 05a9 527E2C75 		.ascii	"R~,u\246\241N\232o\234i\351'\3737~%;i\036S\217\245T"
 169      A6A14E9A 
 169      6F9C69E9 
 169      27FB377E 
 169      253B691E 
 170 05c1 378E4820 		.ascii	"7\216H k=\354o\252\233F\262\011\214\2420\260p&\340Z"
 170      6B3DEC6F 
 170      AA9B46B2 
 170      098CA230 
 170      B07026E0 
 171 05d6 A0BB4963 		.ascii	"\240\273Ic\371\3351&\317\321\223_\323\0172<\352\023"
 171      F9DD3126 
 171      CFD1935F 
 171      D30F323C 
 171      EA13
 172 05e8 90C6B011 		.ascii	"\220\306\260\021%\362\201\344\0178\033K\015\365\372"
 172      25F281E4 
 172      0F381B4B 
 172      0DF5FA
 173 05f7 2BE1BE10 		.ascii	"+\341\276\020\313\226\036T\330%\013\004\310<\000\031"
 173      CB961E54 
 173      D8250B04 
 173      C83C0019 
 174 0607 8682DC53 		.ascii	"\206\202\334S\016\344a\222\376\355\241\207\205\011N"
 174      0EE46192 
 174      FEEDA187 
 174      85094E
 175 0616 BA9B6953 		.ascii	"\272\233iS\351Fi\011\371\307\373\036n\034\246\272\025"
 175      E9466909 
 175      F9C7FB1E 
 175      6E1CA6BA 
 175      15
 176 0627 5F7ECB10 		.ascii	"_~\313\020f>\261\272\361\352\300\207I\306QY\325\247"
 176      663EB1BA 
 176      F1EAC087 
 176      49C65159 
 176      D5A7
ARM GAS  /var/folders/c6/c789hm653lg9vtl73krp73tm0000gn/T//ccOdjWuU.s 			page 14


 177 0639 D23ADC9B 		.ascii	"\322:\334\233\367\022\005\356\205\242uD\352\327\257"
 177      F71205EE 
 177      85A27544 
 177      EAD7AF
 178 0648 E7A23574 		.ascii	"\347\2425t\"8(wr\323(\302\366'\231?P\335\234w*\345q"
 178      22382877 
 178      72D328C2 
 178      F627993F 
 178      50DD9C77 
 179 065f BFCA1279 		.ascii	"\277\312\022y[=\371(\221\265[]\036\021\244\263\212F"
 179      5B3DF928 
 179      91B55B5D 
 179      1E11A4B3 
 179      8A46
 180 0671 3576D833 		.ascii	"5v\3303fw\244x\333\236\020\325J<$\371\264\274WUHA_\231"
 180      6677A478 
 180      DB9E10D5 
 180      4A3C24F9 
 180      B4BC5755 
 181 0689 619C9151 		.ascii	"a\234\221Q2\267\2376\275\250TJ\301n\000\004 \375f\306"
 181      32B79F36 
 181      BDA8544A 
 181      C16E0004 
 181      20FD66C6 
 182 069d 467DEAF5 		.ascii	"F}\352\365S9\232\243dZASM\325P\277z}\227`\226\252\361"
 182      53399AA3 
 182      645A4153 
 182      4DD550BF 
 182      7A7D9760 
 183 06b4 8C308495 		.ascii	"\2140\204\2259\363Q\033\224\261\277\0106\301\206j\026"
 183      39F3511B 
 183      94B1BF08 
 183      36C1866A 
 183      16
 184 06c5 35D5A6C7 		.ascii	"5\325\246\307\227\250T\256\3451\317\270>W\217n#\246"
 184      97A854AE 
 184      E531CFB8 
 184      3E578F6E 
 184      23A6
 185 06d7 85A81363 		.ascii	"\205\250\023c\324\233XD]\342>\346\2507A\242\036BN\367"
 185      D49B5844 
 185      5DE23EE6 
 185      A83741A2 
 185      1E424EF7 
 186 06eb 56F15F9A 		.ascii	"V\361_\232;H3l\252\341\247\220\350R\371\370\261^\315"
 186      3B48336C 
 186      AAE1A790 
 186      E852F9F8 
 186      B15ECD
 187 06fe 3794B0AD 		.ascii	"7\224\260\255\254X2\265N\012\327\374\376\375Pm,u Y\277"
 187      AC5832B5 
 187      4E0AD7FC 
 187      FEFD506D 
 187      2C752059 
 188 0713 E41942C5 		.ascii	"\344\031B\305-p|&\263\301B\026\325\340c\205\221c\021"
 188      2D707C26 
 188      B3C14216 
ARM GAS  /var/folders/c6/c789hm653lg9vtl73krp73tm0000gn/T//ccOdjWuU.s 			page 15


 188      D5E06385 
 188      916311
 189 0726 EC864E2B 		.ascii	"\354\206N+\316\317\010\321\\\243\313\307\265V\371\270"
 189      CECF08D1 
 189      5CA3CBC7 
 189      B556F9B8 
 190 0736 8E34A5AB 		.ascii	"\2164\245\253\334\237`\261ml\214m\264\210\355\375\271"
 190      DC9F60B1 
 190      6D6C8C6D 
 190      B488EDFD 
 190      B9
 191 0747 7A4A3767 		.ascii	"zJ7gZ,\2661\026\261\225\271\2179\2661Hlk\220\275\016"
 191      5A2CB631 
 191      16B195B9 
 191      8F39B631 
 191      486C6B90 
 192 075d C074D08B 		.ascii	"\300t\320\213\251\245e\256\274j\3064\034>\032QK<-\005"
 192      A9A565AE 
 192      BC6AC634 
 192      1C3E1A51 
 192      4B3C2D05 
 193 0771 9EF5F374 		.ascii	"\236\365\363t<qL\013x\312\264?:\325\000,\336\002\230"
 193      3C714C0B 
 193      78CAB43F 
 193      3AD5002C 
 193      DE0298
 194 0784 833B9B81 		.ascii	"\203;\233\201\305#\300\302\311g\324\337\243\322Is\341"
 194      C523C0C2 
 194      C967D4DF 
 194      A3D24973 
 194      E1
 195 0795 515525CF 		.ascii	"QU%\317\312\3436\236\2253\277\247\266\236\225N\272\221"
 195      CAE3369E 
 195      9533BFA7 
 195      B69E954E 
 195      BA91
 196 07a7 7D313D1B 		.ascii	"}1=\033\235t3mAD\026\350O\305S\330S\3614\366T4[*\276"
 196      9D74336D 
 196      414416E8 
 196      4FC553D8 
 196      53F134F6 
 197 07c0 9659A55F 		.ascii	"\226Y\245_o\377\203\026\327\266\272ic\227X\327"
 197      6FFF8316 
 197      D7B6BA69 
 197      639758D7 
 198 07d0 4422FC0E 		.ascii	"D\"\374\016K\0047m\202f@[u\012G\366\204\372Y\012!O\376"
 198      4B04376D 
 198      8266405B 
 198      750A47F6 
 198      84FA590A 
 199 07e7 E3CD93F6 		.ascii	"\343\315\223\366\314\267\302<I\260\310\023p6\347I\002"
 199      CCB7C23C 
 199      49B0C813 
 199      7036E749 
 199      02
 200 07f8 92273549 		.ascii	"\222'5Ig\310\377\323\336\374\357\024\010\247\375\346"
 200      67C8FFD3 
ARM GAS  /var/folders/c6/c789hm653lg9vtl73krp73tm0000gn/T//ccOdjWuU.s 			page 16


 200      DEFCEF14 
 200      08A7FDE6 
 201 0808 7F2781AB 		.ascii	"\177'\201\253\304\213+\221i+\304\225l\201+\204;\233"
 201      C48B2B91 
 201      692BC495 
 201      6C812B84 
 201      3B9B
 202 081a 712523B8 		.ascii	"q%#\270j\221:AM\377\313v\322\377F5\244\377U,\375\257"
 202      6A913A41 
 202      4DFFCB76 
 202      D2FF4635 
 202      A4FF552C 
 203 0830 61E96FB6 		.ascii	"a\351o\266T|-\263J7\346\351\351\337\265|\372\327)\237"
 203      547C2DB3 
 203      4A37E6E9 
 203      E9DFB57C 
 203      FAD7299F 
 204 0844 07EF0492 		.ascii	"\007\357\004\222\376]\325)\234\263\227\376\367\275i"
 204      FE5DD529 
 204      9CB397FE 
 204      F7BD69
 205 0853 D29DF956 		.ascii	"\322\235\371V\230&=,\322$\224;\233\323\244\007\222&"
 205      98263D2C 
 205      D224943B 
 205      9BD3A407 
 205      9226
 206 0865 B58923A8 		.ascii	"\265\211#\250i\362\243\2154\231}\327\336\211\"\2404"
 206      69F2A38D 
 206      34997DD7 
 206      DE8922A0 
 206      34
 207 0876 B987A5C9 		.ascii	"\271\207\245\311},M\314\226\212\321\322\317\331\301"
 207      7D2C4DCC 
 207      968AD1D2 
 207      CFD9C1
 208 0885 49B7FB8D 		.ascii	"I\267\373\215\2278;\234\330o\373\354\300\202\342\244"
 208      97383B9C 
 208      D86FFBEC 
 208      C082E2A4 
 209 0895 3FD9383B 		.ascii	"?\3318;\224\341g\207\307\266\316\016e\276g\207\307\001"
 209      94E16787 
 209      C7B6CE0E 
 209      65BE6787 
 209      C701
 210 08a7 9C1D9C74 		.ascii	"\234\035\234t\227_\3406\316\016\031\222\012\362q\005"
 210      975FE036 
 210      CE0E1992 
 210      0AF27105 
 211 08b7 67872C09 		.ascii	"g\207,\011;;dJ<\3157\231\317\016{\337\263wv\350\305"
 211      3B3B644A 
 211      3CCD3799 
 211      CF0E7BDF 
 211      B37776E8 
 212 08cc BDB19D56 		.ascii	"\275\261\235V\037\013\246\205q'3\323\372 L\253C$\333"
 212      1F0BA685 
 212      712733D3 
 212      FA204CAB 
ARM GAS  /var/folders/c6/c789hm653lg9vtl73krp73tm0000gn/T//ccOdjWuU.s 			page 17


 212      4324DB
 213 08df 4787085B 		.ascii	"G\207\010[\266\301\344\355\034\311F%\240:x\233-!\274"
 213      B6C1E4ED 
 213      1CC94625 
 213      A03A789B 
 213      2D21BC
 214 08f2 FD9B84F0 		.ascii	"\375\233\204\360\326l\251\030-\253\216\267\247p\336"
 214      D66CA918 
 214      2DAB8EB7 
 214      A770DE
 215 0901 96EC40CE 		.ascii	"\226\354@\316\374\234\267\013\245\362\274\215@Sz\261"
 215      FC9CB70B 
 215      A5F2BC8D 
 215      40537AB1 
 216 0911 E4C3DBD5 		.ascii	"\344\303\333\325y\234\267\213$N@\331\232\267\360H\025"
 216      799CB78B 
 216      244E40D9 
 216      9AB7F048 
 216      15
 217 0922 CE5EDEAA 		.ascii	"\316^\336\252n\214\267r0x{\203\3636G\200\344\227\266"
 217      6E8CB772 
 217      30787B83 
 217      F3364780 
 217      E497B6
 218 0935 E2ED2728 		.ascii	"\342\355'(o?\006\336~\201\234\371\021\3366Fx\333\237"
 218      6F3F06DE 
 218      7E819CF9 
 218      11DE3646 
 218      78DB9F
 219 0948 7B6367FE 		.ascii	"{cg\376\201\026\274\255\301\235\314\274\035\210\360"
 219      8116BCAD 
 219      C19DCCBC 
 219      1D88F0
 220 0957 369250DB 		.ascii	"6\222P\333\274\255k\3136\230\274\375\247\015\336\316"
 220      BCAD6BCB 
 220      3698BCFD 
 220      A70DDECE 
 221 0967 BE570DBC 		.ascii	"\276W\015\274]\213\3616\027\343\255\331R1Z\362D9\267"
 221      5D8BF136 
 221      17E3ADD9 
 221      52315AF2 
 221      4439B7
 222 097a 61BE7EB7 		.ascii	"a\276~\267_L \035\3344D\317\226\246\272/\317\025\021"
 222      5F4C201D 
 222      DC3444CF 
 222      96A6BA2F 
 222      CF1511
 223 098d 1D75BF36 		.ascii	"\035u\2776\212j/\255\331 \257k\003\274\024\310\000\262"
 223      8A6A2FAD 
 223      D920AF6B 
 223      03BC14C8 
 223      00B2
 224 099f 3E40B984 		.ascii	">@\271\204\033\304f\301\3061\344\332`\213\\\013\347"
 224      1BC466C1 
 224      C631E4DA 
 224      608B5C0B 
 224      E7
ARM GAS  /var/folders/c6/c789hm653lg9vtl73krp73tm0000gn/T//ccOdjWuU.s 			page 18


 225 09b0 F6E65C1B 		.ascii	"\366\346\\\033\214\344Z\275\000r-\312n\256\025?\250"
 225      8CE45ABD 
 225      00722DCA 
 225      6EAE153F 
 225      A8
 226 09c1 B0BA541F 		.ascii	"\260\272T\037\2365\323\226=\324\301\275\254\217\325"
 226      9E35D396 
 226      3DD4C1BD 
 226      AC8FD5
 227 09d0 CCC5D2DF 		.ascii	"\314\305\322\337Kc\317\357\015t\374\013a\364\014\321"
 227      4B63CFEF 
 227      0D74FC0B 
 227      61F40CD1 
 228 09e0 0AD63A43 		.ascii	"\012\326:C\365\372F4Z;zYlto\315\327#\367[\246\305\236"
 228      F5FA4634 
 228      5A3B7A59 
 228      6C746FCD 
 228      D723F75B 
 229 09f7 BA432D22 		.ascii	"\272C-\"Z\223\373\230#:\024\211h\003\206\216\335\372"
 229      5A93FB98 
 229      233A1489 
 229      6803868E 
 229      DDFA
 230 0a09 C24565C5 		.ascii	"\302Ee\305\222f7L\2352\344\304u\035\365+\254\203_\335"
 230      9266374C 
 230      9D32E4C4 
 230      751DF52B 
 230      AC835FDD 
 231 0a1d 618A6873 		.ascii	"a\212hs\027#6\377cFn\236\352j-n\3763\232\353k\251T\262"
 231      172336FF 
 231      63466E9E 
 231      EA6A2D6E 
 231      FE339AEB 
 232 0a35 AE45BDA6 		.ascii	"\256E\275\246\315\245!\221}*Q\222o%J\022e\016\355\357"
 232      CDA52191 
 232      7D2A5192 
 232      6F254A12 
 232      650EEDEF 
 233 0a49 0C91C4ED 		.ascii	"\014\221\304\355\212\342\225\250\327\032\234\016\345"
 233      8AE295A8 
 233      D71A9C0E 
 233      E5
 234 0a56 233562E4 		.ascii	"#5b\344c\207\225\342\307.\315q\270>\333\030\027K#=T"
 234      638795E2 
 234      C72ECD71 
 234      B83EDB18 
 234      174B233D 
 235 0a6b B5004663 		.ascii	"\265\000Fc7\215mA>\222\324\302zK\355n\271y\024\014!"
 235      378D6D41 
 235      3E92D4C2 
 235      7A4BED6E 
 235      B979140C 
 236 0a80 1C8E8490 		.ascii	"\034\216\204\220-\270j\365m\375\002\035\361\010m\252"
 236      2DB86AF5 
 236      6DFD021D 
 236      F1086DAA 
 237 0a90 7AF571AD 		.ascii	"z\365q\255>\306\353\254[\255>6\326To\330\254(1g\033"
ARM GAS  /var/folders/c6/c789hm653lg9vtl73krp73tm0000gn/T//ccOdjWuU.s 			page 19


 237      3EC6EBAC 
 237      5BAD3E36 
 237      D6546FD8 
 237      AC283167 
 238 0aa5 15B23744 		.ascii	"\025\2627D\006mZ\240\337\2747\231\026\313\240\221\026"
 238      066D5AA0 
 238      DFBC3799 
 238      16CBA091 
 238      16
 239 0ab6 19549BFB 		.ascii	"\031T\233\373\2303h$\002\277\011\304zZ\361\334,\275"
 239      98336824 
 239      02BF09C4 
 239      7A5AF1DC 
 239      2CBD
 240 0ac8 40E0B424 		.ascii	"@\340\264$\310\357~\011A|\3409\005\274</\274QL\213\301"
 240      C8EF7E09 
 240      417CE039 
 240      05BC3C2F 
 240      BC514C8B 
 241 0add 1B6D01AF 		.ascii	"\033m\001\257\016\3671\303\033\215\300k\012w7\375\333"
 241      0EF731C3 
 241      1B8DC06B 
 241      0A7737FD 
 241      DB
 242 0aee AB2B75B3 		.ascii	"\253+u\263\224@\226G-W\313\257\257\177\254\364\372\232"
 242      94409647 
 242      2D57CBAF 
 242      AF7FACF4 
 242      FA9A
 243 0b00 CA66C1C6 		.ascii	"\312f\301\3061\200u[\200\215\340\366f\260n\004l3\001"
 243      3180755B 
 243      808DE0F6 
 243      66B06E04 
 243      6C3301
 244 0b13 76C63F75 		.ascii	"v\306?u\263\267*\013\366O\277\354iT\016\354\333l\026"
 244      B3B72A0B 
 244      F64FBFEC 
 244      69540EEC 
 244      DB6C16
 245 0b26 6C1C03D8 		.ascii	"l\034\003\330q\026`#\271\275\031\3548\004l\264H\334"
 245      71166023 
 245      B9BD19EC 
 245      38046CB4 
 245      48DC
 246 0b38 1C6FE24E 		.ascii	"\034o\342N\250\\\342B\225\013O\332\011\"i\037y\223\366"
 246      A85CE242 
 246      950B4FDA 
 246      0922691F 
 246      7993F6
 247 0b4b 1DA6ADB0 		.ascii	"\035\246\255\260|\221f\201\261.w6cLC06'$\250\345\213"
 247      7C916681 
 247      B12E7736 
 247      634C4330 
 247      362724A8 
 248 0b61 6F6D6CA7 		.ascii	"oml\247\012\217JU\277\235\372\016\333N]\300\266SfK\305"
 248      0A8F4A55 
 248      BF9DFA0E 
ARM GAS  /var/folders/c6/c789hm653lg9vtl73krp73tm0000gn/T//ccOdjWuU.s 			page 20


 248      DB4E5DC0 
 248      B653664B 
 249 0b76 D732AB34 		.ascii	"\3272\2534\375\204^\345\232\254\233\266r\361\230{sb"
 249      FD845EE5 
 249      9AAC9BB6 
 249      72F1987B 
 249      7362
 250 0b88 84BF9C70 		.ascii	"\204\277\234p\323x4\031&\253\323Y\363\245\255\212W\356"
 250      D3783419 
 250      26ABD359 
 250      F3A5AD8A 
 250      57EE
 251 0b9a 477ACA4C 		.ascii	"Gz\312La\276\025\246\314{\026)S\217;\233S\346=$eZ\004"
 251      61BE15A6 
 251      CC7B1629 
 251      538F3B9B 
 251      53E63D24 
 252 0bb1 3965AED9 		.ascii	"9e\256\33199\237\352R\365)s\003K\231\233X\312\230-\025"
 252      39399FEA 
 252      52F52973 
 252      034B999B 
 252      58CA982D 
 253 0bc6 A365D59D 		.ascii	"\243e\325\235\234/\034\264]\361bAq\322;\222\377\212"
 253      9C2F1CB4 
 253      5DF16241 
 253      71D23B92 
 253      FF8A
 254 0bd8 D73DDF93 		.ascii	"\327=\337\223\263Z\361\272+\331\251x\335\363=9\337\225"
 254      B35AF1BA 
 254      2BD9A978 
 254      DDF33D39 
 254      DF95
 255 0bea 825EF17A 		.ascii	"\202^\361z(@\336\255\340\344\374\023zr~\004'\347\315"
 255      2840DEAD 
 255      E0E4FC13 
 255      7A727E04 
 255      27E7CD
 256 0bfd C8C93997 		.ascii	"\310\3119\227\332+y\375\225\273cG\347\251\026T\213\342"
 256      DA2B79FD 
 256      95BB6347 
 256      E7A91654 
 256      8BE2
 257 0c0f 4E66AA4D 		.ascii	"Nf\252ME\250\026\003O {\307\231X[\266\301$n\206l\343"
 257      45A81603 
 257      4F207BC7 
 257      99585BB6 
 257      C1246E86 
 258 0c25 E87CAE1A 		.ascii	"\350|\256\032\210;]F\210;CF\210k\266T\214\226UG\334"
 258      883B5D46 
 258      883B4346 
 258      886BB654 
 258      8C965547 
 259 0c3a DB3871B1 		.ascii	"\3338q\261\222\027\013\212\223\316\225\375\227\274\262"
 259      92170B8A 
 259      93CE95FD 
 259      97BCB2
 260 0c49 651FE2AA 		.ascii	"e\037\342\252%\257\371\262\235\222\227p\366\022Wu\013"
ARM GAS  /var/folders/c6/c789hm653lg9vtl73krp73tm0000gn/T//ccOdjWuU.s 			page 21


 260      25AFF9B2 
 260      9D929770 
 260      F6125775 
 260      0B
 261 0c5a 6AC96B81 		.ascii	"j\311k\201\000\311/mE\334\2052F\334\217dN\232-f\342"
 261      00C92F6D 
 261      45DC8532 
 261      46DC8F64 
 261      4E9A2D66 
 262 0c6f 667E8E10 		.ascii	"f~\216\020\027\253yeR\356\217\235\012\246Q\013\352\326"
 262      17AB7965 
 262      52EE8F9D 
 262      0AA6510B 
 262      EAD6
 263 0c81 07373377 		.ascii	"\00773w\247Q\204\274-\003 o\334\023G\336\034\033\344"
 263      A75184BC 
 263      2D03206F 
 263      DC1347DE 
 263      1C1BE4
 264 0c94 2DAA0EF2 		.ascii	"-\252\016\362.\307\310\273\002#\257\331R1ZB\335\353"
 264      2EC7C8BB 
 264      0223AFD9 
 264      52315A42 
 264      DDEB
 265 0ca6 B2777734 		.ascii	"\262ww4\213V\266\3605;\240\021\320\223\331\034\312'"
 265      8B56B6F0 
 265      353BA011 
 265      D093D91C 
 265      CA27
 266 0cb8 C28732E4 		.ascii	"\302\2072\344\334<\253\234k\000>\346\234\233\207\345"
 266      DC3CAB9C 
 266      6B003EE6 
 266      9C9B87E5 
 267 0cc8 5CAB0072 		.ascii	"\\\253\000r.\376\211\313\271\0156rn\346\205j8\034|\201"
 267      2EFE89CB 
 267      B90D3672 
 267      6EE6856A 
 267      381C7C81 
 268 0cdc E5DC662C 		.ascii	"\345\334f,\347\314\226\212\257eV\351\217\247\364\303"
 268      E7CC968A 
 268      AF6556E9 
 268      8FA7F4C3 
 269 0cec C187DEDB 		.ascii	"\301\207\336\333j\343' \375-\337\201\177H\305f\177\345"
 269      6AE32720 
 269      FD2DDF81 
 269      7F48C566 
 269      7FE5
 270 0cfe 423D9316 		.ascii	"B=\223\026P\256\307\026\260\205V\311\324\020\334\314"
 270      50AEC716 
 270      B08556C9 
 270      D410DCCC 
 271 0d0e C9B4104B 		.ascii	"\311\264\020K\246\326\242HV\350=\377.\012\010\316\000"
 271      A6D6A248 
 271      56E83DFF 
 271      2E0A08CE 
 271      00
 272 0d1f 4B388B34 		.ascii	"K8\21348\271^8\213)\327cp\226X\301i\004nf8K08m\004\234"
ARM GAS  /var/folders/c6/c789hm653lg9vtl73krp73tm0000gn/T//ccOdjWuU.s 			page 22


 272      38B95E38 
 272      8B29D763 
 272      709658C1 
 272      69046E66 
 273 0d3a 222F9C9C 		.ascii	"\"/\234\234\200\340\014\264\204\223\243\301\331\344"
 273      80E00CB4 
 273      8493A3C1 
 273      D9E4
 274 0d48 85F331E5 		.ascii	"\205\3631\345z\014\3162+8\215\301\315\014g\031\006\247"
 274      7A0CCE32 
 274      2B388DC1 
 274      CD0C6719 
 274      06A7
 275 0d5a AD8073D8 		.ascii	"\255\200s\330\013gE@p\236\263\204\263B\203\223\347\205"
 275      0B674540 
 275      709EB384 
 275      B3428393 
 275      E785
 276 0d6c B392723D 		.ascii	"\263\222r=\006g\225\025\234&\340f\206\263\012\203\323"
 276      06679515 
 276      9C26E066 
 276      86B30A83 
 276      D3
 277 0d7d 4EC039EA 		.ascii	"N\3009\352\205\263: 8\317[\302YMU\002\237\266w\234."
 277      85B33A20 
 277      38CF5BC2 
 277      594D5502 
 277      9FB6779C 
 278 0d92 F1825E43 		.ascii	"\361\202^C\2717\006:\327\012tSp3\203\316\305@\267\027"
 278      B937063A 
 278      D70A7453 
 278      703383CE 
 278      C540B717 
 279 0da6 E5B4035B 		.ascii	"\345\264\003[t\273\177U\372\031\265\256\362\317\250"
 279      74BB7F55 
 279      FA19B5AE 
 279      F2CFA8
 280 0db5 CF299F08 		.ascii	"\317)\237\010\037\312\000z\203\025\350f\340c\006\275"
 280      1FCA007A 
 280      8315E866 
 280      E06306BD 
 281 0dc5 0103DD81 		.ascii	"\001\003\335\201/\306\344\014\311\224Ee\276}\376\331"
 281      2FC6E40C 
 281      C9944565 
 281      BE7DFED9 
 282 0dd5 31BC2321 		.ascii	"1\274#!\310\205\205\257\354\234On^\224\253\376ys\002"
 282      C88585AF 
 282      EC9C4F6E 
 282      5E94ABFE 
 282      797302
 283 0de8 7BDE9CC4 		.ascii	"{\336\234\304\2367fK\305\3272\253\364\353\263c\264\210"
 283      9E37664B 
 283      C5D732AB 
 283      F4EBB363 
 283      B488
 284 0dfa 6FF2DE22 		.ascii	"o\362\336\"\337j\324\233\266\253Q>/\2346\011\376|\227"
 284      DF6AD49B 
ARM GAS  /var/folders/c6/c789hm653lg9vtl73krp73tm0000gn/T//ccOdjWuU.s 			page 23


 284      B6AB513E 
 284      2F9C3609 
 284      FE7C97
 285 0e0d 156E873F 		.ascii	"\025n\207?e\013\365\204\331L\2717\306\237\255V\251\024"
 285      650BF584 
 285      D94CB937 
 285      C69FAD56 
 285      A914
 286 0e1f 0D6EE654 		.ascii	"\015n\346T\332\212\245RG\225?\205\213v\374W\1779\265"
 286      DA8AA552 
 286      47953F85 
 286      8B76FC57 
 286      7F39B5
 287 0e32 8DA26FA7 		.ascii	"\215\242o\247\266S\336\345\367\375\324v\352}Auk\241"
 287      B653DEE5 
 287      F7FDD476 
 287      EA7D4175 
 287      6BA1
 288 0e44 FEBA268F 		.ascii	"\376\272&\217y\313\326o\250\362\2506\243N,)\214\257"
 288      79CBD66F 
 288      A8F2A836 
 288      A34E2C29 
 288      8CAF
 289 0e56 A864DF57 		.ascii	"\250d\337WT\262\351\025\225\314N\025r\007\312\307\351"
 289      54B2E915 
 289      95CC4E15 
 289      7207CAC7 
 289      E9
 290 0e67 A8BE9F4A 		.ascii	"\250\276\237J\024\253\341\377\245h^;\275\0013\276\240"
 290      14ABE1FF 
 290      A5685E3B 
 290      BD0133BE 
 290      A0
 291 0e78 6A1ED80B 		.ascii	"j\036\330\013\252\235X\034\223\202\314\274\313v\016"
 291      AA9D581C 
 291      9382CCBC 
 291      CB760E
 292 0e87 1777ABE1 		.ascii	"\027w\253\341pq\025#\3365\214xfK\305hY\205?\206)\262"
 292      70711523 
 292      DE358C78 
 292      664BC568 
 292      59853F86 
 293 0e9d 5FD2BBDB 		.ascii	"_\322\273\333\305Io\312\376Kz\267}+\003jI\257T\266S"
 293      C5496FCA 
 293      FE4B7AB7 
 293      7D2B036A 
 293      49AF54B6 
 294 0eb2 D2BBED5B 		.ascii	"\322\273\355[\031(\225\203^\322\273+@\226VP\031\270"
 294      19289583 
 294      5ED2BB2B 
 294      40965650 
 294      19B8
 295 0ec4 8F5606EE 		.ascii	"\217V\006\356Ae`+R\322\333a\263\244W@\271?V\323\333"
 295      4165602B 
 295      52D2DB61 
 295      B3A45740 
 295      B93F56D3 
ARM GAS  /var/folders/c6/c789hm653lg9vtl73krp73tm0000gn/T//ccOdjWuU.s 			page 24


 296 0ed9 6DB56CB5 		.ascii	"m\265l\265\0007\363\262\265\033\243[r\000\247\264\316"
 296      0037F3B2 
 296      B51BA35B 
 296      7200A7B4 
 296      CE
 297 0eea 4FDC29ED 		.ascii	"O\334)\355\261\235\307\346\275j o\272\003!o\206\003"
 297      B19DC7E6 
 297      BD6A206F 
 297      BA03216F 
 297      8603
 298 0efc 21AFD952 		.ascii	"!\257\331R1ZV\035y\317\340\344E\313z\367\030yg8\374"
 298      315A561D 
 298      79CFE0E4 
 298      45CB7AF7 
 298      18796738 
 299 0f11 97F5663B 		.ascii	"\227\365f;|\310\253\226\365f9\354\224\365\204\263\227"
 299      7CC8AB96 
 299      F56639EC 
 299      94F584B3 
 299      97
 300 0f22 BCAA5B50 		.ascii	"\274\252[P\313z\363\005H~i+\362\376\315\201\2217\033"
 300      CB7AF305 
 300      487E692B 
 300      F2FECD81 
 300      91371B
 301 0f35 FEE9C136 		.ascii	"\376\351\3016\244\254\227g\263\254\267\237?\350\321"
 301      A4AC9767 
 301      B3ACB79F 
 301      3FE8D1
 302 0f44 B25EA115 		.ascii	"\262^\241\025yc\300\315L\336B\214\274]\002 oW[\266\034"
 302      7963C0CD 
 302      4CDE428C 
 302      BC5D0220 
 302      6F575BB6 
 303 0f59 FD6779FA 		.ascii	"\375gy\372U\017U\372\004p\270\362'\200#\224O\204\017"
 303      550F55FA 
 303      0470B8F2 
 303      27802394 
 303      4F840F
 304 0f6c 6508E131 		.ascii	"e\010\3411\253\020\306\202\2179\204\307\260\020v\013"
 304      AB10C682 
 304      8F3984C7 
 304      B010760B 
 305 0f7c F276E313 		.ascii	"\362v\343\023\207\215\227\316\367\253\241\256\264\022"
 305      878D97CE 
 305      F7ABA1AE 
 305      B412
 306 0f8a 5BB13EC5 		.ascii	"[\261>\305V,\263\245\342k\231U\232~A\257+\0357\234\215"
 306      562CB3A5 
 306      E26B9955 
 306      9A7E41AF 
 306      2B1D379C 
 307 0f9f FD       		.ascii	"\375"
 308 0fa0 FDDB0AEB 		.ascii	"\375\333\012\353\263\361q\355\250_\362w\375\336\177"
 308      B3F171ED 
 308      A85FF277 
 308      FDDE7F
ARM GAS  /var/folders/c6/c789hm653lg9vtl73krp73tm0000gn/T//ccOdjWuU.s 			page 25


 309 0faf 43B91E63 		.ascii	"C\271\036c\320I\253\333\337\022\334\314\267\377$v\373"
 309      D049ABDB 
 309      DF12DCCC 
 309      B7FF2476 
 309      FB
 310 0fc0 BB8BCDED 		.ascii	"\273\213\315\355C\357Q\377t@p\254+\027\24758\267\274"
 310      43EF51FF 
 310      744070AC 
 310      2B17A735 
 310      38B7BC
 311 0fd3 70CE50AE 		.ascii	"p\316P\256\307\340\234\265\202\023\007nf8g18O\0118?"
 311      C7E09CB5 
 311      8213076E 
 311      66386731 
 311      384F0938 
 312 0fe8 79E19C0F 		.ascii	"y\341\234\017\010\216u]\351\274\006\347\276\027\316"
 312      088E755D 
 312      E9BC06E7 
 312      BE17CE
 313 0ff7 7794EB31 		.ascii	"w\224\35318\305VpZ"
 313      38C55670 
 313      5A
 314 1000 819B194E 		.ascii	"\201\233\031N1\006\247\207\366\3238/\234\213\001\301"
 314      3106A787 
 314      F6D3382F 
 314      9C8B01C1 
 315 1010 B1AEFA5D 		.ascii	"\261\256\372]\324\340\224y\341\\\242\\\217\301\271b"
 315      D4E09479 
 315      E15CA25C 
 315      8FC1B962 
 316 1020 05271EDC 		.ascii	"\005'\036\334\314p\256`p\236\026pfL\327\341\224\004"
 316      CC70AE60 
 316      709E1670 
 316      664CD7E1 
 316      9404
 317 1032 04C7BA26 		.ascii	"\004\307\272&[\"\316\3053\367\333\373\231\306R\035\364"
 317      5B22CEC5 
 317      33F7DBFB 
 317      99C6521D 
 317      F4
 318 1043 35CABD31 		.ascii	"5\312\2751\320\327\255@\267\00673\350\353\030\350\236"
 318      D0D7AD40 
 318      B7063733 
 318      E8EB18E8 
 318      9E
 319 1054 DA6FD22E 		.ascii	"\332o\322.\352v?T\372\251r\243\362O\225\233\224O\204"
 319      EA763F54 
 319      FAA972A3 
 319      F24F959B 
 319      944F84
 320 1067 0F65005D 		.ascii	"\017e\000]j\005\272\015\370\230A\227b\240{\211\272\322"
 320      6A05BA0D 
 320      F8984197 
 320      62A07B89 
 320      BAD2
 321 1079 2CADAED4 		.ascii	",\255\256\324\363\320m\250+\365\016\362\343\246\300"
 321      F3D06DA8 
ARM GAS  /var/folders/c6/c789hm653lg9vtl73krp73tm0000gn/T//ccOdjWuU.s 			page 26


 321      2BF50EF2 
 321      E3A6C0
 322 1088 C6E3A668 		.ascii	"\306\343\246h\337\245j\250+\355\305\2367_b\317\033\263"
 322      DFA56AA8 
 322      2BEDC59E 
 322      375F62CF 
 322      1BB3
 323 109a A5E26B99 		.ascii	"\245\342k\231Uz\361\266^W\272S\015u\245;\202?\363\247"
 323      557AF1B6 
 323      5E57BA53 
 323      0D75A53B 
 323      823FF3A7 
 324 10ae DBAA2B5D 		.ascii	"\333\252+]Z\252'\314]\312\2751\376\334\267J\245\266"
 324      5AAA27CC 
 324      5DCABD31 
 324      FEDCB74A 
 324      A5B6
 325 10c0 E0664EA5 		.ascii	"\340fN\245\373X*\365\021u\245m\337{\353J\377\303\353"
 325      FB582AF5 
 325      1175A56D 
 325      DF7BEB4A 
 325      FFC3EB
 326 10d3 4A0F28EF 		.ascii	"J\017(\357\362[WzP\256\256\264i\251^Wz\304\274\035\326"
 326      F25B577A 
 326      50AEAEB4 
 326      69A95E57 
 326      7AC4BC1D 
 327 10e8 75A5477A 		.ascii	"u\245Gz]\351\031S]\311\341[Wr\230\352J\216T:K\356E\371"
 327      5DE91953 
 327      5DC9E15B 
 327      577298EA 
 327      4A8E543A 
 328 1100 387DD4BA 		.ascii	"8}\324\272R_\261\032.I\325\274~\266\252+\265\013\254"
 328      525FB11A 
 328      2E49D5BC 
 328      7EB6AA2B 
 328      B50BAC
 329 1113 AEF43316 		.ascii	"\256\3643\026\307~Af\336q\033\314\233}\244k5\374\023"
 329      C77E4166 
 329      DE711BCC 
 329      9B7DA46B 
 329      35FC13
 330 1126 728C78A7 		.ascii	"r\214x\2471\342\231-\025\243e\325\035M\267\037\261]"
 330      31E2992D 
 330      15A365D5 
 330      1D4DB71F 
 330      B15D
 331 1138 57624171 		.ascii	"WbAq\322\363\016\377u\245b\337\243\251ZW\272\340\260"
 331      D2F30EFF 
 331      75A562DF 
 331      A3A95A57 
 331      BAE0B0
 332 114b 53572AF6 		.ascii	"SW*\366=\232^p\004\275\256tY\200\274P\301\321\364{\364"
 332      3D9A5E70 
 332      04BDAE74 
 332      5980BC50 
 332      C1D1F47B 
ARM GAS  /var/folders/c6/c789hm653lg9vtl73krp73tm0000gn/T//ccOdjWuU.s 			page 27


 333 1160 687A058E 		.ascii	"hz\005\216\246\333\221\243i\211\315\272\222G\342\376"
 333      A6DB91A3 
 333      6989CDBA 
 333      9247E2FE 
 334 1170 585D295D 		.ascii	"X])]\262X\266\332\203\233y\331J\227\020\272=\033\300"
 334      B258B6DA 
 334      839B79D9 
 334      4A9710BA 
 334      3D1BC0
 335 1183 D1B4FF13 		.ascii	"\321\264\377\023WW\272a\347\261Y\035\344\275\215\221"
 335      5757BA61 
 335      E7B1591D 
 335      E4BD8D91 
 336 1193 F7478CBC 		.ascii	"\367G\214\274fK\305hYu\344\315\303\311\213\376\013I"
 336      664BC568 
 336      5975E4CD 
 336      C3C98BFE 
 336      0B49
 337 11a5 4EDEFB36 		.ascii	"N\336\3736\352J\017\361\272\322\003[u\245\207\276\344"
 337      EA4A0FF1 
 337      BAD2035B 
 337      75A587BE 
 337      E4
 338 11b6 7D10FCBA 		.ascii	"}\020\374\272\322c\001\362A\005\344\365(\030y\313\200"
 338      D26301F2 
 338      4105E4F5 
 338      281879CB 
 338      80
 339 11c7 BC3BCCE4 		.ascii	"\274;\314\344\375\024#/VW\232.q\177l\3171\323\212\274"
 339      FD14232F 
 339      56579A2E 
 339      717F6CCF 
 339      31D38ABC 
 340 11db 1DC0CD4C 		.ascii	"\035\300\315L\336\231\030y\007\004@\336\201\266\353"
 340      DE991879 
 340      070440DE 
 340      81B6EB
 341 11ea 4A074AF4 		.ascii	"J\007J\364\253\316\221*{\002\230\033\320\010\350\011"
 341      ABCE912A 
 341      7B02981B 
 341      D008E809 
 342 11fa 609EC427 		.ascii	"`\236\304'\302\2072\2040\333*\204\011\340c\016a6\026"
 342      C2873284 
 342      30DB2A84 
 342      09E0630E 
 342      613616
 343 120d C2E7202C 		.ascii	"\302\347 ,\231\305\271\323\315\007\262\326.Z_O\2270"
 343      99C5B9D3 
 343      CD07B2D6 
 343      2E5A5F4F 
 343      9730
 344 121f C32D77F3 		.ascii	"\303-w\363\237\206\004s\245\313V\354\3740\266\032V\272"
 344      9F860473 
 344      A5CB56EC 
 344      FC30B61A 
 344      56BA
 345 1231 050AB2D2 		.ascii	"\005\012\262\322}\244 +\235\331R1ZV\341\017c\003\330"
ARM GAS  /var/folders/c6/c789hm653lg9vtl73krp73tm0000gn/T//ccOdjWuU.s 			page 28


 345      7DA4202B 
 345      9DD95231 
 345      5A56E10F 
 345      6303D8
 346 1244 A69C632B 		.ascii	"\246\234c+\335?\024\377\333\224\034\005\335\246,U\354"
 346      DD3F14FF 
 346      DB941C05 
 346      DDA62C55 
 346      EC
 347 1255 6C538433 		.ascii	"lS\2043\321W:\325-\250\333\224\345\002$\277\264\325"
 347      D1573AD5 
 347      2DA8DB94 
 347      E50224BF 
 347      B4D5
 348 1267 4AB7125D 		.ascii	"J\267\022]\351V(\360\302\032\331\246\334\264\271MY "
 348      E95628F0 
 348      C21AD9A6 
 348      DCB4B94D 
 348      5920
 349 1279 717F6C9B 		.ascii	"q\177l\233\262\320\212\246\035\301\015\371]\031F\323"
 349      B2D08AA6 
 349      1DC10DF9 
 349      5D1946D3 
 350 1289 E70358E9 		.ascii	"\347\003X\351^x\342\266)km\220\267\250:\310\3739F\336"
 350      5E78E2B6 
 350      296B6D90 
 350      B7A83AC8 
 350      FB3946DE 
 351 129d F51879CD 		.ascii	"\365\030y\315\226\212\321\262\352\310{'\200m\012'\357"
 351      968AD1B2 
 351      EAC87B27 
 351      806D0A27 
 351      EF
 352 12ae 178AFF6D 		.ascii	"\027\212\377m\312V_\362\252\333\224-\212\235m\312V_"
 352      CA565FF2 
 352      AADB942D 
 352      8A9D6DCA 
 352      565F
 353 12c0 F26E5182 		.ascii	"\362nQ\202\276M\311\023 \267T@\336\235(y\363\201\274"
 353      BE4DC913 
 353      20B75440 
 353      DE9D2879 
 353      F381BC
 354 12d3 F9C83605 		.ascii	"\371\3106\005#/\266MY\"q\177l\233\222cE\336N\340f&o"
 354      232FB64D 
 354      5922717F 
 354      6C9B9263 
 354      45DE4EE0 
 355 12ea 0E46DE17 		.ascii	"\016F\336\027\003 \357KO\034y\367\332y\362\236\257\006"
 355      0320EF4B 
 355      4F1C79F7 
 355      DA79F29E 
 355      AF06
 356 12fc F21EC0C8 		.ascii	"\362\036\300\310[\210\221\327l\251\030-\341W\355Ws\364"
 356      5B8891D7 
 356      6CA9182D 
 356      E157ED57 
ARM GAS  /var/folders/c6/c789hm653lg9vtl73krp73tm0000gn/T//ccOdjWuU.s 			page 29


 356      73F4
 357 130e 3BBE3CA0 		.ascii	";\276<\240]\231\026\271\362\373\272\025\225\337\327"
 357      5D9916B9 
 357      F2FBBA15 
 357      95DFD7
 358 131d AD94F844 		.ascii	"\255\224\370D\370P\306\337\206Z\345\\\"\370 \277\015"
 358      F850C6DF 
 358      865AE55C 
 358      22F820BF 
 358      0D
 359 132e C5726E50 		.ascii	"\305rnP\0009\367\253'.\347N\331y`TG\316\235\305r\356"
 359      0039F7AB 
 359      272EE74E 
 359      D9796054 
 359      47CE9DC5 
 360 1344 1C967366 		.ascii	"\034\226sfK\305h\0119\367\2037\347\326T:\347\326\376"
 360      4BC56809 
 360      39F78337 
 360      E7D6543A 
 360      E7D6FE
 361 1357 C2D348B9 		.ascii	"\302\323H\271\234\313\225\370D\370P\206\234[g\225sI"
 361      9CCB95F8 
 361      44F85086 
 361      9C5B6795 
 361      7349
 362 1369 E063CEB9 		.ascii	"\340c\316\271uX\316\015\016 \347~m\3638\266\373\272"
 362      7558CE0D 
 362      0E20E77E 
 362      6DF338B6 
 362      FBBA
 363 137b 5EDFE595 		.ascii	"^\337\345\225\344nd\223g\006\177\305\244_t\010\377\337"
 363      E46E6493 
 363      67067FC5 
 363      A45F7408 
 363      FFDF
 364 138d 5373BBAB 		.ascii	"Ss\273\253oUl\370\033n\370\025y?\314;\345WX\336\224"
 364      6F556CF8 
 364      1B6EF815 
 364      793FCC3B 
 364      E55758DE 
 365 13a2 C6F34045 		.ascii	"\306\363@E'&&\251\377MJI\233\2244q\022|\216\0355~J\242"
 365      272626A9 
 365      FF4D4A49 
 365      9B943471 
 365      127C8E1D 
 366 13ba 8B848C4D 		.ascii	"\213\204\214MK\355\222\230\354`\037\235\271\350B\335"
 366      4BED9298 
 366      EC601F9D 
 366      B9E842DD 
 367 13ca ED75FBF1 		.ascii	"\355u\373\361i\334z\302\370\211\223\322\222\372\017"
 367      69DC7AC2 
 367      F88993D2 
 367      92FA0F
 368 13d9 1D3270C8 		.ascii	"\0352p\310\224$\327\030\327\370\211)#'\367\030\2338"
 368      9424D718 
 368      D7F88929 
 368      2327F718 
ARM GAS  /var/folders/c6/c789hm653lg9vtl73krp73tm0000gn/T//ccOdjWuU.s 			page 30


 368      9B38
 369 13eb 8628939D 		.ascii	"\206(\223\235o\277\233\322\261\274}\312\224II\003\207"
 369      6FBF9BD2 
 369      B1BC7DCA 
 369      94494903 
 369      87
 370 13fc 0C1B342C 		.ascii	"\014\0334,\311=\316\365\366\273\243S\222\300\3365\366"
 370      C93DCEF5 
 370      F6BBA353 
 370      92C0DE35 
 370      F6
 371 140d 8577C7B9 		.ascii	"\205w\307\271\230K\214\317\340\272\325\230\264?\247"
 371      984B8CCF 
 371      E0BAD598 
 371      B43FA7
 372 141c B1FEC821 		.ascii	"\261\376\310!\303\206\306\216r\246\245L\230\350\356"
 372      C386C68E 
 372      72A6A54C 
 372      98E8EE
 373 142b 18DB3A99 		.ascii	"\030\333:\231H\023I\350\330\224\261\343'\376\231\310"
 373      481349E8 
 373      D894B1E3 
 373      27FE99C8 
 374 143b 63474D88 		.ascii	"cGM\210\263\364\347\200R\322*\276D\012\237\265\2246"
 374      B3F4E780 
 374      52D22ABE 
 374      440A9FB5 
 374      9436
 375 144d 21A4FF80 		.ascii	"!\244\377\200\201\317=O\376\037\360VYu"
 375      81CF3D4F 
 375      FE1FF056 
 375      5975
 376              		.text
 377              		.section	.gnu.lto_mbox1_setup.8c9fbc276003b95a,"",%progbits
 378 0000 789C6362 		.ascii	"x\234cb`b@\007\222@|\031\210\345\200\230\221\231\201"
 378      60624007 
 378      92407C19 
 378      88E58098 
 378      919981
 379 0013 9169C239 		.ascii	"\221i\3029\006\206F\016&FF\020\203\201\221\241\236\211"
 379      0686460E 
 379      26464610 
 379      838191A1 
 379      9E89
 380 0025 B13E9211 		.ascii	"\261>\222\021\254v=\323\201\007\377\377\257\233wl\376"
 380      AC763DD3 
 380      8107FFFF 
 380      AF9B776C 
 380      FE
 381 0036 1AC6994C 		.ascii	"\032\306\231L\314@\021V\206\226\206\206\011\012\014"
 381      CC401156 
 381      86968686 
 381      090A0C
 382 0045 0CC96015 		.ascii	"\014\311`\025!@\022\244-\224\221\011D3\237gh{0s1W\""
 382      214012A4 
 382      2D949109 
 382      44339F67 
ARM GAS  /var/folders/c6/c789hm653lg9vtl73krp73tm0000gn/T//ccOdjWuU.s 			page 31


 382      687B3073 
 383 005c E3424656 		.ascii	"\343BFV\240t5\303\257\206\216\006\201LF\240r\210\211"
 383      A07435C3 
 383      AF868E06 
 383      814C46A0 
 383      728889
 384 006f 20118E4C 		.ascii	" \021\216LF\306\\F\006\250\"\210\232\206\311\214\231"
 384      46C65C46 
 384      06A82288 
 384      9A86C98C 
 384      99
 385 0080 8C4CDA0C 		.ascii	"\214L\332\014\253\032\200`#\220\315\014e\317\006\262"
 385      AB1A8060 
 385      2390CD0C 
 385      65CF06B2 
 386 0090 59721919 		.ascii	"Yr\031\031\223 \372\031\222\240\006AuG\000\245YY\031"
 386      9320FA19 
 386      92A00641 
 386      754700A5 
 386      595919
 387 00a3 3219D918 		.ascii	"2\031\331\030\030.24>\230\245\014\263\033\002B\200\312"
 387      182E3234 
 387      3E98A50C 
 387      B31B0242 
 387      80CA
 388 00b5 810E0305 		.ascii	"\201\016\003\005\203\214\236\236>\004\225\244\026\227"
 388      838C9E9E 
 388      3E0495A4 
 388      1697
 389 00c3 E8179580 		.ascii	"\350\027\225\200\351\334\244\374\012\275d\006\000!\273"
 389      E9DCA4FC 
 389      0ABD6406 
 389      0021BB
 390 00d2 3E90     		.ascii	">\220"
 391              		.text
 392              		.section	.gnu.lto_.symbol_nodes.8c9fbc276003b95a,"",%progbits
 393 0000 789C4D94 		.ascii	"x\234M\224\335KTQ\024\305\367\276\327\321\374\376,\353"
 393      DD4B5451 
 393      14C5F7BE 
 393      D7D1FCFE 
 393      2CEB
 394 0012 A927FF81 		.ascii	"\251'\377\201\036\373o4P0P00(\350\310\\\320>^\242\336"
 394      1EFB6F34 
 394      50305030 
 394      3028E8C8 
 394      5CD03E5E 
 395 0028 2A0DE682 		.ascii	"*\015\346\202\003#\314\300\01030\202\202\367\275\336"
 395      0323CCC0 
 395      08333082 
 395      82F7BDDE 
 396 0038 EAD19A43 		.ascii	"\352\321\232CN\2519\2455S\232\332=k\015\335\346\341"
 396      4EA939A5 
 396      35539ADA 
 396      3D6B0DDD 
 396      E6E1
 397 004a FE58E7AE 		.ascii	"\376X\347\256\265\317>\373\014\327\023On\264\013\177"
 397      B5CF3EFB 
ARM GAS  /var/folders/c6/c789hm653lg9vtl73krp73tm0000gn/T//ccOdjWuU.s 			page 32


 397      0CD7134F 
 397      6EB40B7F 
 398 005a DEB21A91 		.ascii	"\336\262\032\221\247oD\214Y~8\236:Q_\214\244\376\250"
 398      A76F448C 
 398      597E389E 
 398      3A515F8C 
 398      A4FEA8
 399 006d B419DFAB 		.ascii	"\264\031\337\253\251\321\326\313W\217\306S\237T\335"
 399      A9D1D6CB 
 399      578FC653 
 399      9F54DD
 400 007c EAAE1AEF 		.ascii	"\352\256\032\357\277\325\037\352\271\310\027mK\305\370"
 400      BFD51FEA 
 400      B9C8176D 
 400      4BC5F8
 401 008b ACA9187A 		.ascii	"\254\251\030z\252\306\247gaA\365\267\232\266D\375R\223"
 401      AAC6A767 
 401      6141F5B7 
 401      9AB644FD 
 401      5293
 402 009d 4AD49E9A 		.ascii	"J\324\236\232\366D5\325t$\252\241\346R\242~\252\351"
 402      F64435D5 
 402      7424AAA1 
 402      E652A27E 
 402      AAE9
 403 00af 4CD4B19A 		.ascii	"L\324\261\232\256D}W\323\235\250ojz\022u\244\2467Q\207"
 403      AE447D57 
 403      D39DA86F 
 403      6A7A1275 
 403      A4A63751 
 404 00c4 6AFA12F5 		.ascii	"j\372\022\365UM\177\242\352j\006\022\265\257f0Q\007"
 404      554D7FA2 
 404      EA6A0612 
 404      B5AF6630 
 404      5107
 405 00d6 6A861275 		.ascii	"j\206\022u\246f\370\237\362\245[\202\017\3471\273$\004"
 405      A666F89F 
 405      F2A55B82 
 405      0FE731BB 
 405      2404
 406 00e8 3B2558DC 		.ascii	";%X\334I\371~\237DN\373\275b\301~\011?\266\270xp\335"
 406      49F97E9F 
 406      444EFBBD 
 406      62C17E09 
 406      3FB6B878 
 407 00fe F77B2458 		.ascii	"\367{$Xr\024\331^jt8V\301Q\261\217wn\272\367\321\023"
 407      7214D95E 
 407      6A743856 
 407      C151B18F 
 407      776EBAF7 
 408 0114 C7AB12BC 		.ascii	"\307\253\022\274\255\265;m\301Q\011\237\235)\362\317"
 408      ADB53B6D 
 408      C151099F 
 408      9D29F2CF 
 409 0124 1DFB2478 		.ascii	"\035\373$x7\346\266\011\035.K\344 \222~?\206\032\016"
 409      37E6B609 
 409      1D2E4BE4 
ARM GAS  /var/folders/c6/c789hm653lg9vtl73krp73tm0000gn/T//ccOdjWuU.s 			page 33


 409      20927E3F 
 409      861A0E
 410 0137 718917BD 		.ascii	"q\211\027\275\250\340\320'\366%\372\012Vb\214H\350\020"
 410      A8E0D027 
 410      F625FA0A 
 410      56628C48 
 410      E810
 411 0149 EFBE82A2 		.ascii	"\357\276\202\242\341k\324\014'\234#\232p\375\006\267"
 411      E16BD40C 
 411      279C239A 
 411      70FD06B7 
 412 0159 F09C4485 		.ascii	"\360\234D\205I\347\315L\241\357)8\247\341\234\206\347"
 412      49E7CD4C 
 412      A1EF2938 
 412      A7E19C86 
 412      E7
 413 016a 369E3370 		.ascii	"6\2363p\316\3009\013\347,\234sp\316\241\257;hr\036\236"
 413      CEC0390B 
 413      E72C9C73 
 413      70CEA1AF 
 413      3B68721E 
 414 017f F87945EC 		.ascii	"\370yE\354<\326\357\372\376\220D\367|\177P\354}L\343"
 414      3CD6EFFA 
 414      FE9044F7 
 414      7C7F50EC 
 414      7D4CE3
 415 0192 01D68DF3 		.ascii	"\001\326\215\363\004\031\364h\211`\225\035g\025\371"
 415      0419F468 
 415      8960951D 
 415      6715F9
 416 01a1 2C549443 		.ascii	",T\224C\377\321\032G\3570,A\036G\334\3163W\340\330\212"
 416      FFD11A47 
 416      EF302C41 
 416      1E47DCCE 
 416      3357E0D8 
 417 01b6 B084455C 		.ascii	"\260\204E\\\212ma\235UJ\010\244\313@\246\314@\205\201"
 417      8A6D619D 
 417      554A08A4 
 417      CB40A6CC 
 417      408581
 418 01c9 0A9D2D6C 		.ascii	"\012\235-l0\260\311\300\026\003[\014T\031\250\262O\313"
 418      30B0C9C0 
 418      16035B0C 
 418      5419A8B2 
 418      4FCB
 419 01db 3913E95D 		.ascii	"9\023\351]X\354.\257\242\246\356\356\302\032\033\334"
 419      58EC2EAF 
 419      A2A6EEEE 
 419      C21A1BDC 
 420 01eb 838AF698 		.ascii	"\203\212\366\230\333\207\262\373\334\350\020*\250s\022"
 420      DB87B2FB 
 420      DCE8102A 
 420      A87312
 421 01fa 75E68E58 		.ascii	"u\346\216X\372\210\201c:\033\234D\223\223hr\022'\234"
 421      FA888163 
 421      3A1B9C44 
 421      93936872 
ARM GAS  /var/folders/c6/c789hm653lg9vtl73krp73tm0000gn/T//ccOdjWuU.s 			page 34


 421      12279C
 422 020d C409373A 		.ascii	"\304\0117:U7\356\300\375/\007%\274\340\325g<\334\223"
 422      5537EEC0 
 422      FD2F0725 
 422      BCE0D567 
 422      3CDC93
 423 0220 437C9921 		.ascii	"C|\231!\261\352a?\207\370|Y`\333!\016\344\030\310\321"
 423      B1EA613F 
 423      87F87C59 
 423      60DB210E 
 423      E418C8D1 
 424 0234 B946E419 		.ascii	"\271F\344\031\3103P`\240\200\305\250\210\\\264\216\234"
 424      C8335060 
 424      A080C5A8 
 424      885CB48E 
 424      9C
 425 0245 751891A0 		.ascii	"u\030\221\240\304@\011*,C\005\025\250\250\002\025n@"
 425      C440092A 
 425      2C430515 
 425      A8A80215 
 425      6E40
 426 0257 D90D56D9 		.ascii	"\331\015V\331dn\213\245\267\030\250\322i\331\331.;s"
 426      646E8BA5 
 426      B718A8D2 
 426      69D9D92E 
 426      3B73
 427 0269 188E67CD 		.ascii	"\030\216g\315^j\334\310aH\354\236\347\316\036\034\""
 427      5E6ADCC8 
 427      6148EC9E 
 427      E7CE1E1C 
 427      22
 428 027a 10D41108 		.ascii	"\020\324\021\010\3538\203m\341\210\373\035#\236n\260"
 428      EB38836D 
 428      E188FB1D 
 428      239E6EB0 
 429 028a 4A838126 		.ascii	"J\203\201&\003M:[8a\340\224\201s\006\316\331\331E\214"
 429      034D3A5B 
 429      3861E094 
 429      817306CE 
 429      D9D9458C 
 430 029e 01B1171C 		.ascii	"\001\261\027\034A\306\307\010\034\342\017CH\254\372"
 430      41C6C708 
 430      1CE20F43 
 430      48ACFA
 431 02ad 384AD6E7 		.ascii	"8J\326\347\220\201\252C\034\3101\220\243s\215\3103P"
 431      9081AA43 
 431      1CC83190 
 431      A3738DC8 
 431      3350
 432 02bf 6080A816 		.ascii	"`\200\250\026\030(2P\204\305\256\343]\246Dg\011\226"
 432      18283250 
 432      84C5AEE3 
 432      5DA64467 
 432      0996
 433 02d1 B00C4B54 		.ascii	"\260\014KT\206%\252\340]z\203\316\030\251k\370\304\311"
 433      8625AAE0 
 433      5D7A83CE 
ARM GAS  /var/folders/c6/c789hm653lg9vtl73krp73tm0000gn/T//ccOdjWuU.s 			page 35


 433      18A96BF8 
 433      C4C9
 434 02e3 5F1C1F82 		.ascii	"_\034\037\202\377"
 434      FF
 435              		.text
 436              		.section	.gnu.lto_.refs.8c9fbc276003b95a,"",%progbits
 437 0000 789C8DCA 		.ascii	"x\234\215\312\301\015\000!\010D\321\317\210\256\035"
 437      C10D0021 
 437      0844D1CF 
 437      88AE1D
 438 000f 59ADBD4A 		.ascii	"Y\255\275J\242&n\274\310\313\034\030\020\2423\307\301"
 438      A2266EBC 
 438      C8CB1C18 
 438      10A233C7 
 438      C1
 439 0020 6411B584 		.ascii	"d\021\265\204\353\300ro\377\313n^z\016\325U\226\375"
 439      EBC0726F 
 439      FFCB6E5E 
 439      7A0ED555 
 439      96FD
 440 0032 9F23C53E 		.ascii	"\237#\305>\325\220\225\030\373*\002v"
 440      D5909518 
 440      FB2A0276 
 441              		.text
 442              		.section	.gnu.lto_.decls.8c9fbc276003b95a,"",%progbits
 443 0000 789CBD5C 		.ascii	"x\234\275\\yt\024\307\231\357\356\231\2214 N\037\013"
 443      797414C7 
 443      99EFEE99 
 443      9134204E 
 443      1F0B
 444 0012 1BC79613 		.ascii	"\033\307\226\023g\22381\002\307\211\311\313s\260C\326"
 444      67933831 
 444      02C789C9 
 444      CB73B043 
 444      D6
 445 0023 36FBE25D 		.ascii	"6\373\342]\277\330~o\337K\262\343f\324 \3053\322\244"
 445      BFD87E6F 
 445      DF4BB2E3 
 445      66D420C5 
 445      33D2A4
 446 0036 A7C5B1FB 		.ascii	"\247\305\261\373\207[\002\203\2101\0217\346\020`\033"
 446      875B0283 
 446      88311137 
 446      E610601B 
 447 0046 6C6C8743 		.ascii	"ll\207CX\\\306\320@,\004\341\222d$\004F\014\230KYc "
 447      585CC6D0 
 447      402C04E1 
 447      92642404 
 447      460C984B 
 448 005d 5C0623B4 		.ascii	"\\\006#\264_}U=\323\335\323=\323-\234\325\243\252kz"
 448      5F7D553D 
 448      D3DDD33D 
 448      D32D9CD5 
 448      A3AA6B7A 
 449 0071 AA7EDFFD 		.ascii	"\252~\337\375Uuu\015\002'p\237\013\034\327\005\177\313"
 449      5575750D 
 449      0227709F 
ARM GAS  /var/folders/c6/c789hm653lg9vtl73krp73tm0000gn/T//ccOdjWuU.s 			page 36


 449      0B1CD705 
 449      7FCB
 450 0083 7FC771BF 		.ascii	"\177\307q\277\354\301q~\216\343~\016%\037\312R(\001"
 450      ECC1717E 
 450      8EE37E0E 
 450      251FCA52 
 450      2801
 451 0095 282BA054 		.ascii	"(+\240T\363\0347\035J-\264g\3025\027\256s\340:\027\312"
 451      F31C371D 
 451      4A2DB467 
 451      C23517AE 
 451      73E03A17 
 452 00aa EB50A640 		.ascii	"\353P\246@\001(n\031\\\027@\271\023\332+I\177(uP6@\331"
 452      01286E19 
 452      5C1740B9 
 452      13DA2B49 
 452      7F287550 
 453 00c1 0C650B14 		.ascii	"\014e\013\024\015J\003\224\335P\366@\331\007\245\011"
 453      0D4A0394 
 453      DD50F640 
 453      D907A509 
 454 00d1 CA21289F 		.ascii	"\312!(\237B9\016\3454\224\263P\276\200r\031\312U(9\200"
 454      42390EE5 
 454      3494B350 
 454      BE807219 
 454      CA552839 
 455 00e6 7913AE84 		.ascii	"y\023\256\204P\016\224oC\3713\224\035\204\260\341\217"
 455      500E946F 
 455      43F93394 
 455      1D84B0E1 
 455      8F
 456 00f7 D0BD03AE 		.ascii	"\320\275\003\256\215\034\345s=|\277\212\320\203\366"
 456      8D1CE573 
 456      3D7CBF8A 
 456      D083F6
 457 0106 0FA0FD00 		.ascii	"\017\240\375\000\224}P\356\202r\024\3565A\331/Py7B\277"
 457      947D50EE 
 457      827214EE 
 457      3541D92F 
 457      50793742 
 458 011b 045C7B33 		.ascii	"\004\\{3\035\034\200\373\215\002\325\303\203p\035\002"
 458      1D1C80FB 
 458      8D02D5C3 
 458      83701D02 
 459 012b E500B47F 		.ascii	"\345\000\264\177\006\327O9\312\323J&\327f&g3|\327\""
 459      06D74F39 
 459      CAD34A26 
 459      D7662667 
 459      337CD722 
 460 013f 507D107E 		.ascii	"P}\020~\277m\341\217\350\344\273l\254N\247\226\351z"
 460      BF6DE18F 
 460      E8E4BB6C 
 460      AC4EA796 
 460      E97A
 461 0151 3B7CB786 		.ascii	";|\267\206\350\221\243:M\030x\320\345 \3668F\344\206"
 461      E891A33A 
 461      4D1878D0 
ARM GAS  /var/folders/c6/c789hm653lg9vtl73krp73tm0000gn/T//ccOdjWuU.s 			page 37


 461      E520F638 
 461      46E486
 462 0164 6B02AEC7 		.ascii	"k\002\256\307\241l\203\373'\004*\357y\236\332\3503\370"
 462      A16C83FB 
 462      27042AEF 
 462      799EDAE8 
 462      33F8
 463 0176 7C02AEEF 		.ascii	"|\002\256\357\302\275\223\320\356\200\366)\270\266\021"
 463      C2BD93D0 
 463      EE80F629 
 463      B8B611
 464 0185 FD0A299B 		.ascii	"\375\012)\2336C9CtAt\016\327\375<\345e\032\\\267\303"
 464      36433943 
 464      7441740E 
 464      D7FD3CE5 
 464      651A5CB7 
 465 019a 5583B205 		.ascii	"U\203\262\005\312j(w1\376;\240\337\347L\316\335\314"
 465      CA6A2877 
 465      31FE3BA0 
 465      DFE74CCE 
 465      DDCC
 466 01ac 9EE7056A 		.ascii	"\236\347\005j\317\253\002\265\361J\203\375N3\273v\012"
 466      CFAB02B5 
 466      F14A83FD 
 466      4E33BB76 
 466      0A
 467 01bd D4AE8798 		.ascii	"\324\256\207\230\315?e\366'~G\024\306\373\340\002\305"
 467      CD3F65F6 
 467      277E4714 
 467      C6FBE002 
 467      C5
 468 01ce E733EBAC 		.ascii	"\3473\353\254\216\371\234\337G\345\267\372\3365\213"
 468      8EF99CDF 
 468      47E5B7FA 
 468      DE358B
 469 01dd FF096CCC 		.ascii	"\377\011l\314U\326\326}\306\370\327\223\373\243\252"
 469      55D6D67D 
 469      C6F8D793 
 469      FBA3AA
 470 01ec 56AA4B26 		.ascii	"V\252K&\251O7\364\356\307U\253\360W0\257w\220\253\""
 470      A94F37F4 
 470      EEC755AB 
 470      F05730AF 
 470      7790AB22 
 471 0200 B713CBB4 		.ascii	"\267\023\313\264\001\363\300<\377\311\213<\334\313\303"
 471      01F3C03C 
 471      FFC98B3C 
 471      DCCBC3
 472 020f 467E9023 		.ascii	"F~\220#\016\370\035\356-\350\013\003\204dgu\300\000"
 472      0EF81DEE 
 472      2DE80B03 
 472      84646775 
 472      C000
 473 0221 FBBE22FF 		.ascii	"\373\276\"\377\026\377\035\250\227\361A\244J\276\242"
 473      16FF1DA8 
 473      97F141A4 
 473      4ABEA2
ARM GAS  /var/folders/c6/c789hm653lg9vtl73krp73tm0000gn/T//ccOdjWuU.s 			page 38


 474 0230 6DBDD585 		.ascii	"m\275\325\205<\012<g\373\227m$\243\371\242N3\037\373"
 474      3C0A3C67 
 474      FB976D24 
 474      A3F9A24E 
 474      331FFB
 475 0243 A6C4A13D 		.ascii	"\246\304\241=\355{\211\374\333|?l\241\034*\323\005\366"
 475      ED7B89FC 
 475      DB7C3F6C 
 475      A11C2AD3 
 475      05F6
 476 0255 60230AF4 		.ascii	"`#\012\364\021~6\342\035\0037\371\301T\243\247\211g"
 476      117E36E2 
 476      1D0337F9 
 476      C154A3A7 
 476      8967
 477 0267 BD9723CC 		.ascii	"\275\227#\314R>9\300d\207\376\334td\274!\245zM\320\007"
 477      523E39C0 
 477      6487FEDC 
 477      7464BC21 
 477      A57A4DD0 
 478 027c 7F4FD77D 		.ascii	"\177O\327}u\342\374\211\001\252_\344\337\345\373\203"
 478      75E2FC89 
 478      01AA5FE4 
 478      DFE5FB83 
 479 028c EE1EE4B9 		.ascii	"\356\036\344\271\007\271\025\324$\225\337\260QbVT\302"
 479      07B915D4 
 479      2495DFB0 
 479      51625654 
 479      C2
 480 029d D24AC012 		.ascii	"\322J\300\022\371?\363\0172\373j\027\245\002z\227c\367"
 480      F93FF30F 
 480      32FB6A17 
 480      A5027A97 
 480      63F7
 481 02af 6DFEEEE7 		.ascii	"m\376\356\347\226\000M\355R\307.^\235\221o\022\305\244"
 481      96004DED 
 481      52C72E5E 
 481      9D916F12 
 481      C5A4
 482 02c1 537B4D30 		.ascii	"S{M0a\256]\231\372\230\252\346\211|-\250M\340b\274\211"
 482      61AE5D99 
 482      FA98AAE6 
 482      897C2DA8 
 482      4DE062BC 
 483 02d6 9E7B9CA3 		.ascii	"\236{\234\243;\377\262\206\257TU\370\242\016\221v\360"
 483      3BFFB286 
 483      AF5455F8 
 483      A20E9176 
 483      F0
 484 02e7 DD855ABF 		.ascii	"\335\205Z\277o\375Pdi\003\002\275#\230\201D>'h\366R"
 484      6FFD5064 
 484      690302BD 
 484      23988144 
 484      3E2768F6 
 485 02fc F8AC7720 		.ascii	"\370\254w h\360\221P\372\222L.\374\313\354\016\371\220"
 485      68F09150 
 485      FA924C2E 
ARM GAS  /var/folders/c6/c789hm653lg9vtl73krp73tm0000gn/T//ccOdjWuU.s 			page 39


 485      FCCBEC0E 
 485      F990
 486 030e CBFDBF8F 		.ascii	"\313\375\277\217s\362\3015)\037\024\270Z\224\220X\333"
 486      73F2C135 
 486      291F14B8 
 486      5A949058 
 486      DB
 487 031f AE7BD2DB 		.ascii	"\256{\322\333\015>m\362\200\304\371\232E\003\325%\333"
 487      0D3E6DF2 
 487      80C4F99A 
 487      4503D525 
 487      DB
 488 0330 790A2B70 		.ascii	"y\012+p\233=\343\025\230<\352\206\3240X\307\332\341"
 488      9B3DE315 
 488      983CEA86 
 488      D43058C7 
 488      DAE1
 489 0342 062BCF91 		.ascii	"\006+\317\2217\355\246\001k\217g,#_\252\326u*\010\216"
 489      37EDA601 
 489      6B8F672C 
 489      235FAAD6 
 489      752A088E 
 490 0356 6E1350A6 		.ascii	"n\023P\246\334\302\274\350\310\234\315>\364\242\035"
 490      DCC2BCE8 
 490      C89CCD3E 
 490      F4A21D
 491 0365 18A7572C 		.ascii	"\030\247W,^\224\015E\340*|dD\27552\333\226\362\005\364"
 491      5E940D45 
 491      E02A7C64 
 491      44BD3532 
 491      DB96F205 
 492 037a 76B6D054 		.ascii	"v\266\320T\265#N\014?n\224\2261\374\321\374O\246\363"
 492      B5234E0C 
 492      3F6E9496 
 492      31FCD1FC 
 492      4FA6F3
 493 038d 13318276 		.ascii	"\0231\202v#\313k}\266,/y\334\011\010\254\205C\366Zx"
 493      23CB6B7D 
 493      B62C2F79 
 493      DC0908AC 
 493      8543F65A 
 494 03a2 4EB4B55F 		.ascii	"N\264\265_\253\344+\020z\257\253\234r\361U\352Q\266"
 494      ABE42B10 
 494      7AAFAB9C 
 494      72F155EA 
 494      51B6
 495 03b4 F9B1EAB3 		.ascii	"\371\261\352\263T\356Wst\006^LI\262\371\3600\222 \233"
 495      54EE5773 
 495      74065E4C 
 495      49B2F9F0 
 495      3092209B 
 496 03c8 A8E2EDA5 		.ascii	"\250\342\355\245\310\200\"p\267p\314\30141j>\236\300"
 496      C8802270 
 496      B770CCC1 
 496      34316A3E 
 496      9EC0
 497 03da C438E84A 		.ascii	"\3048\350J\214\271\323\364\300hD\007\254\362\353\270"
ARM GAS  /var/folders/c6/c789hm653lg9vtl73krp73tm0000gn/T//ccOdjWuU.s 			page 40


 497      8CB9D3F4 
 497      C0684407 
 497      ACF2EBB8 
 498 03ea DD0A346D 		.ascii	"\335\0124m\376\276\374jQ\007\373\223g0s\224-\336\267"
 498      FEBEFC6A 
 498      5107FB93 
 498      67307394 
 498      2DDEB7
 499 03fd 109963F3 		.ascii	"\020\231c\363\270\233\\}\221\345\352\243\230\030\347"
 499      B89B5C7D 
 499      91E5EAA3 
 499      9818E7
 500 040c F86D32AC 		.ascii	"\370m2\254+\240\243\223?\336\306\222u\002\241j\272\015"
 500      2BA0A393 
 500      3FDEC692 
 500      7502A16A 
 500      BA0D
 501 041e B57EDAE6 		.ascii	"\265~\332\346\237\"O\237!\320\333~k\262\316\265$\353"
 501      9F224F9F 
 501      21D0DB7E 
 501      6BB2CEB5 
 501      24EB
 502 0430 5C73F2CC 		.ascii	"\\s\362\314\015\246\032$g\366\341\376\301\335!\335\272"
 502      0DA61A24 
 502      67F6E1FE 
 502      C1DD21DD 
 502      BA
 503 0441 319C634A 		.ascii	"1\234cJS\023\207j\366\370^W\265\211>= s\234t$p\033\221"
 503      5313876A 
 503      F6F85E57 
 503      B5893E3D 
 503      20739C74 
 504 0459 D659AB27 		.ascii	"\326Y\253'\317<\335\360\375y\252\332\227~\225\335\221"
 504      CF3CDDF0 
 504      FD79AADA 
 504      977E95DD 
 504      91
 505 046a EB76CF75 		.ascii	"\353v\317u\216G\003\365%\311\225\305\003H\376\014\222"
 505      8E4703F5 
 505      25C995C5 
 505      0348FE0C 
 505      92
 506 047b 3F6725DF 		.ascii	"?g%\337z&\361sJ\376\234+\362\213\233f\245\223\027\371"
 506      7A26F173 
 506      4AFE9C2B 
 506      F28B9B66 
 506      A59317F9 
 507 048f 9FDF95C9 		.ascii	"\237\337\225\3113f\236>{\317b$r\021\343eQ\300\352\032"
 507      33669E3E 
 507      7BCF6224 
 507      7211E365 
 507      51C0EA1A 
 508 04a3 C38C0B37 		.ascii	"\303\214\0137\372\331\320A\340\226\007t\356\2737/\266"
 508      FAD9D041 
 508      E0960774 
 508      EEBB372F 
 508      B6
ARM GAS  /var/folders/c6/c789hm653lg9vtl73krp73tm0000gn/T//ccOdjWuU.s 			page 41


 509 04b4 9ED146AC 		.ascii	"\236\321F\254\250U\325)9:\017+<#\026\230\024Q\333\204"
 509      A855D529 
 509      393A0F2B 
 509      3C231698 
 509      1451DB84 
 510 04c8 098082BD 		.ascii	"\011\200\202\275\357\006,\303\324\370\201\021l\225g"
 510      EF062CC3 
 510      D4F88111 
 510      6C9567
 511 04d7 303367EB 		.ascii	"03g\353\214`\265n\300\372:s\266\301\010V\347\031\314"
 511      8C60B56E 
 511      C0FA3A73 
 511      B6C10856 
 511      E719CC
 512 04ea CCD92623 		.ascii	"\314\331&#\330\0067`\003\2349\333l\004\333\354\031\314"
 512      D8063760 
 512      039C39DB 
 512      6C04DBEC 
 512      19CC
 513 04fc CCD91623 		.ascii	"\314\331\026#\230\346\006\254\300\206\263\344\237\323"
 513      98E606AC 
 513      C086B3E4 
 513      9FD3
 514 050a 5AEF73E3 		.ascii	"Z\357s\343ZoG@O\010\036}\232Ka\354\014xM`&\271a\036"
 514      5A6F4740 
 514      4F081E7D 
 514      9A4B61EC 
 514      0C784D60 
 515 0522 DDFB263F 		.ascii	"\335\373&?s\202JVft.\333\353\0061\203\303\2543N\214"
 515      73824A56 
 515      66742EDB 
 515      EB063183 
 515      C3AC334E 
 516 0537 073D8399 		.ascii	"\007=\203\231\315\362\011\001\263\244\2327y\347\307"
 516      CDF20901 
 516      B3A49A37 
 516      79E7C7
 517 0546 C2A98241 		.ascii	"\302\251\202A\277G\335\020\317\340`\027\322\210\263"
 517      BF47DD10 
 517      CFE06017 
 517      D288B3
 518 0555 B9509BA4 		.ascii	"\271P\233\244V\361\025k\356\311\270\206\203\234\367"
 518      56F1156B 
 518      EEC9B886 
 518      839CF7
 519 0564 CD7731E7 		.ascii	"\315w1\347U\013d:<\031\260\235W]a\035\235\274_\237\244"
 519      550B643A 
 519      3C19B09D 
 519      575D611D 
 519      9DBC5F9F 
 520 0579 6722D8F9 		.ascii	"g\"\330\371\356\203-Y\277\357\036\262$\233\203@_\246"
 520      EE832D59 
 520      BFEF1EB2 
 520      249B8340 
 520      5FA6
 521 058b 65E2A065 		.ascii	"e\342\240e\222\016\232\247\321`0\325\350\322\377\314"
 521      920E9AA7 
ARM GAS  /var/folders/c6/c789hm653lg9vtl73krp73tm0000gn/T//ccOdjWuU.s 			page 42


 521      D16030D5 
 521      E8D2FFCC 
 522 059b 9B06FFD0 		.ascii	"\233\006\377\3201N\226\377\223\321\362\023r\274Z\336"
 522      314E96FF 
 522      93D1F213 
 522      72BC5ADE 
 523 05ab 1C1587DA 		.ascii	"\034\025\207\332\333}sU\255\302g\330X\311\270\013\003"
 523      DB7D7355 
 523      ADC267D8 
 523      58C9B80B 
 523      03
 524 05bc 0BB2536C 		.ascii	"\013\262SlA\266\000\365:-\307\326@.\200\216N\376\363"
 524      41B600F5 
 524      3A2DC7D6 
 524      402E808E 
 524      4EFEF3
 525 05cf 0F10A806 		.ascii	"\017\020\250\006\201\346v\033h\375\264\032\372\354\274"
 525      81E6761B 
 525      68FDB41A 
 525      FAECBC
 526 05de 148116E7 		.ascii	"\024\201\026\347X-\315[,\315\233-\220\334\343a[<\377"
 526      582DCD5B 
 526      2CCD9B2D 
 526      90DCE361 
 526      5B3CFF
 527 05f1 A8BE3015 		.ascii	"\250\2760\025[\315e\022'C\276\325\223X\373\311\231\374"
 527      5BCD6512 
 527      2743BED5 
 527      9358FBC9 
 527      99FC
 528 0603 A54A75DE 		.ascii	"\245Ju\336`\017\366:\316\354\265\034\265\263&M;D\375"
 528      600FF63A 
 528      CEECB51C 
 528      B5B3264D 
 528      3B44FD
 529 0616 DEC4D8E8 		.ascii	"\336\304\330\350Y\214<\263\0305g\274\213\321\301\304"
 529      598C3CB3 
 529      183567BC 
 529      8BD1C1C4 
 530 0626 780FC5D8 		.ascii	"x\017\305\330\3665\210\261\313\263\030}\015b\220'\314"
 530      F63588B1 
 530      CBB3187D 
 530      0D629027 
 530      CC
 531 0637 CBB3E894 		.ascii	"\313\263\350\224r\0077#\363\242\230\360\263Z\270\303"
 531      72073723 
 531      F3A298F0 
 531      B35AB8C3 
 532 0647 FC547D65 		.ascii	"\374T}e?y\252&\267\263?U\317lZ\310\236\352\350\236\325"
 532      3F79AA26 
 532      B7B33F55 
 532      CF6C5AC8 
 532      9EEAE89E 
 533 065c 01E49D8C 		.ascii	"\001\344\235\214\355\3162Q\325V\323e\000\005k\275-\260"
 533      EDCE3251 
 533      D556D365 
 533      00056BBD 
ARM GAS  /var/folders/c6/c789hm653lg9vtl73krp73tm0000gn/T//ccOdjWuU.s 			page 43


 533      2DB0
 534 066e 4A6DEB0C 		.ascii	"Jm\353\014\375\221s\030\231\013\023\267\011\367i\223"
 534      FD917318 
 534      990B13B7 
 534      09F76993 
 535 067e 753AB24C 		.ascii	"u:\262L\214M\016\371.\271\251P\257O\"\233\004\302\320"
 535      8C4D0EF9 
 535      2EB9A950 
 535      AF4F229B 
 535      04C2D0
 536 0691 99346769 		.ascii	"\2314gi\344-\313pr\303\320\305\311\206\033\215\311\367"
 536      E42DCB70 
 536      72C3D0C5 
 536      C9861B8D 
 536      C9F7
 537 06a3 C6EDC909 		.ascii	"\306\355\311\011ap\354-\352?\026\371\352\035\344#\034"
 537      6170EC2D 
 537      EA3F16F9 
 537      EA1DE423 
 537      1C
 538 06b4 6C3572A0 		.ascii	"l5r\240\346\336\236\246k\232\255\232\266y\276Ry\343"
 538      E6DE9EA6 
 538      6B9AAD9A 
 538      B679BE52 
 538      79E3
 539 06c6 FA45E026 		.ascii	"\372E\340&#\321\035\202\345\371\252\361F\303d\266QA"
 539      23D11D82 
 539      E5F9AAF1 
 539      46C364B6 
 539      5141
 540 06d8 BECBEED2 		.ascii	"\276\313\356\322Wp\243H\337\370Y\235D\265\233\321\263"
 540      5770A348 
 540      DFF8599D 
 540      44B59BD1 
 540      B3
 541 06e9 8B729DEE 		.ascii	"\213r\235\356\010\353\353\261\015V8\217\317)d\013\317"
 541      08EBEBB1 
 541      0D56388F 
 541      CF29640B 
 541      CF
 542 06fa 9B62A8F3 		.ascii	"\233b\250\363im\247HP\357\021\210LZ\256\325\357\250"
 542      696DA748 
 542      50EF1188 
 542      4C5AAED5 
 542      EFA8
 543 070c 660C7E97 		.ascii	"f\014~\227R\243\310\177,\220\027\027\365\302\375P7`"
 543      52A3C87F 
 543      2C901717 
 543      F5C2FD50 
 543      3760
 544 071e BD1BEAE4 		.ascii	"\275\033\352\344\237\223G\374\325\350\021\015\236\345"
 544      9F9347FC 
 544      D5E8110D 
 544      9EE5
 545 072c 2EB058C7 		.ascii	".\260X\307\211\314v#\231\375\267\347x\260\3568\357\307"
 545      89CC7623 
 545      99FDB7E7 
ARM GAS  /var/folders/c6/c789hm653lg9vtl73krp73tm0000gn/T//ccOdjWuU.s 			page 44


 545      78B0EE38 
 545      EFC7
 546 073e ED040F1B 		.ascii	"\355\004\017\033A\235l\002h\302\011\240%M\267\011\353"
 546      419D6C02 
 546      68C209A0 
 546      254DB709 
 546      EB
 547 074f 34EF665F 		.ascii	"4\357f_\344Dw\005I\376\011\\G\256\213EX\201\215\316"
 547      E4447705 
 547      49FE095C 
 547      47AE8B45 
 547      58818DCE 
 548 0763 F579A4E6 		.ascii	"\365y\244\346\032\233G\262n\256\350\031\356\360\236"
 548      1A9B47B2 
 548      6EAEE819 
 548      EEF09E
 549 0772 0AB66D7A 		.ascii	"\012\266mz\010=\355\234E\033.vin\342\220#\3260n\253"
 549      083DED9C 
 549      451B2E76 
 549      696EE290 
 549      23D6306E 
 550 0787 B9AC6F9B 		.ascii	"\271\254o\233\036q\021\306\225Z\363\253\306\375F\221"
 550      1E7111C6 
 550      955AF3AB 
 550      C6FD4691 
 551 0797 6FE30586 		.ascii	"o\343\005\206\333]\215\232\214x\304\020 G1@\332\215"
 551      DB5D8D9A 
 551      8C78C410 
 551      20473140 
 551      DA8D
 552 07a9 41217053 		.ascii	"A!pS\363\\h\377{N\256\250j\327\233\027\362\224\177\232"
 552      F35C68FF 
 552      7B4EAEA8 
 552      6AD79B17 
 552      F2947F9A 
 553 07bd 88E658F1 		.ascii	"\210\346X\361\354\022\221\011\317dM\255\272\3050\263"
 553      EC129109 
 553      CF644DAD 
 553      BAC530B3 
 554 07cd 2E75C3   		.ascii	".u\303"
 555 07d0 DC6027B0 		.ascii	"\334`'\260Jm!\005\243.\377\266\033\260\241N\222Vj\037"
 555      4A6D2105 
 555      A32EFFB6 
 555      1BB0A14E 
 555      92566A1F 
 556 07e4 CED12DB5 		.ascii	"\316\321-\265\035\247\305Z\317xf\346\232[\3645\011\335"
 556      1DA7C55A 
 556      CF7866E6 
 556      9A5BF435 
 556      09DD
 557 07f6 9BDDEC06 		.ascii	"\233\335\354\006\357qg\376.\3161-#vz\2063\033\242\263"
 557      EF7167FE 
 557      2ECE312D 
 557      23767A86 
 557      331BA2B3 
 558 080a 851876EA 		.ascii	"\205\030v\352\000\273\315w-\231\272\311\303\021\213"
 558      00BBCD77 
ARM GAS  /var/folders/c6/c789hm653lg9vtl73krp73tm0000gn/T//ccOdjWuU.s 			page 45


 558      2D99BAC9 
 558      C3118B
 559 0819 AAADCB2F 		.ascii	"\252\255\313/\016\234\200\236\177\016\203\352\213\274"
 559      0E9C809E 
 559      7F0E83EA 
 559      8BBC
 560 0827 ECBBF866 		.ascii	"\354\273\370f \342\260\027,\021\245\255\251\317'\217"
 560      20E2B017 
 560      2C11A5AD 
 560      A9CF278F 
 561 0837 A1175C45 		.ascii	"\241\027\\E\323\332z\317\033\344u,/^B'\251\010~-yq\012"
 561      D3DA7ACF 
 561      1BE4752C 
 561      2F5E4227 
 561      A9087E2D 
 562 084e C25CF01E 		.ascii	"\302\\\360\036\305,\301o]\3368p#\333\206\244\214M\363"
 562      C52CC16F 
 562      5DDE3870 
 562      23DB86A4 
 562      8C4DF3
 563 0861 8C68F6B6 		.ascii	"\214h\366\266u\365\030\012\024l\226\033\260\014\323"
 563      75F5180A 
 563      146C961B 
 563      B00CD3
 564 0870 FB0602E6 		.ascii	"\373\006\002\346A\307+^\243:\276\211\324_\377zt\274"
 564      41C72B5E 
 564      A33ABE89 
 564      D45FFF7A 
 564      74BC
 565 0882 C4B31026 		.ascii	"\304\263\020&\215\200\216;\006n\374@U\327\274\350e\213"
 565      8D808E3B 
 565      066EFC40 
 565      55D7BCE8 
 565      658B
 566 0894 E5DA46E6 		.ascii	"\345\332F\346/\344\241_\340\336H\223e\246\365A\312\345"
 566      2FE4A15F 
 566      E0DE4893 
 566      65A6F541 
 566      CAE5
 567 08a6 8685C0BD 		.ascii	"\206\205\300\275g\025\310.u\332\355\250\331\375\031"
 567      6715C82E 
 567      75DAEDA8 
 567      D9FD19
 568 08b5 2349E42F 		.ascii	"#I\344/b\352\377;\256\212\256a}\035\353\257\260V}\246"
 568      62EAFF3B 
 568      AE8AAE61 
 568      7D1DEBAF 
 568      B0567DA6 
 569 08c9 29615DD0 		.ascii	")a]\320\2229\314Q\312\232O\273f$\365RN\344[\361t\311"
 569      9239CC51 
 569      CA9A4FBB 
 569      6624F552 
 569      4EE45BF1 
 570 08df 219E903D 		.ascii	"!\236\220=\214\365\247X\237\301z2\2623\005\353W\261"
 570      8CF5A758 
 570      9FC17A32 
 570      B23305EB 
ARM GAS  /var/folders/c6/c789hm653lg9vtl73krp73tm0000gn/T//ccOdjWuU.s 			page 46


 570      57B1
 571 08f1 9E86F57C 		.ascii	"\236\206\365|\254\227a\375.\326\253\260n\305:\201\365"
 571      AC9761FD 
 571      2ED6ABB0 
 571      6EC53A81 
 571      F5
 572 0902 09AC4F62 		.ascii	"\011\254Ob}\032\353\263X\377\015\353\317\335,\005-O"
 572      7D1AEBB3 
 572      58FF0DEB 
 572      CFDD2C05 
 572      2D4F
 573 0914 31FA64BC 		.ascii	"1\372d\274\267\333o\023\332\332o\276a\3345\205\371\330"
 573      B7DB6F13 
 573      DADA6FBE 
 573      61DC3585 
 573      F9D8
 574 0926 33624126 		.ascii	"3bA&\325\3565\250v?\252\366\000*r\222\331\242[\202\372"
 574      D5EE35A8 
 574      763FAAF6 
 574      002A7292 
 574      D9A25B82 
 575 093b 7BE9EE3C 		.ascii	"{\351\356<\035\250\211#-\353\177\232Zo\272;$\262\214"
 575      1DA88923 
 575      2DEB7F9A 
 575      5A6FBA3B 
 575      24B28C
 576 094e C5FC148C 		.ascii	"\305\374\024\214\223\372\2648\251\263\306\274\207#\022"
 576      93FAB438 
 576      A9B3C6BC 
 576      872312
 577 095d 02B7C72A 		.ascii	"\002\267\307*\221\333\014f\257\307z\203\036\033P\217"
 577      91DB0C66 
 577      AFC77A83 
 577      1E1B508F 
 578 096d BB508F55 		.ascii	"\273P\217Uf=6\005-\247\021^\324I\345s\031#\224\351q"
 578      663D3605 
 578      2DA7115E 
 578      D449E573 
 578      192394E9 
 579 0982 D589065F 		.ascii	"\325\211\006_\005\321\243~\304\340\250\033@\273\015"
 579      05D1A37E 
 579      C4E0A81B 
 579      40BB0D
 580 0991 487B3156 		.ascii	"H{1V\032\304X\205b\254F16c\275\005k\015\353\355XO\363"
 580      1AC45885 
 580      62AC4631 
 580      3663BD05 
 580      6B0DEBED 
 581 09a8 B9888A15 		.ascii	"\271\210\212\025\016g\237\034\016m\015\326\307\347\260"
 581      0E679F1C 
 581      0E6D0DD6 
 581      C7E7B0
 582 09b7 F1D37D5E 		.ascii	"\361\323}^\017m\315\360\331\037\332\012d\341\264\332"
 582      0F6DCDF0 
 582      D91FDA0A 
 582      64E1B4DA 
 583 09c7 97E4D4FD 		.ascii	"\227\344\324\375\344\364\321\341\272\007\321Qg\242\243"
ARM GAS  /var/folders/c6/c789hm653lg9vtl73krp73tm0000gn/T//ccOdjWuU.s 			page 47


 583      E4F4D1E1 
 583      BA07D151 
 583      67A2A3
 584 09d6 767C1D93 		.ascii	"v|\035\223\223\255\236`\335C\367\370\365\254z\267\316"
 584      93AD9E60 
 584      DD43F7F8 
 584      F5AC7AB7 
 584      CE
 585 09e7 CD598121 		.ascii	"\315Y\201!\317\365\254\252y\016\252\372a\026U\315I\251"
 585      CFF5ACAA 
 585      790EAAFA 
 585      611655CD 
 585      49A9
 586 09f9 CA765D16 		.ascii	"\312v]\026\323\007T\365f#^\367Y\337\010\257:>\200\256"
 586      D30754F5 
 586      66235EF7 
 586      59DF08AF 
 586      3A3E80AE 
 587 0a0d F7C857D9 		.ascii	"\367\310W\3317,\026\324\367POh<\225\022\036<z\360\014"
 587      372C16D4 
 587      F7504F68 
 587      3C95121E 
 587      3C7AF00C 
 588 0a21 D55E1F59 		.ascii	"\325^\037Y\263\222\266\360\311\352I\371:\334\237\334"
 588      B392B6F0 
 588      C9EA49F9 
 588      3ADC9FDC 
 589 0a31 C13155DB 		.ascii	"\3011U\333\342\325\030\361f\270\303;\020p\306[m\304"
 589      E2D518F1 
 589      66B8C33B 
 589      1070C65B 
 589      6DC4
 590 0a43 9BED0E6F 		.ascii	"\233\355\016o\203\363!\002\255\326\2107\317\035\336"
 590      83F32102 
 590      ADD68837 
 590      CF1DDE
 591 0a52 929E3678 		.ascii	"\222\2366xV\313|@\201\011\230\300-\000`\266!\233\311"
 591      56CB7C40 
 591      810998C0 
 591      2D0060B6 
 591      219BC9
 592 0a65 2504AE06 		.ascii	"%\004\256\0069x\333g\331\226\235[\357+\240\2673\270"
 592      3978DB67 
 592      D9969D5B 
 592      EF2BA0B7 
 592      33B8
 593 0a77 04640C48 		.ascii	"\004d\014H=\214\374\372\372\327x5\241\361\306\204Rc"
 593      3D8CFCFA 
 593      FAD77835 
 593      A1F1C684 
 593      5263
 594 0a89 8893745F 		.ascii	"\210\223t_|\317s\234\274\357\020'\223{3\216`\371\225"
 594      7CCF739C 
 594      BCEF1027 
 594      937B338E 
 594      60F995
 595 0a9c 94C79E70 		.ascii	"\224\307\236p\006\207L\376y\036y\037W\243j\027\022\007"
ARM GAS  /var/folders/c6/c789hm653lg9vtl73krp73tm0000gn/T//ccOdjWuU.s 			page 48


 595      06874CFE 
 595      791E791F 
 595      57A36A17 
 595      1207
 596 0aae D75EFCED 		.ascii	"\327^\374\355\373d\275\257\336\352z\271B\345\357\346"
 596      FB64BDAF 
 596      DEEA7AB9 
 596      42E5EFE6 
 597 0abe 6633C154 		.ascii	"f3\301T^q<5A\004[\345\273\233\265^\360\351\2224\365"
 597      5E713C35 
 597      41045BE5 
 597      BB9BB55E 
 597      F0E99234 
 598 0ad3 E02DAAFF 		.ascii	"\340-\252\377\027n\031\301S\337Q}\210\206\223\205\357"
 598      176E19C1 
 598      53DF517D 
 598      88869385 
 598      EF
 599 0ae4 3EB34956 		.ascii	">\263IV\373LG\216\031k\235\353\216\017\\\244\263\306"
 599      FB4C478E 
 599      196B9DEB 
 599      8E0F5CA4 
 599      B3C6
 600 0af6 538202F7 		.ascii	"S\202\002\367\225+\022\265V\022k\355Hh5\3608Q\221\350"
 600      952B12B5 
 600      56126BED 
 600      486835F0 
 600      385191E8 
 601 0b0a EABA4F47 		.ascii	"\352\272OG\237\322\323\015z\235\025}]:z\242\232\350"
 601      9FD2D30D 
 601      7A9D157D 
 601      5D3A7AA2 
 601      9AE8
 602 0b1c F6DFE6D5 		.ascii	"\366\337\346\325\252\023\251\000\3565\273\221i\326G"
 602      AA13A900 
 602      EE35BB91 
 602      69D647
 603 0b2b 8F64D397 		.ascii	"\217d\323\227\306)5\243\246g\2471J\273~h\313\311\255"
 603      C62935A3 
 603      A667A731 
 603      4ABB7E68 
 603      CBC9AD
 604 0b3e 4DDBFEF9 		.ascii	"M\333\376\371uu\373D\265\253\353eN\227u\233\003\304"
 604      7575FB44 
 604      B5ABEB65 
 604      4E97759B 
 604      03C4
 605 0b50 47B61037 		.ascii	"G\266\0207\267\354\372Y\032\204\232o\017\261\325\026"
 605      B7ECFA59 
 605      1A849A6F 
 605      0FB1D516 
 606 0b60 A26555E3 		.ascii	"\242eU\3437\222\020&u\344q\223\361u\322+j\005\377\207"
 606      37921026 
 606      75E47193 
 606      F175D22B 
 606      6A05FF87 
 607 0b74 A4A73A9C 		.ascii	"\244\247:\234%\2075\204/\217$\312|\363{<\003}\322\201"
ARM GAS  /var/folders/c6/c789hm653lg9vtl73krp73tm0000gn/T//ccOdjWuU.s 			page 49


 607      25873584 
 607      2F8F24CA 
 607      7CF37B3C 
 607      037DD281 
 608 0b88 FC91F1B4 		.ascii	"\374\221\361\264\255\2672\274\240\335fU{ \230j3D\213"
 608      ADB732BC 
 608      A0DD6655 
 608      7B20986A 
 608      33448B
 609 0b9b 15E639C8 		.ascii	"\025\3469\310\277\323A\205\333\322U\270\314\001b\227"
 609      BFD34185 
 609      DBD255B8 
 609      CC016297 
 610 0bab 8321AF0F 		.ascii	"\203!\257\017L\203\250s\200\370\253\003\027\027\323"
 610      4C83A873 
 610      80F8AB03 
 610      1717D3
 611 0bba B9687680 		.ascii	"\271hv\200\330k\013\361\305\265\006\276j\206z\263\253"
 611      D86B0BF1 
 611      C5B506BE 
 611      6A867AB3 
 611      AB
 612 0bcb CBC7B977 		.ascii	"\313\307\271w\353\375V\375\256\340\323\334\372\244\003"
 612      EBFD56FD 
 612      AEE0D3DC 
 612      FAA403
 613 0bda 1F8D0E0E 		.ascii	"\037\215\016\016\325\346\340P\324`N\2344;[\332\362F"
 613      D5E6E050 
 613      D4604E9C 
 613      343B5BDA 
 613      F246
 614 0bec 675986A3 		.ascii	"gY\206\243\034->\363Y~\223 _8\010\322j'\210v\241~\252"
 614      1C2D3EF3 
 614      597E9320 
 614      5F3808D2 
 614      6A278876 
 615 0c03 CAD34CE4 		.ascii	"\312\323L\344^\237mV)\226\341\233S\023\033\023{\331"
 615      5E9F6D56 
 615      2996E19B 
 615      53131B13 
 615      7BD9
 616 0c15 B371C456 		.ascii	"\263q\304V\237\253n5\360N\372\254\315\240\211\243v\226"
 616      9FAB6E35 
 616      F04EFAAC 
 616      CDA089A3 
 616      7696
 617 0c27 4D7E60C7 		.ascii	"M~`\307\307-\234\315r\340,a\253\240Ow:)(\023_'2\362"
 617      C72D9CCD 
 617      72E02C61 
 617      ABA04F77 
 617      3A292813 
 618 0c3f 554B97D7 		.ascii	"UK\227\327\026\276\026;\360u\312\226\257\226\024_\224"
 618      16BE163B 
 618      F075CA96 
 618      AF96145F 
 618      94
 619 0c50 9CC0AD74 		.ascii	"\234\300\255t\0008c\013\320\336-\301:\334(<\371y\246"
ARM GAS  /var/folders/c6/c789hm653lg9vtl73krp73tm0000gn/T//ccOdjWuU.s 			page 50


 619      0038630B 
 619      D0DE2DC1 
 619      3ADC283C 
 619      F979A6
 620 0c63 CF4ED00D 		.ascii	"\317N\320\015\016|\236\263\345\263\251[|\236wc\200,"
 620      0E7C9EB3 
 620      E5B3A95B 
 620      7C9E7763 
 620      802C
 621 0c75 7C6E77E0 		.ascii	"|nw\340\363\222-\237\207\214\0069\217\006\371\253\003"
 621      F3922D9F 
 621      878C0639 
 621      8F06F9AB 
 621      03
 622 0c86 C0155B80 		.ascii	"\300\025[\200\217&O\035\250.\255\324\272\272\206y\310"
 622      8F264F1D 
 622      A82EADD4 
 622      BABA8679 
 622      C8
 623 0c97 6DD73C19 		.ascii	"m\327<\031d\212\255\240m\016|~e\346\363[\334R\365\300"
 623      648AADA0 
 623      6D0E7C7E 
 623      65E6F35B 
 623      DC52F5C0 
 624 0cab 01585C5C 		.ascii	"\001X\\\\\377\335L\265\262A\235\010\254\362 \354\033"
 624      FFDD4CB5 
 624      B2419D08 
 624      ACF220EC 
 624      1B
 625 0cbc 3C599D9F 		.ascii	"<Y\235\237E\020\262\302\262{\256'd.\366\242\323\346"
 625      4510B2C2 
 625      B27BAE27 
 625      642EF6A2 
 625      D3E6
 626 0cce BD5C57AF 		.ascii	"\275\\W\257E\344\361\363\015\374m\023\201\325\016\220"
 626      45E4F1F3 
 626      0DFC6D13 
 626      81D50E90 
 627 0cde 45D7641E 		.ascii	"E\327d\036\036\313\032\310O\030\020\227\376thjo\235"
 627      1ECB1AC8 
 627      4F181097 
 627      FE74686A 
 627      6F9D
 628 0cf0 397DA599 		.ascii	"9}\245\231\366\273\240\012?\345\363\021n\255Z\245\275"
 628      F6BBA00A 
 628      3FE5F311 
 628      6EAD5AA5 
 628      BD
 629 0d01 4847D28D 		.ascii	"HG\322\215\200\377\341n\020J\344\331\357\007\334\203"
 629      80FFE16E 
 629      104AE4D9 
 629      EF07DC83 
 630 0d11 F449021B 		.ascii	"\364I\002\033d\345O(C\362i]\265\355\241\017+\325\211"
 630      64E54F28 
 630      43F2695D 
 630      B5EDA10F 
 630      2BD589
ARM GAS  /var/folders/c6/c789hm653lg9vtl73krp73tm0000gn/T//ccOdjWuU.s 			page 51


 631 0d24 6B40E35D 		.ascii	"k@\343]|\3270\272\"\026\270\3524\312\351\313\362\311"
 631      7CD730BA 
 631      2216B8EA 
 631      34CAE9CB 
 631      F2C9
 632 0d36 7E21A5AF 		.ascii	"~!\245\257e\372\336\202\310/0l3\320\315\210_r;\324*"
 632      65FADE82 
 632      C82F306C 
 632      33D0CD88 
 632      5F723BD4 
 633 0d4b 958AC953 		.ascii	"\225\212\311S\313ddN\344'\371\277\345\014\312\030\271"
 633      CB64644E 
 633      E427F9BF 
 633      E50CCA18 
 633      B9
 634 0d5c 937EB325 		.ascii	"\223~\263%\233\250Y\320\350\036\311\355!\220\375\025"
 634      9BA859D0 
 634      E81EC9ED 
 634      2190FD15 
 635 0d6c 6A8102BA 		.ascii	"j\201\002\272\327Cw\224\222\267v\343\255\003:\035\313"
 635      D7437794 
 635      92B776E3 
 635      AD033A1D 
 635      CB
 636 0d7d 7CB73BC3 		.ascii	"|\267;\303\011\206\331\376\344|\207\354\220\276\330"
 636      0986D9FE 
 636      E47C87EC 
 636      90BED8
 637 0d8c A05454E4 		.ascii	"\240TT\344\213\220g\375w\361F\276\310\306 \223\214\000"
 637      8B9067FD 
 637      77F146BE 
 637      C8C62093 
 637      8C00
 638 0d9e 7946E0E8 		.ascii	"yF\340\350\236\030\333\216\303\317d\023\311\203\250"
 638      9E18DB8E 
 638      C3CF6413 
 638      C983A8
 639 0dad D9084FF3 		.ascii	"\331\010O\363\335.\353\016\010f\326\003z\020\203\317"
 639      DD2EEB0E 
 639      0866D603 
 639      7A1083CF 
 640 0dbd B7B5EF19 		.ascii	"\267\265\357\031\360\276\301\347mwD~\247\033\342\020"
 640      F0BEC1E7 
 640      6D77447E 
 640      A71BE210 
 641 0dcd D17FF2AC 		.ascii	"\321\177\362\254\314\345\245<\335\004y\313O\002tvos"
 641      CCE5A53C 
 641      DD0479CB 
 641      4F027476 
 641      6F73
 642 0ddf F6700125 		.ascii	"\366p\001%pKq\320\333\376\364\337\256\350GB\310w\331"
 642      704B71D0 
 642      DBFEF4DF 
 642      AEE84742 
 642      C877D9
 643 0df2 775816B5 		.ascii	"wX\026\265\323w\2616\207-\022\311-\374{\014\334\037"
 643      D377B136 
ARM GAS  /var/folders/c6/c789hm653lg9vtl73krp73tm0000gn/T//ccOdjWuU.s 			page 52


 643      872D12C9 
 643      2DFC7B0C 
 643      DC1F
 644 0e04 6E3DCEB8 		.ascii	"n=\316\270\177\017\271\177\317\201{G \230\277p\310\312"
 644      7F0FB97F 
 644      CF817B47 
 644      2098BF70 
 644      C8CA
 645 0e16 74DE3F99 		.ascii	"t\336?\231\304x_\351\212\367\346\303\346\367\310\365"
 645      C4785FE9 
 645      8AF7E6C3 
 645      E6F7C8F5 
 646 0e26 49DCEE6C 		.ascii	"I\334\356lYWj\237\034\306\367]\364\325\352>+\230\247"
 646      59576A9F 
 646      1CC6F75D 
 646      F4D5EA3E 
 646      2B98A7
 647 0e39 F75DAA76 		.ascii	"\367]\252v\210\202\235E\316\016z\006+0qvl\276\371\027"
 647      88829D45 
 647      CE0E7A06 
 647      2B307176 
 647      6CBEF917 
 648 0e4d 4647DCE0 		.ascii	"FG\334\340e8H}\341\260\341 \365g\236\301\314\314]5\202"
 648      6538487D 
 648      E1B0E120 
 648      F5679EC1 
 648      CCCC5D35 
 649 0e62 FDAF1B30 		.ascii	"\375\257\0330\273\203\321v\177F'\201\351\310Ov\247\327"
 649      BB83D176 
 649      7F462781 
 649      E9C84F76 
 649      A7D7
 650 0e74 F8C92EF4 		.ascii	"\370\311.\364Z\254\353\260^\217\365F\254?\364\2336\337"
 650      5AACEBB0 
 650      5E8FF546 
 650      AC3FF49B 
 650      36DF
 651 0e86 AF24A3C4 		.ascii	"\257$\243\304\326\025\263\357\027\3269\207\207\335Y"
 651      D615B3EF 
 651      17D63987 
 651      87DD59
 652 0e95 2408EE33 		.ascii	"$\010\3563\025\374+\350\303[1<\276\312\036\036\326\323"
 652      15FC2BE8 
 652      C35B313C 
 652      BECA1E1E 
 652      D6D3
 653 0ea7 5ED3FB90 		.ascii	"^\323\373\220!\333\323\302\243\275\363\025\026\036\333"
 653      21DBD3C2 
 653      A3BDF315 
 653      161EDB
 654 0eb6 5D8447A5 		.ascii	"]\204G\245v}n\206_\327\031\177\315\223\244\177\247A"
 654      767D6E86 
 654      5FD7197F 
 654      CD93A47F 
 654      A741
 655 0ec8 90C327F5 		.ascii	"\220\303'\365\237\011\356DA\336\351\223U\0203\020\304"
 655      9F09EE44 
ARM GAS  /var/folders/c6/c789hm653lg9vtl73krp73tm0000gn/T//ccOdjWuU.s 			page 53


 655      41DEE993 
 655      55103310 
 655      C4
 656 0ed9 390ED99D 		.ascii	"9\016\331\235.\3109]\220\335\256\004\3318W\367\376z"
 656      2EC8395D 
 656      90DDAE04 
 656      D93857F7 
 656      FE7A
 657 0eeb 3FF1B15D 		.ascii	"?\361\261]I\334\014>\346h\324JmS+:,\005k\364\014f\366"
 657      49DC0C3E 
 657      E668D44A 
 657      6D532B3A 
 657      2C056BF4 
 658 0f02 FE8F5AF5 		.ascii	"\376\217Z\365#\031\364e@\233\033\274\014\357\311\267"
 658      2319F465 
 658      409B1BBC 
 658      0CEFC9B7 
 659 0f12 B45A0F08 		.ascii	"\264Z\017\010\272_\313\036\364[\326\262\303,\217\351"
 659      BA5FCB1E 
 659      F45BD6B2 
 659      C32C8FE9 
 660 0f22 7603939E 		.ascii	"v\003\223\236\333^\301\216p~\202\2129a1\270e\275Ah9"
 660      DB5EC18E 
 660      707E828A 
 660      396131B8 
 660      65BD4168 
 661 0f37 3EDFFA7B 		.ascii	">\337\372{:\0305\355;\310\030\236\025f2\0009\023\274"
 661      3A1835ED 
 661      3BC8189E 
 661      15663200 
 661      3913BC
 662 0f4a 4C7F618A 		.ascii	"L\177a\212\247X.\271\001t\377N|\267!\005\355\301\024"
 662      A7582EB9 
 662      0174FF4E 
 662      7CB72105 
 662      EDC114
 663 0f5d B41753CD 		.ascii	"\264\027S\315~\254\033\261n\306\372\2101\3718\351\246"
 663      7EAC1BB1 
 663      6EC6FA88 
 663      31F938E9 
 663      A6
 664 0f6e 3EB51613 		.ascii	">\265\026\023\371}~\201\205z\367<\371f\312\223a\271"
 664      F97D7E81 
 664      857AF73C 
 664      F966CA93 
 664      61B9
 665 0f80 E419CCA4 		.ascii	"\344\031\314\244Hm\372a\243'\213|\223\033\274\014\236"
 665      486DFA61 
 665      A3278B7C 
 665      931BBC0C 
 665      9E
 666 0f91 BC9ACE0B 		.ascii	"\274\232\316\0134,n$\223\232G+\333\033e"
 666      342C6E24 
 666      939A472B 
 666      DB1B65
 667 0fa0 BBC1287F 		.ascii	"\273\301(\177A\243|\214&8\212u;\326\307\314s\301\244"
 667      41A37C8C 
ARM GAS  /var/folders/c6/c789hm653lg9vtl73krp73tm0000gn/T//ccOdjWuU.s 			page 54


 667      26388A75 
 667      3BD6C7CC 
 667      73C1A4
 668 0fb3 BE96B9C0 		.ascii	"\276\226\271\300\234w\355\246&\243~Tm\363\177U\213v"
 668      9C77EDA6 
 668      26A37E54 
 668      6DF37F55 
 668      8B76
 669 0fc5 59EF097D 		.ascii	"Y\357\011}\354,\343\317\254\017\237\323\317\013~\206"
 669      EC2CE3CF 
 669      AC0F9FD3 
 669      CF0B7E86 
 670 0fd5 F9F3B5BE 		.ascii	"\371\363\265\276\331\363\247\031I\340\026\342\230\323"
 670      D9F3A719 
 670      49E016E2 
 670      98D3
 671 0fe3 E90BA553 		.ascii	"\351\013\245S\372B\351t\366\004:q\202V\267`yj&\230\340"
 671      FA42E974 
 671      F6043A71 
 671      8256B760 
 671      796A2698 
 672 0ff8 FDD74EEF 		.ascii	"\375\327N\357'\371\350\216"
 672      27F9E88E 
 673 1000 9BAADAD6 		.ascii	"\233\252\332\326#\272g\3217\373\353<\343\231-\321r\004"
 673      23BA67D1 
 673      37FBEB3C 
 673      E3992DD1 
 673      7204
 674 1012 3D8B826D 		.ascii	"=\213\202mq\003\226a\241\366\367\337\330\232UK.\036"
 674      71039661 
 674      A1F6F7DF 
 674      D89A554B 
 674      2E1E
 675 1024 AB0C66ED 		.ascii	"\253\014f\355\334r\374^\272\372\275\210V\335\231\335"
 675      DC72FC5E 
 675      BAFABD88 
 675      56DD99DD 
 676 1034 AA1620A2 		.ascii	"\252\026 \242\334\313\026\213j\213w\342\201\265\313"
 676      DCCB168B 
 676      6A8B77E2 
 676      81B5CB
 677 1043 AEA6C3F5 		.ascii	"\256\246\303\365;um\006p\302A\026.w;\207l\235\354n\231"
 677      3B756D06 
 677      70C24116 
 677      2E773B87 
 677      6C9DEC6E 
 678 1058 607BF67A 		.ascii	"`{\366z\366N\036\036\327n\240.\216g\327\205\031\203"
 678      F64E1E1E 
 678      D76EA02E 
 678      8E67D785 
 678      1983
 679 106a 88DA6955 		.ascii	"\210\332iUE3=\273\327\351J\025G\352\315\223\357\005"
 679      45333DBB 
 679      D7E94A15 
 679      47EACD93 
 679      EF05
 680 107c 64A1B3DB 		.ascii	"d\241\263\333\272\2704\311\274\316\376\3223^\201\011"
ARM GAS  /var/folders/c6/c789hm653lg9vtl73krp73tm0000gn/T//ccOdjWuU.s 			page 55


 680      BAB834C9 
 680      BCCEFED2 
 680      335E8109 
 681 108c EF063D41 		.ascii	"\357\006=A\207\323\322-7X\031\322\351\314\235\013\377"
 681      87D3D22D 
 681      375819D2 
 681      E9CC9D0B 
 681      FF
 682 109d 89BCF2D4 		.ascii	"\211\274\362\324\177\275U\325\317\202g\367[\032\367"
 682      7FBD55D5 
 682      CF8267F7 
 682      5B1AF7
 683 10ac 19B5D390 		.ascii	"\031\265\323\220QoaF\355\302,Z\021 \365\004\254_\011"
 683      516F6146 
 683      EDC22C5A 
 683      1120F504 
 683      AC5F09
 684 10bf B898E0AE 		.ascii	"\270\230\340\256\373\015\231cz?\257\316iT D\372S\325"
 684      FB0D9963 
 684      7A3FAFCE 
 684      69542044 
 684      FA53D5
 685 10d2 A2FE8E97 		.ascii	"\242\376\216\227\244\254\033\206\364\235\214+U\217\253"
 685      A4AC1B86 
 685      F49D8C2B 
 685      558FAB
 686 10e1 2901AFEF 		.ascii	")\001\257\357x\377\030\260\177\307;,)\301<\253\004\026"
 686      78FF18B0 
 686      7FC73B2C 
 686      29C13CAB 
 686      0416
 687 10f3 BA190C67 		.ascii	"\272\031\014g\257\350\313\006E_AE_EE\177\211uU\3004"
 687      AFE8CB06 
 687      455F4145 
 687      5F45457F 
 687      897555C0 
 688 1108 69BDD1CF 		.ascii	"i\275\321\317\222\334,\331\304\263\231O\033\250\237"
 688      92DC2CD9 
 688      C4B3994F 
 688      1BA89F
 689 1117 45EA1D48 		.ascii	"E\352\035H\367s\254\277\300\372\202y\342\\\325\3172"
 689      F773ACBF 
 689      C0FA8279 
 689      E25CD5CF 
 689      32
 690 1128 715AE629 		.ascii	"qZ\346)\326v>\240\2358Ts0\267B\325\346\015\326\377\267"
 690      D6763EA0 
 690      9D385473 
 690      30B742D5 
 690      E60DD6FF 
 691 113d 8EB55648 		.ascii	"\216\265VH\363\177\315\301\232Z\206\254\335\336\236"
 691      F37FCDC1 
 691      9A5A86AC 
 691      DDDE9E
 692 114c 9F4CDB59 		.ascii	"\237L\333Y\017\357o]\336\361(\236\327\231\036 \324\267"
 692      0FEF6F5D 
 692      DEF1289E 
ARM GAS  /var/folders/c6/c789hm653lg9vtl73krp73tm0000gn/T//ccOdjWuU.s 			page 56


 692      D7991E20 
 692      D4B7
 693 115e F4B34D54 		.ascii	"\364\263MT\231\177K6+`\367\177'\221\273.\236\304N\261"
 693      997F4B36 
 693      2B60F77F 
 693      2791BB2E 
 693      9EC44EB1 
 694 1172 5FCAD0A3 		.ascii	"_\312\320\243\264\373\221>\031\3521K\331\2334\305\231"
 694      B4FB913E 
 694      19EA314B 
 694      D99B34C5 
 694      99
 695 1183 C8CF0E10 		.ascii	"\310\317\016\020\223\3161;Q\213U\333v\364\226\244\002"
 695      93CE313B 
 695      518B55DB 
 695      76F496A4 
 695      02
 696 1194 C1AA6CF2 		.ascii	"\301\252l\362\233Uj?\333\255)\237\01614\245\361\256"
 696      9B556A3F 
 696      DBAD299F 
 696      0E3134A5 
 696      F1AE
 697 11a6 4DD7A9C6 		.ascii	"M\327\251\306\347\243\306\333\3545\236\001\207\010\266"
 697      E7A3C6DB 
 697      EC359E01 
 697      8708B6
 698 11b5 C856E58B 		.ascii	"\310V\345\213\\\251\374\222\256rz~\370,2\260\310\273"
 698      5CA9FC92 
 698      AE727A7E 
 698      F82C32B0 
 698      C8BB
 699 11c7 CA19DC65 		.ascii	"\312\031\334e\374\377\205(\326\027\236\261\012\214\332"
 699      FCFF8528 
 699      D6179EB1 
 699      0A8CDA
 700 11d6 D4AE06AA 		.ascii	"\324\256\006\252&\344\350'\336\257Y\301l\017\316f\010"
 700      26E4E827 
 700      DEAF59C1 
 700      6C0FCE66 
 700      08
 701 11e7 841B46B4 		.ascii	"\204\033F\264\312\376n\320\012\\\273\326\"\203k\325"
 701      CAFE6ED0 
 701      0A5CBBD6 
 701      22836BD5 
 702 11f7 A06B2DC6 		.ascii	"\240k-\306\211`)\326ob\275\314\354l\257\365\2678\233"
 702      896029D6 
 702      6F62BDCC 
 702      EC6CAFF5 
 702      B7389B
 703 120a D9AEACF9 		.ascii	"\331\256\254\371N\006okk?\365(z\233\343)\270>:\314\227"
 703      4E066F6B 
 703      6B3FF528 
 703      7A9BE329 
 703      B83E3ACC 
 704 121f 3C637485 		.ascii	"<ct\205\347\314\377\256C\346\2777)\311\3744I\314tY;"
 704      E7CCFFAE 
 704      43E6BF37 
ARM GAS  /var/folders/c6/c789hm653lg9vtl73krp73tm0000gn/T//ccOdjWuU.s 			page 57


 704      29C9FC34 
 704      49CC7459 
 705 1234 61278ABD 		.ascii	"a'\212\275:\3376$\337\025\230|\337\305\204\273\005\353"
 705      3ADF3624 
 705      DF15987C 
 705      DFC584BB 
 705      05EB
 706 1246 13584F43 		.ascii	"\023XOC\245Vc\375:\326\357\230\025\274\242\277\365\255"
 706      A55663FD 
 706      3AD6EF98 
 706      15BCA2BF 
 706      F5AD
 707 1258 8A796F18 		.ascii	"\212yo\030\217.\005\222oU\310~\365j-\321\271\256\361"
 707      8F2E0592 
 707      6F55C87E 
 707      F56A2DD1 
 707      B9AEF1
 708 126b B1BD95E4 		.ascii	"\261\275\225\344H\216\372e\027\337\345c\272%\377\313"
 708      488EFA65 
 708      17DFE563 
 708      BA25FFCB 
 709 127b 5372E1A7 		.ascii	"Sr\341\247\245\026~`\010>\303\026\325\373\300C\326\345"
 709      A5167E60 
 709      083EC316 
 709      D5FBC043 
 709      D6E5
 710 128d 9DC8AF09 		.ascii	"\235\310\257\011\220'\310\332@\332)\3006}\223\272\326"
 710      9027C8DA 
 710      40DA29C0 
 710      367D93BA 
 710      D6
 711 129e 5DFEEC6C 		.ascii	"]\376\354l\240\301<\025\177ES\207\032\250\355v0\177"
 711      A0C13C15 
 711      7F455387 
 711      1AA8ED76 
 711      307F
 712 12b0 D5D190F6 		.ascii	"\325\321\220\366_\331\321\343\024N\316\262>`X\323l\362"
 712      5FD9D1E3 
 712      144ECEB2 
 712      3E6058D3 
 712      6CF2
 713 12c2 4CBEC044 		.ascii	"L\276\300D\236\376_e\004R\34047X\031\026\205\267\014"
 713      9EFE5F65 
 713      0452E034 
 713      37581916 
 713      85B70C
 714 12d5 58BB3C63 		.ascii	"X\273<c\025\244y(\265\203\310\177\200\236\267\016\353"
 714      15A47928 
 714      B583C87F 
 714      809EB70E 
 714      EB
 715 12e6 8D587F98 		.ascii	"\215X\177\230}\355gQ\350j\007N\360\244R\240\247\205"
 715      7DED6751 
 715      E86A074E 
 715      F0A452A0 
 715      A785
 716 12f8 36EBF9B8 		.ascii	"6\353\371\270\231Q\203\233\322A\366\335 \204<'\200\255"
ARM GAS  /var/folders/c6/c789hm653lg9vtl73krp73tm0000gn/T//ccOdjWuU.s 			page 58


 716      9951839B 
 716      D241F6DD 
 716      20843C27 
 716      80AD
 717 130a 0E09C078 		.ascii	"\016\011\300x4)\325\213\354\024Z\003/\215\011-`|\217"
 717      3429D58B 
 717      EC145A03 
 717      2F8D092D 
 717      607C8F
 718 131d 0A73D54A 		.ascii	"\012s\325J\340*i7\362\"j\036\276\300|\314G\205!\261"
 718      E02A6937 
 718      F2226A1E 
 718      BEC07CCC 
 718      478521B1 
 719 1331 79E180D6 		.ascii	"y\341\200\3269m\021\257.\201\340\274\325\325\305S\275"
 719      396D11AF 
 719      2E81E0BC 
 719      D5D5C553 
 719      BD
 720 1342 09DC512B 		.ascii	"\011\334Q+\265\364g\247\277\000\271{\2713\375\027\261"
 720      B5F467A7 
 720      BF00B97B 
 720      B933FD17 
 720      B1
 721 1353 053025FB 		.ascii	"\0050%\3738E\2406\2444\265\256}\274\233s\330j\362\315"
 721      3845A036 
 721      A434B5AE 
 721      7DBC9B73 
 721      D86AF2CD 
 722 1367 700123B1 		.ascii	"p\001#\261\313\263Zw;\250U?w\3474\256!\345\021\367r"
 722      CBB35A77 
 722      3BA8553F 
 722      77E734AE 
 722      21E511F7 
 723 137c D741A679 		.ascii	"\327A\246y\217\247\310SW$\302T\251Zu\037\352\361\311"
 723      8FA7C853 
 723      5724C254 
 723      A95A751F 
 723      EAF1C9
 724 138f D37CD445 		.ascii	"\323|\324E\011\036\215S\352\254\254\367\254do\343\311"
 724      091E8D53 
 724      EAACACF7 
 724      AC646FE3 
 724      C9
 725 13a0 42C60555 		.ascii	"B\306\005U\251\356\214\026\377}\313a\301\204\033w\001"
 725      A9EE8C16 
 725      FF7DCB61 
 725      C1841B77 
 725      01
 726 13b1 FB03EEF4 		.ascii	"\373\003\356\364\010\240\323\250\375\251QI\307\266\230"
 726      08A0D3A8 
 726      FDA95149 
 726      C7B698
 727 13c0 A0AF3E46 		.ascii	"\240\257>F?\337} \251\202\244+:Xo\250>4\227\015h\364"
 727      3FDF7D20 
 727      A982A42B 
 727      3A586FA8 
ARM GAS  /var/folders/c6/c789hm653lg9vtl73krp73tm0000gn/T//ccOdjWuU.s 			page 59


 727      3E34970D 
 728 13d6 6CBC2607 		.ascii	"l\274&\007\343\3450\256\331\371\316\3263\007\306\247"
 728      E3E530AE 
 728      D9F9CED6 
 728      3307C6A7 
 729 13e6 8E9E4EE4 		.ascii	"\216\236N\344\365\263h\363\357ps\006\2639`9\203\371"
 729      F5B368F3 
 729      EF707306 
 729      B3396039 
 729      83F9
 730 13f8 4920ED38 		.ascii	"I \3558\007\020Y\364\341\366\251\374\364U\223Tr&\344"
 730      071059F4 
 730      E1F6A9FC 
 730      F4559354 
 730      7226E4
 731 140b E5C55AB5 		.ascii	"\345\305Z\265\337\375Fxk\300\262\021\236H?`\325lb\026"
 731      DFFD4678 
 731      6BC0B211 
 731      9E483F60 
 731      D56C6216 
 732 141f 7B0ADCF1 		.ascii	"{\012\334\361;X\370?\300\275\251\2523\324Fx\200\347"
 732      3B58F83F 
 732      C0BDA9AA 
 732      33D44678 
 732      80E7
 733 1431 F5FFBEEE 		.ascii	"\365\377\276\356<\216h\011\334gK7y\352\237\311|\251"
 733      3C8E6809 
 733      DC674B37 
 733      79EA9FC9 
 733      7CA9
 734 1443 E2D90149 		.ascii	"\342\331\001I\231[\2542\267\231e\2668\321\216\014/\363"
 734      995BAC32 
 734      B79965B6 
 734      38D18E0C 
 734      2FF3
 735 1455 8F39BA1E 		.ascii	"\2179\272\036\331\017s\032\225p\034\265-\203\303\036"
 735      D90F731A 
 735      95701CB5 
 735      2D83C31E 
 736 1465 771C753E 		.ascii	"w\034u>\303\250\023\216\243Nd\030\365\231\343\250\216"
 736      C3A8138E 
 736      A34E6418 
 736      F599E3A8 
 736      8E
 737 1476 0CA34E3A 		.ascii	"\014\243N:\216j\3130\352\224\343\250\346\014\243N;\216"
 737      8E6ACB30 
 737      EA94E3A8 
 737      E60CA34E 
 737      3B8E
 738 1488 3A9A61D4 		.ascii	":\232a\324\031\307Q\3733\214:\233\032\225<\357\335\370"
 738      19C751FB 
 738      338C3A9B 
 738      1A953CEF 
 738      DDF8
 739 149a 1BBBA0BB 		.ascii	"\033\273\240\273\342*\350:\254\016\3707\333\240k9\223"
 739      E22AE83A 
 739      AC0EF837 
ARM GAS  /var/folders/c6/c789hm653lg9vtl73krp73tm0000gn/T//ccOdjWuU.s 			page 60


 739      DBA06B39 
 739      93
 740 14ab 2823BFDA 		.ascii	"(#\277\332\"\347\010\357\327)t\271\242\360\271\225\302"
 740      22E708EF 
 740      D72974B9 
 740      A2F0B995 
 740      C2
 741 14bc 395B0AFB 		.ascii	"9[\012\373Wu\010I\012\226\210\316\344\300\027\254!m"
 741      57750849 
 741      0A9688CE 
 741      E4C017AC 
 741      216D
 742 14ce 730675CA 		.ascii	"s\006u\312\235fFY\020\037\224\236\246\335\005n\001\366"
 742      9D664659 
 742      101F949E 
 742      A6DD056E 
 742      01F6
 743 14e0 38EF18C2 		.ascii	"8\357\030\302\354\207KL\276#'\237}Z?\363\345<\2121\370"
 743      EC874B4C 
 743      BE23279F 
 743      7D5A3FF3 
 743      E53C8A31 
 744 14f5 771B710F 		.ascii	"w\033q\017$\016\267\264tK\334kVq\217\005\322\304]l/"
 744      240EB7B4 
 744      744BDC6B 
 744      56718F05 
 744      D2C45D6C 
 745 150a 6E2B11F7 		.ascii	"n+\021\367\030.\011Wc\217\253\216\342\262\\b+\256\323"
 745      182E0957 
 745      638FAB8E 
 745      E2B25C62 
 745      2BAED3
 746 151d 28C6E075 		.ascii	"(\306\340u[\353\256\334D\036\273\311\371\342\011U\002"
 746      5BEBAEDC 
 746      441EBBC9 
 746      F9E20955 
 746      02
 747 152e B39AC0AD 		.ascii	"\263\232\300\255\315b\027\221\277\214O\012\235\335\262"
 747      CD621791 
 747      BF8C4F0A 
 747      9DDDB2
 748 153d 8BD328C6 		.ascii	"\213\323(\306\350-3\243\337\345\226\223g\220\316u\327"
 748      E82D33A3 
 748      DFE59693 
 748      6790CE75 
 748      D7
 749 154e 1F9B3EA1 		.ascii	"\037\233>\241\2227\345Sc\017\265vI_\257_Z\342\373Z\206"
 749      9237E553 
 749      630FB576 
 749      495FAF5F 
 749      5AE2FB5A 
 750 1563 F89E9893 		.ascii	"\370\236\230\223\032\353\017\027\213\362\267\006\015"
 750      1AEB0F17 
 750      8BF2B706 
 750      0D
 751 1570 2AA4FFCA 		.ascii	"*\244\377\312\342\205\262RXR\032\216\224\027I\205\341"
 751      E285B252 
ARM GAS  /var/folders/c6/c789hm653lg9vtl73krp73tm0000gn/T//ccOdjWuU.s 			page 61


 751      58521A8E 
 751      94174985 
 751      E1
 752 1581 E2E8C8B2 		.ascii	"\342\350\310\262qR|P1\027\214\212%\021\370\020Rr\236"
 752      71527C50 
 752      31178C8A 
 752      2511F810 
 752      52729E
 753 1594 FAF7170A 		.ascii	"\372\367\027\012\206s\217X\306\304\312d%^\370\304\257"
 753      86738F58 
 753      C6C4CA64 
 753      255EF8C4 
 753      AF
 754 15a5 9F19FECC 		.ascii	"\237\031\376\314\270\302pY4V\022\221\344x\341S\303\207"
 754      B8C27059 
 754      34561291 
 754      E478E153 
 754      C387
 755 15b7 038C323E 		.ascii	"\003\2142>\206(\201h|tH\371Uay\\.\214\224\205\305H\341"
 755      86288168 
 755      7C7448F9 
 755      5561795C 
 755      2E8C9485 
 756 15ce 70291211 		.ascii	"p)\022\021\345\302\321\341\360C\242\034}\250\264\254"
 756      E5C2D1E1 
 756      F043A21C 
 756      7DA8B4AC 
 757 15de 547A4812 		.ascii	"TzH\022G\226\024><x\310#\203\207\016\376q\241\371\266"
 757      4796143E 
 757      3C78C823 
 757      83870EFE 
 757      71A1F9B6 
 758 15f2 CE5A5C29 		.ascii	"\316Z\\)*)U\0002\027.?z8\244\374\366k\000\215\212\341"
 758      2A295500 
 758      32172E3F 
 758      7A38A4FC 
 758      F66B008D 
 759 1608 E29252A9 		.ascii	"\342\222R\2510T$\215\022\313#JH\347;\030\01212\301\350"
 759      3054248D 
 759      12CB234A 
 759      48E73B18 
 759      0A3132C1 
 760 161d C8D0C8F2 		.ascii	"\310\320\310\362Q\243$9\007ZJY,\017.c\345\230\"\223"
 760      51A32439 
 760      075A4A59 
 760      2C0F2E63 
 760      E5982293 
 761 1631 865C048D 		.ascii	"\206\\\004\215\373\034\265\031\227\242\000\326\023."
 761      FB1CB519 
 761      97A200D6 
 761      132E
 762 163f 62ACB84C 		.ascii	"b\254\270L\226BJ~\2708\224\374\370\200\363\300\361q"
 762      96424A7E 
 762      B83894FC 
 762      F880F3C0 
 762      F171
 763 1651 9D953E4A 		.ascii	"\235\225>J\261,\211E\361\320\037\312\245r@\350\013\010"
ARM GAS  /var/folders/c6/c789hm653lg9vtl73krp73tm0000gn/T//ccOdjWuU.s 			page 62


 763      B12C8945 
 763      F1D01FCA 
 763      A57240E8 
 763      0B08
 764 1663 A65B05CE 		.ascii	"\246[\005\316(\341\342\"@\310\243\335A\226\344\320\234"
 764      28E1E222 
 764      40C8A3DD 
 764      4196E4D0 
 764      9C
 765 1674 58A8541A 		.ascii	"X\250T\032\247\300%&Kcr\225\230\\R\026R\362\312\231"
 765      A7C02526 
 765      4B637295 
 765      985C5216 
 765      52F2CA99 
 766 1688 D03D4221 		.ascii	"\320=B!\275\211]J\312r\303e\245\012\214\370NF/(\016"
 766      BD895D4A 
 766      CA72C365 
 766      A50A8CF8 
 766      4E462F28 
 767 169d 83544462 		.ascii	"\203TDbr\233h0\254\214\373~\366\021\2411\217\022=\345"
 767      729B6830 
 767      AC8CFB7E 
 767      F611A131 
 767      8F123DE5 
 768 16b1 C9D268B0 		.ascii	"\311\322h\260SH\021\344G\004\371\307\202\374\023A~T"
 768      534811E4 
 768      4704F9C7 
 768      82FC1341 
 768      7E54
 769 16c3 90870AF2 		.ascii	"\220\207\012\362O}\362\220\301P\206\010\021\031.?\012"
 769      4F7DF290 
 769      C1508608 
 769      11192E3F 
 769      0A
 770 16d4 C442809C 		.ascii	"\304B\200\234K\204\030+\311p-\213\024\201\201\340\263"
 770      4B84182B 
 770      C9702D8B 
 770      148181E0 
 770      B3
 771 16e5 18957AC4 		.ascii	"\030\225z\304\225\227\304H\311\350R&\320O\036I\012\204"
 771      9597C448 
 771      C9E85226 
 771      D04F1E49 
 771      0A84
 772 16f7 CD58083A 		.ascii	"\315X\010:DJ\242%J\236\022WD\005t\232K\276\034\012\012"
 772      444AA225 
 772      4A9E1257 
 772      4405749A 
 772      4BBE1C0A 
 773 170c A2DDA095 		.ascii	"\242\335\240\225Kz\301w\271J\264\254H\302\317\243\""
 773      4B7AC177 
 773      B94AB4AC 
 773      48C2CFA3 
 773      22
 774 171d E2E878AE 		.ascii	"\342\350x\256\"K\243\342\250\026\322\310\221\213\306"
 774      224BA3E2 
 774      A816D2C8 
ARM GAS  /var/folders/c6/c789hm653lg9vtl73krp73tm0000gn/T//ccOdjWuU.s 			page 63


 774      918BC6
 775 172c 838BE749 		.ascii	"\203\213\347I\343J\2240t\314\031\253\224\215\374}\254"
 775      E34A9430 
 775      74CC19AB 
 775      948DFC7D 
 775      AC
 776 173d 3FD33874 		.ascii	"?\3238t\221d\2514\014\000\201\261\212\"\307\340{\260"
 776      9164A934 
 776      0C0081B1 
 776      8A22C7E0 
 776      7BB0
 777 174f 7E2C0F0C 		.ascii	"~,\017\014\021-\007}:\273NT\031G\234=Jm\014\327\262"
 777      112D077D 
 777      3ABB4E54 
 777      19479C3D 
 777      4A6D0CD7 
 778 1764 B1A5202A 		.ascii	"\261\245 *\216\002\362Qj\277\261\012\364\213\365\224"
 778      8E02F251 
 778      6ABFB10A 
 778      F48BF594 
 779 1774 C648A54A 		.ascii	"\306H\245JT\214\277\004\337HcI\303\027\013\225\367\326"
 779      548CBF04 
 779      DF486349 
 779      C3170B95 
 779      F7D6
 780 1786 DD245212 		.ascii	"\335$R\022\007\327\356cp\034r'\030\013\215\025K\224"
 780      07D7EE63 
 780      701C7227 
 780      180B8D15 
 780      4B94
 781 1798 92D2D1A0 		.ascii	"\222\322\321\240\022\020\002\011\005\260\0117\244\230"
 781      12100209 
 781      05B00937 
 781      A498
 782 17a6 540A1137 		.ascii	"T\012\0217\032z\001\011\322\277\007\021Y\214\2407\300"
 782      1A7A0109 
 782      D2BF0711 
 782      598CA037 
 782      C0
 783 17b7 CD585959 		.ascii	"\315XYY\344^G\366\025b\320\376JIT\012E%1^.KQ`\021"
 783      E45E47F6 
 783      1562D0FE 
 783      4A49540A 
 783      4525315E 
 784 17d0 F4282B61 		.ascii	"\364(+ar\365\217\224\342\240\22329\256\370#b\\\311)"
 784      72F58F94 
 784      E2A09332 
 784      39AEF823 
 784      625CC929 
 785 17e4 C7DB7C69 		.ascii	"\307\333|i\236\254\340(\245G\270<Z\036\021\225\2221"
 785      9EACE028 
 785      A547B83C 
 785      5A1E1195 
 785      9231
 786 17f6 1233463C 		.ascii	"\0223F<\227y|\000\373\006\342!\270\366\200(\034U\036"
 786      97797C00 
 786      FB06E221 
ARM GAS  /var/folders/c6/c789hm653lg9vtl73krp73tm0000gn/T//ccOdjWuU.s 			page 64


 786      B8F68028 
 786      1C551E
 787 1809 89805A7B 		.ascii	"\211\200Z{B\023\224\253\214\207v\220D\020\342\014H\362"
 787      421394AB 
 787      8C877690 
 787      4410E20C 
 787      48F2
 788 181b A80049C2 		.ascii	"\250\000I\302%\271\002w\302\363\203\205\347\207\010"
 788      25B90277 
 788      C2F38385 
 788      E78708
 789 182a CF3F2C3C 		.ascii	"\317?,<\377#\341\371G\204\261b>\371\206E{<\207^3\004"
 789      FF23E1F9 
 789      4784B162 
 789      3EF98645 
 789      7B3C875E 
 790 1840 F778129E 		.ascii	"\367x\022\236=\303\305\317\215\217\277P\012\211\350"
 790      3DC3C5CF 
 790      8D8FBF50 
 790      0A89E8
 791 184f A57B6C49 		.ascii	"\245{lI\221\224:(\314\365\"\327!!i\234\024\006\033\366"
 791      91943A28 
 791      CCF522D7 
 791      2121699C 
 791      14061BF6 
 792 1863 A49FE292 		.ascii	"\244\237\342\222R\036\013\"\304\323bD\271\337\231\030"
 792      521E0B22 
 792      C4D36244 
 792      B9DF9918 
 793 1873 911FC8DD 		.ascii	"\221\037\310\335C5\001uYL\327l(,\227\200>\212\213\234"
 793      43350175 
 793      594CD76C 
 793      282C9780 
 793      3E8A8B9C 
 794 1887 87174923 		.ascii	"\207\027I#\313G\303\360~\241\242\221\243C\341b)\374"
 794      CB47C3F0 
 794      7EA1A291 
 794      A343E162 
 794      29FC
 795 1899 52A81C79 		.ascii	"R\250\034y\016\204~\001\206\314\017\241\350b<.\311J"
 795      0E847E01 
 795      86CC0FA1 
 795      E8623C2E 
 795      C94A
 796 18ab 1F4327D2 		.ascii	"\037C'\322\345\233I\232\"D\265\225(\344\243_\216\034"
 796      E59B499A 
 796      2244B595 
 796      28E4A35F 
 796      8E1C
 797 18bd 3D9CF41E 		.ascii	"=\234\364\036\016\226\214\217\000q\236\371\305\257%"
 797      0E968C8F 
 797      00719EF9 
 797      C5AF25
 798 18cc 10ED2E23 		.ascii	"\020\355.#*\310\012\306\203X\350\2037\245(\031^\366"
 798      2AC80AC6 
 798      8358E883 
 798      37A52819 
ARM GAS  /var/folders/c6/c789hm653lg9vtl73krp73tm0000gn/T//ccOdjWuU.s 			page 65


 798      5EF6
 799 18de 9254DA83 		.ascii	"\222T\332\203\364\177RR\302\305#z\223\346\263eq\345"
 799      F47F5252 
 799      C2C5237A 
 799      93E6B365 
 799      71E5
 800 18f0 89627053 		.ascii	"\211bpS\212D>\322\026\366\311\323\357\3652\365\305\221"
 800      8A443ED2 
 800      16F6C9D3 
 800      EFF532F5 
 800      C591
 801 1902 FF31F2F7 		.ascii	"\3771\362\367RX\031Q\012\221\035\002\247(\015\207B\275"
 801      52581951 
 801      0A911D02 
 801      A7280D87 
 801      42BD
 802 1914 F4C6A01F 		.ascii	"\364\306\240\037\017\375\311\303\371\006cq\276\350\310"
 802      0FFDC9C3 
 802      F9066371 
 802      BEE8C8
 803 1923 217EC24B 		.ascii	"!~\302KO\222\223\301]\244(M\221\264\235O\"e<\213\035"
 803      4F9293C1 
 803      5DA4284D 
 803      91B49D4F 
 803      22653C8B 
 804 1938 20164A7D 		.ascii	" \026J}\316\225\251\037\346\310\230\033\0032f#\231e"
 804      CE95A91F 
 804      E6C8981B 
 804      03326623 
 804      9965
 805 194a 239966A3 		.ascii	"#\231f\243 \334-\227!\372\225\200L\006\3355\246DV\312"
 805      20DC2D97 
 805      21FA9580 
 805      4C06DD35 
 805      A64456CA 
 806 195e C54888B8 		.ascii	"\305H\210\270\245\254\007\345\335\000l\363E\037\323"
 806      A5AC07E5 
 806      DD006CF3 
 806      451FD3
 807 196d 3D9AF44D 		.ascii	"=\232\364M\267r\307(\230\001\310\225\244\360<\270\026"
 807      B772C728 
 807      9801C895 
 807      A4F03CB8 
 807      16
 808 197e 49114584 		.ascii	"I\021E\204\006\012\214\337\220V\016\351!\312=\341B\002"
 808      060A8CDF 
 808      90560EE9 
 808      21CA3DE1 
 808      4202
 809 1990 8D8C865B 		.ascii	"\215\214\206[\204Ho&4:\007\315\017\306;\301\230XZ\022"
 809      84486F26 
 809      343A07CD 
 809      0FC63BC1 
 809      98585A12 
 810 19a4 26E920B7 		.ascii	"&\351 \267$.\223X\313#z#\215~$\225\310\"\3445\032$@"
 810      242E9358 
 810      CB237A23 
ARM GAS  /var/folders/c6/c789hm653lg9vtl73krp73tm0000gn/T//ccOdjWuU.s 			page 66


 810      8D7E2495 
 810      C822E435 
 811 19bb 4D19198A 		.ascii	"M\031\031\212\227\374\267\324\233\200\214\015\2070#"
 811      97FCB7D4 
 811      9B808C0D 
 811      873023
 812 19ca C1EDB884 		.ascii	"\301\355\270\204\374\006\3105\026\204\232&\310<ha~\315"
 812      FC06C835 
 812      16849A26 
 812      C83C6861 
 812      7ECD
 813 19dc 81713085 		.ascii	"\201q0\205\006\025}\226\3157\342\372\300\021{\300B\244"
 813      06157D96 
 813      CD37E2FA 
 813      C0117BC0 
 813      42A4
 814 19ee 94E6ADBE 		.ascii	"\224\346\255\276J4\004\323}\311H\031\322B\031\344\367"
 814      4A3404D3 
 814      7DC94819 
 814      D24219E4 
 814      F7
 815 19ff 9CB251A3 		.ascii	"\234\262Q\243\300\317\004%\332\373%I.\225\"\314S\225"
 815      C0CF0425 
 815      DAFB2549 
 815      2E9522CC 
 815      5395
 816 1a11 4069A844 		.ascii	"@i\250D\376C^)1\014\260\323#\232tW\275\011\"\345\033"
 816      FE435E29 
 816      310CB0D3 
 816      239A7457 
 816      BD0922E5 
 817 1a26 C7F42E29 		.ascii	"\307\364.)\212H,?B^\024\300\323\210o\204\305\270\344"
 817      8A482C3F 
 817      425E14C0 
 817      D3886F84 
 817      C5B8E4
 818 1a39 27B34A00 		.ascii	"'\263J\000C\025\356\211r\021\244\342\\=\216c\242\242"
 818      4315EE89 
 818      7211A4E2 
 818      5C3D8E63 
 818      A2A2
 819 1a4b 000C09E7 		.ascii	"\000\014\011\347\240\036\355C\372\015\222\313\212DE"
 819      A01EED43 
 819      FA0D92CB 
 819      8A4445
 820 1a5a 1C94BC53 		.ascii	"\034\224\274S\360\014]NI\361\037\026\020\337\201\314"
 820      F00C5D4E 
 820      49F11F16 
 820      10DF81CC 
 821 1a6a 5A209616 		.ascii	"Z \226\026\025\020\345\224\225+q6e\322\230\374\2411"
 821      1510E594 
 821      952B7136 
 821      65D298FC 
 821      A131
 822 1a7c 8EC1C885 		.ascii	"\216\301\310\205\303\237yn\304s\251p&Sf8\372$\030\027"
 822      C39F796E 
 822      C473A970 
ARM GAS  /var/folders/c6/c789hm653lg9vtl73krp73tm0000gn/T//ccOdjWuU.s 			page 67


 822      26536638 
 822      FA241817 
 823 1a90 421A3C1C 		.ascii	"B\032<\034X\013\375\342\211\347\376\365\331_\217\350"
 823      580BFDE2 
 823      89E7FEF5 
 823      D95F8FE8 
 824 1aa0 2546C68A 		.ascii	"%F\306\212\343\3430\367F`a\023\030#F\312%\232_~\005"
 824      E3E330F7 
 824      46606113 
 824      182346CA 
 824      259A5F7E 
 825 1ab5 C0412442 		.ascii	"\300A$BH\364#\361\362\224\244<)K\322\360\262\362Re\004"
 825      48F423F1 
 825      F294A43C 
 825      294BD2F0 
 825      B2F25265 
 826 1aca 84430CDC 		.ascii	"\204C\014\334\3549)\012\267\361\226$\217\020\3421\275"
 826      EC39290A 
 826      B7F19624 
 826      8F10E231 
 826      BD
 827 1adb E70B71A9 		.ascii	"\347\013q\251\210\366\374?d\004F\234"
 827      88F6FC3F 
 827      6404469C 
 828              		.text
 829              		.section	.gnu.lto_.symtab.8c9fbc276003b95a,"",%progbits
 830 0000 70617474 		.ascii	"patternmbox\000\000\000\000\000\000\000\000\000\000"
 830      65726E6D 
 830      626F7800 
 830      00000000 
 830      00000000 
 831 0015 0000AD02 		.ascii	"\000\000\255\002\000\000testmbox1\000\000\000\000\000"
 831      00007465 
 831      73746D62 
 831      6F783100 
 831      00000000 
 832 0029 00000000 		.ascii	"\000\000\000\000\000\000\000\303\002\000\000ch\000\000"
 832      000000C3 
 832      02000063 
 832      680000
 833 0038 02000000 		.ascii	"\002\000\000\000\000\000\000\000\000\000#\002\000\000"
 833      00000000 
 833      00002302 
 833      0000
 834 0046 74657374 		.ascii	"test\000\000\002\000\000\000\000\000\000\000\000\000"
 834      00000200 
 834      00000000 
 834      00000000 
 835 0056 06020000 		.ascii	"\006\002\000\000chSysHalt\000\000\002\000\000\000\000"
 835      63685379 
 835      7348616C 
 835      74000002 
 835      00000000 
 836 006a 00000000 		.ascii	"\000\000\000\000\000\270\001\000\000_stats_stop_mea"
 836      00B80100 
 836      005F7374 
 836      6174735F 
ARM GAS  /var/folders/c6/c789hm653lg9vtl73krp73tm0000gn/T//ccOdjWuU.s 			page 68


 836      73746F70 
 837 0082 73757265 		.ascii	"sure_crit_thd\000\000\002\000\000\000\000\000\000\000"
 837      5F637269 
 837      745F7468 
 837      64000002 
 837      00000000 
 838 0099 0000BC01 		.ascii	"\000\000\274\001\000\000_dbg_check_unlock\000\000\002"
 838      00005F64 
 838      62675F63 
 838      6865636B 
 838      5F756E6C 
 839 00b3 00000000 		.ascii	"\000\000\000\000\000\000\000\000\000\276\001\000\000"
 839      00000000 
 839      00BE0100 
 839      00
 840 00c0 5F746573 		.ascii	"_test_assert\000\000\002\000\000\000\000\000\000\000"
 840      745F6173 
 840      73657274 
 840      00000200 
 840      00000000 
 841 00d6 0000C001 		.ascii	"\000\000\300\001\000\000_dbg_check_lock\000\000\002"
 841      00005F64 
 841      62675F63 
 841      6865636B 
 841      5F6C6F63 
 842 00ee 00000000 		.ascii	"\000\000\000\000\000\000\000\000\000\310\001\000\000"
 842      00000000 
 842      00C80100 
 842      00
 843 00fb 5F737461 		.ascii	"_stats_start_measure_crit_thd\000\000\002\000\000\000"
 843      74735F73 
 843      74617274 
 843      5F6D6561 
 843      73757265 
 844 011e 00000000 		.ascii	"\000\000\000\000\000\000\312\001\000\000chDbgCheckC"
 844      0000CA01 
 844      00006368 
 844      44626743 
 844      6865636B 
 845 0133 6C617373 		.ascii	"lassI\000\000\002\000\000\000\000\000\000\000\000\000"
 845      49000002 
 845      00000000 
 845      00000000 
 845      00
 846 0144 CC010000 		.ascii	"\314\001\000\000chMBReset\000\000\002\000\000\000\000"
 846      63684D42 
 846      52657365 
 846      74000002 
 846      00000000 
 847 0158 00000000 		.ascii	"\000\000\000\000\000\316\001\000\000_test_assert_se"
 847      00CE0100 
 847      005F7465 
 847      73745F61 
 847      73736572 
 848 0170 7175656E 		.ascii	"quence\000\000\002\000\000\000\000\000\000\000\000\000"
 848      63650000 
 848      02000000 
ARM GAS  /var/folders/c6/c789hm653lg9vtl73krp73tm0000gn/T//ccOdjWuU.s 			page 69


 848      00000000 
 848      0000
 849 0182 D2010000 		.ascii	"\322\001\000\000test_emit_token\000\000\002\000\000"
 849      74657374 
 849      5F656D69 
 849      745F746F 
 849      6B656E00 
 850 019a 00000000 		.ascii	"\000\000\000\000\000\000\000\330\001\000\000chMBFet"
 850      000000D8 
 850      01000063 
 850      684D4246 
 850      6574
 851 01ac 63684900 		.ascii	"chI\000\000\002\000\000\000\000\000\000\000\000\000"
 851      00020000 
 851      00000000 
 851      000000
 852 01bb DC010000 		.ascii	"\334\001\000\000chMBPostAheadI\000\000\002\000\000\000"
 852      63684D42 
 852      506F7374 
 852      41686561 
 852      64490000 
 853 01d3 00000000 		.ascii	"\000\000\000\000\000\000\341\001\000\000chMBPostI\000"
 853      0000E101 
 853      00006368 
 853      4D42506F 
 853      73744900 
 854 01e7 00020000 		.ascii	"\000\002\000\000\000\000\000\000\000\000\000\346\001"
 854      00000000 
 854      000000E6 
 854      01
 855 01f4 00006368 		.ascii	"\000\000chMBFetch\000\000\002\000\000\000\000\000\000"
 855      4D424665 
 855      74636800 
 855      00020000 
 855      00000000 
 856 0208 000000E8 		.ascii	"\000\000\000\350\001\000\000chMBPost\000\000\002\000"
 856      01000063 
 856      684D4250 
 856      6F737400 
 856      000200
 857 021b 00000000 		.ascii	"\000\000\000\000\000\000\000\000\356\001\000\000chM"
 857      00000000 
 857      EE010000 
 857      63684D
 858 022a 42506F73 		.ascii	"BPostAhead\000\000\002\000\000\000\000\000\000\000\000"
 858      74416865 
 858      61640000 
 858      02000000 
 858      00000000 
 859 023f 00F40100 		.ascii	"\000\364\001\000\000chMBObjectInit\000\000\002\000\000"
 859      0063684D 
 859      424F626A 
 859      65637449 
 859      6E697400 
 860 0257 00000000 		.ascii	"\000\000\000\000\000\000\000\366\001\000\000"
 860      000000F6 
 860      010000
ARM GAS  /var/folders/c6/c789hm653lg9vtl73krp73tm0000gn/T//ccOdjWuU.s 			page 70


 861              		.text
 862              		.section	.gnu.lto_.opts,"",%progbits
 863 0000 272D6D63 		.ascii	"'-mcpu=cortex-m4' '-mno-thumb-interwork' '-mthumb' "
 863      70753D63 
 863      6F727465 
 863      782D6D34 
 863      2720272D 
 864 0033 272D6767 		.ascii	"'-ggdb' '-O2' '-fomit-frame-pointer' '-falign-funct"
 864      64622720 
 864      272D4F32 
 864      2720272D 
 864      666F6D69 
 865 0066 696F6E73 		.ascii	"ions=16' '-ffunction-sections' '-fdata-sections' '-"
 865      3D313627 
 865      20272D66 
 865      66756E63 
 865      74696F6E 
 866 0099 666E6F2D 		.ascii	"fno-common' '-flto'\000"
 866      636F6D6D 
 866      6F6E2720 
 866      272D666C 
 866      746F2700 
 867              		.text
 868              		.cfi_sections	.debug_frame
 869              		.section	.text.chSysUnlock,"ax",%progbits
 870              		.align	2
 871              		.p2align 4,,15
 872              		.thumb
 873              		.thumb_func
 874              		.type	chSysUnlock, %function
 875              	chSysUnlock:
 876              	.LFB157:
 877              		.file 1 "../../../os/rt/include/chsys.h"
 878              		.loc 1 358 0
 879              		.cfi_startproc
 880              		@ args = 0, pretend = 0, frame = 0
 881              		@ frame_needed = 0, uses_anonymous_args = 0
 882 0000 08B5     		push	{r3, lr}
 883              		.cfi_def_cfa_offset 8
 884              		.cfi_offset 3, -8
 885              		.cfi_offset 14, -4
 886              		.loc 1 360 0
 887 0002 FFF7FEFF 		bl	_dbg_check_unlock
 888              	.LVL0:
 889              		.loc 1 361 0
 890 0006 FFF7FEFF 		bl	_stats_stop_measure_crit_thd
 891              	.LVL1:
 892              		.loc 1 367 0
 893 000a 084B     		ldr	r3, .L4
 894 000c 1A68     		ldr	r2, [r3]
 895 000e 9A42     		cmp	r2, r3
 896 0010 07D0     		beq	.L2
 897              		.loc 1 367 0 is_stmt 0 discriminator 1
 898 0012 9969     		ldr	r1, [r3, #24]
 899 0014 9368     		ldr	r3, [r2, #8]
 900 0016 8A68     		ldr	r2, [r1, #8]
 901 0018 9A42     		cmp	r2, r3
ARM GAS  /var/folders/c6/c789hm653lg9vtl73krp73tm0000gn/T//ccOdjWuU.s 			page 71


 902 001a 02D2     		bcs	.L2
 903 001c 0448     		ldr	r0, .L4+4
 904 001e FFF7FEFF 		bl	chSysHalt
 905              	.LVL2:
 906              	.L2:
 907              	.LBB175:
 908              	.LBB176:
 909              	.LBB177:
 910              		.file 2 "../../../os/ext/CMSIS/include/core_cmFunc.h"
 911              		.loc 2 546 0 is_stmt 1
 912 0022 0023     		movs	r3, #0
 913              	@ 546 "../../../os/ext/CMSIS/include/core_cmFunc.h" 1
 914 0024 83F31188 		MSR basepri, r3
 915              	@ 0 "" 2
 916              		.thumb
 917 0028 08BD     		pop	{r3, pc}
 918              	.L5:
 919 002a 00BF     		.align	2
 920              	.L4:
 921 002c 00000000 		.word	ch
 922 0030 00000000 		.word	.LANCHOR0
 923              	.LBE177:
 924              	.LBE176:
 925              	.LBE175:
 926              		.cfi_endproc
 927              	.LFE157:
 928              		.size	chSysUnlock, .-chSysUnlock
 929 0034 AFF30080 		.section	.text.mbox1_setup,"ax",%progbits
 929      AFF30080 
 929      AFF30080 
 930              		.align	2
 931              		.p2align 4,,15
 932              		.thumb
 933              		.thumb_func
 934              		.type	mbox1_setup, %function
 935              	mbox1_setup:
 936              	.LFB229:
 937              		.file 3 "../../../test/rt/testmbox.c"
 938              		.loc 3 71 0
 939              		.cfi_startproc
 940              		@ args = 0, pretend = 0, frame = 0
 941              		@ frame_needed = 0, uses_anonymous_args = 0
 942              		@ link register save eliminated.
 943              		.loc 3 73 0
 944 0000 0248     		ldr	r0, .L7
 945 0002 0349     		ldr	r1, .L7+4
 946 0004 0522     		movs	r2, #5
 947 0006 FFF7FEBF 		b	chMBObjectInit
 948              	.LVL3:
 949              	.L8:
 950 000a 00BF     		.align	2
 951              	.L7:
 952 000c 00000000 		.word	.LANCHOR1
 953 0010 00000000 		.word	test
 954              		.cfi_endproc
 955              	.LFE229:
 956              		.size	mbox1_setup, .-mbox1_setup
ARM GAS  /var/folders/c6/c789hm653lg9vtl73krp73tm0000gn/T//ccOdjWuU.s 			page 72


 957 0014 AFF30080 		.section	.text.mbox1_execute,"ax",%progbits
 957      AFF30080 
 957      AFF30080 
 958              		.align	2
 959              		.p2align 4,,15
 960              		.thumb
 961              		.thumb_func
 962              		.type	mbox1_execute, %function
 963              	mbox1_execute:
 964              	.LFB230:
 965              		.loc 3 76 0
 966              		.cfi_startproc
 967              		@ args = 0, pretend = 0, frame = 8
 968              		@ frame_needed = 0, uses_anonymous_args = 0
 969              	.LVL4:
 970 0000 2DE9F041 		push	{r4, r5, r6, r7, r8, lr}
 971              		.cfi_def_cfa_offset 24
 972              		.cfi_offset 4, -24
 973              		.cfi_offset 5, -20
 974              		.cfi_offset 6, -16
 975              		.cfi_offset 7, -12
 976              		.cfi_offset 8, -8
 977              		.cfi_offset 14, -4
 978              	.LBB352:
 979              	.LBB353:
 980              	.LBB354:
 981              	.LBB355:
 982              	.LBB356:
 983              		.loc 2 546 0
 984 0004 2023     		movs	r3, #32
 985              	.LBE356:
 986              	.LBE355:
 987              	.LBE354:
 988              	.LBE353:
 989              	.LBE352:
 990              		.loc 3 76 0
 991 0006 82B0     		sub	sp, sp, #8
 992              		.cfi_def_cfa_offset 32
 993              	.LBB362:
 994              	.LBB360:
 995              	.LBB359:
 996              	.LBB358:
 997              	.LBB357:
 998              		.loc 2 546 0
 999              	@ 546 "../../../os/ext/CMSIS/include/core_cmFunc.h" 1
 1000 0008 83F31188 		MSR basepri, r3
 1001              	@ 0 "" 2
 1002              		.thumb
 1003              	.LBE357:
 1004              	.LBE358:
 1005              	.LBE359:
 1006              	.LBE360:
 1007              	.LBE362:
 1008              	.LBB363:
 1009              	.LBB364:
 1010              	.LBB365:
 1011              	.LBB366:
ARM GAS  /var/folders/c6/c789hm653lg9vtl73krp73tm0000gn/T//ccOdjWuU.s 			page 73


 1012              		.file 4 "../../../os/rt/include/chsem.h"
 1013              		.loc 4 153 0
 1014 000c 124E     		ldr	r6, .L31
 1015              	.LBE366:
 1016              	.LBE365:
 1017              	.LBE364:
 1018              	.LBE363:
 1019              	.LBB370:
 1020              	.LBB361:
 1021              		.loc 1 349 0
 1022 000e FFF7FEFF 		bl	_stats_start_measure_crit_thd
 1023              	.LVL5:
 1024              		.loc 1 350 0
 1025 0012 FFF7FEFF 		bl	_dbg_check_lock
 1026              	.LVL6:
 1027              	.LBE361:
 1028              	.LBE370:
 1029              	.LBB371:
 1030              	.LBB369:
 1031              		.file 5 "../../../os/rt/include/chmboxes.h"
 1032              		.loc 5 160 0
 1033 0016 FFF7FEFF 		bl	chDbgCheckClassI
 1034              	.LVL7:
 1035              	.LBB368:
 1036              	.LBB367:
 1037              		.loc 4 151 0
 1038 001a FFF7FEFF 		bl	chDbgCheckClassI
 1039              	.LVL8:
 1040              	.LBE367:
 1041              	.LBE368:
 1042              	.LBE369:
 1043              	.LBE371:
 1044              		.loc 3 83 0
 1045 001e 716A     		ldr	r1, [r6, #36]
 1046 0020 4A1F     		subs	r2, r1, #5
 1047 0022 5142     		rsbs	r1, r2, #0
 1048 0024 5141     		adcs	r1, r1, r2
 1049 0026 0120     		movs	r0, #1
 1050 0028 FFF7FEFF 		bl	_test_assert
 1051              	.LVL9:
 1052 002c C0B1     		cbz	r0, .L10
 1053              	.LBB372:
 1054              	.LBB373:
 1055              		.loc 1 360 0
 1056 002e FFF7FEFF 		bl	_dbg_check_unlock
 1057              	.LVL10:
 1058              		.loc 1 361 0
 1059 0032 FFF7FEFF 		bl	_stats_stop_measure_crit_thd
 1060              	.LVL11:
 1061              		.loc 1 367 0
 1062 0036 094B     		ldr	r3, .L31+4
 1063 0038 1A68     		ldr	r2, [r3]
 1064 003a 9A42     		cmp	r2, r3
 1065 003c 05D0     		beq	.L11
 1066 003e 9969     		ldr	r1, [r3, #24]
 1067 0040 9368     		ldr	r3, [r2, #8]
 1068 0042 8A68     		ldr	r2, [r1, #8]
ARM GAS  /var/folders/c6/c789hm653lg9vtl73krp73tm0000gn/T//ccOdjWuU.s 			page 74


 1069 0044 9A42     		cmp	r2, r3
 1070 0046 C0F08B83 		bcc	.L29
 1071              	.L11:
 1072              	.LVL12:
 1073              	.LBB374:
 1074              	.LBB375:
 1075              	.LBB376:
 1076              		.loc 2 546 0
 1077 004a 0023     		movs	r3, #0
 1078              	@ 546 "../../../os/ext/CMSIS/include/core_cmFunc.h" 1
 1079 004c 83F31188 		MSR basepri, r3
 1080              	@ 0 "" 2
 1081              	.LVL13:
 1082              		.thumb
 1083              	.L9:
 1084              	.LBE376:
 1085              	.LBE375:
 1086              	.LBE374:
 1087              	.LBE373:
 1088              	.LBE372:
 1089              		.loc 3 220 0
 1090 0050 02B0     		add	sp, sp, #8
 1091              		@ sp needed
 1092 0052 BDE8F081 		pop	{r4, r5, r6, r7, r8, pc}
 1093              	.L32:
 1094 0056 00BF     		.align	2
 1095              	.L31:
 1096 0058 00000000 		.word	.LANCHOR1
 1097 005c 00000000 		.word	ch
 1098              	.LVL14:
 1099              	.L10:
 1100              	.LBB378:
 1101              	.LBB379:
 1102              		.loc 1 367 0
 1103 0060 CB4D     		ldr	r5, .L33
 1104              		.loc 1 360 0
 1105 0062 FFF7FEFF 		bl	_dbg_check_unlock
 1106              	.LVL15:
 1107              		.loc 1 361 0
 1108 0066 FFF7FEFF 		bl	_stats_stop_measure_crit_thd
 1109              	.LVL16:
 1110              		.loc 1 367 0
 1111 006a 2B68     		ldr	r3, [r5]
 1112 006c AB42     		cmp	r3, r5
 1113 006e 05D0     		beq	.L13
 1114 0070 AA69     		ldr	r2, [r5, #24]
 1115 0072 9B68     		ldr	r3, [r3, #8]
 1116 0074 9268     		ldr	r2, [r2, #8]
 1117 0076 9A42     		cmp	r2, r3
 1118 0078 C0F07683 		bcc	.L30
 1119              	.L13:
 1120              	.LVL17:
 1121              	.LBB380:
 1122              	.LBB381:
 1123              	.LBB382:
 1124              		.loc 2 546 0
 1125 007c 0023     		movs	r3, #0
ARM GAS  /var/folders/c6/c789hm653lg9vtl73krp73tm0000gn/T//ccOdjWuU.s 			page 75


 1126              	@ 546 "../../../os/ext/CMSIS/include/core_cmFunc.h" 1
 1127 007e 83F31188 		MSR basepri, r3
 1128              	@ 0 "" 2
 1129              	.LVL18:
 1130              		.thumb
 1131 0082 4224     		movs	r4, #66
 1132              	.LVL19:
 1133              	.L16:
 1134              	.LBE382:
 1135              	.LBE381:
 1136              	.LBE380:
 1137              	.LBE379:
 1138              	.LBE378:
 1139              		.loc 3 89 0
 1140 0084 2146     		mov	r1, r4
 1141 0086 C348     		ldr	r0, .L33+4
 1142 0088 4FF0FF32 		mov	r2, #-1
 1143 008c FFF7FEFF 		bl	chMBPost
 1144              	.LVL20:
 1145              		.loc 3 90 0
 1146 0090 D0F10101 		rsbs	r1, r0, #1
 1147 0094 38BF     		it	cc
 1148 0096 0021     		movcc	r1, #0
 1149 0098 0220     		movs	r0, #2
 1150              	.LVL21:
 1151 009a 0134     		adds	r4, r4, #1
 1152              	.LVL22:
 1153 009c FFF7FEFF 		bl	_test_assert
 1154              	.LVL23:
 1155 00a0 0028     		cmp	r0, #0
 1156 00a2 D5D1     		bne	.L9
 1157              		.loc 3 88 0
 1158 00a4 462C     		cmp	r4, #70
 1159 00a6 EDD1     		bne	.L16
 1160              		.loc 3 92 0
 1161 00a8 4121     		movs	r1, #65
 1162 00aa BA48     		ldr	r0, .L33+4
 1163 00ac 4FF0FF32 		mov	r2, #-1
 1164 00b0 FFF7FEFF 		bl	chMBPostAhead
 1165              	.LVL24:
 1166              		.loc 3 93 0
 1167 00b4 D0F10101 		rsbs	r1, r0, #1
 1168 00b8 38BF     		it	cc
 1169 00ba 0021     		movcc	r1, #0
 1170 00bc 0320     		movs	r0, #3
 1171              	.LVL25:
 1172 00be FFF7FEFF 		bl	_test_assert
 1173              	.LVL26:
 1174 00c2 0028     		cmp	r0, #0
 1175 00c4 C4D1     		bne	.L9
 1176              		.loc 3 98 0
 1177 00c6 5821     		movs	r1, #88
 1178 00c8 B248     		ldr	r0, .L33+4
 1179 00ca 0122     		movs	r2, #1
 1180 00cc FFF7FEFF 		bl	chMBPost
 1181              	.LVL27:
 1182              		.loc 3 99 0
ARM GAS  /var/folders/c6/c789hm653lg9vtl73krp73tm0000gn/T//ccOdjWuU.s 			page 76


 1183 00d0 B0F1FF33 		subs	r3, r0, #-1
 1184 00d4 5942     		rsbs	r1, r3, #0
 1185 00d6 5941     		adcs	r1, r1, r3
 1186 00d8 0420     		movs	r0, #4
 1187              	.LVL28:
 1188 00da FFF7FEFF 		bl	_test_assert
 1189              	.LVL29:
 1190 00de 0028     		cmp	r0, #0
 1191 00e0 B6D1     		bne	.L9
 1192              	.LVL30:
 1193              	.LBB384:
 1194              	.LBB385:
 1195              	.LBB386:
 1196              	.LBB387:
 1197              	.LBB388:
 1198              		.loc 2 546 0
 1199 00e2 2023     		movs	r3, #32
 1200              	@ 546 "../../../os/ext/CMSIS/include/core_cmFunc.h" 1
 1201 00e4 83F31188 		MSR basepri, r3
 1202              	@ 0 "" 2
 1203              		.thumb
 1204              	.LBE388:
 1205              	.LBE387:
 1206              	.LBE386:
 1207              		.loc 1 349 0
 1208 00e8 FFF7FEFF 		bl	_stats_start_measure_crit_thd
 1209              	.LVL31:
 1210              		.loc 1 350 0
 1211 00ec FFF7FEFF 		bl	_dbg_check_lock
 1212              	.LVL32:
 1213              	.LBE385:
 1214              	.LBE384:
 1215              		.loc 3 101 0
 1216 00f0 5821     		movs	r1, #88
 1217 00f2 A848     		ldr	r0, .L33+4
 1218 00f4 FFF7FEFF 		bl	chMBPostI
 1219              	.LVL33:
 1220 00f8 0446     		mov	r4, r0
 1221              	.LVL34:
 1222              	.LBB389:
 1223              	.LBB390:
 1224              		.loc 1 360 0
 1225 00fa FFF7FEFF 		bl	_dbg_check_unlock
 1226              	.LVL35:
 1227              		.loc 1 361 0
 1228 00fe FFF7FEFF 		bl	_stats_stop_measure_crit_thd
 1229              	.LVL36:
 1230              		.loc 1 367 0
 1231 0102 2B68     		ldr	r3, [r5]
 1232 0104 A24A     		ldr	r2, .L33
 1233 0106 AB42     		cmp	r3, r5
 1234 0108 07D0     		beq	.L17
 1235 010a 9269     		ldr	r2, [r2, #24]
 1236 010c 9B68     		ldr	r3, [r3, #8]
 1237 010e 9268     		ldr	r2, [r2, #8]
 1238 0110 9A42     		cmp	r2, r3
 1239 0112 02D2     		bcs	.L17
ARM GAS  /var/folders/c6/c789hm653lg9vtl73krp73tm0000gn/T//ccOdjWuU.s 			page 77


 1240 0114 A048     		ldr	r0, .L33+8
 1241 0116 FFF7FEFF 		bl	chSysHalt
 1242              	.LVL37:
 1243              	.L17:
 1244              	.LBB391:
 1245              	.LBB392:
 1246              	.LBB393:
 1247              		.loc 2 546 0
 1248 011a 0023     		movs	r3, #0
 1249              	@ 546 "../../../os/ext/CMSIS/include/core_cmFunc.h" 1
 1250 011c 83F31188 		MSR basepri, r3
 1251              	@ 0 "" 2
 1252              		.thumb
 1253              	.LBE393:
 1254              	.LBE392:
 1255              	.LBE391:
 1256              	.LBE390:
 1257              	.LBE389:
 1258              		.loc 3 103 0
 1259 0120 B4F1FF38 		subs	r8, r4, #-1
 1260 0124 D8F10001 		rsbs	r1, r8, #0
 1261 0128 51EB0801 		adcs	r1, r1, r8
 1262 012c 0520     		movs	r0, #5
 1263 012e FFF7FEFF 		bl	_test_assert
 1264              	.LVL38:
 1265 0132 0028     		cmp	r0, #0
 1266 0134 8CD1     		bne	.L9
 1267              		.loc 3 104 0
 1268 0136 5821     		movs	r1, #88
 1269 0138 9648     		ldr	r0, .L33+4
 1270 013a 0122     		movs	r2, #1
 1271 013c FFF7FEFF 		bl	chMBPostAhead
 1272              	.LVL39:
 1273              		.loc 3 105 0
 1274 0140 B0F1FF3C 		subs	ip, r0, #-1
 1275 0144 DCF10001 		rsbs	r1, ip, #0
 1276 0148 51EB0C01 		adcs	r1, r1, ip
 1277 014c 0620     		movs	r0, #6
 1278              	.LVL40:
 1279 014e FFF7FEFF 		bl	_test_assert
 1280              	.LVL41:
 1281 0152 0028     		cmp	r0, #0
 1282 0154 7FF47CAF 		bne	.L9
 1283              	.LVL42:
 1284              	.LBB394:
 1285              	.LBB395:
 1286              	.LBB396:
 1287              	.LBB397:
 1288              	.LBB398:
 1289              		.loc 2 546 0
 1290 0158 2023     		movs	r3, #32
 1291              	@ 546 "../../../os/ext/CMSIS/include/core_cmFunc.h" 1
 1292 015a 83F31188 		MSR basepri, r3
 1293              	@ 0 "" 2
 1294              		.thumb
 1295              	.LBE398:
 1296              	.LBE397:
ARM GAS  /var/folders/c6/c789hm653lg9vtl73krp73tm0000gn/T//ccOdjWuU.s 			page 78


 1297              	.LBE396:
 1298              		.loc 1 349 0
 1299 015e FFF7FEFF 		bl	_stats_start_measure_crit_thd
 1300              	.LVL43:
 1301              		.loc 1 350 0
 1302 0162 FFF7FEFF 		bl	_dbg_check_lock
 1303              	.LVL44:
 1304              	.LBE395:
 1305              	.LBE394:
 1306              		.loc 3 107 0
 1307 0166 5821     		movs	r1, #88
 1308 0168 8A48     		ldr	r0, .L33+4
 1309 016a FFF7FEFF 		bl	chMBPostAheadI
 1310              	.LVL45:
 1311 016e 0446     		mov	r4, r0
 1312              	.LVL46:
 1313              	.LBB399:
 1314              	.LBB400:
 1315              		.loc 1 360 0
 1316 0170 FFF7FEFF 		bl	_dbg_check_unlock
 1317              	.LVL47:
 1318              		.loc 1 361 0
 1319 0174 FFF7FEFF 		bl	_stats_stop_measure_crit_thd
 1320              	.LVL48:
 1321              		.loc 1 367 0
 1322 0178 2B68     		ldr	r3, [r5]
 1323 017a 854A     		ldr	r2, .L33
 1324 017c AB42     		cmp	r3, r5
 1325 017e 07D0     		beq	.L18
 1326 0180 9269     		ldr	r2, [r2, #24]
 1327 0182 9B68     		ldr	r3, [r3, #8]
 1328 0184 9268     		ldr	r2, [r2, #8]
 1329 0186 9A42     		cmp	r2, r3
 1330 0188 02D2     		bcs	.L18
 1331 018a 8348     		ldr	r0, .L33+8
 1332 018c FFF7FEFF 		bl	chSysHalt
 1333              	.LVL49:
 1334              	.L18:
 1335              	.LBB401:
 1336              	.LBB402:
 1337              	.LBB403:
 1338              		.loc 2 546 0
 1339 0190 0023     		movs	r3, #0
 1340              	@ 546 "../../../os/ext/CMSIS/include/core_cmFunc.h" 1
 1341 0192 83F31188 		MSR basepri, r3
 1342              	@ 0 "" 2
 1343              		.thumb
 1344              	.LBE403:
 1345              	.LBE402:
 1346              	.LBE401:
 1347              	.LBE400:
 1348              	.LBE399:
 1349              		.loc 3 109 0
 1350 0196 B4F1FF3E 		subs	lr, r4, #-1
 1351 019a DEF10001 		rsbs	r1, lr, #0
 1352 019e 51EB0E01 		adcs	r1, r1, lr
 1353 01a2 0720     		movs	r0, #7
ARM GAS  /var/folders/c6/c789hm653lg9vtl73krp73tm0000gn/T//ccOdjWuU.s 			page 79


 1354 01a4 FFF7FEFF 		bl	_test_assert
 1355              	.LVL50:
 1356 01a8 0028     		cmp	r0, #0
 1357 01aa 7FF451AF 		bne	.L9
 1358              	.LVL51:
 1359              	.LBB404:
 1360              	.LBB405:
 1361              	.LBB406:
 1362              	.LBB407:
 1363              	.LBB408:
 1364              		.loc 2 546 0
 1365 01ae 2025     		movs	r5, #32
 1366              	@ 546 "../../../os/ext/CMSIS/include/core_cmFunc.h" 1
 1367 01b0 85F31188 		MSR basepri, r5
 1368              	@ 0 "" 2
 1369              		.thumb
 1370              	.LBE408:
 1371              	.LBE407:
 1372              	.LBE406:
 1373              		.loc 1 349 0
 1374 01b4 FFF7FEFF 		bl	_stats_start_measure_crit_thd
 1375              	.LVL52:
 1376              		.loc 1 350 0
 1377 01b8 FFF7FEFF 		bl	_dbg_check_lock
 1378              	.LVL53:
 1379              	.LBE405:
 1380              	.LBE404:
 1381              	.LBB409:
 1382              	.LBB410:
 1383              		.loc 5 160 0
 1384 01bc FFF7FEFF 		bl	chDbgCheckClassI
 1385              	.LVL54:
 1386              	.LBB411:
 1387              	.LBB412:
 1388              		.loc 4 151 0
 1389 01c0 FFF7FEFF 		bl	chDbgCheckClassI
 1390              	.LVL55:
 1391              	.LBE412:
 1392              	.LBE411:
 1393              	.LBE410:
 1394              	.LBE409:
 1395              		.loc 3 114 0
 1396 01c4 716A     		ldr	r1, [r6, #36]
 1397              	.LBB416:
 1398              	.LBB415:
 1399              	.LBB414:
 1400              	.LBB413:
 1401              		.loc 4 153 0
 1402 01c6 734C     		ldr	r4, .L33+4
 1403              	.LVL56:
 1404              	.LBE413:
 1405              	.LBE414:
 1406              	.LBE415:
 1407              	.LBE416:
 1408              		.loc 3 114 0
 1409 01c8 D1F10101 		rsbs	r1, r1, #1
 1410 01cc 38BF     		it	cc
ARM GAS  /var/folders/c6/c789hm653lg9vtl73krp73tm0000gn/T//ccOdjWuU.s 			page 80


 1411 01ce 0021     		movcc	r1, #0
 1412 01d0 0820     		movs	r0, #8
 1413 01d2 FFF7FEFF 		bl	_test_assert
 1414              	.LVL57:
 1415 01d6 0028     		cmp	r0, #0
 1416 01d8 40F0BF82 		bne	.L28
 1417              		.loc 3 114 0 is_stmt 0 discriminator 2
 1418 01dc FFF7FEFF 		bl	chSysUnlock
 1419              	.LVL58:
 1420              	.LBB417:
 1421              	.LBB418:
 1422              	.LBB419:
 1423              	.LBB420:
 1424              	.LBB421:
 1425              		.loc 2 546 0 is_stmt 1 discriminator 2
 1426              	@ 546 "../../../os/ext/CMSIS/include/core_cmFunc.h" 1
 1427 01e0 85F31188 		MSR basepri, r5
 1428              	@ 0 "" 2
 1429              		.thumb
 1430              	.LBE421:
 1431              	.LBE420:
 1432              	.LBE419:
 1433              		.loc 1 349 0 discriminator 2
 1434 01e4 FFF7FEFF 		bl	_stats_start_measure_crit_thd
 1435              	.LVL59:
 1436              		.loc 1 350 0 discriminator 2
 1437 01e8 FFF7FEFF 		bl	_dbg_check_lock
 1438              	.LVL60:
 1439              	.LBE418:
 1440              	.LBE417:
 1441              	.LBB422:
 1442              	.LBB423:
 1443              		.loc 5 179 0 discriminator 2
 1444 01ec FFF7FEFF 		bl	chDbgCheckClassI
 1445              	.LVL61:
 1446              	.LBB424:
 1447              	.LBB425:
 1448              		.loc 4 151 0 discriminator 2
 1449 01f0 FFF7FEFF 		bl	chDbgCheckClassI
 1450              	.LVL62:
 1451              	.LBE425:
 1452              	.LBE424:
 1453              	.LBE423:
 1454              	.LBE422:
 1455              		.loc 3 115 0 discriminator 2
 1456 01f4 A169     		ldr	r1, [r4, #24]
 1457 01f6 4F1F     		subs	r7, r1, #5
 1458 01f8 7942     		rsbs	r1, r7, #0
 1459 01fa 7941     		adcs	r1, r1, r7
 1460 01fc 0920     		movs	r0, #9
 1461 01fe FFF7FEFF 		bl	_test_assert
 1462              	.LVL63:
 1463 0202 0028     		cmp	r0, #0
 1464 0204 40F0A982 		bne	.L28
 1465 0208 FFF7FEFF 		bl	chSysUnlock
 1466              	.LVL64:
 1467              	.LBB426:
ARM GAS  /var/folders/c6/c789hm653lg9vtl73krp73tm0000gn/T//ccOdjWuU.s 			page 81


 1468              	.LBB427:
 1469              	.LBB428:
 1470              	.LBB429:
 1471              	.LBB430:
 1472              		.loc 2 546 0 discriminator 2
 1473              	@ 546 "../../../os/ext/CMSIS/include/core_cmFunc.h" 1
 1474 020c 85F31188 		MSR basepri, r5
 1475              	@ 0 "" 2
 1476              		.thumb
 1477              	.LBE430:
 1478              	.LBE429:
 1479              	.LBE428:
 1480              		.loc 1 349 0 discriminator 2
 1481 0210 FFF7FEFF 		bl	_stats_start_measure_crit_thd
 1482              	.LVL65:
 1483              		.loc 1 350 0 discriminator 2
 1484 0214 FFF7FEFF 		bl	_dbg_check_lock
 1485              	.LVL66:
 1486              	.LBE427:
 1487              	.LBE426:
 1488              		.loc 3 116 0 discriminator 2
 1489 0218 E168     		ldr	r1, [r4, #12]
 1490 021a A368     		ldr	r3, [r4, #8]
 1491 021c CA1A     		subs	r2, r1, r3
 1492 021e 5142     		rsbs	r1, r2, #0
 1493 0220 5141     		adcs	r1, r1, r2
 1494 0222 0A20     		movs	r0, #10
 1495 0224 FFF7FEFF 		bl	_test_assert
 1496              	.LVL67:
 1497 0228 0028     		cmp	r0, #0
 1498 022a 40F09682 		bne	.L28
 1499 022e FFF7FEFF 		bl	chSysUnlock
 1500              	.LVL68:
 1501 0232 0525     		movs	r5, #5
 1502              	.LVL69:
 1503              	.L22:
 1504              		.loc 3 122 0
 1505 0234 574C     		ldr	r4, .L33+4
 1506 0236 01A9     		add	r1, sp, #4
 1507 0238 2046     		mov	r0, r4
 1508 023a 4FF0FF32 		mov	r2, #-1
 1509 023e FFF7FEFF 		bl	chMBFetch
 1510              	.LVL70:
 1511              		.loc 3 123 0
 1512 0242 D0F10101 		rsbs	r1, r0, #1
 1513 0246 38BF     		it	cc
 1514 0248 0021     		movcc	r1, #0
 1515 024a 0B20     		movs	r0, #11
 1516              	.LVL71:
 1517 024c FFF7FEFF 		bl	_test_assert
 1518              	.LVL72:
 1519 0250 0028     		cmp	r0, #0
 1520 0252 7FF4FDAE 		bne	.L9
 1521              		.loc 3 124 0
 1522 0256 9DF80400 		ldrb	r0, [sp, #4]	@ zero_extendqisi2
 1523 025a FFF7FEFF 		bl	test_emit_token
 1524              	.LVL73:
ARM GAS  /var/folders/c6/c789hm653lg9vtl73krp73tm0000gn/T//ccOdjWuU.s 			page 82


 1525              		.loc 3 121 0
 1526 025e 013D     		subs	r5, r5, #1
 1527              	.LVL74:
 1528 0260 E8D1     		bne	.L22
 1529              		.loc 3 126 0
 1530 0262 0C20     		movs	r0, #12
 1531 0264 4D49     		ldr	r1, .L33+12
 1532 0266 FFF7FEFF 		bl	_test_assert_sequence
 1533              	.LVL75:
 1534 026a 0028     		cmp	r0, #0
 1535 026c 7FF4F0AE 		bne	.L9
 1536              		.loc 3 131 0
 1537 0270 4721     		movs	r1, #71
 1538 0272 2046     		mov	r0, r4
 1539 0274 4FF0FF32 		mov	r2, #-1
 1540 0278 FFF7FEFF 		bl	chMBPost
 1541              	.LVL76:
 1542              		.loc 3 132 0
 1543 027c D0F10101 		rsbs	r1, r0, #1
 1544 0280 38BF     		it	cc
 1545 0282 0021     		movcc	r1, #0
 1546 0284 0D20     		movs	r0, #13
 1547              	.LVL77:
 1548 0286 FFF7FEFF 		bl	_test_assert
 1549              	.LVL78:
 1550 028a 0028     		cmp	r0, #0
 1551 028c 7FF4E0AE 		bne	.L9
 1552              		.loc 3 133 0
 1553 0290 01A9     		add	r1, sp, #4
 1554 0292 2046     		mov	r0, r4
 1555 0294 4FF0FF32 		mov	r2, #-1
 1556 0298 FFF7FEFF 		bl	chMBFetch
 1557              	.LVL79:
 1558              		.loc 3 134 0
 1559 029c D0F10101 		rsbs	r1, r0, #1
 1560 02a0 38BF     		it	cc
 1561 02a2 0021     		movcc	r1, #0
 1562 02a4 0E20     		movs	r0, #14
 1563              	.LVL80:
 1564 02a6 FFF7FEFF 		bl	_test_assert
 1565              	.LVL81:
 1566 02aa 0028     		cmp	r0, #0
 1567 02ac 7FF4D0AE 		bne	.L9
 1568              		.loc 3 135 0
 1569 02b0 2168     		ldr	r1, [r4]
 1570 02b2 A368     		ldr	r3, [r4, #8]
 1571 02b4 CB1A     		subs	r3, r1, r3
 1572 02b6 5942     		rsbs	r1, r3, #0
 1573 02b8 5941     		adcs	r1, r1, r3
 1574 02ba 0F20     		movs	r0, #15
 1575 02bc FFF7FEFF 		bl	_test_assert
 1576              	.LVL82:
 1577 02c0 0028     		cmp	r0, #0
 1578 02c2 7FF4C5AE 		bne	.L9
 1579              		.loc 3 136 0
 1580 02c6 2168     		ldr	r1, [r4]
 1581 02c8 E368     		ldr	r3, [r4, #12]
ARM GAS  /var/folders/c6/c789hm653lg9vtl73krp73tm0000gn/T//ccOdjWuU.s 			page 83


 1582 02ca B1EB0308 		subs	r8, r1, r3
 1583 02ce D8F10001 		rsbs	r1, r8, #0
 1584 02d2 51EB0801 		adcs	r1, r1, r8
 1585 02d6 1020     		movs	r0, #16
 1586 02d8 FFF7FEFF 		bl	_test_assert
 1587              	.LVL83:
 1588 02dc 0028     		cmp	r0, #0
 1589 02de 7FF4B7AE 		bne	.L9
 1590              		.loc 3 141 0
 1591 02e2 01A9     		add	r1, sp, #4
 1592 02e4 2046     		mov	r0, r4
 1593 02e6 0122     		movs	r2, #1
 1594 02e8 FFF7FEFF 		bl	chMBFetch
 1595              	.LVL84:
 1596              		.loc 3 142 0
 1597 02ec B0F1FF3C 		subs	ip, r0, #-1
 1598 02f0 DCF10001 		rsbs	r1, ip, #0
 1599 02f4 51EB0C01 		adcs	r1, r1, ip
 1600 02f8 1120     		movs	r0, #17
 1601              	.LVL85:
 1602 02fa FFF7FEFF 		bl	_test_assert
 1603              	.LVL86:
 1604 02fe 0028     		cmp	r0, #0
 1605 0300 7FF4A6AE 		bne	.L9
 1606              	.LVL87:
 1607              	.LBB431:
 1608              	.LBB432:
 1609              	.LBB433:
 1610              	.LBB434:
 1611              	.LBB435:
 1612              		.loc 2 546 0
 1613 0304 2025     		movs	r5, #32
 1614              	.LVL88:
 1615              	@ 546 "../../../os/ext/CMSIS/include/core_cmFunc.h" 1
 1616 0306 85F31188 		MSR basepri, r5
 1617              	@ 0 "" 2
 1618              		.thumb
 1619              	.LBE435:
 1620              	.LBE434:
 1621              	.LBE433:
 1622              		.loc 1 349 0
 1623 030a FFF7FEFF 		bl	_stats_start_measure_crit_thd
 1624              	.LVL89:
 1625              		.loc 1 350 0
 1626 030e FFF7FEFF 		bl	_dbg_check_lock
 1627              	.LVL90:
 1628              	.LBE432:
 1629              	.LBE431:
 1630              		.loc 3 144 0
 1631 0312 01A9     		add	r1, sp, #4
 1632 0314 2046     		mov	r0, r4
 1633 0316 FFF7FEFF 		bl	chMBFetchI
 1634              	.LVL91:
 1635 031a 0746     		mov	r7, r0
 1636              	.LVL92:
 1637              		.loc 3 145 0
 1638 031c FFF7FEFF 		bl	chSysUnlock
ARM GAS  /var/folders/c6/c789hm653lg9vtl73krp73tm0000gn/T//ccOdjWuU.s 			page 84


 1639              	.LVL93:
 1640              		.loc 3 146 0
 1641 0320 B7F1FF3E 		subs	lr, r7, #-1
 1642 0324 DEF10001 		rsbs	r1, lr, #0
 1643 0328 51EB0E01 		adcs	r1, r1, lr
 1644 032c 1220     		movs	r0, #18
 1645 032e FFF7FEFF 		bl	_test_assert
 1646              	.LVL94:
 1647 0332 0028     		cmp	r0, #0
 1648 0334 7FF48CAE 		bne	.L9
 1649              	.LVL95:
 1650              	.LBB436:
 1651              	.LBB437:
 1652              	.LBB438:
 1653              	.LBB439:
 1654              	.LBB440:
 1655              		.loc 2 546 0
 1656              	@ 546 "../../../os/ext/CMSIS/include/core_cmFunc.h" 1
 1657 0338 85F31188 		MSR basepri, r5
 1658              	@ 0 "" 2
 1659              		.thumb
 1660              	.LBE440:
 1661              	.LBE439:
 1662              	.LBE438:
 1663              		.loc 1 349 0
 1664 033c FFF7FEFF 		bl	_stats_start_measure_crit_thd
 1665              	.LVL96:
 1666              		.loc 1 350 0
 1667 0340 FFF7FEFF 		bl	_dbg_check_lock
 1668              	.LVL97:
 1669              	.LBE437:
 1670              	.LBE436:
 1671              	.LBB441:
 1672              	.LBB442:
 1673              		.loc 5 160 0
 1674 0344 FFF7FEFF 		bl	chDbgCheckClassI
 1675              	.LVL98:
 1676              	.LBB443:
 1677              	.LBB444:
 1678              		.loc 4 151 0
 1679 0348 FFF7FEFF 		bl	chDbgCheckClassI
 1680              	.LVL99:
 1681              	.LBE444:
 1682              	.LBE443:
 1683              	.LBE442:
 1684              	.LBE441:
 1685              		.loc 3 151 0
 1686 034c 616A     		ldr	r1, [r4, #36]
 1687 034e 4F1F     		subs	r7, r1, #5
 1688              	.LVL100:
 1689 0350 7942     		rsbs	r1, r7, #0
 1690 0352 7941     		adcs	r1, r1, r7
 1691 0354 1320     		movs	r0, #19
 1692 0356 FFF7FEFF 		bl	_test_assert
 1693              	.LVL101:
 1694 035a 0028     		cmp	r0, #0
 1695 035c 40F0FD81 		bne	.L28
ARM GAS  /var/folders/c6/c789hm653lg9vtl73krp73tm0000gn/T//ccOdjWuU.s 			page 85


 1696              		.loc 3 151 0 is_stmt 0 discriminator 2
 1697 0360 FFF7FEFF 		bl	chSysUnlock
 1698              	.LVL102:
 1699              	.LBB445:
 1700              	.LBB446:
 1701              	.LBB447:
 1702              	.LBB448:
 1703              	.LBB449:
 1704              		.loc 2 546 0 is_stmt 1 discriminator 2
 1705              	@ 546 "../../../os/ext/CMSIS/include/core_cmFunc.h" 1
 1706 0364 85F31188 		MSR basepri, r5
 1707              	@ 0 "" 2
 1708              		.thumb
 1709              	.LBE449:
 1710              	.LBE448:
 1711              	.LBE447:
 1712              		.loc 1 349 0 discriminator 2
 1713 0368 FFF7FEFF 		bl	_stats_start_measure_crit_thd
 1714              	.LVL103:
 1715              		.loc 1 350 0 discriminator 2
 1716 036c FFF7FEFF 		bl	_dbg_check_lock
 1717              	.LVL104:
 1718              	.LBE446:
 1719              	.LBE445:
 1720              	.LBB450:
 1721              	.LBB451:
 1722              		.loc 5 179 0 discriminator 2
 1723 0370 FFF7FEFF 		bl	chDbgCheckClassI
 1724              	.LVL105:
 1725              	.LBB452:
 1726              	.LBB453:
 1727              		.loc 4 151 0 discriminator 2
 1728 0374 FFF7FEFF 		bl	chDbgCheckClassI
 1729              	.LVL106:
 1730              	.LBE453:
 1731              	.LBE452:
 1732              	.LBE451:
 1733              	.LBE450:
 1734              		.loc 3 152 0 discriminator 2
 1735 0378 B169     		ldr	r1, [r6, #24]
 1736 037a D1F10101 		rsbs	r1, r1, #1
 1737 037e 38BF     		it	cc
 1738 0380 0021     		movcc	r1, #0
 1739 0382 1420     		movs	r0, #20
 1740 0384 FFF7FEFF 		bl	_test_assert
 1741              	.LVL107:
 1742 0388 0028     		cmp	r0, #0
 1743 038a 40F0E681 		bne	.L28
 1744 038e 07E0     		b	.L34
 1745              	.L35:
 1746              		.align	2
 1747              	.L33:
 1748 0390 00000000 		.word	ch
 1749 0394 00000000 		.word	.LANCHOR1
 1750 0398 00000000 		.word	.LANCHOR0
 1751 039c 00000000 		.word	.LC0
 1752              	.L34:
ARM GAS  /var/folders/c6/c789hm653lg9vtl73krp73tm0000gn/T//ccOdjWuU.s 			page 86


 1753 03a0 FFF7FEFF 		bl	chSysUnlock
 1754              	.LVL108:
 1755              	.LBB454:
 1756              	.LBB455:
 1757              	.LBB456:
 1758              	.LBB457:
 1759              	.LBB458:
 1760              		.loc 2 546 0 discriminator 2
 1761              	@ 546 "../../../os/ext/CMSIS/include/core_cmFunc.h" 1
 1762 03a4 85F31188 		MSR basepri, r5
 1763              	@ 0 "" 2
 1764              		.thumb
 1765              	.LBE458:
 1766              	.LBE457:
 1767              	.LBE456:
 1768              		.loc 1 349 0 discriminator 2
 1769 03a8 FFF7FEFF 		bl	_stats_start_measure_crit_thd
 1770              	.LVL109:
 1771              		.loc 1 350 0 discriminator 2
 1772 03ac FFF7FEFF 		bl	_dbg_check_lock
 1773              	.LVL110:
 1774              	.LBE455:
 1775              	.LBE454:
 1776              		.loc 3 153 0 discriminator 2
 1777 03b0 E168     		ldr	r1, [r4, #12]
 1778 03b2 A368     		ldr	r3, [r4, #8]
 1779 03b4 CE1A     		subs	r6, r1, r3
 1780 03b6 7142     		rsbs	r1, r6, #0
 1781 03b8 7141     		adcs	r1, r1, r6
 1782 03ba 1520     		movs	r0, #21
 1783 03bc FFF7FEFF 		bl	_test_assert
 1784              	.LVL111:
 1785 03c0 0028     		cmp	r0, #0
 1786 03c2 40F0CA81 		bne	.L28
 1787 03c6 FFF7FEFF 		bl	chSysUnlock
 1788              	.LVL112:
 1789              	.LBB459:
 1790              	.LBB460:
 1791              	.LBB461:
 1792              	.LBB462:
 1793              	.LBB463:
 1794              		.loc 2 546 0 discriminator 2
 1795              	@ 546 "../../../os/ext/CMSIS/include/core_cmFunc.h" 1
 1796 03ca 85F31188 		MSR basepri, r5
 1797              	@ 0 "" 2
 1798              		.thumb
 1799              	.LBE463:
 1800              	.LBE462:
 1801              	.LBE461:
 1802              		.loc 1 349 0 discriminator 2
 1803 03ce FFF7FEFF 		bl	_stats_start_measure_crit_thd
 1804              	.LVL113:
 1805              		.loc 1 350 0 discriminator 2
 1806 03d2 FFF7FEFF 		bl	_dbg_check_lock
 1807              	.LVL114:
 1808              	.LBE460:
 1809              	.LBE459:
ARM GAS  /var/folders/c6/c789hm653lg9vtl73krp73tm0000gn/T//ccOdjWuU.s 			page 87


 1810              		.loc 3 159 0 discriminator 2
 1811 03d6 4121     		movs	r1, #65
 1812 03d8 2046     		mov	r0, r4
 1813 03da FFF7FEFF 		bl	chMBPostI
 1814              	.LVL115:
 1815              		.loc 3 160 0 discriminator 2
 1816 03de D0F10101 		rsbs	r1, r0, #1
 1817 03e2 38BF     		it	cc
 1818 03e4 0021     		movcc	r1, #0
 1819 03e6 1620     		movs	r0, #22
 1820              	.LVL116:
 1821 03e8 FFF7FEFF 		bl	_test_assert
 1822              	.LVL117:
 1823 03ec 0028     		cmp	r0, #0
 1824 03ee 7FF42FAE 		bne	.L9
 1825              		.loc 3 161 0
 1826 03f2 4221     		movs	r1, #66
 1827 03f4 2046     		mov	r0, r4
 1828 03f6 FFF7FEFF 		bl	chMBPostI
 1829              	.LVL118:
 1830              		.loc 3 162 0
 1831 03fa D0F10101 		rsbs	r1, r0, #1
 1832 03fe 38BF     		it	cc
 1833 0400 0021     		movcc	r1, #0
 1834 0402 1720     		movs	r0, #23
 1835              	.LVL119:
 1836 0404 FFF7FEFF 		bl	_test_assert
 1837              	.LVL120:
 1838 0408 0028     		cmp	r0, #0
 1839 040a 7FF421AE 		bne	.L9
 1840              		.loc 3 163 0
 1841 040e 4321     		movs	r1, #67
 1842 0410 2046     		mov	r0, r4
 1843 0412 FFF7FEFF 		bl	chMBPostI
 1844              	.LVL121:
 1845              		.loc 3 164 0
 1846 0416 D0F10101 		rsbs	r1, r0, #1
 1847 041a 38BF     		it	cc
 1848 041c 0021     		movcc	r1, #0
 1849 041e 1820     		movs	r0, #24
 1850              	.LVL122:
 1851 0420 FFF7FEFF 		bl	_test_assert
 1852              	.LVL123:
 1853 0424 0028     		cmp	r0, #0
 1854 0426 7FF413AE 		bne	.L9
 1855              		.loc 3 165 0
 1856 042a 4421     		movs	r1, #68
 1857 042c 2046     		mov	r0, r4
 1858 042e FFF7FEFF 		bl	chMBPostI
 1859              	.LVL124:
 1860              		.loc 3 166 0
 1861 0432 D0F10101 		rsbs	r1, r0, #1
 1862 0436 38BF     		it	cc
 1863 0438 0021     		movcc	r1, #0
 1864 043a 1920     		movs	r0, #25
 1865              	.LVL125:
 1866 043c FFF7FEFF 		bl	_test_assert
ARM GAS  /var/folders/c6/c789hm653lg9vtl73krp73tm0000gn/T//ccOdjWuU.s 			page 88


 1867              	.LVL126:
 1868 0440 0028     		cmp	r0, #0
 1869 0442 7FF405AE 		bne	.L9
 1870              		.loc 3 167 0
 1871 0446 4521     		movs	r1, #69
 1872 0448 2046     		mov	r0, r4
 1873 044a FFF7FEFF 		bl	chMBPostI
 1874              	.LVL127:
 1875 044e 0646     		mov	r6, r0
 1876              	.LVL128:
 1877              		.loc 3 168 0
 1878 0450 FFF7FEFF 		bl	chSysUnlock
 1879              	.LVL129:
 1880              		.loc 3 169 0
 1881 0454 D6F10101 		rsbs	r1, r6, #1
 1882 0458 38BF     		it	cc
 1883 045a 0021     		movcc	r1, #0
 1884 045c 1A20     		movs	r0, #26
 1885 045e FFF7FEFF 		bl	_test_assert
 1886              	.LVL130:
 1887 0462 0028     		cmp	r0, #0
 1888 0464 7FF4F4AD 		bne	.L9
 1889              		.loc 3 170 0
 1890 0468 E168     		ldr	r1, [r4, #12]
 1891 046a A368     		ldr	r3, [r4, #8]
 1892 046c CA1A     		subs	r2, r1, r3
 1893 046e 5142     		rsbs	r1, r2, #0
 1894 0470 5141     		adcs	r1, r1, r2
 1895 0472 1B20     		movs	r0, #27
 1896 0474 FFF7FEFF 		bl	_test_assert
 1897              	.LVL131:
 1898 0478 0028     		cmp	r0, #0
 1899 047a 7FF4E9AD 		bne	.L9
 1900              	.LBB464:
 1901              	.LBB465:
 1902              	.LBB466:
 1903              	.LBB467:
 1904              	.LBB468:
 1905              		.loc 2 546 0
 1906 047e 2F46     		mov	r7, r5
 1907              	.LBE468:
 1908              	.LBE467:
 1909              	.LBE466:
 1910              	.LBE465:
 1911              	.LBE464:
 1912              		.loc 3 170 0
 1913 0480 0526     		movs	r6, #5
 1914              	.LVL132:
 1915              	.L24:
 1916              	.LBB474:
 1917              	.LBB472:
 1918              	.LBB471:
 1919              	.LBB470:
 1920              	.LBB469:
 1921              		.loc 2 546 0
 1922 0482 2025     		movs	r5, #32
 1923              	@ 546 "../../../os/ext/CMSIS/include/core_cmFunc.h" 1
ARM GAS  /var/folders/c6/c789hm653lg9vtl73krp73tm0000gn/T//ccOdjWuU.s 			page 89


 1924 0484 87F31188 		MSR basepri, r7
 1925              	@ 0 "" 2
 1926              		.thumb
 1927              	.LBE469:
 1928              	.LBE470:
 1929              	.LBE471:
 1930              	.LBE472:
 1931              	.LBE474:
 1932              		.loc 3 173 0
 1933 0488 B94C     		ldr	r4, .L36
 1934              	.LBB475:
 1935              	.LBB473:
 1936              		.loc 1 349 0
 1937 048a FFF7FEFF 		bl	_stats_start_measure_crit_thd
 1938              	.LVL133:
 1939              		.loc 1 350 0
 1940 048e FFF7FEFF 		bl	_dbg_check_lock
 1941              	.LVL134:
 1942              	.LBE473:
 1943              	.LBE475:
 1944              		.loc 3 173 0
 1945 0492 01A9     		add	r1, sp, #4
 1946 0494 2046     		mov	r0, r4
 1947 0496 FFF7FEFF 		bl	chMBFetchI
 1948              	.LVL135:
 1949 049a 8046     		mov	r8, r0
 1950              	.LVL136:
 1951              		.loc 3 174 0
 1952 049c FFF7FEFF 		bl	chSysUnlock
 1953              	.LVL137:
 1954              		.loc 3 175 0
 1955 04a0 D8F10101 		rsbs	r1, r8, #1
 1956 04a4 38BF     		it	cc
 1957 04a6 0021     		movcc	r1, #0
 1958 04a8 1C20     		movs	r0, #28
 1959 04aa FFF7FEFF 		bl	_test_assert
 1960              	.LVL138:
 1961 04ae 0028     		cmp	r0, #0
 1962 04b0 7FF4CEAD 		bne	.L9
 1963              		.loc 3 176 0
 1964 04b4 9DF80400 		ldrb	r0, [sp, #4]	@ zero_extendqisi2
 1965 04b8 FFF7FEFF 		bl	test_emit_token
 1966              	.LVL139:
 1967              		.loc 3 171 0
 1968 04bc 013E     		subs	r6, r6, #1
 1969              	.LVL140:
 1970 04be E0D1     		bne	.L24
 1971              		.loc 3 178 0
 1972 04c0 1D20     		movs	r0, #29
 1973 04c2 AC49     		ldr	r1, .L36+4
 1974 04c4 FFF7FEFF 		bl	_test_assert_sequence
 1975              	.LVL141:
 1976 04c8 0028     		cmp	r0, #0
 1977 04ca 7FF4C1AD 		bne	.L9
 1978              	.LVL142:
 1979              	.LBB476:
 1980              	.LBB477:
ARM GAS  /var/folders/c6/c789hm653lg9vtl73krp73tm0000gn/T//ccOdjWuU.s 			page 90


 1981              	.LBB478:
 1982              	.LBB479:
 1983              	.LBB480:
 1984              		.loc 2 546 0
 1985              	@ 546 "../../../os/ext/CMSIS/include/core_cmFunc.h" 1
 1986 04ce 85F31188 		MSR basepri, r5
 1987              	@ 0 "" 2
 1988              		.thumb
 1989              	.LBE480:
 1990              	.LBE479:
 1991              	.LBE478:
 1992              		.loc 1 349 0
 1993 04d2 FFF7FEFF 		bl	_stats_start_measure_crit_thd
 1994              	.LVL143:
 1995              		.loc 1 350 0
 1996 04d6 FFF7FEFF 		bl	_dbg_check_lock
 1997              	.LVL144:
 1998              	.LBE477:
 1999              	.LBE476:
 2000              	.LBB481:
 2001              	.LBB482:
 2002              		.loc 5 160 0
 2003 04da FFF7FEFF 		bl	chDbgCheckClassI
 2004              	.LVL145:
 2005              	.LBB483:
 2006              	.LBB484:
 2007              		.loc 4 151 0
 2008 04de FFF7FEFF 		bl	chDbgCheckClassI
 2009              	.LVL146:
 2010              	.LBE484:
 2011              	.LBE483:
 2012              	.LBE482:
 2013              	.LBE481:
 2014              		.loc 3 179 0
 2015 04e2 616A     		ldr	r1, [r4, #36]
 2016 04e4 4B1F     		subs	r3, r1, #5
 2017 04e6 5942     		rsbs	r1, r3, #0
 2018 04e8 5941     		adcs	r1, r1, r3
 2019 04ea 1E20     		movs	r0, #30
 2020 04ec FFF7FEFF 		bl	_test_assert
 2021              	.LVL147:
 2022 04f0 0028     		cmp	r0, #0
 2023 04f2 40F03281 		bne	.L28
 2024              		.loc 3 179 0 is_stmt 0 discriminator 2
 2025 04f6 FFF7FEFF 		bl	chSysUnlock
 2026              	.LVL148:
 2027              	.LBB485:
 2028              	.LBB486:
 2029              	.LBB487:
 2030              	.LBB488:
 2031              	.LBB489:
 2032              		.loc 2 546 0 is_stmt 1 discriminator 2
 2033              	@ 546 "../../../os/ext/CMSIS/include/core_cmFunc.h" 1
 2034 04fa 85F31188 		MSR basepri, r5
 2035              	@ 0 "" 2
 2036              		.thumb
 2037              	.LBE489:
ARM GAS  /var/folders/c6/c789hm653lg9vtl73krp73tm0000gn/T//ccOdjWuU.s 			page 91


 2038              	.LBE488:
 2039              	.LBE487:
 2040              		.loc 1 349 0 discriminator 2
 2041 04fe FFF7FEFF 		bl	_stats_start_measure_crit_thd
 2042              	.LVL149:
 2043              		.loc 1 350 0 discriminator 2
 2044 0502 FFF7FEFF 		bl	_dbg_check_lock
 2045              	.LVL150:
 2046              	.LBE486:
 2047              	.LBE485:
 2048              	.LBB490:
 2049              	.LBB491:
 2050              		.loc 5 179 0 discriminator 2
 2051 0506 FFF7FEFF 		bl	chDbgCheckClassI
 2052              	.LVL151:
 2053              	.LBB492:
 2054              	.LBB493:
 2055              		.loc 4 151 0 discriminator 2
 2056 050a FFF7FEFF 		bl	chDbgCheckClassI
 2057              	.LVL152:
 2058              	.LBE493:
 2059              	.LBE492:
 2060              	.LBE491:
 2061              	.LBE490:
 2062              		.loc 3 180 0 discriminator 2
 2063 050e A169     		ldr	r1, [r4, #24]
 2064 0510 D1F10101 		rsbs	r1, r1, #1
 2065 0514 38BF     		it	cc
 2066 0516 0021     		movcc	r1, #0
 2067 0518 1F20     		movs	r0, #31
 2068 051a FFF7FEFF 		bl	_test_assert
 2069              	.LVL153:
 2070 051e 0028     		cmp	r0, #0
 2071 0520 40F01B81 		bne	.L28
 2072 0524 FFF7FEFF 		bl	chSysUnlock
 2073              	.LVL154:
 2074              		.loc 3 181 0 discriminator 2
 2075 0528 E168     		ldr	r1, [r4, #12]
 2076 052a A368     		ldr	r3, [r4, #8]
 2077 052c B1EB0308 		subs	r8, r1, r3
 2078              	.LVL155:
 2079 0530 D8F10001 		rsbs	r1, r8, #0
 2080 0534 51EB0801 		adcs	r1, r1, r8
 2081 0538 2846     		mov	r0, r5
 2082 053a FFF7FEFF 		bl	_test_assert
 2083              	.LVL156:
 2084 053e 0028     		cmp	r0, #0
 2085 0540 7FF486AD 		bne	.L9
 2086              	.LVL157:
 2087              	.LBB494:
 2088              	.LBB495:
 2089              	.LBB496:
 2090              	.LBB497:
 2091              	.LBB498:
 2092              		.loc 2 546 0
 2093              	@ 546 "../../../os/ext/CMSIS/include/core_cmFunc.h" 1
 2094 0544 85F31188 		MSR basepri, r5
ARM GAS  /var/folders/c6/c789hm653lg9vtl73krp73tm0000gn/T//ccOdjWuU.s 			page 92


 2095              	@ 0 "" 2
 2096              		.thumb
 2097              	.LBE498:
 2098              	.LBE497:
 2099              	.LBE496:
 2100              		.loc 1 349 0
 2101 0548 FFF7FEFF 		bl	_stats_start_measure_crit_thd
 2102              	.LVL158:
 2103              		.loc 1 350 0
 2104 054c FFF7FEFF 		bl	_dbg_check_lock
 2105              	.LVL159:
 2106              	.LBE495:
 2107              	.LBE494:
 2108              		.loc 3 184 0
 2109 0550 4521     		movs	r1, #69
 2110 0552 2046     		mov	r0, r4
 2111 0554 FFF7FEFF 		bl	chMBPostAheadI
 2112              	.LVL160:
 2113              		.loc 3 185 0
 2114 0558 D0F10101 		rsbs	r1, r0, #1
 2115 055c 38BF     		it	cc
 2116 055e 0021     		movcc	r1, #0
 2117 0560 2120     		movs	r0, #33
 2118              	.LVL161:
 2119 0562 FFF7FEFF 		bl	_test_assert
 2120              	.LVL162:
 2121 0566 0028     		cmp	r0, #0
 2122 0568 7FF472AD 		bne	.L9
 2123              		.loc 3 186 0
 2124 056c 4421     		movs	r1, #68
 2125 056e 2046     		mov	r0, r4
 2126 0570 FFF7FEFF 		bl	chMBPostAheadI
 2127              	.LVL163:
 2128              		.loc 3 187 0
 2129 0574 D0F10101 		rsbs	r1, r0, #1
 2130 0578 38BF     		it	cc
 2131 057a 0021     		movcc	r1, #0
 2132 057c 2220     		movs	r0, #34
 2133              	.LVL164:
 2134 057e FFF7FEFF 		bl	_test_assert
 2135              	.LVL165:
 2136 0582 0028     		cmp	r0, #0
 2137 0584 7FF464AD 		bne	.L9
 2138              		.loc 3 188 0
 2139 0588 4321     		movs	r1, #67
 2140 058a 2046     		mov	r0, r4
 2141 058c FFF7FEFF 		bl	chMBPostAheadI
 2142              	.LVL166:
 2143              		.loc 3 189 0
 2144 0590 D0F10101 		rsbs	r1, r0, #1
 2145 0594 38BF     		it	cc
 2146 0596 0021     		movcc	r1, #0
 2147 0598 2320     		movs	r0, #35
 2148              	.LVL167:
 2149 059a FFF7FEFF 		bl	_test_assert
 2150              	.LVL168:
 2151 059e 0028     		cmp	r0, #0
ARM GAS  /var/folders/c6/c789hm653lg9vtl73krp73tm0000gn/T//ccOdjWuU.s 			page 93


 2152 05a0 7FF456AD 		bne	.L9
 2153              		.loc 3 190 0
 2154 05a4 4221     		movs	r1, #66
 2155 05a6 2046     		mov	r0, r4
 2156 05a8 FFF7FEFF 		bl	chMBPostAheadI
 2157              	.LVL169:
 2158              		.loc 3 191 0
 2159 05ac D0F10101 		rsbs	r1, r0, #1
 2160 05b0 38BF     		it	cc
 2161 05b2 0021     		movcc	r1, #0
 2162 05b4 2420     		movs	r0, #36
 2163              	.LVL170:
 2164 05b6 FFF7FEFF 		bl	_test_assert
 2165              	.LVL171:
 2166 05ba 0028     		cmp	r0, #0
 2167 05bc 7FF448AD 		bne	.L9
 2168              		.loc 3 192 0
 2169 05c0 4121     		movs	r1, #65
 2170 05c2 2046     		mov	r0, r4
 2171 05c4 FFF7FEFF 		bl	chMBPostAheadI
 2172              	.LVL172:
 2173 05c8 0546     		mov	r5, r0
 2174              	.LVL173:
 2175              		.loc 3 193 0
 2176 05ca FFF7FEFF 		bl	chSysUnlock
 2177              	.LVL174:
 2178              		.loc 3 194 0
 2179 05ce D5F10101 		rsbs	r1, r5, #1
 2180 05d2 38BF     		it	cc
 2181 05d4 0021     		movcc	r1, #0
 2182 05d6 2520     		movs	r0, #37
 2183 05d8 FFF7FEFF 		bl	_test_assert
 2184              	.LVL175:
 2185 05dc 0028     		cmp	r0, #0
 2186 05de 7FF437AD 		bne	.L9
 2187              		.loc 3 195 0
 2188 05e2 E168     		ldr	r1, [r4, #12]
 2189 05e4 A368     		ldr	r3, [r4, #8]
 2190 05e6 B1EB030C 		subs	ip, r1, r3
 2191 05ea DCF10001 		rsbs	r1, ip, #0
 2192 05ee 51EB0C01 		adcs	r1, r1, ip
 2193 05f2 2620     		movs	r0, #38
 2194 05f4 FFF7FEFF 		bl	_test_assert
 2195              	.LVL176:
 2196 05f8 0028     		cmp	r0, #0
 2197 05fa 7FF429AD 		bne	.L9
 2198 05fe 0526     		movs	r6, #5
 2199              	.LVL177:
 2200              	.LBB499:
 2201              	.LBB500:
 2202              	.LBB501:
 2203              	.LBB502:
 2204              	.LBB503:
 2205              		.loc 2 546 0
 2206 0600 2027     		movs	r7, #32
 2207              	.LVL178:
 2208              	.L26:
ARM GAS  /var/folders/c6/c789hm653lg9vtl73krp73tm0000gn/T//ccOdjWuU.s 			page 94


 2209 0602 2025     		movs	r5, #32
 2210              	@ 546 "../../../os/ext/CMSIS/include/core_cmFunc.h" 1
 2211 0604 87F31188 		MSR basepri, r7
 2212              	@ 0 "" 2
 2213              		.thumb
 2214              	.LBE503:
 2215              	.LBE502:
 2216              	.LBE501:
 2217              	.LBE500:
 2218              	.LBE499:
 2219              		.loc 3 198 0
 2220 0608 594C     		ldr	r4, .L36
 2221              	.LBB505:
 2222              	.LBB504:
 2223              		.loc 1 349 0
 2224 060a FFF7FEFF 		bl	_stats_start_measure_crit_thd
 2225              	.LVL179:
 2226              		.loc 1 350 0
 2227 060e FFF7FEFF 		bl	_dbg_check_lock
 2228              	.LVL180:
 2229              	.LBE504:
 2230              	.LBE505:
 2231              		.loc 3 198 0
 2232 0612 01A9     		add	r1, sp, #4
 2233 0614 2046     		mov	r0, r4
 2234 0616 FFF7FEFF 		bl	chMBFetchI
 2235              	.LVL181:
 2236 061a 8046     		mov	r8, r0
 2237              	.LVL182:
 2238              		.loc 3 199 0
 2239 061c FFF7FEFF 		bl	chSysUnlock
 2240              	.LVL183:
 2241              		.loc 3 200 0
 2242 0620 D8F10101 		rsbs	r1, r8, #1
 2243 0624 38BF     		it	cc
 2244 0626 0021     		movcc	r1, #0
 2245 0628 2720     		movs	r0, #39
 2246 062a FFF7FEFF 		bl	_test_assert
 2247              	.LVL184:
 2248 062e 0028     		cmp	r0, #0
 2249 0630 7FF40EAD 		bne	.L9
 2250              		.loc 3 201 0
 2251 0634 9DF80400 		ldrb	r0, [sp, #4]	@ zero_extendqisi2
 2252 0638 FFF7FEFF 		bl	test_emit_token
 2253              	.LVL185:
 2254              		.loc 3 196 0
 2255 063c 013E     		subs	r6, r6, #1
 2256              	.LVL186:
 2257 063e E0D1     		bne	.L26
 2258              		.loc 3 203 0
 2259 0640 2820     		movs	r0, #40
 2260 0642 4C49     		ldr	r1, .L36+4
 2261 0644 FFF7FEFF 		bl	_test_assert_sequence
 2262              	.LVL187:
 2263 0648 0028     		cmp	r0, #0
 2264 064a 7FF401AD 		bne	.L9
 2265              	.LVL188:
ARM GAS  /var/folders/c6/c789hm653lg9vtl73krp73tm0000gn/T//ccOdjWuU.s 			page 95


 2266              	.LBB506:
 2267              	.LBB507:
 2268              	.LBB508:
 2269              	.LBB509:
 2270              	.LBB510:
 2271              		.loc 2 546 0
 2272              	@ 546 "../../../os/ext/CMSIS/include/core_cmFunc.h" 1
 2273 064e 85F31188 		MSR basepri, r5
 2274              	@ 0 "" 2
 2275              		.thumb
 2276              	.LBE510:
 2277              	.LBE509:
 2278              	.LBE508:
 2279              		.loc 1 349 0
 2280 0652 FFF7FEFF 		bl	_stats_start_measure_crit_thd
 2281              	.LVL189:
 2282              		.loc 1 350 0
 2283 0656 FFF7FEFF 		bl	_dbg_check_lock
 2284              	.LVL190:
 2285              	.LBE507:
 2286              	.LBE506:
 2287              	.LBB511:
 2288              	.LBB512:
 2289              		.loc 5 160 0
 2290 065a FFF7FEFF 		bl	chDbgCheckClassI
 2291              	.LVL191:
 2292              	.LBB513:
 2293              	.LBB514:
 2294              		.loc 4 151 0
 2295 065e FFF7FEFF 		bl	chDbgCheckClassI
 2296              	.LVL192:
 2297              	.LBE514:
 2298              	.LBE513:
 2299              	.LBE512:
 2300              	.LBE511:
 2301              		.loc 3 204 0
 2302 0662 616A     		ldr	r1, [r4, #36]
 2303 0664 B1F1050E 		subs	lr, r1, #5
 2304 0668 DEF10001 		rsbs	r1, lr, #0
 2305 066c 51EB0E01 		adcs	r1, r1, lr
 2306 0670 2920     		movs	r0, #41
 2307 0672 FFF7FEFF 		bl	_test_assert
 2308              	.LVL193:
 2309 0676 0028     		cmp	r0, #0
 2310 0678 6FD1     		bne	.L28
 2311              		.loc 3 204 0 is_stmt 0 discriminator 2
 2312 067a FFF7FEFF 		bl	chSysUnlock
 2313              	.LVL194:
 2314              	.LBB515:
 2315              	.LBB516:
 2316              	.LBB517:
 2317              	.LBB518:
 2318              	.LBB519:
 2319              		.loc 2 546 0 is_stmt 1 discriminator 2
 2320              	@ 546 "../../../os/ext/CMSIS/include/core_cmFunc.h" 1
 2321 067e 85F31188 		MSR basepri, r5
 2322              	@ 0 "" 2
ARM GAS  /var/folders/c6/c789hm653lg9vtl73krp73tm0000gn/T//ccOdjWuU.s 			page 96


 2323              		.thumb
 2324              	.LBE519:
 2325              	.LBE518:
 2326              	.LBE517:
 2327              		.loc 1 349 0 discriminator 2
 2328 0682 FFF7FEFF 		bl	_stats_start_measure_crit_thd
 2329              	.LVL195:
 2330              		.loc 1 350 0 discriminator 2
 2331 0686 FFF7FEFF 		bl	_dbg_check_lock
 2332              	.LVL196:
 2333              	.LBE516:
 2334              	.LBE515:
 2335              	.LBB520:
 2336              	.LBB521:
 2337              		.loc 5 179 0 discriminator 2
 2338 068a FFF7FEFF 		bl	chDbgCheckClassI
 2339              	.LVL197:
 2340              	.LBB522:
 2341              	.LBB523:
 2342              		.loc 4 151 0 discriminator 2
 2343 068e FFF7FEFF 		bl	chDbgCheckClassI
 2344              	.LVL198:
 2345              	.LBE523:
 2346              	.LBE522:
 2347              	.LBE521:
 2348              	.LBE520:
 2349              		.loc 3 205 0 discriminator 2
 2350 0692 A169     		ldr	r1, [r4, #24]
 2351 0694 D1F10101 		rsbs	r1, r1, #1
 2352 0698 38BF     		it	cc
 2353 069a 0021     		movcc	r1, #0
 2354 069c 2A20     		movs	r0, #42
 2355 069e FFF7FEFF 		bl	_test_assert
 2356              	.LVL199:
 2357 06a2 0028     		cmp	r0, #0
 2358 06a4 59D1     		bne	.L28
 2359 06a6 FFF7FEFF 		bl	chSysUnlock
 2360              	.LVL200:
 2361              		.loc 3 206 0 discriminator 2
 2362 06aa E168     		ldr	r1, [r4, #12]
 2363 06ac A368     		ldr	r3, [r4, #8]
 2364 06ae CF1A     		subs	r7, r1, r3
 2365 06b0 7942     		rsbs	r1, r7, #0
 2366 06b2 7941     		adcs	r1, r1, r7
 2367 06b4 2B20     		movs	r0, #43
 2368 06b6 FFF7FEFF 		bl	_test_assert
 2369              	.LVL201:
 2370 06ba 0028     		cmp	r0, #0
 2371 06bc 7FF4C8AC 		bne	.L9
 2372              		.loc 3 211 0
 2373 06c0 2046     		mov	r0, r4
 2374 06c2 FFF7FEFF 		bl	chMBReset
 2375              	.LVL202:
 2376              	.LBB524:
 2377              	.LBB525:
 2378              	.LBB526:
 2379              	.LBB527:
ARM GAS  /var/folders/c6/c789hm653lg9vtl73krp73tm0000gn/T//ccOdjWuU.s 			page 97


 2380              	.LBB528:
 2381              		.loc 2 546 0
 2382              	@ 546 "../../../os/ext/CMSIS/include/core_cmFunc.h" 1
 2383 06c6 85F31188 		MSR basepri, r5
 2384              	@ 0 "" 2
 2385              		.thumb
 2386              	.LBE528:
 2387              	.LBE527:
 2388              	.LBE526:
 2389              		.loc 1 349 0
 2390 06ca FFF7FEFF 		bl	_stats_start_measure_crit_thd
 2391              	.LVL203:
 2392              		.loc 1 350 0
 2393 06ce FFF7FEFF 		bl	_dbg_check_lock
 2394              	.LVL204:
 2395              	.LBE525:
 2396              	.LBE524:
 2397              	.LBB529:
 2398              	.LBB530:
 2399              		.loc 5 160 0
 2400 06d2 FFF7FEFF 		bl	chDbgCheckClassI
 2401              	.LVL205:
 2402              	.LBB531:
 2403              	.LBB532:
 2404              		.loc 4 151 0
 2405 06d6 FFF7FEFF 		bl	chDbgCheckClassI
 2406              	.LVL206:
 2407              	.LBE532:
 2408              	.LBE531:
 2409              	.LBE530:
 2410              	.LBE529:
 2411              		.loc 3 216 0
 2412 06da 616A     		ldr	r1, [r4, #36]
 2413 06dc 4E1F     		subs	r6, r1, #5
 2414              	.LVL207:
 2415 06de 7142     		rsbs	r1, r6, #0
 2416 06e0 7141     		adcs	r1, r1, r6
 2417 06e2 2C20     		movs	r0, #44
 2418 06e4 FFF7FEFF 		bl	_test_assert
 2419              	.LVL208:
 2420 06e8 0028     		cmp	r0, #0
 2421 06ea 36D1     		bne	.L28
 2422              		.loc 3 216 0 is_stmt 0 discriminator 2
 2423 06ec FFF7FEFF 		bl	chSysUnlock
 2424              	.LVL209:
 2425              	.LBB533:
 2426              	.LBB534:
 2427              	.LBB535:
 2428              	.LBB536:
 2429              	.LBB537:
 2430              		.loc 2 546 0 is_stmt 1 discriminator 2
 2431              	@ 546 "../../../os/ext/CMSIS/include/core_cmFunc.h" 1
 2432 06f0 85F31188 		MSR basepri, r5
 2433              	@ 0 "" 2
 2434              		.thumb
 2435              	.LBE537:
 2436              	.LBE536:
ARM GAS  /var/folders/c6/c789hm653lg9vtl73krp73tm0000gn/T//ccOdjWuU.s 			page 98


 2437              	.LBE535:
 2438              		.loc 1 349 0 discriminator 2
 2439 06f4 FFF7FEFF 		bl	_stats_start_measure_crit_thd
 2440              	.LVL210:
 2441              		.loc 1 350 0 discriminator 2
 2442 06f8 FFF7FEFF 		bl	_dbg_check_lock
 2443              	.LVL211:
 2444              	.LBE534:
 2445              	.LBE533:
 2446              	.LBB538:
 2447              	.LBB539:
 2448              		.loc 5 179 0 discriminator 2
 2449 06fc FFF7FEFF 		bl	chDbgCheckClassI
 2450              	.LVL212:
 2451              	.LBB540:
 2452              	.LBB541:
 2453              		.loc 4 151 0 discriminator 2
 2454 0700 FFF7FEFF 		bl	chDbgCheckClassI
 2455              	.LVL213:
 2456              	.LBE541:
 2457              	.LBE540:
 2458              	.LBE539:
 2459              	.LBE538:
 2460              		.loc 3 217 0 discriminator 2
 2461 0704 A169     		ldr	r1, [r4, #24]
 2462 0706 D1F10101 		rsbs	r1, r1, #1
 2463 070a 38BF     		it	cc
 2464 070c 0021     		movcc	r1, #0
 2465 070e 2D20     		movs	r0, #45
 2466 0710 FFF7FEFF 		bl	_test_assert
 2467              	.LVL214:
 2468 0714 08BB     		cbnz	r0, .L28
 2469 0716 FFF7FEFF 		bl	chSysUnlock
 2470              	.LVL215:
 2471              	.LBB542:
 2472              	.LBB543:
 2473              	.LBB544:
 2474              	.LBB545:
 2475              	.LBB546:
 2476              		.loc 2 546 0 discriminator 2
 2477              	@ 546 "../../../os/ext/CMSIS/include/core_cmFunc.h" 1
 2478 071a 85F31188 		MSR basepri, r5
 2479              	@ 0 "" 2
 2480              		.thumb
 2481              	.LBE546:
 2482              	.LBE545:
 2483              	.LBE544:
 2484              		.loc 1 349 0 discriminator 2
 2485 071e FFF7FEFF 		bl	_stats_start_measure_crit_thd
 2486              	.LVL216:
 2487              		.loc 1 350 0 discriminator 2
 2488 0722 FFF7FEFF 		bl	_dbg_check_lock
 2489              	.LVL217:
 2490              	.LBE543:
 2491              	.LBE542:
 2492              		.loc 3 218 0 discriminator 2
 2493 0726 2168     		ldr	r1, [r4]
ARM GAS  /var/folders/c6/c789hm653lg9vtl73krp73tm0000gn/T//ccOdjWuU.s 			page 99


 2494 0728 A368     		ldr	r3, [r4, #8]
 2495 072a CA1A     		subs	r2, r1, r3
 2496 072c 5142     		rsbs	r1, r2, #0
 2497 072e 5141     		adcs	r1, r1, r2
 2498 0730 2E20     		movs	r0, #46
 2499 0732 FFF7FEFF 		bl	_test_assert
 2500              	.LVL218:
 2501 0736 80B9     		cbnz	r0, .L28
 2502 0738 FFF7FEFF 		bl	chSysUnlock
 2503              	.LVL219:
 2504              	.LBB547:
 2505              	.LBB548:
 2506              	.LBB549:
 2507              	.LBB550:
 2508              	.LBB551:
 2509              		.loc 2 546 0 discriminator 2
 2510              	@ 546 "../../../os/ext/CMSIS/include/core_cmFunc.h" 1
 2511 073c 85F31188 		MSR basepri, r5
 2512              	@ 0 "" 2
 2513              		.thumb
 2514              	.LBE551:
 2515              	.LBE550:
 2516              	.LBE549:
 2517              		.loc 1 349 0 discriminator 2
 2518 0740 FFF7FEFF 		bl	_stats_start_measure_crit_thd
 2519              	.LVL220:
 2520              		.loc 1 350 0 discriminator 2
 2521 0744 FFF7FEFF 		bl	_dbg_check_lock
 2522              	.LVL221:
 2523              	.LBE548:
 2524              	.LBE547:
 2525              		.loc 3 219 0 discriminator 2
 2526 0748 2168     		ldr	r1, [r4]
 2527 074a E368     		ldr	r3, [r4, #12]
 2528 074c CB1A     		subs	r3, r1, r3
 2529 074e 5942     		rsbs	r1, r3, #0
 2530 0750 4FF02F00 		mov	r0, #47
 2531 0754 5941     		adcs	r1, r1, r3
 2532 0756 FFF7FEFF 		bl	_test_assert
 2533              	.LVL222:
 2534              	.L28:
 2535 075a FFF7FEFF 		bl	chSysUnlock
 2536              	.LVL223:
 2537 075e 77E4     		b	.L9
 2538              	.LVL224:
 2539              	.L29:
 2540              	.LBB552:
 2541              	.LBB377:
 2542              		.loc 1 367 0
 2543 0760 0548     		ldr	r0, .L36+8
 2544 0762 FFF7FEFF 		bl	chSysHalt
 2545              	.LVL225:
 2546 0766 70E4     		b	.L11
 2547              	.L30:
 2548              	.LBE377:
 2549              	.LBE552:
 2550              	.LBB553:
ARM GAS  /var/folders/c6/c789hm653lg9vtl73krp73tm0000gn/T//ccOdjWuU.s 			page 100


 2551              	.LBB383:
 2552 0768 0348     		ldr	r0, .L36+8
 2553 076a FFF7FEFF 		bl	chSysHalt
 2554              	.LVL226:
 2555 076e 85E4     		b	.L13
 2556              	.L37:
 2557              		.align	2
 2558              	.L36:
 2559 0770 00000000 		.word	.LANCHOR1
 2560 0774 00000000 		.word	.LC0
 2561 0778 00000000 		.word	.LANCHOR0
 2562              	.LBE383:
 2563              	.LBE553:
 2564              		.cfi_endproc
 2565              	.LFE230:
 2566              		.size	mbox1_execute, .-mbox1_execute
 2567              		.global	patternmbox
 2568              		.global	testmbox1
 2569 077c AFF30080 		.section	.data.mb1,"aw",%progbits
 2570              		.align	2
 2571              		.set	.LANCHOR1,. + 0
 2572              		.type	mb1, %object
 2573              		.size	mb1, 40
 2574              	mb1:
 2575 0000 00000000 		.word	test
 2576 0004 14000000 		.word	test+20
 2577 0008 00000000 		.word	test
 2578 000c 00000000 		.word	test
 2579 0010 10000000 		.word	mb1+16
 2580 0014 10000000 		.word	mb1+16
 2581 0018 00000000 		.word	0
 2582 001c 1C000000 		.word	mb1+28
 2583 0020 1C000000 		.word	mb1+28
 2584 0024 05000000 		.word	5
 2585              		.section	.rodata.patternmbox,"a",%progbits
 2586              		.align	2
 2587              		.type	patternmbox, %object
 2588              		.size	patternmbox, 8
 2589              	patternmbox:
 2590 0000 00000000 		.word	testmbox1
 2591 0004 00000000 		.word	0
 2592              		.section	.rodata.__func__.5862,"a",%progbits
 2593              		.align	2
 2594              		.set	.LANCHOR0,. + 0
 2595              		.type	__func__.5862, %object
 2596              		.size	__func__.5862, 12
 2597              	__func__.5862:
 2598 0000 63685379 		.ascii	"chSysUnlock\000"
 2598      73556E6C 
 2598      6F636B00 
 2599              		.section	.rodata.str1.4,"aMS",%progbits,1
 2600              		.align	2
 2601              	.LC0:
 2602 0000 41424344 		.ascii	"ABCDE\000"
 2602      4500
 2603 0006 0000     		.space	2
 2604              	.LC1:
ARM GAS  /var/folders/c6/c789hm653lg9vtl73krp73tm0000gn/T//ccOdjWuU.s 			page 101


 2605 0008 4D61696C 		.ascii	"Mailboxes, queuing and timeouts\000"
 2605      626F7865 
 2605      732C2071 
 2605      75657569 
 2605      6E672061 
 2606              		.section	.rodata.testmbox1,"a",%progbits
 2607              		.align	2
 2608              		.type	testmbox1, %object
 2609              		.size	testmbox1, 16
 2610              	testmbox1:
 2611 0000 08000000 		.word	.LC1
 2612 0004 00000000 		.word	mbox1_setup
 2613 0008 00000000 		.word	0
 2614 000c 00000000 		.word	mbox1_execute
 2615              		.text
 2616              	.Letext0:
 2617              		.file 6 "/usr/local/Cellar/gcc-arm-none-eabi/20140805/lib/gcc/arm-none-eabi/4.8.4/include/stddef.h
 2618              		.file 7 "/usr/local/Cellar/gcc-arm-none-eabi/20140805/arm-none-eabi/include/machine/_default_types
 2619              		.file 8 "/usr/local/Cellar/gcc-arm-none-eabi/20140805/arm-none-eabi/include/stdint.h"
 2620              		.file 9 "../../../os/rt/ports/ARMCMx/compilers/GCC/chtypes.h"
 2621              		.file 10 "../../../os/rt/include/chsystypes.h"
 2622              		.file 11 "../../../os/rt/include/chschd.h"
 2623              		.file 12 "../../../os/rt/ports/ARMCMx/chcore.h"
 2624              		.file 13 "../../../os/rt/ports/ARMCMx/chcore_v7m.h"
 2625              		.file 14 "../../../os/rt/include/chdebug.h"
 2626              		.file 15 "../../../os/rt/include/chtm.h"
 2627              		.file 16 "../../../os/rt/include/chstats.h"
 2628              		.file 17 "../../../os/rt/include/chmtx.h"
 2629              		.file 18 "../../../test/rt/test.h"
 2630              		.file 19 "../../../os/ext/CMSIS/include/core_cm4.h"
 2631              		.section	.debug_info,"",%progbits
 2632              	.Ldebug_info0:
 2633 0000 9E200000 		.4byte	0x209e
 2634 0004 0400     		.2byte	0x4
 2635 0006 00000000 		.4byte	.Ldebug_abbrev0
 2636 000a 04       		.byte	0x4
 2637 000b 01       		.uleb128 0x1
 2638 000c 00000000 		.4byte	.LASF177
 2639 0010 01       		.byte	0x1
 2640 0011 AD020000 		.4byte	.LASF178
 2641 0015 A9030000 		.4byte	.LASF179
 2642 0019 18010000 		.4byte	.Ldebug_ranges0+0x118
 2643 001d 00000000 		.4byte	0
 2644 0021 00000000 		.4byte	.Ldebug_line0
 2645 0025 02       		.uleb128 0x2
 2646 0026 04       		.byte	0x4
 2647 0027 05       		.byte	0x5
 2648 0028 696E7400 		.ascii	"int\000"
 2649 002c 03       		.uleb128 0x3
 2650 002d 03010000 		.4byte	.LASF2
 2651 0031 06       		.byte	0x6
 2652 0032 D4       		.byte	0xd4
 2653 0033 37000000 		.4byte	0x37
 2654 0037 04       		.uleb128 0x4
 2655 0038 04       		.byte	0x4
 2656 0039 07       		.byte	0x7
 2657 003a 52030000 		.4byte	.LASF0
ARM GAS  /var/folders/c6/c789hm653lg9vtl73krp73tm0000gn/T//ccOdjWuU.s 			page 102


 2658 003e 04       		.uleb128 0x4
 2659 003f 01       		.byte	0x1
 2660 0040 06       		.byte	0x6
 2661 0041 30020000 		.4byte	.LASF1
 2662 0045 03       		.uleb128 0x3
 2663 0046 27010000 		.4byte	.LASF3
 2664 004a 07       		.byte	0x7
 2665 004b 1C       		.byte	0x1c
 2666 004c 50000000 		.4byte	0x50
 2667 0050 04       		.uleb128 0x4
 2668 0051 01       		.byte	0x1
 2669 0052 08       		.byte	0x8
 2670 0053 53060000 		.4byte	.LASF4
 2671 0057 04       		.uleb128 0x4
 2672 0058 02       		.byte	0x2
 2673 0059 05       		.byte	0x5
 2674 005a 91060000 		.4byte	.LASF5
 2675 005e 04       		.uleb128 0x4
 2676 005f 02       		.byte	0x2
 2677 0060 07       		.byte	0x7
 2678 0061 05040000 		.4byte	.LASF6
 2679 0065 03       		.uleb128 0x3
 2680 0066 C6040000 		.4byte	.LASF7
 2681 006a 07       		.byte	0x7
 2682 006b 37       		.byte	0x37
 2683 006c 70000000 		.4byte	0x70
 2684 0070 04       		.uleb128 0x4
 2685 0071 04       		.byte	0x4
 2686 0072 05       		.byte	0x5
 2687 0073 86020000 		.4byte	.LASF8
 2688 0077 03       		.uleb128 0x3
 2689 0078 36030000 		.4byte	.LASF9
 2690 007c 07       		.byte	0x7
 2691 007d 38       		.byte	0x38
 2692 007e 82000000 		.4byte	0x82
 2693 0082 04       		.uleb128 0x4
 2694 0083 04       		.byte	0x4
 2695 0084 07       		.byte	0x7
 2696 0085 5B070000 		.4byte	.LASF10
 2697 0089 04       		.uleb128 0x4
 2698 008a 08       		.byte	0x8
 2699 008b 05       		.byte	0x5
 2700 008c 22020000 		.4byte	.LASF11
 2701 0090 03       		.uleb128 0x3
 2702 0091 ED050000 		.4byte	.LASF12
 2703 0095 07       		.byte	0x7
 2704 0096 4E       		.byte	0x4e
 2705 0097 9B000000 		.4byte	0x9b
 2706 009b 04       		.uleb128 0x4
 2707 009c 08       		.byte	0x8
 2708 009d 07       		.byte	0x7
 2709 009e A8010000 		.4byte	.LASF13
 2710 00a2 03       		.uleb128 0x3
 2711 00a3 30080000 		.4byte	.LASF14
 2712 00a7 08       		.byte	0x8
 2713 00a8 2A       		.byte	0x2a
 2714 00a9 45000000 		.4byte	0x45
ARM GAS  /var/folders/c6/c789hm653lg9vtl73krp73tm0000gn/T//ccOdjWuU.s 			page 103


 2715 00ad 03       		.uleb128 0x3
 2716 00ae 4B060000 		.4byte	.LASF15
 2717 00b2 08       		.byte	0x8
 2718 00b3 41       		.byte	0x41
 2719 00b4 65000000 		.4byte	0x65
 2720 00b8 03       		.uleb128 0x3
 2721 00b9 2A070000 		.4byte	.LASF16
 2722 00bd 08       		.byte	0x8
 2723 00be 42       		.byte	0x42
 2724 00bf 77000000 		.4byte	0x77
 2725 00c3 03       		.uleb128 0x3
 2726 00c4 11010000 		.4byte	.LASF17
 2727 00c8 08       		.byte	0x8
 2728 00c9 4E       		.byte	0x4e
 2729 00ca 90000000 		.4byte	0x90
 2730 00ce 05       		.uleb128 0x5
 2731 00cf AD000000 		.4byte	0xad
 2732 00d3 03       		.uleb128 0x3
 2733 00d4 EB070000 		.4byte	.LASF18
 2734 00d8 09       		.byte	0x9
 2735 00d9 45       		.byte	0x45
 2736 00da B8000000 		.4byte	0xb8
 2737 00de 03       		.uleb128 0x3
 2738 00df 12020000 		.4byte	.LASF19
 2739 00e3 09       		.byte	0x9
 2740 00e4 46       		.byte	0x46
 2741 00e5 C3000000 		.4byte	0xc3
 2742 00e9 03       		.uleb128 0x3
 2743 00ea 7F040000 		.4byte	.LASF20
 2744 00ee 09       		.byte	0x9
 2745 00ef 48       		.byte	0x48
 2746 00f0 A2000000 		.4byte	0xa2
 2747 00f4 03       		.uleb128 0x3
 2748 00f5 8F020000 		.4byte	.LASF21
 2749 00f9 09       		.byte	0x9
 2750 00fa 49       		.byte	0x49
 2751 00fb A2000000 		.4byte	0xa2
 2752 00ff 03       		.uleb128 0x3
 2753 0100 03060000 		.4byte	.LASF22
 2754 0104 09       		.byte	0x9
 2755 0105 4A       		.byte	0x4a
 2756 0106 A2000000 		.4byte	0xa2
 2757 010a 03       		.uleb128 0x3
 2758 010b 34060000 		.4byte	.LASF23
 2759 010f 09       		.byte	0x9
 2760 0110 4C       		.byte	0x4c
 2761 0111 B8000000 		.4byte	0xb8
 2762 0115 03       		.uleb128 0x3
 2763 0116 48040000 		.4byte	.LASF24
 2764 011a 09       		.byte	0x9
 2765 011b 4D       		.byte	0x4d
 2766 011c AD000000 		.4byte	0xad
 2767 0120 03       		.uleb128 0x3
 2768 0121 BA040000 		.4byte	.LASF25
 2769 0125 09       		.byte	0x9
 2770 0126 4F       		.byte	0x4f
 2771 0127 B8000000 		.4byte	0xb8
ARM GAS  /var/folders/c6/c789hm653lg9vtl73krp73tm0000gn/T//ccOdjWuU.s 			page 104


 2772 012b 03       		.uleb128 0x3
 2773 012c 41030000 		.4byte	.LASF26
 2774 0130 09       		.byte	0x9
 2775 0131 51       		.byte	0x51
 2776 0132 AD000000 		.4byte	0xad
 2777 0136 03       		.uleb128 0x3
 2778 0137 53040000 		.4byte	.LASF27
 2779 013b 09       		.byte	0x9
 2780 013c 52       		.byte	0x52
 2781 013d B8000000 		.4byte	0xb8
 2782 0141 03       		.uleb128 0x3
 2783 0142 87070000 		.4byte	.LASF28
 2784 0146 0A       		.byte	0xa
 2785 0147 33       		.byte	0x33
 2786 0148 B8000000 		.4byte	0xb8
 2787 014c 03       		.uleb128 0x3
 2788 014d 72070000 		.4byte	.LASF29
 2789 0151 0A       		.byte	0xa
 2790 0152 3F       		.byte	0x3f
 2791 0153 57010000 		.4byte	0x157
 2792 0157 06       		.uleb128 0x6
 2793 0158 27040000 		.4byte	.LASF51
 2794 015c 60       		.byte	0x60
 2795 015d 0B       		.byte	0xb
 2796 015e C2       		.byte	0xc2
 2797 015f 5D020000 		.4byte	0x25d
 2798 0163 07       		.uleb128 0x7
 2799 0164 B1060000 		.4byte	.LASF30
 2800 0168 0B       		.byte	0xb
 2801 0169 C3       		.byte	0xc3
 2802 016a 68020000 		.4byte	0x268
 2803 016e 00       		.byte	0
 2804 016f 07       		.uleb128 0x7
 2805 0170 25060000 		.4byte	.LASF31
 2806 0174 0B       		.byte	0xb
 2807 0175 C5       		.byte	0xc5
 2808 0176 68020000 		.4byte	0x268
 2809 017a 04       		.byte	0x4
 2810 017b 07       		.uleb128 0x7
 2811 017c 1B020000 		.4byte	.LASF32
 2812 0180 0B       		.byte	0xb
 2813 0181 C7       		.byte	0xc7
 2814 0182 0A010000 		.4byte	0x10a
 2815 0186 08       		.byte	0x8
 2816 0187 07       		.uleb128 0x7
 2817 0188 CE080000 		.4byte	.LASF33
 2818 018c 0B       		.byte	0xb
 2819 018d C8       		.byte	0xc8
 2820 018e D1040000 		.4byte	0x4d1
 2821 0192 0C       		.byte	0xc
 2822 0193 07       		.uleb128 0x7
 2823 0194 A5020000 		.4byte	.LASF34
 2824 0198 0B       		.byte	0xb
 2825 0199 CA       		.byte	0xca
 2826 019a 68020000 		.4byte	0x268
 2827 019e 10       		.byte	0x10
 2828 019f 07       		.uleb128 0x7
ARM GAS  /var/folders/c6/c789hm653lg9vtl73krp73tm0000gn/T//ccOdjWuU.s 			page 105


 2829 01a0 7E050000 		.4byte	.LASF35
 2830 01a4 0B       		.byte	0xb
 2831 01a5 CB       		.byte	0xcb
 2832 01a6 68020000 		.4byte	0x268
 2833 01aa 14       		.byte	0x14
 2834 01ab 07       		.uleb128 0x7
 2835 01ac 6F080000 		.4byte	.LASF36
 2836 01b0 0B       		.byte	0xb
 2837 01b1 D2       		.byte	0xd2
 2838 01b2 75070000 		.4byte	0x775
 2839 01b6 18       		.byte	0x18
 2840 01b7 07       		.uleb128 0x7
 2841 01b8 47030000 		.4byte	.LASF37
 2842 01bc 0B       		.byte	0xb
 2843 01bd D8       		.byte	0xd8
 2844 01be 87070000 		.4byte	0x787
 2845 01c2 1C       		.byte	0x1c
 2846 01c3 07       		.uleb128 0x7
 2847 01c4 9B060000 		.4byte	.LASF38
 2848 01c8 0B       		.byte	0xb
 2849 01c9 DD       		.byte	0xdd
 2850 01ca F4000000 		.4byte	0xf4
 2851 01ce 20       		.byte	0x20
 2852 01cf 07       		.uleb128 0x7
 2853 01d0 B8060000 		.4byte	.LASF39
 2854 01d4 0B       		.byte	0xb
 2855 01d5 E1       		.byte	0xe1
 2856 01d6 E9000000 		.4byte	0xe9
 2857 01da 21       		.byte	0x21
 2858 01db 07       		.uleb128 0x7
 2859 01dc 1B080000 		.4byte	.LASF40
 2860 01e0 0B       		.byte	0xb
 2861 01e1 E6       		.byte	0xe6
 2862 01e2 FF000000 		.4byte	0xff
 2863 01e6 22       		.byte	0x22
 2864 01e7 08       		.uleb128 0x8
 2865 01e8 705F7500 		.ascii	"p_u\000"
 2866 01ec 0B       		.byte	0xb
 2867 01ed 3101     		.2byte	0x131
 2868 01ef B0060000 		.4byte	0x6b0
 2869 01f3 24       		.byte	0x24
 2870 01f4 09       		.uleb128 0x9
 2871 01f5 E5040000 		.4byte	.LASF41
 2872 01f9 0B       		.byte	0xb
 2873 01fa 3601     		.2byte	0x136
 2874 01fc 6E020000 		.4byte	0x26e
 2875 0200 28       		.byte	0x28
 2876 0201 09       		.uleb128 0x9
 2877 0202 78030000 		.4byte	.LASF42
 2878 0206 0B       		.byte	0xb
 2879 0207 3C01     		.2byte	0x13c
 2880 0209 92020000 		.4byte	0x292
 2881 020d 2C       		.byte	0x2c
 2882 020e 09       		.uleb128 0x9
 2883 020f AB080000 		.4byte	.LASF43
 2884 0213 0B       		.byte	0xb
 2885 0214 4001     		.2byte	0x140
ARM GAS  /var/folders/c6/c789hm653lg9vtl73krp73tm0000gn/T//ccOdjWuU.s 			page 106


 2886 0216 15010000 		.4byte	0x115
 2887 021a 34       		.byte	0x34
 2888 021b 09       		.uleb128 0x9
 2889 021c 1F070000 		.4byte	.LASF44
 2890 0220 0B       		.byte	0xb
 2891 0221 4601     		.2byte	0x146
 2892 0223 20010000 		.4byte	0x120
 2893 0227 38       		.byte	0x38
 2894 0228 09       		.uleb128 0x9
 2895 0229 87060000 		.4byte	.LASF45
 2896 022d 0B       		.byte	0xb
 2897 022e 4D01     		.2byte	0x14d
 2898 0230 6F070000 		.4byte	0x76f
 2899 0234 3C       		.byte	0x3c
 2900 0235 09       		.uleb128 0x9
 2901 0236 91070000 		.4byte	.LASF46
 2902 023a 0B       		.byte	0xb
 2903 023b 5101     		.2byte	0x151
 2904 023d 0A010000 		.4byte	0x10a
 2905 0241 40       		.byte	0x40
 2906 0242 09       		.uleb128 0x9
 2907 0243 44020000 		.4byte	.LASF47
 2908 0247 0B       		.byte	0xb
 2909 0248 5801     		.2byte	0x158
 2910 024a 45030000 		.4byte	0x345
 2911 024e 44       		.byte	0x44
 2912 024f 09       		.uleb128 0x9
 2913 0250 C0060000 		.4byte	.LASF48
 2914 0254 0B       		.byte	0xb
 2915 0255 5E01     		.2byte	0x15e
 2916 0257 61060000 		.4byte	0x661
 2917 025b 48       		.byte	0x48
 2918 025c 00       		.byte	0
 2919 025d 03       		.uleb128 0x3
 2920 025e 15050000 		.4byte	.LASF49
 2921 0262 0A       		.byte	0xa
 2922 0263 44       		.byte	0x44
 2923 0264 68020000 		.4byte	0x268
 2924 0268 0A       		.uleb128 0xa
 2925 0269 04       		.byte	0x4
 2926 026a 4C010000 		.4byte	0x14c
 2927 026e 03       		.uleb128 0x3
 2928 026f 83080000 		.4byte	.LASF50
 2929 0273 0A       		.byte	0xa
 2930 0274 49       		.byte	0x49
 2931 0275 79020000 		.4byte	0x279
 2932 0279 06       		.uleb128 0x6
 2933 027a 4B070000 		.4byte	.LASF52
 2934 027e 04       		.byte	0x4
 2935 027f 0B       		.byte	0xb
 2936 0280 B0       		.byte	0xb0
 2937 0281 92020000 		.4byte	0x292
 2938 0285 07       		.uleb128 0x7
 2939 0286 B1060000 		.4byte	.LASF30
 2940 028a 0B       		.byte	0xb
 2941 028b B1       		.byte	0xb1
 2942 028c 68020000 		.4byte	0x268
ARM GAS  /var/folders/c6/c789hm653lg9vtl73krp73tm0000gn/T//ccOdjWuU.s 			page 107


 2943 0290 00       		.byte	0
 2944 0291 00       		.byte	0
 2945 0292 03       		.uleb128 0x3
 2946 0293 E8060000 		.4byte	.LASF53
 2947 0297 0A       		.byte	0xa
 2948 0298 50       		.byte	0x50
 2949 0299 9D020000 		.4byte	0x29d
 2950 029d 06       		.uleb128 0x6
 2951 029e 47010000 		.4byte	.LASF54
 2952 02a2 08       		.byte	0x8
 2953 02a3 0B       		.byte	0xb
 2954 02a4 B7       		.byte	0xb7
 2955 02a5 C2020000 		.4byte	0x2c2
 2956 02a9 07       		.uleb128 0x7
 2957 02aa B1060000 		.4byte	.LASF30
 2958 02ae 0B       		.byte	0xb
 2959 02af B8       		.byte	0xb8
 2960 02b0 68020000 		.4byte	0x268
 2961 02b4 00       		.byte	0
 2962 02b5 07       		.uleb128 0x7
 2963 02b6 25060000 		.4byte	.LASF31
 2964 02ba 0B       		.byte	0xb
 2965 02bb B9       		.byte	0xb9
 2966 02bc 68020000 		.4byte	0x268
 2967 02c0 04       		.byte	0x4
 2968 02c1 00       		.byte	0
 2969 02c2 03       		.uleb128 0x3
 2970 02c3 E7000000 		.4byte	.LASF55
 2971 02c7 0A       		.byte	0xa
 2972 02c8 57       		.byte	0x57
 2973 02c9 CD020000 		.4byte	0x2cd
 2974 02cd 0B       		.uleb128 0xb
 2975 02ce AC040000 		.4byte	.LASF56
 2976 02d2 1C       		.byte	0x1c
 2977 02d3 0B       		.byte	0xb
 2978 02d4 9001     		.2byte	0x190
 2979 02d6 29030000 		.4byte	0x329
 2980 02da 09       		.uleb128 0x9
 2981 02db 3A070000 		.4byte	.LASF57
 2982 02df 0B       		.byte	0xb
 2983 02e0 9101     		.2byte	0x191
 2984 02e2 92020000 		.4byte	0x292
 2985 02e6 00       		.byte	0
 2986 02e7 09       		.uleb128 0x9
 2987 02e8 A3060000 		.4byte	.LASF58
 2988 02ec 0B       		.byte	0xb
 2989 02ed 9201     		.2byte	0x192
 2990 02ef 0A010000 		.4byte	0x10a
 2991 02f3 08       		.byte	0x8
 2992 02f4 09       		.uleb128 0x9
 2993 02f5 86050000 		.4byte	.LASF59
 2994 02f9 0B       		.byte	0xb
 2995 02fa 9401     		.2byte	0x194
 2996 02fc D1040000 		.4byte	0x4d1
 2997 0300 0C       		.byte	0xc
 2998 0301 09       		.uleb128 0x9
 2999 0302 5A040000 		.4byte	.LASF60
ARM GAS  /var/folders/c6/c789hm653lg9vtl73krp73tm0000gn/T//ccOdjWuU.s 			page 108


 3000 0306 0B       		.byte	0xb
 3001 0307 9701     		.2byte	0x197
 3002 0309 68020000 		.4byte	0x268
 3003 030d 10       		.byte	0x10
 3004 030e 09       		.uleb128 0x9
 3005 030f E5050000 		.4byte	.LASF61
 3006 0313 0B       		.byte	0xb
 3007 0314 9801     		.2byte	0x198
 3008 0316 68020000 		.4byte	0x268
 3009 031a 14       		.byte	0x14
 3010 031b 09       		.uleb128 0x9
 3011 031c DB050000 		.4byte	.LASF62
 3012 0320 0B       		.byte	0xb
 3013 0321 9B01     		.2byte	0x19b
 3014 0323 68020000 		.4byte	0x268
 3015 0327 18       		.byte	0x18
 3016 0328 00       		.byte	0
 3017 0329 03       		.uleb128 0x3
 3018 032a 9C070000 		.4byte	.LASF63
 3019 032e 0A       		.byte	0xa
 3020 032f 5C       		.byte	0x5c
 3021 0330 34030000 		.4byte	0x334
 3022 0334 0A       		.uleb128 0xa
 3023 0335 04       		.byte	0x4
 3024 0336 3A030000 		.4byte	0x33a
 3025 033a 0C       		.uleb128 0xc
 3026 033b 45030000 		.4byte	0x345
 3027 033f 0D       		.uleb128 0xd
 3028 0340 45030000 		.4byte	0x345
 3029 0344 00       		.byte	0
 3030 0345 0E       		.uleb128 0xe
 3031 0346 04       		.byte	0x4
 3032 0347 03       		.uleb128 0x3
 3033 0348 15060000 		.4byte	.LASF64
 3034 034c 0A       		.byte	0xa
 3035 034d 61       		.byte	0x61
 3036 034e 52030000 		.4byte	0x352
 3037 0352 0B       		.uleb128 0xb
 3038 0353 F8060000 		.4byte	.LASF65
 3039 0357 14       		.byte	0x14
 3040 0358 0B       		.byte	0xb
 3041 0359 6B01     		.2byte	0x16b
 3042 035b A1030000 		.4byte	0x3a1
 3043 035f 09       		.uleb128 0x9
 3044 0360 5F030000 		.4byte	.LASF66
 3045 0364 0B       		.byte	0xb
 3046 0365 6C01     		.2byte	0x16c
 3047 0367 8D070000 		.4byte	0x78d
 3048 036b 00       		.byte	0
 3049 036c 09       		.uleb128 0x9
 3050 036d FD020000 		.4byte	.LASF67
 3051 0371 0B       		.byte	0xb
 3052 0372 6D01     		.2byte	0x16d
 3053 0374 8D070000 		.4byte	0x78d
 3054 0378 04       		.byte	0x4
 3055 0379 09       		.uleb128 0x9
 3056 037a 42070000 		.4byte	.LASF68
ARM GAS  /var/folders/c6/c789hm653lg9vtl73krp73tm0000gn/T//ccOdjWuU.s 			page 109


 3057 037e 0B       		.byte	0xb
 3058 037f 6E01     		.2byte	0x16e
 3059 0381 41010000 		.4byte	0x141
 3060 0385 08       		.byte	0x8
 3061 0386 09       		.uleb128 0x9
 3062 0387 D4080000 		.4byte	.LASF69
 3063 038b 0B       		.byte	0xb
 3064 038c 6F01     		.2byte	0x16f
 3065 038e 29030000 		.4byte	0x329
 3066 0392 0C       		.byte	0xc
 3067 0393 09       		.uleb128 0x9
 3068 0394 F3070000 		.4byte	.LASF70
 3069 0398 0B       		.byte	0xb
 3070 0399 7101     		.2byte	0x171
 3071 039b 45030000 		.4byte	0x345
 3072 039f 10       		.byte	0x10
 3073 03a0 00       		.byte	0
 3074 03a1 03       		.uleb128 0x3
 3075 03a2 F3010000 		.4byte	.LASF71
 3076 03a6 0A       		.byte	0xa
 3077 03a7 66       		.byte	0x66
 3078 03a8 AC030000 		.4byte	0x3ac
 3079 03ac 0B       		.uleb128 0xb
 3080 03ad 38050000 		.4byte	.LASF72
 3081 03b1 10       		.byte	0x10
 3082 03b2 0B       		.byte	0xb
 3083 03b3 7B01     		.2byte	0x17b
 3084 03b5 EE030000 		.4byte	0x3ee
 3085 03b9 09       		.uleb128 0x9
 3086 03ba 5F030000 		.4byte	.LASF66
 3087 03be 0B       		.byte	0xb
 3088 03bf 7C01     		.2byte	0x17c
 3089 03c1 8D070000 		.4byte	0x78d
 3090 03c5 00       		.byte	0
 3091 03c6 09       		.uleb128 0x9
 3092 03c7 FD020000 		.4byte	.LASF67
 3093 03cb 0B       		.byte	0xb
 3094 03cc 7E01     		.2byte	0x17e
 3095 03ce 8D070000 		.4byte	0x78d
 3096 03d2 04       		.byte	0x4
 3097 03d3 09       		.uleb128 0x9
 3098 03d4 42070000 		.4byte	.LASF68
 3099 03d8 0B       		.byte	0xb
 3100 03d9 8001     		.2byte	0x180
 3101 03db 41010000 		.4byte	0x141
 3102 03df 08       		.byte	0x8
 3103 03e0 09       		.uleb128 0x9
 3104 03e1 72050000 		.4byte	.LASF73
 3105 03e5 0B       		.byte	0xb
 3106 03e6 8801     		.2byte	0x188
 3107 03e8 41010000 		.4byte	0x141
 3108 03ec 0C       		.byte	0xc
 3109 03ed 00       		.byte	0
 3110 03ee 03       		.uleb128 0x3
 3111 03ef 58010000 		.4byte	.LASF74
 3112 03f3 0A       		.byte	0xa
 3113 03f4 6B       		.byte	0x6b
ARM GAS  /var/folders/c6/c789hm653lg9vtl73krp73tm0000gn/T//ccOdjWuU.s 			page 110


 3114 03f5 F9030000 		.4byte	0x3f9
 3115 03f9 0F       		.uleb128 0xf
 3116 03fa 0F030000 		.4byte	.LASF75
 3117 03fe 1404     		.2byte	0x414
 3118 0400 0B       		.byte	0xb
 3119 0401 A201     		.2byte	0x1a2
 3120 0403 3C040000 		.4byte	0x43c
 3121 0407 09       		.uleb128 0x9
 3122 0408 C4070000 		.4byte	.LASF76
 3123 040c 0B       		.byte	0xb
 3124 040d AA01     		.2byte	0x1aa
 3125 040f 93070000 		.4byte	0x793
 3126 0413 00       		.byte	0
 3127 0414 09       		.uleb128 0x9
 3128 0415 22080000 		.4byte	.LASF77
 3129 0419 0B       		.byte	0xb
 3130 041a AF01     		.2byte	0x1af
 3131 041c 2B010000 		.4byte	0x12b
 3132 0420 04       		.byte	0x4
 3133 0421 09       		.uleb128 0x9
 3134 0422 2D030000 		.4byte	.LASF78
 3135 0426 0B       		.byte	0xb
 3136 0427 B301     		.2byte	0x1b3
 3137 0429 2B010000 		.4byte	0x12b
 3138 042d 08       		.byte	0x8
 3139 042e 09       		.uleb128 0x9
 3140 042f 92080000 		.4byte	.LASF79
 3141 0433 0B       		.byte	0xb
 3142 0434 B901     		.2byte	0x1b9
 3143 0436 F3050000 		.4byte	0x5f3
 3144 043a 0C       		.byte	0xc
 3145 043b 00       		.byte	0
 3146 043c 03       		.uleb128 0x3
 3147 043d 73040000 		.4byte	.LASF80
 3148 0441 0A       		.byte	0xa
 3149 0442 70       		.byte	0x70
 3150 0443 47040000 		.4byte	0x447
 3151 0447 0F       		.uleb128 0xf
 3152 0448 D2060000 		.4byte	.LASF81
 3153 044c D805     		.2byte	0x5d8
 3154 044e 0B       		.byte	0xb
 3155 044f C201     		.2byte	0x1c2
 3156 0451 B4040000 		.4byte	0x4b4
 3157 0455 09       		.uleb128 0x9
 3158 0456 2A080000 		.4byte	.LASF82
 3159 045a 0B       		.byte	0xb
 3160 045b C601     		.2byte	0x1c6
 3161 045d C2020000 		.4byte	0x2c2
 3162 0461 00       		.byte	0
 3163 0462 09       		.uleb128 0x9
 3164 0463 64020000 		.4byte	.LASF83
 3165 0467 0B       		.byte	0xb
 3166 0468 CA01     		.2byte	0x1ca
 3167 046a A1030000 		.4byte	0x3a1
 3168 046e 1C       		.byte	0x1c
 3169 046f 08       		.uleb128 0x8
 3170 0470 64626700 		.ascii	"dbg\000"
ARM GAS  /var/folders/c6/c789hm653lg9vtl73krp73tm0000gn/T//ccOdjWuU.s 			page 111


 3171 0474 0B       		.byte	0xb
 3172 0475 CE01     		.2byte	0x1ce
 3173 0477 EE030000 		.4byte	0x3ee
 3174 047b 2C       		.byte	0x2c
 3175 047c 10       		.uleb128 0x10
 3176 047d E3010000 		.4byte	.LASF84
 3177 0481 0B       		.byte	0xb
 3178 0482 D201     		.2byte	0x1d2
 3179 0484 4C010000 		.4byte	0x14c
 3180 0488 4004     		.2byte	0x440
 3181 048a 11       		.uleb128 0x11
 3182 048b 746D00   		.ascii	"tm\000"
 3183 048e 0B       		.byte	0xb
 3184 048f D701     		.2byte	0x1d7
 3185 0491 13060000 		.4byte	0x613
 3186 0495 A004     		.2byte	0x4a0
 3187 0497 10       		.uleb128 0x10
 3188 0498 1A010000 		.4byte	.LASF85
 3189 049c 0B       		.byte	0xb
 3190 049d DD01     		.2byte	0x1dd
 3191 049f A5060000 		.4byte	0x6a5
 3192 04a3 A804     		.2byte	0x4a8
 3193 04a5 10       		.uleb128 0x10
 3194 04a6 67010000 		.4byte	.LASF86
 3195 04aa 0B       		.byte	0xb
 3196 04ab E301     		.2byte	0x1e3
 3197 04ad 98070000 		.4byte	0x798
 3198 04b1 E004     		.2byte	0x4e0
 3199 04b3 00       		.byte	0
 3200 04b4 04       		.uleb128 0x4
 3201 04b5 04       		.byte	0x4
 3202 04b6 07       		.byte	0x7
 3203 04b7 0C050000 		.4byte	.LASF87
 3204 04bb 03       		.uleb128 0x3
 3205 04bc F4020000 		.4byte	.LASF88
 3206 04c0 0C       		.byte	0xc
 3207 04c1 65       		.byte	0x65
 3208 04c2 45030000 		.4byte	0x345
 3209 04c6 03       		.uleb128 0x3
 3210 04c7 DA040000 		.4byte	.LASF89
 3211 04cb 0C       		.byte	0xc
 3212 04cc 6D       		.byte	0x6d
 3213 04cd C3000000 		.4byte	0xc3
 3214 04d1 06       		.uleb128 0x6
 3215 04d2 D5070000 		.4byte	.LASF90
 3216 04d6 04       		.byte	0x4
 3217 04d7 0C       		.byte	0xc
 3218 04d8 89       		.byte	0x89
 3219 04d9 EA040000 		.4byte	0x4ea
 3220 04dd 12       		.uleb128 0x12
 3221 04de 72313300 		.ascii	"r13\000"
 3222 04e2 0C       		.byte	0xc
 3223 04e3 8A       		.byte	0x8a
 3224 04e4 65050000 		.4byte	0x565
 3225 04e8 00       		.byte	0
 3226 04e9 00       		.byte	0
 3227 04ea 06       		.uleb128 0x6
ARM GAS  /var/folders/c6/c789hm653lg9vtl73krp73tm0000gn/T//ccOdjWuU.s 			page 112


 3228 04eb 3B010000 		.4byte	.LASF91
 3229 04ef 24       		.byte	0x24
 3230 04f0 0D       		.byte	0xd
 3231 04f1 F4       		.byte	0xf4
 3232 04f2 65050000 		.4byte	0x565
 3233 04f6 08       		.uleb128 0x8
 3234 04f7 723400   		.ascii	"r4\000"
 3235 04fa 0D       		.byte	0xd
 3236 04fb 0701     		.2byte	0x107
 3237 04fd BB040000 		.4byte	0x4bb
 3238 0501 00       		.byte	0
 3239 0502 08       		.uleb128 0x8
 3240 0503 723500   		.ascii	"r5\000"
 3241 0506 0D       		.byte	0xd
 3242 0507 0801     		.2byte	0x108
 3243 0509 BB040000 		.4byte	0x4bb
 3244 050d 04       		.byte	0x4
 3245 050e 08       		.uleb128 0x8
 3246 050f 723600   		.ascii	"r6\000"
 3247 0512 0D       		.byte	0xd
 3248 0513 0901     		.2byte	0x109
 3249 0515 BB040000 		.4byte	0x4bb
 3250 0519 08       		.byte	0x8
 3251 051a 08       		.uleb128 0x8
 3252 051b 723700   		.ascii	"r7\000"
 3253 051e 0D       		.byte	0xd
 3254 051f 0A01     		.2byte	0x10a
 3255 0521 BB040000 		.4byte	0x4bb
 3256 0525 0C       		.byte	0xc
 3257 0526 08       		.uleb128 0x8
 3258 0527 723800   		.ascii	"r8\000"
 3259 052a 0D       		.byte	0xd
 3260 052b 0B01     		.2byte	0x10b
 3261 052d BB040000 		.4byte	0x4bb
 3262 0531 10       		.byte	0x10
 3263 0532 08       		.uleb128 0x8
 3264 0533 723900   		.ascii	"r9\000"
 3265 0536 0D       		.byte	0xd
 3266 0537 0C01     		.2byte	0x10c
 3267 0539 BB040000 		.4byte	0x4bb
 3268 053d 14       		.byte	0x14
 3269 053e 08       		.uleb128 0x8
 3270 053f 72313000 		.ascii	"r10\000"
 3271 0543 0D       		.byte	0xd
 3272 0544 0D01     		.2byte	0x10d
 3273 0546 BB040000 		.4byte	0x4bb
 3274 054a 18       		.byte	0x18
 3275 054b 08       		.uleb128 0x8
 3276 054c 72313100 		.ascii	"r11\000"
 3277 0550 0D       		.byte	0xd
 3278 0551 0E01     		.2byte	0x10e
 3279 0553 BB040000 		.4byte	0x4bb
 3280 0557 1C       		.byte	0x1c
 3281 0558 08       		.uleb128 0x8
 3282 0559 6C7200   		.ascii	"lr\000"
 3283 055c 0D       		.byte	0xd
 3284 055d 0F01     		.2byte	0x10f
ARM GAS  /var/folders/c6/c789hm653lg9vtl73krp73tm0000gn/T//ccOdjWuU.s 			page 113


 3285 055f BB040000 		.4byte	0x4bb
 3286 0563 20       		.byte	0x20
 3287 0564 00       		.byte	0
 3288 0565 0A       		.uleb128 0xa
 3289 0566 04       		.byte	0x4
 3290 0567 EA040000 		.4byte	0x4ea
 3291 056b 13       		.uleb128 0x13
 3292 056c 10       		.byte	0x10
 3293 056d 0E       		.byte	0xe
 3294 056e 51       		.byte	0x51
 3295 056f A4050000 		.4byte	0x5a4
 3296 0573 07       		.uleb128 0x7
 3297 0574 3C020000 		.4byte	.LASF92
 3298 0578 0E       		.byte	0xe
 3299 0579 55       		.byte	0x55
 3300 057a 41010000 		.4byte	0x141
 3301 057e 00       		.byte	0
 3302 057f 07       		.uleb128 0x7
 3303 0580 98020000 		.4byte	.LASF93
 3304 0584 0E       		.byte	0xe
 3305 0585 59       		.byte	0x59
 3306 0586 68020000 		.4byte	0x268
 3307 058a 04       		.byte	0x4
 3308 058b 07       		.uleb128 0x7
 3309 058c C4080000 		.4byte	.LASF94
 3310 0590 0E       		.byte	0xe
 3311 0591 5D       		.byte	0x5d
 3312 0592 45030000 		.4byte	0x345
 3313 0596 08       		.byte	0x8
 3314 0597 07       		.uleb128 0x7
 3315 0598 D1010000 		.4byte	.LASF95
 3316 059c 0E       		.byte	0xe
 3317 059d 61       		.byte	0x61
 3318 059e A2000000 		.4byte	0xa2
 3319 05a2 0C       		.byte	0xc
 3320 05a3 00       		.byte	0
 3321 05a4 03       		.uleb128 0x3
 3322 05a5 63050000 		.4byte	.LASF96
 3323 05a9 0E       		.byte	0xe
 3324 05aa 62       		.byte	0x62
 3325 05ab 6B050000 		.4byte	0x56b
 3326 05af 14       		.uleb128 0x14
 3327 05b0 0804     		.2byte	0x408
 3328 05b2 0E       		.byte	0xe
 3329 05b3 67       		.byte	0x67
 3330 05b4 DD050000 		.4byte	0x5dd
 3331 05b8 07       		.uleb128 0x7
 3332 05b9 E3020000 		.4byte	.LASF97
 3333 05bd 0E       		.byte	0xe
 3334 05be 6B       		.byte	0x6b
 3335 05bf 37000000 		.4byte	0x37
 3336 05c3 00       		.byte	0
 3337 05c4 07       		.uleb128 0x7
 3338 05c5 E0000000 		.4byte	.LASF98
 3339 05c9 0E       		.byte	0xe
 3340 05ca 6F       		.byte	0x6f
 3341 05cb DD050000 		.4byte	0x5dd
ARM GAS  /var/folders/c6/c789hm653lg9vtl73krp73tm0000gn/T//ccOdjWuU.s 			page 114


 3342 05cf 04       		.byte	0x4
 3343 05d0 07       		.uleb128 0x7
 3344 05d1 0B060000 		.4byte	.LASF99
 3345 05d5 0E       		.byte	0xe
 3346 05d6 73       		.byte	0x73
 3347 05d7 E3050000 		.4byte	0x5e3
 3348 05db 08       		.byte	0x8
 3349 05dc 00       		.byte	0
 3350 05dd 0A       		.uleb128 0xa
 3351 05de 04       		.byte	0x4
 3352 05df A4050000 		.4byte	0x5a4
 3353 05e3 15       		.uleb128 0x15
 3354 05e4 A4050000 		.4byte	0x5a4
 3355 05e8 F3050000 		.4byte	0x5f3
 3356 05ec 16       		.uleb128 0x16
 3357 05ed B4040000 		.4byte	0x4b4
 3358 05f1 3F       		.byte	0x3f
 3359 05f2 00       		.byte	0
 3360 05f3 03       		.uleb128 0x3
 3361 05f4 BF010000 		.4byte	.LASF100
 3362 05f8 0E       		.byte	0xe
 3363 05f9 74       		.byte	0x74
 3364 05fa AF050000 		.4byte	0x5af
 3365 05fe 13       		.uleb128 0x13
 3366 05ff 04       		.byte	0x4
 3367 0600 0F       		.byte	0xf
 3368 0601 38       		.byte	0x38
 3369 0602 13060000 		.4byte	0x613
 3370 0606 07       		.uleb128 0x7
 3371 0607 CE070000 		.4byte	.LASF101
 3372 060b 0F       		.byte	0xf
 3373 060c 3C       		.byte	0x3c
 3374 060d D3000000 		.4byte	0xd3
 3375 0611 00       		.byte	0
 3376 0612 00       		.byte	0
 3377 0613 03       		.uleb128 0x3
 3378 0614 96050000 		.4byte	.LASF102
 3379 0618 0F       		.byte	0xf
 3380 0619 3D       		.byte	0x3d
 3381 061a FE050000 		.4byte	0x5fe
 3382 061e 13       		.uleb128 0x13
 3383 061f 18       		.byte	0x18
 3384 0620 0F       		.byte	0xf
 3385 0621 48       		.byte	0x48
 3386 0622 61060000 		.4byte	0x661
 3387 0626 07       		.uleb128 0x7
 3388 0627 7B070000 		.4byte	.LASF103
 3389 062b 0F       		.byte	0xf
 3390 062c 49       		.byte	0x49
 3391 062d D3000000 		.4byte	0xd3
 3392 0631 00       		.byte	0
 3393 0632 07       		.uleb128 0x7
 3394 0633 80010000 		.4byte	.LASF104
 3395 0637 0F       		.byte	0xf
 3396 0638 4A       		.byte	0x4a
 3397 0639 D3000000 		.4byte	0xd3
 3398 063d 04       		.byte	0x4
ARM GAS  /var/folders/c6/c789hm653lg9vtl73krp73tm0000gn/T//ccOdjWuU.s 			page 115


 3399 063e 07       		.uleb128 0x7
 3400 063f 4E040000 		.4byte	.LASF105
 3401 0643 0F       		.byte	0xf
 3402 0644 4B       		.byte	0x4b
 3403 0645 D3000000 		.4byte	0xd3
 3404 0649 08       		.byte	0x8
 3405 064a 12       		.uleb128 0x12
 3406 064b 6E00     		.ascii	"n\000"
 3407 064d 0F       		.byte	0xf
 3408 064e 4C       		.byte	0x4c
 3409 064f 36010000 		.4byte	0x136
 3410 0653 0C       		.byte	0xc
 3411 0654 07       		.uleb128 0x7
 3412 0655 F8050000 		.4byte	.LASF106
 3413 0659 0F       		.byte	0xf
 3414 065a 4D       		.byte	0x4d
 3415 065b DE000000 		.4byte	0xde
 3416 065f 10       		.byte	0x10
 3417 0660 00       		.byte	0
 3418 0661 03       		.uleb128 0x3
 3419 0662 86010000 		.4byte	.LASF107
 3420 0666 0F       		.byte	0xf
 3421 0667 4E       		.byte	0x4e
 3422 0668 1E060000 		.4byte	0x61e
 3423 066c 13       		.uleb128 0x13
 3424 066d 38       		.byte	0x38
 3425 066e 10       		.byte	0x10
 3426 066f 38       		.byte	0x38
 3427 0670 A5060000 		.4byte	0x6a5
 3428 0674 07       		.uleb128 0x7
 3429 0675 98030000 		.4byte	.LASF108
 3430 0679 10       		.byte	0x10
 3431 067a 39       		.byte	0x39
 3432 067b 36010000 		.4byte	0x136
 3433 067f 00       		.byte	0
 3434 0680 07       		.uleb128 0x7
 3435 0681 3C060000 		.4byte	.LASF109
 3436 0685 10       		.byte	0x10
 3437 0686 3A       		.byte	0x3a
 3438 0687 36010000 		.4byte	0x136
 3439 068b 04       		.byte	0x4
 3440 068c 07       		.uleb128 0x7
 3441 068d B1080000 		.4byte	.LASF110
 3442 0691 10       		.byte	0x10
 3443 0692 3B       		.byte	0x3b
 3444 0693 61060000 		.4byte	0x661
 3445 0697 08       		.byte	0x8
 3446 0698 07       		.uleb128 0x7
 3447 0699 A1040000 		.4byte	.LASF111
 3448 069d 10       		.byte	0x10
 3449 069e 3D       		.byte	0x3d
 3450 069f 61060000 		.4byte	0x661
 3451 06a3 20       		.byte	0x20
 3452 06a4 00       		.byte	0
 3453 06a5 03       		.uleb128 0x3
 3454 06a6 18040000 		.4byte	.LASF112
 3455 06aa 10       		.byte	0x10
ARM GAS  /var/folders/c6/c789hm653lg9vtl73krp73tm0000gn/T//ccOdjWuU.s 			page 116


 3456 06ab 3F       		.byte	0x3f
 3457 06ac 6C060000 		.4byte	0x66c
 3458 06b0 17       		.uleb128 0x17
 3459 06b1 04       		.byte	0x4
 3460 06b2 0B       		.byte	0xb
 3461 06b3 FA       		.byte	0xfa
 3462 06b4 0D070000 		.4byte	0x70d
 3463 06b8 18       		.uleb128 0x18
 3464 06b9 0A010000 		.4byte	.LASF113
 3465 06bd 0B       		.byte	0xb
 3466 06be 0101     		.2byte	0x101
 3467 06c0 15010000 		.4byte	0x115
 3468 06c4 18       		.uleb128 0x18
 3469 06c5 DA010000 		.4byte	.LASF114
 3470 06c9 0B       		.byte	0xb
 3471 06ca 0801     		.2byte	0x108
 3472 06cc 15010000 		.4byte	0x115
 3473 06d0 18       		.uleb128 0x18
 3474 06d1 68080000 		.4byte	.LASF115
 3475 06d5 0B       		.byte	0xb
 3476 06d6 0F01     		.2byte	0x10f
 3477 06d8 45030000 		.4byte	0x345
 3478 06dc 18       		.uleb128 0x18
 3479 06dd 77020000 		.4byte	.LASF116
 3480 06e1 0B       		.byte	0xb
 3481 06e2 1601     		.2byte	0x116
 3482 06e4 0D070000 		.4byte	0x70d
 3483 06e8 18       		.uleb128 0x18
 3484 06e9 71030000 		.4byte	.LASF117
 3485 06ed 0B       		.byte	0xb
 3486 06ee 1E01     		.2byte	0x11e
 3487 06f0 38070000 		.4byte	0x738
 3488 06f4 18       		.uleb128 0x18
 3489 06f5 33070000 		.4byte	.LASF118
 3490 06f9 0B       		.byte	0xb
 3491 06fa 2701     		.2byte	0x127
 3492 06fc 6F070000 		.4byte	0x76f
 3493 0700 18       		.uleb128 0x18
 3494 0701 AA060000 		.4byte	.LASF119
 3495 0705 0B       		.byte	0xb
 3496 0706 2F01     		.2byte	0x12f
 3497 0708 20010000 		.4byte	0x120
 3498 070c 00       		.byte	0
 3499 070d 0A       		.uleb128 0xa
 3500 070e 04       		.byte	0x4
 3501 070f 5D020000 		.4byte	0x25d
 3502 0713 06       		.uleb128 0x6
 3503 0714 12070000 		.4byte	.LASF120
 3504 0718 0C       		.byte	0xc
 3505 0719 04       		.byte	0x4
 3506 071a 34       		.byte	0x34
 3507 071b 38070000 		.4byte	0x738
 3508 071f 07       		.uleb128 0x7
 3509 0720 C9020000 		.4byte	.LASF121
 3510 0724 04       		.byte	0x4
 3511 0725 35       		.byte	0x35
 3512 0726 92020000 		.4byte	0x292
ARM GAS  /var/folders/c6/c789hm653lg9vtl73krp73tm0000gn/T//ccOdjWuU.s 			page 117


 3513 072a 00       		.byte	0
 3514 072b 07       		.uleb128 0x7
 3515 072c 9E030000 		.4byte	.LASF122
 3516 0730 04       		.byte	0x4
 3517 0731 37       		.byte	0x37
 3518 0732 2B010000 		.4byte	0x12b
 3519 0736 08       		.byte	0x8
 3520 0737 00       		.byte	0
 3521 0738 0A       		.uleb128 0xa
 3522 0739 04       		.byte	0x4
 3523 073a 13070000 		.4byte	0x713
 3524 073e 06       		.uleb128 0x6
 3525 073f 12080000 		.4byte	.LASF123
 3526 0743 10       		.byte	0x10
 3527 0744 11       		.byte	0x11
 3528 0745 39       		.byte	0x39
 3529 0746 6F070000 		.4byte	0x76f
 3530 074a 07       		.uleb128 0x7
 3531 074b 4C020000 		.4byte	.LASF124
 3532 074f 11       		.byte	0x11
 3533 0750 3A       		.byte	0x3a
 3534 0751 92020000 		.4byte	0x292
 3535 0755 00       		.byte	0
 3536 0756 07       		.uleb128 0x7
 3537 0757 BC080000 		.4byte	.LASF125
 3538 075b 11       		.byte	0x11
 3539 075c 3C       		.byte	0x3c
 3540 075d 68020000 		.4byte	0x268
 3541 0761 08       		.byte	0x8
 3542 0762 07       		.uleb128 0x7
 3543 0763 80070000 		.4byte	.LASF126
 3544 0767 11       		.byte	0x11
 3545 0768 3E       		.byte	0x3e
 3546 0769 BE070000 		.4byte	0x7be
 3547 076d 0C       		.byte	0xc
 3548 076e 00       		.byte	0
 3549 076f 0A       		.uleb128 0xa
 3550 0770 04       		.byte	0x4
 3551 0771 3E070000 		.4byte	0x73e
 3552 0775 0A       		.uleb128 0xa
 3553 0776 04       		.byte	0x4
 3554 0777 7B070000 		.4byte	0x77b
 3555 077b 19       		.uleb128 0x19
 3556 077c 80070000 		.4byte	0x780
 3557 0780 04       		.uleb128 0x4
 3558 0781 01       		.byte	0x1
 3559 0782 08       		.byte	0x8
 3560 0783 6D070000 		.4byte	.LASF127
 3561 0787 0A       		.uleb128 0xa
 3562 0788 04       		.byte	0x4
 3563 0789 C6040000 		.4byte	0x4c6
 3564 078d 0A       		.uleb128 0xa
 3565 078e 04       		.byte	0x4
 3566 078f 47030000 		.4byte	0x347
 3567 0793 05       		.uleb128 0x5
 3568 0794 75070000 		.4byte	0x775
 3569 0798 15       		.uleb128 0x15
ARM GAS  /var/folders/c6/c789hm653lg9vtl73krp73tm0000gn/T//ccOdjWuU.s 			page 118


 3570 0799 C6040000 		.4byte	0x4c6
 3571 079d A8070000 		.4byte	0x7a8
 3572 07a1 16       		.uleb128 0x16
 3573 07a2 B4040000 		.4byte	0x4b4
 3574 07a6 1E       		.byte	0x1e
 3575 07a7 00       		.byte	0
 3576 07a8 03       		.uleb128 0x3
 3577 07a9 DC060000 		.4byte	.LASF128
 3578 07ad 04       		.byte	0x4
 3579 07ae 38       		.byte	0x38
 3580 07af 13070000 		.4byte	0x713
 3581 07b3 03       		.uleb128 0x3
 3582 07b4 1F030000 		.4byte	.LASF129
 3583 07b8 11       		.byte	0x11
 3584 07b9 34       		.byte	0x34
 3585 07ba 3E070000 		.4byte	0x73e
 3586 07be 0A       		.uleb128 0xa
 3587 07bf 04       		.byte	0x4
 3588 07c0 B3070000 		.4byte	0x7b3
 3589 07c4 13       		.uleb128 0x13
 3590 07c5 28       		.byte	0x28
 3591 07c6 05       		.byte	0x5
 3592 07c7 38       		.byte	0x38
 3593 07c8 15080000 		.4byte	0x815
 3594 07cc 07       		.uleb128 0x7
 3595 07cd C3050000 		.4byte	.LASF130
 3596 07d1 05       		.byte	0x5
 3597 07d2 39       		.byte	0x39
 3598 07d3 15080000 		.4byte	0x815
 3599 07d7 00       		.byte	0
 3600 07d8 07       		.uleb128 0x7
 3601 07d9 73060000 		.4byte	.LASF131
 3602 07dd 05       		.byte	0x5
 3603 07de 3B       		.byte	0x3b
 3604 07df 15080000 		.4byte	0x815
 3605 07e3 04       		.byte	0x4
 3606 07e4 07       		.uleb128 0x7
 3607 07e5 09020000 		.4byte	.LASF132
 3608 07e9 05       		.byte	0x5
 3609 07ea 3D       		.byte	0x3d
 3610 07eb 15080000 		.4byte	0x815
 3611 07ef 08       		.byte	0x8
 3612 07f0 07       		.uleb128 0x7
 3613 07f1 EB020000 		.4byte	.LASF133
 3614 07f5 05       		.byte	0x5
 3615 07f6 3E       		.byte	0x3e
 3616 07f7 15080000 		.4byte	0x815
 3617 07fb 0C       		.byte	0xc
 3618 07fc 07       		.uleb128 0x7
 3619 07fd FA070000 		.4byte	.LASF134
 3620 0801 05       		.byte	0x5
 3621 0802 3F       		.byte	0x3f
 3622 0803 A8070000 		.4byte	0x7a8
 3623 0807 10       		.byte	0x10
 3624 0808 07       		.uleb128 0x7
 3625 0809 8C030000 		.4byte	.LASF135
 3626 080d 05       		.byte	0x5
ARM GAS  /var/folders/c6/c789hm653lg9vtl73krp73tm0000gn/T//ccOdjWuU.s 			page 119


 3627 080e 41       		.byte	0x41
 3628 080f A8070000 		.4byte	0x7a8
 3629 0813 1C       		.byte	0x1c
 3630 0814 00       		.byte	0
 3631 0815 0A       		.uleb128 0xa
 3632 0816 04       		.byte	0x4
 3633 0817 15010000 		.4byte	0x115
 3634 081b 03       		.uleb128 0x3
 3635 081c 8C050000 		.4byte	.LASF136
 3636 0820 05       		.byte	0x5
 3637 0821 43       		.byte	0x43
 3638 0822 C4070000 		.4byte	0x7c4
 3639 0826 06       		.uleb128 0x6
 3640 0827 09070000 		.4byte	.LASF137
 3641 082b 10       		.byte	0x10
 3642 082c 12       		.byte	0x12
 3643 082d 3B       		.byte	0x3b
 3644 082e 63080000 		.4byte	0x863
 3645 0832 07       		.uleb128 0x7
 3646 0833 A4030000 		.4byte	.LASF138
 3647 0837 12       		.byte	0x12
 3648 0838 3C       		.byte	0x3c
 3649 0839 75070000 		.4byte	0x775
 3650 083d 00       		.byte	0
 3651 083e 07       		.uleb128 0x7
 3652 083f A7050000 		.4byte	.LASF139
 3653 0843 12       		.byte	0x12
 3654 0844 3D       		.byte	0x3d
 3655 0845 64080000 		.4byte	0x864
 3656 0849 04       		.byte	0x4
 3657 084a 07       		.uleb128 0x7
 3658 084b 83030000 		.4byte	.LASF140
 3659 084f 12       		.byte	0x12
 3660 0850 3E       		.byte	0x3e
 3661 0851 64080000 		.4byte	0x864
 3662 0855 08       		.byte	0x8
 3663 0856 07       		.uleb128 0x7
 3664 0857 2C060000 		.4byte	.LASF141
 3665 085b 12       		.byte	0x12
 3666 085c 3F       		.byte	0x3f
 3667 085d 64080000 		.4byte	0x864
 3668 0861 0C       		.byte	0xc
 3669 0862 00       		.byte	0
 3670 0863 1A       		.uleb128 0x1a
 3671 0864 0A       		.uleb128 0xa
 3672 0865 04       		.byte	0x4
 3673 0866 63080000 		.4byte	0x863
 3674 086a 14       		.uleb128 0x14
 3675 086b 0807     		.2byte	0x708
 3676 086d 12       		.byte	0x12
 3677 086e 44       		.byte	0x44
 3678 086f AF080000 		.4byte	0x8af
 3679 0873 12       		.uleb128 0x12
 3680 0874 543000   		.ascii	"T0\000"
 3681 0877 12       		.byte	0x12
 3682 0878 45       		.byte	0x45
 3683 0879 AF080000 		.4byte	0x8af
ARM GAS  /var/folders/c6/c789hm653lg9vtl73krp73tm0000gn/T//ccOdjWuU.s 			page 120


 3684 087d 00       		.byte	0
 3685 087e 1B       		.uleb128 0x1b
 3686 087f 543100   		.ascii	"T1\000"
 3687 0882 12       		.byte	0x12
 3688 0883 46       		.byte	0x46
 3689 0884 AF080000 		.4byte	0x8af
 3690 0888 6801     		.2byte	0x168
 3691 088a 1B       		.uleb128 0x1b
 3692 088b 543200   		.ascii	"T2\000"
 3693 088e 12       		.byte	0x12
 3694 088f 47       		.byte	0x47
 3695 0890 AF080000 		.4byte	0x8af
 3696 0894 D002     		.2byte	0x2d0
 3697 0896 1B       		.uleb128 0x1b
 3698 0897 543300   		.ascii	"T3\000"
 3699 089a 12       		.byte	0x12
 3700 089b 48       		.byte	0x48
 3701 089c AF080000 		.4byte	0x8af
 3702 08a0 3804     		.2byte	0x438
 3703 08a2 1B       		.uleb128 0x1b
 3704 08a3 543400   		.ascii	"T4\000"
 3705 08a6 12       		.byte	0x12
 3706 08a7 49       		.byte	0x49
 3707 08a8 AF080000 		.4byte	0x8af
 3708 08ac A005     		.2byte	0x5a0
 3709 08ae 00       		.byte	0
 3710 08af 15       		.uleb128 0x15
 3711 08b0 C6040000 		.4byte	0x4c6
 3712 08b4 BF080000 		.4byte	0x8bf
 3713 08b8 16       		.uleb128 0x16
 3714 08b9 B4040000 		.4byte	0x4b4
 3715 08bd 2C       		.byte	0x2c
 3716 08be 00       		.byte	0
 3717 08bf 1C       		.uleb128 0x1c
 3718 08c0 05080000 		.4byte	.LASF180
 3719 08c4 0807     		.2byte	0x708
 3720 08c6 12       		.byte	0x12
 3721 08c7 43       		.byte	0x43
 3722 08c8 E2080000 		.4byte	0x8e2
 3723 08cc 1D       		.uleb128 0x1d
 3724 08cd 776100   		.ascii	"wa\000"
 3725 08d0 12       		.byte	0x12
 3726 08d1 4A       		.byte	0x4a
 3727 08d2 6A080000 		.4byte	0x86a
 3728 08d6 1E       		.uleb128 0x1e
 3729 08d7 9E020000 		.4byte	.LASF142
 3730 08db 12       		.byte	0x12
 3731 08dc 4B       		.byte	0x4b
 3732 08dd E2080000 		.4byte	0x8e2
 3733 08e1 00       		.byte	0
 3734 08e2 15       		.uleb128 0x15
 3735 08e3 A2000000 		.4byte	0xa2
 3736 08e7 F3080000 		.4byte	0x8f3
 3737 08eb 1F       		.uleb128 0x1f
 3738 08ec B4040000 		.4byte	0x4b4
 3739 08f0 0707     		.2byte	0x707
 3740 08f2 00       		.byte	0
ARM GAS  /var/folders/c6/c789hm653lg9vtl73krp73tm0000gn/T//ccOdjWuU.s 			page 121


 3741 08f3 20       		.uleb128 0x20
 3742 08f4 B6070000 		.4byte	.LASF150
 3743 08f8 02       		.byte	0x2
 3744 08f9 2002     		.2byte	0x220
 3745 08fb 03       		.byte	0x3
 3746 08fc 0D090000 		.4byte	0x90d
 3747 0900 21       		.uleb128 0x21
 3748 0901 27030000 		.4byte	.LASF143
 3749 0905 02       		.byte	0x2
 3750 0906 2002     		.2byte	0x220
 3751 0908 B8000000 		.4byte	0xb8
 3752 090c 00       		.byte	0
 3753 090d 22       		.uleb128 0x22
 3754 090e A5070000 		.4byte	.LASF147
 3755 0912 04       		.byte	0x4
 3756 0913 95       		.byte	0x95
 3757 0914 2B010000 		.4byte	0x12b
 3758 0918 03       		.byte	0x3
 3759 0919 28090000 		.4byte	0x928
 3760 091d 23       		.uleb128 0x23
 3761 091e 737000   		.ascii	"sp\000"
 3762 0921 04       		.byte	0x4
 3763 0922 95       		.byte	0x95
 3764 0923 28090000 		.4byte	0x928
 3765 0927 00       		.byte	0
 3766 0928 0A       		.uleb128 0xa
 3767 0929 04       		.byte	0x4
 3768 092a A8070000 		.4byte	0x7a8
 3769 092e 24       		.uleb128 0x24
 3770 092f 76010000 		.4byte	.LASF144
 3771 0933 0D       		.byte	0xd
 3772 0934 BC01     		.2byte	0x1bc
 3773 0936 03       		.byte	0x3
 3774 0937 24       		.uleb128 0x24
 3775 0938 6B020000 		.4byte	.LASF145
 3776 093c 0D       		.byte	0xd
 3777 093d CA01     		.2byte	0x1ca
 3778 093f 03       		.byte	0x3
 3779 0940 24       		.uleb128 0x24
 3780 0941 C8060000 		.4byte	.LASF146
 3781 0945 01       		.byte	0x1
 3782 0946 5A01     		.2byte	0x15a
 3783 0948 03       		.byte	0x3
 3784 0949 22       		.uleb128 0x22
 3785 094a D1020000 		.4byte	.LASF148
 3786 094e 05       		.byte	0x5
 3787 094f 9E       		.byte	0x9e
 3788 0950 2B010000 		.4byte	0x12b
 3789 0954 03       		.byte	0x3
 3790 0955 65090000 		.4byte	0x965
 3791 0959 23       		.uleb128 0x23
 3792 095a 6D627000 		.ascii	"mbp\000"
 3793 095e 05       		.byte	0x5
 3794 095f 9E       		.byte	0x9e
 3795 0960 65090000 		.4byte	0x965
 3796 0964 00       		.byte	0
 3797 0965 0A       		.uleb128 0xa
ARM GAS  /var/folders/c6/c789hm653lg9vtl73krp73tm0000gn/T//ccOdjWuU.s 			page 122


 3798 0966 04       		.byte	0x4
 3799 0967 1B080000 		.4byte	0x81b
 3800 096b 22       		.uleb128 0x22
 3801 096c 61060000 		.4byte	.LASF149
 3802 0970 05       		.byte	0x5
 3803 0971 B1       		.byte	0xb1
 3804 0972 2B010000 		.4byte	0x12b
 3805 0976 03       		.byte	0x3
 3806 0977 87090000 		.4byte	0x987
 3807 097b 23       		.uleb128 0x23
 3808 097c 6D627000 		.ascii	"mbp\000"
 3809 0980 05       		.byte	0x5
 3810 0981 B1       		.byte	0xb1
 3811 0982 65090000 		.4byte	0x965
 3812 0986 00       		.byte	0
 3813 0987 20       		.uleb128 0x20
 3814 0988 9F080000 		.4byte	.LASF151
 3815 098c 01       		.byte	0x1
 3816 098d 6601     		.2byte	0x166
 3817 098f 03       		.byte	0x3
 3818 0990 A2090000 		.4byte	0x9a2
 3819 0994 25       		.uleb128 0x25
 3820 0995 93040000 		.4byte	.LASF181
 3821 0999 B2090000 		.4byte	0x9b2
 3822 099d 9F080000 		.4byte	.LASF151
 3823 09a1 00       		.byte	0
 3824 09a2 15       		.uleb128 0x15
 3825 09a3 80070000 		.4byte	0x780
 3826 09a7 B2090000 		.4byte	0x9b2
 3827 09ab 16       		.uleb128 0x16
 3828 09ac B4040000 		.4byte	0x4b4
 3829 09b0 0B       		.byte	0xb
 3830 09b1 00       		.byte	0
 3831 09b2 19       		.uleb128 0x19
 3832 09b3 A2090000 		.4byte	0x9a2
 3833 09b7 26       		.uleb128 0x26
 3834 09b8 87090000 		.4byte	0x987
 3835 09bc 00000000 		.4byte	.LFB157
 3836 09c0 34000000 		.4byte	.LFE157-.LFB157
 3837 09c4 01       		.uleb128 0x1
 3838 09c5 9C       		.byte	0x9c
 3839 09c6 270A0000 		.4byte	0xa27
 3840 09ca 27       		.uleb128 0x27
 3841 09cb 94090000 		.4byte	0x994
 3842 09cf 05       		.uleb128 0x5
 3843 09d0 03       		.byte	0x3
 3844 09d1 00000000 		.4byte	__func__.5862
 3845 09d5 28       		.uleb128 0x28
 3846 09d6 37090000 		.4byte	0x937
 3847 09da 22000000 		.4byte	.LBB175
 3848 09de 12000000 		.4byte	.LBE175-.LBB175
 3849 09e2 01       		.byte	0x1
 3850 09e3 7301     		.2byte	0x173
 3851 09e5 010A0000 		.4byte	0xa01
 3852 09e9 29       		.uleb128 0x29
 3853 09ea F3080000 		.4byte	0x8f3
 3854 09ee 22000000 		.4byte	.LBB176
ARM GAS  /var/folders/c6/c789hm653lg9vtl73krp73tm0000gn/T//ccOdjWuU.s 			page 123


 3855 09f2 12000000 		.4byte	.LBE176-.LBB176
 3856 09f6 0D       		.byte	0xd
 3857 09f7 CD01     		.2byte	0x1cd
 3858 09f9 2A       		.uleb128 0x2a
 3859 09fa 00090000 		.4byte	0x900
 3860 09fe 00       		.byte	0
 3861 09ff 00       		.byte	0
 3862 0a00 00       		.byte	0
 3863 0a01 2B       		.uleb128 0x2b
 3864 0a02 06000000 		.4byte	.LVL0
 3865 0a06 471F0000 		.4byte	0x1f47
 3866 0a0a 2B       		.uleb128 0x2b
 3867 0a0b 0A000000 		.4byte	.LVL1
 3868 0a0f 4E1F0000 		.4byte	0x1f4e
 3869 0a13 2C       		.uleb128 0x2c
 3870 0a14 22000000 		.4byte	.LVL2
 3871 0a18 551F0000 		.4byte	0x1f55
 3872 0a1c 2D       		.uleb128 0x2d
 3873 0a1d 01       		.uleb128 0x1
 3874 0a1e 50       		.byte	0x50
 3875 0a1f 05       		.uleb128 0x5
 3876 0a20 03       		.byte	0x3
 3877 0a21 00000000 		.4byte	.LANCHOR0
 3878 0a25 00       		.byte	0
 3879 0a26 00       		.byte	0
 3880 0a27 2E       		.uleb128 0x2e
 3881 0a28 87040000 		.4byte	.LASF152
 3882 0a2c 03       		.byte	0x3
 3883 0a2d 47       		.byte	0x47
 3884 0a2e 00000000 		.4byte	.LFB229
 3885 0a32 14000000 		.4byte	.LFE229-.LFB229
 3886 0a36 01       		.uleb128 0x1
 3887 0a37 9C       		.byte	0x9c
 3888 0a38 550A0000 		.4byte	0xa55
 3889 0a3c 2F       		.uleb128 0x2f
 3890 0a3d 0A000000 		.4byte	.LVL3
 3891 0a41 671F0000 		.4byte	0x1f67
 3892 0a45 2D       		.uleb128 0x2d
 3893 0a46 01       		.uleb128 0x1
 3894 0a47 52       		.byte	0x52
 3895 0a48 01       		.uleb128 0x1
 3896 0a49 35       		.byte	0x35
 3897 0a4a 2D       		.uleb128 0x2d
 3898 0a4b 01       		.uleb128 0x1
 3899 0a4c 50       		.byte	0x50
 3900 0a4d 05       		.uleb128 0x5
 3901 0a4e 03       		.byte	0x3
 3902 0a4f 00000000 		.4byte	.LANCHOR1
 3903 0a53 00       		.byte	0
 3904 0a54 00       		.byte	0
 3905 0a55 2E       		.uleb128 0x2e
 3906 0a56 CD050000 		.4byte	.LASF153
 3907 0a5a 03       		.byte	0x3
 3908 0a5b 4C       		.byte	0x4c
 3909 0a5c 00000000 		.4byte	.LFB230
 3910 0a60 7C070000 		.4byte	.LFE230-.LFB230
 3911 0a64 01       		.uleb128 0x1
ARM GAS  /var/folders/c6/c789hm653lg9vtl73krp73tm0000gn/T//ccOdjWuU.s 			page 124


 3912 0a65 9C       		.byte	0x9c
 3913 0a66 D21E0000 		.4byte	0x1ed2
 3914 0a6a 30       		.uleb128 0x30
 3915 0a6b 67030000 		.4byte	.LASF154
 3916 0a6f 03       		.byte	0x3
 3917 0a70 4D       		.byte	0x4d
 3918 0a71 15010000 		.4byte	0x115
 3919 0a75 00000000 		.4byte	.LLST0
 3920 0a79 31       		.uleb128 0x31
 3921 0a7a 6C030000 		.4byte	.LASF155
 3922 0a7e 03       		.byte	0x3
 3923 0a7f 4D       		.byte	0x4d
 3924 0a80 15010000 		.4byte	0x115
 3925 0a84 02       		.uleb128 0x2
 3926 0a85 91       		.byte	0x91
 3927 0a86 64       		.sleb128 -28
 3928 0a87 32       		.uleb128 0x32
 3929 0a88 6900     		.ascii	"i\000"
 3930 0a8a 03       		.byte	0x3
 3931 0a8b 4E       		.byte	0x4e
 3932 0a8c 37000000 		.4byte	0x37
 3933 0a90 79010000 		.4byte	.LLST1
 3934 0a94 33       		.uleb128 0x33
 3935 0a95 40090000 		.4byte	0x940
 3936 0a99 04000000 		.4byte	.LBB352
 3937 0a9d 00000000 		.4byte	.Ldebug_ranges0+0
 3938 0aa1 03       		.byte	0x3
 3939 0aa2 53       		.byte	0x53
 3940 0aa3 E60A0000 		.4byte	0xae6
 3941 0aa7 34       		.uleb128 0x34
 3942 0aa8 2E090000 		.4byte	0x92e
 3943 0aac 04000000 		.4byte	.LBB354
 3944 0ab0 20000000 		.4byte	.Ldebug_ranges0+0x20
 3945 0ab4 01       		.byte	0x1
 3946 0ab5 5C01     		.2byte	0x15c
 3947 0ab7 D30A0000 		.4byte	0xad3
 3948 0abb 35       		.uleb128 0x35
 3949 0abc F3080000 		.4byte	0x8f3
 3950 0ac0 04000000 		.4byte	.LBB355
 3951 0ac4 20000000 		.4byte	.Ldebug_ranges0+0x20
 3952 0ac8 0D       		.byte	0xd
 3953 0ac9 BF01     		.2byte	0x1bf
 3954 0acb 2A       		.uleb128 0x2a
 3955 0acc 00090000 		.4byte	0x900
 3956 0ad0 20       		.byte	0x20
 3957 0ad1 00       		.byte	0
 3958 0ad2 00       		.byte	0
 3959 0ad3 2B       		.uleb128 0x2b
 3960 0ad4 12000000 		.4byte	.LVL5
 3961 0ad8 821F0000 		.4byte	0x1f82
 3962 0adc 2B       		.uleb128 0x2b
 3963 0add 16000000 		.4byte	.LVL6
 3964 0ae1 891F0000 		.4byte	0x1f89
 3965 0ae5 00       		.byte	0
 3966 0ae6 33       		.uleb128 0x33
 3967 0ae7 49090000 		.4byte	0x949
 3968 0aeb 0C000000 		.4byte	.LBB363
ARM GAS  /var/folders/c6/c789hm653lg9vtl73krp73tm0000gn/T//ccOdjWuU.s 			page 125


 3969 0aef 38000000 		.4byte	.Ldebug_ranges0+0x38
 3970 0af3 03       		.byte	0x3
 3971 0af4 53       		.byte	0x53
 3972 0af5 350B0000 		.4byte	0xb35
 3973 0af9 36       		.uleb128 0x36
 3974 0afa 59090000 		.4byte	0x959
 3975 0afe 06       		.uleb128 0x6
 3976 0aff 03       		.byte	0x3
 3977 0b00 00000000 		.4byte	mb1
 3978 0b04 9F       		.byte	0x9f
 3979 0b05 33       		.uleb128 0x33
 3980 0b06 0D090000 		.4byte	0x90d
 3981 0b0a 0C000000 		.4byte	.LBB365
 3982 0b0e 50000000 		.4byte	.Ldebug_ranges0+0x50
 3983 0b12 05       		.byte	0x5
 3984 0b13 A2       		.byte	0xa2
 3985 0b14 2B0B0000 		.4byte	0xb2b
 3986 0b18 37       		.uleb128 0x37
 3987 0b19 1D090000 		.4byte	0x91d
 3988 0b1d 3C020000 		.4byte	.LLST2
 3989 0b21 2B       		.uleb128 0x2b
 3990 0b22 1E000000 		.4byte	.LVL8
 3991 0b26 901F0000 		.4byte	0x1f90
 3992 0b2a 00       		.byte	0
 3993 0b2b 2B       		.uleb128 0x2b
 3994 0b2c 1A000000 		.4byte	.LVL7
 3995 0b30 901F0000 		.4byte	0x1f90
 3996 0b34 00       		.byte	0
 3997 0b35 33       		.uleb128 0x33
 3998 0b36 87090000 		.4byte	0x987
 3999 0b3a 2E000000 		.4byte	.LBB372
 4000 0b3e 68000000 		.4byte	.Ldebug_ranges0+0x68
 4001 0b42 03       		.byte	0x3
 4002 0b43 53       		.byte	0x53
 4003 0b44 AE0B0000 		.4byte	0xbae
 4004 0b48 38       		.uleb128 0x38
 4005 0b49 68000000 		.4byte	.Ldebug_ranges0+0x68
 4006 0b4d 27       		.uleb128 0x27
 4007 0b4e 94090000 		.4byte	0x994
 4008 0b52 05       		.uleb128 0x5
 4009 0b53 03       		.byte	0x3
 4010 0b54 00000000 		.4byte	__func__.5862
 4011 0b58 28       		.uleb128 0x28
 4012 0b59 37090000 		.4byte	0x937
 4013 0b5d 4A000000 		.4byte	.LBB374
 4014 0b61 06000000 		.4byte	.LBE374-.LBB374
 4015 0b65 01       		.byte	0x1
 4016 0b66 7301     		.2byte	0x173
 4017 0b68 870B0000 		.4byte	0xb87
 4018 0b6c 29       		.uleb128 0x29
 4019 0b6d F3080000 		.4byte	0x8f3
 4020 0b71 4A000000 		.4byte	.LBB375
 4021 0b75 06000000 		.4byte	.LBE375-.LBB375
 4022 0b79 0D       		.byte	0xd
 4023 0b7a CD01     		.2byte	0x1cd
 4024 0b7c 37       		.uleb128 0x37
 4025 0b7d 00090000 		.4byte	0x900
ARM GAS  /var/folders/c6/c789hm653lg9vtl73krp73tm0000gn/T//ccOdjWuU.s 			page 126


 4026 0b81 04030000 		.4byte	.LLST3
 4027 0b85 00       		.byte	0
 4028 0b86 00       		.byte	0
 4029 0b87 2B       		.uleb128 0x2b
 4030 0b88 32000000 		.4byte	.LVL10
 4031 0b8c 471F0000 		.4byte	0x1f47
 4032 0b90 2B       		.uleb128 0x2b
 4033 0b91 36000000 		.4byte	.LVL11
 4034 0b95 4E1F0000 		.4byte	0x1f4e
 4035 0b99 2C       		.uleb128 0x2c
 4036 0b9a 66070000 		.4byte	.LVL225
 4037 0b9e 551F0000 		.4byte	0x1f55
 4038 0ba2 2D       		.uleb128 0x2d
 4039 0ba3 01       		.uleb128 0x1
 4040 0ba4 50       		.byte	0x50
 4041 0ba5 05       		.uleb128 0x5
 4042 0ba6 03       		.byte	0x3
 4043 0ba7 00000000 		.4byte	.LANCHOR0
 4044 0bab 00       		.byte	0
 4045 0bac 00       		.byte	0
 4046 0bad 00       		.byte	0
 4047 0bae 33       		.uleb128 0x33
 4048 0baf 87090000 		.4byte	0x987
 4049 0bb3 60000000 		.4byte	.LBB378
 4050 0bb7 80000000 		.4byte	.Ldebug_ranges0+0x80
 4051 0bbb 03       		.byte	0x3
 4052 0bbc 53       		.byte	0x53
 4053 0bbd 270C0000 		.4byte	0xc27
 4054 0bc1 38       		.uleb128 0x38
 4055 0bc2 80000000 		.4byte	.Ldebug_ranges0+0x80
 4056 0bc6 27       		.uleb128 0x27
 4057 0bc7 94090000 		.4byte	0x994
 4058 0bcb 05       		.uleb128 0x5
 4059 0bcc 03       		.byte	0x3
 4060 0bcd 00000000 		.4byte	__func__.5862
 4061 0bd1 28       		.uleb128 0x28
 4062 0bd2 37090000 		.4byte	0x937
 4063 0bd6 7C000000 		.4byte	.LBB380
 4064 0bda 08000000 		.4byte	.LBE380-.LBB380
 4065 0bde 01       		.byte	0x1
 4066 0bdf 7301     		.2byte	0x173
 4067 0be1 000C0000 		.4byte	0xc00
 4068 0be5 29       		.uleb128 0x29
 4069 0be6 F3080000 		.4byte	0x8f3
 4070 0bea 7C000000 		.4byte	.LBB381
 4071 0bee 08000000 		.4byte	.LBE381-.LBB381
 4072 0bf2 0D       		.byte	0xd
 4073 0bf3 CD01     		.2byte	0x1cd
 4074 0bf5 37       		.uleb128 0x37
 4075 0bf6 00090000 		.4byte	0x900
 4076 0bfa 18030000 		.4byte	.LLST4
 4077 0bfe 00       		.byte	0
 4078 0bff 00       		.byte	0
 4079 0c00 2B       		.uleb128 0x2b
 4080 0c01 66000000 		.4byte	.LVL15
 4081 0c05 471F0000 		.4byte	0x1f47
 4082 0c09 2B       		.uleb128 0x2b
ARM GAS  /var/folders/c6/c789hm653lg9vtl73krp73tm0000gn/T//ccOdjWuU.s 			page 127


 4083 0c0a 6A000000 		.4byte	.LVL16
 4084 0c0e 4E1F0000 		.4byte	0x1f4e
 4085 0c12 2C       		.uleb128 0x2c
 4086 0c13 6E070000 		.4byte	.LVL226
 4087 0c17 551F0000 		.4byte	0x1f55
 4088 0c1b 2D       		.uleb128 0x2d
 4089 0c1c 01       		.uleb128 0x1
 4090 0c1d 50       		.byte	0x50
 4091 0c1e 05       		.uleb128 0x5
 4092 0c1f 03       		.byte	0x3
 4093 0c20 00000000 		.4byte	.LANCHOR0
 4094 0c24 00       		.byte	0
 4095 0c25 00       		.byte	0
 4096 0c26 00       		.byte	0
 4097 0c27 39       		.uleb128 0x39
 4098 0c28 40090000 		.4byte	0x940
 4099 0c2c E2000000 		.4byte	.LBB384
 4100 0c30 0E000000 		.4byte	.LBE384-.LBB384
 4101 0c34 03       		.byte	0x3
 4102 0c35 64       		.byte	0x64
 4103 0c36 7C0C0000 		.4byte	0xc7c
 4104 0c3a 28       		.uleb128 0x28
 4105 0c3b 2E090000 		.4byte	0x92e
 4106 0c3f E2000000 		.4byte	.LBB386
 4107 0c43 06000000 		.4byte	.LBE386-.LBB386
 4108 0c47 01       		.byte	0x1
 4109 0c48 5C01     		.2byte	0x15c
 4110 0c4a 690C0000 		.4byte	0xc69
 4111 0c4e 29       		.uleb128 0x29
 4112 0c4f F3080000 		.4byte	0x8f3
 4113 0c53 E2000000 		.4byte	.LBB387
 4114 0c57 06000000 		.4byte	.LBE387-.LBB387
 4115 0c5b 0D       		.byte	0xd
 4116 0c5c BF01     		.2byte	0x1bf
 4117 0c5e 37       		.uleb128 0x37
 4118 0c5f 00090000 		.4byte	0x900
 4119 0c63 2C030000 		.4byte	.LLST5
 4120 0c67 00       		.byte	0
 4121 0c68 00       		.byte	0
 4122 0c69 2B       		.uleb128 0x2b
 4123 0c6a EC000000 		.4byte	.LVL31
 4124 0c6e 821F0000 		.4byte	0x1f82
 4125 0c72 2B       		.uleb128 0x2b
 4126 0c73 F0000000 		.4byte	.LVL32
 4127 0c77 891F0000 		.4byte	0x1f89
 4128 0c7b 00       		.byte	0
 4129 0c7c 39       		.uleb128 0x39
 4130 0c7d 87090000 		.4byte	0x987
 4131 0c81 FA000000 		.4byte	.LBB389
 4132 0c85 26000000 		.4byte	.LBE389-.LBB389
 4133 0c89 03       		.byte	0x3
 4134 0c8a 66       		.byte	0x66
 4135 0c8b F90C0000 		.4byte	0xcf9
 4136 0c8f 3A       		.uleb128 0x3a
 4137 0c90 FA000000 		.4byte	.LBB390
 4138 0c94 26000000 		.4byte	.LBE390-.LBB390
 4139 0c98 27       		.uleb128 0x27
ARM GAS  /var/folders/c6/c789hm653lg9vtl73krp73tm0000gn/T//ccOdjWuU.s 			page 128


 4140 0c99 94090000 		.4byte	0x994
 4141 0c9d 05       		.uleb128 0x5
 4142 0c9e 03       		.byte	0x3
 4143 0c9f 00000000 		.4byte	__func__.5862
 4144 0ca3 28       		.uleb128 0x28
 4145 0ca4 37090000 		.4byte	0x937
 4146 0ca8 1A010000 		.4byte	.LBB391
 4147 0cac 06000000 		.4byte	.LBE391-.LBB391
 4148 0cb0 01       		.byte	0x1
 4149 0cb1 7301     		.2byte	0x173
 4150 0cb3 D20C0000 		.4byte	0xcd2
 4151 0cb7 29       		.uleb128 0x29
 4152 0cb8 F3080000 		.4byte	0x8f3
 4153 0cbc 1A010000 		.4byte	.LBB392
 4154 0cc0 06000000 		.4byte	.LBE392-.LBB392
 4155 0cc4 0D       		.byte	0xd
 4156 0cc5 CD01     		.2byte	0x1cd
 4157 0cc7 37       		.uleb128 0x37
 4158 0cc8 00090000 		.4byte	0x900
 4159 0ccc 41030000 		.4byte	.LLST6
 4160 0cd0 00       		.byte	0
 4161 0cd1 00       		.byte	0
 4162 0cd2 2B       		.uleb128 0x2b
 4163 0cd3 FE000000 		.4byte	.LVL35
 4164 0cd7 471F0000 		.4byte	0x1f47
 4165 0cdb 2B       		.uleb128 0x2b
 4166 0cdc 02010000 		.4byte	.LVL36
 4167 0ce0 4E1F0000 		.4byte	0x1f4e
 4168 0ce4 2C       		.uleb128 0x2c
 4169 0ce5 1A010000 		.4byte	.LVL37
 4170 0ce9 551F0000 		.4byte	0x1f55
 4171 0ced 2D       		.uleb128 0x2d
 4172 0cee 01       		.uleb128 0x1
 4173 0cef 50       		.byte	0x50
 4174 0cf0 05       		.uleb128 0x5
 4175 0cf1 03       		.byte	0x3
 4176 0cf2 00000000 		.4byte	.LANCHOR0
 4177 0cf6 00       		.byte	0
 4178 0cf7 00       		.byte	0
 4179 0cf8 00       		.byte	0
 4180 0cf9 39       		.uleb128 0x39
 4181 0cfa 40090000 		.4byte	0x940
 4182 0cfe 58010000 		.4byte	.LBB394
 4183 0d02 0E000000 		.4byte	.LBE394-.LBB394
 4184 0d06 03       		.byte	0x3
 4185 0d07 6A       		.byte	0x6a
 4186 0d08 4E0D0000 		.4byte	0xd4e
 4187 0d0c 28       		.uleb128 0x28
 4188 0d0d 2E090000 		.4byte	0x92e
 4189 0d11 58010000 		.4byte	.LBB396
 4190 0d15 06000000 		.4byte	.LBE396-.LBB396
 4191 0d19 01       		.byte	0x1
 4192 0d1a 5C01     		.2byte	0x15c
 4193 0d1c 3B0D0000 		.4byte	0xd3b
 4194 0d20 29       		.uleb128 0x29
 4195 0d21 F3080000 		.4byte	0x8f3
 4196 0d25 58010000 		.4byte	.LBB397
ARM GAS  /var/folders/c6/c789hm653lg9vtl73krp73tm0000gn/T//ccOdjWuU.s 			page 129


 4197 0d29 06000000 		.4byte	.LBE397-.LBB397
 4198 0d2d 0D       		.byte	0xd
 4199 0d2e BF01     		.2byte	0x1bf
 4200 0d30 37       		.uleb128 0x37
 4201 0d31 00090000 		.4byte	0x900
 4202 0d35 55030000 		.4byte	.LLST7
 4203 0d39 00       		.byte	0
 4204 0d3a 00       		.byte	0
 4205 0d3b 2B       		.uleb128 0x2b
 4206 0d3c 62010000 		.4byte	.LVL43
 4207 0d40 821F0000 		.4byte	0x1f82
 4208 0d44 2B       		.uleb128 0x2b
 4209 0d45 66010000 		.4byte	.LVL44
 4210 0d49 891F0000 		.4byte	0x1f89
 4211 0d4d 00       		.byte	0
 4212 0d4e 39       		.uleb128 0x39
 4213 0d4f 87090000 		.4byte	0x987
 4214 0d53 70010000 		.4byte	.LBB399
 4215 0d57 26000000 		.4byte	.LBE399-.LBB399
 4216 0d5b 03       		.byte	0x3
 4217 0d5c 6C       		.byte	0x6c
 4218 0d5d CB0D0000 		.4byte	0xdcb
 4219 0d61 3A       		.uleb128 0x3a
 4220 0d62 70010000 		.4byte	.LBB400
 4221 0d66 26000000 		.4byte	.LBE400-.LBB400
 4222 0d6a 27       		.uleb128 0x27
 4223 0d6b 94090000 		.4byte	0x994
 4224 0d6f 05       		.uleb128 0x5
 4225 0d70 03       		.byte	0x3
 4226 0d71 00000000 		.4byte	__func__.5862
 4227 0d75 28       		.uleb128 0x28
 4228 0d76 37090000 		.4byte	0x937
 4229 0d7a 90010000 		.4byte	.LBB401
 4230 0d7e 06000000 		.4byte	.LBE401-.LBB401
 4231 0d82 01       		.byte	0x1
 4232 0d83 7301     		.2byte	0x173
 4233 0d85 A40D0000 		.4byte	0xda4
 4234 0d89 29       		.uleb128 0x29
 4235 0d8a F3080000 		.4byte	0x8f3
 4236 0d8e 90010000 		.4byte	.LBB402
 4237 0d92 06000000 		.4byte	.LBE402-.LBB402
 4238 0d96 0D       		.byte	0xd
 4239 0d97 CD01     		.2byte	0x1cd
 4240 0d99 37       		.uleb128 0x37
 4241 0d9a 00090000 		.4byte	0x900
 4242 0d9e 6A030000 		.4byte	.LLST8
 4243 0da2 00       		.byte	0
 4244 0da3 00       		.byte	0
 4245 0da4 2B       		.uleb128 0x2b
 4246 0da5 74010000 		.4byte	.LVL47
 4247 0da9 471F0000 		.4byte	0x1f47
 4248 0dad 2B       		.uleb128 0x2b
 4249 0dae 78010000 		.4byte	.LVL48
 4250 0db2 4E1F0000 		.4byte	0x1f4e
 4251 0db6 2C       		.uleb128 0x2c
 4252 0db7 90010000 		.4byte	.LVL49
 4253 0dbb 551F0000 		.4byte	0x1f55
ARM GAS  /var/folders/c6/c789hm653lg9vtl73krp73tm0000gn/T//ccOdjWuU.s 			page 130


 4254 0dbf 2D       		.uleb128 0x2d
 4255 0dc0 01       		.uleb128 0x1
 4256 0dc1 50       		.byte	0x50
 4257 0dc2 05       		.uleb128 0x5
 4258 0dc3 03       		.byte	0x3
 4259 0dc4 00000000 		.4byte	.LANCHOR0
 4260 0dc8 00       		.byte	0
 4261 0dc9 00       		.byte	0
 4262 0dca 00       		.byte	0
 4263 0dcb 39       		.uleb128 0x39
 4264 0dcc 40090000 		.4byte	0x940
 4265 0dd0 AE010000 		.4byte	.LBB404
 4266 0dd4 0E000000 		.4byte	.LBE404-.LBB404
 4267 0dd8 03       		.byte	0x3
 4268 0dd9 72       		.byte	0x72
 4269 0dda 200E0000 		.4byte	0xe20
 4270 0dde 28       		.uleb128 0x28
 4271 0ddf 2E090000 		.4byte	0x92e
 4272 0de3 AE010000 		.4byte	.LBB406
 4273 0de7 06000000 		.4byte	.LBE406-.LBB406
 4274 0deb 01       		.byte	0x1
 4275 0dec 5C01     		.2byte	0x15c
 4276 0dee 0D0E0000 		.4byte	0xe0d
 4277 0df2 29       		.uleb128 0x29
 4278 0df3 F3080000 		.4byte	0x8f3
 4279 0df7 AE010000 		.4byte	.LBB407
 4280 0dfb 06000000 		.4byte	.LBE407-.LBB407
 4281 0dff 0D       		.byte	0xd
 4282 0e00 BF01     		.2byte	0x1bf
 4283 0e02 37       		.uleb128 0x37
 4284 0e03 00090000 		.4byte	0x900
 4285 0e07 7E030000 		.4byte	.LLST9
 4286 0e0b 00       		.byte	0
 4287 0e0c 00       		.byte	0
 4288 0e0d 2B       		.uleb128 0x2b
 4289 0e0e B8010000 		.4byte	.LVL52
 4290 0e12 821F0000 		.4byte	0x1f82
 4291 0e16 2B       		.uleb128 0x2b
 4292 0e17 BC010000 		.4byte	.LVL53
 4293 0e1b 891F0000 		.4byte	0x1f89
 4294 0e1f 00       		.byte	0
 4295 0e20 33       		.uleb128 0x33
 4296 0e21 49090000 		.4byte	0x949
 4297 0e25 BC010000 		.4byte	.LBB409
 4298 0e29 98000000 		.4byte	.Ldebug_ranges0+0x98
 4299 0e2d 03       		.byte	0x3
 4300 0e2e 72       		.byte	0x72
 4301 0e2f 6C0E0000 		.4byte	0xe6c
 4302 0e33 37       		.uleb128 0x37
 4303 0e34 59090000 		.4byte	0x959
 4304 0e38 93030000 		.4byte	.LLST10
 4305 0e3c 33       		.uleb128 0x33
 4306 0e3d 0D090000 		.4byte	0x90d
 4307 0e41 C0010000 		.4byte	.LBB411
 4308 0e45 B0000000 		.4byte	.Ldebug_ranges0+0xb0
 4309 0e49 05       		.byte	0x5
 4310 0e4a A2       		.byte	0xa2
ARM GAS  /var/folders/c6/c789hm653lg9vtl73krp73tm0000gn/T//ccOdjWuU.s 			page 131


 4311 0e4b 620E0000 		.4byte	0xe62
 4312 0e4f 37       		.uleb128 0x37
 4313 0e50 1D090000 		.4byte	0x91d
 4314 0e54 AB030000 		.4byte	.LLST11
 4315 0e58 2B       		.uleb128 0x2b
 4316 0e59 C4010000 		.4byte	.LVL55
 4317 0e5d 901F0000 		.4byte	0x1f90
 4318 0e61 00       		.byte	0
 4319 0e62 2B       		.uleb128 0x2b
 4320 0e63 C0010000 		.4byte	.LVL54
 4321 0e67 901F0000 		.4byte	0x1f90
 4322 0e6b 00       		.byte	0
 4323 0e6c 39       		.uleb128 0x39
 4324 0e6d 40090000 		.4byte	0x940
 4325 0e71 E0010000 		.4byte	.LBB417
 4326 0e75 0C000000 		.4byte	.LBE417-.LBB417
 4327 0e79 03       		.byte	0x3
 4328 0e7a 73       		.byte	0x73
 4329 0e7b C10E0000 		.4byte	0xec1
 4330 0e7f 28       		.uleb128 0x28
 4331 0e80 2E090000 		.4byte	0x92e
 4332 0e84 E0010000 		.4byte	.LBB419
 4333 0e88 04000000 		.4byte	.LBE419-.LBB419
 4334 0e8c 01       		.byte	0x1
 4335 0e8d 5C01     		.2byte	0x15c
 4336 0e8f AE0E0000 		.4byte	0xeae
 4337 0e93 29       		.uleb128 0x29
 4338 0e94 F3080000 		.4byte	0x8f3
 4339 0e98 E0010000 		.4byte	.LBB420
 4340 0e9c 04000000 		.4byte	.LBE420-.LBB420
 4341 0ea0 0D       		.byte	0xd
 4342 0ea1 BF01     		.2byte	0x1bf
 4343 0ea3 37       		.uleb128 0x37
 4344 0ea4 00090000 		.4byte	0x900
 4345 0ea8 53040000 		.4byte	.LLST12
 4346 0eac 00       		.byte	0
 4347 0ead 00       		.byte	0
 4348 0eae 2B       		.uleb128 0x2b
 4349 0eaf E8010000 		.4byte	.LVL59
 4350 0eb3 821F0000 		.4byte	0x1f82
 4351 0eb7 2B       		.uleb128 0x2b
 4352 0eb8 EC010000 		.4byte	.LVL60
 4353 0ebc 891F0000 		.4byte	0x1f89
 4354 0ec0 00       		.byte	0
 4355 0ec1 39       		.uleb128 0x39
 4356 0ec2 6B090000 		.4byte	0x96b
 4357 0ec6 EC010000 		.4byte	.LBB422
 4358 0eca 08000000 		.4byte	.LBE422-.LBB422
 4359 0ece 03       		.byte	0x3
 4360 0ecf 73       		.byte	0x73
 4361 0ed0 0D0F0000 		.4byte	0xf0d
 4362 0ed4 37       		.uleb128 0x37
 4363 0ed5 7B090000 		.4byte	0x97b
 4364 0ed9 68040000 		.4byte	.LLST13
 4365 0edd 39       		.uleb128 0x39
 4366 0ede 0D090000 		.4byte	0x90d
 4367 0ee2 F0010000 		.4byte	.LBB424
ARM GAS  /var/folders/c6/c789hm653lg9vtl73krp73tm0000gn/T//ccOdjWuU.s 			page 132


 4368 0ee6 04000000 		.4byte	.LBE424-.LBB424
 4369 0eea 05       		.byte	0x5
 4370 0eeb B5       		.byte	0xb5
 4371 0eec 030F0000 		.4byte	0xf03
 4372 0ef0 37       		.uleb128 0x37
 4373 0ef1 1D090000 		.4byte	0x91d
 4374 0ef5 80040000 		.4byte	.LLST14
 4375 0ef9 2B       		.uleb128 0x2b
 4376 0efa F4010000 		.4byte	.LVL62
 4377 0efe 901F0000 		.4byte	0x1f90
 4378 0f02 00       		.byte	0
 4379 0f03 2B       		.uleb128 0x2b
 4380 0f04 F0010000 		.4byte	.LVL61
 4381 0f08 901F0000 		.4byte	0x1f90
 4382 0f0c 00       		.byte	0
 4383 0f0d 39       		.uleb128 0x39
 4384 0f0e 40090000 		.4byte	0x940
 4385 0f12 0C020000 		.4byte	.LBB426
 4386 0f16 0C000000 		.4byte	.LBE426-.LBB426
 4387 0f1a 03       		.byte	0x3
 4388 0f1b 74       		.byte	0x74
 4389 0f1c 620F0000 		.4byte	0xf62
 4390 0f20 28       		.uleb128 0x28
 4391 0f21 2E090000 		.4byte	0x92e
 4392 0f25 0C020000 		.4byte	.LBB428
 4393 0f29 04000000 		.4byte	.LBE428-.LBB428
 4394 0f2d 01       		.byte	0x1
 4395 0f2e 5C01     		.2byte	0x15c
 4396 0f30 4F0F0000 		.4byte	0xf4f
 4397 0f34 29       		.uleb128 0x29
 4398 0f35 F3080000 		.4byte	0x8f3
 4399 0f39 0C020000 		.4byte	.LBB429
 4400 0f3d 04000000 		.4byte	.LBE429-.LBB429
 4401 0f41 0D       		.byte	0xd
 4402 0f42 BF01     		.2byte	0x1bf
 4403 0f44 37       		.uleb128 0x37
 4404 0f45 00090000 		.4byte	0x900
 4405 0f49 18050000 		.4byte	.LLST15
 4406 0f4d 00       		.byte	0
 4407 0f4e 00       		.byte	0
 4408 0f4f 2B       		.uleb128 0x2b
 4409 0f50 14020000 		.4byte	.LVL65
 4410 0f54 821F0000 		.4byte	0x1f82
 4411 0f58 2B       		.uleb128 0x2b
 4412 0f59 18020000 		.4byte	.LVL66
 4413 0f5d 891F0000 		.4byte	0x1f89
 4414 0f61 00       		.byte	0
 4415 0f62 39       		.uleb128 0x39
 4416 0f63 40090000 		.4byte	0x940
 4417 0f67 04030000 		.4byte	.LBB431
 4418 0f6b 0E000000 		.4byte	.LBE431-.LBB431
 4419 0f6f 03       		.byte	0x3
 4420 0f70 8F       		.byte	0x8f
 4421 0f71 B70F0000 		.4byte	0xfb7
 4422 0f75 28       		.uleb128 0x28
 4423 0f76 2E090000 		.4byte	0x92e
 4424 0f7a 04030000 		.4byte	.LBB433
ARM GAS  /var/folders/c6/c789hm653lg9vtl73krp73tm0000gn/T//ccOdjWuU.s 			page 133


 4425 0f7e 06000000 		.4byte	.LBE433-.LBB433
 4426 0f82 01       		.byte	0x1
 4427 0f83 5C01     		.2byte	0x15c
 4428 0f85 A40F0000 		.4byte	0xfa4
 4429 0f89 29       		.uleb128 0x29
 4430 0f8a F3080000 		.4byte	0x8f3
 4431 0f8e 04030000 		.4byte	.LBB434
 4432 0f92 06000000 		.4byte	.LBE434-.LBB434
 4433 0f96 0D       		.byte	0xd
 4434 0f97 BF01     		.2byte	0x1bf
 4435 0f99 37       		.uleb128 0x37
 4436 0f9a 00090000 		.4byte	0x900
 4437 0f9e 2D050000 		.4byte	.LLST16
 4438 0fa2 00       		.byte	0
 4439 0fa3 00       		.byte	0
 4440 0fa4 2B       		.uleb128 0x2b
 4441 0fa5 0E030000 		.4byte	.LVL89
 4442 0fa9 821F0000 		.4byte	0x1f82
 4443 0fad 2B       		.uleb128 0x2b
 4444 0fae 12030000 		.4byte	.LVL90
 4445 0fb2 891F0000 		.4byte	0x1f89
 4446 0fb6 00       		.byte	0
 4447 0fb7 39       		.uleb128 0x39
 4448 0fb8 40090000 		.4byte	0x940
 4449 0fbc 38030000 		.4byte	.LBB436
 4450 0fc0 0C000000 		.4byte	.LBE436-.LBB436
 4451 0fc4 03       		.byte	0x3
 4452 0fc5 97       		.byte	0x97
 4453 0fc6 0C100000 		.4byte	0x100c
 4454 0fca 28       		.uleb128 0x28
 4455 0fcb 2E090000 		.4byte	0x92e
 4456 0fcf 38030000 		.4byte	.LBB438
 4457 0fd3 04000000 		.4byte	.LBE438-.LBB438
 4458 0fd7 01       		.byte	0x1
 4459 0fd8 5C01     		.2byte	0x15c
 4460 0fda F90F0000 		.4byte	0xff9
 4461 0fde 29       		.uleb128 0x29
 4462 0fdf F3080000 		.4byte	0x8f3
 4463 0fe3 38030000 		.4byte	.LBB439
 4464 0fe7 04000000 		.4byte	.LBE439-.LBB439
 4465 0feb 0D       		.byte	0xd
 4466 0fec BF01     		.2byte	0x1bf
 4467 0fee 37       		.uleb128 0x37
 4468 0fef 00090000 		.4byte	0x900
 4469 0ff3 42050000 		.4byte	.LLST17
 4470 0ff7 00       		.byte	0
 4471 0ff8 00       		.byte	0
 4472 0ff9 2B       		.uleb128 0x2b
 4473 0ffa 40030000 		.4byte	.LVL96
 4474 0ffe 821F0000 		.4byte	0x1f82
 4475 1002 2B       		.uleb128 0x2b
 4476 1003 44030000 		.4byte	.LVL97
 4477 1007 891F0000 		.4byte	0x1f89
 4478 100b 00       		.byte	0
 4479 100c 39       		.uleb128 0x39
 4480 100d 49090000 		.4byte	0x949
 4481 1011 44030000 		.4byte	.LBB441
ARM GAS  /var/folders/c6/c789hm653lg9vtl73krp73tm0000gn/T//ccOdjWuU.s 			page 134


 4482 1015 08000000 		.4byte	.LBE441-.LBB441
 4483 1019 03       		.byte	0x3
 4484 101a 97       		.byte	0x97
 4485 101b 58100000 		.4byte	0x1058
 4486 101f 37       		.uleb128 0x37
 4487 1020 59090000 		.4byte	0x959
 4488 1024 57050000 		.4byte	.LLST18
 4489 1028 39       		.uleb128 0x39
 4490 1029 0D090000 		.4byte	0x90d
 4491 102d 48030000 		.4byte	.LBB443
 4492 1031 04000000 		.4byte	.LBE443-.LBB443
 4493 1035 05       		.byte	0x5
 4494 1036 A2       		.byte	0xa2
 4495 1037 4E100000 		.4byte	0x104e
 4496 103b 37       		.uleb128 0x37
 4497 103c 1D090000 		.4byte	0x91d
 4498 1040 6F050000 		.4byte	.LLST19
 4499 1044 2B       		.uleb128 0x2b
 4500 1045 4C030000 		.4byte	.LVL99
 4501 1049 901F0000 		.4byte	0x1f90
 4502 104d 00       		.byte	0
 4503 104e 2B       		.uleb128 0x2b
 4504 104f 48030000 		.4byte	.LVL98
 4505 1053 901F0000 		.4byte	0x1f90
 4506 1057 00       		.byte	0
 4507 1058 39       		.uleb128 0x39
 4508 1059 40090000 		.4byte	0x940
 4509 105d 64030000 		.4byte	.LBB445
 4510 1061 0C000000 		.4byte	.LBE445-.LBB445
 4511 1065 03       		.byte	0x3
 4512 1066 98       		.byte	0x98
 4513 1067 AD100000 		.4byte	0x10ad
 4514 106b 28       		.uleb128 0x28
 4515 106c 2E090000 		.4byte	0x92e
 4516 1070 64030000 		.4byte	.LBB447
 4517 1074 04000000 		.4byte	.LBE447-.LBB447
 4518 1078 01       		.byte	0x1
 4519 1079 5C01     		.2byte	0x15c
 4520 107b 9A100000 		.4byte	0x109a
 4521 107f 29       		.uleb128 0x29
 4522 1080 F3080000 		.4byte	0x8f3
 4523 1084 64030000 		.4byte	.LBB448
 4524 1088 04000000 		.4byte	.LBE448-.LBB448
 4525 108c 0D       		.byte	0xd
 4526 108d BF01     		.2byte	0x1bf
 4527 108f 37       		.uleb128 0x37
 4528 1090 00090000 		.4byte	0x900
 4529 1094 F7050000 		.4byte	.LLST20
 4530 1098 00       		.byte	0
 4531 1099 00       		.byte	0
 4532 109a 2B       		.uleb128 0x2b
 4533 109b 6C030000 		.4byte	.LVL103
 4534 109f 821F0000 		.4byte	0x1f82
 4535 10a3 2B       		.uleb128 0x2b
 4536 10a4 70030000 		.4byte	.LVL104
 4537 10a8 891F0000 		.4byte	0x1f89
 4538 10ac 00       		.byte	0
ARM GAS  /var/folders/c6/c789hm653lg9vtl73krp73tm0000gn/T//ccOdjWuU.s 			page 135


 4539 10ad 39       		.uleb128 0x39
 4540 10ae 6B090000 		.4byte	0x96b
 4541 10b2 70030000 		.4byte	.LBB450
 4542 10b6 08000000 		.4byte	.LBE450-.LBB450
 4543 10ba 03       		.byte	0x3
 4544 10bb 98       		.byte	0x98
 4545 10bc F9100000 		.4byte	0x10f9
 4546 10c0 37       		.uleb128 0x37
 4547 10c1 7B090000 		.4byte	0x97b
 4548 10c5 0C060000 		.4byte	.LLST21
 4549 10c9 39       		.uleb128 0x39
 4550 10ca 0D090000 		.4byte	0x90d
 4551 10ce 74030000 		.4byte	.LBB452
 4552 10d2 04000000 		.4byte	.LBE452-.LBB452
 4553 10d6 05       		.byte	0x5
 4554 10d7 B5       		.byte	0xb5
 4555 10d8 EF100000 		.4byte	0x10ef
 4556 10dc 37       		.uleb128 0x37
 4557 10dd 1D090000 		.4byte	0x91d
 4558 10e1 24060000 		.4byte	.LLST22
 4559 10e5 2B       		.uleb128 0x2b
 4560 10e6 78030000 		.4byte	.LVL106
 4561 10ea 901F0000 		.4byte	0x1f90
 4562 10ee 00       		.byte	0
 4563 10ef 2B       		.uleb128 0x2b
 4564 10f0 74030000 		.4byte	.LVL105
 4565 10f4 901F0000 		.4byte	0x1f90
 4566 10f8 00       		.byte	0
 4567 10f9 39       		.uleb128 0x39
 4568 10fa 40090000 		.4byte	0x940
 4569 10fe A4030000 		.4byte	.LBB454
 4570 1102 0C000000 		.4byte	.LBE454-.LBB454
 4571 1106 03       		.byte	0x3
 4572 1107 99       		.byte	0x99
 4573 1108 4E110000 		.4byte	0x114e
 4574 110c 28       		.uleb128 0x28
 4575 110d 2E090000 		.4byte	0x92e
 4576 1111 A4030000 		.4byte	.LBB456
 4577 1115 04000000 		.4byte	.LBE456-.LBB456
 4578 1119 01       		.byte	0x1
 4579 111a 5C01     		.2byte	0x15c
 4580 111c 3B110000 		.4byte	0x113b
 4581 1120 29       		.uleb128 0x29
 4582 1121 F3080000 		.4byte	0x8f3
 4583 1125 A4030000 		.4byte	.LBB457
 4584 1129 04000000 		.4byte	.LBE457-.LBB457
 4585 112d 0D       		.byte	0xd
 4586 112e BF01     		.2byte	0x1bf
 4587 1130 37       		.uleb128 0x37
 4588 1131 00090000 		.4byte	0x900
 4589 1135 9C060000 		.4byte	.LLST23
 4590 1139 00       		.byte	0
 4591 113a 00       		.byte	0
 4592 113b 2B       		.uleb128 0x2b
 4593 113c AC030000 		.4byte	.LVL109
 4594 1140 821F0000 		.4byte	0x1f82
 4595 1144 2B       		.uleb128 0x2b
ARM GAS  /var/folders/c6/c789hm653lg9vtl73krp73tm0000gn/T//ccOdjWuU.s 			page 136


 4596 1145 B0030000 		.4byte	.LVL110
 4597 1149 891F0000 		.4byte	0x1f89
 4598 114d 00       		.byte	0
 4599 114e 39       		.uleb128 0x39
 4600 114f 40090000 		.4byte	0x940
 4601 1153 CA030000 		.4byte	.LBB459
 4602 1157 0C000000 		.4byte	.LBE459-.LBB459
 4603 115b 03       		.byte	0x3
 4604 115c 9E       		.byte	0x9e
 4605 115d A3110000 		.4byte	0x11a3
 4606 1161 28       		.uleb128 0x28
 4607 1162 2E090000 		.4byte	0x92e
 4608 1166 CA030000 		.4byte	.LBB461
 4609 116a 04000000 		.4byte	.LBE461-.LBB461
 4610 116e 01       		.byte	0x1
 4611 116f 5C01     		.2byte	0x15c
 4612 1171 90110000 		.4byte	0x1190
 4613 1175 29       		.uleb128 0x29
 4614 1176 F3080000 		.4byte	0x8f3
 4615 117a CA030000 		.4byte	.LBB462
 4616 117e 04000000 		.4byte	.LBE462-.LBB462
 4617 1182 0D       		.byte	0xd
 4618 1183 BF01     		.2byte	0x1bf
 4619 1185 37       		.uleb128 0x37
 4620 1186 00090000 		.4byte	0x900
 4621 118a B1060000 		.4byte	.LLST24
 4622 118e 00       		.byte	0
 4623 118f 00       		.byte	0
 4624 1190 2B       		.uleb128 0x2b
 4625 1191 D2030000 		.4byte	.LVL113
 4626 1195 821F0000 		.4byte	0x1f82
 4627 1199 2B       		.uleb128 0x2b
 4628 119a D6030000 		.4byte	.LVL114
 4629 119e 891F0000 		.4byte	0x1f89
 4630 11a2 00       		.byte	0
 4631 11a3 33       		.uleb128 0x33
 4632 11a4 40090000 		.4byte	0x940
 4633 11a8 7E040000 		.4byte	.LBB464
 4634 11ac C8000000 		.4byte	.Ldebug_ranges0+0xc8
 4635 11b0 03       		.byte	0x3
 4636 11b1 AC       		.byte	0xac
 4637 11b2 F8110000 		.4byte	0x11f8
 4638 11b6 34       		.uleb128 0x34
 4639 11b7 2E090000 		.4byte	0x92e
 4640 11bb 7E040000 		.4byte	.LBB466
 4641 11bf E8000000 		.4byte	.Ldebug_ranges0+0xe8
 4642 11c3 01       		.byte	0x1
 4643 11c4 5C01     		.2byte	0x15c
 4644 11c6 E5110000 		.4byte	0x11e5
 4645 11ca 35       		.uleb128 0x35
 4646 11cb F3080000 		.4byte	0x8f3
 4647 11cf 7E040000 		.4byte	.LBB467
 4648 11d3 E8000000 		.4byte	.Ldebug_ranges0+0xe8
 4649 11d7 0D       		.byte	0xd
 4650 11d8 BF01     		.2byte	0x1bf
 4651 11da 37       		.uleb128 0x37
 4652 11db 00090000 		.4byte	0x900
ARM GAS  /var/folders/c6/c789hm653lg9vtl73krp73tm0000gn/T//ccOdjWuU.s 			page 137


 4653 11df C6060000 		.4byte	.LLST25
 4654 11e3 00       		.byte	0
 4655 11e4 00       		.byte	0
 4656 11e5 2B       		.uleb128 0x2b
 4657 11e6 8E040000 		.4byte	.LVL133
 4658 11ea 821F0000 		.4byte	0x1f82
 4659 11ee 2B       		.uleb128 0x2b
 4660 11ef 92040000 		.4byte	.LVL134
 4661 11f3 891F0000 		.4byte	0x1f89
 4662 11f7 00       		.byte	0
 4663 11f8 39       		.uleb128 0x39
 4664 11f9 40090000 		.4byte	0x940
 4665 11fd CE040000 		.4byte	.LBB476
 4666 1201 0C000000 		.4byte	.LBE476-.LBB476
 4667 1205 03       		.byte	0x3
 4668 1206 B3       		.byte	0xb3
 4669 1207 4D120000 		.4byte	0x124d
 4670 120b 28       		.uleb128 0x28
 4671 120c 2E090000 		.4byte	0x92e
 4672 1210 CE040000 		.4byte	.LBB478
 4673 1214 04000000 		.4byte	.LBE478-.LBB478
 4674 1218 01       		.byte	0x1
 4675 1219 5C01     		.2byte	0x15c
 4676 121b 3A120000 		.4byte	0x123a
 4677 121f 29       		.uleb128 0x29
 4678 1220 F3080000 		.4byte	0x8f3
 4679 1224 CE040000 		.4byte	.LBB479
 4680 1228 04000000 		.4byte	.LBE479-.LBB479
 4681 122c 0D       		.byte	0xd
 4682 122d BF01     		.2byte	0x1bf
 4683 122f 37       		.uleb128 0x37
 4684 1230 00090000 		.4byte	0x900
 4685 1234 DB060000 		.4byte	.LLST26
 4686 1238 00       		.byte	0
 4687 1239 00       		.byte	0
 4688 123a 2B       		.uleb128 0x2b
 4689 123b D6040000 		.4byte	.LVL143
 4690 123f 821F0000 		.4byte	0x1f82
 4691 1243 2B       		.uleb128 0x2b
 4692 1244 DA040000 		.4byte	.LVL144
 4693 1248 891F0000 		.4byte	0x1f89
 4694 124c 00       		.byte	0
 4695 124d 39       		.uleb128 0x39
 4696 124e 49090000 		.4byte	0x949
 4697 1252 DA040000 		.4byte	.LBB481
 4698 1256 08000000 		.4byte	.LBE481-.LBB481
 4699 125a 03       		.byte	0x3
 4700 125b B3       		.byte	0xb3
 4701 125c 99120000 		.4byte	0x1299
 4702 1260 37       		.uleb128 0x37
 4703 1261 59090000 		.4byte	0x959
 4704 1265 F0060000 		.4byte	.LLST27
 4705 1269 39       		.uleb128 0x39
 4706 126a 0D090000 		.4byte	0x90d
 4707 126e DE040000 		.4byte	.LBB483
 4708 1272 04000000 		.4byte	.LBE483-.LBB483
 4709 1276 05       		.byte	0x5
ARM GAS  /var/folders/c6/c789hm653lg9vtl73krp73tm0000gn/T//ccOdjWuU.s 			page 138


 4710 1277 A2       		.byte	0xa2
 4711 1278 8F120000 		.4byte	0x128f
 4712 127c 37       		.uleb128 0x37
 4713 127d 1D090000 		.4byte	0x91d
 4714 1281 08070000 		.4byte	.LLST28
 4715 1285 2B       		.uleb128 0x2b
 4716 1286 E2040000 		.4byte	.LVL146
 4717 128a 901F0000 		.4byte	0x1f90
 4718 128e 00       		.byte	0
 4719 128f 2B       		.uleb128 0x2b
 4720 1290 DE040000 		.4byte	.LVL145
 4721 1294 901F0000 		.4byte	0x1f90
 4722 1298 00       		.byte	0
 4723 1299 39       		.uleb128 0x39
 4724 129a 40090000 		.4byte	0x940
 4725 129e FA040000 		.4byte	.LBB485
 4726 12a2 0C000000 		.4byte	.LBE485-.LBB485
 4727 12a6 03       		.byte	0x3
 4728 12a7 B4       		.byte	0xb4
 4729 12a8 EE120000 		.4byte	0x12ee
 4730 12ac 28       		.uleb128 0x28
 4731 12ad 2E090000 		.4byte	0x92e
 4732 12b1 FA040000 		.4byte	.LBB487
 4733 12b5 04000000 		.4byte	.LBE487-.LBB487
 4734 12b9 01       		.byte	0x1
 4735 12ba 5C01     		.2byte	0x15c
 4736 12bc DB120000 		.4byte	0x12db
 4737 12c0 29       		.uleb128 0x29
 4738 12c1 F3080000 		.4byte	0x8f3
 4739 12c5 FA040000 		.4byte	.LBB488
 4740 12c9 04000000 		.4byte	.LBE488-.LBB488
 4741 12cd 0D       		.byte	0xd
 4742 12ce BF01     		.2byte	0x1bf
 4743 12d0 37       		.uleb128 0x37
 4744 12d1 00090000 		.4byte	0x900
 4745 12d5 70070000 		.4byte	.LLST29
 4746 12d9 00       		.byte	0
 4747 12da 00       		.byte	0
 4748 12db 2B       		.uleb128 0x2b
 4749 12dc 02050000 		.4byte	.LVL149
 4750 12e0 821F0000 		.4byte	0x1f82
 4751 12e4 2B       		.uleb128 0x2b
 4752 12e5 06050000 		.4byte	.LVL150
 4753 12e9 891F0000 		.4byte	0x1f89
 4754 12ed 00       		.byte	0
 4755 12ee 39       		.uleb128 0x39
 4756 12ef 6B090000 		.4byte	0x96b
 4757 12f3 06050000 		.4byte	.LBB490
 4758 12f7 08000000 		.4byte	.LBE490-.LBB490
 4759 12fb 03       		.byte	0x3
 4760 12fc B4       		.byte	0xb4
 4761 12fd 3A130000 		.4byte	0x133a
 4762 1301 37       		.uleb128 0x37
 4763 1302 7B090000 		.4byte	0x97b
 4764 1306 85070000 		.4byte	.LLST30
 4765 130a 39       		.uleb128 0x39
 4766 130b 0D090000 		.4byte	0x90d
ARM GAS  /var/folders/c6/c789hm653lg9vtl73krp73tm0000gn/T//ccOdjWuU.s 			page 139


 4767 130f 0A050000 		.4byte	.LBB492
 4768 1313 04000000 		.4byte	.LBE492-.LBB492
 4769 1317 05       		.byte	0x5
 4770 1318 B5       		.byte	0xb5
 4771 1319 30130000 		.4byte	0x1330
 4772 131d 37       		.uleb128 0x37
 4773 131e 1D090000 		.4byte	0x91d
 4774 1322 9D070000 		.4byte	.LLST31
 4775 1326 2B       		.uleb128 0x2b
 4776 1327 0E050000 		.4byte	.LVL152
 4777 132b 901F0000 		.4byte	0x1f90
 4778 132f 00       		.byte	0
 4779 1330 2B       		.uleb128 0x2b
 4780 1331 0A050000 		.4byte	.LVL151
 4781 1335 901F0000 		.4byte	0x1f90
 4782 1339 00       		.byte	0
 4783 133a 39       		.uleb128 0x39
 4784 133b 40090000 		.4byte	0x940
 4785 133f 44050000 		.4byte	.LBB494
 4786 1343 0C000000 		.4byte	.LBE494-.LBB494
 4787 1347 03       		.byte	0x3
 4788 1348 B7       		.byte	0xb7
 4789 1349 8F130000 		.4byte	0x138f
 4790 134d 28       		.uleb128 0x28
 4791 134e 2E090000 		.4byte	0x92e
 4792 1352 44050000 		.4byte	.LBB496
 4793 1356 04000000 		.4byte	.LBE496-.LBB496
 4794 135a 01       		.byte	0x1
 4795 135b 5C01     		.2byte	0x15c
 4796 135d 7C130000 		.4byte	0x137c
 4797 1361 29       		.uleb128 0x29
 4798 1362 F3080000 		.4byte	0x8f3
 4799 1366 44050000 		.4byte	.LBB497
 4800 136a 04000000 		.4byte	.LBE497-.LBB497
 4801 136e 0D       		.byte	0xd
 4802 136f BF01     		.2byte	0x1bf
 4803 1371 37       		.uleb128 0x37
 4804 1372 00090000 		.4byte	0x900
 4805 1376 F5070000 		.4byte	.LLST32
 4806 137a 00       		.byte	0
 4807 137b 00       		.byte	0
 4808 137c 2B       		.uleb128 0x2b
 4809 137d 4C050000 		.4byte	.LVL158
 4810 1381 821F0000 		.4byte	0x1f82
 4811 1385 2B       		.uleb128 0x2b
 4812 1386 50050000 		.4byte	.LVL159
 4813 138a 891F0000 		.4byte	0x1f89
 4814 138e 00       		.byte	0
 4815 138f 33       		.uleb128 0x33
 4816 1390 40090000 		.4byte	0x940
 4817 1394 00060000 		.4byte	.LBB499
 4818 1398 00010000 		.4byte	.Ldebug_ranges0+0x100
 4819 139c 03       		.byte	0x3
 4820 139d C5       		.byte	0xc5
 4821 139e E4130000 		.4byte	0x13e4
 4822 13a2 28       		.uleb128 0x28
 4823 13a3 2E090000 		.4byte	0x92e
ARM GAS  /var/folders/c6/c789hm653lg9vtl73krp73tm0000gn/T//ccOdjWuU.s 			page 140


 4824 13a7 00060000 		.4byte	.LBB501
 4825 13ab 08000000 		.4byte	.LBE501-.LBB501
 4826 13af 01       		.byte	0x1
 4827 13b0 5C01     		.2byte	0x15c
 4828 13b2 D1130000 		.4byte	0x13d1
 4829 13b6 29       		.uleb128 0x29
 4830 13b7 F3080000 		.4byte	0x8f3
 4831 13bb 00060000 		.4byte	.LBB502
 4832 13bf 08000000 		.4byte	.LBE502-.LBB502
 4833 13c3 0D       		.byte	0xd
 4834 13c4 BF01     		.2byte	0x1bf
 4835 13c6 37       		.uleb128 0x37
 4836 13c7 00090000 		.4byte	0x900
 4837 13cb 0A080000 		.4byte	.LLST33
 4838 13cf 00       		.byte	0
 4839 13d0 00       		.byte	0
 4840 13d1 2B       		.uleb128 0x2b
 4841 13d2 0E060000 		.4byte	.LVL179
 4842 13d6 821F0000 		.4byte	0x1f82
 4843 13da 2B       		.uleb128 0x2b
 4844 13db 12060000 		.4byte	.LVL180
 4845 13df 891F0000 		.4byte	0x1f89
 4846 13e3 00       		.byte	0
 4847 13e4 39       		.uleb128 0x39
 4848 13e5 40090000 		.4byte	0x940
 4849 13e9 4E060000 		.4byte	.LBB506
 4850 13ed 0C000000 		.4byte	.LBE506-.LBB506
 4851 13f1 03       		.byte	0x3
 4852 13f2 CC       		.byte	0xcc
 4853 13f3 39140000 		.4byte	0x1439
 4854 13f7 28       		.uleb128 0x28
 4855 13f8 2E090000 		.4byte	0x92e
 4856 13fc 4E060000 		.4byte	.LBB508
 4857 1400 04000000 		.4byte	.LBE508-.LBB508
 4858 1404 01       		.byte	0x1
 4859 1405 5C01     		.2byte	0x15c
 4860 1407 26140000 		.4byte	0x1426
 4861 140b 29       		.uleb128 0x29
 4862 140c F3080000 		.4byte	0x8f3
 4863 1410 4E060000 		.4byte	.LBB509
 4864 1414 04000000 		.4byte	.LBE509-.LBB509
 4865 1418 0D       		.byte	0xd
 4866 1419 BF01     		.2byte	0x1bf
 4867 141b 37       		.uleb128 0x37
 4868 141c 00090000 		.4byte	0x900
 4869 1420 1F080000 		.4byte	.LLST34
 4870 1424 00       		.byte	0
 4871 1425 00       		.byte	0
 4872 1426 2B       		.uleb128 0x2b
 4873 1427 56060000 		.4byte	.LVL189
 4874 142b 821F0000 		.4byte	0x1f82
 4875 142f 2B       		.uleb128 0x2b
 4876 1430 5A060000 		.4byte	.LVL190
 4877 1434 891F0000 		.4byte	0x1f89
 4878 1438 00       		.byte	0
 4879 1439 39       		.uleb128 0x39
 4880 143a 49090000 		.4byte	0x949
ARM GAS  /var/folders/c6/c789hm653lg9vtl73krp73tm0000gn/T//ccOdjWuU.s 			page 141


 4881 143e 5A060000 		.4byte	.LBB511
 4882 1442 08000000 		.4byte	.LBE511-.LBB511
 4883 1446 03       		.byte	0x3
 4884 1447 CC       		.byte	0xcc
 4885 1448 85140000 		.4byte	0x1485
 4886 144c 37       		.uleb128 0x37
 4887 144d 59090000 		.4byte	0x959
 4888 1451 34080000 		.4byte	.LLST35
 4889 1455 39       		.uleb128 0x39
 4890 1456 0D090000 		.4byte	0x90d
 4891 145a 5E060000 		.4byte	.LBB513
 4892 145e 04000000 		.4byte	.LBE513-.LBB513
 4893 1462 05       		.byte	0x5
 4894 1463 A2       		.byte	0xa2
 4895 1464 7B140000 		.4byte	0x147b
 4896 1468 37       		.uleb128 0x37
 4897 1469 1D090000 		.4byte	0x91d
 4898 146d 4C080000 		.4byte	.LLST36
 4899 1471 2B       		.uleb128 0x2b
 4900 1472 62060000 		.4byte	.LVL192
 4901 1476 901F0000 		.4byte	0x1f90
 4902 147a 00       		.byte	0
 4903 147b 2B       		.uleb128 0x2b
 4904 147c 5E060000 		.4byte	.LVL191
 4905 1480 901F0000 		.4byte	0x1f90
 4906 1484 00       		.byte	0
 4907 1485 39       		.uleb128 0x39
 4908 1486 40090000 		.4byte	0x940
 4909 148a 7E060000 		.4byte	.LBB515
 4910 148e 0C000000 		.4byte	.LBE515-.LBB515
 4911 1492 03       		.byte	0x3
 4912 1493 CD       		.byte	0xcd
 4913 1494 DA140000 		.4byte	0x14da
 4914 1498 28       		.uleb128 0x28
 4915 1499 2E090000 		.4byte	0x92e
 4916 149d 7E060000 		.4byte	.LBB517
 4917 14a1 04000000 		.4byte	.LBE517-.LBB517
 4918 14a5 01       		.byte	0x1
 4919 14a6 5C01     		.2byte	0x15c
 4920 14a8 C7140000 		.4byte	0x14c7
 4921 14ac 29       		.uleb128 0x29
 4922 14ad F3080000 		.4byte	0x8f3
 4923 14b1 7E060000 		.4byte	.LBB518
 4924 14b5 04000000 		.4byte	.LBE518-.LBB518
 4925 14b9 0D       		.byte	0xd
 4926 14ba BF01     		.2byte	0x1bf
 4927 14bc 37       		.uleb128 0x37
 4928 14bd 00090000 		.4byte	0x900
 4929 14c1 94080000 		.4byte	.LLST37
 4930 14c5 00       		.byte	0
 4931 14c6 00       		.byte	0
 4932 14c7 2B       		.uleb128 0x2b
 4933 14c8 86060000 		.4byte	.LVL195
 4934 14cc 821F0000 		.4byte	0x1f82
 4935 14d0 2B       		.uleb128 0x2b
 4936 14d1 8A060000 		.4byte	.LVL196
 4937 14d5 891F0000 		.4byte	0x1f89
ARM GAS  /var/folders/c6/c789hm653lg9vtl73krp73tm0000gn/T//ccOdjWuU.s 			page 142


 4938 14d9 00       		.byte	0
 4939 14da 39       		.uleb128 0x39
 4940 14db 6B090000 		.4byte	0x96b
 4941 14df 8A060000 		.4byte	.LBB520
 4942 14e3 08000000 		.4byte	.LBE520-.LBB520
 4943 14e7 03       		.byte	0x3
 4944 14e8 CD       		.byte	0xcd
 4945 14e9 26150000 		.4byte	0x1526
 4946 14ed 37       		.uleb128 0x37
 4947 14ee 7B090000 		.4byte	0x97b
 4948 14f2 A9080000 		.4byte	.LLST38
 4949 14f6 39       		.uleb128 0x39
 4950 14f7 0D090000 		.4byte	0x90d
 4951 14fb 8E060000 		.4byte	.LBB522
 4952 14ff 04000000 		.4byte	.LBE522-.LBB522
 4953 1503 05       		.byte	0x5
 4954 1504 B5       		.byte	0xb5
 4955 1505 1C150000 		.4byte	0x151c
 4956 1509 37       		.uleb128 0x37
 4957 150a 1D090000 		.4byte	0x91d
 4958 150e C1080000 		.4byte	.LLST39
 4959 1512 2B       		.uleb128 0x2b
 4960 1513 92060000 		.4byte	.LVL198
 4961 1517 901F0000 		.4byte	0x1f90
 4962 151b 00       		.byte	0
 4963 151c 2B       		.uleb128 0x2b
 4964 151d 8E060000 		.4byte	.LVL197
 4965 1521 901F0000 		.4byte	0x1f90
 4966 1525 00       		.byte	0
 4967 1526 39       		.uleb128 0x39
 4968 1527 40090000 		.4byte	0x940
 4969 152b C6060000 		.4byte	.LBB524
 4970 152f 0C000000 		.4byte	.LBE524-.LBB524
 4971 1533 03       		.byte	0x3
 4972 1534 D8       		.byte	0xd8
 4973 1535 7B150000 		.4byte	0x157b
 4974 1539 28       		.uleb128 0x28
 4975 153a 2E090000 		.4byte	0x92e
 4976 153e C6060000 		.4byte	.LBB526
 4977 1542 04000000 		.4byte	.LBE526-.LBB526
 4978 1546 01       		.byte	0x1
 4979 1547 5C01     		.2byte	0x15c
 4980 1549 68150000 		.4byte	0x1568
 4981 154d 29       		.uleb128 0x29
 4982 154e F3080000 		.4byte	0x8f3
 4983 1552 C6060000 		.4byte	.LBB527
 4984 1556 04000000 		.4byte	.LBE527-.LBB527
 4985 155a 0D       		.byte	0xd
 4986 155b BF01     		.2byte	0x1bf
 4987 155d 37       		.uleb128 0x37
 4988 155e 00090000 		.4byte	0x900
 4989 1562 F9080000 		.4byte	.LLST40
 4990 1566 00       		.byte	0
 4991 1567 00       		.byte	0
 4992 1568 2B       		.uleb128 0x2b
 4993 1569 CE060000 		.4byte	.LVL203
 4994 156d 821F0000 		.4byte	0x1f82
ARM GAS  /var/folders/c6/c789hm653lg9vtl73krp73tm0000gn/T//ccOdjWuU.s 			page 143


 4995 1571 2B       		.uleb128 0x2b
 4996 1572 D2060000 		.4byte	.LVL204
 4997 1576 891F0000 		.4byte	0x1f89
 4998 157a 00       		.byte	0
 4999 157b 39       		.uleb128 0x39
 5000 157c 49090000 		.4byte	0x949
 5001 1580 D2060000 		.4byte	.LBB529
 5002 1584 08000000 		.4byte	.LBE529-.LBB529
 5003 1588 03       		.byte	0x3
 5004 1589 D8       		.byte	0xd8
 5005 158a C7150000 		.4byte	0x15c7
 5006 158e 37       		.uleb128 0x37
 5007 158f 59090000 		.4byte	0x959
 5008 1593 0E090000 		.4byte	.LLST41
 5009 1597 39       		.uleb128 0x39
 5010 1598 0D090000 		.4byte	0x90d
 5011 159c D6060000 		.4byte	.LBB531
 5012 15a0 04000000 		.4byte	.LBE531-.LBB531
 5013 15a4 05       		.byte	0x5
 5014 15a5 A2       		.byte	0xa2
 5015 15a6 BD150000 		.4byte	0x15bd
 5016 15aa 37       		.uleb128 0x37
 5017 15ab 1D090000 		.4byte	0x91d
 5018 15af 26090000 		.4byte	.LLST42
 5019 15b3 2B       		.uleb128 0x2b
 5020 15b4 DA060000 		.4byte	.LVL206
 5021 15b8 901F0000 		.4byte	0x1f90
 5022 15bc 00       		.byte	0
 5023 15bd 2B       		.uleb128 0x2b
 5024 15be D6060000 		.4byte	.LVL205
 5025 15c2 901F0000 		.4byte	0x1f90
 5026 15c6 00       		.byte	0
 5027 15c7 39       		.uleb128 0x39
 5028 15c8 40090000 		.4byte	0x940
 5029 15cc F0060000 		.4byte	.LBB533
 5030 15d0 0C000000 		.4byte	.LBE533-.LBB533
 5031 15d4 03       		.byte	0x3
 5032 15d5 D9       		.byte	0xd9
 5033 15d6 1C160000 		.4byte	0x161c
 5034 15da 28       		.uleb128 0x28
 5035 15db 2E090000 		.4byte	0x92e
 5036 15df F0060000 		.4byte	.LBB535
 5037 15e3 04000000 		.4byte	.LBE535-.LBB535
 5038 15e7 01       		.byte	0x1
 5039 15e8 5C01     		.2byte	0x15c
 5040 15ea 09160000 		.4byte	0x1609
 5041 15ee 29       		.uleb128 0x29
 5042 15ef F3080000 		.4byte	0x8f3
 5043 15f3 F0060000 		.4byte	.LBB536
 5044 15f7 04000000 		.4byte	.LBE536-.LBB536
 5045 15fb 0D       		.byte	0xd
 5046 15fc BF01     		.2byte	0x1bf
 5047 15fe 37       		.uleb128 0x37
 5048 15ff 00090000 		.4byte	0x900
 5049 1603 4E090000 		.4byte	.LLST43
 5050 1607 00       		.byte	0
 5051 1608 00       		.byte	0
ARM GAS  /var/folders/c6/c789hm653lg9vtl73krp73tm0000gn/T//ccOdjWuU.s 			page 144


 5052 1609 2B       		.uleb128 0x2b
 5053 160a F8060000 		.4byte	.LVL210
 5054 160e 821F0000 		.4byte	0x1f82
 5055 1612 2B       		.uleb128 0x2b
 5056 1613 FC060000 		.4byte	.LVL211
 5057 1617 891F0000 		.4byte	0x1f89
 5058 161b 00       		.byte	0
 5059 161c 39       		.uleb128 0x39
 5060 161d 6B090000 		.4byte	0x96b
 5061 1621 FC060000 		.4byte	.LBB538
 5062 1625 08000000 		.4byte	.LBE538-.LBB538
 5063 1629 03       		.byte	0x3
 5064 162a D9       		.byte	0xd9
 5065 162b 68160000 		.4byte	0x1668
 5066 162f 37       		.uleb128 0x37
 5067 1630 7B090000 		.4byte	0x97b
 5068 1634 63090000 		.4byte	.LLST44
 5069 1638 39       		.uleb128 0x39
 5070 1639 0D090000 		.4byte	0x90d
 5071 163d 00070000 		.4byte	.LBB540
 5072 1641 04000000 		.4byte	.LBE540-.LBB540
 5073 1645 05       		.byte	0x5
 5074 1646 B5       		.byte	0xb5
 5075 1647 5E160000 		.4byte	0x165e
 5076 164b 37       		.uleb128 0x37
 5077 164c 1D090000 		.4byte	0x91d
 5078 1650 7B090000 		.4byte	.LLST45
 5079 1654 2B       		.uleb128 0x2b
 5080 1655 04070000 		.4byte	.LVL213
 5081 1659 901F0000 		.4byte	0x1f90
 5082 165d 00       		.byte	0
 5083 165e 2B       		.uleb128 0x2b
 5084 165f 00070000 		.4byte	.LVL212
 5085 1663 901F0000 		.4byte	0x1f90
 5086 1667 00       		.byte	0
 5087 1668 39       		.uleb128 0x39
 5088 1669 40090000 		.4byte	0x940
 5089 166d 1A070000 		.4byte	.LBB542
 5090 1671 0C000000 		.4byte	.LBE542-.LBB542
 5091 1675 03       		.byte	0x3
 5092 1676 DA       		.byte	0xda
 5093 1677 BD160000 		.4byte	0x16bd
 5094 167b 28       		.uleb128 0x28
 5095 167c 2E090000 		.4byte	0x92e
 5096 1680 1A070000 		.4byte	.LBB544
 5097 1684 04000000 		.4byte	.LBE544-.LBB544
 5098 1688 01       		.byte	0x1
 5099 1689 5C01     		.2byte	0x15c
 5100 168b AA160000 		.4byte	0x16aa
 5101 168f 29       		.uleb128 0x29
 5102 1690 F3080000 		.4byte	0x8f3
 5103 1694 1A070000 		.4byte	.LBB545
 5104 1698 04000000 		.4byte	.LBE545-.LBB545
 5105 169c 0D       		.byte	0xd
 5106 169d BF01     		.2byte	0x1bf
 5107 169f 37       		.uleb128 0x37
 5108 16a0 00090000 		.4byte	0x900
ARM GAS  /var/folders/c6/c789hm653lg9vtl73krp73tm0000gn/T//ccOdjWuU.s 			page 145


 5109 16a4 93090000 		.4byte	.LLST46
 5110 16a8 00       		.byte	0
 5111 16a9 00       		.byte	0
 5112 16aa 2B       		.uleb128 0x2b
 5113 16ab 22070000 		.4byte	.LVL216
 5114 16af 821F0000 		.4byte	0x1f82
 5115 16b3 2B       		.uleb128 0x2b
 5116 16b4 26070000 		.4byte	.LVL217
 5117 16b8 891F0000 		.4byte	0x1f89
 5118 16bc 00       		.byte	0
 5119 16bd 39       		.uleb128 0x39
 5120 16be 40090000 		.4byte	0x940
 5121 16c2 3C070000 		.4byte	.LBB547
 5122 16c6 0C000000 		.4byte	.LBE547-.LBB547
 5123 16ca 03       		.byte	0x3
 5124 16cb DB       		.byte	0xdb
 5125 16cc 12170000 		.4byte	0x1712
 5126 16d0 28       		.uleb128 0x28
 5127 16d1 2E090000 		.4byte	0x92e
 5128 16d5 3C070000 		.4byte	.LBB549
 5129 16d9 04000000 		.4byte	.LBE549-.LBB549
 5130 16dd 01       		.byte	0x1
 5131 16de 5C01     		.2byte	0x15c
 5132 16e0 FF160000 		.4byte	0x16ff
 5133 16e4 29       		.uleb128 0x29
 5134 16e5 F3080000 		.4byte	0x8f3
 5135 16e9 3C070000 		.4byte	.LBB550
 5136 16ed 04000000 		.4byte	.LBE550-.LBB550
 5137 16f1 0D       		.byte	0xd
 5138 16f2 BF01     		.2byte	0x1bf
 5139 16f4 37       		.uleb128 0x37
 5140 16f5 00090000 		.4byte	0x900
 5141 16f9 A8090000 		.4byte	.LLST47
 5142 16fd 00       		.byte	0
 5143 16fe 00       		.byte	0
 5144 16ff 2B       		.uleb128 0x2b
 5145 1700 44070000 		.4byte	.LVL220
 5146 1704 821F0000 		.4byte	0x1f82
 5147 1708 2B       		.uleb128 0x2b
 5148 1709 48070000 		.4byte	.LVL221
 5149 170d 891F0000 		.4byte	0x1f89
 5150 1711 00       		.byte	0
 5151 1712 3B       		.uleb128 0x3b
 5152 1713 2C000000 		.4byte	.LVL9
 5153 1717 971F0000 		.4byte	0x1f97
 5154 171b 25170000 		.4byte	0x1725
 5155 171f 2D       		.uleb128 0x2d
 5156 1720 01       		.uleb128 0x1
 5157 1721 50       		.byte	0x50
 5158 1722 01       		.uleb128 0x1
 5159 1723 31       		.byte	0x31
 5160 1724 00       		.byte	0
 5161 1725 3B       		.uleb128 0x3b
 5162 1726 90000000 		.4byte	.LVL20
 5163 172a B81F0000 		.4byte	0x1fb8
 5164 172e 45170000 		.4byte	0x1745
 5165 1732 2D       		.uleb128 0x2d
ARM GAS  /var/folders/c6/c789hm653lg9vtl73krp73tm0000gn/T//ccOdjWuU.s 			page 146


 5166 1733 01       		.uleb128 0x1
 5167 1734 52       		.byte	0x52
 5168 1735 02       		.uleb128 0x2
 5169 1736 09       		.byte	0x9
 5170 1737 FF       		.byte	0xff
 5171 1738 2D       		.uleb128 0x2d
 5172 1739 01       		.uleb128 0x1
 5173 173a 51       		.byte	0x51
 5174 173b 02       		.uleb128 0x2
 5175 173c 74       		.byte	0x74
 5176 173d 00       		.sleb128 0
 5177 173e 2D       		.uleb128 0x2d
 5178 173f 01       		.uleb128 0x1
 5179 1740 50       		.byte	0x50
 5180 1741 02       		.uleb128 0x2
 5181 1742 76       		.byte	0x76
 5182 1743 00       		.sleb128 0
 5183 1744 00       		.byte	0
 5184 1745 3B       		.uleb128 0x3b
 5185 1746 A0000000 		.4byte	.LVL23
 5186 174a 971F0000 		.4byte	0x1f97
 5187 174e 58170000 		.4byte	0x1758
 5188 1752 2D       		.uleb128 0x2d
 5189 1753 01       		.uleb128 0x1
 5190 1754 50       		.byte	0x50
 5191 1755 01       		.uleb128 0x1
 5192 1756 32       		.byte	0x32
 5193 1757 00       		.byte	0
 5194 1758 3B       		.uleb128 0x3b
 5195 1759 B4000000 		.4byte	.LVL24
 5196 175d D71F0000 		.4byte	0x1fd7
 5197 1761 78170000 		.4byte	0x1778
 5198 1765 2D       		.uleb128 0x2d
 5199 1766 01       		.uleb128 0x1
 5200 1767 52       		.byte	0x52
 5201 1768 02       		.uleb128 0x2
 5202 1769 09       		.byte	0x9
 5203 176a FF       		.byte	0xff
 5204 176b 2D       		.uleb128 0x2d
 5205 176c 01       		.uleb128 0x1
 5206 176d 51       		.byte	0x51
 5207 176e 02       		.uleb128 0x2
 5208 176f 08       		.byte	0x8
 5209 1770 41       		.byte	0x41
 5210 1771 2D       		.uleb128 0x2d
 5211 1772 01       		.uleb128 0x1
 5212 1773 50       		.byte	0x50
 5213 1774 02       		.uleb128 0x2
 5214 1775 76       		.byte	0x76
 5215 1776 00       		.sleb128 0
 5216 1777 00       		.byte	0
 5217 1778 3B       		.uleb128 0x3b
 5218 1779 C2000000 		.4byte	.LVL26
 5219 177d 971F0000 		.4byte	0x1f97
 5220 1781 8B170000 		.4byte	0x178b
 5221 1785 2D       		.uleb128 0x2d
 5222 1786 01       		.uleb128 0x1
ARM GAS  /var/folders/c6/c789hm653lg9vtl73krp73tm0000gn/T//ccOdjWuU.s 			page 147


 5223 1787 50       		.byte	0x50
 5224 1788 01       		.uleb128 0x1
 5225 1789 33       		.byte	0x33
 5226 178a 00       		.byte	0
 5227 178b 3B       		.uleb128 0x3b
 5228 178c D0000000 		.4byte	.LVL27
 5229 1790 B81F0000 		.4byte	0x1fb8
 5230 1794 AA170000 		.4byte	0x17aa
 5231 1798 2D       		.uleb128 0x2d
 5232 1799 01       		.uleb128 0x1
 5233 179a 52       		.byte	0x52
 5234 179b 01       		.uleb128 0x1
 5235 179c 31       		.byte	0x31
 5236 179d 2D       		.uleb128 0x2d
 5237 179e 01       		.uleb128 0x1
 5238 179f 51       		.byte	0x51
 5239 17a0 02       		.uleb128 0x2
 5240 17a1 08       		.byte	0x8
 5241 17a2 58       		.byte	0x58
 5242 17a3 2D       		.uleb128 0x2d
 5243 17a4 01       		.uleb128 0x1
 5244 17a5 50       		.byte	0x50
 5245 17a6 02       		.uleb128 0x2
 5246 17a7 76       		.byte	0x76
 5247 17a8 00       		.sleb128 0
 5248 17a9 00       		.byte	0
 5249 17aa 3B       		.uleb128 0x3b
 5250 17ab DE000000 		.4byte	.LVL29
 5251 17af 971F0000 		.4byte	0x1f97
 5252 17b3 BD170000 		.4byte	0x17bd
 5253 17b7 2D       		.uleb128 0x2d
 5254 17b8 01       		.uleb128 0x1
 5255 17b9 50       		.byte	0x50
 5256 17ba 01       		.uleb128 0x1
 5257 17bb 34       		.byte	0x34
 5258 17bc 00       		.byte	0
 5259 17bd 3B       		.uleb128 0x3b
 5260 17be F8000000 		.4byte	.LVL33
 5261 17c2 F61F0000 		.4byte	0x1ff6
 5262 17c6 D7170000 		.4byte	0x17d7
 5263 17ca 2D       		.uleb128 0x2d
 5264 17cb 01       		.uleb128 0x1
 5265 17cc 51       		.byte	0x51
 5266 17cd 02       		.uleb128 0x2
 5267 17ce 08       		.byte	0x8
 5268 17cf 58       		.byte	0x58
 5269 17d0 2D       		.uleb128 0x2d
 5270 17d1 01       		.uleb128 0x1
 5271 17d2 50       		.byte	0x50
 5272 17d3 02       		.uleb128 0x2
 5273 17d4 76       		.byte	0x76
 5274 17d5 00       		.sleb128 0
 5275 17d6 00       		.byte	0
 5276 17d7 3B       		.uleb128 0x3b
 5277 17d8 32010000 		.4byte	.LVL38
 5278 17dc 971F0000 		.4byte	0x1f97
 5279 17e0 F2170000 		.4byte	0x17f2
ARM GAS  /var/folders/c6/c789hm653lg9vtl73krp73tm0000gn/T//ccOdjWuU.s 			page 148


 5280 17e4 2D       		.uleb128 0x2d
 5281 17e5 01       		.uleb128 0x1
 5282 17e6 51       		.byte	0x51
 5283 17e7 04       		.uleb128 0x4
 5284 17e8 78       		.byte	0x78
 5285 17e9 00       		.sleb128 0
 5286 17ea 30       		.byte	0x30
 5287 17eb 29       		.byte	0x29
 5288 17ec 2D       		.uleb128 0x2d
 5289 17ed 01       		.uleb128 0x1
 5290 17ee 50       		.byte	0x50
 5291 17ef 01       		.uleb128 0x1
 5292 17f0 35       		.byte	0x35
 5293 17f1 00       		.byte	0
 5294 17f2 3B       		.uleb128 0x3b
 5295 17f3 40010000 		.4byte	.LVL39
 5296 17f7 D71F0000 		.4byte	0x1fd7
 5297 17fb 11180000 		.4byte	0x1811
 5298 17ff 2D       		.uleb128 0x2d
 5299 1800 01       		.uleb128 0x1
 5300 1801 52       		.byte	0x52
 5301 1802 01       		.uleb128 0x1
 5302 1803 31       		.byte	0x31
 5303 1804 2D       		.uleb128 0x2d
 5304 1805 01       		.uleb128 0x1
 5305 1806 51       		.byte	0x51
 5306 1807 02       		.uleb128 0x2
 5307 1808 08       		.byte	0x8
 5308 1809 58       		.byte	0x58
 5309 180a 2D       		.uleb128 0x2d
 5310 180b 01       		.uleb128 0x1
 5311 180c 50       		.byte	0x50
 5312 180d 02       		.uleb128 0x2
 5313 180e 76       		.byte	0x76
 5314 180f 00       		.sleb128 0
 5315 1810 00       		.byte	0
 5316 1811 3B       		.uleb128 0x3b
 5317 1812 52010000 		.4byte	.LVL41
 5318 1816 971F0000 		.4byte	0x1f97
 5319 181a 24180000 		.4byte	0x1824
 5320 181e 2D       		.uleb128 0x2d
 5321 181f 01       		.uleb128 0x1
 5322 1820 50       		.byte	0x50
 5323 1821 01       		.uleb128 0x1
 5324 1822 36       		.byte	0x36
 5325 1823 00       		.byte	0
 5326 1824 3B       		.uleb128 0x3b
 5327 1825 6E010000 		.4byte	.LVL45
 5328 1829 10200000 		.4byte	0x2010
 5329 182d 3E180000 		.4byte	0x183e
 5330 1831 2D       		.uleb128 0x2d
 5331 1832 01       		.uleb128 0x1
 5332 1833 51       		.byte	0x51
 5333 1834 02       		.uleb128 0x2
 5334 1835 08       		.byte	0x8
 5335 1836 58       		.byte	0x58
 5336 1837 2D       		.uleb128 0x2d
ARM GAS  /var/folders/c6/c789hm653lg9vtl73krp73tm0000gn/T//ccOdjWuU.s 			page 149


 5337 1838 01       		.uleb128 0x1
 5338 1839 50       		.byte	0x50
 5339 183a 02       		.uleb128 0x2
 5340 183b 76       		.byte	0x76
 5341 183c 00       		.sleb128 0
 5342 183d 00       		.byte	0
 5343 183e 3B       		.uleb128 0x3b
 5344 183f A8010000 		.4byte	.LVL50
 5345 1843 971F0000 		.4byte	0x1f97
 5346 1847 5A180000 		.4byte	0x185a
 5347 184b 2D       		.uleb128 0x2d
 5348 184c 01       		.uleb128 0x1
 5349 184d 51       		.byte	0x51
 5350 184e 05       		.uleb128 0x5
 5351 184f 74       		.byte	0x74
 5352 1850 00       		.sleb128 0
 5353 1851 09       		.byte	0x9
 5354 1852 FF       		.byte	0xff
 5355 1853 29       		.byte	0x29
 5356 1854 2D       		.uleb128 0x2d
 5357 1855 01       		.uleb128 0x1
 5358 1856 50       		.byte	0x50
 5359 1857 01       		.uleb128 0x1
 5360 1858 37       		.byte	0x37
 5361 1859 00       		.byte	0
 5362 185a 3B       		.uleb128 0x3b
 5363 185b D6010000 		.4byte	.LVL57
 5364 185f 971F0000 		.4byte	0x1f97
 5365 1863 6D180000 		.4byte	0x186d
 5366 1867 2D       		.uleb128 0x2d
 5367 1868 01       		.uleb128 0x1
 5368 1869 50       		.byte	0x50
 5369 186a 01       		.uleb128 0x1
 5370 186b 38       		.byte	0x38
 5371 186c 00       		.byte	0
 5372 186d 2B       		.uleb128 0x2b
 5373 186e E0010000 		.4byte	.LVL58
 5374 1872 87090000 		.4byte	0x987
 5375 1876 3B       		.uleb128 0x3b
 5376 1877 02020000 		.4byte	.LVL63
 5377 187b 971F0000 		.4byte	0x1f97
 5378 187f 91180000 		.4byte	0x1891
 5379 1883 2D       		.uleb128 0x2d
 5380 1884 01       		.uleb128 0x1
 5381 1885 51       		.byte	0x51
 5382 1886 04       		.uleb128 0x4
 5383 1887 77       		.byte	0x77
 5384 1888 00       		.sleb128 0
 5385 1889 30       		.byte	0x30
 5386 188a 29       		.byte	0x29
 5387 188b 2D       		.uleb128 0x2d
 5388 188c 01       		.uleb128 0x1
 5389 188d 50       		.byte	0x50
 5390 188e 01       		.uleb128 0x1
 5391 188f 39       		.byte	0x39
 5392 1890 00       		.byte	0
 5393 1891 2B       		.uleb128 0x2b
ARM GAS  /var/folders/c6/c789hm653lg9vtl73krp73tm0000gn/T//ccOdjWuU.s 			page 150


 5394 1892 0C020000 		.4byte	.LVL64
 5395 1896 87090000 		.4byte	0x987
 5396 189a 3B       		.uleb128 0x3b
 5397 189b 28020000 		.4byte	.LVL67
 5398 189f 971F0000 		.4byte	0x1f97
 5399 18a3 AD180000 		.4byte	0x18ad
 5400 18a7 2D       		.uleb128 0x2d
 5401 18a8 01       		.uleb128 0x1
 5402 18a9 50       		.byte	0x50
 5403 18aa 01       		.uleb128 0x1
 5404 18ab 3A       		.byte	0x3a
 5405 18ac 00       		.byte	0
 5406 18ad 2B       		.uleb128 0x2b
 5407 18ae 32020000 		.4byte	.LVL68
 5408 18b2 87090000 		.4byte	0x987
 5409 18b6 3B       		.uleb128 0x3b
 5410 18b7 42020000 		.4byte	.LVL70
 5411 18bb 2A200000 		.4byte	0x202a
 5412 18bf D6180000 		.4byte	0x18d6
 5413 18c3 2D       		.uleb128 0x2d
 5414 18c4 01       		.uleb128 0x1
 5415 18c5 52       		.byte	0x52
 5416 18c6 02       		.uleb128 0x2
 5417 18c7 09       		.byte	0x9
 5418 18c8 FF       		.byte	0xff
 5419 18c9 2D       		.uleb128 0x2d
 5420 18ca 01       		.uleb128 0x1
 5421 18cb 51       		.byte	0x51
 5422 18cc 02       		.uleb128 0x2
 5423 18cd 91       		.byte	0x91
 5424 18ce 64       		.sleb128 -28
 5425 18cf 2D       		.uleb128 0x2d
 5426 18d0 01       		.uleb128 0x1
 5427 18d1 50       		.byte	0x50
 5428 18d2 02       		.uleb128 0x2
 5429 18d3 76       		.byte	0x76
 5430 18d4 00       		.sleb128 0
 5431 18d5 00       		.byte	0
 5432 18d6 3B       		.uleb128 0x3b
 5433 18d7 50020000 		.4byte	.LVL72
 5434 18db 971F0000 		.4byte	0x1f97
 5435 18df E9180000 		.4byte	0x18e9
 5436 18e3 2D       		.uleb128 0x2d
 5437 18e4 01       		.uleb128 0x1
 5438 18e5 50       		.byte	0x50
 5439 18e6 01       		.uleb128 0x1
 5440 18e7 3B       		.byte	0x3b
 5441 18e8 00       		.byte	0
 5442 18e9 2B       		.uleb128 0x2b
 5443 18ea 5E020000 		.4byte	.LVL73
 5444 18ee 49200000 		.4byte	0x2049
 5445 18f2 3B       		.uleb128 0x3b
 5446 18f3 6A020000 		.4byte	.LVL75
 5447 18f7 5A200000 		.4byte	0x205a
 5448 18fb 0E190000 		.4byte	0x190e
 5449 18ff 2D       		.uleb128 0x2d
 5450 1900 01       		.uleb128 0x1
ARM GAS  /var/folders/c6/c789hm653lg9vtl73krp73tm0000gn/T//ccOdjWuU.s 			page 151


 5451 1901 51       		.byte	0x51
 5452 1902 05       		.uleb128 0x5
 5453 1903 03       		.byte	0x3
 5454 1904 00000000 		.4byte	.LC0
 5455 1908 2D       		.uleb128 0x2d
 5456 1909 01       		.uleb128 0x1
 5457 190a 50       		.byte	0x50
 5458 190b 01       		.uleb128 0x1
 5459 190c 3C       		.byte	0x3c
 5460 190d 00       		.byte	0
 5461 190e 3B       		.uleb128 0x3b
 5462 190f 7C020000 		.4byte	.LVL76
 5463 1913 B81F0000 		.4byte	0x1fb8
 5464 1917 2E190000 		.4byte	0x192e
 5465 191b 2D       		.uleb128 0x2d
 5466 191c 01       		.uleb128 0x1
 5467 191d 52       		.byte	0x52
 5468 191e 02       		.uleb128 0x2
 5469 191f 09       		.byte	0x9
 5470 1920 FF       		.byte	0xff
 5471 1921 2D       		.uleb128 0x2d
 5472 1922 01       		.uleb128 0x1
 5473 1923 51       		.byte	0x51
 5474 1924 02       		.uleb128 0x2
 5475 1925 08       		.byte	0x8
 5476 1926 47       		.byte	0x47
 5477 1927 2D       		.uleb128 0x2d
 5478 1928 01       		.uleb128 0x1
 5479 1929 50       		.byte	0x50
 5480 192a 02       		.uleb128 0x2
 5481 192b 76       		.byte	0x76
 5482 192c 00       		.sleb128 0
 5483 192d 00       		.byte	0
 5484 192e 3B       		.uleb128 0x3b
 5485 192f 8A020000 		.4byte	.LVL78
 5486 1933 971F0000 		.4byte	0x1f97
 5487 1937 41190000 		.4byte	0x1941
 5488 193b 2D       		.uleb128 0x2d
 5489 193c 01       		.uleb128 0x1
 5490 193d 50       		.byte	0x50
 5491 193e 01       		.uleb128 0x1
 5492 193f 3D       		.byte	0x3d
 5493 1940 00       		.byte	0
 5494 1941 3B       		.uleb128 0x3b
 5495 1942 9C020000 		.4byte	.LVL79
 5496 1946 2A200000 		.4byte	0x202a
 5497 194a 61190000 		.4byte	0x1961
 5498 194e 2D       		.uleb128 0x2d
 5499 194f 01       		.uleb128 0x1
 5500 1950 52       		.byte	0x52
 5501 1951 02       		.uleb128 0x2
 5502 1952 09       		.byte	0x9
 5503 1953 FF       		.byte	0xff
 5504 1954 2D       		.uleb128 0x2d
 5505 1955 01       		.uleb128 0x1
 5506 1956 51       		.byte	0x51
 5507 1957 02       		.uleb128 0x2
ARM GAS  /var/folders/c6/c789hm653lg9vtl73krp73tm0000gn/T//ccOdjWuU.s 			page 152


 5508 1958 91       		.byte	0x91
 5509 1959 64       		.sleb128 -28
 5510 195a 2D       		.uleb128 0x2d
 5511 195b 01       		.uleb128 0x1
 5512 195c 50       		.byte	0x50
 5513 195d 02       		.uleb128 0x2
 5514 195e 76       		.byte	0x76
 5515 195f 00       		.sleb128 0
 5516 1960 00       		.byte	0
 5517 1961 3B       		.uleb128 0x3b
 5518 1962 AA020000 		.4byte	.LVL81
 5519 1966 971F0000 		.4byte	0x1f97
 5520 196a 74190000 		.4byte	0x1974
 5521 196e 2D       		.uleb128 0x2d
 5522 196f 01       		.uleb128 0x1
 5523 1970 50       		.byte	0x50
 5524 1971 01       		.uleb128 0x1
 5525 1972 3E       		.byte	0x3e
 5526 1973 00       		.byte	0
 5527 1974 3B       		.uleb128 0x3b
 5528 1975 C0020000 		.4byte	.LVL82
 5529 1979 971F0000 		.4byte	0x1f97
 5530 197d 87190000 		.4byte	0x1987
 5531 1981 2D       		.uleb128 0x2d
 5532 1982 01       		.uleb128 0x1
 5533 1983 50       		.byte	0x50
 5534 1984 01       		.uleb128 0x1
 5535 1985 3F       		.byte	0x3f
 5536 1986 00       		.byte	0
 5537 1987 3B       		.uleb128 0x3b
 5538 1988 DC020000 		.4byte	.LVL83
 5539 198c 971F0000 		.4byte	0x1f97
 5540 1990 A2190000 		.4byte	0x19a2
 5541 1994 2D       		.uleb128 0x2d
 5542 1995 01       		.uleb128 0x1
 5543 1996 51       		.byte	0x51
 5544 1997 04       		.uleb128 0x4
 5545 1998 78       		.byte	0x78
 5546 1999 00       		.sleb128 0
 5547 199a 30       		.byte	0x30
 5548 199b 29       		.byte	0x29
 5549 199c 2D       		.uleb128 0x2d
 5550 199d 01       		.uleb128 0x1
 5551 199e 50       		.byte	0x50
 5552 199f 01       		.uleb128 0x1
 5553 19a0 40       		.byte	0x40
 5554 19a1 00       		.byte	0
 5555 19a2 3B       		.uleb128 0x3b
 5556 19a3 EC020000 		.4byte	.LVL84
 5557 19a7 2A200000 		.4byte	0x202a
 5558 19ab C1190000 		.4byte	0x19c1
 5559 19af 2D       		.uleb128 0x2d
 5560 19b0 01       		.uleb128 0x1
 5561 19b1 52       		.byte	0x52
 5562 19b2 01       		.uleb128 0x1
 5563 19b3 31       		.byte	0x31
 5564 19b4 2D       		.uleb128 0x2d
ARM GAS  /var/folders/c6/c789hm653lg9vtl73krp73tm0000gn/T//ccOdjWuU.s 			page 153


 5565 19b5 01       		.uleb128 0x1
 5566 19b6 51       		.byte	0x51
 5567 19b7 02       		.uleb128 0x2
 5568 19b8 91       		.byte	0x91
 5569 19b9 64       		.sleb128 -28
 5570 19ba 2D       		.uleb128 0x2d
 5571 19bb 01       		.uleb128 0x1
 5572 19bc 50       		.byte	0x50
 5573 19bd 02       		.uleb128 0x2
 5574 19be 76       		.byte	0x76
 5575 19bf 00       		.sleb128 0
 5576 19c0 00       		.byte	0
 5577 19c1 3B       		.uleb128 0x3b
 5578 19c2 FE020000 		.4byte	.LVL86
 5579 19c6 971F0000 		.4byte	0x1f97
 5580 19ca D4190000 		.4byte	0x19d4
 5581 19ce 2D       		.uleb128 0x2d
 5582 19cf 01       		.uleb128 0x1
 5583 19d0 50       		.byte	0x50
 5584 19d1 01       		.uleb128 0x1
 5585 19d2 41       		.byte	0x41
 5586 19d3 00       		.byte	0
 5587 19d4 3B       		.uleb128 0x3b
 5588 19d5 1A030000 		.4byte	.LVL91
 5589 19d9 7A200000 		.4byte	0x207a
 5590 19dd EE190000 		.4byte	0x19ee
 5591 19e1 2D       		.uleb128 0x2d
 5592 19e2 01       		.uleb128 0x1
 5593 19e3 51       		.byte	0x51
 5594 19e4 02       		.uleb128 0x2
 5595 19e5 91       		.byte	0x91
 5596 19e6 64       		.sleb128 -28
 5597 19e7 2D       		.uleb128 0x2d
 5598 19e8 01       		.uleb128 0x1
 5599 19e9 50       		.byte	0x50
 5600 19ea 02       		.uleb128 0x2
 5601 19eb 76       		.byte	0x76
 5602 19ec 00       		.sleb128 0
 5603 19ed 00       		.byte	0
 5604 19ee 2B       		.uleb128 0x2b
 5605 19ef 20030000 		.4byte	.LVL93
 5606 19f3 87090000 		.4byte	0x987
 5607 19f7 3B       		.uleb128 0x3b
 5608 19f8 32030000 		.4byte	.LVL94
 5609 19fc 971F0000 		.4byte	0x1f97
 5610 1a00 131A0000 		.4byte	0x1a13
 5611 1a04 2D       		.uleb128 0x2d
 5612 1a05 01       		.uleb128 0x1
 5613 1a06 51       		.byte	0x51
 5614 1a07 05       		.uleb128 0x5
 5615 1a08 77       		.byte	0x77
 5616 1a09 00       		.sleb128 0
 5617 1a0a 09       		.byte	0x9
 5618 1a0b FF       		.byte	0xff
 5619 1a0c 29       		.byte	0x29
 5620 1a0d 2D       		.uleb128 0x2d
 5621 1a0e 01       		.uleb128 0x1
ARM GAS  /var/folders/c6/c789hm653lg9vtl73krp73tm0000gn/T//ccOdjWuU.s 			page 154


 5622 1a0f 50       		.byte	0x50
 5623 1a10 01       		.uleb128 0x1
 5624 1a11 42       		.byte	0x42
 5625 1a12 00       		.byte	0
 5626 1a13 3B       		.uleb128 0x3b
 5627 1a14 5A030000 		.4byte	.LVL101
 5628 1a18 971F0000 		.4byte	0x1f97
 5629 1a1c 2E1A0000 		.4byte	0x1a2e
 5630 1a20 2D       		.uleb128 0x2d
 5631 1a21 01       		.uleb128 0x1
 5632 1a22 51       		.byte	0x51
 5633 1a23 04       		.uleb128 0x4
 5634 1a24 77       		.byte	0x77
 5635 1a25 00       		.sleb128 0
 5636 1a26 30       		.byte	0x30
 5637 1a27 29       		.byte	0x29
 5638 1a28 2D       		.uleb128 0x2d
 5639 1a29 01       		.uleb128 0x1
 5640 1a2a 50       		.byte	0x50
 5641 1a2b 01       		.uleb128 0x1
 5642 1a2c 43       		.byte	0x43
 5643 1a2d 00       		.byte	0
 5644 1a2e 2B       		.uleb128 0x2b
 5645 1a2f 64030000 		.4byte	.LVL102
 5646 1a33 87090000 		.4byte	0x987
 5647 1a37 3B       		.uleb128 0x3b
 5648 1a38 88030000 		.4byte	.LVL107
 5649 1a3c 971F0000 		.4byte	0x1f97
 5650 1a40 4A1A0000 		.4byte	0x1a4a
 5651 1a44 2D       		.uleb128 0x2d
 5652 1a45 01       		.uleb128 0x1
 5653 1a46 50       		.byte	0x50
 5654 1a47 01       		.uleb128 0x1
 5655 1a48 44       		.byte	0x44
 5656 1a49 00       		.byte	0
 5657 1a4a 2B       		.uleb128 0x2b
 5658 1a4b A4030000 		.4byte	.LVL108
 5659 1a4f 87090000 		.4byte	0x987
 5660 1a53 3B       		.uleb128 0x3b
 5661 1a54 C0030000 		.4byte	.LVL111
 5662 1a58 971F0000 		.4byte	0x1f97
 5663 1a5c 6E1A0000 		.4byte	0x1a6e
 5664 1a60 2D       		.uleb128 0x2d
 5665 1a61 01       		.uleb128 0x1
 5666 1a62 51       		.byte	0x51
 5667 1a63 04       		.uleb128 0x4
 5668 1a64 76       		.byte	0x76
 5669 1a65 00       		.sleb128 0
 5670 1a66 30       		.byte	0x30
 5671 1a67 29       		.byte	0x29
 5672 1a68 2D       		.uleb128 0x2d
 5673 1a69 01       		.uleb128 0x1
 5674 1a6a 50       		.byte	0x50
 5675 1a6b 01       		.uleb128 0x1
 5676 1a6c 45       		.byte	0x45
 5677 1a6d 00       		.byte	0
 5678 1a6e 2B       		.uleb128 0x2b
ARM GAS  /var/folders/c6/c789hm653lg9vtl73krp73tm0000gn/T//ccOdjWuU.s 			page 155


 5679 1a6f CA030000 		.4byte	.LVL112
 5680 1a73 87090000 		.4byte	0x987
 5681 1a77 3B       		.uleb128 0x3b
 5682 1a78 DE030000 		.4byte	.LVL115
 5683 1a7c F61F0000 		.4byte	0x1ff6
 5684 1a80 911A0000 		.4byte	0x1a91
 5685 1a84 2D       		.uleb128 0x2d
 5686 1a85 01       		.uleb128 0x1
 5687 1a86 51       		.byte	0x51
 5688 1a87 02       		.uleb128 0x2
 5689 1a88 08       		.byte	0x8
 5690 1a89 41       		.byte	0x41
 5691 1a8a 2D       		.uleb128 0x2d
 5692 1a8b 01       		.uleb128 0x1
 5693 1a8c 50       		.byte	0x50
 5694 1a8d 02       		.uleb128 0x2
 5695 1a8e 74       		.byte	0x74
 5696 1a8f 00       		.sleb128 0
 5697 1a90 00       		.byte	0
 5698 1a91 3B       		.uleb128 0x3b
 5699 1a92 EC030000 		.4byte	.LVL117
 5700 1a96 971F0000 		.4byte	0x1f97
 5701 1a9a A41A0000 		.4byte	0x1aa4
 5702 1a9e 2D       		.uleb128 0x2d
 5703 1a9f 01       		.uleb128 0x1
 5704 1aa0 50       		.byte	0x50
 5705 1aa1 01       		.uleb128 0x1
 5706 1aa2 46       		.byte	0x46
 5707 1aa3 00       		.byte	0
 5708 1aa4 3B       		.uleb128 0x3b
 5709 1aa5 FA030000 		.4byte	.LVL118
 5710 1aa9 F61F0000 		.4byte	0x1ff6
 5711 1aad BE1A0000 		.4byte	0x1abe
 5712 1ab1 2D       		.uleb128 0x2d
 5713 1ab2 01       		.uleb128 0x1
 5714 1ab3 51       		.byte	0x51
 5715 1ab4 02       		.uleb128 0x2
 5716 1ab5 08       		.byte	0x8
 5717 1ab6 42       		.byte	0x42
 5718 1ab7 2D       		.uleb128 0x2d
 5719 1ab8 01       		.uleb128 0x1
 5720 1ab9 50       		.byte	0x50
 5721 1aba 02       		.uleb128 0x2
 5722 1abb 74       		.byte	0x74
 5723 1abc 00       		.sleb128 0
 5724 1abd 00       		.byte	0
 5725 1abe 3B       		.uleb128 0x3b
 5726 1abf 08040000 		.4byte	.LVL120
 5727 1ac3 971F0000 		.4byte	0x1f97
 5728 1ac7 D11A0000 		.4byte	0x1ad1
 5729 1acb 2D       		.uleb128 0x2d
 5730 1acc 01       		.uleb128 0x1
 5731 1acd 50       		.byte	0x50
 5732 1ace 01       		.uleb128 0x1
 5733 1acf 47       		.byte	0x47
 5734 1ad0 00       		.byte	0
 5735 1ad1 3B       		.uleb128 0x3b
ARM GAS  /var/folders/c6/c789hm653lg9vtl73krp73tm0000gn/T//ccOdjWuU.s 			page 156


 5736 1ad2 16040000 		.4byte	.LVL121
 5737 1ad6 F61F0000 		.4byte	0x1ff6
 5738 1ada EB1A0000 		.4byte	0x1aeb
 5739 1ade 2D       		.uleb128 0x2d
 5740 1adf 01       		.uleb128 0x1
 5741 1ae0 51       		.byte	0x51
 5742 1ae1 02       		.uleb128 0x2
 5743 1ae2 08       		.byte	0x8
 5744 1ae3 43       		.byte	0x43
 5745 1ae4 2D       		.uleb128 0x2d
 5746 1ae5 01       		.uleb128 0x1
 5747 1ae6 50       		.byte	0x50
 5748 1ae7 02       		.uleb128 0x2
 5749 1ae8 74       		.byte	0x74
 5750 1ae9 00       		.sleb128 0
 5751 1aea 00       		.byte	0
 5752 1aeb 3B       		.uleb128 0x3b
 5753 1aec 24040000 		.4byte	.LVL123
 5754 1af0 971F0000 		.4byte	0x1f97
 5755 1af4 FE1A0000 		.4byte	0x1afe
 5756 1af8 2D       		.uleb128 0x2d
 5757 1af9 01       		.uleb128 0x1
 5758 1afa 50       		.byte	0x50
 5759 1afb 01       		.uleb128 0x1
 5760 1afc 48       		.byte	0x48
 5761 1afd 00       		.byte	0
 5762 1afe 3B       		.uleb128 0x3b
 5763 1aff 32040000 		.4byte	.LVL124
 5764 1b03 F61F0000 		.4byte	0x1ff6
 5765 1b07 181B0000 		.4byte	0x1b18
 5766 1b0b 2D       		.uleb128 0x2d
 5767 1b0c 01       		.uleb128 0x1
 5768 1b0d 51       		.byte	0x51
 5769 1b0e 02       		.uleb128 0x2
 5770 1b0f 08       		.byte	0x8
 5771 1b10 44       		.byte	0x44
 5772 1b11 2D       		.uleb128 0x2d
 5773 1b12 01       		.uleb128 0x1
 5774 1b13 50       		.byte	0x50
 5775 1b14 02       		.uleb128 0x2
 5776 1b15 74       		.byte	0x74
 5777 1b16 00       		.sleb128 0
 5778 1b17 00       		.byte	0
 5779 1b18 3B       		.uleb128 0x3b
 5780 1b19 40040000 		.4byte	.LVL126
 5781 1b1d 971F0000 		.4byte	0x1f97
 5782 1b21 2B1B0000 		.4byte	0x1b2b
 5783 1b25 2D       		.uleb128 0x2d
 5784 1b26 01       		.uleb128 0x1
 5785 1b27 50       		.byte	0x50
 5786 1b28 01       		.uleb128 0x1
 5787 1b29 49       		.byte	0x49
 5788 1b2a 00       		.byte	0
 5789 1b2b 3B       		.uleb128 0x3b
 5790 1b2c 4E040000 		.4byte	.LVL127
 5791 1b30 F61F0000 		.4byte	0x1ff6
 5792 1b34 451B0000 		.4byte	0x1b45
ARM GAS  /var/folders/c6/c789hm653lg9vtl73krp73tm0000gn/T//ccOdjWuU.s 			page 157


 5793 1b38 2D       		.uleb128 0x2d
 5794 1b39 01       		.uleb128 0x1
 5795 1b3a 51       		.byte	0x51
 5796 1b3b 02       		.uleb128 0x2
 5797 1b3c 08       		.byte	0x8
 5798 1b3d 45       		.byte	0x45
 5799 1b3e 2D       		.uleb128 0x2d
 5800 1b3f 01       		.uleb128 0x1
 5801 1b40 50       		.byte	0x50
 5802 1b41 02       		.uleb128 0x2
 5803 1b42 74       		.byte	0x74
 5804 1b43 00       		.sleb128 0
 5805 1b44 00       		.byte	0
 5806 1b45 2B       		.uleb128 0x2b
 5807 1b46 54040000 		.4byte	.LVL129
 5808 1b4a 87090000 		.4byte	0x987
 5809 1b4e 3B       		.uleb128 0x3b
 5810 1b4f 62040000 		.4byte	.LVL130
 5811 1b53 971F0000 		.4byte	0x1f97
 5812 1b57 7B1B0000 		.4byte	0x1b7b
 5813 1b5b 2D       		.uleb128 0x2d
 5814 1b5c 01       		.uleb128 0x1
 5815 1b5d 51       		.byte	0x51
 5816 1b5e 16       		.uleb128 0x16
 5817 1b5f 30       		.byte	0x30
 5818 1b60 31       		.byte	0x31
 5819 1b61 76       		.byte	0x76
 5820 1b62 00       		.sleb128 0
 5821 1b63 1C       		.byte	0x1c
 5822 1b64 31       		.byte	0x31
 5823 1b65 40       		.byte	0x40
 5824 1b66 4B       		.byte	0x4b
 5825 1b67 24       		.byte	0x24
 5826 1b68 22       		.byte	0x22
 5827 1b69 76       		.byte	0x76
 5828 1b6a 00       		.sleb128 0
 5829 1b6b 40       		.byte	0x40
 5830 1b6c 4B       		.byte	0x4b
 5831 1b6d 24       		.byte	0x24
 5832 1b6e 22       		.byte	0x22
 5833 1b6f 2D       		.byte	0x2d
 5834 1b70 28       		.byte	0x28
 5835 1b71 0100     		.2byte	0x1
 5836 1b73 16       		.byte	0x16
 5837 1b74 13       		.byte	0x13
 5838 1b75 2D       		.uleb128 0x2d
 5839 1b76 01       		.uleb128 0x1
 5840 1b77 50       		.byte	0x50
 5841 1b78 01       		.uleb128 0x1
 5842 1b79 4A       		.byte	0x4a
 5843 1b7a 00       		.byte	0
 5844 1b7b 3B       		.uleb128 0x3b
 5845 1b7c 78040000 		.4byte	.LVL131
 5846 1b80 971F0000 		.4byte	0x1f97
 5847 1b84 8E1B0000 		.4byte	0x1b8e
 5848 1b88 2D       		.uleb128 0x2d
 5849 1b89 01       		.uleb128 0x1
ARM GAS  /var/folders/c6/c789hm653lg9vtl73krp73tm0000gn/T//ccOdjWuU.s 			page 158


 5850 1b8a 50       		.byte	0x50
 5851 1b8b 01       		.uleb128 0x1
 5852 1b8c 4B       		.byte	0x4b
 5853 1b8d 00       		.byte	0
 5854 1b8e 3B       		.uleb128 0x3b
 5855 1b8f 9A040000 		.4byte	.LVL135
 5856 1b93 7A200000 		.4byte	0x207a
 5857 1b97 A81B0000 		.4byte	0x1ba8
 5858 1b9b 2D       		.uleb128 0x2d
 5859 1b9c 01       		.uleb128 0x1
 5860 1b9d 51       		.byte	0x51
 5861 1b9e 02       		.uleb128 0x2
 5862 1b9f 91       		.byte	0x91
 5863 1ba0 64       		.sleb128 -28
 5864 1ba1 2D       		.uleb128 0x2d
 5865 1ba2 01       		.uleb128 0x1
 5866 1ba3 50       		.byte	0x50
 5867 1ba4 02       		.uleb128 0x2
 5868 1ba5 74       		.byte	0x74
 5869 1ba6 00       		.sleb128 0
 5870 1ba7 00       		.byte	0
 5871 1ba8 2B       		.uleb128 0x2b
 5872 1ba9 A0040000 		.4byte	.LVL137
 5873 1bad 87090000 		.4byte	0x987
 5874 1bb1 3B       		.uleb128 0x3b
 5875 1bb2 AE040000 		.4byte	.LVL138
 5876 1bb6 971F0000 		.4byte	0x1f97
 5877 1bba DE1B0000 		.4byte	0x1bde
 5878 1bbe 2D       		.uleb128 0x2d
 5879 1bbf 01       		.uleb128 0x1
 5880 1bc0 51       		.byte	0x51
 5881 1bc1 16       		.uleb128 0x16
 5882 1bc2 30       		.byte	0x30
 5883 1bc3 31       		.byte	0x31
 5884 1bc4 78       		.byte	0x78
 5885 1bc5 00       		.sleb128 0
 5886 1bc6 1C       		.byte	0x1c
 5887 1bc7 31       		.byte	0x31
 5888 1bc8 40       		.byte	0x40
 5889 1bc9 4B       		.byte	0x4b
 5890 1bca 24       		.byte	0x24
 5891 1bcb 22       		.byte	0x22
 5892 1bcc 78       		.byte	0x78
 5893 1bcd 00       		.sleb128 0
 5894 1bce 40       		.byte	0x40
 5895 1bcf 4B       		.byte	0x4b
 5896 1bd0 24       		.byte	0x24
 5897 1bd1 22       		.byte	0x22
 5898 1bd2 2D       		.byte	0x2d
 5899 1bd3 28       		.byte	0x28
 5900 1bd4 0100     		.2byte	0x1
 5901 1bd6 16       		.byte	0x16
 5902 1bd7 13       		.byte	0x13
 5903 1bd8 2D       		.uleb128 0x2d
 5904 1bd9 01       		.uleb128 0x1
 5905 1bda 50       		.byte	0x50
 5906 1bdb 01       		.uleb128 0x1
ARM GAS  /var/folders/c6/c789hm653lg9vtl73krp73tm0000gn/T//ccOdjWuU.s 			page 159


 5907 1bdc 4C       		.byte	0x4c
 5908 1bdd 00       		.byte	0
 5909 1bde 2B       		.uleb128 0x2b
 5910 1bdf BC040000 		.4byte	.LVL139
 5911 1be3 49200000 		.4byte	0x2049
 5912 1be7 3B       		.uleb128 0x3b
 5913 1be8 C8040000 		.4byte	.LVL141
 5914 1bec 5A200000 		.4byte	0x205a
 5915 1bf0 031C0000 		.4byte	0x1c03
 5916 1bf4 2D       		.uleb128 0x2d
 5917 1bf5 01       		.uleb128 0x1
 5918 1bf6 51       		.byte	0x51
 5919 1bf7 05       		.uleb128 0x5
 5920 1bf8 03       		.byte	0x3
 5921 1bf9 00000000 		.4byte	.LC0
 5922 1bfd 2D       		.uleb128 0x2d
 5923 1bfe 01       		.uleb128 0x1
 5924 1bff 50       		.byte	0x50
 5925 1c00 01       		.uleb128 0x1
 5926 1c01 4D       		.byte	0x4d
 5927 1c02 00       		.byte	0
 5928 1c03 3B       		.uleb128 0x3b
 5929 1c04 F0040000 		.4byte	.LVL147
 5930 1c08 971F0000 		.4byte	0x1f97
 5931 1c0c 161C0000 		.4byte	0x1c16
 5932 1c10 2D       		.uleb128 0x2d
 5933 1c11 01       		.uleb128 0x1
 5934 1c12 50       		.byte	0x50
 5935 1c13 01       		.uleb128 0x1
 5936 1c14 4E       		.byte	0x4e
 5937 1c15 00       		.byte	0
 5938 1c16 2B       		.uleb128 0x2b
 5939 1c17 FA040000 		.4byte	.LVL148
 5940 1c1b 87090000 		.4byte	0x987
 5941 1c1f 3B       		.uleb128 0x3b
 5942 1c20 1E050000 		.4byte	.LVL153
 5943 1c24 971F0000 		.4byte	0x1f97
 5944 1c28 321C0000 		.4byte	0x1c32
 5945 1c2c 2D       		.uleb128 0x2d
 5946 1c2d 01       		.uleb128 0x1
 5947 1c2e 50       		.byte	0x50
 5948 1c2f 01       		.uleb128 0x1
 5949 1c30 4F       		.byte	0x4f
 5950 1c31 00       		.byte	0
 5951 1c32 2B       		.uleb128 0x2b
 5952 1c33 28050000 		.4byte	.LVL154
 5953 1c37 87090000 		.4byte	0x987
 5954 1c3b 3B       		.uleb128 0x3b
 5955 1c3c 3E050000 		.4byte	.LVL156
 5956 1c40 971F0000 		.4byte	0x1f97
 5957 1c44 571C0000 		.4byte	0x1c57
 5958 1c48 2D       		.uleb128 0x2d
 5959 1c49 01       		.uleb128 0x1
 5960 1c4a 51       		.byte	0x51
 5961 1c4b 04       		.uleb128 0x4
 5962 1c4c 78       		.byte	0x78
 5963 1c4d 00       		.sleb128 0
ARM GAS  /var/folders/c6/c789hm653lg9vtl73krp73tm0000gn/T//ccOdjWuU.s 			page 160


 5964 1c4e 30       		.byte	0x30
 5965 1c4f 29       		.byte	0x29
 5966 1c50 2D       		.uleb128 0x2d
 5967 1c51 01       		.uleb128 0x1
 5968 1c52 50       		.byte	0x50
 5969 1c53 02       		.uleb128 0x2
 5970 1c54 75       		.byte	0x75
 5971 1c55 00       		.sleb128 0
 5972 1c56 00       		.byte	0
 5973 1c57 3B       		.uleb128 0x3b
 5974 1c58 58050000 		.4byte	.LVL160
 5975 1c5c 10200000 		.4byte	0x2010
 5976 1c60 711C0000 		.4byte	0x1c71
 5977 1c64 2D       		.uleb128 0x2d
 5978 1c65 01       		.uleb128 0x1
 5979 1c66 51       		.byte	0x51
 5980 1c67 02       		.uleb128 0x2
 5981 1c68 08       		.byte	0x8
 5982 1c69 45       		.byte	0x45
 5983 1c6a 2D       		.uleb128 0x2d
 5984 1c6b 01       		.uleb128 0x1
 5985 1c6c 50       		.byte	0x50
 5986 1c6d 02       		.uleb128 0x2
 5987 1c6e 74       		.byte	0x74
 5988 1c6f 00       		.sleb128 0
 5989 1c70 00       		.byte	0
 5990 1c71 3B       		.uleb128 0x3b
 5991 1c72 66050000 		.4byte	.LVL162
 5992 1c76 971F0000 		.4byte	0x1f97
 5993 1c7a 851C0000 		.4byte	0x1c85
 5994 1c7e 2D       		.uleb128 0x2d
 5995 1c7f 01       		.uleb128 0x1
 5996 1c80 50       		.byte	0x50
 5997 1c81 02       		.uleb128 0x2
 5998 1c82 08       		.byte	0x8
 5999 1c83 21       		.byte	0x21
 6000 1c84 00       		.byte	0
 6001 1c85 3B       		.uleb128 0x3b
 6002 1c86 74050000 		.4byte	.LVL163
 6003 1c8a 10200000 		.4byte	0x2010
 6004 1c8e 9F1C0000 		.4byte	0x1c9f
 6005 1c92 2D       		.uleb128 0x2d
 6006 1c93 01       		.uleb128 0x1
 6007 1c94 51       		.byte	0x51
 6008 1c95 02       		.uleb128 0x2
 6009 1c96 08       		.byte	0x8
 6010 1c97 44       		.byte	0x44
 6011 1c98 2D       		.uleb128 0x2d
 6012 1c99 01       		.uleb128 0x1
 6013 1c9a 50       		.byte	0x50
 6014 1c9b 02       		.uleb128 0x2
 6015 1c9c 74       		.byte	0x74
 6016 1c9d 00       		.sleb128 0
 6017 1c9e 00       		.byte	0
 6018 1c9f 3B       		.uleb128 0x3b
 6019 1ca0 82050000 		.4byte	.LVL165
 6020 1ca4 971F0000 		.4byte	0x1f97
ARM GAS  /var/folders/c6/c789hm653lg9vtl73krp73tm0000gn/T//ccOdjWuU.s 			page 161


 6021 1ca8 B31C0000 		.4byte	0x1cb3
 6022 1cac 2D       		.uleb128 0x2d
 6023 1cad 01       		.uleb128 0x1
 6024 1cae 50       		.byte	0x50
 6025 1caf 02       		.uleb128 0x2
 6026 1cb0 08       		.byte	0x8
 6027 1cb1 22       		.byte	0x22
 6028 1cb2 00       		.byte	0
 6029 1cb3 3B       		.uleb128 0x3b
 6030 1cb4 90050000 		.4byte	.LVL166
 6031 1cb8 10200000 		.4byte	0x2010
 6032 1cbc CD1C0000 		.4byte	0x1ccd
 6033 1cc0 2D       		.uleb128 0x2d
 6034 1cc1 01       		.uleb128 0x1
 6035 1cc2 51       		.byte	0x51
 6036 1cc3 02       		.uleb128 0x2
 6037 1cc4 08       		.byte	0x8
 6038 1cc5 43       		.byte	0x43
 6039 1cc6 2D       		.uleb128 0x2d
 6040 1cc7 01       		.uleb128 0x1
 6041 1cc8 50       		.byte	0x50
 6042 1cc9 02       		.uleb128 0x2
 6043 1cca 74       		.byte	0x74
 6044 1ccb 00       		.sleb128 0
 6045 1ccc 00       		.byte	0
 6046 1ccd 3B       		.uleb128 0x3b
 6047 1cce 9E050000 		.4byte	.LVL168
 6048 1cd2 971F0000 		.4byte	0x1f97
 6049 1cd6 E11C0000 		.4byte	0x1ce1
 6050 1cda 2D       		.uleb128 0x2d
 6051 1cdb 01       		.uleb128 0x1
 6052 1cdc 50       		.byte	0x50
 6053 1cdd 02       		.uleb128 0x2
 6054 1cde 08       		.byte	0x8
 6055 1cdf 23       		.byte	0x23
 6056 1ce0 00       		.byte	0
 6057 1ce1 3B       		.uleb128 0x3b
 6058 1ce2 AC050000 		.4byte	.LVL169
 6059 1ce6 10200000 		.4byte	0x2010
 6060 1cea FB1C0000 		.4byte	0x1cfb
 6061 1cee 2D       		.uleb128 0x2d
 6062 1cef 01       		.uleb128 0x1
 6063 1cf0 51       		.byte	0x51
 6064 1cf1 02       		.uleb128 0x2
 6065 1cf2 08       		.byte	0x8
 6066 1cf3 42       		.byte	0x42
 6067 1cf4 2D       		.uleb128 0x2d
 6068 1cf5 01       		.uleb128 0x1
 6069 1cf6 50       		.byte	0x50
 6070 1cf7 02       		.uleb128 0x2
 6071 1cf8 74       		.byte	0x74
 6072 1cf9 00       		.sleb128 0
 6073 1cfa 00       		.byte	0
 6074 1cfb 3B       		.uleb128 0x3b
 6075 1cfc BA050000 		.4byte	.LVL171
 6076 1d00 971F0000 		.4byte	0x1f97
 6077 1d04 0F1D0000 		.4byte	0x1d0f
ARM GAS  /var/folders/c6/c789hm653lg9vtl73krp73tm0000gn/T//ccOdjWuU.s 			page 162


 6078 1d08 2D       		.uleb128 0x2d
 6079 1d09 01       		.uleb128 0x1
 6080 1d0a 50       		.byte	0x50
 6081 1d0b 02       		.uleb128 0x2
 6082 1d0c 08       		.byte	0x8
 6083 1d0d 24       		.byte	0x24
 6084 1d0e 00       		.byte	0
 6085 1d0f 3B       		.uleb128 0x3b
 6086 1d10 C8050000 		.4byte	.LVL172
 6087 1d14 10200000 		.4byte	0x2010
 6088 1d18 291D0000 		.4byte	0x1d29
 6089 1d1c 2D       		.uleb128 0x2d
 6090 1d1d 01       		.uleb128 0x1
 6091 1d1e 51       		.byte	0x51
 6092 1d1f 02       		.uleb128 0x2
 6093 1d20 08       		.byte	0x8
 6094 1d21 41       		.byte	0x41
 6095 1d22 2D       		.uleb128 0x2d
 6096 1d23 01       		.uleb128 0x1
 6097 1d24 50       		.byte	0x50
 6098 1d25 02       		.uleb128 0x2
 6099 1d26 74       		.byte	0x74
 6100 1d27 00       		.sleb128 0
 6101 1d28 00       		.byte	0
 6102 1d29 2B       		.uleb128 0x2b
 6103 1d2a CE050000 		.4byte	.LVL174
 6104 1d2e 87090000 		.4byte	0x987
 6105 1d32 3B       		.uleb128 0x3b
 6106 1d33 DC050000 		.4byte	.LVL175
 6107 1d37 971F0000 		.4byte	0x1f97
 6108 1d3b 601D0000 		.4byte	0x1d60
 6109 1d3f 2D       		.uleb128 0x2d
 6110 1d40 01       		.uleb128 0x1
 6111 1d41 51       		.byte	0x51
 6112 1d42 16       		.uleb128 0x16
 6113 1d43 30       		.byte	0x30
 6114 1d44 31       		.byte	0x31
 6115 1d45 75       		.byte	0x75
 6116 1d46 00       		.sleb128 0
 6117 1d47 1C       		.byte	0x1c
 6118 1d48 31       		.byte	0x31
 6119 1d49 40       		.byte	0x40
 6120 1d4a 4B       		.byte	0x4b
 6121 1d4b 24       		.byte	0x24
 6122 1d4c 22       		.byte	0x22
 6123 1d4d 75       		.byte	0x75
 6124 1d4e 00       		.sleb128 0
 6125 1d4f 40       		.byte	0x40
 6126 1d50 4B       		.byte	0x4b
 6127 1d51 24       		.byte	0x24
 6128 1d52 22       		.byte	0x22
 6129 1d53 2D       		.byte	0x2d
 6130 1d54 28       		.byte	0x28
 6131 1d55 0100     		.2byte	0x1
 6132 1d57 16       		.byte	0x16
 6133 1d58 13       		.byte	0x13
 6134 1d59 2D       		.uleb128 0x2d
ARM GAS  /var/folders/c6/c789hm653lg9vtl73krp73tm0000gn/T//ccOdjWuU.s 			page 163


 6135 1d5a 01       		.uleb128 0x1
 6136 1d5b 50       		.byte	0x50
 6137 1d5c 02       		.uleb128 0x2
 6138 1d5d 08       		.byte	0x8
 6139 1d5e 25       		.byte	0x25
 6140 1d5f 00       		.byte	0
 6141 1d60 3B       		.uleb128 0x3b
 6142 1d61 F8050000 		.4byte	.LVL176
 6143 1d65 971F0000 		.4byte	0x1f97
 6144 1d69 741D0000 		.4byte	0x1d74
 6145 1d6d 2D       		.uleb128 0x2d
 6146 1d6e 01       		.uleb128 0x1
 6147 1d6f 50       		.byte	0x50
 6148 1d70 02       		.uleb128 0x2
 6149 1d71 08       		.byte	0x8
 6150 1d72 26       		.byte	0x26
 6151 1d73 00       		.byte	0
 6152 1d74 3B       		.uleb128 0x3b
 6153 1d75 1A060000 		.4byte	.LVL181
 6154 1d79 7A200000 		.4byte	0x207a
 6155 1d7d 8E1D0000 		.4byte	0x1d8e
 6156 1d81 2D       		.uleb128 0x2d
 6157 1d82 01       		.uleb128 0x1
 6158 1d83 51       		.byte	0x51
 6159 1d84 02       		.uleb128 0x2
 6160 1d85 91       		.byte	0x91
 6161 1d86 64       		.sleb128 -28
 6162 1d87 2D       		.uleb128 0x2d
 6163 1d88 01       		.uleb128 0x1
 6164 1d89 50       		.byte	0x50
 6165 1d8a 02       		.uleb128 0x2
 6166 1d8b 74       		.byte	0x74
 6167 1d8c 00       		.sleb128 0
 6168 1d8d 00       		.byte	0
 6169 1d8e 2B       		.uleb128 0x2b
 6170 1d8f 20060000 		.4byte	.LVL183
 6171 1d93 87090000 		.4byte	0x987
 6172 1d97 3B       		.uleb128 0x3b
 6173 1d98 2E060000 		.4byte	.LVL184
 6174 1d9c 971F0000 		.4byte	0x1f97
 6175 1da0 C51D0000 		.4byte	0x1dc5
 6176 1da4 2D       		.uleb128 0x2d
 6177 1da5 01       		.uleb128 0x1
 6178 1da6 51       		.byte	0x51
 6179 1da7 16       		.uleb128 0x16
 6180 1da8 30       		.byte	0x30
 6181 1da9 31       		.byte	0x31
 6182 1daa 78       		.byte	0x78
 6183 1dab 00       		.sleb128 0
 6184 1dac 1C       		.byte	0x1c
 6185 1dad 31       		.byte	0x31
 6186 1dae 40       		.byte	0x40
 6187 1daf 4B       		.byte	0x4b
 6188 1db0 24       		.byte	0x24
 6189 1db1 22       		.byte	0x22
 6190 1db2 78       		.byte	0x78
 6191 1db3 00       		.sleb128 0
ARM GAS  /var/folders/c6/c789hm653lg9vtl73krp73tm0000gn/T//ccOdjWuU.s 			page 164


 6192 1db4 40       		.byte	0x40
 6193 1db5 4B       		.byte	0x4b
 6194 1db6 24       		.byte	0x24
 6195 1db7 22       		.byte	0x22
 6196 1db8 2D       		.byte	0x2d
 6197 1db9 28       		.byte	0x28
 6198 1dba 0100     		.2byte	0x1
 6199 1dbc 16       		.byte	0x16
 6200 1dbd 13       		.byte	0x13
 6201 1dbe 2D       		.uleb128 0x2d
 6202 1dbf 01       		.uleb128 0x1
 6203 1dc0 50       		.byte	0x50
 6204 1dc1 02       		.uleb128 0x2
 6205 1dc2 08       		.byte	0x8
 6206 1dc3 27       		.byte	0x27
 6207 1dc4 00       		.byte	0
 6208 1dc5 2B       		.uleb128 0x2b
 6209 1dc6 3C060000 		.4byte	.LVL185
 6210 1dca 49200000 		.4byte	0x2049
 6211 1dce 3B       		.uleb128 0x3b
 6212 1dcf 48060000 		.4byte	.LVL187
 6213 1dd3 5A200000 		.4byte	0x205a
 6214 1dd7 EB1D0000 		.4byte	0x1deb
 6215 1ddb 2D       		.uleb128 0x2d
 6216 1ddc 01       		.uleb128 0x1
 6217 1ddd 51       		.byte	0x51
 6218 1dde 05       		.uleb128 0x5
 6219 1ddf 03       		.byte	0x3
 6220 1de0 00000000 		.4byte	.LC0
 6221 1de4 2D       		.uleb128 0x2d
 6222 1de5 01       		.uleb128 0x1
 6223 1de6 50       		.byte	0x50
 6224 1de7 02       		.uleb128 0x2
 6225 1de8 08       		.byte	0x8
 6226 1de9 28       		.byte	0x28
 6227 1dea 00       		.byte	0
 6228 1deb 3B       		.uleb128 0x3b
 6229 1dec 76060000 		.4byte	.LVL193
 6230 1df0 971F0000 		.4byte	0x1f97
 6231 1df4 FF1D0000 		.4byte	0x1dff
 6232 1df8 2D       		.uleb128 0x2d
 6233 1df9 01       		.uleb128 0x1
 6234 1dfa 50       		.byte	0x50
 6235 1dfb 02       		.uleb128 0x2
 6236 1dfc 08       		.byte	0x8
 6237 1dfd 29       		.byte	0x29
 6238 1dfe 00       		.byte	0
 6239 1dff 2B       		.uleb128 0x2b
 6240 1e00 7E060000 		.4byte	.LVL194
 6241 1e04 87090000 		.4byte	0x987
 6242 1e08 3B       		.uleb128 0x3b
 6243 1e09 A2060000 		.4byte	.LVL199
 6244 1e0d 971F0000 		.4byte	0x1f97
 6245 1e11 1C1E0000 		.4byte	0x1e1c
 6246 1e15 2D       		.uleb128 0x2d
 6247 1e16 01       		.uleb128 0x1
 6248 1e17 50       		.byte	0x50
ARM GAS  /var/folders/c6/c789hm653lg9vtl73krp73tm0000gn/T//ccOdjWuU.s 			page 165


 6249 1e18 02       		.uleb128 0x2
 6250 1e19 08       		.byte	0x8
 6251 1e1a 2A       		.byte	0x2a
 6252 1e1b 00       		.byte	0
 6253 1e1c 2B       		.uleb128 0x2b
 6254 1e1d AA060000 		.4byte	.LVL200
 6255 1e21 87090000 		.4byte	0x987
 6256 1e25 3B       		.uleb128 0x3b
 6257 1e26 BA060000 		.4byte	.LVL201
 6258 1e2a 971F0000 		.4byte	0x1f97
 6259 1e2e 411E0000 		.4byte	0x1e41
 6260 1e32 2D       		.uleb128 0x2d
 6261 1e33 01       		.uleb128 0x1
 6262 1e34 51       		.byte	0x51
 6263 1e35 04       		.uleb128 0x4
 6264 1e36 77       		.byte	0x77
 6265 1e37 00       		.sleb128 0
 6266 1e38 30       		.byte	0x30
 6267 1e39 29       		.byte	0x29
 6268 1e3a 2D       		.uleb128 0x2d
 6269 1e3b 01       		.uleb128 0x1
 6270 1e3c 50       		.byte	0x50
 6271 1e3d 02       		.uleb128 0x2
 6272 1e3e 08       		.byte	0x8
 6273 1e3f 2B       		.byte	0x2b
 6274 1e40 00       		.byte	0
 6275 1e41 3B       		.uleb128 0x3b
 6276 1e42 C6060000 		.4byte	.LVL202
 6277 1e46 94200000 		.4byte	0x2094
 6278 1e4a 551E0000 		.4byte	0x1e55
 6279 1e4e 2D       		.uleb128 0x2d
 6280 1e4f 01       		.uleb128 0x1
 6281 1e50 50       		.byte	0x50
 6282 1e51 02       		.uleb128 0x2
 6283 1e52 74       		.byte	0x74
 6284 1e53 00       		.sleb128 0
 6285 1e54 00       		.byte	0
 6286 1e55 3B       		.uleb128 0x3b
 6287 1e56 E8060000 		.4byte	.LVL208
 6288 1e5a 971F0000 		.4byte	0x1f97
 6289 1e5e 711E0000 		.4byte	0x1e71
 6290 1e62 2D       		.uleb128 0x2d
 6291 1e63 01       		.uleb128 0x1
 6292 1e64 51       		.byte	0x51
 6293 1e65 04       		.uleb128 0x4
 6294 1e66 76       		.byte	0x76
 6295 1e67 00       		.sleb128 0
 6296 1e68 30       		.byte	0x30
 6297 1e69 29       		.byte	0x29
 6298 1e6a 2D       		.uleb128 0x2d
 6299 1e6b 01       		.uleb128 0x1
 6300 1e6c 50       		.byte	0x50
 6301 1e6d 02       		.uleb128 0x2
 6302 1e6e 08       		.byte	0x8
 6303 1e6f 2C       		.byte	0x2c
 6304 1e70 00       		.byte	0
 6305 1e71 2B       		.uleb128 0x2b
ARM GAS  /var/folders/c6/c789hm653lg9vtl73krp73tm0000gn/T//ccOdjWuU.s 			page 166


 6306 1e72 F0060000 		.4byte	.LVL209
 6307 1e76 87090000 		.4byte	0x987
 6308 1e7a 3B       		.uleb128 0x3b
 6309 1e7b 14070000 		.4byte	.LVL214
 6310 1e7f 971F0000 		.4byte	0x1f97
 6311 1e83 8E1E0000 		.4byte	0x1e8e
 6312 1e87 2D       		.uleb128 0x2d
 6313 1e88 01       		.uleb128 0x1
 6314 1e89 50       		.byte	0x50
 6315 1e8a 02       		.uleb128 0x2
 6316 1e8b 08       		.byte	0x8
 6317 1e8c 2D       		.byte	0x2d
 6318 1e8d 00       		.byte	0
 6319 1e8e 2B       		.uleb128 0x2b
 6320 1e8f 1A070000 		.4byte	.LVL215
 6321 1e93 87090000 		.4byte	0x987
 6322 1e97 3B       		.uleb128 0x3b
 6323 1e98 36070000 		.4byte	.LVL218
 6324 1e9c 971F0000 		.4byte	0x1f97
 6325 1ea0 AB1E0000 		.4byte	0x1eab
 6326 1ea4 2D       		.uleb128 0x2d
 6327 1ea5 01       		.uleb128 0x1
 6328 1ea6 50       		.byte	0x50
 6329 1ea7 02       		.uleb128 0x2
 6330 1ea8 08       		.byte	0x8
 6331 1ea9 2E       		.byte	0x2e
 6332 1eaa 00       		.byte	0
 6333 1eab 2B       		.uleb128 0x2b
 6334 1eac 3C070000 		.4byte	.LVL219
 6335 1eb0 87090000 		.4byte	0x987
 6336 1eb4 3B       		.uleb128 0x3b
 6337 1eb5 5A070000 		.4byte	.LVL222
 6338 1eb9 971F0000 		.4byte	0x1f97
 6339 1ebd C81E0000 		.4byte	0x1ec8
 6340 1ec1 2D       		.uleb128 0x2d
 6341 1ec2 01       		.uleb128 0x1
 6342 1ec3 50       		.byte	0x50
 6343 1ec4 02       		.uleb128 0x2
 6344 1ec5 08       		.byte	0x8
 6345 1ec6 2F       		.byte	0x2f
 6346 1ec7 00       		.byte	0
 6347 1ec8 2B       		.uleb128 0x2b
 6348 1ec9 5E070000 		.4byte	.LVL223
 6349 1ecd 87090000 		.4byte	0x987
 6350 1ed1 00       		.byte	0
 6351 1ed2 3C       		.uleb128 0x3c
 6352 1ed3 6D623100 		.ascii	"mb1\000"
 6353 1ed7 03       		.byte	0x3
 6354 1ed8 3C       		.byte	0x3c
 6355 1ed9 1B080000 		.4byte	0x81b
 6356 1edd 05       		.uleb128 0x5
 6357 1ede 03       		.byte	0x3
 6358 1edf 00000000 		.4byte	mb1
 6359 1ee3 3D       		.uleb128 0x3d
 6360 1ee4 7A060000 		.4byte	.LASF156
 6361 1ee8 13       		.byte	0x13
 6362 1ee9 A706     		.2byte	0x6a7
ARM GAS  /var/folders/c6/c789hm653lg9vtl73krp73tm0000gn/T//ccOdjWuU.s 			page 167


 6363 1eeb CE000000 		.4byte	0xce
 6364 1eef 3E       		.uleb128 0x3e
 6365 1ef0 636800   		.ascii	"ch\000"
 6366 1ef3 0B       		.byte	0xb
 6367 1ef4 0902     		.2byte	0x209
 6368 1ef6 3C040000 		.4byte	0x43c
 6369 1efa 3F       		.uleb128 0x3f
 6370 1efb EE010000 		.4byte	.LASF157
 6371 1eff 12       		.byte	0x12
 6372 1f00 A8       		.byte	0xa8
 6373 1f01 BF080000 		.4byte	0x8bf
 6374 1f05 40       		.uleb128 0x40
 6375 1f06 D0040000 		.4byte	.LASF158
 6376 1f0a 03       		.byte	0x3
 6377 1f0b DE       		.byte	0xde
 6378 1f0c 161F0000 		.4byte	0x1f16
 6379 1f10 05       		.uleb128 0x5
 6380 1f11 03       		.byte	0x3
 6381 1f12 00000000 		.4byte	testmbox1
 6382 1f16 19       		.uleb128 0x19
 6383 1f17 26080000 		.4byte	0x826
 6384 1f1b 15       		.uleb128 0x15
 6385 1f1c 2B1F0000 		.4byte	0x1f2b
 6386 1f20 2B1F0000 		.4byte	0x1f2b
 6387 1f24 16       		.uleb128 0x16
 6388 1f25 B4040000 		.4byte	0x4b4
 6389 1f29 01       		.byte	0x1
 6390 1f2a 00       		.byte	0
 6391 1f2b 0A       		.uleb128 0xa
 6392 1f2c 04       		.byte	0x4
 6393 1f2d 161F0000 		.4byte	0x1f16
 6394 1f31 40       		.uleb128 0x40
 6395 1f32 31040000 		.4byte	.LASF159
 6396 1f36 03       		.byte	0x3
 6397 1f37 EA       		.byte	0xea
 6398 1f38 421F0000 		.4byte	0x1f42
 6399 1f3c 05       		.uleb128 0x5
 6400 1f3d 03       		.byte	0x3
 6401 1f3e 00000000 		.4byte	patternmbox
 6402 1f42 19       		.uleb128 0x19
 6403 1f43 1B1F0000 		.4byte	0x1f1b
 6404 1f47 41       		.uleb128 0x41
 6405 1f48 56080000 		.4byte	.LASF160
 6406 1f4c 0E       		.byte	0xe
 6407 1f4d D9       		.byte	0xd9
 6408 1f4e 41       		.uleb128 0x41
 6409 1f4f EF040000 		.4byte	.LASF161
 6410 1f53 10       		.byte	0x10
 6411 1f54 50       		.byte	0x50
 6412 1f55 42       		.uleb128 0x42
 6413 1f56 05030000 		.4byte	.LASF162
 6414 1f5a 01       		.byte	0x1
 6415 1f5b 1601     		.2byte	0x116
 6416 1f5d 671F0000 		.4byte	0x1f67
 6417 1f61 0D       		.uleb128 0xd
 6418 1f62 75070000 		.4byte	0x775
 6419 1f66 00       		.byte	0
ARM GAS  /var/folders/c6/c789hm653lg9vtl73krp73tm0000gn/T//ccOdjWuU.s 			page 168


 6420 1f67 43       		.uleb128 0x43
 6421 1f68 F4000000 		.4byte	.LASF163
 6422 1f6c 05       		.byte	0x5
 6423 1f6d 6E       		.byte	0x6e
 6424 1f6e 821F0000 		.4byte	0x1f82
 6425 1f72 0D       		.uleb128 0xd
 6426 1f73 65090000 		.4byte	0x965
 6427 1f77 0D       		.uleb128 0xd
 6428 1f78 15080000 		.4byte	0x815
 6429 1f7c 0D       		.uleb128 0xd
 6430 1f7d 2B010000 		.4byte	0x12b
 6431 1f81 00       		.byte	0
 6432 1f82 41       		.uleb128 0x41
 6433 1f83 38080000 		.4byte	.LASF164
 6434 1f87 10       		.byte	0x10
 6435 1f88 4F       		.byte	0x4f
 6436 1f89 41       		.uleb128 0x41
 6437 1f8a 28050000 		.4byte	.LASF165
 6438 1f8e 0E       		.byte	0xe
 6439 1f8f D8       		.byte	0xd8
 6440 1f90 41       		.uleb128 0x41
 6441 1f91 62040000 		.4byte	.LASF166
 6442 1f95 0E       		.byte	0xe
 6443 1f96 DE       		.byte	0xde
 6444 1f97 44       		.uleb128 0x44
 6445 1f98 76080000 		.4byte	.LASF168
 6446 1f9c 12       		.byte	0x12
 6447 1f9d 5A       		.byte	0x5a
 6448 1f9e B11F0000 		.4byte	0x1fb1
 6449 1fa2 B11F0000 		.4byte	0x1fb1
 6450 1fa6 0D       		.uleb128 0xd
 6451 1fa7 37000000 		.4byte	0x37
 6452 1fab 0D       		.uleb128 0xd
 6453 1fac B11F0000 		.4byte	0x1fb1
 6454 1fb0 00       		.byte	0
 6455 1fb1 04       		.uleb128 0x4
 6456 1fb2 01       		.byte	0x1
 6457 1fb3 02       		.byte	0x2
 6458 1fb4 45060000 		.4byte	.LASF167
 6459 1fb8 44       		.uleb128 0x44
 6460 1fb9 7D020000 		.4byte	.LASF169
 6461 1fbd 05       		.byte	0x5
 6462 1fbe 71       		.byte	0x71
 6463 1fbf 15010000 		.4byte	0x115
 6464 1fc3 D71F0000 		.4byte	0x1fd7
 6465 1fc7 0D       		.uleb128 0xd
 6466 1fc8 65090000 		.4byte	0x965
 6467 1fcc 0D       		.uleb128 0xd
 6468 1fcd 15010000 		.4byte	0x115
 6469 1fd1 0D       		.uleb128 0xd
 6470 1fd2 41010000 		.4byte	0x141
 6471 1fd6 00       		.byte	0
 6472 1fd7 44       		.uleb128 0x44
 6473 1fd8 DD070000 		.4byte	.LASF170
 6474 1fdc 05       		.byte	0x5
 6475 1fdd 74       		.byte	0x74
 6476 1fde 15010000 		.4byte	0x115
ARM GAS  /var/folders/c6/c789hm653lg9vtl73krp73tm0000gn/T//ccOdjWuU.s 			page 169


 6477 1fe2 F61F0000 		.4byte	0x1ff6
 6478 1fe6 0D       		.uleb128 0xd
 6479 1fe7 65090000 		.4byte	0x965
 6480 1feb 0D       		.uleb128 0xd
 6481 1fec 15010000 		.4byte	0x115
 6482 1ff0 0D       		.uleb128 0xd
 6483 1ff1 41010000 		.4byte	0x141
 6484 1ff5 00       		.byte	0
 6485 1ff6 44       		.uleb128 0x44
 6486 1ff7 31010000 		.4byte	.LASF171
 6487 1ffb 05       		.byte	0x5
 6488 1ffc 73       		.byte	0x73
 6489 1ffd 15010000 		.4byte	0x115
 6490 2001 10200000 		.4byte	0x2010
 6491 2005 0D       		.uleb128 0xd
 6492 2006 65090000 		.4byte	0x965
 6493 200a 0D       		.uleb128 0xd
 6494 200b 15010000 		.4byte	0x115
 6495 200f 00       		.byte	0
 6496 2010 44       		.uleb128 0x44
 6497 2011 99010000 		.4byte	.LASF172
 6498 2015 05       		.byte	0x5
 6499 2016 76       		.byte	0x76
 6500 2017 15010000 		.4byte	0x115
 6501 201b 2A200000 		.4byte	0x202a
 6502 201f 0D       		.uleb128 0xd
 6503 2020 65090000 		.4byte	0x965
 6504 2024 0D       		.uleb128 0xd
 6505 2025 15010000 		.4byte	0x115
 6506 2029 00       		.byte	0
 6507 202a 44       		.uleb128 0x44
 6508 202b 4F050000 		.4byte	.LASF173
 6509 202f 05       		.byte	0x5
 6510 2030 77       		.byte	0x77
 6511 2031 15010000 		.4byte	0x115
 6512 2035 49200000 		.4byte	0x2049
 6513 2039 0D       		.uleb128 0xd
 6514 203a 65090000 		.4byte	0x965
 6515 203e 0D       		.uleb128 0xd
 6516 203f 15080000 		.4byte	0x815
 6517 2043 0D       		.uleb128 0xd
 6518 2044 41010000 		.4byte	0x141
 6519 2048 00       		.byte	0
 6520 2049 43       		.uleb128 0x43
 6521 204a 54020000 		.4byte	.LASF174
 6522 204e 12       		.byte	0x12
 6523 204f 58       		.byte	0x58
 6524 2050 5A200000 		.4byte	0x205a
 6525 2054 0D       		.uleb128 0xd
 6526 2055 80070000 		.4byte	0x780
 6527 2059 00       		.byte	0
 6528 205a 44       		.uleb128 0x44
 6529 205b AD050000 		.4byte	.LASF175
 6530 205f 12       		.byte	0x12
 6531 2060 5B       		.byte	0x5b
 6532 2061 B11F0000 		.4byte	0x1fb1
 6533 2065 74200000 		.4byte	0x2074
ARM GAS  /var/folders/c6/c789hm653lg9vtl73krp73tm0000gn/T//ccOdjWuU.s 			page 170


 6534 2069 0D       		.uleb128 0xd
 6535 206a 37000000 		.4byte	0x37
 6536 206e 0D       		.uleb128 0xd
 6537 206f 74200000 		.4byte	0x2074
 6538 2073 00       		.byte	0
 6539 2074 0A       		.uleb128 0xa
 6540 2075 04       		.byte	0x4
 6541 2076 80070000 		.4byte	0x780
 6542 207a 44       		.uleb128 0x44
 6543 207b 3D040000 		.4byte	.LASF176
 6544 207f 05       		.byte	0x5
 6545 2080 79       		.byte	0x79
 6546 2081 15010000 		.4byte	0x115
 6547 2085 94200000 		.4byte	0x2094
 6548 2089 0D       		.uleb128 0xd
 6549 208a 65090000 		.4byte	0x965
 6550 208e 0D       		.uleb128 0xd
 6551 208f 15080000 		.4byte	0x815
 6552 2093 00       		.byte	0
 6553 2094 45       		.uleb128 0x45
 6554 2095 59050000 		.4byte	.LASF182
 6555 2099 05       		.byte	0x5
 6556 209a 6F       		.byte	0x6f
 6557 209b 0D       		.uleb128 0xd
 6558 209c 65090000 		.4byte	0x965
 6559 20a0 00       		.byte	0
 6560 20a1 00       		.byte	0
 6561              		.section	.debug_abbrev,"",%progbits
 6562              	.Ldebug_abbrev0:
 6563 0000 01       		.uleb128 0x1
 6564 0001 11       		.uleb128 0x11
 6565 0002 01       		.byte	0x1
 6566 0003 25       		.uleb128 0x25
 6567 0004 0E       		.uleb128 0xe
 6568 0005 13       		.uleb128 0x13
 6569 0006 0B       		.uleb128 0xb
 6570 0007 03       		.uleb128 0x3
 6571 0008 0E       		.uleb128 0xe
 6572 0009 1B       		.uleb128 0x1b
 6573 000a 0E       		.uleb128 0xe
 6574 000b 55       		.uleb128 0x55
 6575 000c 17       		.uleb128 0x17
 6576 000d 11       		.uleb128 0x11
 6577 000e 01       		.uleb128 0x1
 6578 000f 10       		.uleb128 0x10
 6579 0010 17       		.uleb128 0x17
 6580 0011 00       		.byte	0
 6581 0012 00       		.byte	0
 6582 0013 02       		.uleb128 0x2
 6583 0014 24       		.uleb128 0x24
 6584 0015 00       		.byte	0
 6585 0016 0B       		.uleb128 0xb
 6586 0017 0B       		.uleb128 0xb
 6587 0018 3E       		.uleb128 0x3e
 6588 0019 0B       		.uleb128 0xb
 6589 001a 03       		.uleb128 0x3
 6590 001b 08       		.uleb128 0x8
ARM GAS  /var/folders/c6/c789hm653lg9vtl73krp73tm0000gn/T//ccOdjWuU.s 			page 171


 6591 001c 00       		.byte	0
 6592 001d 00       		.byte	0
 6593 001e 03       		.uleb128 0x3
 6594 001f 16       		.uleb128 0x16
 6595 0020 00       		.byte	0
 6596 0021 03       		.uleb128 0x3
 6597 0022 0E       		.uleb128 0xe
 6598 0023 3A       		.uleb128 0x3a
 6599 0024 0B       		.uleb128 0xb
 6600 0025 3B       		.uleb128 0x3b
 6601 0026 0B       		.uleb128 0xb
 6602 0027 49       		.uleb128 0x49
 6603 0028 13       		.uleb128 0x13
 6604 0029 00       		.byte	0
 6605 002a 00       		.byte	0
 6606 002b 04       		.uleb128 0x4
 6607 002c 24       		.uleb128 0x24
 6608 002d 00       		.byte	0
 6609 002e 0B       		.uleb128 0xb
 6610 002f 0B       		.uleb128 0xb
 6611 0030 3E       		.uleb128 0x3e
 6612 0031 0B       		.uleb128 0xb
 6613 0032 03       		.uleb128 0x3
 6614 0033 0E       		.uleb128 0xe
 6615 0034 00       		.byte	0
 6616 0035 00       		.byte	0
 6617 0036 05       		.uleb128 0x5
 6618 0037 35       		.uleb128 0x35
 6619 0038 00       		.byte	0
 6620 0039 49       		.uleb128 0x49
 6621 003a 13       		.uleb128 0x13
 6622 003b 00       		.byte	0
 6623 003c 00       		.byte	0
 6624 003d 06       		.uleb128 0x6
 6625 003e 13       		.uleb128 0x13
 6626 003f 01       		.byte	0x1
 6627 0040 03       		.uleb128 0x3
 6628 0041 0E       		.uleb128 0xe
 6629 0042 0B       		.uleb128 0xb
 6630 0043 0B       		.uleb128 0xb
 6631 0044 3A       		.uleb128 0x3a
 6632 0045 0B       		.uleb128 0xb
 6633 0046 3B       		.uleb128 0x3b
 6634 0047 0B       		.uleb128 0xb
 6635 0048 01       		.uleb128 0x1
 6636 0049 13       		.uleb128 0x13
 6637 004a 00       		.byte	0
 6638 004b 00       		.byte	0
 6639 004c 07       		.uleb128 0x7
 6640 004d 0D       		.uleb128 0xd
 6641 004e 00       		.byte	0
 6642 004f 03       		.uleb128 0x3
 6643 0050 0E       		.uleb128 0xe
 6644 0051 3A       		.uleb128 0x3a
 6645 0052 0B       		.uleb128 0xb
 6646 0053 3B       		.uleb128 0x3b
 6647 0054 0B       		.uleb128 0xb
ARM GAS  /var/folders/c6/c789hm653lg9vtl73krp73tm0000gn/T//ccOdjWuU.s 			page 172


 6648 0055 49       		.uleb128 0x49
 6649 0056 13       		.uleb128 0x13
 6650 0057 38       		.uleb128 0x38
 6651 0058 0B       		.uleb128 0xb
 6652 0059 00       		.byte	0
 6653 005a 00       		.byte	0
 6654 005b 08       		.uleb128 0x8
 6655 005c 0D       		.uleb128 0xd
 6656 005d 00       		.byte	0
 6657 005e 03       		.uleb128 0x3
 6658 005f 08       		.uleb128 0x8
 6659 0060 3A       		.uleb128 0x3a
 6660 0061 0B       		.uleb128 0xb
 6661 0062 3B       		.uleb128 0x3b
 6662 0063 05       		.uleb128 0x5
 6663 0064 49       		.uleb128 0x49
 6664 0065 13       		.uleb128 0x13
 6665 0066 38       		.uleb128 0x38
 6666 0067 0B       		.uleb128 0xb
 6667 0068 00       		.byte	0
 6668 0069 00       		.byte	0
 6669 006a 09       		.uleb128 0x9
 6670 006b 0D       		.uleb128 0xd
 6671 006c 00       		.byte	0
 6672 006d 03       		.uleb128 0x3
 6673 006e 0E       		.uleb128 0xe
 6674 006f 3A       		.uleb128 0x3a
 6675 0070 0B       		.uleb128 0xb
 6676 0071 3B       		.uleb128 0x3b
 6677 0072 05       		.uleb128 0x5
 6678 0073 49       		.uleb128 0x49
 6679 0074 13       		.uleb128 0x13
 6680 0075 38       		.uleb128 0x38
 6681 0076 0B       		.uleb128 0xb
 6682 0077 00       		.byte	0
 6683 0078 00       		.byte	0
 6684 0079 0A       		.uleb128 0xa
 6685 007a 0F       		.uleb128 0xf
 6686 007b 00       		.byte	0
 6687 007c 0B       		.uleb128 0xb
 6688 007d 0B       		.uleb128 0xb
 6689 007e 49       		.uleb128 0x49
 6690 007f 13       		.uleb128 0x13
 6691 0080 00       		.byte	0
 6692 0081 00       		.byte	0
 6693 0082 0B       		.uleb128 0xb
 6694 0083 13       		.uleb128 0x13
 6695 0084 01       		.byte	0x1
 6696 0085 03       		.uleb128 0x3
 6697 0086 0E       		.uleb128 0xe
 6698 0087 0B       		.uleb128 0xb
 6699 0088 0B       		.uleb128 0xb
 6700 0089 3A       		.uleb128 0x3a
 6701 008a 0B       		.uleb128 0xb
 6702 008b 3B       		.uleb128 0x3b
 6703 008c 05       		.uleb128 0x5
 6704 008d 01       		.uleb128 0x1
ARM GAS  /var/folders/c6/c789hm653lg9vtl73krp73tm0000gn/T//ccOdjWuU.s 			page 173


 6705 008e 13       		.uleb128 0x13
 6706 008f 00       		.byte	0
 6707 0090 00       		.byte	0
 6708 0091 0C       		.uleb128 0xc
 6709 0092 15       		.uleb128 0x15
 6710 0093 01       		.byte	0x1
 6711 0094 27       		.uleb128 0x27
 6712 0095 19       		.uleb128 0x19
 6713 0096 01       		.uleb128 0x1
 6714 0097 13       		.uleb128 0x13
 6715 0098 00       		.byte	0
 6716 0099 00       		.byte	0
 6717 009a 0D       		.uleb128 0xd
 6718 009b 05       		.uleb128 0x5
 6719 009c 00       		.byte	0
 6720 009d 49       		.uleb128 0x49
 6721 009e 13       		.uleb128 0x13
 6722 009f 00       		.byte	0
 6723 00a0 00       		.byte	0
 6724 00a1 0E       		.uleb128 0xe
 6725 00a2 0F       		.uleb128 0xf
 6726 00a3 00       		.byte	0
 6727 00a4 0B       		.uleb128 0xb
 6728 00a5 0B       		.uleb128 0xb
 6729 00a6 00       		.byte	0
 6730 00a7 00       		.byte	0
 6731 00a8 0F       		.uleb128 0xf
 6732 00a9 13       		.uleb128 0x13
 6733 00aa 01       		.byte	0x1
 6734 00ab 03       		.uleb128 0x3
 6735 00ac 0E       		.uleb128 0xe
 6736 00ad 0B       		.uleb128 0xb
 6737 00ae 05       		.uleb128 0x5
 6738 00af 3A       		.uleb128 0x3a
 6739 00b0 0B       		.uleb128 0xb
 6740 00b1 3B       		.uleb128 0x3b
 6741 00b2 05       		.uleb128 0x5
 6742 00b3 01       		.uleb128 0x1
 6743 00b4 13       		.uleb128 0x13
 6744 00b5 00       		.byte	0
 6745 00b6 00       		.byte	0
 6746 00b7 10       		.uleb128 0x10
 6747 00b8 0D       		.uleb128 0xd
 6748 00b9 00       		.byte	0
 6749 00ba 03       		.uleb128 0x3
 6750 00bb 0E       		.uleb128 0xe
 6751 00bc 3A       		.uleb128 0x3a
 6752 00bd 0B       		.uleb128 0xb
 6753 00be 3B       		.uleb128 0x3b
 6754 00bf 05       		.uleb128 0x5
 6755 00c0 49       		.uleb128 0x49
 6756 00c1 13       		.uleb128 0x13
 6757 00c2 38       		.uleb128 0x38
 6758 00c3 05       		.uleb128 0x5
 6759 00c4 00       		.byte	0
 6760 00c5 00       		.byte	0
 6761 00c6 11       		.uleb128 0x11
ARM GAS  /var/folders/c6/c789hm653lg9vtl73krp73tm0000gn/T//ccOdjWuU.s 			page 174


 6762 00c7 0D       		.uleb128 0xd
 6763 00c8 00       		.byte	0
 6764 00c9 03       		.uleb128 0x3
 6765 00ca 08       		.uleb128 0x8
 6766 00cb 3A       		.uleb128 0x3a
 6767 00cc 0B       		.uleb128 0xb
 6768 00cd 3B       		.uleb128 0x3b
 6769 00ce 05       		.uleb128 0x5
 6770 00cf 49       		.uleb128 0x49
 6771 00d0 13       		.uleb128 0x13
 6772 00d1 38       		.uleb128 0x38
 6773 00d2 05       		.uleb128 0x5
 6774 00d3 00       		.byte	0
 6775 00d4 00       		.byte	0
 6776 00d5 12       		.uleb128 0x12
 6777 00d6 0D       		.uleb128 0xd
 6778 00d7 00       		.byte	0
 6779 00d8 03       		.uleb128 0x3
 6780 00d9 08       		.uleb128 0x8
 6781 00da 3A       		.uleb128 0x3a
 6782 00db 0B       		.uleb128 0xb
 6783 00dc 3B       		.uleb128 0x3b
 6784 00dd 0B       		.uleb128 0xb
 6785 00de 49       		.uleb128 0x49
 6786 00df 13       		.uleb128 0x13
 6787 00e0 38       		.uleb128 0x38
 6788 00e1 0B       		.uleb128 0xb
 6789 00e2 00       		.byte	0
 6790 00e3 00       		.byte	0
 6791 00e4 13       		.uleb128 0x13
 6792 00e5 13       		.uleb128 0x13
 6793 00e6 01       		.byte	0x1
 6794 00e7 0B       		.uleb128 0xb
 6795 00e8 0B       		.uleb128 0xb
 6796 00e9 3A       		.uleb128 0x3a
 6797 00ea 0B       		.uleb128 0xb
 6798 00eb 3B       		.uleb128 0x3b
 6799 00ec 0B       		.uleb128 0xb
 6800 00ed 01       		.uleb128 0x1
 6801 00ee 13       		.uleb128 0x13
 6802 00ef 00       		.byte	0
 6803 00f0 00       		.byte	0
 6804 00f1 14       		.uleb128 0x14
 6805 00f2 13       		.uleb128 0x13
 6806 00f3 01       		.byte	0x1
 6807 00f4 0B       		.uleb128 0xb
 6808 00f5 05       		.uleb128 0x5
 6809 00f6 3A       		.uleb128 0x3a
 6810 00f7 0B       		.uleb128 0xb
 6811 00f8 3B       		.uleb128 0x3b
 6812 00f9 0B       		.uleb128 0xb
 6813 00fa 01       		.uleb128 0x1
 6814 00fb 13       		.uleb128 0x13
 6815 00fc 00       		.byte	0
 6816 00fd 00       		.byte	0
 6817 00fe 15       		.uleb128 0x15
 6818 00ff 01       		.uleb128 0x1
ARM GAS  /var/folders/c6/c789hm653lg9vtl73krp73tm0000gn/T//ccOdjWuU.s 			page 175


 6819 0100 01       		.byte	0x1
 6820 0101 49       		.uleb128 0x49
 6821 0102 13       		.uleb128 0x13
 6822 0103 01       		.uleb128 0x1
 6823 0104 13       		.uleb128 0x13
 6824 0105 00       		.byte	0
 6825 0106 00       		.byte	0
 6826 0107 16       		.uleb128 0x16
 6827 0108 21       		.uleb128 0x21
 6828 0109 00       		.byte	0
 6829 010a 49       		.uleb128 0x49
 6830 010b 13       		.uleb128 0x13
 6831 010c 2F       		.uleb128 0x2f
 6832 010d 0B       		.uleb128 0xb
 6833 010e 00       		.byte	0
 6834 010f 00       		.byte	0
 6835 0110 17       		.uleb128 0x17
 6836 0111 17       		.uleb128 0x17
 6837 0112 01       		.byte	0x1
 6838 0113 0B       		.uleb128 0xb
 6839 0114 0B       		.uleb128 0xb
 6840 0115 3A       		.uleb128 0x3a
 6841 0116 0B       		.uleb128 0xb
 6842 0117 3B       		.uleb128 0x3b
 6843 0118 0B       		.uleb128 0xb
 6844 0119 01       		.uleb128 0x1
 6845 011a 13       		.uleb128 0x13
 6846 011b 00       		.byte	0
 6847 011c 00       		.byte	0
 6848 011d 18       		.uleb128 0x18
 6849 011e 0D       		.uleb128 0xd
 6850 011f 00       		.byte	0
 6851 0120 03       		.uleb128 0x3
 6852 0121 0E       		.uleb128 0xe
 6853 0122 3A       		.uleb128 0x3a
 6854 0123 0B       		.uleb128 0xb
 6855 0124 3B       		.uleb128 0x3b
 6856 0125 05       		.uleb128 0x5
 6857 0126 49       		.uleb128 0x49
 6858 0127 13       		.uleb128 0x13
 6859 0128 00       		.byte	0
 6860 0129 00       		.byte	0
 6861 012a 19       		.uleb128 0x19
 6862 012b 26       		.uleb128 0x26
 6863 012c 00       		.byte	0
 6864 012d 49       		.uleb128 0x49
 6865 012e 13       		.uleb128 0x13
 6866 012f 00       		.byte	0
 6867 0130 00       		.byte	0
 6868 0131 1A       		.uleb128 0x1a
 6869 0132 15       		.uleb128 0x15
 6870 0133 00       		.byte	0
 6871 0134 27       		.uleb128 0x27
 6872 0135 19       		.uleb128 0x19
 6873 0136 00       		.byte	0
 6874 0137 00       		.byte	0
 6875 0138 1B       		.uleb128 0x1b
ARM GAS  /var/folders/c6/c789hm653lg9vtl73krp73tm0000gn/T//ccOdjWuU.s 			page 176


 6876 0139 0D       		.uleb128 0xd
 6877 013a 00       		.byte	0
 6878 013b 03       		.uleb128 0x3
 6879 013c 08       		.uleb128 0x8
 6880 013d 3A       		.uleb128 0x3a
 6881 013e 0B       		.uleb128 0xb
 6882 013f 3B       		.uleb128 0x3b
 6883 0140 0B       		.uleb128 0xb
 6884 0141 49       		.uleb128 0x49
 6885 0142 13       		.uleb128 0x13
 6886 0143 38       		.uleb128 0x38
 6887 0144 05       		.uleb128 0x5
 6888 0145 00       		.byte	0
 6889 0146 00       		.byte	0
 6890 0147 1C       		.uleb128 0x1c
 6891 0148 17       		.uleb128 0x17
 6892 0149 01       		.byte	0x1
 6893 014a 03       		.uleb128 0x3
 6894 014b 0E       		.uleb128 0xe
 6895 014c 0B       		.uleb128 0xb
 6896 014d 05       		.uleb128 0x5
 6897 014e 3A       		.uleb128 0x3a
 6898 014f 0B       		.uleb128 0xb
 6899 0150 3B       		.uleb128 0x3b
 6900 0151 0B       		.uleb128 0xb
 6901 0152 01       		.uleb128 0x1
 6902 0153 13       		.uleb128 0x13
 6903 0154 00       		.byte	0
 6904 0155 00       		.byte	0
 6905 0156 1D       		.uleb128 0x1d
 6906 0157 0D       		.uleb128 0xd
 6907 0158 00       		.byte	0
 6908 0159 03       		.uleb128 0x3
 6909 015a 08       		.uleb128 0x8
 6910 015b 3A       		.uleb128 0x3a
 6911 015c 0B       		.uleb128 0xb
 6912 015d 3B       		.uleb128 0x3b
 6913 015e 0B       		.uleb128 0xb
 6914 015f 49       		.uleb128 0x49
 6915 0160 13       		.uleb128 0x13
 6916 0161 00       		.byte	0
 6917 0162 00       		.byte	0
 6918 0163 1E       		.uleb128 0x1e
 6919 0164 0D       		.uleb128 0xd
 6920 0165 00       		.byte	0
 6921 0166 03       		.uleb128 0x3
 6922 0167 0E       		.uleb128 0xe
 6923 0168 3A       		.uleb128 0x3a
 6924 0169 0B       		.uleb128 0xb
 6925 016a 3B       		.uleb128 0x3b
 6926 016b 0B       		.uleb128 0xb
 6927 016c 49       		.uleb128 0x49
 6928 016d 13       		.uleb128 0x13
 6929 016e 00       		.byte	0
 6930 016f 00       		.byte	0
 6931 0170 1F       		.uleb128 0x1f
 6932 0171 21       		.uleb128 0x21
ARM GAS  /var/folders/c6/c789hm653lg9vtl73krp73tm0000gn/T//ccOdjWuU.s 			page 177


 6933 0172 00       		.byte	0
 6934 0173 49       		.uleb128 0x49
 6935 0174 13       		.uleb128 0x13
 6936 0175 2F       		.uleb128 0x2f
 6937 0176 05       		.uleb128 0x5
 6938 0177 00       		.byte	0
 6939 0178 00       		.byte	0
 6940 0179 20       		.uleb128 0x20
 6941 017a 2E       		.uleb128 0x2e
 6942 017b 01       		.byte	0x1
 6943 017c 03       		.uleb128 0x3
 6944 017d 0E       		.uleb128 0xe
 6945 017e 3A       		.uleb128 0x3a
 6946 017f 0B       		.uleb128 0xb
 6947 0180 3B       		.uleb128 0x3b
 6948 0181 05       		.uleb128 0x5
 6949 0182 27       		.uleb128 0x27
 6950 0183 19       		.uleb128 0x19
 6951 0184 20       		.uleb128 0x20
 6952 0185 0B       		.uleb128 0xb
 6953 0186 01       		.uleb128 0x1
 6954 0187 13       		.uleb128 0x13
 6955 0188 00       		.byte	0
 6956 0189 00       		.byte	0
 6957 018a 21       		.uleb128 0x21
 6958 018b 05       		.uleb128 0x5
 6959 018c 00       		.byte	0
 6960 018d 03       		.uleb128 0x3
 6961 018e 0E       		.uleb128 0xe
 6962 018f 3A       		.uleb128 0x3a
 6963 0190 0B       		.uleb128 0xb
 6964 0191 3B       		.uleb128 0x3b
 6965 0192 05       		.uleb128 0x5
 6966 0193 49       		.uleb128 0x49
 6967 0194 13       		.uleb128 0x13
 6968 0195 00       		.byte	0
 6969 0196 00       		.byte	0
 6970 0197 22       		.uleb128 0x22
 6971 0198 2E       		.uleb128 0x2e
 6972 0199 01       		.byte	0x1
 6973 019a 03       		.uleb128 0x3
 6974 019b 0E       		.uleb128 0xe
 6975 019c 3A       		.uleb128 0x3a
 6976 019d 0B       		.uleb128 0xb
 6977 019e 3B       		.uleb128 0x3b
 6978 019f 0B       		.uleb128 0xb
 6979 01a0 27       		.uleb128 0x27
 6980 01a1 19       		.uleb128 0x19
 6981 01a2 49       		.uleb128 0x49
 6982 01a3 13       		.uleb128 0x13
 6983 01a4 20       		.uleb128 0x20
 6984 01a5 0B       		.uleb128 0xb
 6985 01a6 01       		.uleb128 0x1
 6986 01a7 13       		.uleb128 0x13
 6987 01a8 00       		.byte	0
 6988 01a9 00       		.byte	0
 6989 01aa 23       		.uleb128 0x23
ARM GAS  /var/folders/c6/c789hm653lg9vtl73krp73tm0000gn/T//ccOdjWuU.s 			page 178


 6990 01ab 05       		.uleb128 0x5
 6991 01ac 00       		.byte	0
 6992 01ad 03       		.uleb128 0x3
 6993 01ae 08       		.uleb128 0x8
 6994 01af 3A       		.uleb128 0x3a
 6995 01b0 0B       		.uleb128 0xb
 6996 01b1 3B       		.uleb128 0x3b
 6997 01b2 0B       		.uleb128 0xb
 6998 01b3 49       		.uleb128 0x49
 6999 01b4 13       		.uleb128 0x13
 7000 01b5 00       		.byte	0
 7001 01b6 00       		.byte	0
 7002 01b7 24       		.uleb128 0x24
 7003 01b8 2E       		.uleb128 0x2e
 7004 01b9 00       		.byte	0
 7005 01ba 03       		.uleb128 0x3
 7006 01bb 0E       		.uleb128 0xe
 7007 01bc 3A       		.uleb128 0x3a
 7008 01bd 0B       		.uleb128 0xb
 7009 01be 3B       		.uleb128 0x3b
 7010 01bf 05       		.uleb128 0x5
 7011 01c0 27       		.uleb128 0x27
 7012 01c1 19       		.uleb128 0x19
 7013 01c2 20       		.uleb128 0x20
 7014 01c3 0B       		.uleb128 0xb
 7015 01c4 00       		.byte	0
 7016 01c5 00       		.byte	0
 7017 01c6 25       		.uleb128 0x25
 7018 01c7 34       		.uleb128 0x34
 7019 01c8 00       		.byte	0
 7020 01c9 03       		.uleb128 0x3
 7021 01ca 0E       		.uleb128 0xe
 7022 01cb 49       		.uleb128 0x49
 7023 01cc 13       		.uleb128 0x13
 7024 01cd 34       		.uleb128 0x34
 7025 01ce 19       		.uleb128 0x19
 7026 01cf 1C       		.uleb128 0x1c
 7027 01d0 0E       		.uleb128 0xe
 7028 01d1 00       		.byte	0
 7029 01d2 00       		.byte	0
 7030 01d3 26       		.uleb128 0x26
 7031 01d4 2E       		.uleb128 0x2e
 7032 01d5 01       		.byte	0x1
 7033 01d6 31       		.uleb128 0x31
 7034 01d7 13       		.uleb128 0x13
 7035 01d8 11       		.uleb128 0x11
 7036 01d9 01       		.uleb128 0x1
 7037 01da 12       		.uleb128 0x12
 7038 01db 06       		.uleb128 0x6
 7039 01dc 40       		.uleb128 0x40
 7040 01dd 18       		.uleb128 0x18
 7041 01de 9742     		.uleb128 0x2117
 7042 01e0 19       		.uleb128 0x19
 7043 01e1 01       		.uleb128 0x1
 7044 01e2 13       		.uleb128 0x13
 7045 01e3 00       		.byte	0
 7046 01e4 00       		.byte	0
ARM GAS  /var/folders/c6/c789hm653lg9vtl73krp73tm0000gn/T//ccOdjWuU.s 			page 179


 7047 01e5 27       		.uleb128 0x27
 7048 01e6 34       		.uleb128 0x34
 7049 01e7 00       		.byte	0
 7050 01e8 31       		.uleb128 0x31
 7051 01e9 13       		.uleb128 0x13
 7052 01ea 02       		.uleb128 0x2
 7053 01eb 18       		.uleb128 0x18
 7054 01ec 00       		.byte	0
 7055 01ed 00       		.byte	0
 7056 01ee 28       		.uleb128 0x28
 7057 01ef 1D       		.uleb128 0x1d
 7058 01f0 01       		.byte	0x1
 7059 01f1 31       		.uleb128 0x31
 7060 01f2 13       		.uleb128 0x13
 7061 01f3 11       		.uleb128 0x11
 7062 01f4 01       		.uleb128 0x1
 7063 01f5 12       		.uleb128 0x12
 7064 01f6 06       		.uleb128 0x6
 7065 01f7 58       		.uleb128 0x58
 7066 01f8 0B       		.uleb128 0xb
 7067 01f9 59       		.uleb128 0x59
 7068 01fa 05       		.uleb128 0x5
 7069 01fb 01       		.uleb128 0x1
 7070 01fc 13       		.uleb128 0x13
 7071 01fd 00       		.byte	0
 7072 01fe 00       		.byte	0
 7073 01ff 29       		.uleb128 0x29
 7074 0200 1D       		.uleb128 0x1d
 7075 0201 01       		.byte	0x1
 7076 0202 31       		.uleb128 0x31
 7077 0203 13       		.uleb128 0x13
 7078 0204 11       		.uleb128 0x11
 7079 0205 01       		.uleb128 0x1
 7080 0206 12       		.uleb128 0x12
 7081 0207 06       		.uleb128 0x6
 7082 0208 58       		.uleb128 0x58
 7083 0209 0B       		.uleb128 0xb
 7084 020a 59       		.uleb128 0x59
 7085 020b 05       		.uleb128 0x5
 7086 020c 00       		.byte	0
 7087 020d 00       		.byte	0
 7088 020e 2A       		.uleb128 0x2a
 7089 020f 05       		.uleb128 0x5
 7090 0210 00       		.byte	0
 7091 0211 31       		.uleb128 0x31
 7092 0212 13       		.uleb128 0x13
 7093 0213 1C       		.uleb128 0x1c
 7094 0214 0B       		.uleb128 0xb
 7095 0215 00       		.byte	0
 7096 0216 00       		.byte	0
 7097 0217 2B       		.uleb128 0x2b
 7098 0218 898201   		.uleb128 0x4109
 7099 021b 00       		.byte	0
 7100 021c 11       		.uleb128 0x11
 7101 021d 01       		.uleb128 0x1
 7102 021e 31       		.uleb128 0x31
 7103 021f 13       		.uleb128 0x13
ARM GAS  /var/folders/c6/c789hm653lg9vtl73krp73tm0000gn/T//ccOdjWuU.s 			page 180


 7104 0220 00       		.byte	0
 7105 0221 00       		.byte	0
 7106 0222 2C       		.uleb128 0x2c
 7107 0223 898201   		.uleb128 0x4109
 7108 0226 01       		.byte	0x1
 7109 0227 11       		.uleb128 0x11
 7110 0228 01       		.uleb128 0x1
 7111 0229 31       		.uleb128 0x31
 7112 022a 13       		.uleb128 0x13
 7113 022b 00       		.byte	0
 7114 022c 00       		.byte	0
 7115 022d 2D       		.uleb128 0x2d
 7116 022e 8A8201   		.uleb128 0x410a
 7117 0231 00       		.byte	0
 7118 0232 02       		.uleb128 0x2
 7119 0233 18       		.uleb128 0x18
 7120 0234 9142     		.uleb128 0x2111
 7121 0236 18       		.uleb128 0x18
 7122 0237 00       		.byte	0
 7123 0238 00       		.byte	0
 7124 0239 2E       		.uleb128 0x2e
 7125 023a 2E       		.uleb128 0x2e
 7126 023b 01       		.byte	0x1
 7127 023c 03       		.uleb128 0x3
 7128 023d 0E       		.uleb128 0xe
 7129 023e 3A       		.uleb128 0x3a
 7130 023f 0B       		.uleb128 0xb
 7131 0240 3B       		.uleb128 0x3b
 7132 0241 0B       		.uleb128 0xb
 7133 0242 27       		.uleb128 0x27
 7134 0243 19       		.uleb128 0x19
 7135 0244 11       		.uleb128 0x11
 7136 0245 01       		.uleb128 0x1
 7137 0246 12       		.uleb128 0x12
 7138 0247 06       		.uleb128 0x6
 7139 0248 40       		.uleb128 0x40
 7140 0249 18       		.uleb128 0x18
 7141 024a 9742     		.uleb128 0x2117
 7142 024c 19       		.uleb128 0x19
 7143 024d 01       		.uleb128 0x1
 7144 024e 13       		.uleb128 0x13
 7145 024f 00       		.byte	0
 7146 0250 00       		.byte	0
 7147 0251 2F       		.uleb128 0x2f
 7148 0252 898201   		.uleb128 0x4109
 7149 0255 01       		.byte	0x1
 7150 0256 11       		.uleb128 0x11
 7151 0257 01       		.uleb128 0x1
 7152 0258 9542     		.uleb128 0x2115
 7153 025a 19       		.uleb128 0x19
 7154 025b 31       		.uleb128 0x31
 7155 025c 13       		.uleb128 0x13
 7156 025d 00       		.byte	0
 7157 025e 00       		.byte	0
 7158 025f 30       		.uleb128 0x30
 7159 0260 34       		.uleb128 0x34
 7160 0261 00       		.byte	0
ARM GAS  /var/folders/c6/c789hm653lg9vtl73krp73tm0000gn/T//ccOdjWuU.s 			page 181


 7161 0262 03       		.uleb128 0x3
 7162 0263 0E       		.uleb128 0xe
 7163 0264 3A       		.uleb128 0x3a
 7164 0265 0B       		.uleb128 0xb
 7165 0266 3B       		.uleb128 0x3b
 7166 0267 0B       		.uleb128 0xb
 7167 0268 49       		.uleb128 0x49
 7168 0269 13       		.uleb128 0x13
 7169 026a 02       		.uleb128 0x2
 7170 026b 17       		.uleb128 0x17
 7171 026c 00       		.byte	0
 7172 026d 00       		.byte	0
 7173 026e 31       		.uleb128 0x31
 7174 026f 34       		.uleb128 0x34
 7175 0270 00       		.byte	0
 7176 0271 03       		.uleb128 0x3
 7177 0272 0E       		.uleb128 0xe
 7178 0273 3A       		.uleb128 0x3a
 7179 0274 0B       		.uleb128 0xb
 7180 0275 3B       		.uleb128 0x3b
 7181 0276 0B       		.uleb128 0xb
 7182 0277 49       		.uleb128 0x49
 7183 0278 13       		.uleb128 0x13
 7184 0279 02       		.uleb128 0x2
 7185 027a 18       		.uleb128 0x18
 7186 027b 00       		.byte	0
 7187 027c 00       		.byte	0
 7188 027d 32       		.uleb128 0x32
 7189 027e 34       		.uleb128 0x34
 7190 027f 00       		.byte	0
 7191 0280 03       		.uleb128 0x3
 7192 0281 08       		.uleb128 0x8
 7193 0282 3A       		.uleb128 0x3a
 7194 0283 0B       		.uleb128 0xb
 7195 0284 3B       		.uleb128 0x3b
 7196 0285 0B       		.uleb128 0xb
 7197 0286 49       		.uleb128 0x49
 7198 0287 13       		.uleb128 0x13
 7199 0288 02       		.uleb128 0x2
 7200 0289 17       		.uleb128 0x17
 7201 028a 00       		.byte	0
 7202 028b 00       		.byte	0
 7203 028c 33       		.uleb128 0x33
 7204 028d 1D       		.uleb128 0x1d
 7205 028e 01       		.byte	0x1
 7206 028f 31       		.uleb128 0x31
 7207 0290 13       		.uleb128 0x13
 7208 0291 52       		.uleb128 0x52
 7209 0292 01       		.uleb128 0x1
 7210 0293 55       		.uleb128 0x55
 7211 0294 17       		.uleb128 0x17
 7212 0295 58       		.uleb128 0x58
 7213 0296 0B       		.uleb128 0xb
 7214 0297 59       		.uleb128 0x59
 7215 0298 0B       		.uleb128 0xb
 7216 0299 01       		.uleb128 0x1
 7217 029a 13       		.uleb128 0x13
ARM GAS  /var/folders/c6/c789hm653lg9vtl73krp73tm0000gn/T//ccOdjWuU.s 			page 182


 7218 029b 00       		.byte	0
 7219 029c 00       		.byte	0
 7220 029d 34       		.uleb128 0x34
 7221 029e 1D       		.uleb128 0x1d
 7222 029f 01       		.byte	0x1
 7223 02a0 31       		.uleb128 0x31
 7224 02a1 13       		.uleb128 0x13
 7225 02a2 52       		.uleb128 0x52
 7226 02a3 01       		.uleb128 0x1
 7227 02a4 55       		.uleb128 0x55
 7228 02a5 17       		.uleb128 0x17
 7229 02a6 58       		.uleb128 0x58
 7230 02a7 0B       		.uleb128 0xb
 7231 02a8 59       		.uleb128 0x59
 7232 02a9 05       		.uleb128 0x5
 7233 02aa 01       		.uleb128 0x1
 7234 02ab 13       		.uleb128 0x13
 7235 02ac 00       		.byte	0
 7236 02ad 00       		.byte	0
 7237 02ae 35       		.uleb128 0x35
 7238 02af 1D       		.uleb128 0x1d
 7239 02b0 01       		.byte	0x1
 7240 02b1 31       		.uleb128 0x31
 7241 02b2 13       		.uleb128 0x13
 7242 02b3 52       		.uleb128 0x52
 7243 02b4 01       		.uleb128 0x1
 7244 02b5 55       		.uleb128 0x55
 7245 02b6 17       		.uleb128 0x17
 7246 02b7 58       		.uleb128 0x58
 7247 02b8 0B       		.uleb128 0xb
 7248 02b9 59       		.uleb128 0x59
 7249 02ba 05       		.uleb128 0x5
 7250 02bb 00       		.byte	0
 7251 02bc 00       		.byte	0
 7252 02bd 36       		.uleb128 0x36
 7253 02be 05       		.uleb128 0x5
 7254 02bf 00       		.byte	0
 7255 02c0 31       		.uleb128 0x31
 7256 02c1 13       		.uleb128 0x13
 7257 02c2 02       		.uleb128 0x2
 7258 02c3 18       		.uleb128 0x18
 7259 02c4 00       		.byte	0
 7260 02c5 00       		.byte	0
 7261 02c6 37       		.uleb128 0x37
 7262 02c7 05       		.uleb128 0x5
 7263 02c8 00       		.byte	0
 7264 02c9 31       		.uleb128 0x31
 7265 02ca 13       		.uleb128 0x13
 7266 02cb 02       		.uleb128 0x2
 7267 02cc 17       		.uleb128 0x17
 7268 02cd 00       		.byte	0
 7269 02ce 00       		.byte	0
 7270 02cf 38       		.uleb128 0x38
 7271 02d0 0B       		.uleb128 0xb
 7272 02d1 01       		.byte	0x1
 7273 02d2 55       		.uleb128 0x55
 7274 02d3 17       		.uleb128 0x17
ARM GAS  /var/folders/c6/c789hm653lg9vtl73krp73tm0000gn/T//ccOdjWuU.s 			page 183


 7275 02d4 00       		.byte	0
 7276 02d5 00       		.byte	0
 7277 02d6 39       		.uleb128 0x39
 7278 02d7 1D       		.uleb128 0x1d
 7279 02d8 01       		.byte	0x1
 7280 02d9 31       		.uleb128 0x31
 7281 02da 13       		.uleb128 0x13
 7282 02db 11       		.uleb128 0x11
 7283 02dc 01       		.uleb128 0x1
 7284 02dd 12       		.uleb128 0x12
 7285 02de 06       		.uleb128 0x6
 7286 02df 58       		.uleb128 0x58
 7287 02e0 0B       		.uleb128 0xb
 7288 02e1 59       		.uleb128 0x59
 7289 02e2 0B       		.uleb128 0xb
 7290 02e3 01       		.uleb128 0x1
 7291 02e4 13       		.uleb128 0x13
 7292 02e5 00       		.byte	0
 7293 02e6 00       		.byte	0
 7294 02e7 3A       		.uleb128 0x3a
 7295 02e8 0B       		.uleb128 0xb
 7296 02e9 01       		.byte	0x1
 7297 02ea 11       		.uleb128 0x11
 7298 02eb 01       		.uleb128 0x1
 7299 02ec 12       		.uleb128 0x12
 7300 02ed 06       		.uleb128 0x6
 7301 02ee 00       		.byte	0
 7302 02ef 00       		.byte	0
 7303 02f0 3B       		.uleb128 0x3b
 7304 02f1 898201   		.uleb128 0x4109
 7305 02f4 01       		.byte	0x1
 7306 02f5 11       		.uleb128 0x11
 7307 02f6 01       		.uleb128 0x1
 7308 02f7 31       		.uleb128 0x31
 7309 02f8 13       		.uleb128 0x13
 7310 02f9 01       		.uleb128 0x1
 7311 02fa 13       		.uleb128 0x13
 7312 02fb 00       		.byte	0
 7313 02fc 00       		.byte	0
 7314 02fd 3C       		.uleb128 0x3c
 7315 02fe 34       		.uleb128 0x34
 7316 02ff 00       		.byte	0
 7317 0300 03       		.uleb128 0x3
 7318 0301 08       		.uleb128 0x8
 7319 0302 3A       		.uleb128 0x3a
 7320 0303 0B       		.uleb128 0xb
 7321 0304 3B       		.uleb128 0x3b
 7322 0305 0B       		.uleb128 0xb
 7323 0306 49       		.uleb128 0x49
 7324 0307 13       		.uleb128 0x13
 7325 0308 02       		.uleb128 0x2
 7326 0309 18       		.uleb128 0x18
 7327 030a 00       		.byte	0
 7328 030b 00       		.byte	0
 7329 030c 3D       		.uleb128 0x3d
 7330 030d 34       		.uleb128 0x34
 7331 030e 00       		.byte	0
ARM GAS  /var/folders/c6/c789hm653lg9vtl73krp73tm0000gn/T//ccOdjWuU.s 			page 184


 7332 030f 03       		.uleb128 0x3
 7333 0310 0E       		.uleb128 0xe
 7334 0311 3A       		.uleb128 0x3a
 7335 0312 0B       		.uleb128 0xb
 7336 0313 3B       		.uleb128 0x3b
 7337 0314 05       		.uleb128 0x5
 7338 0315 49       		.uleb128 0x49
 7339 0316 13       		.uleb128 0x13
 7340 0317 3F       		.uleb128 0x3f
 7341 0318 19       		.uleb128 0x19
 7342 0319 3C       		.uleb128 0x3c
 7343 031a 19       		.uleb128 0x19
 7344 031b 00       		.byte	0
 7345 031c 00       		.byte	0
 7346 031d 3E       		.uleb128 0x3e
 7347 031e 34       		.uleb128 0x34
 7348 031f 00       		.byte	0
 7349 0320 03       		.uleb128 0x3
 7350 0321 08       		.uleb128 0x8
 7351 0322 3A       		.uleb128 0x3a
 7352 0323 0B       		.uleb128 0xb
 7353 0324 3B       		.uleb128 0x3b
 7354 0325 05       		.uleb128 0x5
 7355 0326 49       		.uleb128 0x49
 7356 0327 13       		.uleb128 0x13
 7357 0328 3F       		.uleb128 0x3f
 7358 0329 19       		.uleb128 0x19
 7359 032a 3C       		.uleb128 0x3c
 7360 032b 19       		.uleb128 0x19
 7361 032c 00       		.byte	0
 7362 032d 00       		.byte	0
 7363 032e 3F       		.uleb128 0x3f
 7364 032f 34       		.uleb128 0x34
 7365 0330 00       		.byte	0
 7366 0331 03       		.uleb128 0x3
 7367 0332 0E       		.uleb128 0xe
 7368 0333 3A       		.uleb128 0x3a
 7369 0334 0B       		.uleb128 0xb
 7370 0335 3B       		.uleb128 0x3b
 7371 0336 0B       		.uleb128 0xb
 7372 0337 49       		.uleb128 0x49
 7373 0338 13       		.uleb128 0x13
 7374 0339 3F       		.uleb128 0x3f
 7375 033a 19       		.uleb128 0x19
 7376 033b 3C       		.uleb128 0x3c
 7377 033c 19       		.uleb128 0x19
 7378 033d 00       		.byte	0
 7379 033e 00       		.byte	0
 7380 033f 40       		.uleb128 0x40
 7381 0340 34       		.uleb128 0x34
 7382 0341 00       		.byte	0
 7383 0342 03       		.uleb128 0x3
 7384 0343 0E       		.uleb128 0xe
 7385 0344 3A       		.uleb128 0x3a
 7386 0345 0B       		.uleb128 0xb
 7387 0346 3B       		.uleb128 0x3b
 7388 0347 0B       		.uleb128 0xb
ARM GAS  /var/folders/c6/c789hm653lg9vtl73krp73tm0000gn/T//ccOdjWuU.s 			page 185


 7389 0348 49       		.uleb128 0x49
 7390 0349 13       		.uleb128 0x13
 7391 034a 3F       		.uleb128 0x3f
 7392 034b 19       		.uleb128 0x19
 7393 034c 02       		.uleb128 0x2
 7394 034d 18       		.uleb128 0x18
 7395 034e 00       		.byte	0
 7396 034f 00       		.byte	0
 7397 0350 41       		.uleb128 0x41
 7398 0351 2E       		.uleb128 0x2e
 7399 0352 00       		.byte	0
 7400 0353 3F       		.uleb128 0x3f
 7401 0354 19       		.uleb128 0x19
 7402 0355 03       		.uleb128 0x3
 7403 0356 0E       		.uleb128 0xe
 7404 0357 3A       		.uleb128 0x3a
 7405 0358 0B       		.uleb128 0xb
 7406 0359 3B       		.uleb128 0x3b
 7407 035a 0B       		.uleb128 0xb
 7408 035b 27       		.uleb128 0x27
 7409 035c 19       		.uleb128 0x19
 7410 035d 3C       		.uleb128 0x3c
 7411 035e 19       		.uleb128 0x19
 7412 035f 00       		.byte	0
 7413 0360 00       		.byte	0
 7414 0361 42       		.uleb128 0x42
 7415 0362 2E       		.uleb128 0x2e
 7416 0363 01       		.byte	0x1
 7417 0364 3F       		.uleb128 0x3f
 7418 0365 19       		.uleb128 0x19
 7419 0366 03       		.uleb128 0x3
 7420 0367 0E       		.uleb128 0xe
 7421 0368 3A       		.uleb128 0x3a
 7422 0369 0B       		.uleb128 0xb
 7423 036a 3B       		.uleb128 0x3b
 7424 036b 05       		.uleb128 0x5
 7425 036c 27       		.uleb128 0x27
 7426 036d 19       		.uleb128 0x19
 7427 036e 3C       		.uleb128 0x3c
 7428 036f 19       		.uleb128 0x19
 7429 0370 01       		.uleb128 0x1
 7430 0371 13       		.uleb128 0x13
 7431 0372 00       		.byte	0
 7432 0373 00       		.byte	0
 7433 0374 43       		.uleb128 0x43
 7434 0375 2E       		.uleb128 0x2e
 7435 0376 01       		.byte	0x1
 7436 0377 3F       		.uleb128 0x3f
 7437 0378 19       		.uleb128 0x19
 7438 0379 03       		.uleb128 0x3
 7439 037a 0E       		.uleb128 0xe
 7440 037b 3A       		.uleb128 0x3a
 7441 037c 0B       		.uleb128 0xb
 7442 037d 3B       		.uleb128 0x3b
 7443 037e 0B       		.uleb128 0xb
 7444 037f 27       		.uleb128 0x27
 7445 0380 19       		.uleb128 0x19
ARM GAS  /var/folders/c6/c789hm653lg9vtl73krp73tm0000gn/T//ccOdjWuU.s 			page 186


 7446 0381 3C       		.uleb128 0x3c
 7447 0382 19       		.uleb128 0x19
 7448 0383 01       		.uleb128 0x1
 7449 0384 13       		.uleb128 0x13
 7450 0385 00       		.byte	0
 7451 0386 00       		.byte	0
 7452 0387 44       		.uleb128 0x44
 7453 0388 2E       		.uleb128 0x2e
 7454 0389 01       		.byte	0x1
 7455 038a 3F       		.uleb128 0x3f
 7456 038b 19       		.uleb128 0x19
 7457 038c 03       		.uleb128 0x3
 7458 038d 0E       		.uleb128 0xe
 7459 038e 3A       		.uleb128 0x3a
 7460 038f 0B       		.uleb128 0xb
 7461 0390 3B       		.uleb128 0x3b
 7462 0391 0B       		.uleb128 0xb
 7463 0392 27       		.uleb128 0x27
 7464 0393 19       		.uleb128 0x19
 7465 0394 49       		.uleb128 0x49
 7466 0395 13       		.uleb128 0x13
 7467 0396 3C       		.uleb128 0x3c
 7468 0397 19       		.uleb128 0x19
 7469 0398 01       		.uleb128 0x1
 7470 0399 13       		.uleb128 0x13
 7471 039a 00       		.byte	0
 7472 039b 00       		.byte	0
 7473 039c 45       		.uleb128 0x45
 7474 039d 2E       		.uleb128 0x2e
 7475 039e 01       		.byte	0x1
 7476 039f 3F       		.uleb128 0x3f
 7477 03a0 19       		.uleb128 0x19
 7478 03a1 03       		.uleb128 0x3
 7479 03a2 0E       		.uleb128 0xe
 7480 03a3 3A       		.uleb128 0x3a
 7481 03a4 0B       		.uleb128 0xb
 7482 03a5 3B       		.uleb128 0x3b
 7483 03a6 0B       		.uleb128 0xb
 7484 03a7 27       		.uleb128 0x27
 7485 03a8 19       		.uleb128 0x19
 7486 03a9 3C       		.uleb128 0x3c
 7487 03aa 19       		.uleb128 0x19
 7488 03ab 00       		.byte	0
 7489 03ac 00       		.byte	0
 7490 03ad 00       		.byte	0
 7491              		.section	.debug_loc,"",%progbits
 7492              	.Ldebug_loc0:
 7493              	.LLST0:
 7494 0000 90000000 		.4byte	.LVL20
 7495 0004 9A000000 		.4byte	.LVL21
 7496 0008 0100     		.2byte	0x1
 7497 000a 50       		.byte	0x50
 7498 000b B4000000 		.4byte	.LVL24
 7499 000f BE000000 		.4byte	.LVL25
 7500 0013 0100     		.2byte	0x1
 7501 0015 50       		.byte	0x50
 7502 0016 D0000000 		.4byte	.LVL27
ARM GAS  /var/folders/c6/c789hm653lg9vtl73krp73tm0000gn/T//ccOdjWuU.s 			page 187


 7503 001a DA000000 		.4byte	.LVL28
 7504 001e 0100     		.2byte	0x1
 7505 0020 50       		.byte	0x50
 7506 0021 DA000000 		.4byte	.LVL28
 7507 0025 DD000000 		.4byte	.LVL29-1
 7508 0029 0300     		.2byte	0x3
 7509 002b 73       		.byte	0x73
 7510 002c 7F       		.sleb128 -1
 7511 002d 9F       		.byte	0x9f
 7512 002e FA000000 		.4byte	.LVL34
 7513 0032 FD000000 		.4byte	.LVL35-1
 7514 0036 0100     		.2byte	0x1
 7515 0038 50       		.byte	0x50
 7516 0039 FD000000 		.4byte	.LVL35-1
 7517 003d 40010000 		.4byte	.LVL39
 7518 0041 0100     		.2byte	0x1
 7519 0043 54       		.byte	0x54
 7520 0044 40010000 		.4byte	.LVL39
 7521 0048 4E010000 		.4byte	.LVL40
 7522 004c 0100     		.2byte	0x1
 7523 004e 50       		.byte	0x50
 7524 004f 4E010000 		.4byte	.LVL40
 7525 0053 51010000 		.4byte	.LVL41-1
 7526 0057 0300     		.2byte	0x3
 7527 0059 7C       		.byte	0x7c
 7528 005a 7F       		.sleb128 -1
 7529 005b 9F       		.byte	0x9f
 7530 005c 70010000 		.4byte	.LVL46
 7531 0060 73010000 		.4byte	.LVL47-1
 7532 0064 0100     		.2byte	0x1
 7533 0066 50       		.byte	0x50
 7534 0067 73010000 		.4byte	.LVL47-1
 7535 006b C8010000 		.4byte	.LVL56
 7536 006f 0100     		.2byte	0x1
 7537 0071 54       		.byte	0x54
 7538 0072 42020000 		.4byte	.LVL70
 7539 0076 4C020000 		.4byte	.LVL71
 7540 007a 0100     		.2byte	0x1
 7541 007c 50       		.byte	0x50
 7542 007d 7C020000 		.4byte	.LVL76
 7543 0081 86020000 		.4byte	.LVL77
 7544 0085 0100     		.2byte	0x1
 7545 0087 50       		.byte	0x50
 7546 0088 9C020000 		.4byte	.LVL79
 7547 008c A6020000 		.4byte	.LVL80
 7548 0090 0100     		.2byte	0x1
 7549 0092 50       		.byte	0x50
 7550 0093 EC020000 		.4byte	.LVL84
 7551 0097 FA020000 		.4byte	.LVL85
 7552 009b 0100     		.2byte	0x1
 7553 009d 50       		.byte	0x50
 7554 009e FA020000 		.4byte	.LVL85
 7555 00a2 FD020000 		.4byte	.LVL86-1
 7556 00a6 0300     		.2byte	0x3
 7557 00a8 7C       		.byte	0x7c
 7558 00a9 7F       		.sleb128 -1
 7559 00aa 9F       		.byte	0x9f
ARM GAS  /var/folders/c6/c789hm653lg9vtl73krp73tm0000gn/T//ccOdjWuU.s 			page 188


 7560 00ab 1C030000 		.4byte	.LVL92
 7561 00af 1F030000 		.4byte	.LVL93-1
 7562 00b3 0100     		.2byte	0x1
 7563 00b5 50       		.byte	0x50
 7564 00b6 1F030000 		.4byte	.LVL93-1
 7565 00ba 50030000 		.4byte	.LVL100
 7566 00be 0100     		.2byte	0x1
 7567 00c0 57       		.byte	0x57
 7568 00c1 DE030000 		.4byte	.LVL115
 7569 00c5 E8030000 		.4byte	.LVL116
 7570 00c9 0100     		.2byte	0x1
 7571 00cb 50       		.byte	0x50
 7572 00cc FA030000 		.4byte	.LVL118
 7573 00d0 04040000 		.4byte	.LVL119
 7574 00d4 0100     		.2byte	0x1
 7575 00d6 50       		.byte	0x50
 7576 00d7 16040000 		.4byte	.LVL121
 7577 00db 20040000 		.4byte	.LVL122
 7578 00df 0100     		.2byte	0x1
 7579 00e1 50       		.byte	0x50
 7580 00e2 32040000 		.4byte	.LVL124
 7581 00e6 3C040000 		.4byte	.LVL125
 7582 00ea 0100     		.2byte	0x1
 7583 00ec 50       		.byte	0x50
 7584 00ed 50040000 		.4byte	.LVL128
 7585 00f1 53040000 		.4byte	.LVL129-1
 7586 00f5 0100     		.2byte	0x1
 7587 00f7 50       		.byte	0x50
 7588 00f8 53040000 		.4byte	.LVL129-1
 7589 00fc 82040000 		.4byte	.LVL132
 7590 0100 0100     		.2byte	0x1
 7591 0102 56       		.byte	0x56
 7592 0103 9C040000 		.4byte	.LVL136
 7593 0107 9F040000 		.4byte	.LVL137-1
 7594 010b 0100     		.2byte	0x1
 7595 010d 50       		.byte	0x50
 7596 010e 9F040000 		.4byte	.LVL137-1
 7597 0112 30050000 		.4byte	.LVL155
 7598 0116 0100     		.2byte	0x1
 7599 0118 58       		.byte	0x58
 7600 0119 58050000 		.4byte	.LVL160
 7601 011d 62050000 		.4byte	.LVL161
 7602 0121 0100     		.2byte	0x1
 7603 0123 50       		.byte	0x50
 7604 0124 74050000 		.4byte	.LVL163
 7605 0128 7E050000 		.4byte	.LVL164
 7606 012c 0100     		.2byte	0x1
 7607 012e 50       		.byte	0x50
 7608 012f 90050000 		.4byte	.LVL166
 7609 0133 9A050000 		.4byte	.LVL167
 7610 0137 0100     		.2byte	0x1
 7611 0139 50       		.byte	0x50
 7612 013a AC050000 		.4byte	.LVL169
 7613 013e B6050000 		.4byte	.LVL170
 7614 0142 0100     		.2byte	0x1
 7615 0144 50       		.byte	0x50
 7616 0145 CA050000 		.4byte	.LVL173
ARM GAS  /var/folders/c6/c789hm653lg9vtl73krp73tm0000gn/T//ccOdjWuU.s 			page 189


 7617 0149 CD050000 		.4byte	.LVL174-1
 7618 014d 0100     		.2byte	0x1
 7619 014f 50       		.byte	0x50
 7620 0150 CD050000 		.4byte	.LVL174-1
 7621 0154 02060000 		.4byte	.LVL178
 7622 0158 0100     		.2byte	0x1
 7623 015a 55       		.byte	0x55
 7624 015b 1C060000 		.4byte	.LVL182
 7625 015f 1F060000 		.4byte	.LVL183-1
 7626 0163 0100     		.2byte	0x1
 7627 0165 50       		.byte	0x50
 7628 0166 1F060000 		.4byte	.LVL183-1
 7629 016a 5A070000 		.4byte	.LVL222
 7630 016e 0100     		.2byte	0x1
 7631 0170 58       		.byte	0x58
 7632 0171 00000000 		.4byte	0
 7633 0175 00000000 		.4byte	0
 7634              	.LLST1:
 7635 0179 82000000 		.4byte	.LVL18
 7636 017d 84000000 		.4byte	.LVL19
 7637 0181 0200     		.2byte	0x2
 7638 0183 30       		.byte	0x30
 7639 0184 9F       		.byte	0x9f
 7640 0185 84000000 		.4byte	.LVL19
 7641 0189 9C000000 		.4byte	.LVL22
 7642 018d 0400     		.2byte	0x4
 7643 018f 74       		.byte	0x74
 7644 0190 BE7F     		.sleb128 -66
 7645 0192 9F       		.byte	0x9f
 7646 0193 9C000000 		.4byte	.LVL22
 7647 0197 A0000000 		.4byte	.LVL23
 7648 019b 0400     		.2byte	0x4
 7649 019d 74       		.byte	0x74
 7650 019e BD7F     		.sleb128 -67
 7651 01a0 9F       		.byte	0x9f
 7652 01a1 32020000 		.4byte	.LVL68
 7653 01a5 34020000 		.4byte	.LVL69
 7654 01a9 0200     		.2byte	0x2
 7655 01ab 30       		.byte	0x30
 7656 01ac 9F       		.byte	0x9f
 7657 01ad 34020000 		.4byte	.LVL69
 7658 01b1 5E020000 		.4byte	.LVL73
 7659 01b5 0500     		.2byte	0x5
 7660 01b7 35       		.byte	0x35
 7661 01b8 75       		.byte	0x75
 7662 01b9 00       		.sleb128 0
 7663 01ba 1C       		.byte	0x1c
 7664 01bb 9F       		.byte	0x9f
 7665 01bc 5E020000 		.4byte	.LVL73
 7666 01c0 60020000 		.4byte	.LVL74
 7667 01c4 0500     		.2byte	0x5
 7668 01c6 36       		.byte	0x36
 7669 01c7 75       		.byte	0x75
 7670 01c8 00       		.sleb128 0
 7671 01c9 1C       		.byte	0x1c
 7672 01ca 9F       		.byte	0x9f
 7673 01cb 60020000 		.4byte	.LVL74
ARM GAS  /var/folders/c6/c789hm653lg9vtl73krp73tm0000gn/T//ccOdjWuU.s 			page 190


 7674 01cf 06030000 		.4byte	.LVL88
 7675 01d3 0500     		.2byte	0x5
 7676 01d5 35       		.byte	0x35
 7677 01d6 75       		.byte	0x75
 7678 01d7 00       		.sleb128 0
 7679 01d8 1C       		.byte	0x1c
 7680 01d9 9F       		.byte	0x9f
 7681 01da 82040000 		.4byte	.LVL132
 7682 01de BC040000 		.4byte	.LVL139
 7683 01e2 0500     		.2byte	0x5
 7684 01e4 35       		.byte	0x35
 7685 01e5 76       		.byte	0x76
 7686 01e6 00       		.sleb128 0
 7687 01e7 1C       		.byte	0x1c
 7688 01e8 9F       		.byte	0x9f
 7689 01e9 BC040000 		.4byte	.LVL139
 7690 01ed BE040000 		.4byte	.LVL140
 7691 01f1 0500     		.2byte	0x5
 7692 01f3 36       		.byte	0x36
 7693 01f4 76       		.byte	0x76
 7694 01f5 00       		.sleb128 0
 7695 01f6 1C       		.byte	0x1c
 7696 01f7 9F       		.byte	0x9f
 7697 01f8 BE040000 		.4byte	.LVL140
 7698 01fc 00060000 		.4byte	.LVL177
 7699 0200 0500     		.2byte	0x5
 7700 0202 35       		.byte	0x35
 7701 0203 76       		.byte	0x76
 7702 0204 00       		.sleb128 0
 7703 0205 1C       		.byte	0x1c
 7704 0206 9F       		.byte	0x9f
 7705 0207 02060000 		.4byte	.LVL178
 7706 020b 3C060000 		.4byte	.LVL185
 7707 020f 0500     		.2byte	0x5
 7708 0211 35       		.byte	0x35
 7709 0212 76       		.byte	0x76
 7710 0213 00       		.sleb128 0
 7711 0214 1C       		.byte	0x1c
 7712 0215 9F       		.byte	0x9f
 7713 0216 3C060000 		.4byte	.LVL185
 7714 021a 3E060000 		.4byte	.LVL186
 7715 021e 0500     		.2byte	0x5
 7716 0220 36       		.byte	0x36
 7717 0221 76       		.byte	0x76
 7718 0222 00       		.sleb128 0
 7719 0223 1C       		.byte	0x1c
 7720 0224 9F       		.byte	0x9f
 7721 0225 3E060000 		.4byte	.LVL186
 7722 0229 DE060000 		.4byte	.LVL207
 7723 022d 0500     		.2byte	0x5
 7724 022f 35       		.byte	0x35
 7725 0230 76       		.byte	0x76
 7726 0231 00       		.sleb128 0
 7727 0232 1C       		.byte	0x1c
 7728 0233 9F       		.byte	0x9f
 7729 0234 00000000 		.4byte	0
 7730 0238 00000000 		.4byte	0
ARM GAS  /var/folders/c6/c789hm653lg9vtl73krp73tm0000gn/T//ccOdjWuU.s 			page 191


 7731              	.LLST2:
 7732 023c 1A000000 		.4byte	.LVL7
 7733 0240 50000000 		.4byte	.LVL13
 7734 0244 0600     		.2byte	0x6
 7735 0246 03       		.byte	0x3
 7736 0247 1C000000 		.4byte	mb1+28
 7737 024b 9F       		.byte	0x9f
 7738 024c 60000000 		.4byte	.LVL14
 7739 0250 F0010000 		.4byte	.LVL61
 7740 0254 0600     		.2byte	0x6
 7741 0256 03       		.byte	0x3
 7742 0257 1C000000 		.4byte	mb1+28
 7743 025b 9F       		.byte	0x9f
 7744 025c F0010000 		.4byte	.LVL61
 7745 0260 48030000 		.4byte	.LVL98
 7746 0264 0600     		.2byte	0x6
 7747 0266 03       		.byte	0x3
 7748 0267 10000000 		.4byte	mb1+16
 7749 026b 9F       		.byte	0x9f
 7750 026c 48030000 		.4byte	.LVL98
 7751 0270 74030000 		.4byte	.LVL105
 7752 0274 0600     		.2byte	0x6
 7753 0276 03       		.byte	0x3
 7754 0277 1C000000 		.4byte	mb1+28
 7755 027b 9F       		.byte	0x9f
 7756 027c 74030000 		.4byte	.LVL105
 7757 0280 DE040000 		.4byte	.LVL145
 7758 0284 0600     		.2byte	0x6
 7759 0286 03       		.byte	0x3
 7760 0287 10000000 		.4byte	mb1+16
 7761 028b 9F       		.byte	0x9f
 7762 028c DE040000 		.4byte	.LVL145
 7763 0290 0A050000 		.4byte	.LVL151
 7764 0294 0600     		.2byte	0x6
 7765 0296 03       		.byte	0x3
 7766 0297 1C000000 		.4byte	mb1+28
 7767 029b 9F       		.byte	0x9f
 7768 029c 0A050000 		.4byte	.LVL151
 7769 02a0 5E060000 		.4byte	.LVL191
 7770 02a4 0600     		.2byte	0x6
 7771 02a6 03       		.byte	0x3
 7772 02a7 10000000 		.4byte	mb1+16
 7773 02ab 9F       		.byte	0x9f
 7774 02ac 5E060000 		.4byte	.LVL191
 7775 02b0 8E060000 		.4byte	.LVL197
 7776 02b4 0600     		.2byte	0x6
 7777 02b6 03       		.byte	0x3
 7778 02b7 1C000000 		.4byte	mb1+28
 7779 02bb 9F       		.byte	0x9f
 7780 02bc 8E060000 		.4byte	.LVL197
 7781 02c0 D6060000 		.4byte	.LVL205
 7782 02c4 0600     		.2byte	0x6
 7783 02c6 03       		.byte	0x3
 7784 02c7 10000000 		.4byte	mb1+16
 7785 02cb 9F       		.byte	0x9f
 7786 02cc D6060000 		.4byte	.LVL205
 7787 02d0 00070000 		.4byte	.LVL212
ARM GAS  /var/folders/c6/c789hm653lg9vtl73krp73tm0000gn/T//ccOdjWuU.s 			page 192


 7788 02d4 0600     		.2byte	0x6
 7789 02d6 03       		.byte	0x3
 7790 02d7 1C000000 		.4byte	mb1+28
 7791 02db 9F       		.byte	0x9f
 7792 02dc 00070000 		.4byte	.LVL212
 7793 02e0 5A070000 		.4byte	.LVL222
 7794 02e4 0600     		.2byte	0x6
 7795 02e6 03       		.byte	0x3
 7796 02e7 10000000 		.4byte	mb1+16
 7797 02eb 9F       		.byte	0x9f
 7798 02ec 60070000 		.4byte	.LVL224
 7799 02f0 7C070000 		.4byte	.LFE230
 7800 02f4 0600     		.2byte	0x6
 7801 02f6 03       		.byte	0x3
 7802 02f7 1C000000 		.4byte	mb1+28
 7803 02fb 9F       		.byte	0x9f
 7804 02fc 00000000 		.4byte	0
 7805 0300 00000000 		.4byte	0
 7806              	.LLST3:
 7807 0304 4A000000 		.4byte	.LVL12
 7808 0308 50000000 		.4byte	.LVL13
 7809 030c 0200     		.2byte	0x2
 7810 030e 30       		.byte	0x30
 7811 030f 9F       		.byte	0x9f
 7812 0310 00000000 		.4byte	0
 7813 0314 00000000 		.4byte	0
 7814              	.LLST4:
 7815 0318 7C000000 		.4byte	.LVL17
 7816 031c 60070000 		.4byte	.LVL224
 7817 0320 0200     		.2byte	0x2
 7818 0322 30       		.byte	0x30
 7819 0323 9F       		.byte	0x9f
 7820 0324 00000000 		.4byte	0
 7821 0328 00000000 		.4byte	0
 7822              	.LLST5:
 7823 032c E2000000 		.4byte	.LVL30
 7824 0330 60070000 		.4byte	.LVL224
 7825 0334 0300     		.2byte	0x3
 7826 0336 08       		.byte	0x8
 7827 0337 20       		.byte	0x20
 7828 0338 9F       		.byte	0x9f
 7829 0339 00000000 		.4byte	0
 7830 033d 00000000 		.4byte	0
 7831              	.LLST6:
 7832 0341 1A010000 		.4byte	.LVL37
 7833 0345 60070000 		.4byte	.LVL224
 7834 0349 0200     		.2byte	0x2
 7835 034b 30       		.byte	0x30
 7836 034c 9F       		.byte	0x9f
 7837 034d 00000000 		.4byte	0
 7838 0351 00000000 		.4byte	0
 7839              	.LLST7:
 7840 0355 58010000 		.4byte	.LVL42
 7841 0359 60070000 		.4byte	.LVL224
 7842 035d 0300     		.2byte	0x3
 7843 035f 08       		.byte	0x8
 7844 0360 20       		.byte	0x20
ARM GAS  /var/folders/c6/c789hm653lg9vtl73krp73tm0000gn/T//ccOdjWuU.s 			page 193


 7845 0361 9F       		.byte	0x9f
 7846 0362 00000000 		.4byte	0
 7847 0366 00000000 		.4byte	0
 7848              	.LLST8:
 7849 036a 90010000 		.4byte	.LVL49
 7850 036e 60070000 		.4byte	.LVL224
 7851 0372 0200     		.2byte	0x2
 7852 0374 30       		.byte	0x30
 7853 0375 9F       		.byte	0x9f
 7854 0376 00000000 		.4byte	0
 7855 037a 00000000 		.4byte	0
 7856              	.LLST9:
 7857 037e AE010000 		.4byte	.LVL51
 7858 0382 60070000 		.4byte	.LVL224
 7859 0386 0300     		.2byte	0x3
 7860 0388 08       		.byte	0x8
 7861 0389 20       		.byte	0x20
 7862 038a 9F       		.byte	0x9f
 7863 038b 00000000 		.4byte	0
 7864 038f 00000000 		.4byte	0
 7865              	.LLST10:
 7866 0393 BC010000 		.4byte	.LVL53
 7867 0397 60070000 		.4byte	.LVL224
 7868 039b 0600     		.2byte	0x6
 7869 039d 03       		.byte	0x3
 7870 039e 00000000 		.4byte	mb1
 7871 03a2 9F       		.byte	0x9f
 7872 03a3 00000000 		.4byte	0
 7873 03a7 00000000 		.4byte	0
 7874              	.LLST11:
 7875 03ab C0010000 		.4byte	.LVL54
 7876 03af F0010000 		.4byte	.LVL61
 7877 03b3 0600     		.2byte	0x6
 7878 03b5 03       		.byte	0x3
 7879 03b6 1C000000 		.4byte	mb1+28
 7880 03ba 9F       		.byte	0x9f
 7881 03bb F0010000 		.4byte	.LVL61
 7882 03bf 48030000 		.4byte	.LVL98
 7883 03c3 0600     		.2byte	0x6
 7884 03c5 03       		.byte	0x3
 7885 03c6 10000000 		.4byte	mb1+16
 7886 03ca 9F       		.byte	0x9f
 7887 03cb 48030000 		.4byte	.LVL98
 7888 03cf 74030000 		.4byte	.LVL105
 7889 03d3 0600     		.2byte	0x6
 7890 03d5 03       		.byte	0x3
 7891 03d6 1C000000 		.4byte	mb1+28
 7892 03da 9F       		.byte	0x9f
 7893 03db 74030000 		.4byte	.LVL105
 7894 03df DE040000 		.4byte	.LVL145
 7895 03e3 0600     		.2byte	0x6
 7896 03e5 03       		.byte	0x3
 7897 03e6 10000000 		.4byte	mb1+16
 7898 03ea 9F       		.byte	0x9f
 7899 03eb DE040000 		.4byte	.LVL145
 7900 03ef 0A050000 		.4byte	.LVL151
 7901 03f3 0600     		.2byte	0x6
ARM GAS  /var/folders/c6/c789hm653lg9vtl73krp73tm0000gn/T//ccOdjWuU.s 			page 194


 7902 03f5 03       		.byte	0x3
 7903 03f6 1C000000 		.4byte	mb1+28
 7904 03fa 9F       		.byte	0x9f
 7905 03fb 0A050000 		.4byte	.LVL151
 7906 03ff 5E060000 		.4byte	.LVL191
 7907 0403 0600     		.2byte	0x6
 7908 0405 03       		.byte	0x3
 7909 0406 10000000 		.4byte	mb1+16
 7910 040a 9F       		.byte	0x9f
 7911 040b 5E060000 		.4byte	.LVL191
 7912 040f 8E060000 		.4byte	.LVL197
 7913 0413 0600     		.2byte	0x6
 7914 0415 03       		.byte	0x3
 7915 0416 1C000000 		.4byte	mb1+28
 7916 041a 9F       		.byte	0x9f
 7917 041b 8E060000 		.4byte	.LVL197
 7918 041f D6060000 		.4byte	.LVL205
 7919 0423 0600     		.2byte	0x6
 7920 0425 03       		.byte	0x3
 7921 0426 10000000 		.4byte	mb1+16
 7922 042a 9F       		.byte	0x9f
 7923 042b D6060000 		.4byte	.LVL205
 7924 042f 00070000 		.4byte	.LVL212
 7925 0433 0600     		.2byte	0x6
 7926 0435 03       		.byte	0x3
 7927 0436 1C000000 		.4byte	mb1+28
 7928 043a 9F       		.byte	0x9f
 7929 043b 00070000 		.4byte	.LVL212
 7930 043f 5A070000 		.4byte	.LVL222
 7931 0443 0600     		.2byte	0x6
 7932 0445 03       		.byte	0x3
 7933 0446 10000000 		.4byte	mb1+16
 7934 044a 9F       		.byte	0x9f
 7935 044b 00000000 		.4byte	0
 7936 044f 00000000 		.4byte	0
 7937              	.LLST12:
 7938 0453 E0010000 		.4byte	.LVL58
 7939 0457 5A070000 		.4byte	.LVL222
 7940 045b 0300     		.2byte	0x3
 7941 045d 08       		.byte	0x8
 7942 045e 20       		.byte	0x20
 7943 045f 9F       		.byte	0x9f
 7944 0460 00000000 		.4byte	0
 7945 0464 00000000 		.4byte	0
 7946              	.LLST13:
 7947 0468 EC010000 		.4byte	.LVL60
 7948 046c 5A070000 		.4byte	.LVL222
 7949 0470 0600     		.2byte	0x6
 7950 0472 03       		.byte	0x3
 7951 0473 00000000 		.4byte	mb1
 7952 0477 9F       		.byte	0x9f
 7953 0478 00000000 		.4byte	0
 7954 047c 00000000 		.4byte	0
 7955              	.LLST14:
 7956 0480 F0010000 		.4byte	.LVL61
 7957 0484 48030000 		.4byte	.LVL98
 7958 0488 0600     		.2byte	0x6
ARM GAS  /var/folders/c6/c789hm653lg9vtl73krp73tm0000gn/T//ccOdjWuU.s 			page 195


 7959 048a 03       		.byte	0x3
 7960 048b 10000000 		.4byte	mb1+16
 7961 048f 9F       		.byte	0x9f
 7962 0490 48030000 		.4byte	.LVL98
 7963 0494 74030000 		.4byte	.LVL105
 7964 0498 0600     		.2byte	0x6
 7965 049a 03       		.byte	0x3
 7966 049b 1C000000 		.4byte	mb1+28
 7967 049f 9F       		.byte	0x9f
 7968 04a0 74030000 		.4byte	.LVL105
 7969 04a4 DE040000 		.4byte	.LVL145
 7970 04a8 0600     		.2byte	0x6
 7971 04aa 03       		.byte	0x3
 7972 04ab 10000000 		.4byte	mb1+16
 7973 04af 9F       		.byte	0x9f
 7974 04b0 DE040000 		.4byte	.LVL145
 7975 04b4 0A050000 		.4byte	.LVL151
 7976 04b8 0600     		.2byte	0x6
 7977 04ba 03       		.byte	0x3
 7978 04bb 1C000000 		.4byte	mb1+28
 7979 04bf 9F       		.byte	0x9f
 7980 04c0 0A050000 		.4byte	.LVL151
 7981 04c4 5E060000 		.4byte	.LVL191
 7982 04c8 0600     		.2byte	0x6
 7983 04ca 03       		.byte	0x3
 7984 04cb 10000000 		.4byte	mb1+16
 7985 04cf 9F       		.byte	0x9f
 7986 04d0 5E060000 		.4byte	.LVL191
 7987 04d4 8E060000 		.4byte	.LVL197
 7988 04d8 0600     		.2byte	0x6
 7989 04da 03       		.byte	0x3
 7990 04db 1C000000 		.4byte	mb1+28
 7991 04df 9F       		.byte	0x9f
 7992 04e0 8E060000 		.4byte	.LVL197
 7993 04e4 D6060000 		.4byte	.LVL205
 7994 04e8 0600     		.2byte	0x6
 7995 04ea 03       		.byte	0x3
 7996 04eb 10000000 		.4byte	mb1+16
 7997 04ef 9F       		.byte	0x9f
 7998 04f0 D6060000 		.4byte	.LVL205
 7999 04f4 00070000 		.4byte	.LVL212
 8000 04f8 0600     		.2byte	0x6
 8001 04fa 03       		.byte	0x3
 8002 04fb 1C000000 		.4byte	mb1+28
 8003 04ff 9F       		.byte	0x9f
 8004 0500 00070000 		.4byte	.LVL212
 8005 0504 5A070000 		.4byte	.LVL222
 8006 0508 0600     		.2byte	0x6
 8007 050a 03       		.byte	0x3
 8008 050b 10000000 		.4byte	mb1+16
 8009 050f 9F       		.byte	0x9f
 8010 0510 00000000 		.4byte	0
 8011 0514 00000000 		.4byte	0
 8012              	.LLST15:
 8013 0518 0C020000 		.4byte	.LVL64
 8014 051c 5A070000 		.4byte	.LVL222
 8015 0520 0300     		.2byte	0x3
ARM GAS  /var/folders/c6/c789hm653lg9vtl73krp73tm0000gn/T//ccOdjWuU.s 			page 196


 8016 0522 08       		.byte	0x8
 8017 0523 20       		.byte	0x20
 8018 0524 9F       		.byte	0x9f
 8019 0525 00000000 		.4byte	0
 8020 0529 00000000 		.4byte	0
 8021              	.LLST16:
 8022 052d 04030000 		.4byte	.LVL87
 8023 0531 5A070000 		.4byte	.LVL222
 8024 0535 0300     		.2byte	0x3
 8025 0537 08       		.byte	0x8
 8026 0538 20       		.byte	0x20
 8027 0539 9F       		.byte	0x9f
 8028 053a 00000000 		.4byte	0
 8029 053e 00000000 		.4byte	0
 8030              	.LLST17:
 8031 0542 38030000 		.4byte	.LVL95
 8032 0546 5A070000 		.4byte	.LVL222
 8033 054a 0300     		.2byte	0x3
 8034 054c 08       		.byte	0x8
 8035 054d 20       		.byte	0x20
 8036 054e 9F       		.byte	0x9f
 8037 054f 00000000 		.4byte	0
 8038 0553 00000000 		.4byte	0
 8039              	.LLST18:
 8040 0557 44030000 		.4byte	.LVL97
 8041 055b 5A070000 		.4byte	.LVL222
 8042 055f 0600     		.2byte	0x6
 8043 0561 03       		.byte	0x3
 8044 0562 00000000 		.4byte	mb1
 8045 0566 9F       		.byte	0x9f
 8046 0567 00000000 		.4byte	0
 8047 056b 00000000 		.4byte	0
 8048              	.LLST19:
 8049 056f 48030000 		.4byte	.LVL98
 8050 0573 74030000 		.4byte	.LVL105
 8051 0577 0600     		.2byte	0x6
 8052 0579 03       		.byte	0x3
 8053 057a 1C000000 		.4byte	mb1+28
 8054 057e 9F       		.byte	0x9f
 8055 057f 74030000 		.4byte	.LVL105
 8056 0583 DE040000 		.4byte	.LVL145
 8057 0587 0600     		.2byte	0x6
 8058 0589 03       		.byte	0x3
 8059 058a 10000000 		.4byte	mb1+16
 8060 058e 9F       		.byte	0x9f
 8061 058f DE040000 		.4byte	.LVL145
 8062 0593 0A050000 		.4byte	.LVL151
 8063 0597 0600     		.2byte	0x6
 8064 0599 03       		.byte	0x3
 8065 059a 1C000000 		.4byte	mb1+28
 8066 059e 9F       		.byte	0x9f
 8067 059f 0A050000 		.4byte	.LVL151
 8068 05a3 5E060000 		.4byte	.LVL191
 8069 05a7 0600     		.2byte	0x6
 8070 05a9 03       		.byte	0x3
 8071 05aa 10000000 		.4byte	mb1+16
 8072 05ae 9F       		.byte	0x9f
ARM GAS  /var/folders/c6/c789hm653lg9vtl73krp73tm0000gn/T//ccOdjWuU.s 			page 197


 8073 05af 5E060000 		.4byte	.LVL191
 8074 05b3 8E060000 		.4byte	.LVL197
 8075 05b7 0600     		.2byte	0x6
 8076 05b9 03       		.byte	0x3
 8077 05ba 1C000000 		.4byte	mb1+28
 8078 05be 9F       		.byte	0x9f
 8079 05bf 8E060000 		.4byte	.LVL197
 8080 05c3 D6060000 		.4byte	.LVL205
 8081 05c7 0600     		.2byte	0x6
 8082 05c9 03       		.byte	0x3
 8083 05ca 10000000 		.4byte	mb1+16
 8084 05ce 9F       		.byte	0x9f
 8085 05cf D6060000 		.4byte	.LVL205
 8086 05d3 00070000 		.4byte	.LVL212
 8087 05d7 0600     		.2byte	0x6
 8088 05d9 03       		.byte	0x3
 8089 05da 1C000000 		.4byte	mb1+28
 8090 05de 9F       		.byte	0x9f
 8091 05df 00070000 		.4byte	.LVL212
 8092 05e3 5A070000 		.4byte	.LVL222
 8093 05e7 0600     		.2byte	0x6
 8094 05e9 03       		.byte	0x3
 8095 05ea 10000000 		.4byte	mb1+16
 8096 05ee 9F       		.byte	0x9f
 8097 05ef 00000000 		.4byte	0
 8098 05f3 00000000 		.4byte	0
 8099              	.LLST20:
 8100 05f7 64030000 		.4byte	.LVL102
 8101 05fb 5A070000 		.4byte	.LVL222
 8102 05ff 0300     		.2byte	0x3
 8103 0601 08       		.byte	0x8
 8104 0602 20       		.byte	0x20
 8105 0603 9F       		.byte	0x9f
 8106 0604 00000000 		.4byte	0
 8107 0608 00000000 		.4byte	0
 8108              	.LLST21:
 8109 060c 70030000 		.4byte	.LVL104
 8110 0610 5A070000 		.4byte	.LVL222
 8111 0614 0600     		.2byte	0x6
 8112 0616 03       		.byte	0x3
 8113 0617 00000000 		.4byte	mb1
 8114 061b 9F       		.byte	0x9f
 8115 061c 00000000 		.4byte	0
 8116 0620 00000000 		.4byte	0
 8117              	.LLST22:
 8118 0624 74030000 		.4byte	.LVL105
 8119 0628 DE040000 		.4byte	.LVL145
 8120 062c 0600     		.2byte	0x6
 8121 062e 03       		.byte	0x3
 8122 062f 10000000 		.4byte	mb1+16
 8123 0633 9F       		.byte	0x9f
 8124 0634 DE040000 		.4byte	.LVL145
 8125 0638 0A050000 		.4byte	.LVL151
 8126 063c 0600     		.2byte	0x6
 8127 063e 03       		.byte	0x3
 8128 063f 1C000000 		.4byte	mb1+28
 8129 0643 9F       		.byte	0x9f
ARM GAS  /var/folders/c6/c789hm653lg9vtl73krp73tm0000gn/T//ccOdjWuU.s 			page 198


 8130 0644 0A050000 		.4byte	.LVL151
 8131 0648 5E060000 		.4byte	.LVL191
 8132 064c 0600     		.2byte	0x6
 8133 064e 03       		.byte	0x3
 8134 064f 10000000 		.4byte	mb1+16
 8135 0653 9F       		.byte	0x9f
 8136 0654 5E060000 		.4byte	.LVL191
 8137 0658 8E060000 		.4byte	.LVL197
 8138 065c 0600     		.2byte	0x6
 8139 065e 03       		.byte	0x3
 8140 065f 1C000000 		.4byte	mb1+28
 8141 0663 9F       		.byte	0x9f
 8142 0664 8E060000 		.4byte	.LVL197
 8143 0668 D6060000 		.4byte	.LVL205
 8144 066c 0600     		.2byte	0x6
 8145 066e 03       		.byte	0x3
 8146 066f 10000000 		.4byte	mb1+16
 8147 0673 9F       		.byte	0x9f
 8148 0674 D6060000 		.4byte	.LVL205
 8149 0678 00070000 		.4byte	.LVL212
 8150 067c 0600     		.2byte	0x6
 8151 067e 03       		.byte	0x3
 8152 067f 1C000000 		.4byte	mb1+28
 8153 0683 9F       		.byte	0x9f
 8154 0684 00070000 		.4byte	.LVL212
 8155 0688 5A070000 		.4byte	.LVL222
 8156 068c 0600     		.2byte	0x6
 8157 068e 03       		.byte	0x3
 8158 068f 10000000 		.4byte	mb1+16
 8159 0693 9F       		.byte	0x9f
 8160 0694 00000000 		.4byte	0
 8161 0698 00000000 		.4byte	0
 8162              	.LLST23:
 8163 069c A4030000 		.4byte	.LVL108
 8164 06a0 5A070000 		.4byte	.LVL222
 8165 06a4 0300     		.2byte	0x3
 8166 06a6 08       		.byte	0x8
 8167 06a7 20       		.byte	0x20
 8168 06a8 9F       		.byte	0x9f
 8169 06a9 00000000 		.4byte	0
 8170 06ad 00000000 		.4byte	0
 8171              	.LLST24:
 8172 06b1 CA030000 		.4byte	.LVL112
 8173 06b5 5A070000 		.4byte	.LVL222
 8174 06b9 0300     		.2byte	0x3
 8175 06bb 08       		.byte	0x8
 8176 06bc 20       		.byte	0x20
 8177 06bd 9F       		.byte	0x9f
 8178 06be 00000000 		.4byte	0
 8179 06c2 00000000 		.4byte	0
 8180              	.LLST25:
 8181 06c6 82040000 		.4byte	.LVL132
 8182 06ca 5A070000 		.4byte	.LVL222
 8183 06ce 0300     		.2byte	0x3
 8184 06d0 08       		.byte	0x8
 8185 06d1 20       		.byte	0x20
 8186 06d2 9F       		.byte	0x9f
ARM GAS  /var/folders/c6/c789hm653lg9vtl73krp73tm0000gn/T//ccOdjWuU.s 			page 199


 8187 06d3 00000000 		.4byte	0
 8188 06d7 00000000 		.4byte	0
 8189              	.LLST26:
 8190 06db CE040000 		.4byte	.LVL142
 8191 06df 5A070000 		.4byte	.LVL222
 8192 06e3 0300     		.2byte	0x3
 8193 06e5 08       		.byte	0x8
 8194 06e6 20       		.byte	0x20
 8195 06e7 9F       		.byte	0x9f
 8196 06e8 00000000 		.4byte	0
 8197 06ec 00000000 		.4byte	0
 8198              	.LLST27:
 8199 06f0 DA040000 		.4byte	.LVL144
 8200 06f4 5A070000 		.4byte	.LVL222
 8201 06f8 0600     		.2byte	0x6
 8202 06fa 03       		.byte	0x3
 8203 06fb 00000000 		.4byte	mb1
 8204 06ff 9F       		.byte	0x9f
 8205 0700 00000000 		.4byte	0
 8206 0704 00000000 		.4byte	0
 8207              	.LLST28:
 8208 0708 DE040000 		.4byte	.LVL145
 8209 070c 0A050000 		.4byte	.LVL151
 8210 0710 0600     		.2byte	0x6
 8211 0712 03       		.byte	0x3
 8212 0713 1C000000 		.4byte	mb1+28
 8213 0717 9F       		.byte	0x9f
 8214 0718 0A050000 		.4byte	.LVL151
 8215 071c 5E060000 		.4byte	.LVL191
 8216 0720 0600     		.2byte	0x6
 8217 0722 03       		.byte	0x3
 8218 0723 10000000 		.4byte	mb1+16
 8219 0727 9F       		.byte	0x9f
 8220 0728 5E060000 		.4byte	.LVL191
 8221 072c 8E060000 		.4byte	.LVL197
 8222 0730 0600     		.2byte	0x6
 8223 0732 03       		.byte	0x3
 8224 0733 1C000000 		.4byte	mb1+28
 8225 0737 9F       		.byte	0x9f
 8226 0738 8E060000 		.4byte	.LVL197
 8227 073c D6060000 		.4byte	.LVL205
 8228 0740 0600     		.2byte	0x6
 8229 0742 03       		.byte	0x3
 8230 0743 10000000 		.4byte	mb1+16
 8231 0747 9F       		.byte	0x9f
 8232 0748 D6060000 		.4byte	.LVL205
 8233 074c 00070000 		.4byte	.LVL212
 8234 0750 0600     		.2byte	0x6
 8235 0752 03       		.byte	0x3
 8236 0753 1C000000 		.4byte	mb1+28
 8237 0757 9F       		.byte	0x9f
 8238 0758 00070000 		.4byte	.LVL212
 8239 075c 5A070000 		.4byte	.LVL222
 8240 0760 0600     		.2byte	0x6
 8241 0762 03       		.byte	0x3
 8242 0763 10000000 		.4byte	mb1+16
 8243 0767 9F       		.byte	0x9f
ARM GAS  /var/folders/c6/c789hm653lg9vtl73krp73tm0000gn/T//ccOdjWuU.s 			page 200


 8244 0768 00000000 		.4byte	0
 8245 076c 00000000 		.4byte	0
 8246              	.LLST29:
 8247 0770 FA040000 		.4byte	.LVL148
 8248 0774 5A070000 		.4byte	.LVL222
 8249 0778 0300     		.2byte	0x3
 8250 077a 08       		.byte	0x8
 8251 077b 20       		.byte	0x20
 8252 077c 9F       		.byte	0x9f
 8253 077d 00000000 		.4byte	0
 8254 0781 00000000 		.4byte	0
 8255              	.LLST30:
 8256 0785 06050000 		.4byte	.LVL150
 8257 0789 5A070000 		.4byte	.LVL222
 8258 078d 0600     		.2byte	0x6
 8259 078f 03       		.byte	0x3
 8260 0790 00000000 		.4byte	mb1
 8261 0794 9F       		.byte	0x9f
 8262 0795 00000000 		.4byte	0
 8263 0799 00000000 		.4byte	0
 8264              	.LLST31:
 8265 079d 0A050000 		.4byte	.LVL151
 8266 07a1 5E060000 		.4byte	.LVL191
 8267 07a5 0600     		.2byte	0x6
 8268 07a7 03       		.byte	0x3
 8269 07a8 10000000 		.4byte	mb1+16
 8270 07ac 9F       		.byte	0x9f
 8271 07ad 5E060000 		.4byte	.LVL191
 8272 07b1 8E060000 		.4byte	.LVL197
 8273 07b5 0600     		.2byte	0x6
 8274 07b7 03       		.byte	0x3
 8275 07b8 1C000000 		.4byte	mb1+28
 8276 07bc 9F       		.byte	0x9f
 8277 07bd 8E060000 		.4byte	.LVL197
 8278 07c1 D6060000 		.4byte	.LVL205
 8279 07c5 0600     		.2byte	0x6
 8280 07c7 03       		.byte	0x3
 8281 07c8 10000000 		.4byte	mb1+16
 8282 07cc 9F       		.byte	0x9f
 8283 07cd D6060000 		.4byte	.LVL205
 8284 07d1 00070000 		.4byte	.LVL212
 8285 07d5 0600     		.2byte	0x6
 8286 07d7 03       		.byte	0x3
 8287 07d8 1C000000 		.4byte	mb1+28
 8288 07dc 9F       		.byte	0x9f
 8289 07dd 00070000 		.4byte	.LVL212
 8290 07e1 5A070000 		.4byte	.LVL222
 8291 07e5 0600     		.2byte	0x6
 8292 07e7 03       		.byte	0x3
 8293 07e8 10000000 		.4byte	mb1+16
 8294 07ec 9F       		.byte	0x9f
 8295 07ed 00000000 		.4byte	0
 8296 07f1 00000000 		.4byte	0
 8297              	.LLST32:
 8298 07f5 44050000 		.4byte	.LVL157
 8299 07f9 5A070000 		.4byte	.LVL222
 8300 07fd 0300     		.2byte	0x3
ARM GAS  /var/folders/c6/c789hm653lg9vtl73krp73tm0000gn/T//ccOdjWuU.s 			page 201


 8301 07ff 08       		.byte	0x8
 8302 0800 20       		.byte	0x20
 8303 0801 9F       		.byte	0x9f
 8304 0802 00000000 		.4byte	0
 8305 0806 00000000 		.4byte	0
 8306              	.LLST33:
 8307 080a 02060000 		.4byte	.LVL178
 8308 080e 5A070000 		.4byte	.LVL222
 8309 0812 0300     		.2byte	0x3
 8310 0814 08       		.byte	0x8
 8311 0815 20       		.byte	0x20
 8312 0816 9F       		.byte	0x9f
 8313 0817 00000000 		.4byte	0
 8314 081b 00000000 		.4byte	0
 8315              	.LLST34:
 8316 081f 4E060000 		.4byte	.LVL188
 8317 0823 5A070000 		.4byte	.LVL222
 8318 0827 0300     		.2byte	0x3
 8319 0829 08       		.byte	0x8
 8320 082a 20       		.byte	0x20
 8321 082b 9F       		.byte	0x9f
 8322 082c 00000000 		.4byte	0
 8323 0830 00000000 		.4byte	0
 8324              	.LLST35:
 8325 0834 5A060000 		.4byte	.LVL190
 8326 0838 5A070000 		.4byte	.LVL222
 8327 083c 0600     		.2byte	0x6
 8328 083e 03       		.byte	0x3
 8329 083f 00000000 		.4byte	mb1
 8330 0843 9F       		.byte	0x9f
 8331 0844 00000000 		.4byte	0
 8332 0848 00000000 		.4byte	0
 8333              	.LLST36:
 8334 084c 5E060000 		.4byte	.LVL191
 8335 0850 8E060000 		.4byte	.LVL197
 8336 0854 0600     		.2byte	0x6
 8337 0856 03       		.byte	0x3
 8338 0857 1C000000 		.4byte	mb1+28
 8339 085b 9F       		.byte	0x9f
 8340 085c 8E060000 		.4byte	.LVL197
 8341 0860 D6060000 		.4byte	.LVL205
 8342 0864 0600     		.2byte	0x6
 8343 0866 03       		.byte	0x3
 8344 0867 10000000 		.4byte	mb1+16
 8345 086b 9F       		.byte	0x9f
 8346 086c D6060000 		.4byte	.LVL205
 8347 0870 00070000 		.4byte	.LVL212
 8348 0874 0600     		.2byte	0x6
 8349 0876 03       		.byte	0x3
 8350 0877 1C000000 		.4byte	mb1+28
 8351 087b 9F       		.byte	0x9f
 8352 087c 00070000 		.4byte	.LVL212
 8353 0880 5A070000 		.4byte	.LVL222
 8354 0884 0600     		.2byte	0x6
 8355 0886 03       		.byte	0x3
 8356 0887 10000000 		.4byte	mb1+16
 8357 088b 9F       		.byte	0x9f
ARM GAS  /var/folders/c6/c789hm653lg9vtl73krp73tm0000gn/T//ccOdjWuU.s 			page 202


 8358 088c 00000000 		.4byte	0
 8359 0890 00000000 		.4byte	0
 8360              	.LLST37:
 8361 0894 7E060000 		.4byte	.LVL194
 8362 0898 5A070000 		.4byte	.LVL222
 8363 089c 0300     		.2byte	0x3
 8364 089e 08       		.byte	0x8
 8365 089f 20       		.byte	0x20
 8366 08a0 9F       		.byte	0x9f
 8367 08a1 00000000 		.4byte	0
 8368 08a5 00000000 		.4byte	0
 8369              	.LLST38:
 8370 08a9 8A060000 		.4byte	.LVL196
 8371 08ad 5A070000 		.4byte	.LVL222
 8372 08b1 0600     		.2byte	0x6
 8373 08b3 03       		.byte	0x3
 8374 08b4 00000000 		.4byte	mb1
 8375 08b8 9F       		.byte	0x9f
 8376 08b9 00000000 		.4byte	0
 8377 08bd 00000000 		.4byte	0
 8378              	.LLST39:
 8379 08c1 8E060000 		.4byte	.LVL197
 8380 08c5 D6060000 		.4byte	.LVL205
 8381 08c9 0600     		.2byte	0x6
 8382 08cb 03       		.byte	0x3
 8383 08cc 10000000 		.4byte	mb1+16
 8384 08d0 9F       		.byte	0x9f
 8385 08d1 D6060000 		.4byte	.LVL205
 8386 08d5 00070000 		.4byte	.LVL212
 8387 08d9 0600     		.2byte	0x6
 8388 08db 03       		.byte	0x3
 8389 08dc 1C000000 		.4byte	mb1+28
 8390 08e0 9F       		.byte	0x9f
 8391 08e1 00070000 		.4byte	.LVL212
 8392 08e5 5A070000 		.4byte	.LVL222
 8393 08e9 0600     		.2byte	0x6
 8394 08eb 03       		.byte	0x3
 8395 08ec 10000000 		.4byte	mb1+16
 8396 08f0 9F       		.byte	0x9f
 8397 08f1 00000000 		.4byte	0
 8398 08f5 00000000 		.4byte	0
 8399              	.LLST40:
 8400 08f9 C6060000 		.4byte	.LVL202
 8401 08fd 5A070000 		.4byte	.LVL222
 8402 0901 0300     		.2byte	0x3
 8403 0903 08       		.byte	0x8
 8404 0904 20       		.byte	0x20
 8405 0905 9F       		.byte	0x9f
 8406 0906 00000000 		.4byte	0
 8407 090a 00000000 		.4byte	0
 8408              	.LLST41:
 8409 090e D2060000 		.4byte	.LVL204
 8410 0912 5A070000 		.4byte	.LVL222
 8411 0916 0600     		.2byte	0x6
 8412 0918 03       		.byte	0x3
 8413 0919 00000000 		.4byte	mb1
 8414 091d 9F       		.byte	0x9f
ARM GAS  /var/folders/c6/c789hm653lg9vtl73krp73tm0000gn/T//ccOdjWuU.s 			page 203


 8415 091e 00000000 		.4byte	0
 8416 0922 00000000 		.4byte	0
 8417              	.LLST42:
 8418 0926 D6060000 		.4byte	.LVL205
 8419 092a 00070000 		.4byte	.LVL212
 8420 092e 0600     		.2byte	0x6
 8421 0930 03       		.byte	0x3
 8422 0931 1C000000 		.4byte	mb1+28
 8423 0935 9F       		.byte	0x9f
 8424 0936 00070000 		.4byte	.LVL212
 8425 093a 5A070000 		.4byte	.LVL222
 8426 093e 0600     		.2byte	0x6
 8427 0940 03       		.byte	0x3
 8428 0941 10000000 		.4byte	mb1+16
 8429 0945 9F       		.byte	0x9f
 8430 0946 00000000 		.4byte	0
 8431 094a 00000000 		.4byte	0
 8432              	.LLST43:
 8433 094e F0060000 		.4byte	.LVL209
 8434 0952 5A070000 		.4byte	.LVL222
 8435 0956 0300     		.2byte	0x3
 8436 0958 08       		.byte	0x8
 8437 0959 20       		.byte	0x20
 8438 095a 9F       		.byte	0x9f
 8439 095b 00000000 		.4byte	0
 8440 095f 00000000 		.4byte	0
 8441              	.LLST44:
 8442 0963 FC060000 		.4byte	.LVL211
 8443 0967 5A070000 		.4byte	.LVL222
 8444 096b 0600     		.2byte	0x6
 8445 096d 03       		.byte	0x3
 8446 096e 00000000 		.4byte	mb1
 8447 0972 9F       		.byte	0x9f
 8448 0973 00000000 		.4byte	0
 8449 0977 00000000 		.4byte	0
 8450              	.LLST45:
 8451 097b 00070000 		.4byte	.LVL212
 8452 097f 5A070000 		.4byte	.LVL222
 8453 0983 0600     		.2byte	0x6
 8454 0985 03       		.byte	0x3
 8455 0986 10000000 		.4byte	mb1+16
 8456 098a 9F       		.byte	0x9f
 8457 098b 00000000 		.4byte	0
 8458 098f 00000000 		.4byte	0
 8459              	.LLST46:
 8460 0993 1A070000 		.4byte	.LVL215
 8461 0997 5A070000 		.4byte	.LVL222
 8462 099b 0300     		.2byte	0x3
 8463 099d 08       		.byte	0x8
 8464 099e 20       		.byte	0x20
 8465 099f 9F       		.byte	0x9f
 8466 09a0 00000000 		.4byte	0
 8467 09a4 00000000 		.4byte	0
 8468              	.LLST47:
 8469 09a8 3C070000 		.4byte	.LVL219
 8470 09ac 5A070000 		.4byte	.LVL222
 8471 09b0 0300     		.2byte	0x3
ARM GAS  /var/folders/c6/c789hm653lg9vtl73krp73tm0000gn/T//ccOdjWuU.s 			page 204


 8472 09b2 08       		.byte	0x8
 8473 09b3 20       		.byte	0x20
 8474 09b4 9F       		.byte	0x9f
 8475 09b5 00000000 		.4byte	0
 8476 09b9 00000000 		.4byte	0
 8477              		.section	.debug_aranges,"",%progbits
 8478 0000 2C000000 		.4byte	0x2c
 8479 0004 0200     		.2byte	0x2
 8480 0006 00000000 		.4byte	.Ldebug_info0
 8481 000a 04       		.byte	0x4
 8482 000b 00       		.byte	0
 8483 000c 0000     		.2byte	0
 8484 000e 0000     		.2byte	0
 8485 0010 00000000 		.4byte	.LFB157
 8486 0014 34000000 		.4byte	.LFE157-.LFB157
 8487 0018 00000000 		.4byte	.LFB229
 8488 001c 14000000 		.4byte	.LFE229-.LFB229
 8489 0020 00000000 		.4byte	.LFB230
 8490 0024 7C070000 		.4byte	.LFE230-.LFB230
 8491 0028 00000000 		.4byte	0
 8492 002c 00000000 		.4byte	0
 8493              		.section	.debug_ranges,"",%progbits
 8494              	.Ldebug_ranges0:
 8495 0000 04000000 		.4byte	.LBB352
 8496 0004 06000000 		.4byte	.LBE352
 8497 0008 08000000 		.4byte	.LBB362
 8498 000c 0C000000 		.4byte	.LBE362
 8499 0010 0E000000 		.4byte	.LBB370
 8500 0014 16000000 		.4byte	.LBE370
 8501 0018 00000000 		.4byte	0
 8502 001c 00000000 		.4byte	0
 8503 0020 04000000 		.4byte	.LBB354
 8504 0024 06000000 		.4byte	.LBE354
 8505 0028 08000000 		.4byte	.LBB359
 8506 002c 0C000000 		.4byte	.LBE359
 8507 0030 00000000 		.4byte	0
 8508 0034 00000000 		.4byte	0
 8509 0038 0C000000 		.4byte	.LBB363
 8510 003c 0E000000 		.4byte	.LBE363
 8511 0040 16000000 		.4byte	.LBB371
 8512 0044 1E000000 		.4byte	.LBE371
 8513 0048 00000000 		.4byte	0
 8514 004c 00000000 		.4byte	0
 8515 0050 0C000000 		.4byte	.LBB365
 8516 0054 0E000000 		.4byte	.LBE365
 8517 0058 1A000000 		.4byte	.LBB368
 8518 005c 1E000000 		.4byte	.LBE368
 8519 0060 00000000 		.4byte	0
 8520 0064 00000000 		.4byte	0
 8521 0068 2E000000 		.4byte	.LBB372
 8522 006c 50000000 		.4byte	.LBE372
 8523 0070 60070000 		.4byte	.LBB552
 8524 0074 68070000 		.4byte	.LBE552
 8525 0078 00000000 		.4byte	0
 8526 007c 00000000 		.4byte	0
 8527 0080 60000000 		.4byte	.LBB378
 8528 0084 84000000 		.4byte	.LBE378
ARM GAS  /var/folders/c6/c789hm653lg9vtl73krp73tm0000gn/T//ccOdjWuU.s 			page 205


 8529 0088 68070000 		.4byte	.LBB553
 8530 008c 7C070000 		.4byte	.LBE553
 8531 0090 00000000 		.4byte	0
 8532 0094 00000000 		.4byte	0
 8533 0098 BC010000 		.4byte	.LBB409
 8534 009c C4010000 		.4byte	.LBE409
 8535 00a0 C6010000 		.4byte	.LBB416
 8536 00a4 C8010000 		.4byte	.LBE416
 8537 00a8 00000000 		.4byte	0
 8538 00ac 00000000 		.4byte	0
 8539 00b0 C0010000 		.4byte	.LBB411
 8540 00b4 C4010000 		.4byte	.LBE411
 8541 00b8 C6010000 		.4byte	.LBB414
 8542 00bc C8010000 		.4byte	.LBE414
 8543 00c0 00000000 		.4byte	0
 8544 00c4 00000000 		.4byte	0
 8545 00c8 7E040000 		.4byte	.LBB464
 8546 00cc 80040000 		.4byte	.LBE464
 8547 00d0 82040000 		.4byte	.LBB474
 8548 00d4 88040000 		.4byte	.LBE474
 8549 00d8 8A040000 		.4byte	.LBB475
 8550 00dc 92040000 		.4byte	.LBE475
 8551 00e0 00000000 		.4byte	0
 8552 00e4 00000000 		.4byte	0
 8553 00e8 7E040000 		.4byte	.LBB466
 8554 00ec 80040000 		.4byte	.LBE466
 8555 00f0 82040000 		.4byte	.LBB471
 8556 00f4 88040000 		.4byte	.LBE471
 8557 00f8 00000000 		.4byte	0
 8558 00fc 00000000 		.4byte	0
 8559 0100 00060000 		.4byte	.LBB499
 8560 0104 08060000 		.4byte	.LBE499
 8561 0108 0A060000 		.4byte	.LBB505
 8562 010c 12060000 		.4byte	.LBE505
 8563 0110 00000000 		.4byte	0
 8564 0114 00000000 		.4byte	0
 8565 0118 00000000 		.4byte	.LFB157
 8566 011c 34000000 		.4byte	.LFE157
 8567 0120 00000000 		.4byte	.LFB229
 8568 0124 14000000 		.4byte	.LFE229
 8569 0128 00000000 		.4byte	.LFB230
 8570 012c 7C070000 		.4byte	.LFE230
 8571 0130 00000000 		.4byte	0
 8572 0134 00000000 		.4byte	0
 8573              		.section	.debug_line,"",%progbits
 8574              	.Ldebug_line0:
 8575 0000 92060000 		.section	.debug_str,"MS",%progbits,1
 8575      02007902 
 8575      00000201 
 8575      FB0E0D00 
 8575      01010101 
 8576              	.LASF177:
 8577 0000 474E5520 		.ascii	"GNU C 4.8.4 20140725 (release) [ARM/embedded-4_8-br"
 8577      4320342E 
 8577      382E3420 
 8577      32303134 
 8577      30373235 
ARM GAS  /var/folders/c6/c789hm653lg9vtl73krp73tm0000gn/T//ccOdjWuU.s 			page 206


 8578 0033 616E6368 		.ascii	"anch revision 213147] -mcpu=cortex-m4 -mno-thumb-in"
 8578      20726576 
 8578      6973696F 
 8578      6E203231 
 8578      33313437 
 8579 0066 74657277 		.ascii	"terwork -mthumb -ggdb -O2 -fomit-frame-pointer -fal"
 8579      6F726B20 
 8579      2D6D7468 
 8579      756D6220 
 8579      2D676764 
 8580 0099 69676E2D 		.ascii	"ign-functions=16 -ffunction-sections -fdata-section"
 8580      66756E63 
 8580      74696F6E 
 8580      733D3136 
 8580      202D6666 
 8581 00cc 73202D66 		.ascii	"s -fno-common -flto\000"
 8581      6E6F2D63 
 8581      6F6D6D6F 
 8581      6E202D66 
 8581      6C746F00 
 8582              	.LASF98:
 8583 00e0 74625F70 		.ascii	"tb_ptr\000"
 8583      747200
 8584              	.LASF55:
 8585 00e7 72656164 		.ascii	"ready_list_t\000"
 8585      795F6C69 
 8585      73745F74 
 8585      00
 8586              	.LASF163:
 8587 00f4 63684D42 		.ascii	"chMBObjectInit\000"
 8587      4F626A65 
 8587      6374496E 
 8587      697400
 8588              	.LASF2:
 8589 0103 73697A65 		.ascii	"size_t\000"
 8589      5F7400
 8590              	.LASF113:
 8591 010a 7264796D 		.ascii	"rdymsg\000"
 8591      736700
 8592              	.LASF17:
 8593 0111 75696E74 		.ascii	"uint64_t\000"
 8593      36345F74 
 8593      00
 8594              	.LASF85:
 8595 011a 6B65726E 		.ascii	"kernel_stats\000"
 8595      656C5F73 
 8595      74617473 
 8595      00
 8596              	.LASF3:
 8597 0127 5F5F7569 		.ascii	"__uint8_t\000"
 8597      6E74385F 
 8597      7400
 8598              	.LASF171:
 8599 0131 63684D42 		.ascii	"chMBPostI\000"
 8599      506F7374 
 8599      4900
 8600              	.LASF91:
ARM GAS  /var/folders/c6/c789hm653lg9vtl73krp73tm0000gn/T//ccOdjWuU.s 			page 207


 8601 013b 706F7274 		.ascii	"port_intctx\000"
 8601      5F696E74 
 8601      63747800 
 8602              	.LASF54:
 8603 0147 63685F74 		.ascii	"ch_threads_queue\000"
 8603      68726561 
 8603      64735F71 
 8603      75657565 
 8603      00
 8604              	.LASF74:
 8605 0158 73797374 		.ascii	"system_debug_t\000"
 8605      656D5F64 
 8605      65627567 
 8605      5F7400
 8606              	.LASF86:
 8607 0167 69646C65 		.ascii	"idle_thread_wa\000"
 8607      5F746872 
 8607      6561645F 
 8607      776100
 8608              	.LASF144:
 8609 0176 706F7274 		.ascii	"port_lock\000"
 8609      5F6C6F63 
 8609      6B00
 8610              	.LASF104:
 8611 0180 776F7273 		.ascii	"worst\000"
 8611      7400
 8612              	.LASF107:
 8613 0186 74696D65 		.ascii	"time_measurement_t\000"
 8613      5F6D6561 
 8613      73757265 
 8613      6D656E74 
 8613      5F7400
 8614              	.LASF172:
 8615 0199 63684D42 		.ascii	"chMBPostAheadI\000"
 8615      506F7374 
 8615      41686561 
 8615      644900
 8616              	.LASF13:
 8617 01a8 6C6F6E67 		.ascii	"long long unsigned int\000"
 8617      206C6F6E 
 8617      6720756E 
 8617      7369676E 
 8617      65642069 
 8618              	.LASF100:
 8619 01bf 63685F74 		.ascii	"ch_trace_buffer_t\000"
 8619      72616365 
 8619      5F627566 
 8619      6665725F 
 8619      7400
 8620              	.LASF95:
 8621 01d1 73655F73 		.ascii	"se_state\000"
 8621      74617465 
 8621      00
 8622              	.LASF114:
 8623 01da 65786974 		.ascii	"exitcode\000"
 8623      636F6465 
 8623      00
ARM GAS  /var/folders/c6/c789hm653lg9vtl73krp73tm0000gn/T//ccOdjWuU.s 			page 208


 8624              	.LASF84:
 8625 01e3 6D61696E 		.ascii	"mainthread\000"
 8625      74687265 
 8625      616400
 8626              	.LASF157:
 8627 01ee 74657374 		.ascii	"test\000"
 8627      00
 8628              	.LASF71:
 8629 01f3 76697274 		.ascii	"virtual_timers_list_t\000"
 8629      75616C5F 
 8629      74696D65 
 8629      72735F6C 
 8629      6973745F 
 8630              	.LASF132:
 8631 0209 6D625F77 		.ascii	"mb_wrptr\000"
 8631      72707472 
 8631      00
 8632              	.LASF19:
 8633 0212 72747469 		.ascii	"rttime_t\000"
 8633      6D655F74 
 8633      00
 8634              	.LASF32:
 8635 021b 705F7072 		.ascii	"p_prio\000"
 8635      696F00
 8636              	.LASF11:
 8637 0222 6C6F6E67 		.ascii	"long long int\000"
 8637      206C6F6E 
 8637      6720696E 
 8637      7400
 8638              	.LASF1:
 8639 0230 7369676E 		.ascii	"signed char\000"
 8639      65642063 
 8639      68617200 
 8640              	.LASF92:
 8641 023c 73655F74 		.ascii	"se_time\000"
 8641      696D6500 
 8642              	.LASF47:
 8643 0244 705F6D70 		.ascii	"p_mpool\000"
 8643      6F6F6C00 
 8644              	.LASF124:
 8645 024c 6D5F7175 		.ascii	"m_queue\000"
 8645      65756500 
 8646              	.LASF174:
 8647 0254 74657374 		.ascii	"test_emit_token\000"
 8647      5F656D69 
 8647      745F746F 
 8647      6B656E00 
 8648              	.LASF83:
 8649 0264 76746C69 		.ascii	"vtlist\000"
 8649      737400
 8650              	.LASF145:
 8651 026b 706F7274 		.ascii	"port_unlock\000"
 8651      5F756E6C 
 8651      6F636B00 
 8652              	.LASF116:
 8653 0277 77747472 		.ascii	"wttrp\000"
 8653      7000
ARM GAS  /var/folders/c6/c789hm653lg9vtl73krp73tm0000gn/T//ccOdjWuU.s 			page 209


 8654              	.LASF169:
 8655 027d 63684D42 		.ascii	"chMBPost\000"
 8655      506F7374 
 8655      00
 8656              	.LASF8:
 8657 0286 6C6F6E67 		.ascii	"long int\000"
 8657      20696E74 
 8657      00
 8658              	.LASF21:
 8659 028f 74737461 		.ascii	"tstate_t\000"
 8659      74655F74 
 8659      00
 8660              	.LASF93:
 8661 0298 73655F74 		.ascii	"se_tp\000"
 8661      7000
 8662              	.LASF142:
 8663 029e 62756666 		.ascii	"buffer\000"
 8663      657200
 8664              	.LASF34:
 8665 02a5 705F6E65 		.ascii	"p_newer\000"
 8665      77657200 
 8666              	.LASF178:
 8667 02ad 2E2E2F2E 		.ascii	"../../../test/rt/testmbox.c\000"
 8667      2E2F2E2E 
 8667      2F746573 
 8667      742F7274 
 8667      2F746573 
 8668              	.LASF121:
 8669 02c9 735F7175 		.ascii	"s_queue\000"
 8669      65756500 
 8670              	.LASF148:
 8671 02d1 63684D42 		.ascii	"chMBGetFreeCountI\000"
 8671      47657446 
 8671      72656543 
 8671      6F756E74 
 8671      4900
 8672              	.LASF97:
 8673 02e3 74625F73 		.ascii	"tb_size\000"
 8673      697A6500 
 8674              	.LASF133:
 8675 02eb 6D625F72 		.ascii	"mb_rdptr\000"
 8675      64707472 
 8675      00
 8676              	.LASF88:
 8677 02f4 72656761 		.ascii	"regarm_t\000"
 8677      726D5F74 
 8677      00
 8678              	.LASF67:
 8679 02fd 76745F70 		.ascii	"vt_prev\000"
 8679      72657600 
 8680              	.LASF162:
 8681 0305 63685379 		.ascii	"chSysHalt\000"
 8681      7348616C 
 8681      7400
 8682              	.LASF75:
 8683 030f 63685F73 		.ascii	"ch_system_debug\000"
 8683      79737465 
ARM GAS  /var/folders/c6/c789hm653lg9vtl73krp73tm0000gn/T//ccOdjWuU.s 			page 210


 8683      6D5F6465 
 8683      62756700 
 8684              	.LASF129:
 8685 031f 6D757465 		.ascii	"mutex_t\000"
 8685      785F7400 
 8686              	.LASF143:
 8687 0327 76616C75 		.ascii	"value\000"
 8687      6500
 8688              	.LASF78:
 8689 032d 6C6F636B 		.ascii	"lock_cnt\000"
 8689      5F636E74 
 8689      00
 8690              	.LASF9:
 8691 0336 5F5F7569 		.ascii	"__uint32_t\000"
 8691      6E743332 
 8691      5F7400
 8692              	.LASF26:
 8693 0341 636E745F 		.ascii	"cnt_t\000"
 8693      7400
 8694              	.LASF37:
 8695 0347 705F7374 		.ascii	"p_stklimit\000"
 8695      6B6C696D 
 8695      697400
 8696              	.LASF0:
 8697 0352 756E7369 		.ascii	"unsigned int\000"
 8697      676E6564 
 8697      20696E74 
 8697      00
 8698              	.LASF66:
 8699 035f 76745F6E 		.ascii	"vt_next\000"
 8699      65787400 
 8700              	.LASF154:
 8701 0367 6D736731 		.ascii	"msg1\000"
 8701      00
 8702              	.LASF155:
 8703 036c 6D736732 		.ascii	"msg2\000"
 8703      00
 8704              	.LASF117:
 8705 0371 77747365 		.ascii	"wtsemp\000"
 8705      6D7000
 8706              	.LASF42:
 8707 0378 705F6D73 		.ascii	"p_msgqueue\000"
 8707      67717565 
 8707      756500
 8708              	.LASF140:
 8709 0383 74656172 		.ascii	"teardown\000"
 8709      646F776E 
 8709      00
 8710              	.LASF135:
 8711 038c 6D625F65 		.ascii	"mb_emptysem\000"
 8711      6D707479 
 8711      73656D00 
 8712              	.LASF108:
 8713 0398 6E5F6972 		.ascii	"n_irq\000"
 8713      7100
 8714              	.LASF122:
 8715 039e 735F636E 		.ascii	"s_cnt\000"
ARM GAS  /var/folders/c6/c789hm653lg9vtl73krp73tm0000gn/T//ccOdjWuU.s 			page 211


 8715      7400
 8716              	.LASF138:
 8717 03a4 6E616D65 		.ascii	"name\000"
 8717      00
 8718              	.LASF179:
 8719 03a9 2F557365 		.ascii	"/Users/savonetj/Downloads/ChibiOS_3.0.2/demos/STM32"
 8719      72732F73 
 8719      61766F6E 
 8719      65746A2F 
 8719      446F776E 
 8720 03dc 2F52542D 		.ascii	"/RT-STM32F407-OLIMEX_E407-LWIP-FATFS-USB\000"
 8720      53544D33 
 8720      32463430 
 8720      372D4F4C 
 8720      494D4558 
 8721              	.LASF6:
 8722 0405 73686F72 		.ascii	"short unsigned int\000"
 8722      7420756E 
 8722      7369676E 
 8722      65642069 
 8722      6E7400
 8723              	.LASF112:
 8724 0418 6B65726E 		.ascii	"kernel_stats_t\000"
 8724      656C5F73 
 8724      74617473 
 8724      5F7400
 8725              	.LASF51:
 8726 0427 63685F74 		.ascii	"ch_thread\000"
 8726      68726561 
 8726      6400
 8727              	.LASF159:
 8728 0431 70617474 		.ascii	"patternmbox\000"
 8728      65726E6D 
 8728      626F7800 
 8729              	.LASF176:
 8730 043d 63684D42 		.ascii	"chMBFetchI\000"
 8730      46657463 
 8730      684900
 8731              	.LASF24:
 8732 0448 6D73675F 		.ascii	"msg_t\000"
 8732      7400
 8733              	.LASF105:
 8734 044e 6C617374 		.ascii	"last\000"
 8734      00
 8735              	.LASF27:
 8736 0453 75636E74 		.ascii	"ucnt_t\000"
 8736      5F7400
 8737              	.LASF60:
 8738 045a 725F6E65 		.ascii	"r_newer\000"
 8738      77657200 
 8739              	.LASF166:
 8740 0462 63684462 		.ascii	"chDbgCheckClassI\000"
 8740      67436865 
 8740      636B436C 
 8740      61737349 
 8740      00
 8741              	.LASF80:
ARM GAS  /var/folders/c6/c789hm653lg9vtl73krp73tm0000gn/T//ccOdjWuU.s 			page 212


 8742 0473 63685F73 		.ascii	"ch_system_t\000"
 8742      79737465 
 8742      6D5F7400 
 8743              	.LASF20:
 8744 047f 746D6F64 		.ascii	"tmode_t\000"
 8744      655F7400 
 8745              	.LASF152:
 8746 0487 6D626F78 		.ascii	"mbox1_setup\000"
 8746      315F7365 
 8746      74757000 
 8747              	.LASF181:
 8748 0493 5F5F6675 		.ascii	"__func__.5862\000"
 8748      6E635F5F 
 8748      2E353836 
 8748      3200
 8749              	.LASF111:
 8750 04a1 6D5F6372 		.ascii	"m_crit_isr\000"
 8750      69745F69 
 8750      737200
 8751              	.LASF56:
 8752 04ac 63685F72 		.ascii	"ch_ready_list\000"
 8752      65616479 
 8752      5F6C6973 
 8752      7400
 8753              	.LASF25:
 8754 04ba 6576656E 		.ascii	"eventmask_t\000"
 8754      746D6173 
 8754      6B5F7400 
 8755              	.LASF7:
 8756 04c6 5F5F696E 		.ascii	"__int32_t\000"
 8756      7433325F 
 8756      7400
 8757              	.LASF158:
 8758 04d0 74657374 		.ascii	"testmbox1\000"
 8758      6D626F78 
 8758      3100
 8759              	.LASF89:
 8760 04da 73746B61 		.ascii	"stkalign_t\000"
 8760      6C69676E 
 8760      5F7400
 8761              	.LASF41:
 8762 04e5 705F7761 		.ascii	"p_waiting\000"
 8762      6974696E 
 8762      6700
 8763              	.LASF161:
 8764 04ef 5F737461 		.ascii	"_stats_stop_measure_crit_thd\000"
 8764      74735F73 
 8764      746F705F 
 8764      6D656173 
 8764      7572655F 
 8765              	.LASF87:
 8766 050c 73697A65 		.ascii	"sizetype\000"
 8766      74797065 
 8766      00
 8767              	.LASF49:
 8768 0515 74687265 		.ascii	"thread_reference_t\000"
 8768      61645F72 
ARM GAS  /var/folders/c6/c789hm653lg9vtl73krp73tm0000gn/T//ccOdjWuU.s 			page 213


 8768      65666572 
 8768      656E6365 
 8768      5F7400
 8769              	.LASF165:
 8770 0528 5F646267 		.ascii	"_dbg_check_lock\000"
 8770      5F636865 
 8770      636B5F6C 
 8770      6F636B00 
 8771              	.LASF72:
 8772 0538 63685F76 		.ascii	"ch_virtual_timers_list\000"
 8772      69727475 
 8772      616C5F74 
 8772      696D6572 
 8772      735F6C69 
 8773              	.LASF173:
 8774 054f 63684D42 		.ascii	"chMBFetch\000"
 8774      46657463 
 8774      6800
 8775              	.LASF182:
 8776 0559 63684D42 		.ascii	"chMBReset\000"
 8776      52657365 
 8776      7400
 8777              	.LASF96:
 8778 0563 63685F73 		.ascii	"ch_swc_event_t\000"
 8778      77635F65 
 8778      76656E74 
 8778      5F7400
 8779              	.LASF73:
 8780 0572 76745F6C 		.ascii	"vt_lasttime\000"
 8780      61737474 
 8780      696D6500 
 8781              	.LASF35:
 8782 057e 705F6F6C 		.ascii	"p_older\000"
 8782      64657200 
 8783              	.LASF59:
 8784 0586 725F6374 		.ascii	"r_ctx\000"
 8784      7800
 8785              	.LASF136:
 8786 058c 6D61696C 		.ascii	"mailbox_t\000"
 8786      626F785F 
 8786      7400
 8787              	.LASF102:
 8788 0596 746D5F63 		.ascii	"tm_calibration_t\000"
 8788      616C6962 
 8788      72617469 
 8788      6F6E5F74 
 8788      00
 8789              	.LASF139:
 8790 05a7 73657475 		.ascii	"setup\000"
 8790      7000
 8791              	.LASF175:
 8792 05ad 5F746573 		.ascii	"_test_assert_sequence\000"
 8792      745F6173 
 8792      73657274 
 8792      5F736571 
 8792      75656E63 
 8793              	.LASF130:
ARM GAS  /var/folders/c6/c789hm653lg9vtl73krp73tm0000gn/T//ccOdjWuU.s 			page 214


 8794 05c3 6D625F62 		.ascii	"mb_buffer\000"
 8794      75666665 
 8794      7200
 8795              	.LASF153:
 8796 05cd 6D626F78 		.ascii	"mbox1_execute\000"
 8796      315F6578 
 8796      65637574 
 8796      6500
 8797              	.LASF62:
 8798 05db 725F6375 		.ascii	"r_current\000"
 8798      7272656E 
 8798      7400
 8799              	.LASF61:
 8800 05e5 725F6F6C 		.ascii	"r_older\000"
 8800      64657200 
 8801              	.LASF12:
 8802 05ed 5F5F7569 		.ascii	"__uint64_t\000"
 8802      6E743634 
 8802      5F7400
 8803              	.LASF106:
 8804 05f8 63756D75 		.ascii	"cumulative\000"
 8804      6C617469 
 8804      766500
 8805              	.LASF22:
 8806 0603 74726566 		.ascii	"trefs_t\000"
 8806      735F7400 
 8807              	.LASF99:
 8808 060b 74625F62 		.ascii	"tb_buffer\000"
 8808      75666665 
 8808      7200
 8809              	.LASF64:
 8810 0615 76697274 		.ascii	"virtual_timer_t\000"
 8810      75616C5F 
 8810      74696D65 
 8810      725F7400 
 8811              	.LASF31:
 8812 0625 705F7072 		.ascii	"p_prev\000"
 8812      657600
 8813              	.LASF141:
 8814 062c 65786563 		.ascii	"execute\000"
 8814      75746500 
 8815              	.LASF23:
 8816 0634 74707269 		.ascii	"tprio_t\000"
 8816      6F5F7400 
 8817              	.LASF109:
 8818 063c 6E5F6374 		.ascii	"n_ctxswc\000"
 8818      78737763 
 8818      00
 8819              	.LASF167:
 8820 0645 5F426F6F 		.ascii	"_Bool\000"
 8820      6C00
 8821              	.LASF15:
 8822 064b 696E7433 		.ascii	"int32_t\000"
 8822      325F7400 
 8823              	.LASF4:
 8824 0653 756E7369 		.ascii	"unsigned char\000"
 8824      676E6564 
ARM GAS  /var/folders/c6/c789hm653lg9vtl73krp73tm0000gn/T//ccOdjWuU.s 			page 215


 8824      20636861 
 8824      7200
 8825              	.LASF149:
 8826 0661 63684D42 		.ascii	"chMBGetUsedCountI\000"
 8826      47657455 
 8826      73656443 
 8826      6F756E74 
 8826      4900
 8827              	.LASF131:
 8828 0673 6D625F74 		.ascii	"mb_top\000"
 8828      6F7000
 8829              	.LASF156:
 8830 067a 49544D5F 		.ascii	"ITM_RxBuffer\000"
 8830      52784275 
 8830      66666572 
 8830      00
 8831              	.LASF45:
 8832 0687 705F6D74 		.ascii	"p_mtxlist\000"
 8832      786C6973 
 8832      7400
 8833              	.LASF5:
 8834 0691 73686F72 		.ascii	"short int\000"
 8834      7420696E 
 8834      7400
 8835              	.LASF38:
 8836 069b 705F7374 		.ascii	"p_state\000"
 8836      61746500 
 8837              	.LASF58:
 8838 06a3 725F7072 		.ascii	"r_prio\000"
 8838      696F00
 8839              	.LASF119:
 8840 06aa 65776D61 		.ascii	"ewmask\000"
 8840      736B00
 8841              	.LASF30:
 8842 06b1 705F6E65 		.ascii	"p_next\000"
 8842      787400
 8843              	.LASF39:
 8844 06b8 705F666C 		.ascii	"p_flags\000"
 8844      61677300 
 8845              	.LASF48:
 8846 06c0 705F7374 		.ascii	"p_stats\000"
 8846      61747300 
 8847              	.LASF146:
 8848 06c8 63685379 		.ascii	"chSysLock\000"
 8848      734C6F63 
 8848      6B00
 8849              	.LASF81:
 8850 06d2 63685F73 		.ascii	"ch_system\000"
 8850      79737465 
 8850      6D00
 8851              	.LASF128:
 8852 06dc 73656D61 		.ascii	"semaphore_t\000"
 8852      70686F72 
 8852      655F7400 
 8853              	.LASF53:
 8854 06e8 74687265 		.ascii	"threads_queue_t\000"
 8854      6164735F 
ARM GAS  /var/folders/c6/c789hm653lg9vtl73krp73tm0000gn/T//ccOdjWuU.s 			page 216


 8854      71756575 
 8854      655F7400 
 8855              	.LASF65:
 8856 06f8 63685F76 		.ascii	"ch_virtual_timer\000"
 8856      69727475 
 8856      616C5F74 
 8856      696D6572 
 8856      00
 8857              	.LASF137:
 8858 0709 74657374 		.ascii	"testcase\000"
 8858      63617365 
 8858      00
 8859              	.LASF120:
 8860 0712 63685F73 		.ascii	"ch_semaphore\000"
 8860      656D6170 
 8860      686F7265 
 8860      00
 8861              	.LASF44:
 8862 071f 705F6570 		.ascii	"p_epending\000"
 8862      656E6469 
 8862      6E6700
 8863              	.LASF16:
 8864 072a 75696E74 		.ascii	"uint32_t\000"
 8864      33325F74 
 8864      00
 8865              	.LASF118:
 8866 0733 77746D74 		.ascii	"wtmtxp\000"
 8866      787000
 8867              	.LASF57:
 8868 073a 725F7175 		.ascii	"r_queue\000"
 8868      65756500 
 8869              	.LASF68:
 8870 0742 76745F64 		.ascii	"vt_delta\000"
 8870      656C7461 
 8870      00
 8871              	.LASF52:
 8872 074b 63685F74 		.ascii	"ch_threads_list\000"
 8872      68726561 
 8872      64735F6C 
 8872      69737400 
 8873              	.LASF10:
 8874 075b 6C6F6E67 		.ascii	"long unsigned int\000"
 8874      20756E73 
 8874      69676E65 
 8874      6420696E 
 8874      7400
 8875              	.LASF127:
 8876 076d 63686172 		.ascii	"char\000"
 8876      00
 8877              	.LASF29:
 8878 0772 74687265 		.ascii	"thread_t\000"
 8878      61645F74 
 8878      00
 8879              	.LASF103:
 8880 077b 62657374 		.ascii	"best\000"
 8880      00
 8881              	.LASF126:
ARM GAS  /var/folders/c6/c789hm653lg9vtl73krp73tm0000gn/T//ccOdjWuU.s 			page 217


 8882 0780 6D5F6E65 		.ascii	"m_next\000"
 8882      787400
 8883              	.LASF28:
 8884 0787 73797374 		.ascii	"systime_t\000"
 8884      696D655F 
 8884      7400
 8885              	.LASF46:
 8886 0791 705F7265 		.ascii	"p_realprio\000"
 8886      616C7072 
 8886      696F00
 8887              	.LASF63:
 8888 079c 76746675 		.ascii	"vtfunc_t\000"
 8888      6E635F74 
 8888      00
 8889              	.LASF147:
 8890 07a5 63685365 		.ascii	"chSemGetCounterI\000"
 8890      6D476574 
 8890      436F756E 
 8890      74657249 
 8890      00
 8891              	.LASF150:
 8892 07b6 5F5F7365 		.ascii	"__set_BASEPRI\000"
 8892      745F4241 
 8892      53455052 
 8892      4900
 8893              	.LASF76:
 8894 07c4 70616E69 		.ascii	"panic_msg\000"
 8894      635F6D73 
 8894      6700
 8895              	.LASF101:
 8896 07ce 6F666673 		.ascii	"offset\000"
 8896      657400
 8897              	.LASF90:
 8898 07d5 636F6E74 		.ascii	"context\000"
 8898      65787400 
 8899              	.LASF170:
 8900 07dd 63684D42 		.ascii	"chMBPostAhead\000"
 8900      506F7374 
 8900      41686561 
 8900      6400
 8901              	.LASF18:
 8902 07eb 7274636E 		.ascii	"rtcnt_t\000"
 8902      745F7400 
 8903              	.LASF70:
 8904 07f3 76745F70 		.ascii	"vt_par\000"
 8904      617200
 8905              	.LASF134:
 8906 07fa 6D625F66 		.ascii	"mb_fullsem\000"
 8906      756C6C73 
 8906      656D00
 8907              	.LASF180:
 8908 0805 74657374 		.ascii	"test_buffers\000"
 8908      5F627566 
 8908      66657273 
 8908      00
 8909              	.LASF123:
 8910 0812 63685F6D 		.ascii	"ch_mutex\000"
ARM GAS  /var/folders/c6/c789hm653lg9vtl73krp73tm0000gn/T//ccOdjWuU.s 			page 218


 8910      75746578 
 8910      00
 8911              	.LASF40:
 8912 081b 705F7265 		.ascii	"p_refs\000"
 8912      667300
 8913              	.LASF77:
 8914 0822 6973725F 		.ascii	"isr_cnt\000"
 8914      636E7400 
 8915              	.LASF82:
 8916 082a 726C6973 		.ascii	"rlist\000"
 8916      7400
 8917              	.LASF14:
 8918 0830 75696E74 		.ascii	"uint8_t\000"
 8918      385F7400 
 8919              	.LASF164:
 8920 0838 5F737461 		.ascii	"_stats_start_measure_crit_thd\000"
 8920      74735F73 
 8920      74617274 
 8920      5F6D6561 
 8920      73757265 
 8921              	.LASF160:
 8922 0856 5F646267 		.ascii	"_dbg_check_unlock\000"
 8922      5F636865 
 8922      636B5F75 
 8922      6E6C6F63 
 8922      6B00
 8923              	.LASF115:
 8924 0868 77746F62 		.ascii	"wtobjp\000"
 8924      6A7000
 8925              	.LASF36:
 8926 086f 705F6E61 		.ascii	"p_name\000"
 8926      6D6500
 8927              	.LASF168:
 8928 0876 5F746573 		.ascii	"_test_assert\000"
 8928      745F6173 
 8928      73657274 
 8928      00
 8929              	.LASF50:
 8930 0883 74687265 		.ascii	"threads_list_t\000"
 8930      6164735F 
 8930      6C697374 
 8930      5F7400
 8931              	.LASF79:
 8932 0892 74726163 		.ascii	"trace_buffer\000"
 8932      655F6275 
 8932      66666572 
 8932      00
 8933              	.LASF151:
 8934 089f 63685379 		.ascii	"chSysUnlock\000"
 8934      73556E6C 
 8934      6F636B00 
 8935              	.LASF43:
 8936 08ab 705F6D73 		.ascii	"p_msg\000"
 8936      6700
 8937              	.LASF110:
 8938 08b1 6D5F6372 		.ascii	"m_crit_thd\000"
 8938      69745F74 
ARM GAS  /var/folders/c6/c789hm653lg9vtl73krp73tm0000gn/T//ccOdjWuU.s 			page 219


 8938      686400
 8939              	.LASF125:
 8940 08bc 6D5F6F77 		.ascii	"m_owner\000"
 8940      6E657200 
 8941              	.LASF94:
 8942 08c4 73655F77 		.ascii	"se_wtobjp\000"
 8942      746F626A 
 8942      7000
 8943              	.LASF33:
 8944 08ce 705F6374 		.ascii	"p_ctx\000"
 8944      7800
 8945              	.LASF69:
 8946 08d4 76745F66 		.ascii	"vt_func\000"
 8946      756E6300 
 8947              		.comm	__gnu_lto_v1,1,1
 8948              		.ident	"GCC: (GNU Tools for ARM Embedded Processors) 4.8.4 20140725 (release) [ARM/embedded-4_8-br
ARM GAS  /var/folders/c6/c789hm653lg9vtl73krp73tm0000gn/T//ccOdjWuU.s 			page 220


DEFINED SYMBOLS
                            *ABS*:0000000000000000 testmbox.c
/var/folders/c6/c789hm653lg9vtl73krp73tm0000gn/T//ccOdjWuU.s:870    .text.chSysUnlock:0000000000000000 $t
/var/folders/c6/c789hm653lg9vtl73krp73tm0000gn/T//ccOdjWuU.s:875    .text.chSysUnlock:0000000000000000 chSysUnlock
/var/folders/c6/c789hm653lg9vtl73krp73tm0000gn/T//ccOdjWuU.s:921    .text.chSysUnlock:000000000000002c $d
/var/folders/c6/c789hm653lg9vtl73krp73tm0000gn/T//ccOdjWuU.s:930    .text.mbox1_setup:0000000000000000 $t
/var/folders/c6/c789hm653lg9vtl73krp73tm0000gn/T//ccOdjWuU.s:935    .text.mbox1_setup:0000000000000000 mbox1_setup
/var/folders/c6/c789hm653lg9vtl73krp73tm0000gn/T//ccOdjWuU.s:952    .text.mbox1_setup:000000000000000c $d
/var/folders/c6/c789hm653lg9vtl73krp73tm0000gn/T//ccOdjWuU.s:958    .text.mbox1_execute:0000000000000000 $t
/var/folders/c6/c789hm653lg9vtl73krp73tm0000gn/T//ccOdjWuU.s:963    .text.mbox1_execute:0000000000000000 mbox1_execute
/var/folders/c6/c789hm653lg9vtl73krp73tm0000gn/T//ccOdjWuU.s:1096   .text.mbox1_execute:0000000000000058 $d
/var/folders/c6/c789hm653lg9vtl73krp73tm0000gn/T//ccOdjWuU.s:1103   .text.mbox1_execute:0000000000000060 $t
/var/folders/c6/c789hm653lg9vtl73krp73tm0000gn/T//ccOdjWuU.s:1748   .text.mbox1_execute:0000000000000390 $d
/var/folders/c6/c789hm653lg9vtl73krp73tm0000gn/T//ccOdjWuU.s:1753   .text.mbox1_execute:00000000000003a0 $t
/var/folders/c6/c789hm653lg9vtl73krp73tm0000gn/T//ccOdjWuU.s:2559   .text.mbox1_execute:0000000000000770 $d
/var/folders/c6/c789hm653lg9vtl73krp73tm0000gn/T//ccOdjWuU.s:2589   .rodata.patternmbox:0000000000000000 patternmbox
/var/folders/c6/c789hm653lg9vtl73krp73tm0000gn/T//ccOdjWuU.s:2610   .rodata.testmbox1:0000000000000000 testmbox1
/var/folders/c6/c789hm653lg9vtl73krp73tm0000gn/T//ccOdjWuU.s:2570   .data.mb1:0000000000000000 $d
/var/folders/c6/c789hm653lg9vtl73krp73tm0000gn/T//ccOdjWuU.s:2574   .data.mb1:0000000000000000 mb1
/var/folders/c6/c789hm653lg9vtl73krp73tm0000gn/T//ccOdjWuU.s:2586   .rodata.patternmbox:0000000000000000 $d
/var/folders/c6/c789hm653lg9vtl73krp73tm0000gn/T//ccOdjWuU.s:2593   .rodata.__func__.5862:0000000000000000 $d
/var/folders/c6/c789hm653lg9vtl73krp73tm0000gn/T//ccOdjWuU.s:2597   .rodata.__func__.5862:0000000000000000 __func__.5862
/var/folders/c6/c789hm653lg9vtl73krp73tm0000gn/T//ccOdjWuU.s:2600   .rodata.str1.4:0000000000000000 $d
/var/folders/c6/c789hm653lg9vtl73krp73tm0000gn/T//ccOdjWuU.s:2607   .rodata.testmbox1:0000000000000000 $d
                            *COM*:0000000000000001 __gnu_lto_v1
                     .debug_frame:0000000000000010 $d
/var/folders/c6/c789hm653lg9vtl73krp73tm0000gn/T//ccOdjWuU.s:929    .text.chSysUnlock:0000000000000034 $t
/var/folders/c6/c789hm653lg9vtl73krp73tm0000gn/T//ccOdjWuU.s:957    .text.mbox1_setup:0000000000000014 $t
/var/folders/c6/c789hm653lg9vtl73krp73tm0000gn/T//ccOdjWuU.s:2569   .text.mbox1_execute:000000000000077c $t

UNDEFINED SYMBOLS
_dbg_check_unlock
_stats_stop_measure_crit_thd
chSysHalt
ch
chMBObjectInit
test
_stats_start_measure_crit_thd
_dbg_check_lock
chDbgCheckClassI
_test_assert
chMBPost
chMBPostAhead
chMBPostI
chMBPostAheadI
chMBFetch
test_emit_token
_test_assert_sequence
chMBFetchI
chMBReset
