ARM GAS  /var/folders/c6/c789hm653lg9vtl73krp73tm0000gn/T//ccdKAQJ7.s 			page 1


   1              		.syntax unified
   2              		.cpu cortex-m4
   3              		.fpu softvfp
   4              		.eabi_attribute 20, 1
   5              		.eabi_attribute 21, 1
   6              		.eabi_attribute 23, 3
   7              		.eabi_attribute 24, 1
   8              		.eabi_attribute 25, 1
   9              		.eabi_attribute 26, 1
  10              		.eabi_attribute 30, 2
  11              		.eabi_attribute 34, 1
  12              		.eabi_attribute 18, 4
  13              		.thumb
  14              		.file	"testheap.c"
  15              		.text
  16              	.Ltext0:
  17              		.section	.gnu.lto_.jmpfuncs.640bb388012340fd,"",%progbits
  18 0000 789C6362 		.ascii	"x\234cb`b\300\006f2Ch\240,\023S\004c&#\003\017\230\013"
  18      6062C006 
  18      66324368 
  18      A02C1353 
  18      04632623 
  19 0018 617343D8 		.ascii	"asC\330\325\014\277\032:\032\0042\031\031s\031\241\372"
  19      D50CBF1A 
  19      3A1A0432 
  19      19197319 
  19      A1FA
  20 002a 18E16AB8 		.ascii	"\030\341j\270p\252!E\020l\024'>\353\030\261J\20152)"
  20      70AA2145 
  20      106C1427 
  20      3EEB18B1 
  20      4A813532 
  21 003f C08DE0C0 		.ascii	"\300\215\340\300\357b\034\372\005\010\311\201\315f'"
  21      EF621CFA 
  21      0508C981 
  21      CD6627
  22 004e E83CB032 		.ascii	"\350<\26026\212\003\004\335bV\252{J\020n6\013\001OQ"
  22      368A0304 
  22      DD6256AA 
  22      7B4A106E 
  22      360B014F 
  23 0063 146C047D 		.ascii	"\024l\004}\306<P\266\343N\204L\0106#L\017C\303\277\377"
  23      C63C50B6 
  23      E34E844C 
  23      0836234C 
  23      0F43C3BF 
  24 0078 FFF99123 		.ascii	"\377\371\221#\231\021\213*\204\277\240F210cq\004\\\204"
  24      99118B2A 
  24      84BFA046 
  24      32313063 
  24      71045C84 
  25 008c 599B6155 		.ascii	"Y\233aUC\003\210\305\222\313\310\230\004s\007\334\322"
  25      430388C5 
  25      92CBC898 
  25      047307DC 
  25      D2
  26 009d 0E3E2013 		.ascii	"\016> \023\000\205\273\212:"
ARM GAS  /var/folders/c6/c789hm653lg9vtl73krp73tm0000gn/T//ccdKAQJ7.s 			page 2


  26      0085BB8A 
  26      3A
  27              		.text
  28              		.section	.gnu.lto_.inline.640bb388012340fd,"",%progbits
  29 0000 789C6362 		.ascii	"x\234cb`b\300\006\3662Bh&\006\216\347\214g\031\030\031"
  29      6062C006 
  29      F6324268 
  29      26068EE7 
  29      8C671918 
  30 0015 98429A9C 		.ascii	"\230B\232\234\030\330\026\310\203\225\263\360\202d&"
  30      18D816C8 
  30      8395B3F0 
  30      826426
  31 0024 F8A1D20C 		.ascii	"\370\241\322\014L\334\014\014\214\030\2420.3\017\012"
  31      4CDC0C0C 
  31      8C18A230 
  31      2E330F0A 
  32 0034 17550F8A 		.ascii	"\027U\017\212V\034jP$\2111\007\273\026\312M\307\243"
  32      561C6A50 
  32      24893107 
  32      BB16CA4D 
  32      C7A3
  33 0046 837C8D78 		.ascii	"\203|\215x\203\007M\024\252\226\221\013\034C\354\374"
  33      83074D14 
  33      AA96910B 
  33      1C43ECFC 
  34 0056 8CE05844 		.ascii	"\214\340XD\216\035f\020\003\000\363\332 \205"
  34      8E1D6610 
  34      0300F3DA 
  34      2085
  35              		.text
  36              		.section	.gnu.lto_.pureconst.640bb388012340fd,"",%progbits
  37 0000 789C6362 		.ascii	"x\234cb`b`e\200\000&\006\011&\011\000\001\000\000>"
  37      60626065 
  37      80002606 
  37      09260900 
  37      0100003E 
  38              		.text
  39              		.section	.gnu.lto_heap1_execute.640bb388012340fd,"",%progbits
  40 0000 789CAD58 		.ascii	"x\234\255X]hTG\024>s\357\376ew\223\335l\262\206@\361"
  40      5D685447 
  40      143E73EF 
  40      FE657793 
  40      DD6CB286 
  41 0016 2FA42954 		.ascii	"/\244)T\023\323\024m\010!\342\203\022B@\321\245\306"
  41      13D3146D 
  41      0821E283 
  41      124240D1 
  41      A5C6
  42 0028 8A246E53 		.ascii	"\212$nS\263\215\011K\223\276\350\203\327d-V\032*BA\244"
  42      B38D094B 
  42      93BEE883 
  42      D7642D56 
  42      1A2A4241 
  43 003d A5116B5B 		.ascii	"\245\021k[IE\304\007\013\3066\264\245M\244\032\012B"
  43      4945C407 
  43      0BC636B4 
ARM GAS  /var/folders/c6/c789hm653lg9vtl73krp73tm0000gn/T//ccdKAQJ7.s 			page 3


  43      A54DA41A 
  43      0A42
  44 004f B5F467E9 		.ascii	"\265\364g\351K-\025\353C\241\245\266n\317\231\231\235"
  44      4B2D15EB 
  44      43A1A5B6 
  44      6ECF9999 
  44      9D
  45 0060 DDCDFDE9 		.ascii	"\335\315\375\351\212w\0113\367\2349\347\314\234\357"
  45      8A770933 
  45      F79C39E7 
  45      CC9CEF
  46 006f FBEEDDBB 		.ascii	"\373\356\335\273\321@\203\245\237\000\003\370\263\026"
  46      D14083A5 
  46      9F0003F8 
  46      B316
  47 007d A013AF59 		.ascii	"\240\023\257Y\034\230v\374\006\300\341\200\246\305f"
  47      1C9876FC 
  47      06C0E180 
  47      A6C566
  48 008c 378011D4 		.ascii	"7\200\021\324o.\003#\254K\313\303-\217\264\274\334\362"
  48      6F2E0323 
  48      AC4BCBC3 
  48      2D8FB4BC 
  48      DCF2
  49 009e 4ACBC72D 		.ascii	"J\313\307-\237\264\374\334\362k\301\251'\321\012L>\205"
  49      9FB4FCDC 
  49      F26BC1A9 
  49      27D10A4C 
  49      3E85
  50 00b0 5640ABBD 		.ascii	"V@\253\275\037G+8\375\034Z\265,H[\261\240\314\010\361"
  50      1F472B38 
  50      FD1C5AB5 
  50      2C485BB1 
  50      A0CC08F1 
  51 00c4 8C90B4C2 		.ascii	"\214\220\264\302\334\012K\253\222[\225\322\252\342V"
  51      DC0A4BAB 
  51      925B95D2 
  51      AAE256
  52 00d3 95B422DC 		.ascii	"\225\264\"\334\212H+\312\255\250\026\273\331\202V\365"
  52      8A482BCA 
  52      ADA816BB 
  52      D98256F5 
  53 00e3 EC72B4AA 		.ascii	"\354r\264\252Y\215h*\226\277\250a\214.\200\301!M\367"
  53      598D682A 
  53      96BFA861 
  53      8C2E80C1 
  53      214DF7
  54 00f6 787DFE40 		.ascii	"x}\376@m0\024\256\254\212D\253c5\354P\037\343\310\254"
  54      6D3014AE 
  54      AC8A44AB 
  54      6335EC50 
  54      1FE3C8AC 
  55 010a 86D38671 		.ascii	"\206\323\206q<{\344\301\311\372c\323\023\307\215\207"
  55      3C7BE4C1 
  55      C9FA63D3 
  55      13C78D87 
  56 011a B91C4B31 		.ascii	"\271\034K1\304p\005\203$\203\235h\260\225|\322<\245"
ARM GAS  /var/folders/c6/c789hm653lg9vtl73krp73tm0000gn/T//ccdKAQJ7.s 			page 4


  56      C4700583 
  56      24839D68 
  56      B0957CD2 
  56      3CA5
  57 012c A0F2CC13 		.ascii	"\240\362\314\023s\357\\{\2538S\327\240\251\314\314\313"
  57      73EF5C7B 
  57      AB3853D7 
  57      A0A9CCCC 
  57      CB
  58 013d D7164E33 		.ascii	"\327\026N3\343\204q\370~.\027\341\231O\227\273\347\227"
  58      E38471F8 
  58      7E2E17E1 
  58      994F97BB 
  58      E797
  59 014f 6FD41B85 		.ascii	"o\324\033\205==\032\254+/\323\270\372\342\274\221\231"
  59      3D3D1AAC 
  59      2B2FD3B8 
  59      FAE2BC91 
  59      99
  60 0160 CBE5BA78 		.ascii	"\313\345\272xV[\231Y\337\226d\255/'k\356\304\334\273"
  60      565B9959 
  60      DF9664AD 
  60      2F276BEE 
  60      C4DCBB
  61 0173 AF4D159F 		.ascii	"\257M\025\237\322\253A{y\231\306\225\302~\230\325\361"
  61      D2AB417B 
  61      7999C695 
  61      C27E98D5 
  61      F1
  62 0184 7F5917B4 		.ascii	"\177Y\027\264\271l.\367\375\305\367~~\233\305^e0\300"
  62      B96C2EF7 
  62      FDC5F77E 
  62      7E9BC55E 
  62      6530C0
  63 0197 4EB3D550 		.ascii	"N\263\325P\201\363\0078\007!\305|a\032\"\322\023%#F"
  63      81F30738 
  63      0721C57C 
  63      611A22D2 
  63      13252346 
  64 01ab 435C7AEA 		.ascii	"C\\z\352p>\207s=\31638/\307E}\005E\254\242\241A\206"
  64      703E8773 
  64      3DCE3338 
  64      2FC7457D 
  64      0545ACA2 
  65 01c2 35CAB026 		.ascii	"5\312\260&\031\266\206\302\326RD\013\015\2552\254M\206"
  65      19B686C2 
  65      D652440B 
  65      0DAD32AC 
  65      4D86
  66 01d4 ADA7E50D 		.ascii	"\255\247\345\015\264\322NC\207\\\356$w\027\015\033\311"
  66      B4D24E43 
  66      875CEE24 
  66      77170D1B 
  66      C9
  67 01e5 BD8986CD 		.ascii	"\275\211\206\315dn\241\253n\032zdh\257\254\264\225\226"
  67      646EA1AB 
  67      6E1A7A64 
ARM GAS  /var/folders/c6/c789hm653lg9vtl73krp73tm0000gn/T//ccdKAQJ7.s 			page 5


  67      68AFACB4 
  67      9596
  68 01f7 B7D1CA76 		.ascii	"\267\321\312v\032\022r\271\217\334\273\310\263\233\206"
  68      1A1272B9 
  68      8FDCBBC8 
  68      B39B86
  69 0206 3DE83E83 		.ascii	"=\350>\203\356~\271\274\227\226\223\2642H\303\020\231"
  69      EE7EB9BC 
  69      979693B4 
  69      3248C310 
  69      99
  70 0217 29BA1AA6 		.ascii	")\272\032\246a\277\214\036\301\371,\316\243\344L\323"
  70      61BF8C1E 
  70      C1F92CCE 
  70      A3E44CD3 
  71 0227 80907A21 		.ascii	"\200\220z!\203\267\305JQG\234A\264<\300\316\363\361"
  71      83B7C54A 
  71      51479C41 
  71      B43CC0CE 
  71      F3F1
  72 0239 028E40BC 		.ascii	"\002\216@\274\340g\007\216t\253%\230F\263\276\010\223"
  72      E067078E 
  72      74AB2598 
  72      46B3BE08 
  72      93
  73 024a D953C901 		.ascii	"\331S\311\001v\221yq\365 \374m\0345\242)\346O2\036\216"
  73      76917971 
  73      F520FC6D 
  73      1C35A229 
  73      E64F321E 
  74 025f 5B040016 		.ascii	"[\004\000\026\341\310\364\207\272)\250\"\311\304\363"
  74      E1C8F487 
  74      BA29A822 
  74      C9C4F3
  75 026e 8B880E8A 		.ascii	"\213\210\016\212\005\374\274\220b!\261\251\314H\261"
  75      05FCBC90 
  75      6221B1A9 
  75      CC48B1
  76 027d 30AF913D 		.ascii	"0\257\221=\3679\023\256}\254BU\251L2\275\270\012M^\242"
  76      F73913AE 
  76      7DAC4255 
  76      A94C32BD 
  76      B80A4D5E 
  77 0292 BD0A6001 		.ascii	"\275\012`\0014\221 \232\3034\200\3530ykrfJ\317W\012"
  77      3491209A 
  77      C33480EB 
  77      30796B72 
  77      664ACF57 
  78 02a7 A29772B8 		.ascii	"\242\227r\270\320\026\301\233\367\207\325\016\221\244"
  78      D016C19B 
  78      F787D50E 
  78      91A4
  79 02b5 58E4A575 		.ascii	"X\344\245uF9)\026\005\230\207\314]u\2400-\372\212\245"
  79      46392916 
  79      059887CC 
  79      5D75A030 
  79      2DFA8AA5 
ARM GAS  /var/folders/c6/c789hm653lg9vtl73krp73tm0000gn/T//ccdKAQJ7.s 			page 6


  80 02c9 9AC073DD 		.ascii	"\232\300s\335\\\206\010e\2623g\374\246\356\253\223\334"
  80      5C860865 
  80      B23367FC 
  80      A6EEAB93 
  80      DC
  81 02da 063A558A 		.ascii	"\006:U\212\305D\207\037\025:\2148v\250\323\235\026\261"
  81      C544871F 
  81      153A8C38 
  81      76A8D39D 
  81      16B1
  82 02ec E932C2BB 		.ascii	"\3512\302\273\\\234\274\\\3502\212^\253.c6]j\224c\356"
  82      5C9CBC5C 
  82      E8328A5E 
  82      AB2E6336 
  82      5D6A9463 
  83 0301 3266D1A5 		.ascii	"2f\321\245\007\026|:Q\374\261\003\305\302C\334\006G"
  83      07167C3A 
  83      51FCB103 
  83      C5C243DC 
  83      0647
  84 0313 589ED883 		.ascii	"X\236\330\203p\300\226\353+\005$\342f$d\271\347K\312"
  84      70C096EB 
  84      2B0524E2 
  84      662464B9 
  84      E74BCA
  85 0326 95323F31 		.ascii	"\2252?1\347+E%.\2048\2530\251{\334\272\347x\335:Q\367"
  85      E72B4525 
  85      2E8438AB 
  85      30A97BDC 
  85      BAE778DD 
  86 033d AAAA5BFF 		.ascii	"\252\252[\377\270ugx\335z\252\233\311~\342\254\235\270"
  86      B8756778 
  86      DD7AAA9B 
  86      C97EE2AC 
  86      9DB8
  87 034f D44E66FA 		.ascii	"\324Nf\372S3\374Equ*n\3361\256^iq!\231oh\2715\237\001"
  87      5333FC45 
  87      71752A6E 
  87      DE31AE5E 
  87      69712199 
  88 0369 4B32CF2F 		.ascii	"K2\317/!\223\224\250\240Y\201\305x\333\254T\206\253"
  88      219394A8 
  88      A05981C5 
  88      78DBAC54 
  88      86AB
  89 037b 6C64A853 		.ascii	"ld\250S\216Y\206\253,d\350\205?\030\3110\373uA9\015"
  89      8E5986AB 
  89      2C64E885 
  89      3F18C930 
  89      FB754139 
  90 0390 EE28A741 		.ascii	"\356(\247A0|]\265\321\350\216r\032E\335\033\252n\223"
  90      307C5DB5 
  90      D1E88E72 
  90      1A45DD1B 
  90      AA6E93
  91 03a3 3BCA6912 		.ascii	";\312i\022\312YtVN\223R\304-GE4\252\270\333\216q\015"
  91      CA597456 
ARM GAS  /var/folders/c6/c789hm653lg9vtl73krp73tm0000gn/T//ccdKAQJ7.s 			page 7


  91      4E9352C4 
  91      2D474534 
  91      AAB8DB8E 
  92 03b9 4A39DF29 		.ascii	"J9\337)\345\254qM9k\261\230\225rZl\224\343\241\034\263"
  92      E5AC714D 
  92      396BB198 
  92      95725A6C 
  92      94E3A11C 
  93 03ce 725A2C94 		.ascii	"rZ,\224\343\203\257\200+\347\207\202rZ\037\205\211j"
  93      E383AF80 
  93      2BE78782 
  93      725A1F85 
  93      896A
  94 03e0 5BE5B40A 		.ascii	"[\345\264\012\206\177Tm\264\271\243\2346\301\360O\316"
  94      867F546D 
  94      B4B9A39C 
  94      36C1F04F 
  94      CE
  95 03f1 0CB72A46 		.ascii	"\014\267*F\356(F\326\273\306\310\006,\266S\274\354\225"
  95      EE2846D6 
  95      BBC6C806 
  95      2CB653BC 
  95      EC95
  96 0403 30D26EC3 		.ascii	"0\322n\303\010\31713\322n\301\210\037\342\234\220_\013"
  96      08CF3133 
  96      D26EC188 
  96      1FE29C90 
  96      5F0B
  97 0415 8474B873 		.ascii	"\204t\270s+w\010<\356*<:\037\007\217y\370\342\027u\302"
  97      2B77083C 
  97      EE2A3C3A 
  97      1F078F79 
  97      F8E21775 
  98 042a 4E25CF42 		.ascii	"N%\317B#\001\010\351E\320t\271\266Y\227B>\377\331\301"
  98      230108E9 
  98      45D074B9 
  98      B6599742 
  98      3EFFD9C1 
  99 043e 6A416709 		.ascii	"jAg\011|A\210\353\327a\342\236\342i\343>z\027+:\305"
  99      7C4188EB 
  99      D761E29E 
  99      E269E33E 
  99      7A172B3A 
 100 0453 261B827C 		.ascii	"&\033\202|\024l&h\323\022\202n\003#\017\376\330\252"
 100      146C2668 
 100      D312826E 
 100      03230FFE 
 100      D8AA
 101 0465 E579E80A 		.ascii	"\345y\350\012\200\364\370y\327!\360\361\327\236{\316"
 101      80F4F879 
 101      D721F0F1 
 101      D79E7BCE 
 102 0475 F26C530F 		.ascii	"\362lS\017\226\337\035\037,\035J\306\177)\3326\273&"
 102      96DF1D1F 
 102      2C1D4AC6 
 102      7F29DA36 
 102      BB26
ARM GAS  /var/folders/c6/c789hm653lg9vtl73krp73tm0000gn/T//ccdKAQJ7.s 			page 8


 103 0487 E32D58CC 		.ascii	"\343-X\314\352\301\322m\203\222\237r\314(u[\3108\014"
 103      EAC1D26D 
 103      83929F72 
 103      CC28755B 
 103      C8380C
 104 049a 1A97F183 		.ascii	"\032\227\361\203\202\214{\334\221q\217x\256\374\243"
 104      828C7BDC 
 104      91718F78 
 104      AEFCA3
 105 04a9 BAE875E7 		.ascii	"\272\350u\347\271\322+\236+\377:\023\327\243\010y\250"
 105      B9D22B9E 
 105      2BFF3A13 
 105      D7A30879 
 105      A8
 106 04ba 08D9EA1A 		.ascii	"\010\331\352\032!\333\260\230\325se\273\015!\001\312"
 106      21DBB098 
 106      D57365BB 
 106      0D2101CA 
 107 04ca 3113B2DD 		.ascii	"1\023\262\335\202\220J\020\257\010\271\002!\211G\001"
 107      82904A10 
 107      AF08B902 
 107      21894701 
 108 04da 6EA52D21 		.ascii	"n\245-!\011\001\334\321\263\216\300%\224\342_\367:\305"
 108      0901DCD1 
 108      B38EC025 
 108      94E25FF7 
 108      3AC5
 109 04ec F52A808F 		.ascii	"\365*\200\217\015\346\017\332\347\032\300\273\260\230"
 109      0DE60FDA 
 109      E71AC0BB 
 109      B098
 110 04fa 95E277DB 		.ascii	"\225\342w\333\000\\A9f\200w[\000\214\340\360\237\002"
 110      005C4139 
 110      6680775B 
 110      008CE0F0 
 110      9F02
 111 050c 53E6F6CA 		.ascii	"S\346\366\312\373)`>\370\304\302\2553\267\265\374\246"
 111      FB29603E 
 111      F8C4C2AD 
 111      33B7B5FC 
 111      A6
 112 051d 7B440807 		.ascii	"{D\010\007'\317\301>\326_&\211\230oG`\277\300\373M\205"
 112      27CFC13E 
 112      D65F2689 
 112      986F4760 
 112      BFC0FB4D 
 113 0532 F75ED7F0 		.ascii	"\367^\327\360Nb1\2167\224\342=h\203w\220r\314x\017Z"
 113      4E62318E 
 113      3794E23D 
 113      68837790 
 113      72CC780F 
 114 0547 E01DE178 		.ascii	"\340\035\341xg\262'\235u\327\257\364tJ\3657\344Z\177"
 114      67B2279D 
 114      75D7AFF4 
 114      744AF537 
 114      E45A7F
 115 055a 292C66A5 		.ascii	"),f\245\247a\233\376B\224c\356o\330\242?\214\241/\263"
ARM GAS  /var/folders/c6/c789hm653lg9vtl73krp73tm0000gn/T//ccdKAQJ7.s 			page 9


 115      A7619BFE 
 115      429463EE 
 115      6FD8A23F 
 115      8CA12FB3 
 116 056e 853BEFAB 		.ascii	"\205;\357\253\260\375y\005\240\277;\357\034\311\377"
 116      B0FD7905 
 116      A0BF3BEF 
 116      1CC9FF
 117 057d 97A2E460 		.ascii	"\227\242\344`\243\030\215k%\207J\333\034*L\361\346C"
 117      A3188D6B 
 117      25874ADB 
 117      1C2A4CF1 
 117      E643
 118 058f A52D0E55 		.ascii	"\245-\016U\315\017\365\331o\352W7\235\347Y\270d\034"
 118      CD0FF5D9 
 118      6FEA5737 
 118      9DE759B8 
 118      641C
 119 05a1 9524972C 		.ascii	"\225$\227,^X\262(j\304\370\177O(p\376e\2072\303\316"
 119      5E58B228 
 119      6AC4F87F 
 119      4F2870FE 
 119      658732C3 
 120 05b6 556A7895 		.ascii	"Ujx\225o\340p\240p\276\035\370m\217^b\364\211\346\346"
 120      6FE070A0 
 120      70BE1DF8 
 120      6D8F5E62 
 120      F489E6E6 
 121 05ca 16F1373E 		.ascii	"\026\3617>86\336\362\3128\237\207\006\007\322\315I\360"
 121      3836DEF2 
 121      CA389F87 
 121      0607D2CD 
 121      49F0
 122 05dc A75E1A1F 		.ascii	"\247^\032\037I7\257\323G\233[=c\007\232\237\321\322"
 122      4937AFD3 
 122      479B5B3D 
 122      63079A9F 
 122      D1D2
 123 05ee AD5A1AC7 		.ascii	"\255Z\032\30766\252\215\035\370\0174(\2757"
 123      3636AA8D 
 123      1DF80F34 
 123      28BD37
 124              		.text
 125              		.section	.gnu.lto_heap1_setup.640bb388012340fd,"",%progbits
 126 0000 789C6362 		.ascii	"x\234cb`b@\007\222@|\000\210\345\200\230\221\231\201"
 126      60624007 
 126      92407C00 
 126      88E58098 
 126      919981
 127 0013 9169C239 		.ascii	"\221i\3029\006\206F\016&FF\020\203\201\221\241\236\211"
 127      0686460E 
 127      26464610 
 127      838191A1 
 127      9E89
 128 0025 B13E9211 		.ascii	"\261>\222\021\254v=\323\201\007\377\377\257\233pl\376"
 128      AC763DD3 
 128      8107FFFF 
ARM GAS  /var/folders/c6/c789hm653lg9vtl73krp73tm0000gn/T//ccdKAQJ7.s 			page 10


 128      AF9B706C 
 128      FE
 129 0036 1EC6194C 		.ascii	"\036\306\031L\314@\021V\206\226\206\206\011\012\014"
 129      CC401156 
 129      86968686 
 129      090A0C
 130 0045 0CC96015 		.ascii	"\014\311`\025!@\022\244-\224\221\011D3\237gh{\320\365"
 130      214012A4 
 130      2D949109 
 130      44339F67 
 130      687BD0F5 
 131 0059 982B9171 		.ascii	"\230+\221q!#+P\272\232\341WCG\203@&#P9\304D\220\010"
 131      21232B50 
 131      BA9AE157 
 131      43478340 
 131      26235039 
 132 0071 47262363 		.ascii	"G&#c.#\003T\021DM\303D\306LF&m\206U\015@0\023\310f\316"
 132      2E230354 
 132      11444DC3 
 132      44C64C46 
 132      266D8655 
 133 008c 65644C82 		.ascii	"edL\202\350\201\251\214\000\012\263t\3601d\2028\027"
 133      E881A98C 
 133      000AB374 
 133      F0316482 
 133      3817
 134 009e 191A1F74 		.ascii	"\031\032\037t+\303,\202\200\020\240%@W\200\374,\243"
 134      2BC32C82 
 134      8010A025 
 134      405780FC 
 134      2CA3
 135 00b0 A7A70F41 		.ascii	"\247\247\017A%\251\305%\372E%`:#5\261@/\231\001\000"
 135      25A9C525 
 135      FA452560 
 135      3A2335B1 
 135      402F9901 
 136 00c5 82E53ABA 		.ascii	"\202\345:\272"
 137              		.text
 138              		.section	.gnu.lto_.symbol_nodes.640bb388012340fd,"",%progbits
 139 0000 789C4D90 		.ascii	"x\234M\220\313J\003A\020E\253\272g2QW\356C\262\363\247"
 139      CB4A0341 
 139      1045ABBA 
 139      67325157 
 139      EE43B2F3 
 140 0015 5C990103 		.ascii	"\\\231\001\003\011D\360\007*\320\240\250\020\305\354"
 140      0944F007 
 140      2AD0A0A8 
 140      10C5EC
 141 0024 44DCF4CA 		.ascii	"D\334\364\312\357\350\275\313d\2534\361\375\372\002"
 141      EFE8BDCB 
 141      64AB34F1 
 141      FDFA02
 142 0033 B1EBF6E0 		.ascii	"\261\353\366\3408\213>}\353q\253z\014\031\3326\224?"
 142      388B3E7D 
 142      EB71AB7A 
 142      0C19DA36 
 142      943F
ARM GAS  /var/folders/c6/c789hm653lg9vtl73krp73tm0000gn/T//ccdKAQJ7.s 			page 11


 143 0045 F3C44274 		.ascii	"\363\304BtqG$r}\262W\256\231\012\261\346\221\205\377"
 143      71472472 
 143      7DB257AE 
 143      990AB1E6 
 143      9185FF
 144 0058 45BF9949 		.ascii	"E\277\231I\250|aS&<\263M\340\017\026\223kf3\3467\026"
 144      A87C6153 
 144      263CB34D 
 144      E00F1693 
 144      6B6633E6 
 145 006e DBAA4F96 		.ascii	"\333\252O\226\242U\357,e\253^Y:\255\372b\251\376\224"
 145      A255EF2C 
 145      65AB5E59 
 145      3AADFA62 
 145      A9FE94
 146 0081 A54D72F7 		.ascii	"\245Mr\367?\211\025yp\203\002\330!\377\240\354R\274"
 146      3F891579 
 146      708302D8 
 146      21FFA0EC 
 146      52BC
 147 0093 DDD1B03B 		.ascii	"\335\321\260;Z\027\032\216`*?^\346\362\206\356\264\321"
 147      5A171A8E 
 147      602A3F5E 
 147      E6F286EE 
 147      B4D1
 148 00a5 6097DC59 		.ascii	"`\227\334Y\246o\030\300\212\"\230\354\347\271>\316{"
 148      A66F18C0 
 148      8A2298EC 
 148      E7B93ECE 
 148      7B
 149 00b6 0A7F0E44 		.ascii	"\012\177\016DEj\272\004BFTT\344\026=m\014\013T\272\245"
 149      456ABA04 
 149      42465454 
 149      E4163D6D 
 149      0C0B54BA 
 150 00cb C538459A 		.ascii	"\3058E\232\266\262XJ\221v\\!\347\257\362\304\014\277"
 150      B6B2584A 
 150      91765C21 
 150      E7AFF2C4 
 150      0CBF
 151 00dd AB297793 		.ascii	"\253)w\223\267\351\303\270\017\337\001l\007p\035\302"
 151      B7E9C3B8 
 151      0FDF016C 
 151      07701DC2 
 152 00ed 7408CF1A 		.ascii	"t\010\317\032m5\034k\030\356\243\013\247\033!;B6\337"
 152      6D351C6B 
 152      18EEA30B 
 152      A71B213B 
 152      4236DF
 153 0100 C778C118 		.ascii	"\307x\301\030\367\011\342\023<f\252\2210\305\370\003"
 153      F709E213 
 153      3C66AA91 
 153      30C5F803 
 154 0110 BCFDD09A 		.ascii	"\274\375\320\232-\374x\372\005\014\366\200\233"
 154      2DFC78FA 
 154      050CF680 
 154      9B
ARM GAS  /var/folders/c6/c789hm653lg9vtl73krp73tm0000gn/T//ccdKAQJ7.s 			page 12


 155              		.text
 156              		.section	.gnu.lto_.refs.640bb388012340fd,"",%progbits
 157 0000 789C6362 		.ascii	"x\234cb`bpe\200\000I\006&F\222!\023\02033\2620\261\002"
 157      60627065 
 157      80004906 
 157      26469221 
 157      13103333 
 158 0018 21131303 		.ascii	"!\023\023\003\003\000*\354\000\323"
 158      03002AEC 
 158      00D3
 159              		.text
 160              		.section	.gnu.lto_.decls.640bb388012340fd,"",%progbits
 161 0000 789CBD5B 		.ascii	"x\234\275[\177p\024\325\035\177o/\271\037ID\324\251"
 161      7F7014D5 
 161      1D7F6F2F 
 161      B91F4944 
 161      D4A9
 162 0012 0DD6D1B3 		.ascii	"\015\326\321\263\325\326\037\205\200R\033g:B\313\214"
 162      D5D61F85 
 162      80521B67 
 162      3A42CB8C 
 163 0022 3FA66A67 		.ascii	"?\246jgZ:\323\351t\346\\.Kr\365~\271\267\007\330\376"
 163      5A3AD3E9 
 163      74E65C2E 
 163      4B72F57E 
 163      B9B707D8 
 164 0037 E17A6088 		.ascii	"\341z`\210bm\004\225\200\304$XTZQ\203\250\200A\026F"
 164      626D0495 
 164      80C42458 
 164      545A5183 
 164      A8804116 
 165 004c 42EA0F08 		.ascii	"B\352\017\010\001\371\225\212\001,\206\"\012E( p\375"
 165      01F9958A 
 165      012C8622 
 165      0A452820 
 165      70FD
 166 005e BEF776EF 		.ascii	"\276\367v\357v\367v\357v\017\332\235\354\333w\273\357"
 166      76F776EF 
 166      760FDA9D 
 166      ECDB77BB 
 166      EF
 167 006f 7DBEBFBF 		.ascii	"}\276\277\277\357\307n8\304\241\211\030\241,\034;\353"
 167      EFC76E38 
 167      C4A18918 
 167      A12C1C3B 
 167      EB
 168 0080 11DAE645 		.ascii	"\021\332\346E\310\203\020\272\035\316J\365\354\202s"
 168      C88310BA 
 168      1DCE4AF5 
 168      EC8273
 169 008f 199C9DD0 		.ascii	"\031\234\235\320\256\013N\370C/@\341\207\353J\270\366"
 169      AE0B4EF8 
 169      432F40E1 
 169      87EB4AB8 
 169      F6
 170 00a0 C0B916CE 		.ascii	"\300\271\026\316\215p~\004\347\0268\267\303\271\013"
 170      8D707E04 
ARM GAS  /var/folders/c6/c789hm653lg9vtl73krp73tm0000gn/T//ccdKAQJ7.s 			page 13


 170      E71638B7 
 170      C3B90B
 171 00af CE0A68F3 		.ascii	"\316\012h\363)\\\367\302\271\037\316S\244\263\356 \375"
 171      295CF7C2 
 171      B91FCE53 
 171      A4B3EE20 
 171      FD
 172 00c0 2F43ACDD 		.ascii	"/C\254\335\0108kT\232\023T\232\353\010\006\207\320\016"
 172      08386B54 
 172      9A13549A 
 172      EB080687 
 172      D00E
 173 00d2 B856728C 		.ascii	"\270Vr\214\227\017\240\336\007\247\027~\017\300\325"
 173      970FA0DE 
 173      07A7177E 
 173      0FC0D5
 174 00e1 075785F0 		.ascii	"\007W\205\360\003\327M*\276W\305\336\256\362\265E\345"
 174      03D74D2A 
 174      BE57C5DE 
 174      AEF2B545 
 174      E5
 175 00f2 F12395FF 		.ascii	"\361#\225\377OM|\020\031H\237\200JC\223\225\360\262"
 175      4F4D7C10 
 175      19489F80 
 175      4A439395 
 175      F0B2
 176 0104 5B2733A7 		.ascii	"['3\247\266\335\245\3265\331\364G5z\\\2263rg\263|W\337"
 176      B6DDA5D6 
 176      35D9F447 
 176      357A5C96 
 176      337267B3 
 177 011b 884BD153 		.ascii	"\210K\321S2\034\301\026\"\375o0\217G\004\220\314\321"
 177      321CC116 
 177      22FD6F30 
 177      8F470490 
 177      CCD1
 178 012d 5A4D0005 		.ascii	"ZM\000\005\241\371u\350/\262\334:\364h\307Ur\005\217"
 178      A1F975E8 
 178      2FB2DC3A 
 178      F468C755 
 178      72058F
 179 0140 17E34B01 		.ascii	"\027\343K\001\370{\030\335\210\226B\277VY^|\005*<J\303"
 179      F87B18DD 
 179      889642BF 
 179      56595E7C 
 179      052A3C4A 
 180 0155 72A81E23 		.ascii	"r\250\036#\036\277\010x<^\202odtdems\015\241C\356#\365"
 180      1EBF0878 
 180      3C5E826F 
 180      64746465 
 180      6D730DA1 
 181 016d 89C5710D 		.ascii	"\211\305q\015\352\004\031\224-\275\213F\311\235\353"
 181      EA041994 
 181      2DBD8B46 
 181      C99DEB
 182 017c B141A4CB 		.ascii	"\261A\244\313\3213\2046\374\220\261\304\343\011\325"
 182      D1338436 
ARM GAS  /var/folders/c6/c789hm653lg9vtl73krp73tm0000gn/T//ccdKAQJ7.s 			page 14


 182      FC90B1C4 
 182      E309D5
 183 018b 1A03418D 		.ascii	"\032\003A\215~\005\305\340\361\337\360\345\264\346\241"
 183      7E05C5E0 
 183      F1DFF0E5 
 183      B4E6A1
 184 019a BA4201D4 		.ascii	"\272B\001\324\222GA\226\275Te,h\336~\014g\000\237\307"
 184      92474196 
 184      BD54652C 
 184      68DE7E0C 
 184      67009FC7 
 185 01ae CB70007A 		.ascii	"\313p\000zw`l`\226\307\225\001=\277\364\267\326\200"
 185      77606C60 
 185      96C79501 
 185      3DBFF4B7 
 185      D680
 186 01c0 E0D1C76A 		.ascii	"\340\321\307j\2058\367\305\244\315\257=\271\016E\210"
 186      8538F7C5 
 186      A4CDAF3D 
 186      B90E4588 
 187 01d0 B7CF79FB 		.ascii	"\267\317y\373\006Y\366\363\370\257 7\207\3367\2216\350"
 187      0659F6F3 
 187      F8AF2037 
 187      87DE3791 
 187      36E8
 188 01e2 82C96827 		.ascii	"\202\311h'\377r\000\260Vq\3013\016\\\\\263\227\025\234"
 188      FF7200B0 
 188      5671C133 
 188      0E5C5CB3 
 188      97159C
 189 01f5 5A3530AF 		.ascii	"Z50\257\267\225<\264\341_}\236\205\262\3226\36624\227"
 189      B7953CB4 
 189      E15F7D9E 
 189      85B2D236 
 189      F6323497 
 190 0209 D847F1EA 		.ascii	"\330G\361\352\235c\242\206\340\247\304\366Qbo\342\313"
 190      9D63A286 
 190      E0A7C4F6 
 190      51626FE2 
 190      CB
 191 021a 8CCE31AF 		.ascii	"\214\3161\257\327\023d\267K\373\3063\315\177\276B\356"
 191      D71364B7 
 191      4BFBC633 
 191      CD7FBE42 
 191      EE
 192 022b 7CA256B5 		.ascii	"|\242V\265\252\322,\267\340G\272\257\264\246\250\252"
 192      AAD22CB7 
 192      E047BAAF 
 192      B4A6A8AA 
 193 023b 76CDE62F 		.ascii	"v\315\346/\273T\273\256\242v}\2323*\327\015Xv\356\346"
 193      BB54BBAE 
 193      A2767D9A 
 193      332AD70D 
 193      5876EEE6 
 194 024f 752A580F 		.ascii	"u*X\017\005\373\242|\260\316\301\035W\222\260XK\201"
 194      05FBA27C 
 194      B0CEC11D 
ARM GAS  /var/folders/c6/c789hm653lg9vtl73krp73tm0000gn/T//ccdKAQJ7.s 			page 15


 194      5792B058 
 194      4B81
 195 0261 063C666F 		.ascii	"\006<fo\013\230\274-`\364\266@ _\311j\2071-\374O\373"
 195      0B98BC2D 
 195      60F4B640 
 195      205FC96A 
 195      87312DFC 
 196 0277 70E8138F 		.ascii	"p\350\023\217fP+!K{\317\222\003/c\022\351jb\351\234"
 196      66502B21 
 196      4B7BCF92 
 196      032F6312 
 196      E96A62E9 
 197 028c A88B5003 		.ascii	"\250\213P\003\024\341\352=sR\231\337\213\203\354v)\277"
 197      14E1EA3D 
 197      735299DF 
 197      8B83EC76 
 197      29BF
 198 029e 91958EDE 		.ascii	"\221\225\216\336\017\260<\267F\365\322N\257]* H\033"
 198      0FB03CB7 
 198      46F5D24E 
 198      AF5D2A20 
 198      481B
 199 02b0 CD0EBAA0 		.ascii	"\315\016\272\240\227\013\262\333\245\035\364\271\346"
 199      970BB2DB 
 199      A51DF4B9 
 199      E6
 200 02bd F6C2E465 		.ascii	"\366\302\344e\320Q\001\275\367\241\261zph?U\351F\233"
 200      D05101BD 
 200      F7A1B17A 
 200      70683F55 
 200      E9469B
 201 02d0 E6A5549A 		.ascii	"\346\245T\232Q\026\365\326\264\362<\356\242Yd\270\\"
 201      5116F5D6 
 201      B4F23CEE 
 201      A25964B8 
 201      5C
 202 02e1 B0DCC1A1 		.ascii	"\260\334\301\241\303\024\343\27523DF\351V\263\271\226"
 202      C314E3BD 
 202      32334446 
 202      E956B3B9 
 202      96
 203 02f2 54BF728D 		.ascii	"T\277r\215\027,\340\351\353r\375N\207q\302c\312|V\030"
 203      172CE0E9 
 203      EB72FD4E 
 203      8771C263 
 203      CA7C5618 
 204 0306 7E3BB964 		.ascii	"~;\271de\347\035\255\2746 \352\274I\306Z\337\221(\227"
 204      65E71DAD 
 204      BC3620EA 
 204      BC49C65A 
 204      DF912897 
 205 031a 344E77DC 		.ascii	"4Nw\334J\342|\033\035f\333+\214q^\022\204CKh\227\035"
 205      4AE27C1B 
 205      1D66DB2B 
 205      8C715E12 
 205      84434B68 
 206 0330 E60038C6 		.ascii	"\346\0008\306\007\331\335\322\376\177\374\237\001p\177"
ARM GAS  /var/folders/c6/c789hm653lg9vtl73krp73tm0000gn/T//ccdKAQJ7.s 			page 16


 206      07D9DDD2 
 206      FE7FFC9F 
 206      01707F
 207 033f 0B529609 		.ascii	"\013R\226\011s\277r\305\337ey$\217\007)\307[\2559\266"
 207      73BF72C5 
 207      DF657924 
 207      8F0729C7 
 207      5BAD39B6 
 208 0353 0F577063 		.ascii	"\017Wpc\332e\217\211\343\241]\237\237\034\323F\221\367"
 208      DA658F89 
 208      E3A15D9F 
 208      9F1CD346 
 208      91F7
 209 0365 389A0A1C 		.ascii	"8\232\012\034\235c\021M\226\323\020\257F\377\376\274"
 209      9D63114D 
 209      96D310AF 
 209      46FFFEBC 
 210 0375 1C3DFB4F 		.ascii	"\034=\373O\372\350\230\272\237\212\361L\245\265\342"
 210      FAE898BA 
 210      9F8AF14C 
 210      A5B5E2
 211 0384 ED7138F4 		.ascii	"\355q8\364<\355s\240P\216\376z&\307\001Gr\314\177\262"
 211      3CED73A0 
 211      508EFE7A 
 211      26C70147 
 211      72CC7FB2 
 212 0398 5D0D827D 		.ascii	"]\015\202}40_\316\301\226\027T\0137\321(g`\257\271\006"
 212      34305FCE 
 212      C1961754 
 212      0B37D128 
 212      6760AFB9 
 213 03ad 0B1AC03A 		.ascii	"\013\032\300:6\261\010u>S\372\344\320\320\2505T\374"
 213      36B10875 
 213      3E53FAE4 
 213      D0D0A835 
 213      54FC
 214 03bf 2F694C1F 		.ascii	"/iL\037\252\264\034\003\035 e\347n\320\206\323\243\024"
 214      AAB41C03 
 214      1D2065E7 
 214      6ED086D3 
 214      A314
 215 03d1 EA58D950 		.ascii	"\352X\331P\203\363{n\243\326\376\232\002\235\2514\017"
 215      83F37B6E 
 215      A3D6FE9A 
 215      029DA934 
 215      0F
 216 03e2 A73ED370 		.ascii	"\247>\323p\3523\016s\276@\276\242N\336\376\267\3159"
 216      EA330E73 
 216      BE40BEA2 
 216      4EDEFEB7 
 216      CD39
 217 03f4 34DBEBC0 		.ascii	"4\333\353\300r\3669hh\347\347\312m\013de\226G\213H\333"
 217      72F63968 
 217      68E7E7CA 
 217      6D0B6465 
 217      96478B48 
 218 0409 718D434F 		.ascii	"q\215CORZ\247\314\236\274f\363\207\031\374\0105\300"
ARM GAS  /var/folders/c6/c789hm653lg9vtl73krp73tm0000gn/T//ccdKAQJ7.s 			page 17


 218      525AA7CC 
 218      9EBC66F3 
 218      8719FC08 
 218      35C0
 219 041b 2947AEFC 		.ascii	")G\256\374\346\373\363\355CRG\2763\2670\270\226\322"
 219      E6FBF3ED 
 219      435247BE 
 219      33B730B8 
 219      96D2
 220 042d 7F96D23F 		.ascii	"\177\226\322?g\246\377\314\261\241\333Y$\235sD\276c"
 220      67A6FFCC 
 220      B1A1DB59 
 220      249D7344 
 220      BE63
 221 043f E069ABF1 		.ascii	"\340i\253\361\365\366o\025s\2155\233\017\034U\205\314"
 221      F5F66F15 
 221      738D359B 
 221      0F1C5585 
 221      CC
 222 0450 7024643E 		.ascii	"p$d>\364\232\235cB\265\236\030\375m\230(\177\234c\277"
 222      F49A9D63 
 222      42B59E18 
 222      FD6D9828 
 222      7F9C63BF 
 223 0464 AC880539 		.ascii	"\254\210\0059\225\273\227.\227\345\307\274\032\017;"
 223      95BB972E 
 223      97E5C7BC 
 223      1A0F3B
 224 0473 5D23060D 		.ascii	"]#\006\015\232X>@s\000\003\033t\002f\353I\031e\205\036"
 224      9A583E40 
 224      7300031B 
 224      740266EB 
 224      49196585 
 225 0488 6C8F6B30 		.ascii	"l\217k0#go\351\301\366:\001\033i\317\331J=\330g\256"
 225      23676FE9 
 225      C1F63A01 
 225      1B69CFD9 
 225      4A3DD867 
 226 049d C18C9CAD 		.ascii	"\301\214\234\255\326\203}\356\004\254\326\236\263\036"
 226      D6837DEE 
 226      04ACD69E 
 226      B31E
 227 04ab 3DD821D7 		.ascii	"=\330!\327`F\316\336\325\203}\345\004,h\301Y\356\260"
 227      6046CEDE 
 227      D5837DE5 
 227      042C68C1 
 227      59EEB0
 228 04be 9B6B9ED5 		.ascii	"\233k\236\325\3175\377\235K\011\345O\017O\270Na\006"
 228      CF35FF9D 
 228      4B09E54F 
 228      0F4FB84E 
 228      6106
 229 04d0 B9C9487A 		.ascii	"\271\311Hz\333j5.\330pv\306\011b\021\207yK?6\316\362"
 229      DB6A352E 
 229      D87076C6 
 229      09621187 
 229      794B3F36 
ARM GAS  /var/folders/c6/c789hm653lg9vtl73krp73tm0000gn/T//ccdKAQJ7.s 			page 18


 230 04e6 B905339A 		.ascii	"\271\0053\232e\033\0013\344\032u@\032Z\242\324\266\345"
 230      651B0133 
 230      E41A7540 
 230      1A5AA2D4 
 230      B6E5
 231 04f8 B39D5FC3 		.ascii	"\263\235_\303\"k)\226\332Ze\231\3135\226kk\255\333\362"
 231      226B2996 
 231      DA5A6599 
 231      CB35966B 
 231      6BADDBF2 
 232 050c B883BB0E 		.ascii	"\270\203\273\016\312N.\220\343\202\325\265\032[j=\341"
 232      CA4E2E90 
 232      E382D5B5 
 232      1A5B6A3D 
 232      E1
 233 051d 336DF868 		.ascii	"3m\370hG\251\256v\236\320\316\351<\341)'j*\022\012G"
 233      47A9AE76 
 233      9ED0CEE9 
 233      3CE12927 
 233      6A2A120A 
 234 0532 0AD4C4D6 		.ascii	"\012\324\304\326\332v\304\377\242'\336\346\232\270\321"
 234      DA76C4FF 
 234      A227DEE6 
 234      9AB8D1
 235 0541 46DF6C5A 		.ascii	"F\337lZ\364myH\301:e\027\265\014\231\277\364\251\363"
 235      F46D7948 
 235      C13A6517 
 235      B50C99BF 
 235      F4A9F3
 236 0554 97973832 		.ascii	"\227\22782Wx\301g9\351p\200\224\235\273\354&\266mC\201"
 236      5778C167 
 236      39E97080 
 236      949DBBEC 
 236      26B66D43 
 237 0569 5E291B68 		.ascii	"^)\033hp\376\363\365\024h\031\005Z\3413\017P\3304{\301"
 237      70FEF3F5 
 237      14681905 
 237      5AE1330F 
 237      50D8347B 
 238 057e C6F9050E 		.ascii	"\306\371\005\016\344+\005\013\372\013\330\226C\357\232"
 238      E42B050B 
 238      FA0BD896 
 238      43EF9A
 239 058d CD6510A7 		.ascii	"\315e\020\247Hr\312E|\337OV\275*\3133\275n\014\246\250"
 239      4872CA45 
 239      7CDF4F56 
 239      BD2ACB33 
 239      BD6E0CA6 
 240 05a2 065B4ED5 		.ascii	"\006[N\325\323[\240\236\277r\356\364\303\241M\256\345"
 240      D35BA09E 
 240      BF72EEF4 
 240      C3A14DAE 
 240      E5
 241 05b3 F09BE438 		.ascii	"\360\233\3448R\206\034\375\252\034oS9\266_\0009\366"
 241      52861CFD 
 241      AA1C6F53 
 241      39B65F00 
ARM GAS  /var/folders/c6/c789hm653lg9vtl73krp73tm0000gn/T//ccdKAQJ7.s 			page 19


 241      39F6
 242 05c5 B89663A4 		.ascii	"\270\226c\244N\016\262\226\351\273o\025\315\300\216"
 242      4E0EB296 
 242      E9BB6F15 
 242      CDC08E
 243 05d4 76477A38 		.ascii	"vGz8\323\356\310\361\315d\033\206\334.\275\014\2357"
 243      D3EEC8F1 
 243      CD641B86 
 243      DC2EBD0C 
 243      9D37
 244 05e6 A05B6AC8 		.ascii	"\240[j\310\316\226\032\303\252\306\326R\215\375\323"
 244      CE961AC3 
 244      AAC6D652 
 244      8DFDD3
 245 05f5 2AC21C21 		.ascii	"*\302\034!e\007\336\353V\227\032\353)\324\241\262\241"
 245      6507DEEB 
 245      56971AEB 
 245      29D4A1B2 
 245      A1
 246 0606 0677BCCD 		.ascii	"\006w\274\315\202u\003\005:V`E\257\311\210^\243\021"
 246      82750305 
 246      3A566045 
 246      AFC9885E 
 246      A311
 247 0618 E127A174 		.ascii	"\341'\241t\222n\244=\254\336!?|\350\377\336\217Cg)\373"
 247      926EA43D 
 247      ACDE213F 
 247      7CE8FFDE 
 247      8F436729 
 248 062d C480E54C 		.ascii	"\304\200\345Lm\211\003)w\257R\207pf\244Y\376\363A\314"
 248      6D890329 
 248      77AF5287 
 248      7066A459 
 248      FEF341CC 
 249 0641 286BE76A 		.ascii	"(k\347j\313\345\011d\020\377\323y\302\375c\300<:\231"
 249      CBE50964 
 249      10FFD379 
 249      C2FD63C0 
 249      3C3A99
 250 0654 86AAFD36 		.ascii	"\206\252\3756cOn?d\250\366\025\352\203\233\351\364\354"
 250      634F6E3F 
 250      64A8F615 
 250      EA839BE9 
 250      F4EC
 251 0666 69BFD9DE 		.ascii	"i\277\331\336\373\260i\371\260\317\270\321n\027L\233"
 251      FBB069F9 
 251      B0CFB8D1 
 251      6E174C9B 
 252 0676 F4E3E04B 		.ascii	"\364\343\340K\347'&IH?gS\251Rk\263\3735\264\032Jx\031"
 252      E7272649 
 252      483F6753 
 252      A9526BB3 
 252      FB35B41A 
 253 068d 25FC3167 		.ascii	"%\3741gZ\232\035\177ao\263\0320\344Y\351\350\036\244"
 253      5A9A1D7F 
 253      616FB31A 
 253      30E459E9 
ARM GAS  /var/folders/c6/c789hm653lg9vtl73krp73tm0000gn/T//ccdKAQJ7.s 			page 20


 253      E81EA4
 254 06a0 9B4CDAAE 		.ascii	"\233L\332\256\321\356\034\252Ju\242~:X\322\255\224="
 254      D1EE1CAA 
 254      4A75A27E 
 254      3A58D2AD 
 254      943D
 255 06b2 42DF5837 		.ascii	"B\337X7y\242\357\012\226'\006\251\013\356+\260\321z"
 255      79A2EF0A 
 255      962706A9 
 255      0BEE2BB0 
 255      D17A
 256 06c4 73667515 		.ascii	"sfu\025$\303fi\234.\260r\207\235\017l\323\373\300\227"
 256      24C36669 
 256      9C2EB072 
 256      879D0F6C 
 256      D3FBC097 
 257 06d8 E7ED0327 		.ascii	"\347\355\003'\357\261\360\001\266Mh\307\301^=\007\307"
 257      EFB1F001 
 257      B64D68C7 
 257      C15E3D07 
 257      C7
 258 06e9 CF3776B7 		.ascii	"\3177v\267\272\337M:\251\246\370\317\250\351\316\024"
 258      BADF4D3A 
 258      A9A6F8CF 
 258      A8E9CE14 
 259 06f9 98EEA879 		.ascii	"\230\356\250y\362\343ds\245%P\246 \271\203C\177\016"
 259      F2E36473 
 259      A52550A6 
 259      20B98343 
 259      7F0E
 260 070b 38989A06 		.ascii	"8\230\232\006\215\346\325\3710\011Iul-\271C\223\313"
 260      8DE6D5F9 
 260      30094975 
 260      6C2DB943 
 260      93CB
 261 071d 357DA3FA 		.ascii	"5}\243\372\2502\376\305\221(\232\027\260\336{-\262\323"
 261      A832FEC5 
 261      91289A17 
 261      B0DE7B2D 
 261      B2D3
 262 072f B3987639 		.ascii	"\263\230v9l\016gH\323\352\336\353a\007\321\234Q\266"
 262      6C0E6748 
 262      D3EADEEB 
 262      6107D19C 
 262      51B6
 263 0741 CED1EF59 		.ascii	"\316\321\357Y\002?\230Sa\313\325\247\301\204y\376x\374"
 263      023F9853 
 263      61CBD5A7 
 263      C18479FE 
 263      78FC
 264 0753 155D021D 		.ascii	"\025]\002\035\341\256\321\353~\271\023\335_o\347\210"
 264      E1AED1EB 
 264      7EB913DD 
 264      5F6FE788 
 265 0763 B2726AEB 		.ascii	"\262rj\353\"\314\370g\371\250\307\214g\225\217\014x"
 265      22CCF867 
 265      F9A8C78C 
ARM GAS  /var/folders/c6/c789hm653lg9vtl73krp73tm0000gn/T//ccdKAQJ7.s 			page 21


 265      67958F0C 
 265      78
 266 0774 065B2AAD 		.ascii	"\006[*\255\333\351\272\222\215p\033\23507\326\016,\243"
 266      DBE9BA92 
 266      8D701B9D 
 266      3037D60E 
 266      2CA3
 267 0786 2C6260CC 		.ascii	",b`\314\341?r\002Vo'iFy\347Y\315R{\331\316\222k<#s["
 267      E13F7202 
 267      566F2769 
 267      4679E759 
 267      CD527BD9 
 268 07a1 B76BAF6C 		.ascii	"\267k\257l\330\366\356>'x\023\355\371;\372\254a8?\354"
 268      D8F6EE3E 
 268      277813ED 
 268      F93BFAAC 
 268      61383FEC 
 269 07b5 1ACE6888 		.ascii	"\032\316h\210\263\333\211a\237\250\265\332\277WroN\310"
 269      B3DB8961 
 269      9FA8B5DA 
 269      BF57726F 
 269      4EC8
 270 07c7 82519BAE 		.ascii	"\202Q\233\256\275vt\324L"
 270      BD7674D4 
 270      4C
 271 07d0 3A8E6569 		.ascii	":\216eiL=]U\372E\200\021\2108l\306cz\375\322\335K?j"
 271      4C3D5D55 
 271      FA458011 
 271      88386CC6 
 271      637AFDD2 
 272 07e8 20F74B47 		.ascii	" \367KG\323\033\275\356\323\342p-K\213\217z\210\025"
 272      D31BBDEE 
 272      D3E2702D 
 272      4B8B8F7A 
 272      8815
 273 07fa 5EAABA20 		.ascii	"^\252\272 i\3615\012C\230.o\204\031|m\313(m\266\307"
 273      69F1350A 
 273      43982E6F 
 273      84197C6D 
 273      CB286DB6 
 274 080f 185BE11A 		.ascii	"\030[\341\032\321\350no\261W\226\014l\265\023\260\""
 274      D1E86E6F 
 274      B157960C 
 274      6CB513B0 
 274      22
 275 0820 1B992B09 		.ascii	"\033\231+\011\230\033%\367\253\323\206')\371\265\027"
 275      981B25F7 
 275      ABD38627 
 275      29F9B517 
 276 0830 46C9BDAE 		.ascii	"F\311\275\256\2450\250\004\224|p\324\252\025\262\334"
 276      A530A804 
 276      947C70D4 
 276      AA15B2DC 
 277 0840 7DBF9B6F 		.ascii	"}\277\233o\023>9tD\365\230yT\230\276\002az\314\3028"
 277      133E3974 
 277      44F59879 
 277      5498BE02 
ARM GAS  /var/folders/c6/c789hm653lg9vtl73krp73tm0000gn/T//ccdKAQJ7.s 			page 22


 277      617ACCC2 
 278 0855 7ED5BFC5 		.ascii	"~\325\277\305,\221U\366\264\332\225\263:\364\301\304"
 278      2C9155F6 
 278      B4DA95B3 
 278      3AF4C1C4 
 279 0865 E3991E92 		.ascii	"\343\231\036\222\375gy\256\201\3621Z\316\241\345\237"
 279      FD6779AE 
 279      81F2315A 
 279      CEA1E59F 
 280 0875 6839D763 		.ascii	"h9\327c\030\025\376QeJ\036\306@U\253w9f$\377j\217\307"
 280      1815FE51 
 280      654A1EC6 
 280      4055AB77 
 280      396624FF 
 281 088c C3983072 		.ascii	"\303\2300r\020\023\262\207hy\230\226'i\331\306\221r"
 281      1013B287 
 281      68799896 
 281      2769D9C6 
 281      9172
 282 089e 212D17D1 		.ascii	"!-\027\321\362\005Z\276H\313nZ\276E\313why\220\226\377"
 282      F2055ABE 
 282      48CB6E5A 
 282      BE45CB77 
 282      68799096 
 283 08b3 A6E5D7B4 		.ascii	"\246\345\327\264<A\313\223\264<M\3133\264<\247\037\370"
 283      3C41CB93 
 283      B43C4DCB 
 283      33B43CA7 
 283      1FF8
 284 08c5 EC2669A6 		.ascii	"\354&i\246\025\2056\036\357)\373\215\004\254\373\353"
 284      1585361E 
 284      EF29FB8D 
 284      04ACFBEB 
 285 08d5 F43BAF3C 		.ascii	"\364;\257<\376\3025b\260\230j\367\350T;DU\273\227)\322"
 285      FEC23562 
 285      B0986AF7 
 285      E8543B44 
 285      55BB9729 
 286 08ea 68D1CFAA 		.ascii	"h\321\317\252\264\227\333\345\254\0232C\247;\3365\274"
 286      B497DBE5 
 286      AC133243 
 286      A73BDE35 
 286      BC
 287 08fb 5BFDC28C 		.ascii	"[\375\302\214\3472\203\234\201u\207i\362\274\255\310"
 287      E732839C 
 287      81758769 
 287      F2BCADC8 
 288 090b E4B9DDA3 		.ascii	"\344\271\335\243\233<\177\355\232vQ\015\356\320ip\027"
 288      9B3C7FED 
 288      9A76510D 
 288      EED06970 
 288      17
 289 091c D5E06EAA 		.ascii	"\325\340n\252\301\20542\026\031\365\370M\225\351\203"
 289      C1853432 
 289      1619F5F8 
 289      4D95E983 
 290 092c 06E35704 		.ascii	"\006\343W\004\256C\364E\035\361\227)\361\245\224\370"
ARM GAS  /var/folders/c6/c789hm653lg9vtl73krp73tm0000gn/T//ccdKAQJ7.s 			page 23


 290      AE43F445 
 290      1DF19729 
 290      F1A594F8 
 291 093c 0A5A6EC5 		.ascii	"\012Zn\305\016|\266+\277,6h\364\022\324J\007\334\266"
 291      0E7CB62B 
 291      BF2C3668 
 291      F412D44A 
 291      07DCB6
 292 094f 116CC34B 		.ascii	"\021l\303K\013\345\244\006\3202BC\360\\Bk\206\205 m"
 292      0BE5A406 
 292      D0324243 
 292      F05C426B 
 292      8685206D 
 293 0963 624773B1 		.ascii	"bGs\261'\277\033^\023\310Wf\217(\301lg\336\220\352\354"
 293      27BF1B5E 
 293      13C85766 
 293      8F28C16C 
 293      67DE90EA 
 294 0978 7DDEEA5D 		.ascii	"}\336\352]\243\236\313\220\035>\306\010\207\026Vc\244"
 294      A39ECB90 
 294      1D3EC608 
 294      87165663 
 294      A4
 295 0989 EE921967 		.ascii	"\356\222\031g\013F\3169\324UMS\257\307\264W6\237~\352"
 295      0B46CE39 
 295      D4554D53 
 295      AFC7B457 
 295      369F7EEA 
 296 099d 466E975E 		.ascii	"Fn\227^M\277\331[%\357S\260\345\344\244PQK\315\263\223"
 296      4DBFD95B 
 296      25EF53B0 
 296      E5E4A450 
 296      514BCDB3 
 297 09b2 05F4EBA8 		.ascii	"\005\364\353\250\245\016&'\262\362\034#\245\231\005"
 297      A50E2627 
 297      B2F21C23 
 297      A59905
 298 09c1 4819B6EF 		.ascii	"H\031\266\357\225\3135r\303\234J\356\025\327vYfc\227"
 298      95CB3572 
 298      C39C4AEE 
 298      15D77659 
 298      666397
 299 09d4 1FAAAC70 		.ascii	"\037\252\254p\350U\252\263\245\371!\306D\267T*\220\225"
 299      E855AAB3 
 299      A5F921C6 
 299      44B7542A 
 299      9095
 300 09e6 4577B436 		.ascii	"Ew\2646\3270\3468\324\355\014N\025\311\022\357y=\336"
 300      D730E638 
 300      D4ED0C4E 
 300      15C912EF 
 300      793DDE
 301 09f9 0A6778FD 		.ascii	"\012gx\375\225\366x\257\353\361\336v\206\267\262\310"
 301      95F678AF 
 301      EBF1DE76 
 301      86B7B2C8 
 302 0a09 3748CBF5 		.ascii	"7H\313\365x\253\235\341uV[\340\345\016\016\255\311y"
ARM GAS  /var/folders/c6/c789hm653lg9vtl73krp73tm0000gn/T//ccdKAQJ7.s 			page 24


 302      78AB9DE1 
 302      75565BE0 
 302      E50E0EAD 
 302      C979
 303 0a1b AEB5B315 		.ascii	"\256\265\263\025\261\002\214\210\236\302\254\340\274"
 303      B1028C88 
 303      9EC2ACE0 
 303      BC
 304 0a28 FFD5E879 		.ascii	"\377\325\350yY92\364\324\273\007k\333\311\300$\237\313"
 304      593932F4 
 304      D4BB076B 
 304      DBC9C024 
 304      9FCB
 305 0a3a 3E8C4D1F 		.ascii	">\214M\037\376\332\274\350'\304Wy.Wk\332'\267\034\372"
 305      FEDABCE8 
 305      27C45779 
 305      2E576BDA 
 305      27B71CFA 
 306 0a4e A41A9BBC 		.ascii	"\244\032\233\274\377\373h\011\301\223_\226=\024\215"
 306      FFFB6809 
 306      C1935F96 
 306      3D148D
 307 0a5d B45FE9B9 		.ascii	"\264_\351\271Z\257\004\036\257\366p\372\033\2141\245"
 307      5AAF041E 
 307      AFF670FA 
 307      1B8C31A5 
 308 0a6d 15E6968F 		.ascii	"\025\346\226\217\014e\263W3Z\034:\344\010\275\307\214"
 308      0C65B357 
 308      335A1C3A 
 308      E408BDC7 
 308      8C
 309 0a7e BEA6107D 		.ascii	"\276\246\020}\250\025\262\315\226\357\264-\227gY\210"
 309      A815B2CD 
 309      96EFB42D 
 309      97675988 
 310 0a8e ED47B3E9 		.ascii	"\355G\263\351\013\206G\345G\360\2039\255\331\274s\344"
 310      0B8647E5 
 310      47F08339 
 310      ADD9BC73 
 310      E4
 311 0a9f F13A8F1F 		.ascii	"\361:\217\037\230\373O\265\355\033C\322@S?\253k\265"
 311      98FB4FB5 
 311      ED1B43D2 
 311      40533FAB 
 311      6BB5
 312 0ab1 222F0C15 		.ascii	"\"/\014\025\217\341\273j\372\221s\256\256\"\032\276"
 312      8FE1BB6A 
 312      FA9173AE 
 312      AE221ABE 
 313 0ac1 76E6D0D9 		.ascii	"v\346\320\331\002\375\260F\275\226\012Xr\242\037/\220"
 313      02FDB046 
 313      BD960A58 
 313      72A21F2F 
 313      90
 314 0ad2 D7CF92B3 		.ascii	"\327\317\222\263\331\207\221\311\354\313\212\274L\354"
 314      D98791C9 
 314      ECCB8ABC 
ARM GAS  /var/folders/c6/c789hm653lg9vtl73krp73tm0000gn/T//ccdKAQJ7.s 			page 25


 314      4CEC
 315 0ae0 33334686 		.ascii	"33F\206\035\365\207i /\006\363\201\247\332\300\244A"
 315      1DF58769 
 315      202F06F3 
 315      81A7DAC0 
 315      A441
 316 0af2 92C76BAC 		.ascii	"\222\307k\254%\371\320J\022\245{\366\023\243\344\256"
 316      25F9D04A 
 316      12A57BF6 
 316      13A3E4AE 
 317 0b02 8C92CD4E 		.ascii	"\214\222\315N0\013R\304\1777\231\345\240\337\240\030"
 317      300B52C4 
 317      7F3799E5 
 317      A0DFA018 
 318 0b12 D8986FC3 		.ascii	"\330\230o\303F\277%\033\035\033m\331(\362\375\374@\021"
 318      46BF251B 
 318      1D1B6DD9 
 318      28F2FDFC 
 318      4011
 319 0b24 75320D16 		.ascii	"u2\015\026\252g\261\015_\037[\032\272}\316\201.\374"
 319      AA67B10D 
 319      5F1F5B1A 
 319      BA7DCE81 
 319      2EFC
 320 0b36 D4CCCE3E 		.ascii	"\324\314\316>\371\010Y/\2710\365\016\213\020\177\325"
 320      F908592F 
 320      B930F50E 
 320      8B107FD5 
 321 0b46 86F64E4B 		.ascii	"\206\366NK\332\033\216)\266NV\3046\273\213*\205}<TB"
 321      DA1B8E29 
 321      B64E56C4 
 321      36BB8B2A 
 321      857D3C54 
 322 0b5b 476B6DF8 		.ascii	"Gkm\370\334c\344\363\273\250KV\372!\011\356:\200a\242"
 322      DC63E4F3 
 322      BBA84B56 
 322      FA2109EE 
 322      3A8061A2 
 323 0b6f D132936C 		.ascii	"\3212\223lI\343\254G\373/\215\376\034\2146\3153\374"
 323      49E3AC47 
 323      FB2F8DFE 
 323      1C8C36CD 
 323      33FC
 324 0b81 0706411C 		.ascii	"\007\006A\034\312#\0224\232[\326\215~'#\317\352\006"
 324      CA231234 
 324      9A5BD68D 
 324      7E2723CF 
 324      EA06
 325 0b93 69016C02 		.ascii	"i\001l\002K\360\034\332m\006\263\230Y\3543\242\275\256"
 325      4BF01CDA 
 325      6D06B398 
 325      59EC33A2 
 325      BDAE
 326 0ba5 006F5B6E 		.ascii	"\000o[n\372(C\0224cM\2357\220\357As\361\246\344\337"
 326      FA284312 
 326      34634D9D 
 326      3790EF41 
ARM GAS  /var/folders/c6/c789hm653lg9vtl73krp73tm0000gn/T//ccdKAQJ7.s 			page 26


 326      73F1A6E4 
 327 0bba 3CC05085 		.ascii	"<\300P\205\213|\334\372)\360P\362\033X\036\177\356!"
 327      8B7CDCFA 
 327      29F050F2 
 327      1B581E7F 
 327      EE21
 328 0bcc 8B9361D3 		.ascii	"\213\223a\3234\207\314\321f\253\237v\015;\332\2109u"
 328      3487CCD1 
 328      66AB9F76 
 328      0D3BDA88 
 328      3975
 329 0bde B60FD3B7 		.ascii	"\266\017\323\267\024\355t\257l\230j`\270\334\355\020"
 329      14ED74AF 
 329      6C986A60 
 329      B8DCED10 
 330 0bee E59B8314 		.ascii	"\345\233\203\024\316\374\355\203\307\376\3773\016\353"
 330      CEFCED83 
 330      C7FEFF33 
 330      0EEB
 331 0bfc 170C875D 		.ascii	"\027\014\207]\223\017\032\310\223\305\012\203\344\320"
 331      930F1AC8 
 331      93C50A83 
 331      E4D0
 332 0c0a 31275845 		.ascii	"1'XE\026>\347tXg\\c\005M\352\326\354\000\013U\272Z\371"
 332      163EE774 
 332      58675C63 
 332      054DEAD6 
 332      EC000B55 
 333 0c21 82965FD1 		.ascii	"\202\226_\321\362\250\3054\301\244'\223B\017\330pB\360"
 333      F2A8C534 
 333      C1A42793 
 333      420FD870 
 333      42F0
 334 0c33 8F1912B7 		.ascii	"\217\031\022\267\016r\242\221Q\235\233\262N\326\315"
 334      0E72A291 
 334      519D9BB2 
 334      4ED6CD
 335 0c42 60B5EE7A 		.ascii	"`\265\356zr{\334fr\253\037\201\363\255\310\033\322\213"
 335      727BDC66 
 335      72AB1F81 
 335      F3ADC81B 
 335      D28B
 336 0c54 4C8157C0 		.ascii	"L\201W\300\304\0115\354\306\2437\344\026\005\246\362"
 336      C40935EC 
 336      C6A337E4 
 336      1605A6F2 
 337 0c64 9F015739 		.ascii	"\237\001W9\273\375\021\235\226\333d\210\304\2757y\230"
 337      BBFD119D 
 337      96DB6488 
 337      C4BD3779 
 337      98
 338 0c75 3024368F 		.ascii	"0$6\217\364+k\036o\307r'\004\347\271l\0263\275q\250"
 338      F42B6B1E 
 338      6FC77227 
 338      04E7B96C 
 338      1633BD71 
 339 0c8a D54CCD18 		.ascii	"\325L\315\030\\\204\334i w\025ZxQ\273\354\327\221\235"
ARM GAS  /var/folders/c6/c789hm653lg9vtl73krp73tm0000gn/T//ccdKAQJ7.s 			page 27


 339      5C84DC69 
 339      2077155A 
 339      7851BBEC 
 339      D7919D
 340 0c9d C810980D 		.ascii	"\310\020\230\015\031Me\355\373\330v1\327\251[\314\345"
 340      194D65ED 
 340      FBD87631 
 340      D7A95BCC 
 340      E5
 341 0cae D2D2F52A 		.ascii	"\322\322\365*\211\254k\265\312\025\326j\375AQ\327\341"
 341      89AC6BB5 
 341      CA15D66A 
 341      FD4151D7 
 341      E1
 342 0cbf F1B9BC47 		.ascii	"\361\271\274G\\\205^\001\231\332&\346\3113W$\302\264"
 342      5C855E01 
 342      99DA26E6 
 342      C9335724 
 342      C2B4
 343 0cd1 40A2AD62 		.ascii	"@\242\255b\036\237\233\2451\027%x,N\231\263\252\255"
 343      1E9F9BA5 
 343      31172578 
 343      2C4E99B3 
 343      AAAD
 344 0ce3 B7E55AEB 		.ascii	"\267\345Z\353g\214*\027L\245\2323\232_\277\025I\010"
 344      678C2A17 
 344      4CA59A33 
 344      9A5FBF15 
 344      4908
 345 0cf5 B32AAC57 		.ascii	"\263*\254W\311lfc\327\353Q\333^\003Ez5\333\366R\212"
 345      C96C6663 
 345      D7EB51DB 
 345      5E03457A 
 345      35DBF652 
 346 0d0a F49A6DDB 		.ascii	"\364\232m\333kS\221^-\025\206\035+S\317\335Ez>\226\247"
 346      6B53915E 
 346      2D15861D 
 346      2B53CFDD 
 346      457A3E96 
 347 0d1f 878263C6 		.ascii	"\207\202c\306\324\261\277D\252N\224\352\"\361p4\335"
 347      D4B1BF44 
 347      AA4E94EA 
 347      22F17034 
 347      DD
 348 0d30 20D4859B 		.ascii	" \324\205\233\232\004>9\246\011]\024\023b\011\361\241"
 348      9A043E39 
 348      A6095D14 
 348      136209F1 
 348      A1
 349 0d41 10F91992 		.ascii	"\020\371\031\222\274w\336\367\353\340$T\255\273\371"
 349      BC77DEF7 
 349      EBE02454 
 349      ADBBF9
 350 0d50 DBBA744A 		.ascii	"\333\272tJ\254\213&\302|\264n\222\020\215\362b]c8<\232"
 350      AC8B26C2 
 350      7CB46E92 
 350      108DF262 
ARM GAS  /var/folders/c6/c789hm653lg9vtl73krp73tm0000gn/T//ccdKAQJ7.s 			page 28


 350      5D63383C 
 351 0d65 1763A3E3 		.ascii	"\027c\243\343\211\2700Z\340\247D\352n\036;n\374\330"
 351      89B8305A 
 351      E0A744EA 
 351      6E1E3B6E 
 351      FCD8
 352 0d77 FAB13FAA 		.ascii	"\372\261?\252\213F\246\220\307u\306\307\343\307\324"
 352      8B46A690 
 352      C775C6C7 
 352      E3C7D4
 353 0d86 8F199FA3 		.ascii	"\217\031\237\243\235\222\032\032\204\251@\333\233\212"
 353      9D921A1A 
 353      84A940DB 
 353      9B8A
 354 0d94 FC410849 		.ascii	"\374A\010I\337\263\345\021\330\010'D\001\232\326@\265"
 354      DFB3E511 
 354      D8082744 
 354      019AD640 
 354      B5
 355 0da5 5190A6A6 		.ascii	"Q\220\246\246\343\341\220T\325\024J\212\211i\221\006"
 355      E3E19054 
 355      D5144A8A 
 355      89699106 
 356 0db5 41ACA67C 		.ascii	"A\254\246|C\001\365\353L8\311\204(\245\352~\372\313"
 356      4301F5EB 
 356      4C38C984 
 356      28A5EA7E 
 356      FACB
 357 0dc7 7B27DD3B 		.ascii	"{'\335;\003\300T\244\252\224\364\000\037\2154\306C\322"
 357      03C054A4 
 357      AA94F400 
 357      1F8D34C6 
 357      43D2
 358 0dd9 3DAE4433 		.ascii	"=\256D3\336\326\011\023\211K\200\353O\303\365\326\361"
 358      DED60913 
 358      894B80EB 
 358      4FC3F5D6 
 358      F1
 359 0dea 21E97717 		.ascii	"!\351w\027\0005\306\207\233\"q\241.\004\212\342\323"
 359      0035C687 
 359      9B2271A1 
 359      2E048AE2 
 359      D3
 360 0dfb 5129243D 		.ascii	"Q)$=\224\024R\204\373PH\243SI\245\250\210\0133\244\012"
 360      94145284 
 360      FB5048A3 
 360      5349A5A8 
 360      880B33A4 
 361 0e10 A2059CAE 		.ascii	"\242\005\234\256 \372\304M\336\246\320TQ\020\256\266"
 361      20FAC44D 
 361      DEA6D054 
 361      5110AEB6 
 362 0e20 57AB3403 		.ascii	"W\2534\003\240|\261\264$\314\010I\376pS\210V\257\265"
 362      A07CB1B4 
 362      24CC0849 
 362      FE705388 
 362      56AFB5
ARM GAS  /var/folders/c6/c789hm653lg9vtl73krp73tm0000gn/T//ccdKAQJ7.s 			page 29


 363 0e33 ED907A28 		.ascii	"\355\220z(\2451p\261\324$\202\266S\241\007\323B\032"
 363      A53170B1 
 363      D42482B6 
 363      53A107D3 
 363      421A
 364 0e45 8C37127A 		.ascii	"\2147\022z\033n\331{\\*\334\324@\024\305\232\207\244"
 364      1B6ED97B 
 364      5C2ADCD4 
 364      4014C59A 
 364      87A4
 365 0e57 40AEAB37 		.ascii	"@\256\2537\031\"b\300%)\012\323\306\027\265c\"\226\214"
 365      192262C0 
 365      25290AD3 
 365      C617B563 
 365      22968C
 366 0e6a 44053155 		.ascii	"D\0051Uw\347\244I\000\252\361\345\223\222b$\001\322"
 366      77E7A449 
 366      00AAF1E5 
 366      93926224 
 366      01D2
 367 0e7c 10F5DC72 		.ascii	"\020\365\334r38\011\323\024\251R\334H\302\027N\304A"
 367      333809D3 
 367      14A952DC 
 367      48C2174E 
 367      C441
 368 0e8e 4CA99A00 		.ascii	"L\251\232\000\206\340YX\232qCi\237\011M\373q\214\260"
 368      86E05958 
 368      9A714369 
 368      9F094DFB 
 368      718CB0
 369 0ea1 2D0A8D60 		.ascii	"-\012\215`\254\220\304\211\3439\361G\234x+'\376\230"
 369      AC90C489 
 369      E339F147 
 369      9C782B27 
 369      FE98
 370 0eb3 13EB39F1 		.ascii	"\023\3539\3616\2178n,\234\343\270\250\010\227[*\223"
 370      368F386E 
 370      2C9CE3B8 
 370      A808975B 
 370      2A93
 371 0ec5 2140F611 		.ascii	"!@\366\021\231\246\013\"\\\023Q\360\316\212p\023/\022"
 371      99A60B22 
 371      5C1351F0 
 371      CE8A7013 
 371      2F12
 372 0ed7 41F99850 		.ascii	"A\371\230P\225\014\201\027F#\261\210\344\227R\022/\201"
 372      950C8117 
 372      4623B188 
 372      E4975212 
 372      2F81
 373 0ee9 227D84DB 		.ascii	"\"}\204\333z\320\012\343\033j>\322\012\236\371\244X"
 373      7AD00AE3 
 373      1B6A3ED2 
 373      0A9EF9A4 
 373      58
 374 0efa A241A0BF 		.ascii	"\242A\240\277\247F\371\306\224O\022\205\251)*\026\251"
 374      A746F9C6 
ARM GAS  /var/folders/c6/c789hm653lg9vtl73krp73tm0000gn/T//ccdKAQJ7.s 			page 30


 374      944F1285 
 374      A9292A16 
 374      A9
 375 0f0b 54C6528D 		.ascii	"T\306R\215\360P\225\025\272kR\213\015\017\301#\2770"
 375      F0509515 
 375      BA6B528B 
 375      0D0FC123 
 375      BF30
 376 0f1d 23228501 		.ascii	"#\"\205\001\300;]JL\371}\362RU\375\320U\020\205x\030"
 376      C03B5D4A 
 376      4CF97DF2 
 376      5255FDD0 
 376      55108578 
 377 0f32 802BA74B 		.ascii	"\200+\247K\222\230\254\001s\244\204\030\237l\002\241"
 377      9298AC01 
 377      73A48418 
 377      9F6C02A1 
 378 0f42 ED9D079A 		.ascii	"\355\235\007\232\020u\253\326\256\014\307\3019+S!\270"
 378      1075ABD6 
 378      AE0CC7C1 
 378      392B5321 
 378      B8
 379 0f53 02017898 		.ascii	"\002\001x\230\204\0138X\262Z\230&\304\245\030\237z\000"
 379      840B3858 
 379      B25A9826 
 379      C4A5189F 
 379      7A00
 380 0f65 5811A693 		.ascii	"X\021\246\223\212'\031J\217\320\234%\032IA\317\213u"
 380      8A27194A 
 380      8FD09C25 
 380      1A4941CF 
 380      8B75
 381 0f77 EE43EE04 		.ascii	"\356C\356\004\222\241\351|D\212\304\033AG\300=#B\253"
 381      92A1E97C 
 381      448AC41B 
 381      4147C03D 
 381      2342AB
 382 0f8a 7043480A 		.ascii	"pCH\012q\010\267Fh\005$H\373*\242\003>J\315\0137\223"
 382      7108B746 
 382      68052448 
 382      FB2AA203 
 382      3E4ACD0B 
 383 0fa0 8944F42A 		.ascii	"\211D\364*[\326%\302\371\245R$&\204b\002\237J\213BL"
 383      5BD625C2 
 383      F9A55224 
 383      26846202 
 383      9F4A8B42 
 384 0fb5 20ECFB44 		.ascii	" \354\373D\211\212Q1EH\2012\022bJ\252\210\362)\311\233"
 384      898A5131 
 384      45488132 
 384      12624AAA 
 384      88F229C9 
 385 0fca A6B771DC 		.ascii	"\246\267q\334/J\264\227T\025N\307\322Q^\212L\023T\353"
 385      2F4AB497 
 385      54154EC7 
 385      D2515E8A 
 385      4C1354EB 
ARM GAS  /var/folders/c6/c789hm653lg9vtl73krp73tm0000gn/T//ccdKAQJ7.s 			page 31


 386 0fde A47C31A6 		.ascii	"\244|1\246\011\270&\246\307\005\321\033\243\276\\\331"
 386      09B826A6 
 386      C705D11B 
 386      A3BE5CD9 
 387 0fee 4458ACCD 		.ascii	"DX\254\315\361\"\0014\341\206\\I\352\233\222\236\012"
 387      F1220134 
 387      E1865C49 
 387      EA9B929E 
 387      0A
 388 0fff FA       		.ascii	"\372"
 389 1000 AF213F43 		.ascii	"\257!?C\254\236\342&\217\345&\217\343&\337\314M\276"
 389      AC9EE226 
 389      8FE5268F 
 389      E326DFCC 
 389      4DBE
 390 1012 859B3C9E 		.ascii	"\205\233<\236\233\316_i\331\235f\3560\272\210\\\307"
 390      9BCE5F69 
 390      D99D66EE 
 390      30BA885C 
 390      C7
 391 1023 85841942 		.ascii	"\205\204\031B\030\242\267\232\375J\011R:Y\031\372\031"
 391      18A2B79A 
 391      FD4A0952 
 391      3A5919FA 
 391      19
 392 1034 E8A12644 		.ascii	"\350\241&D\301\371TJ\020%0\356]\320\340W\300q:U\305"
 392      C1F9544A 
 392      102530EE 
 392      5DD0E057 
 392      C0713A55 
 393 1049 7EDC0149 		.ascii	"~\334\001I\242\232U\177\032\205|\005\241<\011L\177\247"
 393      A29A557F 
 393      1A857C05 
 393      A13C094C 
 393      7FA7
 394 105b 20B166BF 		.ascii	" \261f\277\031\311\036\376b\312\357\205\260tw<\"\005"
 394      19C91EFE 
 394      62CAEF85 
 394      B074773C 
 394      2205
 395 106d 2822A154 		.ascii	"(\"\241TAj~R\204\371\224PA\234\272\222\322\206{\274"
 395      416A7E52 
 395      84F99450 
 395      419CBA92 
 395      D2867BBC 
 396 1081 D8009AF0 		.ascii	"\330\000\232\360i\214%yI\022\3048\351\025\320\330\037"
 396      698C2579 
 396      4912C438 
 396      E915D0D8 
 396      1F
 397 1092 77C91831 		.ascii	"w\311\0301\321\300K\374\230\334\235\353\011\251\037"
 397      D1C04BFC 
 397      98DC9DEB 
 397      09A91F
 398 10a1 0679C209 		.ascii	"\006y\302\011(8\021\017\362\361\206\340T\221o$FbwHc"
 398      2838110F 
 398      F2F186E0 
ARM GAS  /var/folders/c6/c789hm653lg9vtl73krp73tm0000gn/T//ccdKAQJ7.s 			page 32


 398      54916F24 
 398      46627748 
 399 10b6 F45F1E5E 		.ascii	"\364_\036^\0017"
 399      0137
 400              		.text
 401              		.section	.gnu.lto_.symtab.640bb388012340fd,"",%progbits
 402 0000 70617474 		.ascii	"patternheap\000\000\000\000\000\000\000\000\000\000"
 402      65726E68 
 402      65617000 
 402      00000000 
 402      00000000 
 403 0015 0000E301 		.ascii	"\000\000\343\001\000\000testheap1\000\000\000\000\000"
 403      00007465 
 403      73746865 
 403      61703100 
 403      00000000 
 404 0029 00000000 		.ascii	"\000\000\000\000\000\000\000\371\001\000\000test\000"
 404      000000F9 
 404      01000074 
 404      65737400 
 405 0039 00020000 		.ascii	"\000\002\000\000\000\000\000\000\000\000\000\341\001"
 405      00000000 
 405      000000E1 
 405      01
 406 0046 00005F74 		.ascii	"\000\000_test_assert\000\000\002\000\000\000\000\000"
 406      6573745F 
 406      61737365 
 406      72740000 
 406      02000000 
 407 005c 00000000 		.ascii	"\000\000\000\000\277\001\000\000chHeapStatus\000\000"
 407      BF010000 
 407      63684865 
 407      61705374 
 407      61747573 
 408 0072 02000000 		.ascii	"\002\000\000\000\000\000\000\000\000\000\307\001\000"
 408      00000000 
 408      0000C701 
 408      00
 409 007f 00636848 		.ascii	"\000chHeapFree\000\000\002\000\000\000\000\000\000\000"
 409      65617046 
 409      72656500 
 409      00020000 
 409      00000000 
 410 0094 0000CD01 		.ascii	"\000\000\315\001\000\000chHeapAlloc\000\000\002\000"
 410      00006368 
 410      48656170 
 410      416C6C6F 
 410      63000002 
 411 00a9 00000000 		.ascii	"\000\000\000\000\000\000\000\000\321\001\000\000chC"
 411      00000000 
 411      D1010000 
 411      636843
 412 00b8 6F726547 		.ascii	"oreGetStatusX\000\000\002\000\000\000\000\000\000\000"
 412      65745374 
 412      61747573 
 412      58000002 
 412      00000000 
ARM GAS  /var/folders/c6/c789hm653lg9vtl73krp73tm0000gn/T//ccdKAQJ7.s 			page 33


 413 00cf 0000D601 		.ascii	"\000\000\326\001\000\000chHeapObjectInit\000\000\002"
 413      00006368 
 413      48656170 
 413      4F626A65 
 413      6374496E 
 414 00e8 00000000 		.ascii	"\000\000\000\000\000\000\000\000\000\331\001\000\000"
 414      00000000 
 414      00D90100 
 414      00
 415              		.text
 416              		.section	.gnu.lto_.opts,"",%progbits
 417 0000 272D6D63 		.ascii	"'-mcpu=cortex-m4' '-mno-thumb-interwork' '-mthumb' "
 417      70753D63 
 417      6F727465 
 417      782D6D34 
 417      2720272D 
 418 0033 272D6767 		.ascii	"'-ggdb' '-O2' '-fomit-frame-pointer' '-falign-funct"
 418      64622720 
 418      272D4F32 
 418      2720272D 
 418      666F6D69 
 419 0066 696F6E73 		.ascii	"ions=16' '-ffunction-sections' '-fdata-sections' '-"
 419      3D313627 
 419      20272D66 
 419      66756E63 
 419      74696F6E 
 420 0099 666E6F2D 		.ascii	"fno-common' '-flto'\000"
 420      636F6D6D 
 420      6F6E2720 
 420      272D666C 
 420      746F2700 
 421              		.text
 422              		.cfi_sections	.debug_frame
 423              		.section	.text.heap1_execute,"ax",%progbits
 424              		.align	2
 425              		.p2align 4,,15
 426              		.thumb
 427              		.thumb_func
 428              		.type	heap1_execute, %function
 429              	heap1_execute:
 430              	.LFB230:
 431              		.file 1 "../../../test/rt/testheap.c"
 432              		.loc 1 69 0
 433              		.cfi_startproc
 434              		@ args = 0, pretend = 0, frame = 8
 435              		@ frame_needed = 0, uses_anonymous_args = 0
 436 0000 70B5     		push	{r4, r5, r6, lr}
 437              		.cfi_def_cfa_offset 16
 438              		.cfi_offset 4, -16
 439              		.cfi_offset 5, -12
 440              		.cfi_offset 6, -8
 441              		.cfi_offset 14, -4
 442 0002 82B0     		sub	sp, sp, #8
 443              		.cfi_def_cfa_offset 24
 444              		.loc 1 74 0
 445 0004 FFF7FEFF 		bl	chCoreGetStatusX
 446              	.LVL0:
ARM GAS  /var/folders/c6/c789hm653lg9vtl73krp73tm0000gn/T//ccdKAQJ7.s 			page 34


 447              		.loc 1 80 0
 448 0008 01A9     		add	r1, sp, #4
 449 000a 0020     		movs	r0, #0
 450 000c FFF7FEFF 		bl	chHeapStatus
 451              	.LVL1:
 452              		.loc 1 81 0
 453 0010 1021     		movs	r1, #16
 454 0012 0020     		movs	r0, #0
 455 0014 FFF7FEFF 		bl	chHeapAlloc
 456              	.LVL2:
 457              		.loc 1 82 0
 458 0018 011C     		adds	r1, r0, #0
 459 001a 0446     		mov	r4, r0
 460 001c 18BF     		it	ne
 461 001e 0121     		movne	r1, #1
 462 0020 0120     		movs	r0, #1
 463              	.LVL3:
 464 0022 FFF7FEFF 		bl	_test_assert
 465              	.LVL4:
 466 0026 0546     		mov	r5, r0
 467 0028 08B1     		cbz	r0, .L7
 468              	.LVL5:
 469              	.L1:
 470              		.loc 1 140 0
 471 002a 02B0     		add	sp, sp, #8
 472              		@ sp needed
 473 002c 70BD     		pop	{r4, r5, r6, pc}
 474              	.LVL6:
 475              	.L7:
 476              		.loc 1 83 0
 477 002e 2046     		mov	r0, r4
 478 0030 FFF7FEFF 		bl	chHeapFree
 479              	.LVL7:
 480              		.loc 1 84 0
 481 0034 6FF0FF01 		mvn	r1, #255
 482 0038 2846     		mov	r0, r5
 483 003a FFF7FEFF 		bl	chHeapAlloc
 484              	.LVL8:
 485              		.loc 1 85 0
 486 003e D0F10101 		rsbs	r1, r0, #1
 487 0042 38BF     		it	cc
 488 0044 0021     		movcc	r1, #0
 489 0046 0220     		movs	r0, #2
 490              	.LVL9:
 491 0048 FFF7FEFF 		bl	_test_assert
 492              	.LVL10:
 493 004c 0028     		cmp	r0, #0
 494 004e ECD1     		bne	.L1
 495              		.loc 1 88 0
 496 0050 01A9     		add	r1, sp, #4
 497 0052 7B48     		ldr	r0, .L8
 498 0054 FFF7FEFF 		bl	chHeapStatus
 499              	.LVL11:
 500              		.loc 1 91 0
 501 0058 1021     		movs	r1, #16
 502 005a 7948     		ldr	r0, .L8
 503 005c FFF7FEFF 		bl	chHeapAlloc
ARM GAS  /var/folders/c6/c789hm653lg9vtl73krp73tm0000gn/T//ccdKAQJ7.s 			page 35


 504              	.LVL12:
 505              		.loc 1 92 0
 506 0060 1021     		movs	r1, #16
 507              		.loc 1 91 0
 508 0062 0546     		mov	r5, r0
 509              	.LVL13:
 510              		.loc 1 92 0
 511 0064 7648     		ldr	r0, .L8
 512              	.LVL14:
 513 0066 FFF7FEFF 		bl	chHeapAlloc
 514              	.LVL15:
 515              		.loc 1 93 0
 516 006a 1021     		movs	r1, #16
 517              		.loc 1 92 0
 518 006c 0446     		mov	r4, r0
 519              	.LVL16:
 520              		.loc 1 93 0
 521 006e 7448     		ldr	r0, .L8
 522              	.LVL17:
 523 0070 FFF7FEFF 		bl	chHeapAlloc
 524              	.LVL18:
 525 0074 0646     		mov	r6, r0
 526              	.LVL19:
 527              		.loc 1 94 0
 528 0076 2846     		mov	r0, r5
 529              	.LVL20:
 530 0078 FFF7FEFF 		bl	chHeapFree
 531              	.LVL21:
 532              		.loc 1 95 0
 533 007c 2046     		mov	r0, r4
 534 007e FFF7FEFF 		bl	chHeapFree
 535              	.LVL22:
 536              		.loc 1 96 0
 537 0082 3046     		mov	r0, r6
 538 0084 FFF7FEFF 		bl	chHeapFree
 539              	.LVL23:
 540              		.loc 1 97 0
 541 0088 6946     		mov	r1, sp
 542 008a 6D48     		ldr	r0, .L8
 543 008c FFF7FEFF 		bl	chHeapStatus
 544              	.LVL24:
 545 0090 421E     		subs	r2, r0, #1
 546 0092 5142     		rsbs	r1, r2, #0
 547 0094 5141     		adcs	r1, r1, r2
 548 0096 0320     		movs	r0, #3
 549 0098 FFF7FEFF 		bl	_test_assert
 550              	.LVL25:
 551 009c 0028     		cmp	r0, #0
 552 009e C4D1     		bne	.L1
 553              		.loc 1 100 0
 554 00a0 1021     		movs	r1, #16
 555 00a2 6748     		ldr	r0, .L8
 556 00a4 FFF7FEFF 		bl	chHeapAlloc
 557              	.LVL26:
 558              		.loc 1 101 0
 559 00a8 1021     		movs	r1, #16
 560              		.loc 1 100 0
ARM GAS  /var/folders/c6/c789hm653lg9vtl73krp73tm0000gn/T//ccdKAQJ7.s 			page 36


 561 00aa 0446     		mov	r4, r0
 562              	.LVL27:
 563              		.loc 1 101 0
 564 00ac 6448     		ldr	r0, .L8
 565              	.LVL28:
 566 00ae FFF7FEFF 		bl	chHeapAlloc
 567              	.LVL29:
 568              		.loc 1 102 0
 569 00b2 1021     		movs	r1, #16
 570              		.loc 1 101 0
 571 00b4 0546     		mov	r5, r0
 572              	.LVL30:
 573              		.loc 1 102 0
 574 00b6 6248     		ldr	r0, .L8
 575              	.LVL31:
 576 00b8 FFF7FEFF 		bl	chHeapAlloc
 577              	.LVL32:
 578              		.loc 1 103 0
 579 00bc FFF7FEFF 		bl	chHeapFree
 580              	.LVL33:
 581              		.loc 1 104 0
 582 00c0 2846     		mov	r0, r5
 583 00c2 FFF7FEFF 		bl	chHeapFree
 584              	.LVL34:
 585              		.loc 1 105 0
 586 00c6 2046     		mov	r0, r4
 587 00c8 FFF7FEFF 		bl	chHeapFree
 588              	.LVL35:
 589              		.loc 1 106 0
 590 00cc 6946     		mov	r1, sp
 591 00ce 5C48     		ldr	r0, .L8
 592 00d0 FFF7FEFF 		bl	chHeapStatus
 593              	.LVL36:
 594 00d4 431E     		subs	r3, r0, #1
 595 00d6 5942     		rsbs	r1, r3, #0
 596 00d8 5941     		adcs	r1, r1, r3
 597 00da 0420     		movs	r0, #4
 598 00dc FFF7FEFF 		bl	_test_assert
 599              	.LVL37:
 600 00e0 0028     		cmp	r0, #0
 601 00e2 A2D1     		bne	.L1
 602              		.loc 1 109 0
 603 00e4 1121     		movs	r1, #17
 604 00e6 5648     		ldr	r0, .L8
 605 00e8 FFF7FEFF 		bl	chHeapAlloc
 606              	.LVL38:
 607              		.loc 1 110 0
 608 00ec 1021     		movs	r1, #16
 609              		.loc 1 109 0
 610 00ee 0446     		mov	r4, r0
 611              	.LVL39:
 612              		.loc 1 110 0
 613 00f0 5348     		ldr	r0, .L8
 614              	.LVL40:
 615 00f2 FFF7FEFF 		bl	chHeapAlloc
 616              	.LVL41:
 617 00f6 0546     		mov	r5, r0
ARM GAS  /var/folders/c6/c789hm653lg9vtl73krp73tm0000gn/T//ccdKAQJ7.s 			page 37


 618              	.LVL42:
 619              		.loc 1 111 0
 620 00f8 2046     		mov	r0, r4
 621              	.LVL43:
 622 00fa FFF7FEFF 		bl	chHeapFree
 623              	.LVL44:
 624              		.loc 1 112 0
 625 00fe 6946     		mov	r1, sp
 626 0100 4F48     		ldr	r0, .L8
 627 0102 FFF7FEFF 		bl	chHeapStatus
 628              	.LVL45:
 629 0106 B0F1020C 		subs	ip, r0, #2
 630 010a DCF10001 		rsbs	r1, ip, #0
 631 010e 51EB0C01 		adcs	r1, r1, ip
 632 0112 0520     		movs	r0, #5
 633 0114 FFF7FEFF 		bl	_test_assert
 634              	.LVL46:
 635 0118 0028     		cmp	r0, #0
 636 011a 86D1     		bne	.L1
 637              		.loc 1 113 0
 638 011c 1021     		movs	r1, #16
 639 011e 4848     		ldr	r0, .L8
 640 0120 FFF7FEFF 		bl	chHeapAlloc
 641              	.LVL47:
 642              		.loc 1 116 0
 643 0124 6946     		mov	r1, sp
 644              		.loc 1 113 0
 645 0126 0446     		mov	r4, r0
 646              	.LVL48:
 647              		.loc 1 116 0
 648 0128 4548     		ldr	r0, .L8
 649              	.LVL49:
 650 012a FFF7FEFF 		bl	chHeapStatus
 651              	.LVL50:
 652 012e 0128     		cmp	r0, #1
 653 0130 00F08380 		beq	.L5
 654              		.loc 1 116 0 is_stmt 0 discriminator 2
 655 0134 6946     		mov	r1, sp
 656 0136 4248     		ldr	r0, .L8
 657 0138 FFF7FEFF 		bl	chHeapStatus
 658              	.LVL51:
 659 013c B0F1020E 		subs	lr, r0, #2
 660 0140 DEF10001 		rsbs	r1, lr, #0
 661 0144 51EB0E01 		adcs	r1, r1, lr
 662              	.L3:
 663              		.loc 1 116 0 discriminator 4
 664 0148 0620     		movs	r0, #6
 665 014a FFF7FEFF 		bl	_test_assert
 666              	.LVL52:
 667 014e 0028     		cmp	r0, #0
 668 0150 7FF46BAF 		bne	.L1
 669              		.loc 1 118 0 is_stmt 1
 670 0154 2846     		mov	r0, r5
 671 0156 FFF7FEFF 		bl	chHeapFree
 672              	.LVL53:
 673              		.loc 1 119 0
 674 015a 2046     		mov	r0, r4
ARM GAS  /var/folders/c6/c789hm653lg9vtl73krp73tm0000gn/T//ccdKAQJ7.s 			page 38


 675 015c FFF7FEFF 		bl	chHeapFree
 676              	.LVL54:
 677              		.loc 1 120 0
 678 0160 6946     		mov	r1, sp
 679 0162 3748     		ldr	r0, .L8
 680 0164 FFF7FEFF 		bl	chHeapStatus
 681              	.LVL55:
 682 0168 461E     		subs	r6, r0, #1
 683 016a 7142     		rsbs	r1, r6, #0
 684 016c 7141     		adcs	r1, r1, r6
 685 016e 0720     		movs	r0, #7
 686 0170 FFF7FEFF 		bl	_test_assert
 687              	.LVL56:
 688 0174 0028     		cmp	r0, #0
 689 0176 7FF458AF 		bne	.L1
 690              		.loc 1 123 0
 691 017a 1021     		movs	r1, #16
 692 017c 3048     		ldr	r0, .L8
 693 017e FFF7FEFF 		bl	chHeapAlloc
 694              	.LVL57:
 695              		.loc 1 124 0
 696 0182 1021     		movs	r1, #16
 697              		.loc 1 123 0
 698 0184 0546     		mov	r5, r0
 699              	.LVL58:
 700              		.loc 1 124 0
 701 0186 2E48     		ldr	r0, .L8
 702              	.LVL59:
 703 0188 FFF7FEFF 		bl	chHeapAlloc
 704              	.LVL60:
 705 018c 0446     		mov	r4, r0
 706              	.LVL61:
 707              		.loc 1 125 0
 708 018e 2846     		mov	r0, r5
 709              	.LVL62:
 710 0190 FFF7FEFF 		bl	chHeapFree
 711              	.LVL63:
 712              		.loc 1 126 0
 713 0194 6946     		mov	r1, sp
 714 0196 2A48     		ldr	r0, .L8
 715 0198 FFF7FEFF 		bl	chHeapStatus
 716              	.LVL64:
 717 019c 851E     		subs	r5, r0, #2
 718              	.LVL65:
 719 019e 6942     		rsbs	r1, r5, #0
 720 01a0 6941     		adcs	r1, r1, r5
 721 01a2 0820     		movs	r0, #8
 722 01a4 FFF7FEFF 		bl	_test_assert
 723              	.LVL66:
 724 01a8 0028     		cmp	r0, #0
 725 01aa 7FF43EAF 		bne	.L1
 726              		.loc 1 127 0
 727 01ae 2021     		movs	r1, #32
 728 01b0 2348     		ldr	r0, .L8
 729 01b2 FFF7FEFF 		bl	chHeapAlloc
 730              	.LVL67:
 731              		.loc 1 128 0
ARM GAS  /var/folders/c6/c789hm653lg9vtl73krp73tm0000gn/T//ccdKAQJ7.s 			page 39


 732 01b6 FFF7FEFF 		bl	chHeapFree
 733              	.LVL68:
 734              		.loc 1 129 0
 735 01ba 2046     		mov	r0, r4
 736 01bc FFF7FEFF 		bl	chHeapFree
 737              	.LVL69:
 738              		.loc 1 130 0
 739 01c0 6946     		mov	r1, sp
 740 01c2 1F48     		ldr	r0, .L8
 741 01c4 FFF7FEFF 		bl	chHeapStatus
 742              	.LVL70:
 743 01c8 0138     		subs	r0, r0, #1
 744 01ca 4142     		rsbs	r1, r0, #0
 745 01cc 4141     		adcs	r1, r1, r0
 746 01ce 0920     		movs	r0, #9
 747 01d0 FFF7FEFF 		bl	_test_assert
 748              	.LVL71:
 749 01d4 0028     		cmp	r0, #0
 750 01d6 7FF428AF 		bne	.L1
 751              		.loc 1 133 0
 752 01da 6946     		mov	r1, sp
 753 01dc 1848     		ldr	r0, .L8
 754 01de FFF7FEFF 		bl	chHeapStatus
 755              	.LVL72:
 756              		.loc 1 134 0
 757 01e2 0099     		ldr	r1, [sp]
 758 01e4 1648     		ldr	r0, .L8
 759 01e6 FFF7FEFF 		bl	chHeapAlloc
 760              	.LVL73:
 761              		.loc 1 135 0
 762 01ea 6946     		mov	r1, sp
 763              		.loc 1 134 0
 764 01ec 0446     		mov	r4, r0
 765              	.LVL74:
 766              		.loc 1 135 0
 767 01ee 1448     		ldr	r0, .L8
 768              	.LVL75:
 769 01f0 FFF7FEFF 		bl	chHeapStatus
 770              	.LVL76:
 771 01f4 D0F10101 		rsbs	r1, r0, #1
 772 01f8 38BF     		it	cc
 773 01fa 0021     		movcc	r1, #0
 774 01fc 0A20     		movs	r0, #10
 775 01fe FFF7FEFF 		bl	_test_assert
 776              	.LVL77:
 777 0202 0028     		cmp	r0, #0
 778 0204 7FF411AF 		bne	.L1
 779              		.loc 1 136 0
 780 0208 2046     		mov	r0, r4
 781 020a FFF7FEFF 		bl	chHeapFree
 782              	.LVL78:
 783              		.loc 1 138 0
 784 020e 6946     		mov	r1, sp
 785 0210 0B48     		ldr	r0, .L8
 786 0212 FFF7FEFF 		bl	chHeapStatus
 787              	.LVL79:
 788 0216 421E     		subs	r2, r0, #1
ARM GAS  /var/folders/c6/c789hm653lg9vtl73krp73tm0000gn/T//ccdKAQJ7.s 			page 40


 789 0218 5142     		rsbs	r1, r2, #0
 790 021a 5141     		adcs	r1, r1, r2
 791 021c 0B20     		movs	r0, #11
 792 021e FFF7FEFF 		bl	_test_assert
 793              	.LVL80:
 794 0222 0028     		cmp	r0, #0
 795 0224 7FF401AF 		bne	.L1
 796              		.loc 1 139 0
 797 0228 9DE80A00 		ldmia	sp, {r1, r3}
 798 022c CB1A     		subs	r3, r1, r3
 799 022e 5942     		rsbs	r1, r3, #0
 800 0230 5941     		adcs	r1, r1, r3
 801 0232 0C20     		movs	r0, #12
 802 0234 FFF7FEFF 		bl	_test_assert
 803              	.LVL81:
 804 0238 F7E6     		b	.L1
 805              	.LVL82:
 806              	.L5:
 807 023a 0146     		mov	r1, r0
 808 023c 84E7     		b	.L3
 809              	.L9:
 810 023e 00BF     		.align	2
 811              	.L8:
 812 0240 00000000 		.word	.LANCHOR0
 813              		.cfi_endproc
 814              	.LFE230:
 815              		.size	heap1_execute, .-heap1_execute
 816 0244 AFF30080 		.section	.text.heap1_setup,"ax",%progbits
 816      AFF30080 
 816      AFF30080 
 817              		.align	2
 818              		.p2align 4,,15
 819              		.thumb
 820              		.thumb_func
 821              		.type	heap1_setup, %function
 822              	heap1_setup:
 823              	.LFB229:
 824              		.loc 1 64 0
 825              		.cfi_startproc
 826              		@ args = 0, pretend = 0, frame = 0
 827              		@ frame_needed = 0, uses_anonymous_args = 0
 828              		@ link register save eliminated.
 829              		.loc 1 66 0
 830 0000 0248     		ldr	r0, .L11
 831 0002 0349     		ldr	r1, .L11+4
 832 0004 4FF4E162 		mov	r2, #1800
 833 0008 FFF7FEBF 		b	chHeapObjectInit
 834              	.LVL83:
 835              	.L12:
 836              		.align	2
 837              	.L11:
 838 000c 00000000 		.word	.LANCHOR0
 839 0010 00000000 		.word	test
 840              		.cfi_endproc
 841              	.LFE229:
 842              		.size	heap1_setup, .-heap1_setup
 843              		.global	patternheap
ARM GAS  /var/folders/c6/c789hm653lg9vtl73krp73tm0000gn/T//ccdKAQJ7.s 			page 41


 844              		.global	testheap1
 845 0014 AFF30080 		.section	.rodata.patternheap,"a",%progbits
 845      AFF30080 
 845      AFF30080 
 846              		.align	2
 847              		.type	patternheap, %object
 848              		.size	patternheap, 8
 849              	patternheap:
 850 0000 00000000 		.word	testheap1
 851 0004 00000000 		.word	0
 852              		.section	.rodata.str1.4,"aMS",%progbits,1
 853              		.align	2
 854              	.LC0:
 855 0000 48656170 		.ascii	"Heap, allocation and fragmentation test\000"
 855      2C20616C 
 855      6C6F6361 
 855      74696F6E 
 855      20616E64 
 856              		.section	.rodata.testheap1,"a",%progbits
 857              		.align	2
 858              		.type	testheap1, %object
 859              		.size	testheap1, 16
 860              	testheap1:
 861 0000 00000000 		.word	.LC0
 862 0004 00000000 		.word	heap1_setup
 863 0008 00000000 		.word	0
 864 000c 00000000 		.word	heap1_execute
 865              		.section	.bss.test_heap,"aw",%nobits
 866              		.align	3
 867              		.set	.LANCHOR0,. + 0
 868              		.type	test_heap, %object
 869              		.size	test_heap, 32
 870              	test_heap:
 871 0000 00000000 		.space	32
 871      00000000 
 871      00000000 
 871      00000000 
 871      00000000 
 872              		.text
 873              	.Letext0:
 874              		.file 2 "/usr/local/Cellar/gcc-arm-none-eabi/20140805/lib/gcc/arm-none-eabi/4.8.4/include/stddef.h
 875              		.file 3 "/usr/local/Cellar/gcc-arm-none-eabi/20140805/arm-none-eabi/include/machine/_default_types
 876              		.file 4 "/usr/local/Cellar/gcc-arm-none-eabi/20140805/arm-none-eabi/include/stdint.h"
 877              		.file 5 "../../../os/rt/ports/ARMCMx/compilers/GCC/chtypes.h"
 878              		.file 6 "../../../os/rt/include/chsystypes.h"
 879              		.file 7 "../../../os/rt/include/chschd.h"
 880              		.file 8 "../../../os/rt/ports/ARMCMx/chcore.h"
 881              		.file 9 "../../../os/rt/ports/ARMCMx/chcore_v7m.h"
 882              		.file 10 "../../../os/rt/include/chdebug.h"
 883              		.file 11 "../../../os/rt/include/chtm.h"
 884              		.file 12 "../../../os/rt/include/chstats.h"
 885              		.file 13 "../../../os/rt/include/chsem.h"
 886              		.file 14 "../../../os/rt/include/chmtx.h"
 887              		.file 15 "../../../os/rt/include/chmemcore.h"
 888              		.file 16 "../../../os/rt/include/chheap.h"
 889              		.file 17 "../../../test/rt/test.h"
 890              		.file 18 "../../../os/ext/CMSIS/include/core_cm4.h"
ARM GAS  /var/folders/c6/c789hm653lg9vtl73krp73tm0000gn/T//ccdKAQJ7.s 			page 42

