ARM GAS  /var/folders/c6/c789hm653lg9vtl73krp73tm0000gn/T//ccKhBMj9.s 			page 1


   1              		.syntax unified
   2              		.cpu cortex-m4
   3              		.fpu softvfp
   4              		.eabi_attribute 20, 1
   5              		.eabi_attribute 21, 1
   6              		.eabi_attribute 23, 3
   7              		.eabi_attribute 24, 1
   8              		.eabi_attribute 25, 1
   9              		.eabi_attribute 26, 1
  10              		.eabi_attribute 30, 2
  11              		.eabi_attribute 34, 1
  12              		.eabi_attribute 18, 4
  13              		.thumb
  14              		.file	"testpools.c"
  15              		.text
  16              	.Ltext0:
  17              		.section	.gnu.lto_.jmpfuncs.6e49600ae6294f9,"",%progbits
  18 0000 789C6362 		.ascii	"x\234cb`b\300\006t\031!4\013\003\003#\0033S5\303\257"
  18      6062C006 
  18      74192134 
  18      0B030323 
  18      03335335 
  19 0016 868E0681 		.ascii	"\206\216\006\201LF\206\\\210\004S\004c&#\343\013&(\013"
  19      4C46865C 
  19      88045304 
  19      632623E3 
  19      0B26280B 
  20 002a 64083303 		.ascii	"d\0103\003\023\246:\240v,\232!\272\231\361K\263\200"
  20      13A63AA0 
  20      762C9A21 
  20      BA99F14B 
  20      B380
  21 003c D8B8AC66 		.ascii	"\330\270\254f\026\0002\340R,\311\214\004\354b\005\261"
  21      160032E0 
  21      522CC98C 
  21      04EC6205 
  21      B1
  22 004d 59E15C26 		.ascii	"Y\341\\&\374\252\031qHcq\015\314= \013\000\352u/c"
  22      FCAA1971 
  22      4863710D 
  22      CC3D200B 
  22      00EA752F 
  23              		.text
  24              		.section	.gnu.lto_.inline.6e49600ae6294f9,"",%progbits
  25 0000 789C6362 		.ascii	"x\234cb`b\300\006\366@i\026\006\006f&F\260\"\266\005"
  25      6062C006 
  25      F6406916 
  25      06066626 
  25      46B022B6 
  26 0015 F260B58C 		.ascii	"\362`\265\214\014\354\374\250\",\274@U\014 \254\363"
  26      0CECFCA8 
  26      222CBC40 
  26      550C20AC 
  26      F3
  27 0026 9D112825 		.ascii	"\235\021(%\3230\203\015.\311\314\003R<\301\017D3\002"
  27      D330830D 
  27      2EC9CC03 
ARM GAS  /var/folders/c6/c789hm653lg9vtl73krp73tm0000gn/T//ccKhBMj9.s 			page 2


  27      523CC10F 
  27      443302
  28 0039 95C2780C 		.ascii	"\225\302x\014`\036\003\230\0077\000,\012\"A\242\254"
  28      601E0398 
  28      0737002C 
  28      0A2241A2 
  28      AC
  29 004a 0C0A6B40 		.ascii	"\014\012k@\306\211\264\235fF\330\316\005\265\020\331"
  29      C689B49D 
  29      6646D8CE 
  29      05B510D9 
  30 005a 14541B40 		.ascii	"\024T\033@fM\360c`\000\000\2755\017\300"
  30      664DF063 
  30      600000BD 
  30      350FC0
  31              		.text
  32              		.section	.gnu.lto_.pureconst.6e49600ae6294f9,"",%progbits
  33 0000 789C6362 		.ascii	"x\234cb`b\340d\200\000\026\006\006F\011f\011V\011\000"
  33      6062E064 
  33      80001606 
  33      06460966 
  33      09560900 
  34 0014 02160063 		.ascii	"\002\026\000c"
  35              		.text
  36              		.section	.gnu.lto_null_provider.6e49600ae6294f9,"",%progbits
  37 0000 789C6362 		.ascii	"x\234cb`b@\007\222@\034\005\304\362@\314\310\314\300"
  37      60624007 
  37      92401C05 
  37      C4F240CC 
  37      C8CCC0
  38 0013 C834E11C 		.ascii	"\3104\341\034\003C#\007\023##\210\301\300\310P\317\304"
  38      03432307 
  38      13232388 
  38      C1C0C850 
  38      CFC4
  39 0025 581FC908 		.ascii	"X\037\311\010V\273\236\351\300\203\377\377\327\375x"
  39      56BB9EE9 
  39      C083FFFF 
  39      D7FD78
  40 0034 FAA88351 		.ascii	"\372\250\203Q\020d\024+CKC\303\004\005\006\206d\260"
  40      1064142B 
  40      434B43C3 
  40      04050686 
  40      64B0
  41 0046 82102009 		.ascii	"\202\020 \011\322\025\312\310\004\242\231/24>\370\317"
  41      D215CAC8 
  41      04A2992F 
  41      32343EF8 
  41      CF
  42 0057 96C8B890 		.ascii	"\226\310\270\220\221\225!\2021\223\021ni\010##H\001"
  42      91952182 
  42      3193116E 
  42      69082323 
  42      4801
  43 0069 C808593D 		.ascii	"\310\010Y==}\010*I-.\321/*\001\323\005\371\3719\305"
  43      3D7D082A 
  43      492D2ED1 
ARM GAS  /var/folders/c6/c789hm653lg9vtl73krp73tm0000gn/T//ccKhBMj9.s 			page 3


  43      2F2A01D3 
  43      05F9F939 
  44 007e 7AC90C00 		.ascii	"z\311\014\0000z#\235"
  44      307A239D 
  45              		.text
  46              		.section	.gnu.lto_pools1_setup.6e49600ae6294f9,"",%progbits
  47 0000 789C6362 		.ascii	"x\234cb`b@\007\222@<\027\210\345\201\230\221\231\201"
  47      60624007 
  47      92403C17 
  47      88E58198 
  47      919981
  48 0013 9169C239 		.ascii	"\221i\3029\006\206F\016&FF\020\203\201\221\241\236\211"
  48      0686460E 
  48      26464610 
  48      838191A1 
  48      9E89
  49 0025 B13E9211 		.ascii	"\261>\222\021\254v=\323\201\007\377\377\257\233\322"
  49      AC763DD3 
  49      8107FFFF 
  49      AF9BD2
  50 0034 B6E40EE3 		.ascii	"\266\344\016\343\014&f\240\010+CKC\303\004\005\006\206"
  50      0C2666A0 
  50      082B434B 
  50      43C30405 
  50      0686
  51 0046 64B08A10 		.ascii	"d\260\212\020 \011\322\026\312\310\004\242\231\3173"
  51      2009D216 
  51      CAC804A2 
  51      99CF33
  52 0055 B43DE879 		.ascii	"\264=\350y\314\225\310\270\220\221\025(]\315\360\253"
  52      CC95C8B8 
  52      90911528 
  52      5DCDF0AB 
  53 0065 A1A34120 		.ascii	"\241\243A \223\021\250\034b\"H\204#\223\2211\227\221"
  53      9311A81C 
  53      62224884 
  53      23939131 
  53      9791
  54 0077 01AA2882 		.ascii	"\001\252(\2021\223\221\351\005\023\230\006\332\220\311"
  54      319391E9 
  54      05139806 
  54      DA90C9
  55 0086 C8C2C070 		.ascii	"\310\302\300p\221\241\361A\2572\314\024\010\010\001"
  55      91A1F141 
  55      AF32CC14 
  55      080801
  56 0095 9A00B402 		.ascii	"\232\000\264\002\344!Y==}\010*I-.\321/*\001\323\005"
  56      E421593D 
  56      3D7D082A 
  56      492D2ED1 
  56      2F2A01D3 
  57 00aa F9F939C5 		.ascii	"\371\3719\305z\311\014\000mM1\372"
  57      7AC90C00 
  57      6D4D31FA 
  58              		.text
  59              		.section	.gnu.lto_pools1_execute.part.0.6e49600ae6294f9,"",%progbits
  60 0000 789C9D54 		.ascii	"x\234\235T=hSQ\024>\347\336\367s\337O~\324IP\211\356"
ARM GAS  /var/folders/c6/c789hm653lg9vtl73krp73tm0000gn/T//ccKhBMj9.s 			page 4


  60      3D685351 
  60      143EE7DE 
  60      F773DF4F 
  60      7ED44950 
  61 0016 2620383B 		.ascii	"& 8;\273'\240cyH|`\251\330l\016}\371Q\272\024\202.E"
  61      BB27A063 
  61      79487C60 
  61      A9D86C0E 
  61      7DF951BA 
  62 002e 1D2C5D05 		.ascii	"\035,]\005'\251\024\034\342\324\010m\350\"\015t\210"
  62      27A9141C 
  62      E2D4086D 
  62      E8220D74 
  62      88
  63 003f 2875D0C9 		.ascii	"(u\320\311I\034\214\347\334\367\023\2234\203>\222{\356"
  63      491C8CE7 
  63      DCF71393 
  63      34833E92 
  63      7BEE
  64 0051 B9E77CE7 		.ascii	"\271\347|\347\234\357\273/\021 `\366\351\322\267o\000"
  64      9CEFBB2F 
  64      112060F6 
  64      E9D2B76F 
  64      00
  65 0062 5C268B39 		.ascii	"\\&\2139@\277{@\033\037\205\266\002\015mel{\312\020"
  65      40BF7B40 
  65      1B1F85B6 
  65      020D6D65 
  65      6C7BCA10 
  66 0076 72A30710 		.ascii	"r\243\007\020\271f;\007\221o\242\322qKx\357%\235\332"
  66      B9663B07 
  66      916FA2D2 
  66      714B78EF 
  66      259DDA
  67 0089 071F28E8 		.ascii	"\007\037(\350\333\361qO)a\305\351\216Nw\204\367\261"
  67      DBF1714F 
  67      2961C5E9 
  67      8E4E7784 
  67      F7B1
  68 009b 429EBB7B 		.ascii	"B\236\273{\211<\027=\316j*\017\2217\200\260\346\013"
  68      893C173D 
  68      CE6A2A0F 
  68      913780B0 
  68      E60B
  69 00ad 699896AD 		.ascii	"i\230\226\255\034\327\303\265\333\310\023\342\025\330"
  69      1CD7C3B5 
  69      DBC813E2 
  69      15D8
  70 00bb 8AA2EEE8 		.ascii	"\212\242\356\350\321\311\333\363\321\313V7\372=\036"
  70      D1C9DBF3 
  70      D1CB5637 
  70      FA3D1E
  71 00ca 6388C4A5 		.ascii	"c\210\304\245\204\020 \334\"\007K\332\010c\232\334k"
  71      841020DC 
  71      22074BDA 
  71      08639ADC 
  71      6B
ARM GAS  /var/folders/c6/c789hm653lg9vtl73krp73tm0000gn/T//ccKhBMj9.s 			page 5


  72 00db 118DC6E3 		.ascii	"\021\215\306\343\341\017u\001a\011\267\250\222\200\020"
  72      E10F7501 
  72      6109B7A8 
  72      928010
  73 00ea A54C1C83 		.ascii	"\245L\034\203\035\223\026\303\342\305N\216Ub\035\016"
  73      1D9316C3 
  73      E2C54E8E 
  73      55621D0E 
  74 00fa BB1CF178 		.ascii	"\273\034\361x\361\331\315\361.\237$\024\022K\217\011"
  74      F1D9CDF1 
  74      2E9F2414 
  74      124B8F09 
  75 010a 1D9AB194 		.ascii	"\035\232\261\224\372\201\236\274J+\361\256\242OF\326"
  75      FA819EBC 
  75      4A2BF1AE 
  75      A24F46D6 
  76 011a 50B00118 		.ascii	"P\260\001\030B\236\207\245\004\377\370\315]\200\032"
  76      429E87A5 
  76      04FFF8CD 
  76      5D801A
  77 0129 4A2095E4 		.ascii	"J \225\344>\264\216\217\276\375\304%\334F\023\352(\256"
  77      3EB48E8F 
  77      BEFDC425 
  77      DC4613EA 
  77      28AE
  78 013b C2ABA818 		.ascii	"\302\253\250\030\242\371\034\2365\273\274\263\036\302"
  78      A2F91C9E 
  78      35BBBCB3 
  78      1EC2
  79 0149 AF689377 		.ascii	"\257h\223w\366\262\356\300ulM\265\216\230\321\036\200"
  79      F6B2EEC0 
  79      756C4DB5 
  79      8E98D11E 
  79      80
  80 015a 19D70060 		.ascii	"\031\327\000`\300:\003T\220$\360\211\012\321Y\306\244"
  80      C03A0354 
  80      9024F089 
  80      0AD159C6 
  80      A4
  81 016b 11770AD1 		.ascii	"\021w\012\321\005\330\207\366z{g\343f\332_RM=(\003\373"
  81      05D887F6 
  81      7A7B67E3 
  81      66DA5F52 
  81      4D3D2803 
  82 0180 20E2F398 		.ascii	" \342\363\230\"E\343^54\200.O\366\241\245 \013\022b"
  82      2245E35E 
  82      3534802E 
  82      4FF6A1A5 
  82      200B1262 
  83 0194 0F3A274D 		.ascii	"\017:'M;\255\025\027\232\\\317\020\260\216yA\213\224"
  83      3BAD1517 
  83      9A5CCF10 
  83      B08E7941 
  83      8B94
  84 01a6 9B0E9731 		.ascii	"\233\016\2271Sq\012\2118\306\213\035-\216\005O\257\313"
  84      53710A89 
  84      38C68B1D 
ARM GAS  /var/folders/c6/c789hm653lg9vtl73krp73tm0000gn/T//ccKhBMj9.s 			page 6


  84      2D8E054F 
  84      AFCB
  85 01b8 017446BB 		.ascii	"\001tF\273\333\2314F\306\313\013P,\340\025\222\356L"
  85      DB993446 
  85      C6CB0B50 
  85      2CE01592 
  85      EE4C
  86 01ca EA48A630 		.ascii	"\352H\2460\223\220\\]N\251T\217u\325\345rAB\214\323"
  86      93905C5D 
  86      4EA9548F 
  86      75D5E572 
  86      41428CD3 
  87 01de F2923121 		.ascii	"\362\2221!\0264\233\357Yw\213\203S\257Z\215n\341\323"
  87      16349BEF 
  87      59778B83 
  87      53AF5A8D 
  87      6EE1D3
  88 01f1 35A915FC 		.ascii	"5\251\025\374:QP\325\321^\254\240J\261\012\276\334\230"
  88      3A5150D5 
  88      D15EACA0 
  88      4AB10ABE 
  88      DC98
  89 0203 11D09E15 		.ascii	"\021\320\236\025\320\236\023\320\256c\301$\001\225\035"
  89      D09E13D0 
  89      AE63C124 
  89      01951D
  90 0212 0BE8C0A1 		.ascii	"\013\350\300\241\253uz\027\244 \347_d\032d2\271\204"
  90      AB757A17 
  90      A420E75F 
  90      641A6432 
  90      B984
  91 0224 3C4D266F 		.ascii	"<M&o\201L\006c\346e\362N\221\311\205'\006\015\371x\264"
  91      814C0663 
  91      E665F24E 
  91      91C98527 
  91      060DF978 
  92 0239 F7D99D7B 		.ascii	"\367\331\235{G\213A\222>?$\227:SL\003g\0034\263\351"
  92      478B4192 
  92      3E3F2497 
  92      3A534C03 
  92      670334B3 
  93 024e CFF18C9D 		.ascii	"\317\361\214\235Q?c\355\377\037\353\034!\347Y\3775\336"
  93      513F63ED 
  93      FF1FEB1C 
  93      21E759FF 
  93      35DE
  94 0260 34690DD1 		.ascii	"4i\015\321\244cf\036\277\277\207\364o6\241[\245\337"
  94      A463661E 
  94      BFBF87F4 
  94      6F36A15B 
  94      A5DF
  95 0272 413BC713 		.ascii	"A;\307\023\\,\227+\361\247qg\265Qy\320\320\366\376\312"
  95      5C2C972B 
  95      F1A77167 
  95      B55179D0 
  95      D0F6FECA 
  96 0286 CABDD572 		.ascii	"\312\275\325r\000\030\376\001\344\015\016\026"
ARM GAS  /var/folders/c6/c789hm653lg9vtl73krp73tm0000gn/T//ccKhBMj9.s 			page 7


  96      0018FE01 
  96      E40D0E16 
  97              		.text
  98              		.section	.gnu.lto_pools1_execute.6e49600ae6294f9,"",%progbits
  99 0000 789C9553 		.ascii	"x\234\225SMk\023Q\024=\367\275\371x\371n\304\215\013"
  99      4D6B1351 
  99      143DF7BD 
  99      F978F96E 
  99      C48D0B
 100 0013 25BA37F9 		.ascii	"%\2727\371\007\356\3357\240\3132\224:`\251\330\354\\"
 100      07EEDD37 
 100      A0CB3294 
 100      3A60A9D8 
 100      EC5C
 101 0025 74928950 		.ascii	"t\222\211PA!+)\025\324\322M\021A\\\010.\\X\335\330B"
 101      41212B29 
 101      15D4D24D 
 101      11415C08 
 101      2E5C58DD 
 102 003b 1B05170A 		.ascii	"\033\005\027\012]\004\027Y\371\0034\212\361\336y3ic"
 102      5D041759 
 102      F903348A 
 102      F1DE7933 
 102      6963
 103 004d DB8543F2 		.ascii	"\333\205C\362\336\273_\347\236{\346\215\202\302\277"
 103      DEBB5FE7 
 103      9E7BE68D 
 103      82C2BF
 104 005c CF3CFFEF 		.ascii	"\317<\377\357i\340\"\357\224\003\251\336>\3206\212\\"
 104      69E022EF 
 104      9403A9DE 
 104      3ED0368A 
 104      5C
 105 006d 7BD0CABC 		.ascii	"{\320\312\274\323\210\362\316\376.\020\025\035\353\337"
 105      D388F2CE 
 105      FE2E1015 
 105      1DEBDF
 106 007c 36AED20F 		.ascii	"6\256\322\017\266\331\223\367\342\022\373=e\336\\`\313"
 106      B6D993F7 
 106      E212FB3D 
 106      65DE5C60 
 106      CB
 107 008d FFDC60CB 		.ascii	"\377\334`\313'#Yd\210d\007aEi\307\365|C+\327I\332\322"
 107      27235964 
 107      88640761 
 107      4569C7F5 
 107      7C432BD7 
 108 00a4 256C4451 		.ascii	"%lDQopw\370\372\\\364\264\323\213\376\214\307\024\022"
 108      6F7077F8 
 108      FA5CF4B4 
 108      D38BFE8C 
 108      C71412
 109 00b7 13AC1102 		.ascii	"\023\254\021\002\30256\250\226l\312\231f\374B\275\035"
 109      C23536A8 
 109      966CCA99 
 109      66FC42BD 
 109      1D
ARM GAS  /var/folders/c6/c789hm653lg9vtl73krp73tm0000gn/T//ccKhBMj9.s 			page 8


 110 00c8 8CC7BF5F 		.ascii	"\214\307\277_n}\333\245\352Y\302\034m0\232\203\220\264"
 110      6E7DDBA5 
 110      EA59C21C 
 110      6D309A83 
 110      90B4
 111 00da 971A468C 		.ascii	"\227\032F\214\034/NA\226b\352.\213\273\"\236\252,\214"
 111      1C2F4E41 
 111      9662EA2E 
 111      8BBB229E 
 111      AA2C8C
 112 00ed E5A2CB2C 		.ascii	"\345\242\313,j6\014i\314\317,\257\243\012\232\244x\323"
 112      6A360C69 
 112      CCCF2CAF 
 112      A30A9AA4 
 112      78D3
 113 00ff 7BE81CFC 		.ascii	"{\350\034\374\030~Ts\264I.\026\310\271\214\347\321L"
 113      187E5473 
 113      B4492E16 
 113      C8B98CE7 
 113      D14C
 114 0111 48EE23AC 		.ascii	"H\356#\254\267{r\362\356`\024\255\311\311_L\000\204"
 114      B77B72F2 
 114      EE6014AD 
 114      C9C95F4C 
 114      0084
 115 0123 B58FEC74 		.ascii	"\265\217\354t\224{\037\236\305\001\244hU\212L@6G<&\244"
 115      947B1F9E 
 115      C501A468 
 115      558A4C40 
 115      36473C26 
 116 0138 DC22519A 		.ascii	"\334\"Q\232\304\335\004!\3572\335\002\260\203\316\340"
 116      C4DD0421 
 116      EF32DD02 
 116      B083CEE0 
 117 0148 F1FB14C1 		.ascii	"\361\373\024\301r\236j\320$\015~)\272\217\356\340\311"
 117      729E6AD0 
 117      240D7E29 
 117      BA8FEEE0 
 117      C9
 118 0159 26658CCD 		.ascii	"&e\214\315\244U1 uJ\253\220J\300\036\342/:+\313q\245"
 118      A4553120 
 118      754AAB90 
 118      4AC01EE2 
 118      2F3A2BCB 
 119 016f C06B4BDC 		.ascii	"\300kK\334\315\374\205\011\\9\260\301\204E\205\244&"
 119      CDFC8509 
 119      5C39B0C1 
 119      844585A4 
 119      26
 120 0180 A419E003 		.ascii	"\244\031\340\003\272\337'\335\013\022\234z\205M6\037"
 120      BADF27DD 
 120      0B129C7A 
 120      854D361F 
 121 0190 5E6161E3 		.ascii	"^aa\343\325\370\327\375\253Ybq\201(\031G\006\332\201"
 121      D5F8D7FD 
 121      AB596271 
 121      81281947 
ARM GAS  /var/folders/c6/c789hm653lg9vtl73krp73tm0000gn/T//ccKhBMj9.s 			page 9


 121      06DA81
 122 01a3 3A3A2647 		.ascii	"::&G\263Z\027|\2454Ka0\011R\322s\330\3663,\013t\330"
 122      B35A177C 
 122      A5344B61 
 122      300952D2 
 122      73D8F633 
 123 01bb F52B2855 		.ascii	"\365+(UJmi\006s\326r\202\345!.%j=\013\262\312\362\377"
 123      4A6D6906 
 123      73D67282 
 123      E5212E25 
 123      6A3D0BB2 
 124 01d2 88D59F88 		.ascii	"\210\325\237\210U\341\312\223\304\252\236\"\226\222"
 124      55E1CA93 
 124      C4AA9E22 
 124      9692
 125 01e0 9AE36255 		.ascii	"\232\343bUO\020\313\307O\237I\306\346\330\315\251\006"
 125      4F10CBC7 
 125      4F9F49C6 
 125      E6D8CDA9 
 125      06
 126 01f1 696E4867 		.ascii	"inHg\354\224^:\245w\360\352\206\324\032\271\301\237"
 126      EC945E3A 
 126      A577F0EA 
 126      86D41AB9 
 126      C19F
 127 0203 F8333E04 		.ascii	"\3703>\004\234e\265F\025\231\354|\275\336\260\277\326"
 127      9C65B546 
 127      1599EC7C 
 127      BDDEB0BF 
 127      D6
 128 0214 FC72AB71 		.ascii	"\374r\253q\273\225\354\267\226\226n.\327\003P\370\027"
 128      BB95ECB7 
 128      96966E2E 
 128      D70350F8 
 128      17
 129 0225 D2AACD2D 		.ascii	"\322\252\315-"
 130              		.text
 131              		.section	.gnu.lto_.symbol_nodes.6e49600ae6294f9,"",%progbits
 132 0000 789C4D8C 		.ascii	"x\234M\214]\216\001Q\024\204\253\356\351\243\333\260"
 132      5D8E0151 
 132      1484ABEE 
 132      E9A3DBB0 
 133 0010 00129BB3 		.ascii	"\000\022\233\263\222#\2210\343\311\002LBz\023\336\373"
 133      92239130 
 133      E3C9024C 
 133      427A13DE 
 133      FB
 134 0021 8DC41A84 		.ascii	"\215\304\032\204\37073$\355\225\271\027\321\316K\345"
 134      F8373324 
 134      ED95B917 
 134      D1CE4BE5 
 135 0031 AB3A550E 		.ascii	"\253:U\016\0165\342qnM\003\3723\300l\360\325t\033\032"
 135      0E35E271 
 135      6E4D03FA 
 135      33C06CF0 
 135      D5741B1A 
 136 0045 0BD41511 		.ascii	"\013\324\025\021\231\2703\315=\335\357O\352\201\204"
ARM GAS  /var/folders/c6/c789hm653lg9vtl73krp73tm0000gn/T//ccKhBMj9.s 			page 10


 136      99B833CD 
 136      3DDDEF4F 
 136      EA8184
 137 0054 C16D69F2 		.ascii	"\301mi\362\366\273\247S\203\356(^x\242E\217\260\325"
 137      F6BBA753 
 137      83EE285E 
 137      78A2458F 
 137      B0D5
 138 0066 22FF685A 		.ascii	"\"\377hZ\320\017\255T\320/-.\350HK^$L\320\236_)RA:\275"
 138      D00FAD54 
 138      D02F2D2E 
 138      E8484B5E 
 138      244CD09E 
 139 0080 46221F58 		.ascii	"F\"\037XN\202&\310\356ZA\273\2277\202\237u\203z\356"
 139      4E8226C8 
 139      EE5A41BB 
 139      9737829F 
 139      75837AEE 
 140 0094 E476E7D1 		.ascii	"\344v\347\321-\026)#\035\347u\321*\322\260\243\276?"
 140      2D162923 
 140      1DE775D1 
 140      2AD2B0A3 
 140      BE3F
 141 00a6 F4BEFABD 		.ascii	"\364\276\372\275\220\007\356\370^\340\320W\301\242{"
 141      9007EEF8 
 141      5EE0D057 
 141      C1A27B
 142 00b5 89F10FE7 		.ascii	"\211\361\017\347\\U\236"
 142      5C559E
 143              		.text
 144              		.section	.gnu.lto_.refs.6e49600ae6294f9,"",%progbits
 145 0000 789C35C7 		.ascii	"x\2345\307\301\015\0000\010\303\300\304\2052K\367_\020"
 145      C10D0030 
 145      08C3C0C4 
 145      85324BF7 
 145      5F10
 146 0012 A48AF3CB 		.ascii	"\244\212\363\313\010=}6\324Q\260\004\221\373\276\324"
 146      083D7D36 
 146      D451B004 
 146      91FBBED4 
 147 0022 64520D10 		.ascii	"dR\015\020\271\000\224"
 147      B90094
 148              		.text
 149              		.section	.gnu.lto_.decls.6e49600ae6294f9,"",%progbits
 150 0000 789C9D58 		.ascii	"x\234\235XklTE\024\236\271\333\322\226.\005\252\220"
 150      6B6C5445 
 150      149EB9DB 
 150      D2962E05 
 150      AA90
 151 0012 22AF4541 		.ascii	"\"\257EA#\221\335\326`\302\017CA\242\326\304\007\177"
 151      2391DDD6 
 151      60C20F43 
 151      41A2D6C4 
 151      077F
 152 0024 488C7FD6 		.ascii	"H\214\177\326a{\2415\333\335r\367V@\1778\024\013\025"
 152      617BA135 
 152      DBDD72F7 
ARM GAS  /var/folders/c6/c789hm653lg9vtl73krp73tm0000gn/T//ccKhBMj9.s 			page 11


 152      56407F38 
 152      140B15
 153 0037 092905B4 		.ascii	"\011)\005\264EJZ\036\012\374*\240\220H\212\233\212m"
 153      454A5A1E 
 153      0AFC2AA0 
 153      90488A9B 
 153      8A6D
 154 0049 C594F08A 		.ascii	"\305\224\360\212\012Z\262\021\210\202\200E\204\206\012"
 154      0A5AB211 
 154      88828045 
 154      84860A
 155 0058 AC671EBB 		.ascii	"\254g\036\273{\357\335{\227\326I\317\275sg\316\343;"
 155      7BEFDD7B 
 155      97D649CF 
 155      BD7367CE 
 155      E33B
 156 006a 67CECC9C 		.ascii	"g\316\314\234\255\202\024t\015#\024\207\266\263\020"
 156      AD821474 
 156      0D231487 
 156      B6B310
 157 0079 A1171584 		.ascii	"\241\027\025\204\262\021Bs\221x\267\311\367!\240\375"
 157      B2114273 
 157      9178B7C9 
 157      F721A0FD 
 158 0089 40479068 		.ascii	"@G\220hy@\035@\235@]@\307\201z\201\316\000\375\014\364"
 158      79401D40 
 158      9D405D40 
 158      C7817A81 
 158      CE00FD0C 
 159 009e 2BD025A0 		.ascii	"+\320%\240,\240\253@\327\201\376\006\032\205\221\251"
 159      2CA0AB40 
 159      D781FE06 
 159      1A8591A9 
 160 00ae 311D6CA8 		.ascii	"1\035l\250T~c9fm\235\022G\0216c:!\347\025\311\323+u"
 160      547E6339 
 160      666D9D12 
 160      47113663 
 160      3A21E715 
 161 00c6 5CB5C833 		.ascii	"\\\265\3103\214\217J<\005@ni\363\002\320_@7\200&\200"
 161      8C8F4A3C 
 161      05406E69 
 161      F302D05F 
 161      40378026 
 162 00db E06352FF 		.ascii	"\340cR\377Y\240\211\320?\007\357IX\330\353\223\366\023"
 162      59A089D0 
 162      3F07EF49 
 162      58D8EB93 
 162      F613
 163 00ed 7148D81E 		.ascii	"qH\330\036!\365\033}\357\225~(\322w+\036\026\257G\206"
 163      21F51B7D 
 163      EF957E28 
 163      D2772B1E 
 163      16AF4786 
 164 0101 8067B2C4 		.ascii	"\200g\262\304\303l^v\3004\005\372\335Ro\266\324}\311"
 164      C36C5E76 
 164      C03405FA 
 164      DD526FB6 
ARM GAS  /var/folders/c6/c789hm653lg9vtl73krp73tm0000gn/T//ccKhBMj9.s 			page 12


 164      D47DC9
 165 0114 80A52B03 		.ascii	"\200\245+\003\216|\264\216\322Z\332\272\206\226\365"
 165      8E7CB48E 
 165      D25ADABA 
 165      8696F5
 166 0123 1414A28D 		.ascii	"\024\024\242\215\024\232\247\007\020\275\211\011.\310"
 166      149AA707 
 166      10BD8909 
 166      2EC8
 167 0131 436FF38E 		.ascii	"Co\363\216;\217\003\234\201vQ\332\020\373\356b\021\315"
 167      3B8F039C 
 167      817651DA 
 167      10FBEE62 
 167      11CD
 168 0143 2278072E 		.ascii	"\"x\007.\004\265Oa4\023\355\005\251\006JwLL_8\3640\245"
 168      04B54F61 
 168      3413ED05 
 168      A9064A77 
 168      4C4C5F38 
 169 015a 0811FC39 		.ascii	"\010\021\3749\250\"x7\236)L\320\350\306.73\301\306\221"
 169      A8227837 
 169      9E294CD0 
 169      E8C62E37 
 169      33C1C691 
 170 016e 9CB169D3 		.ascii	"\234\261i\323P+\200\217nZ\3232\201\266vb;_ZG\030\354"
 170      502B808F 
 170      6E5AD332 
 170      81B67662 
 170      3B5F5A47 
 171 0184 7A1276B3 		.ascii	"z\022v\263xD\236\307\240z\237\325\364M\342\021\243\017"
 171      78449EC7 
 171      A07A9FD5 
 171      F44DE211 
 171      A30F
 172 0196 377CEBCA 		.ascii	"7|\353\312\367\2306\272\011\336\013\266\025T\226\320"
 172      F79836BA 
 172      09DE0BB6 
 172      155496D0 
 173 01a6 67674E76 		.ascii	"ggNvE\223\014\326f'\307P0\365\262)h!\226\001\033\246"
 173      45930CD6 
 173      6627C750 
 173      30F5B229 
 173      68219601 
 174 01bc 1589794B 		.ascii	"\025\211yK\3276\036\254<T\237\012\226\275i\271\3347"
 174      D7361EAC 
 174      3C549F0A 
 174      96BD69B9 
 174      DC37
 175 01ce D7FC780B 		.ascii	"\327\374x\013\327R\012\023\373ALA\00716\205\206\340"
 175      D7520A13 
 175      FB414C41 
 175      07313685 
 175      86E0
 176 01e0 6C932FFC 		.ascii	"l\223/\374;\301\300\364\361i\331a\007\315h\346\307\327"
 176      3BC1C0F4 
 176      F169D961 
 176      07CD68E6 
ARM GAS  /var/folders/c6/c789hm653lg9vtl73krp73tm0000gn/T//ccKhBMj9.s 			page 13


 176      C7D7
 177 01f2 78B88E78 		.ascii	"x\270\216x\214\216\304\352.\366\270\232i\364C\227i\331"
 177      8C8EC4EA 
 177      2EF6B89A 
 177      69F44397 
 177      69D9
 178 0204 C7A32D7C 		.ascii	"\307\243-|\331\327\000^\235\340\322|\307\240\036\306"
 178      D9D7005E 
 178      9DE0D27C 
 178      C7A01EC6 
 179 0214 E379CFC5 		.ascii	"\343y\317\305\367\006\022\316\021\274\310\225q9dL\016"
 179      F70612CE 
 179      11BCC895 
 179      7139644C 
 179      0E
 180 0225 6E38FC34 		.ascii	"n8\3744\245\271\004\037\342+\177\335\022\021\023$a\312"
 180      A5B9041F 
 180      E22B7FDD 
 180      12111324 
 180      61CA
 181 0237 09C61150 		.ascii	"\011\306\021P`\237gis\012\032\034J\314r3\245\230I\177"
 181      609F6769 
 181      730A1A1C 
 181      4ACC7233 
 181      A598497F 
 182 024b 6ADB11FC 		.ascii	"j\333\021\374\005\236\001\317=x\032<\333\371\363+xf"
 182      059E01CF 
 182      3D781A3C 
 182      DBF9F32B 
 182      7866
 183 025d 8C0553D1 		.ascii	"\214\005S\321\226J\315\251h;=\331\037ki<:\205\255\013"
 183      964ACDA9 
 183      683B3DD9 
 183      1F6B693C 
 183      3A85AD0B 
 184 0271 8DC73F90 		.ascii	"\215\307?\220aV\320.\305\034\240\351h'\245\215\364S"
 184      6156D02E 
 184      C51CA0E9 
 184      6827A58D 
 184      F453
 185 0283 B52C9154 		.ascii	"\265,\221T\0078G\007\236jkJpA{\022\355f\221\355\270"
 185      07384707 
 185      9E6A6B4A 
 185      70417B12 
 185      ED6691ED 
 186 0298 B4B08CAF 		.ascii	"\264\260\214\257.\312 $!\036\305\212\321m\0063\332\017"
 186      2ECA2024 
 186      211EC58A 
 186      D16D0633 
 186      DA0F
 187 02aa FB6003EC 		.ascii	"\373`\003\354\203\332h<^\212,I3w\234\243\273\337\312"
 187      83DA683C 
 187      5E8A2C49 
 187      33779CA3 
 187      BBDFCA
 188 02bd A449E589 		.ascii	"\244I\345\211\202\016[|\223 \241\355\241.\256\215\361"
 188      820E5B7C 
ARM GAS  /var/folders/c6/c789hm653lg9vtl73krp73tm0000gn/T//ccKhBMj9.s 			page 14


 188      9320A1ED 
 188      A12EAE8D 
 188      F1
 189 02ce 77024853 		.ascii	"w\002HS\360\217\331\302\332\336\265>\267aU,\036\237"
 189      F08FD9C2 
 189      DADEB53E 
 189      B761552C 
 189      1E9F
 190 02e0 3A7450DD 		.ascii	":tP\3356\240\216\331\203j0\203\352\262\202\352\261\003"
 190      36A08ED9 
 190      836A3083 
 190      EAB282EA 
 190      B103
 191 02f2 450F509A 		.ascii	"E\017P\232\007\313\031\247\212\210\200\202\316\017\311"
 191      07CB19A7 
 191      8A888082 
 191      CE0FC9
 192 0301 E7E356F5 		.ascii	"\347\343V\365?\244\253\2175\304\352\006\242\270\231"
 192      3FA4AB8F 
 192      35C4EA06 
 192      A2B899
 193 0310 768A8C19 		.ascii	"v\212\214\031\272\333'\254\033\230\345\242i7\033'\017"
 193      BADB27AC 
 193      1B98E5A2 
 193      69371B27 
 193      0F
 194 0321 8944356D 		.ascii	"\211D5mp\005]I\363C0\235\266\003\032=\335\275\236\342"
 194      70055D49 
 194      F343309D 
 194      B6031A3D 
 194      DDBD9EE2 
 195 0335 E1AECED9 		.ascii	"\341\256\316\331\2140K\355P\015:\240\372\311\026\325"
 195      8C304BED 
 195      500D3AA0 
 195      FAC916D5 
 196 0345 37DDEB27 		.ascii	"7\335\353'\3206\333L\316p\374\235\263\203e\301Q\347"
 196      D036DB4C 
 196      CE70FC9D 
 196      B38365C1 
 196      51E7
 197 0357 B2C7F18B 		.ascii	"\262\307\361\213\3552\236\331\332\267\012o\\\335\332"
 197      ED329ED9 
 197      DAB70A6F 
 197      5CDDDA
 198 0366 43FBD911 		.ascii	"C\373\331\021o\202\222\213\326\262m\033\253\243\253"
 198      6F82928B 
 198      D6B26D1B 
 198      ABA3AB
 199 0375 F0B2E469 		.ascii	"\360\262\344i\222\233\000\305*6q\375B\202B\222]\300"
 199      929B00C5 
 199      2A3671FD 
 199      42824292 
 199      5DC0
 200 0387 B9607E9F 		.ascii	"\271`~\237\313R,\246\0200\006\326\230\274\350'z\330"
 200      CB522CA6 
 200      103006D6 
 200      98BCE827 
ARM GAS  /var/folders/c6/c789hm653lg9vtl73krp73tm0000gn/T//ccKhBMj9.s 			page 15


 200      7AD8
 201 0399 F9ACEAB3 		.ascii	"\371\254\352\263\272\014\327Q\262/5Z\"\320\356\020\201"
 201      BA0CD751 
 201      B22F355A 
 201      22D0EE10 
 201      81
 202 03aa 8BB611D8 		.ascii	"\213\266\021\3305\320\203\353\033\351\275x\3345\214"
 202      35D083EB 
 202      1BE9BD78 
 202      DC358C
 203 03b9 3CBE3C84 		.ascii	"<\276<\204\004\261\246\265\005f\207\003\314+f\230\217"
 203      04B1A6B5 
 203      05668703 
 203      CC2B6698 
 203      8F
 204 03ca A3361A3D 		.ascii	"\2436\032=\031\333v\372K\014G\037\245\017\342q\234\250"
 204      19DB76FA 
 204      4B0C471F 
 204      A50FE271 
 204      9CA8
 205 03dc E37A932A 		.ascii	"\343z\223*\234\212\264?\245\262\331\350 \255\217\026"
 205      9C8AB43F 
 205      A5B2D9E8 
 205      20AD8F16 
 206 03ec 0B417165 		.ascii	"\013Aqe0NQ\244\210\313C\336\365\177(\362\032a\337G\344"
 206      304E51A4 
 206      88CB43DE 
 206      F57F28F2 
 206      1A61DF47 
 207 0401 4DC140F4 		.ascii	"M\301@\364C\266\234\277V\2137Q\310\026\012\231\213\247"
 207      43B69CBF 
 207      568B3751 
 207      C8160A99 
 207      8BA7
 208 0413 8E450DB2 		.ascii	"\216E\015\262LL^\236Q~yf\210\\\251\355\325\231\322\224"
 208      4C4C5E9E 
 208      517E7966 
 208      885CA9ED 
 208      D599D294 
 209 0427 889E64EF 		.ascii	"\210\236d\357\307c\221}S\320\251\264\010\022|3\025="
 209      C763917D 
 209      53D0A9B4 
 209      08127C33 
 209      153D
 210 0439 06BA3D0A 		.ascii	"\006\272=\012w\333?\247\360fJ-\240[\347YP'\212OX{Cq"
 210      77DB3FA7 
 210      F0664A2D 
 210      A05BE759 
 210      50278A4F 
 211 0451 4571C281 		.ascii	"Eq\302\2011\334\346Y\260iS\035\233\331\010\276\203Y"
 211      31DCE659 
 211      B069531D 
 211      9BD908BE 
 211      8359
 212 0463 18072C75 		.ascii	"\030\007,u*\004\260\243\210\227 \003C\252U\357\336\357"
 212      2A04B0A3 
 212      88972003 
ARM GAS  /var/folders/c6/c789hm653lg9vtl73krp73tm0000gn/T//ccKhBMj9.s 			page 16


 212      43AA55EF 
 212      DEEF
 213 0475 61B5AAA9 		.ascii	"a\265\252\2512\2215`lw\264\250\251\340a\2732\311L\213"
 213      32913560 
 213      6C77B4A8 
 213      A9E061BB 
 213      32C94C8B 
 214 0489 8AEC7909 		.ascii	"\212\354y\011\276\307\213\210\373\"G\371\224\350'zq"
 214      BEC78B88 
 214      FB2247F9 
 214      94E8277A 
 214      71
 215 049a CCFCEE73 		.ascii	"\314\374\356s\336\327\231E\235\362`\320X\037\377\306"
 215      DED79945 
 215      9DF260D0 
 215      581FFFC6 
 216 04aa 5772E07F 		.ascii	"Wr\340\177\027\310\377^I\017\224\270\366\234\314\257"
 216      17C8FF5E 
 216      490F94B8 
 216      F69CCCAF 
 217 04ba 520CE67F 		.ascii	"R\014\346\177\037\266y\217\311\374=\265\247X\250\204"
 217      1FB6798F 
 217      C9FC3DB5 
 217      A758A884 
 218 04ca B27228BA 		.ascii	"\262r(\272\354\312=\251\353\201A\327\235a\353\362\244"
 218      ECCA3DA9 
 218      EB8141D7 
 218      9D61EBF2 
 218      A4
 219 04db AD8EC830 		.ascii	"\255\216\3100\202\357\362\372\220*\354\271\232?\353"
 219      82EFF2FA 
 219      902AECB9 
 219      9A3FEB
 220 04ea 9487D68A 		.ascii	"\224\207\326\212\226\200\336v@\302\364\257M\005\324"
 220      9680DE76 
 220      40C2F4AF 
 220      4D05D4
 221 04f9 AC729E19 		.ascii	"\254r\236\031\250a\373\011!{6\202\353\025\261\363y\016"
 221      A861FB09 
 221      217B3682 
 221      EB15B1F3 
 221      790E
 222 050b D32406E0 		.ascii	"\323$\006\340p\202\360\221\222JDw^\252c\314\334\024"
 222      7082F091 
 222      924A4477 
 222      5EAA63CC 
 222      DC14
 223 051d 17C4F781 		.ascii	"\027\304\367\201\365\374L\003\261N1\236\237\360#\363"
 223      F5FC4C03 
 223      B14E319E 
 223      9FF023F3 
 224 052d 169C47C9 		.ascii	"\026\234G\311u{\037\015\322&\012'\314\355\022\341\013"
 224      757B1F0D 
 224      D2260A27 
 224      CCED12E1 
 224      0B
 225 053e 3F274F46 		.ascii	"?'OF\233\327\266\030\017\353\333\374\260\3768\313b\314"
ARM GAS  /var/folders/c6/c789hm653lg9vtl73krp73tm0000gn/T//ccKhBMj9.s 			page 17


 225      9BD7B618 
 225      0FEBDBFC 
 225      B0FE38CB 
 225      62CC
 226 0550 7C66306B 		.ascii	"|f0k\033\300\332\024\364IV\013\3155X\235'4\210%\024"
 226      1BC0DA14 
 226      F449560B 
 226      CD35589D 
 226      27348825 
 227 0565 26A39F75 		.ascii	"&\243\237u\233\1779'\316\317\246\002\261\363\244\211"
 227      9B7F3927 
 227      CECFA602 
 227      B1F3A489 
 228 0575 58D2C424 		.ascii	"X\322\304$ib\323\260\243\272\331!\252\211\377\0338\311"
 228      6962D3B0 
 228      A3BAD921 
 228      AA89FF1B 
 228      38C9
 229 0587 35A61262 		.ascii	"5\246\022b\012\332\013>5\315K\231\027\231\310\234\251"
 229      0ADA0B3E 
 229      35CD4B99 
 229      1799C89C 
 229      A9
 230 0598 A7D16D39 		.ascii	"\247\321m9\"\341\223\005\267\310P\246OlS\221\253\222"
 230      22E19305 
 230      B7C850A6 
 230      4F6C5391 
 230      AB92
 231 05aa BB3DC96D 		.ascii	"\273=\311m,U%\012\341o\"\027-\351{\"\303y\320\224Bk"
 231      2C55250A 
 231      E16F2217 
 231      2DE97B22 
 231      C379D094 
 232 05c0 91BA915A 		.ascii	"\221\272\221Z\3614\251fG\251\263\031lmu\224:\227A\352"
 232      F134A966 
 232      47A9B319 
 232      6C6D7594 
 232      3A9741EA 
 233 05d4 3347A9BE 		.ascii	"3G\251\276\014R\333\034\245.g\220jq\224\352\316 \265"
 233      0C52DB1C 
 233      A52E6790 
 233      6A7194EA 
 233      CE20B5
 234 05e7 DD70044C 		.ascii	"\335p\004L\367z}\342/\034\361i\272\2572\024\010\326"
 234      F77A7DE2 
 234      2F1CF169 
 234      BAAF3214 
 234      08D6
 235 05f9 94ABBE40 		.ascii	"\224\253\276@E\225ZU\035\016\007#\336\0124\012\372a"
 235      45955A55 
 235      1D0E0723 
 235      DE0A340A 
 235      FA61
 236 060b 6DA59F7D 		.ascii	"m\245\237}\373\365\021/\277\276\310\263\000\345\363"
 236      FBF5112F 
 236      BFBEC8B3 
 236      00E5F3
ARM GAS  /var/folders/c6/c789hm653lg9vtl73krp73tm0000gn/T//ccKhBMj9.s 			page 18


 237 061a AF0A9594 		.ascii	"\257\012\225\224\253ZNu\205?\244\256\320s\252\252\371"
 237      AB5A4E75 
 237      853FA4AE 
 237      D073AAAA 
 237      F9
 238 062b FB2D5F4D 		.ascii	"\373-_MD\363\005\303\001\022\364-P\203A\242\371\226"
 238      44F305C3 
 238      0112F42D 
 238      508341A2 
 238      F996
 239 063d 0602B388 		.ascii	"\006\002\263\210V5+\024\016\251\263T\262\270\322\367"
 239      56352B14 
 239      0EA9B354 
 239      B2B8D2F7 
 240 064d 6C71C9EC 		.ascii	"lq\311\354\3429\305\317\371\202\225\213\331\264\317"
 240      E239C5CF 
 240      F982958B 
 240      D9B4CF
 241 065c 3C3DDB3B 		.ascii	"<=\333;\307;;\211'\242\227\227\253K\000\313\210H\345"
 241      C73B3B89 
 241      27A29797 
 241      AB4B00CB 
 241      8848E5
 242 066f 7BAA5F2F 		.ascii	"{\252_/\000K\341\305\357\250\001\335\317\006\236\310"
 242      004BE1C5 
 242      EFA801DD 
 242      CF069EC8 
 243 067f E44620AC 		.ascii	"\344F \254\251 \351\206\356RU_R\023\012\370\365|\220"
 243      A920E986 
 243      EE52555F 
 243      52130AF8 
 243      F57C90
 244 0692 AFD6C2EF 		.ascii	"\257\326\302\357V\002\372\311Ia]\215\350L\234\275\205"
 244      5602FAC9 
 244      49615D8D 
 244      E84C9CBD 
 244      85
 245 06a3 F301342A 		.ascii	"\363\0014*T\023\014&y\263\23057\237+\361GT\275\246z"
 245      54130C26 
 245      79B39835 
 245      379F2BF1 
 245      4754BDA6 
 246 06b8 9CFC5057 		.ascii	"\234\374PW\250\201\032]\365V\023M\367\026\027\230G\307"
 246      A8811A5D 
 246      F556134D 
 246      F7161798 
 246      47C7
 247 06ca 042A16C2 		.ascii	"\004*\026\302\300\033\034\361+\241J}\244\030xIS\325"
 247      C01B1CF1 
 247      2BA14A7D 
 247      A4187849 
 247      53D5
 248 06dc 7CD19D1F 		.ascii	"|\321\235\037\204x\025\331B\001\360\331\376\027\200"
 248      847815D9 
 248      4201F0D9 
 248      FE1780
 249 06eb C7ED679F 		.ascii	"\307\355g\237~\022\211\250\232>Z\310\275\032&\345\363"
ARM GAS  /var/folders/c6/c789hm653lg9vtl73krp73tm0000gn/T//ccKhBMj9.s 			page 19


 249      7E1289A8 
 249      9A3E5AC8 
 249      BD1A26E5 
 249      F3
 250 06fc 358DAC74 		.ascii	"5\215\254tUU\227(\313I.c\011\220\210\232\025\250 ZV"
 250      55559728 
 250      CB492E63 
 250      0990889A 
 250      15A8205A 
 251 0711 8854A9D9 		.ascii	"\210T\251\331\034(L\020\255<\274<\224#A\271\253\211"
 251      1C284C10 
 251      AD3CBC3C 
 251      942341B9 
 251      AB89
 252 0723 AEAB5A88 		.ascii	"\256\253Z\210C\035\231\364\271\244\320\253\205\313\211"
 252      431D99F4 
 252      B9A4D0AB 
 252      85CB89
 253 0732 4EBCA9A1 		.ascii	"N\274\251\241I\257\361\014\3600\203\221g<\313j\324\032"
 253      49AFF10C 
 253      F0308391 
 253      673CCB6A 
 253      D41A
 254 0744 D557AEF2 		.ascii	"\325W\256\3627\372\017\337\323f["
 254      37FA0FDF 
 254      D3665B
 255              		.text
 256              		.section	.gnu.lto_.symtab.6e49600ae6294f9,"",%progbits
 257 0000 70617474 		.ascii	"patternpools\000\000\000\000\000\000\000\000\000\000"
 257      65726E70 
 257      6F6F6C73 
 257      00000000 
 257      00000000 
 258 0016 0000F200 		.ascii	"\000\000\362\000\000\000testpools1\000\000\000\000\000"
 258      00007465 
 258      7374706F 
 258      6F6C7331 
 258      00000000 
 259 002b 00000000 		.ascii	"\000\000\000\000\000\000\000\015\001\000\000wa\000\000"
 259      0000000D 
 259      01000077 
 259      610000
 260 003a 02000000 		.ascii	"\002\000\000\000\000\000\000\000\000\000\355\000\000"
 260      00000000 
 260      0000ED00 
 260      00
 261 0047 00636850 		.ascii	"\000chPoolObjectInit\000\000\002\000\000\000\000\000"
 261      6F6F6C4F 
 261      626A6563 
 261      74496E69 
 261      74000002 
 262 0060 00000000 		.ascii	"\000\000\000\000\315\000\000\000chPoolFree\000\000\002"
 262      CD000000 
 262      6368506F 
 262      6F6C4672 
 262      65650000 
 263 0075 00000000 		.ascii	"\000\000\000\000\000\000\000\000\000\323\000\000\000"
ARM GAS  /var/folders/c6/c789hm653lg9vtl73krp73tm0000gn/T//ccKhBMj9.s 			page 20


 263      00000000 
 263      00D30000 
 263      00
 264 0082 6368506F 		.ascii	"chPoolAlloc\000\000\002\000\000\000\000\000\000\000"
 264      6F6C416C 
 264      6C6F6300 
 264      00020000 
 264      00000000 
 265 0097 0000D800 		.ascii	"\000\000\330\000\000\000_test_assert\000\000\002\000"
 265      00005F74 
 265      6573745F 
 265      61737365 
 265      72740000 
 266 00ad 00000000 		.ascii	"\000\000\000\000\000\000\000\000\334\000\000\000chP"
 266      00000000 
 266      DC000000 
 266      636850
 267 00bc 6F6F6C4C 		.ascii	"oolLoadArray\000\000\002\000\000\000\000\000\000\000"
 267      6F616441 
 267      72726179 
 267      00000200 
 267      00000000 
 268 00d2 0000E400 		.ascii	"\000\000\344\000\000\000"
 268      0000
 269              		.text
 270              		.section	.gnu.lto_.opts,"",%progbits
 271 0000 272D6D63 		.ascii	"'-mcpu=cortex-m4' '-mno-thumb-interwork' '-mthumb' "
 271      70753D63 
 271      6F727465 
 271      782D6D34 
 271      2720272D 
 272 0033 272D6767 		.ascii	"'-ggdb' '-O2' '-fomit-frame-pointer' '-falign-funct"
 272      64622720 
 272      272D4F32 
 272      2720272D 
 272      666F6D69 
 273 0066 696F6E73 		.ascii	"ions=16' '-ffunction-sections' '-fdata-sections' '-"
 273      3D313627 
 273      20272D66 
 273      66756E63 
 273      74696F6E 
 274 0099 666E6F2D 		.ascii	"fno-common' '-flto'\000"
 274      636F6D6D 
 274      6F6E2720 
 274      272D666C 
 274      746F2700 
 275              		.text
 276              		.cfi_sections	.debug_frame
 277              		.section	.text.null_provider,"ax",%progbits
 278              		.align	2
 279              		.p2align 4,,15
 280              		.thumb
 281              		.thumb_func
 282              		.type	null_provider, %function
 283              	null_provider:
 284              	.LFB229:
 285              		.file 1 "../../../test/rt/testpools.c"
ARM GAS  /var/folders/c6/c789hm653lg9vtl73krp73tm0000gn/T//ccKhBMj9.s 			page 21


 286              		.loc 1 60 0
 287              		.cfi_startproc
 288              		@ args = 0, pretend = 0, frame = 0
 289              		@ frame_needed = 0, uses_anonymous_args = 0
 290              		@ link register save eliminated.
 291              	.LVL0:
 292              		.loc 1 64 0
 293 0000 0020     		movs	r0, #0
 294              	.LVL1:
 295 0002 7047     		bx	lr
 296              		.cfi_endproc
 297              	.LFE229:
 298              		.size	null_provider, .-null_provider
 299 0004 AFF30080 		.section	.text.pools1_setup,"ax",%progbits
 299      AFF30080 
 299      AFF30080 
 300              		.align	2
 301              		.p2align 4,,15
 302              		.thumb
 303              		.thumb_func
 304              		.type	pools1_setup, %function
 305              	pools1_setup:
 306              	.LFB230:
 307              		.loc 1 66 0
 308              		.cfi_startproc
 309              		@ args = 0, pretend = 0, frame = 0
 310              		@ frame_needed = 0, uses_anonymous_args = 0
 311              		@ link register save eliminated.
 312              		.loc 1 68 0
 313 0000 0248     		ldr	r0, .L3
 314 0002 4FF4B471 		mov	r1, #360
 315 0006 0022     		movs	r2, #0
 316 0008 FFF7FEBF 		b	chPoolObjectInit
 317              	.LVL2:
 318              	.L4:
 319              		.align	2
 320              	.L3:
 321 000c 00000000 		.word	.LANCHOR0
 322              		.cfi_endproc
 323              	.LFE230:
 324              		.size	pools1_setup, .-pools1_setup
 325              		.section	.text.pools1_execute,"ax",%progbits
 326              		.align	2
 327              		.p2align 4,,15
 328              		.thumb
 329              		.thumb_func
 330              		.type	pools1_execute, %function
 331              	pools1_execute:
 332              	.LFB231:
 333              		.loc 1 71 0
 334              		.cfi_startproc
 335              		@ args = 0, pretend = 0, frame = 0
 336              		@ frame_needed = 0, uses_anonymous_args = 0
 337 0000 38B5     		push	{r3, r4, r5, lr}
 338              		.cfi_def_cfa_offset 16
 339              		.cfi_offset 3, -16
 340              		.cfi_offset 4, -12
ARM GAS  /var/folders/c6/c789hm653lg9vtl73krp73tm0000gn/T//ccKhBMj9.s 			page 22


 341              		.cfi_offset 5, -8
 342              		.cfi_offset 14, -4
 343              		.loc 1 75 0
 344 0002 2C4B     		ldr	r3, .L18
 345 0004 2C48     		ldr	r0, .L18+4
 346 0006 1D68     		ldr	r5, [r3]
 347 0008 0522     		movs	r2, #5
 348 000a 2946     		mov	r1, r5
 349 000c FFF7FEFF 		bl	chPoolLoadArray
 350              	.LVL3:
 351 0010 0524     		movs	r4, #5
 352              	.LVL4:
 353              	.L9:
 354              		.loc 1 79 0
 355 0012 2948     		ldr	r0, .L18+4
 356 0014 FFF7FEFF 		bl	chPoolAlloc
 357              	.LVL5:
 358 0018 011C     		adds	r1, r0, #0
 359 001a 18BF     		it	ne
 360 001c 0121     		movne	r1, #1
 361 001e 0120     		movs	r0, #1
 362 0020 FFF7FEFF 		bl	_test_assert
 363              	.LVL6:
 364 0024 A0BB     		cbnz	r0, .L5
 365              		.loc 1 78 0
 366 0026 013C     		subs	r4, r4, #1
 367              	.LVL7:
 368 0028 F3D1     		bne	.L9
 369              		.loc 1 82 0
 370 002a 2348     		ldr	r0, .L18+4
 371 002c FFF7FEFF 		bl	chPoolAlloc
 372              	.LVL8:
 373 0030 D0F10101 		rsbs	r1, r0, #1
 374 0034 38BF     		it	cc
 375 0036 0021     		movcc	r1, #0
 376 0038 0220     		movs	r0, #2
 377 003a FFF7FEFF 		bl	_test_assert
 378              	.LVL9:
 379 003e 38BB     		cbnz	r0, .L5
 380 0040 1C4C     		ldr	r4, .L18
 381              	.LVL10:
 382              	.LBB4:
 383              	.LBB5:
 384              		.loc 1 86 0
 385 0042 1D48     		ldr	r0, .L18+4
 386              	.LBE5:
 387              	.LBE4:
 388              		.loc 1 82 0
 389 0044 2946     		mov	r1, r5
 390 0046 04F11005 		add	r5, r4, #16
 391              	.LBB8:
 392              	.LBB6:
 393              		.loc 1 86 0
 394 004a FFF7FEFF 		bl	chPoolFree
 395              	.LVL11:
 396              		.loc 1 85 0
 397 004e AC42     		cmp	r4, r5
ARM GAS  /var/folders/c6/c789hm653lg9vtl73krp73tm0000gn/T//ccKhBMj9.s 			page 23


 398 0050 06D0     		beq	.L11
 399              	.L16:
 400 0052 54F8041F 		ldr	r1, [r4, #4]!
 401              		.loc 1 86 0
 402 0056 1848     		ldr	r0, .L18+4
 403 0058 FFF7FEFF 		bl	chPoolFree
 404              	.LVL12:
 405              		.loc 1 85 0
 406 005c AC42     		cmp	r4, r5
 407 005e F8D1     		bne	.L16
 408              	.L11:
 409 0060 0524     		movs	r4, #5
 410              	.L14:
 411              	.LVL13:
 412              		.loc 1 90 0
 413 0062 1548     		ldr	r0, .L18+4
 414 0064 FFF7FEFF 		bl	chPoolAlloc
 415              	.LVL14:
 416 0068 011C     		adds	r1, r0, #0
 417 006a 18BF     		it	ne
 418 006c 0121     		movne	r1, #1
 419 006e 0320     		movs	r0, #3
 420 0070 FFF7FEFF 		bl	_test_assert
 421              	.LVL15:
 422 0074 60B9     		cbnz	r0, .L5
 423              		.loc 1 89 0
 424 0076 013C     		subs	r4, r4, #1
 425              	.LVL16:
 426 0078 F3D1     		bne	.L14
 427              		.loc 1 93 0
 428 007a 0F48     		ldr	r0, .L18+4
 429 007c FFF7FEFF 		bl	chPoolAlloc
 430              	.LVL17:
 431 0080 D0F10101 		rsbs	r1, r0, #1
 432 0084 38BF     		it	cc
 433 0086 0021     		movcc	r1, #0
 434 0088 0420     		movs	r0, #4
 435 008a FFF7FEFF 		bl	_test_assert
 436              	.LVL18:
 437 008e 00B1     		cbz	r0, .L17
 438              	.LVL19:
 439              	.L5:
 440 0090 38BD     		pop	{r3, r4, r5, pc}
 441              	.LVL20:
 442              	.L17:
 443              		.loc 1 96 0
 444 0092 1021     		movs	r1, #16
 445 0094 0848     		ldr	r0, .L18+4
 446 0096 094A     		ldr	r2, .L18+8
 447 0098 FFF7FEFF 		bl	chPoolObjectInit
 448              	.LVL21:
 449              		.loc 1 97 0
 450 009c 0648     		ldr	r0, .L18+4
 451 009e FFF7FEFF 		bl	chPoolAlloc
 452              	.LVL22:
 453 00a2 D0F10101 		rsbs	r1, r0, #1
 454 00a6 38BF     		it	cc
ARM GAS  /var/folders/c6/c789hm653lg9vtl73krp73tm0000gn/T//ccKhBMj9.s 			page 24


 455 00a8 0021     		movcc	r1, #0
 456 00aa 0520     		movs	r0, #5
 457              	.LBE6:
 458              	.LBE8:
 459              		.loc 1 98 0
 460 00ac BDE83840 		pop	{r3, r4, r5, lr}
 461              	.LVL23:
 462              	.LBB9:
 463              	.LBB7:
 464              		.loc 1 97 0
 465 00b0 FFF7FEBF 		b	_test_assert
 466              	.LVL24:
 467              	.L19:
 468              		.align	2
 469              	.L18:
 470 00b4 00000000 		.word	wa
 471 00b8 00000000 		.word	.LANCHOR0
 472 00bc 00000000 		.word	null_provider
 473              	.LBE7:
 474              	.LBE9:
 475              		.cfi_endproc
 476              	.LFE231:
 477              		.size	pools1_execute, .-pools1_execute
 478              		.global	patternpools
 479              		.global	testpools1
 480              		.section	.rodata.str1.4,"aMS",%progbits,1
 481              		.align	2
 482              	.LC0:
 483 0000 4D656D6F 		.ascii	"Memory Pools, queue/dequeue\000"
 483      72792050 
 483      6F6F6C73 
 483      2C207175 
 483      6575652F 
 484              		.section	.rodata.patternpools,"a",%progbits
 485              		.align	2
 486              		.type	patternpools, %object
 487              		.size	patternpools, 8
 488              	patternpools:
 489 0000 00000000 		.word	testpools1
 490 0004 00000000 		.word	0
 491              		.section	.data.mp1,"aw",%progbits
 492              		.align	2
 493              		.set	.LANCHOR0,. + 0
 494              		.type	mp1, %object
 495              		.size	mp1, 12
 496              	mp1:
 497 0000 00000000 		.word	0
 498 0004 68010000 		.word	360
 499 0008 00000000 		.word	0
 500              		.section	.rodata.testpools1,"a",%progbits
 501              		.align	2
 502              		.type	testpools1, %object
 503              		.size	testpools1, 16
 504              	testpools1:
 505 0000 00000000 		.word	.LC0
 506 0004 00000000 		.word	pools1_setup
 507 0008 00000000 		.word	0
ARM GAS  /var/folders/c6/c789hm653lg9vtl73krp73tm0000gn/T//ccKhBMj9.s 			page 25


 508 000c 00000000 		.word	pools1_execute
 509              		.text
 510              	.Letext0:
 511              		.file 2 "/usr/local/Cellar/gcc-arm-none-eabi/20140805/lib/gcc/arm-none-eabi/4.8.4/include/stddef.h
 512              		.file 3 "/usr/local/Cellar/gcc-arm-none-eabi/20140805/arm-none-eabi/include/machine/_default_types
 513              		.file 4 "/usr/local/Cellar/gcc-arm-none-eabi/20140805/arm-none-eabi/include/stdint.h"
 514              		.file 5 "../../../os/rt/ports/ARMCMx/compilers/GCC/chtypes.h"
 515              		.file 6 "../../../os/rt/include/chsystypes.h"
 516              		.file 7 "../../../os/rt/include/chschd.h"
 517              		.file 8 "../../../os/rt/ports/ARMCMx/chcore.h"
 518              		.file 9 "../../../os/rt/ports/ARMCMx/chcore_v7m.h"
 519              		.file 10 "../../../os/rt/include/chdebug.h"
 520              		.file 11 "../../../os/rt/include/chtm.h"
 521              		.file 12 "../../../os/rt/include/chstats.h"
 522              		.file 13 "../../../os/rt/include/chsem.h"
 523              		.file 14 "../../../os/rt/include/chmtx.h"
 524              		.file 15 "../../../os/rt/include/chmemcore.h"
 525              		.file 16 "../../../os/rt/include/chmempools.h"
 526              		.file 17 "../../../test/rt/test.h"
 527              		.file 18 "../../../os/ext/CMSIS/include/core_cm4.h"
 528              		.section	.debug_info,"",%progbits
 529              	.Ldebug_info0:
 530 0000 630B0000 		.4byte	0xb63
 531 0004 0400     		.2byte	0x4
 532 0006 00000000 		.4byte	.Ldebug_abbrev0
 533 000a 04       		.byte	0x4
 534 000b 01       		.uleb128 0x1
 535 000c 00000000 		.4byte	.LASF149
 536 0010 01       		.byte	0x1
 537 0011 09070000 		.4byte	.LASF150
 538 0015 0E030000 		.4byte	.LASF151
 539 0019 20000000 		.4byte	.Ldebug_ranges0+0x20
 540 001d 00000000 		.4byte	0
 541 0021 00000000 		.4byte	.Ldebug_line0
 542 0025 02       		.uleb128 0x2
 543 0026 04       		.byte	0x4
 544 0027 05       		.byte	0x5
 545 0028 696E7400 		.ascii	"int\000"
 546 002c 03       		.uleb128 0x3
 547 002d FC000000 		.4byte	.LASF2
 548 0031 02       		.byte	0x2
 549 0032 D4       		.byte	0xd4
 550 0033 37000000 		.4byte	0x37
 551 0037 04       		.uleb128 0x4
 552 0038 04       		.byte	0x4
 553 0039 07       		.byte	0x7
 554 003a BF020000 		.4byte	.LASF0
 555 003e 04       		.uleb128 0x4
 556 003f 01       		.byte	0x1
 557 0040 06       		.byte	0x6
 558 0041 F6010000 		.4byte	.LASF1
 559 0045 03       		.uleb128 0x3
 560 0046 20010000 		.4byte	.LASF3
 561 004a 03       		.byte	0x3
 562 004b 1C       		.byte	0x1c
 563 004c 50000000 		.4byte	0x50
 564 0050 04       		.uleb128 0x4
ARM GAS  /var/folders/c6/c789hm653lg9vtl73krp73tm0000gn/T//ccKhBMj9.s 			page 26


 565 0051 01       		.byte	0x1
 566 0052 08       		.byte	0x8
 567 0053 27050000 		.4byte	.LASF4
 568 0057 04       		.uleb128 0x4
 569 0058 02       		.byte	0x2
 570 0059 05       		.byte	0x5
 571 005a 3F050000 		.4byte	.LASF5
 572 005e 04       		.uleb128 0x4
 573 005f 02       		.byte	0x2
 574 0060 07       		.byte	0x7
 575 0061 6A030000 		.4byte	.LASF6
 576 0065 03       		.uleb128 0x3
 577 0066 F2030000 		.4byte	.LASF7
 578 006a 03       		.byte	0x3
 579 006b 37       		.byte	0x37
 580 006c 70000000 		.4byte	0x70
 581 0070 04       		.uleb128 0x4
 582 0071 04       		.byte	0x4
 583 0072 05       		.byte	0x5
 584 0073 29020000 		.4byte	.LASF8
 585 0077 03       		.uleb128 0x3
 586 0078 33060000 		.4byte	.LASF9
 587 007c 03       		.byte	0x3
 588 007d 38       		.byte	0x38
 589 007e 82000000 		.4byte	0x82
 590 0082 04       		.uleb128 0x4
 591 0083 04       		.byte	0x4
 592 0084 07       		.byte	0x7
 593 0085 DC050000 		.4byte	.LASF10
 594 0089 04       		.uleb128 0x4
 595 008a 08       		.byte	0x8
 596 008b 05       		.byte	0x5
 597 008c E8010000 		.4byte	.LASF11
 598 0090 03       		.uleb128 0x3
 599 0091 BA040000 		.4byte	.LASF12
 600 0095 03       		.byte	0x3
 601 0096 4E       		.byte	0x4e
 602 0097 9B000000 		.4byte	0x9b
 603 009b 04       		.uleb128 0x4
 604 009c 08       		.byte	0x8
 605 009d 07       		.byte	0x7
 606 009e 6F010000 		.4byte	.LASF13
 607 00a2 03       		.uleb128 0x3
 608 00a3 BB060000 		.4byte	.LASF14
 609 00a7 04       		.byte	0x4
 610 00a8 2A       		.byte	0x2a
 611 00a9 45000000 		.4byte	0x45
 612 00ad 03       		.uleb128 0x3
 613 00ae 1F050000 		.4byte	.LASF15
 614 00b2 04       		.byte	0x4
 615 00b3 41       		.byte	0x41
 616 00b4 65000000 		.4byte	0x65
 617 00b8 03       		.uleb128 0x3
 618 00b9 A8050000 		.4byte	.LASF16
 619 00bd 04       		.byte	0x4
 620 00be 42       		.byte	0x42
 621 00bf 77000000 		.4byte	0x77
ARM GAS  /var/folders/c6/c789hm653lg9vtl73krp73tm0000gn/T//ccKhBMj9.s 			page 27


 622 00c3 03       		.uleb128 0x3
 623 00c4 0A010000 		.4byte	.LASF17
 624 00c8 04       		.byte	0x4
 625 00c9 4E       		.byte	0x4e
 626 00ca 90000000 		.4byte	0x90
 627 00ce 05       		.uleb128 0x5
 628 00cf AD000000 		.4byte	0xad
 629 00d3 03       		.uleb128 0x3
 630 00d4 6E060000 		.4byte	.LASF18
 631 00d8 05       		.byte	0x5
 632 00d9 45       		.byte	0x45
 633 00da B8000000 		.4byte	0xb8
 634 00de 03       		.uleb128 0x3
 635 00df D8010000 		.4byte	.LASF19
 636 00e3 05       		.byte	0x5
 637 00e4 46       		.byte	0x46
 638 00e5 C3000000 		.4byte	0xc3
 639 00e9 03       		.uleb128 0x3
 640 00ea B4030000 		.4byte	.LASF20
 641 00ee 05       		.byte	0x5
 642 00ef 48       		.byte	0x48
 643 00f0 A2000000 		.4byte	0xa2
 644 00f4 03       		.uleb128 0x3
 645 00f5 32020000 		.4byte	.LASF21
 646 00f9 05       		.byte	0x5
 647 00fa 49       		.byte	0x49
 648 00fb A2000000 		.4byte	0xa2
 649 00ff 03       		.uleb128 0x3
 650 0100 D0040000 		.4byte	.LASF22
 651 0104 05       		.byte	0x5
 652 0105 4A       		.byte	0x4a
 653 0106 A2000000 		.4byte	0xa2
 654 010a 03       		.uleb128 0x3
 655 010b 01050000 		.4byte	.LASF23
 656 010f 05       		.byte	0x5
 657 0110 4C       		.byte	0x4c
 658 0111 B8000000 		.4byte	0xb8
 659 0115 03       		.uleb128 0x3
 660 0116 96030000 		.4byte	.LASF24
 661 011a 05       		.byte	0x5
 662 011b 4D       		.byte	0x4d
 663 011c AD000000 		.4byte	0xad
 664 0120 03       		.uleb128 0x3
 665 0121 E6030000 		.4byte	.LASF25
 666 0125 05       		.byte	0x5
 667 0126 4F       		.byte	0x4f
 668 0127 B8000000 		.4byte	0xb8
 669 012b 03       		.uleb128 0x3
 670 012c AE020000 		.4byte	.LASF26
 671 0130 05       		.byte	0x5
 672 0131 51       		.byte	0x51
 673 0132 AD000000 		.4byte	0xad
 674 0136 03       		.uleb128 0x3
 675 0137 A1030000 		.4byte	.LASF27
 676 013b 05       		.byte	0x5
 677 013c 52       		.byte	0x52
 678 013d B8000000 		.4byte	0xb8
ARM GAS  /var/folders/c6/c789hm653lg9vtl73krp73tm0000gn/T//ccKhBMj9.s 			page 28


 679 0141 03       		.uleb128 0x3
 680 0142 15060000 		.4byte	.LASF28
 681 0146 06       		.byte	0x6
 682 0147 33       		.byte	0x33
 683 0148 B8000000 		.4byte	0xb8
 684 014c 03       		.uleb128 0x3
 685 014d 00060000 		.4byte	.LASF29
 686 0151 06       		.byte	0x6
 687 0152 3F       		.byte	0x3f
 688 0153 57010000 		.4byte	0x157
 689 0157 06       		.uleb128 0x6
 690 0158 8C030000 		.4byte	.LASF51
 691 015c 60       		.byte	0x60
 692 015d 07       		.byte	0x7
 693 015e C2       		.byte	0xc2
 694 015f 5D020000 		.4byte	0x25d
 695 0163 07       		.uleb128 0x7
 696 0164 5F050000 		.4byte	.LASF30
 697 0168 07       		.byte	0x7
 698 0169 C3       		.byte	0xc3
 699 016a 68020000 		.4byte	0x268
 700 016e 00       		.byte	0
 701 016f 07       		.uleb128 0x7
 702 0170 F2040000 		.4byte	.LASF31
 703 0174 07       		.byte	0x7
 704 0175 C5       		.byte	0xc5
 705 0176 68020000 		.4byte	0x268
 706 017a 04       		.byte	0x4
 707 017b 07       		.uleb128 0x7
 708 017c E1010000 		.4byte	.LASF32
 709 0180 07       		.byte	0x7
 710 0181 C7       		.byte	0xc7
 711 0182 0A010000 		.4byte	0x10a
 712 0186 08       		.byte	0x8
 713 0187 07       		.uleb128 0x7
 714 0188 6F070000 		.4byte	.LASF33
 715 018c 07       		.byte	0x7
 716 018d C8       		.byte	0xc8
 717 018e D1040000 		.4byte	0x4d1
 718 0192 0C       		.byte	0xc
 719 0193 07       		.uleb128 0x7
 720 0194 41020000 		.4byte	.LASF34
 721 0198 07       		.byte	0x7
 722 0199 CA       		.byte	0xca
 723 019a 68020000 		.4byte	0x268
 724 019e 10       		.byte	0x10
 725 019f 07       		.uleb128 0x7
 726 01a0 67040000 		.4byte	.LASF35
 727 01a4 07       		.byte	0x7
 728 01a5 CB       		.byte	0xcb
 729 01a6 68020000 		.4byte	0x268
 730 01aa 14       		.byte	0x14
 731 01ab 07       		.uleb128 0x7
 732 01ac 09050000 		.4byte	.LASF36
 733 01b0 07       		.byte	0x7
 734 01b1 D2       		.byte	0xd2
 735 01b2 75070000 		.4byte	0x775
ARM GAS  /var/folders/c6/c789hm653lg9vtl73krp73tm0000gn/T//ccKhBMj9.s 			page 29


 736 01b6 18       		.byte	0x18
 737 01b7 07       		.uleb128 0x7
 738 01b8 B4020000 		.4byte	.LASF37
 739 01bc 07       		.byte	0x7
 740 01bd D8       		.byte	0xd8
 741 01be 87070000 		.4byte	0x787
 742 01c2 1C       		.byte	0x1c
 743 01c3 07       		.uleb128 0x7
 744 01c4 49050000 		.4byte	.LASF38
 745 01c8 07       		.byte	0x7
 746 01c9 DD       		.byte	0xdd
 747 01ca F4000000 		.4byte	0xf4
 748 01ce 20       		.byte	0x20
 749 01cf 07       		.uleb128 0x7
 750 01d0 66050000 		.4byte	.LASF39
 751 01d4 07       		.byte	0x7
 752 01d5 E1       		.byte	0xe1
 753 01d6 E9000000 		.4byte	0xe9
 754 01da 21       		.byte	0x21
 755 01db 07       		.uleb128 0x7
 756 01dc A6060000 		.4byte	.LASF40
 757 01e0 07       		.byte	0x7
 758 01e1 E6       		.byte	0xe6
 759 01e2 FF000000 		.4byte	0xff
 760 01e6 22       		.byte	0x22
 761 01e7 08       		.uleb128 0x8
 762 01e8 705F7500 		.ascii	"p_u\000"
 763 01ec 07       		.byte	0x7
 764 01ed 3101     		.2byte	0x131
 765 01ef B0060000 		.4byte	0x6b0
 766 01f3 24       		.byte	0x24
 767 01f4 09       		.uleb128 0x9
 768 01f5 07040000 		.4byte	.LASF41
 769 01f9 07       		.byte	0x7
 770 01fa 3601     		.2byte	0x136
 771 01fc 6E020000 		.4byte	0x26e
 772 0200 28       		.byte	0x28
 773 0201 09       		.uleb128 0x9
 774 0202 DB020000 		.4byte	.LASF42
 775 0206 07       		.byte	0x7
 776 0207 3C01     		.2byte	0x13c
 777 0209 92020000 		.4byte	0x292
 778 020d 2C       		.byte	0x2c
 779 020e 09       		.uleb128 0x9
 780 020f 68060000 		.4byte	.LASF43
 781 0213 07       		.byte	0x7
 782 0214 4001     		.2byte	0x140
 783 0216 15010000 		.4byte	0x115
 784 021a 34       		.byte	0x34
 785 021b 09       		.uleb128 0x9
 786 021c 9D050000 		.4byte	.LASF44
 787 0220 07       		.byte	0x7
 788 0221 4601     		.2byte	0x146
 789 0223 20010000 		.4byte	0x120
 790 0227 38       		.byte	0x38
 791 0228 09       		.uleb128 0x9
 792 0229 35050000 		.4byte	.LASF45
ARM GAS  /var/folders/c6/c789hm653lg9vtl73krp73tm0000gn/T//ccKhBMj9.s 			page 30


 793 022d 07       		.byte	0x7
 794 022e 4D01     		.2byte	0x14d
 795 0230 6F070000 		.4byte	0x76f
 796 0234 3C       		.byte	0x3c
 797 0235 09       		.uleb128 0x9
 798 0236 1F060000 		.4byte	.LASF46
 799 023a 07       		.byte	0x7
 800 023b 5101     		.2byte	0x151
 801 023d 0A010000 		.4byte	0x10a
 802 0241 40       		.byte	0x40
 803 0242 09       		.uleb128 0x9
 804 0243 02020000 		.4byte	.LASF47
 805 0247 07       		.byte	0x7
 806 0248 5801     		.2byte	0x158
 807 024a 45030000 		.4byte	0x345
 808 024e 44       		.byte	0x44
 809 024f 09       		.uleb128 0x9
 810 0250 6E050000 		.4byte	.LASF48
 811 0254 07       		.byte	0x7
 812 0255 5E01     		.2byte	0x15e
 813 0257 61060000 		.4byte	0x661
 814 025b 48       		.byte	0x48
 815 025c 00       		.byte	0
 816 025d 03       		.uleb128 0x3
 817 025e 1A040000 		.4byte	.LASF49
 818 0262 06       		.byte	0x6
 819 0263 44       		.byte	0x44
 820 0264 68020000 		.4byte	0x268
 821 0268 0A       		.uleb128 0xa
 822 0269 04       		.byte	0x4
 823 026a 4C010000 		.4byte	0x14c
 824 026e 03       		.uleb128 0x3
 825 026f 26070000 		.4byte	.LASF50
 826 0273 06       		.byte	0x6
 827 0274 49       		.byte	0x49
 828 0275 79020000 		.4byte	0x279
 829 0279 06       		.uleb128 0x6
 830 027a CC050000 		.4byte	.LASF52
 831 027e 04       		.byte	0x4
 832 027f 07       		.byte	0x7
 833 0280 B0       		.byte	0xb0
 834 0281 92020000 		.4byte	0x292
 835 0285 07       		.uleb128 0x7
 836 0286 5F050000 		.4byte	.LASF30
 837 028a 07       		.byte	0x7
 838 028b B1       		.byte	0xb1
 839 028c 68020000 		.4byte	0x268
 840 0290 00       		.byte	0
 841 0291 00       		.byte	0
 842 0292 03       		.uleb128 0x3
 843 0293 8A060000 		.4byte	.LASF53
 844 0297 06       		.byte	0x6
 845 0298 50       		.byte	0x50
 846 0299 9D020000 		.4byte	0x29d
 847 029d 06       		.uleb128 0x6
 848 029e 36010000 		.4byte	.LASF54
 849 02a2 08       		.byte	0x8
ARM GAS  /var/folders/c6/c789hm653lg9vtl73krp73tm0000gn/T//ccKhBMj9.s 			page 31


 850 02a3 07       		.byte	0x7
 851 02a4 B7       		.byte	0xb7
 852 02a5 C2020000 		.4byte	0x2c2
 853 02a9 07       		.uleb128 0x7
 854 02aa 5F050000 		.4byte	.LASF30
 855 02ae 07       		.byte	0x7
 856 02af B8       		.byte	0xb8
 857 02b0 68020000 		.4byte	0x268
 858 02b4 00       		.byte	0
 859 02b5 07       		.uleb128 0x7
 860 02b6 F2040000 		.4byte	.LASF31
 861 02ba 07       		.byte	0x7
 862 02bb B9       		.byte	0xb9
 863 02bc 68020000 		.4byte	0x268
 864 02c0 04       		.byte	0x4
 865 02c1 00       		.byte	0
 866 02c2 03       		.uleb128 0x3
 867 02c3 E7000000 		.4byte	.LASF55
 868 02c7 06       		.byte	0x6
 869 02c8 57       		.byte	0x57
 870 02c9 CD020000 		.4byte	0x2cd
 871 02cd 0B       		.uleb128 0xb
 872 02ce D8030000 		.4byte	.LASF56
 873 02d2 1C       		.byte	0x1c
 874 02d3 07       		.byte	0x7
 875 02d4 9001     		.2byte	0x190
 876 02d6 29030000 		.4byte	0x329
 877 02da 09       		.uleb128 0x9
 878 02db 44040000 		.4byte	.LASF57
 879 02df 07       		.byte	0x7
 880 02e0 9101     		.2byte	0x191
 881 02e2 92020000 		.4byte	0x292
 882 02e6 00       		.byte	0
 883 02e7 09       		.uleb128 0x9
 884 02e8 51050000 		.4byte	.LASF58
 885 02ec 07       		.byte	0x7
 886 02ed 9201     		.2byte	0x192
 887 02ef 0A010000 		.4byte	0x10a
 888 02f3 08       		.byte	0x8
 889 02f4 09       		.uleb128 0x9
 890 02f5 6F040000 		.4byte	.LASF59
 891 02f9 07       		.byte	0x7
 892 02fa 9401     		.2byte	0x194
 893 02fc D1040000 		.4byte	0x4d1
 894 0300 0C       		.byte	0xc
 895 0301 09       		.uleb128 0x9
 896 0302 59020000 		.4byte	.LASF60
 897 0306 07       		.byte	0x7
 898 0307 9701     		.2byte	0x197
 899 0309 68020000 		.4byte	0x268
 900 030d 10       		.byte	0x10
 901 030e 09       		.uleb128 0x9
 902 030f A5040000 		.4byte	.LASF61
 903 0313 07       		.byte	0x7
 904 0314 9801     		.2byte	0x198
 905 0316 68020000 		.4byte	0x268
 906 031a 14       		.byte	0x14
ARM GAS  /var/folders/c6/c789hm653lg9vtl73krp73tm0000gn/T//ccKhBMj9.s 			page 32


 907 031b 09       		.uleb128 0x9
 908 031c 9B040000 		.4byte	.LASF62
 909 0320 07       		.byte	0x7
 910 0321 9B01     		.2byte	0x19b
 911 0323 68020000 		.4byte	0x268
 912 0327 18       		.byte	0x18
 913 0328 00       		.byte	0
 914 0329 03       		.uleb128 0x3
 915 032a 2A060000 		.4byte	.LASF63
 916 032e 06       		.byte	0x6
 917 032f 5C       		.byte	0x5c
 918 0330 34030000 		.4byte	0x334
 919 0334 0A       		.uleb128 0xa
 920 0335 04       		.byte	0x4
 921 0336 3A030000 		.4byte	0x33a
 922 033a 0C       		.uleb128 0xc
 923 033b 45030000 		.4byte	0x345
 924 033f 0D       		.uleb128 0xd
 925 0340 45030000 		.4byte	0x345
 926 0344 00       		.byte	0
 927 0345 0E       		.uleb128 0xe
 928 0346 04       		.byte	0x4
 929 0347 03       		.uleb128 0x3
 930 0348 E2040000 		.4byte	.LASF64
 931 034c 06       		.byte	0x6
 932 034d 61       		.byte	0x61
 933 034e 52030000 		.4byte	0x352
 934 0352 0B       		.uleb128 0xb
 935 0353 76050000 		.4byte	.LASF65
 936 0357 14       		.byte	0x14
 937 0358 07       		.byte	0x7
 938 0359 6B01     		.2byte	0x16b
 939 035b A1030000 		.4byte	0x3a1
 940 035f 09       		.uleb128 0x9
 941 0360 CC020000 		.4byte	.LASF66
 942 0364 07       		.byte	0x7
 943 0365 6C01     		.2byte	0x16c
 944 0367 8D070000 		.4byte	0x78d
 945 036b 00       		.byte	0
 946 036c 09       		.uleb128 0x9
 947 036d 76020000 		.4byte	.LASF67
 948 0371 07       		.byte	0x7
 949 0372 6D01     		.2byte	0x16d
 950 0374 8D070000 		.4byte	0x78d
 951 0378 04       		.byte	0x4
 952 0379 09       		.uleb128 0x9
 953 037a C3050000 		.4byte	.LASF68
 954 037e 07       		.byte	0x7
 955 037f 6E01     		.2byte	0x16e
 956 0381 41010000 		.4byte	0x141
 957 0385 08       		.byte	0x8
 958 0386 09       		.uleb128 0x9
 959 0387 75070000 		.4byte	.LASF69
 960 038b 07       		.byte	0x7
 961 038c 6F01     		.2byte	0x16f
 962 038e 29030000 		.4byte	0x329
 963 0392 0C       		.byte	0xc
ARM GAS  /var/folders/c6/c789hm653lg9vtl73krp73tm0000gn/T//ccKhBMj9.s 			page 33


 964 0393 09       		.uleb128 0x9
 965 0394 83060000 		.4byte	.LASF70
 966 0398 07       		.byte	0x7
 967 0399 7101     		.2byte	0x171
 968 039b 45030000 		.4byte	0x345
 969 039f 10       		.byte	0x10
 970 03a0 00       		.byte	0
 971 03a1 03       		.uleb128 0x3
 972 03a2 B5010000 		.4byte	.LASF71
 973 03a6 06       		.byte	0x6
 974 03a7 66       		.byte	0x66
 975 03a8 AC030000 		.4byte	0x3ac
 976 03ac 0B       		.uleb128 0xb
 977 03ad 2D040000 		.4byte	.LASF72
 978 03b1 10       		.byte	0x10
 979 03b2 07       		.byte	0x7
 980 03b3 7B01     		.2byte	0x17b
 981 03b5 EE030000 		.4byte	0x3ee
 982 03b9 09       		.uleb128 0x9
 983 03ba CC020000 		.4byte	.LASF66
 984 03be 07       		.byte	0x7
 985 03bf 7C01     		.2byte	0x17c
 986 03c1 8D070000 		.4byte	0x78d
 987 03c5 00       		.byte	0
 988 03c6 09       		.uleb128 0x9
 989 03c7 76020000 		.4byte	.LASF67
 990 03cb 07       		.byte	0x7
 991 03cc 7E01     		.2byte	0x17e
 992 03ce 8D070000 		.4byte	0x78d
 993 03d2 04       		.byte	0x4
 994 03d3 09       		.uleb128 0x9
 995 03d4 C3050000 		.4byte	.LASF68
 996 03d8 07       		.byte	0x7
 997 03d9 8001     		.2byte	0x180
 998 03db 41010000 		.4byte	0x141
 999 03df 08       		.byte	0x8
 1000 03e0 09       		.uleb128 0x9
 1001 03e1 5B040000 		.4byte	.LASF73
 1002 03e5 07       		.byte	0x7
 1003 03e6 8801     		.2byte	0x188
 1004 03e8 41010000 		.4byte	0x141
 1005 03ec 0C       		.byte	0xc
 1006 03ed 00       		.byte	0
 1007 03ee 03       		.uleb128 0x3
 1008 03ef 47010000 		.4byte	.LASF74
 1009 03f3 06       		.byte	0x6
 1010 03f4 6B       		.byte	0x6b
 1011 03f5 F9030000 		.4byte	0x3f9
 1012 03f9 0F       		.uleb128 0xf
 1013 03fa 7E020000 		.4byte	.LASF75
 1014 03fe 1404     		.2byte	0x414
 1015 0400 07       		.byte	0x7
 1016 0401 A201     		.2byte	0x1a2
 1017 0403 3C040000 		.4byte	0x43c
 1018 0407 09       		.uleb128 0x9
 1019 0408 3E060000 		.4byte	.LASF76
 1020 040c 07       		.byte	0x7
ARM GAS  /var/folders/c6/c789hm653lg9vtl73krp73tm0000gn/T//ccKhBMj9.s 			page 34


 1021 040d AA01     		.2byte	0x1aa
 1022 040f 93070000 		.4byte	0x793
 1023 0413 00       		.byte	0
 1024 0414 09       		.uleb128 0x9
 1025 0415 AD060000 		.4byte	.LASF77
 1026 0419 07       		.byte	0x7
 1027 041a AF01     		.2byte	0x1af
 1028 041c 2B010000 		.4byte	0x12b
 1029 0420 04       		.byte	0x4
 1030 0421 09       		.uleb128 0x9
 1031 0422 96020000 		.4byte	.LASF78
 1032 0426 07       		.byte	0x7
 1033 0427 B301     		.2byte	0x1b3
 1034 0429 2B010000 		.4byte	0x12b
 1035 042d 08       		.byte	0x8
 1036 042e 09       		.uleb128 0x9
 1037 042f 35070000 		.4byte	.LASF79
 1038 0433 07       		.byte	0x7
 1039 0434 B901     		.2byte	0x1b9
 1040 0436 F3050000 		.4byte	0x5f3
 1041 043a 0C       		.byte	0xc
 1042 043b 00       		.byte	0
 1043 043c 03       		.uleb128 0x3
 1044 043d A8030000 		.4byte	.LASF80
 1045 0441 06       		.byte	0x6
 1046 0442 70       		.byte	0x70
 1047 0443 47040000 		.4byte	0x447
 1048 0447 0F       		.uleb128 0xf
 1049 0448 1F020000 		.4byte	.LASF81
 1050 044c D805     		.2byte	0x5d8
 1051 044e 07       		.byte	0x7
 1052 044f C201     		.2byte	0x1c2
 1053 0451 B4040000 		.4byte	0x4b4
 1054 0455 09       		.uleb128 0x9
 1055 0456 B5060000 		.4byte	.LASF82
 1056 045a 07       		.byte	0x7
 1057 045b C601     		.2byte	0x1c6
 1058 045d C2020000 		.4byte	0x2c2
 1059 0461 00       		.byte	0
 1060 0462 09       		.uleb128 0x9
 1061 0463 12020000 		.4byte	.LASF83
 1062 0467 07       		.byte	0x7
 1063 0468 CA01     		.2byte	0x1ca
 1064 046a A1030000 		.4byte	0x3a1
 1065 046e 1C       		.byte	0x1c
 1066 046f 08       		.uleb128 0x8
 1067 0470 64626700 		.ascii	"dbg\000"
 1068 0474 07       		.byte	0x7
 1069 0475 CE01     		.2byte	0x1ce
 1070 0477 EE030000 		.4byte	0x3ee
 1071 047b 2C       		.byte	0x2c
 1072 047c 10       		.uleb128 0x10
 1073 047d AA010000 		.4byte	.LASF84
 1074 0481 07       		.byte	0x7
 1075 0482 D201     		.2byte	0x1d2
 1076 0484 4C010000 		.4byte	0x14c
 1077 0488 4004     		.2byte	0x440
ARM GAS  /var/folders/c6/c789hm653lg9vtl73krp73tm0000gn/T//ccKhBMj9.s 			page 35


 1078 048a 11       		.uleb128 0x11
 1079 048b 746D00   		.ascii	"tm\000"
 1080 048e 07       		.byte	0x7
 1081 048f D701     		.2byte	0x1d7
 1082 0491 13060000 		.4byte	0x613
 1083 0495 A004     		.2byte	0x4a0
 1084 0497 10       		.uleb128 0x10
 1085 0498 13010000 		.4byte	.LASF85
 1086 049c 07       		.byte	0x7
 1087 049d DD01     		.2byte	0x1dd
 1088 049f A5060000 		.4byte	0x6a5
 1089 04a3 A804     		.2byte	0x4a8
 1090 04a5 10       		.uleb128 0x10
 1091 04a6 9F020000 		.4byte	.LASF86
 1092 04aa 07       		.byte	0x7
 1093 04ab E301     		.2byte	0x1e3
 1094 04ad 98070000 		.4byte	0x798
 1095 04b1 E004     		.2byte	0x4e0
 1096 04b3 00       		.byte	0
 1097 04b4 04       		.uleb128 0x4
 1098 04b5 04       		.byte	0x4
 1099 04b6 07       		.byte	0x7
 1100 04b7 11040000 		.4byte	.LASF87
 1101 04bb 03       		.uleb128 0x3
 1102 04bc 6D020000 		.4byte	.LASF88
 1103 04c0 08       		.byte	0x8
 1104 04c1 65       		.byte	0x65
 1105 04c2 45030000 		.4byte	0x345
 1106 04c6 03       		.uleb128 0x3
 1107 04c7 FC030000 		.4byte	.LASF89
 1108 04cb 08       		.byte	0x8
 1109 04cc 6D       		.byte	0x6d
 1110 04cd C3000000 		.4byte	0xc3
 1111 04d1 06       		.uleb128 0x6
 1112 04d2 60060000 		.4byte	.LASF90
 1113 04d6 04       		.byte	0x4
 1114 04d7 08       		.byte	0x8
 1115 04d8 89       		.byte	0x89
 1116 04d9 EA040000 		.4byte	0x4ea
 1117 04dd 12       		.uleb128 0x12
 1118 04de 72313300 		.ascii	"r13\000"
 1119 04e2 08       		.byte	0x8
 1120 04e3 8A       		.byte	0x8a
 1121 04e4 65050000 		.4byte	0x565
 1122 04e8 00       		.byte	0
 1123 04e9 00       		.byte	0
 1124 04ea 06       		.uleb128 0x6
 1125 04eb 2A010000 		.4byte	.LASF91
 1126 04ef 24       		.byte	0x24
 1127 04f0 09       		.byte	0x9
 1128 04f1 F4       		.byte	0xf4
 1129 04f2 65050000 		.4byte	0x565
 1130 04f6 08       		.uleb128 0x8
 1131 04f7 723400   		.ascii	"r4\000"
 1132 04fa 09       		.byte	0x9
 1133 04fb 0701     		.2byte	0x107
 1134 04fd BB040000 		.4byte	0x4bb
ARM GAS  /var/folders/c6/c789hm653lg9vtl73krp73tm0000gn/T//ccKhBMj9.s 			page 36


 1135 0501 00       		.byte	0
 1136 0502 08       		.uleb128 0x8
 1137 0503 723500   		.ascii	"r5\000"
 1138 0506 09       		.byte	0x9
 1139 0507 0801     		.2byte	0x108
 1140 0509 BB040000 		.4byte	0x4bb
 1141 050d 04       		.byte	0x4
 1142 050e 08       		.uleb128 0x8
 1143 050f 723600   		.ascii	"r6\000"
 1144 0512 09       		.byte	0x9
 1145 0513 0901     		.2byte	0x109
 1146 0515 BB040000 		.4byte	0x4bb
 1147 0519 08       		.byte	0x8
 1148 051a 08       		.uleb128 0x8
 1149 051b 723700   		.ascii	"r7\000"
 1150 051e 09       		.byte	0x9
 1151 051f 0A01     		.2byte	0x10a
 1152 0521 BB040000 		.4byte	0x4bb
 1153 0525 0C       		.byte	0xc
 1154 0526 08       		.uleb128 0x8
 1155 0527 723800   		.ascii	"r8\000"
 1156 052a 09       		.byte	0x9
 1157 052b 0B01     		.2byte	0x10b
 1158 052d BB040000 		.4byte	0x4bb
 1159 0531 10       		.byte	0x10
 1160 0532 08       		.uleb128 0x8
 1161 0533 723900   		.ascii	"r9\000"
 1162 0536 09       		.byte	0x9
 1163 0537 0C01     		.2byte	0x10c
 1164 0539 BB040000 		.4byte	0x4bb
 1165 053d 14       		.byte	0x14
 1166 053e 08       		.uleb128 0x8
 1167 053f 72313000 		.ascii	"r10\000"
 1168 0543 09       		.byte	0x9
 1169 0544 0D01     		.2byte	0x10d
 1170 0546 BB040000 		.4byte	0x4bb
 1171 054a 18       		.byte	0x18
 1172 054b 08       		.uleb128 0x8
 1173 054c 72313100 		.ascii	"r11\000"
 1174 0550 09       		.byte	0x9
 1175 0551 0E01     		.2byte	0x10e
 1176 0553 BB040000 		.4byte	0x4bb
 1177 0557 1C       		.byte	0x1c
 1178 0558 08       		.uleb128 0x8
 1179 0559 6C7200   		.ascii	"lr\000"
 1180 055c 09       		.byte	0x9
 1181 055d 0F01     		.2byte	0x10f
 1182 055f BB040000 		.4byte	0x4bb
 1183 0563 20       		.byte	0x20
 1184 0564 00       		.byte	0
 1185 0565 0A       		.uleb128 0xa
 1186 0566 04       		.byte	0x4
 1187 0567 EA040000 		.4byte	0x4ea
 1188 056b 13       		.uleb128 0x13
 1189 056c 10       		.byte	0x10
 1190 056d 0A       		.byte	0xa
 1191 056e 51       		.byte	0x51
ARM GAS  /var/folders/c6/c789hm653lg9vtl73krp73tm0000gn/T//ccKhBMj9.s 			page 37


 1192 056f A4050000 		.4byte	0x5a4
 1193 0573 07       		.uleb128 0x7
 1194 0574 F4000000 		.4byte	.LASF92
 1195 0578 0A       		.byte	0xa
 1196 0579 55       		.byte	0x55
 1197 057a 41010000 		.4byte	0x141
 1198 057e 00       		.byte	0
 1199 057f 07       		.uleb128 0x7
 1200 0580 3B020000 		.4byte	.LASF93
 1201 0584 0A       		.byte	0xa
 1202 0585 59       		.byte	0x59
 1203 0586 68020000 		.4byte	0x268
 1204 058a 04       		.byte	0x4
 1205 058b 07       		.uleb128 0x7
 1206 058c 65070000 		.4byte	.LASF94
 1207 0590 0A       		.byte	0xa
 1208 0591 5D       		.byte	0x5d
 1209 0592 45030000 		.4byte	0x345
 1210 0596 08       		.byte	0x8
 1211 0597 07       		.uleb128 0x7
 1212 0598 98010000 		.4byte	.LASF95
 1213 059c 0A       		.byte	0xa
 1214 059d 61       		.byte	0x61
 1215 059e A2000000 		.4byte	0xa2
 1216 05a2 0C       		.byte	0xc
 1217 05a3 00       		.byte	0
 1218 05a4 03       		.uleb128 0x3
 1219 05a5 4C040000 		.4byte	.LASF96
 1220 05a9 0A       		.byte	0xa
 1221 05aa 62       		.byte	0x62
 1222 05ab 6B050000 		.4byte	0x56b
 1223 05af 14       		.uleb128 0x14
 1224 05b0 0804     		.2byte	0x408
 1225 05b2 0A       		.byte	0xa
 1226 05b3 67       		.byte	0x67
 1227 05b4 DD050000 		.4byte	0x5dd
 1228 05b8 07       		.uleb128 0x7
 1229 05b9 51020000 		.4byte	.LASF97
 1230 05bd 0A       		.byte	0xa
 1231 05be 6B       		.byte	0x6b
 1232 05bf 37000000 		.4byte	0x37
 1233 05c3 00       		.byte	0
 1234 05c4 07       		.uleb128 0x7
 1235 05c5 E0000000 		.4byte	.LASF98
 1236 05c9 0A       		.byte	0xa
 1237 05ca 6F       		.byte	0x6f
 1238 05cb DD050000 		.4byte	0x5dd
 1239 05cf 04       		.byte	0x4
 1240 05d0 07       		.uleb128 0x7
 1241 05d1 D8040000 		.4byte	.LASF99
 1242 05d5 0A       		.byte	0xa
 1243 05d6 73       		.byte	0x73
 1244 05d7 E3050000 		.4byte	0x5e3
 1245 05db 08       		.byte	0x8
 1246 05dc 00       		.byte	0
 1247 05dd 0A       		.uleb128 0xa
 1248 05de 04       		.byte	0x4
ARM GAS  /var/folders/c6/c789hm653lg9vtl73krp73tm0000gn/T//ccKhBMj9.s 			page 38


 1249 05df A4050000 		.4byte	0x5a4
 1250 05e3 15       		.uleb128 0x15
 1251 05e4 A4050000 		.4byte	0x5a4
 1252 05e8 F3050000 		.4byte	0x5f3
 1253 05ec 16       		.uleb128 0x16
 1254 05ed B4040000 		.4byte	0x4b4
 1255 05f1 3F       		.byte	0x3f
 1256 05f2 00       		.byte	0
 1257 05f3 03       		.uleb128 0x3
 1258 05f4 86010000 		.4byte	.LASF100
 1259 05f8 0A       		.byte	0xa
 1260 05f9 74       		.byte	0x74
 1261 05fa AF050000 		.4byte	0x5af
 1262 05fe 13       		.uleb128 0x13
 1263 05ff 04       		.byte	0x4
 1264 0600 0B       		.byte	0xb
 1265 0601 38       		.byte	0x38
 1266 0602 13060000 		.4byte	0x613
 1267 0606 07       		.uleb128 0x7
 1268 0607 48060000 		.4byte	.LASF101
 1269 060b 0B       		.byte	0xb
 1270 060c 3C       		.byte	0x3c
 1271 060d D3000000 		.4byte	0xd3
 1272 0611 00       		.byte	0
 1273 0612 00       		.byte	0
 1274 0613 03       		.uleb128 0x3
 1275 0614 84040000 		.4byte	.LASF102
 1276 0618 0B       		.byte	0xb
 1277 0619 3D       		.byte	0x3d
 1278 061a FE050000 		.4byte	0x5fe
 1279 061e 13       		.uleb128 0x13
 1280 061f 18       		.byte	0x18
 1281 0620 0B       		.byte	0xb
 1282 0621 48       		.byte	0x48
 1283 0622 61060000 		.4byte	0x661
 1284 0626 07       		.uleb128 0x7
 1285 0627 09060000 		.4byte	.LASF103
 1286 062b 0B       		.byte	0xb
 1287 062c 49       		.byte	0x49
 1288 062d D3000000 		.4byte	0xd3
 1289 0631 00       		.byte	0
 1290 0632 07       		.uleb128 0x7
 1291 0633 56010000 		.4byte	.LASF104
 1292 0637 0B       		.byte	0xb
 1293 0638 4A       		.byte	0x4a
 1294 0639 D3000000 		.4byte	0xd3
 1295 063d 04       		.byte	0x4
 1296 063e 07       		.uleb128 0x7
 1297 063f 9C030000 		.4byte	.LASF105
 1298 0643 0B       		.byte	0xb
 1299 0644 4B       		.byte	0x4b
 1300 0645 D3000000 		.4byte	0xd3
 1301 0649 08       		.byte	0x8
 1302 064a 12       		.uleb128 0x12
 1303 064b 6E00     		.ascii	"n\000"
 1304 064d 0B       		.byte	0xb
 1305 064e 4C       		.byte	0x4c
ARM GAS  /var/folders/c6/c789hm653lg9vtl73krp73tm0000gn/T//ccKhBMj9.s 			page 39


 1306 064f 36010000 		.4byte	0x136
 1307 0653 0C       		.byte	0xc
 1308 0654 07       		.uleb128 0x7
 1309 0655 C5040000 		.4byte	.LASF106
 1310 0659 0B       		.byte	0xb
 1311 065a 4D       		.byte	0x4d
 1312 065b DE000000 		.4byte	0xde
 1313 065f 10       		.byte	0x10
 1314 0660 00       		.byte	0
 1315 0661 03       		.uleb128 0x3
 1316 0662 5C010000 		.4byte	.LASF107
 1317 0666 0B       		.byte	0xb
 1318 0667 4E       		.byte	0x4e
 1319 0668 1E060000 		.4byte	0x61e
 1320 066c 13       		.uleb128 0x13
 1321 066d 38       		.byte	0x38
 1322 066e 0C       		.byte	0xc
 1323 066f 38       		.byte	0x38
 1324 0670 A5060000 		.4byte	0x6a5
 1325 0674 07       		.uleb128 0x7
 1326 0675 FD020000 		.4byte	.LASF108
 1327 0679 0C       		.byte	0xc
 1328 067a 39       		.byte	0x39
 1329 067b 36010000 		.4byte	0x136
 1330 067f 00       		.byte	0
 1331 0680 07       		.uleb128 0x7
 1332 0681 10050000 		.4byte	.LASF109
 1333 0685 0C       		.byte	0xc
 1334 0686 3A       		.byte	0x3a
 1335 0687 36010000 		.4byte	0x136
 1336 068b 04       		.byte	0x4
 1337 068c 07       		.uleb128 0x7
 1338 068d 52070000 		.4byte	.LASF110
 1339 0691 0C       		.byte	0xc
 1340 0692 3B       		.byte	0x3b
 1341 0693 61060000 		.4byte	0x661
 1342 0697 08       		.byte	0x8
 1343 0698 07       		.uleb128 0x7
 1344 0699 CD030000 		.4byte	.LASF111
 1345 069d 0C       		.byte	0xc
 1346 069e 3D       		.byte	0x3d
 1347 069f 61060000 		.4byte	0x661
 1348 06a3 20       		.byte	0x20
 1349 06a4 00       		.byte	0
 1350 06a5 03       		.uleb128 0x3
 1351 06a6 7D030000 		.4byte	.LASF112
 1352 06aa 0C       		.byte	0xc
 1353 06ab 3F       		.byte	0x3f
 1354 06ac 6C060000 		.4byte	0x66c
 1355 06b0 17       		.uleb128 0x17
 1356 06b1 04       		.byte	0x4
 1357 06b2 07       		.byte	0x7
 1358 06b3 FA       		.byte	0xfa
 1359 06b4 0D070000 		.4byte	0x70d
 1360 06b8 18       		.uleb128 0x18
 1361 06b9 03010000 		.4byte	.LASF113
 1362 06bd 07       		.byte	0x7
ARM GAS  /var/folders/c6/c789hm653lg9vtl73krp73tm0000gn/T//ccKhBMj9.s 			page 40


 1363 06be 0101     		.2byte	0x101
 1364 06c0 15010000 		.4byte	0x115
 1365 06c4 18       		.uleb128 0x18
 1366 06c5 A1010000 		.4byte	.LASF114
 1367 06c9 07       		.byte	0x7
 1368 06ca 0801     		.2byte	0x108
 1369 06cc 15010000 		.4byte	0x115
 1370 06d0 18       		.uleb128 0x18
 1371 06d1 DA060000 		.4byte	.LASF115
 1372 06d5 07       		.byte	0x7
 1373 06d6 0F01     		.2byte	0x10f
 1374 06d8 45030000 		.4byte	0x345
 1375 06dc 18       		.uleb128 0x18
 1376 06dd 19020000 		.4byte	.LASF116
 1377 06e1 07       		.byte	0x7
 1378 06e2 1601     		.2byte	0x116
 1379 06e4 0D070000 		.4byte	0x70d
 1380 06e8 18       		.uleb128 0x18
 1381 06e9 D4020000 		.4byte	.LASF117
 1382 06ed 07       		.byte	0x7
 1383 06ee 1E01     		.2byte	0x11e
 1384 06f0 38070000 		.4byte	0x738
 1385 06f4 18       		.uleb128 0x18
 1386 06f5 B1050000 		.4byte	.LASF118
 1387 06f9 07       		.byte	0x7
 1388 06fa 2701     		.2byte	0x127
 1389 06fc 6F070000 		.4byte	0x76f
 1390 0700 18       		.uleb128 0x18
 1391 0701 58050000 		.4byte	.LASF119
 1392 0705 07       		.byte	0x7
 1393 0706 2F01     		.2byte	0x12f
 1394 0708 20010000 		.4byte	0x120
 1395 070c 00       		.byte	0
 1396 070d 0A       		.uleb128 0xa
 1397 070e 04       		.byte	0x4
 1398 070f 5D020000 		.4byte	0x25d
 1399 0713 06       		.uleb128 0x6
 1400 0714 90050000 		.4byte	.LASF120
 1401 0718 0C       		.byte	0xc
 1402 0719 0D       		.byte	0xd
 1403 071a 34       		.byte	0x34
 1404 071b 38070000 		.4byte	0x738
 1405 071f 07       		.uleb128 0x7
 1406 0720 49020000 		.4byte	.LASF121
 1407 0724 0D       		.byte	0xd
 1408 0725 35       		.byte	0x35
 1409 0726 92020000 		.4byte	0x292
 1410 072a 00       		.byte	0
 1411 072b 07       		.uleb128 0x7
 1412 072c 03030000 		.4byte	.LASF122
 1413 0730 0D       		.byte	0xd
 1414 0731 37       		.byte	0x37
 1415 0732 2B010000 		.4byte	0x12b
 1416 0736 08       		.byte	0x8
 1417 0737 00       		.byte	0
 1418 0738 0A       		.uleb128 0xa
 1419 0739 04       		.byte	0x4
ARM GAS  /var/folders/c6/c789hm653lg9vtl73krp73tm0000gn/T//ccKhBMj9.s 			page 41


 1420 073a 13070000 		.4byte	0x713
 1421 073e 06       		.uleb128 0x6
 1422 073f 4F060000 		.4byte	.LASF123
 1423 0743 10       		.byte	0x10
 1424 0744 0E       		.byte	0xe
 1425 0745 39       		.byte	0x39
 1426 0746 6F070000 		.4byte	0x76f
 1427 074a 07       		.uleb128 0x7
 1428 074b 0A020000 		.4byte	.LASF124
 1429 074f 0E       		.byte	0xe
 1430 0750 3A       		.byte	0x3a
 1431 0751 92020000 		.4byte	0x292
 1432 0755 00       		.byte	0
 1433 0756 07       		.uleb128 0x7
 1434 0757 5D070000 		.4byte	.LASF125
 1435 075b 0E       		.byte	0xe
 1436 075c 3C       		.byte	0x3c
 1437 075d 68020000 		.4byte	0x268
 1438 0761 08       		.byte	0x8
 1439 0762 07       		.uleb128 0x7
 1440 0763 0E060000 		.4byte	.LASF126
 1441 0767 0E       		.byte	0xe
 1442 0768 3E       		.byte	0x3e
 1443 0769 B3070000 		.4byte	0x7b3
 1444 076d 0C       		.byte	0xc
 1445 076e 00       		.byte	0
 1446 076f 0A       		.uleb128 0xa
 1447 0770 04       		.byte	0x4
 1448 0771 3E070000 		.4byte	0x73e
 1449 0775 0A       		.uleb128 0xa
 1450 0776 04       		.byte	0x4
 1451 0777 7B070000 		.4byte	0x77b
 1452 077b 19       		.uleb128 0x19
 1453 077c 80070000 		.4byte	0x780
 1454 0780 04       		.uleb128 0x4
 1455 0781 01       		.byte	0x1
 1456 0782 08       		.byte	0x8
 1457 0783 EE050000 		.4byte	.LASF127
 1458 0787 0A       		.uleb128 0xa
 1459 0788 04       		.byte	0x4
 1460 0789 C6040000 		.4byte	0x4c6
 1461 078d 0A       		.uleb128 0xa
 1462 078e 04       		.byte	0x4
 1463 078f 47030000 		.4byte	0x347
 1464 0793 05       		.uleb128 0x5
 1465 0794 75070000 		.4byte	0x775
 1466 0798 15       		.uleb128 0x15
 1467 0799 C6040000 		.4byte	0x4c6
 1468 079d A8070000 		.4byte	0x7a8
 1469 07a1 16       		.uleb128 0x16
 1470 07a2 B4040000 		.4byte	0x4b4
 1471 07a6 1E       		.byte	0x1e
 1472 07a7 00       		.byte	0
 1473 07a8 03       		.uleb128 0x3
 1474 07a9 8E020000 		.4byte	.LASF128
 1475 07ad 0E       		.byte	0xe
 1476 07ae 34       		.byte	0x34
ARM GAS  /var/folders/c6/c789hm653lg9vtl73krp73tm0000gn/T//ccKhBMj9.s 			page 42


 1477 07af 3E070000 		.4byte	0x73e
 1478 07b3 0A       		.uleb128 0xa
 1479 07b4 04       		.byte	0x4
 1480 07b5 A8070000 		.4byte	0x7a8
 1481 07b9 03       		.uleb128 0x3
 1482 07ba 76060000 		.4byte	.LASF129
 1483 07be 0F       		.byte	0xf
 1484 07bf 36       		.byte	0x36
 1485 07c0 C4070000 		.4byte	0x7c4
 1486 07c4 0A       		.uleb128 0xa
 1487 07c5 04       		.byte	0x4
 1488 07c6 CA070000 		.4byte	0x7ca
 1489 07ca 1A       		.uleb128 0x1a
 1490 07cb 45030000 		.4byte	0x345
 1491 07cf D9070000 		.4byte	0x7d9
 1492 07d3 0D       		.uleb128 0xd
 1493 07d4 2C000000 		.4byte	0x2c
 1494 07d8 00       		.byte	0
 1495 07d9 06       		.uleb128 0x6
 1496 07da 9A060000 		.4byte	.LASF130
 1497 07de 04       		.byte	0x4
 1498 07df 10       		.byte	0x10
 1499 07e0 38       		.byte	0x38
 1500 07e1 F2070000 		.4byte	0x7f2
 1501 07e5 07       		.uleb128 0x7
 1502 07e6 E1060000 		.4byte	.LASF131
 1503 07ea 10       		.byte	0x10
 1504 07eb 39       		.byte	0x39
 1505 07ec F2070000 		.4byte	0x7f2
 1506 07f0 00       		.byte	0
 1507 07f1 00       		.byte	0
 1508 07f2 0A       		.uleb128 0xa
 1509 07f3 04       		.byte	0x4
 1510 07f4 D9070000 		.4byte	0x7d9
 1511 07f8 13       		.uleb128 0x13
 1512 07f9 0C       		.byte	0xc
 1513 07fa 10       		.byte	0x10
 1514 07fb 40       		.byte	0x40
 1515 07fc 25080000 		.4byte	0x825
 1516 0800 07       		.uleb128 0x7
 1517 0801 58060000 		.4byte	.LASF132
 1518 0805 10       		.byte	0x10
 1519 0806 41       		.byte	0x41
 1520 0807 F2070000 		.4byte	0x7f2
 1521 080b 00       		.byte	0
 1522 080c 07       		.uleb128 0x7
 1523 080d 75040000 		.4byte	.LASF133
 1524 0811 10       		.byte	0x10
 1525 0812 42       		.byte	0x42
 1526 0813 2C000000 		.4byte	0x2c
 1527 0817 04       		.byte	0x4
 1528 0818 07       		.uleb128 0x7
 1529 0819 61020000 		.4byte	.LASF134
 1530 081d 10       		.byte	0x10
 1531 081e 44       		.byte	0x44
 1532 081f B9070000 		.4byte	0x7b9
 1533 0823 08       		.byte	0x8
ARM GAS  /var/folders/c6/c789hm653lg9vtl73krp73tm0000gn/T//ccKhBMj9.s 			page 43


 1534 0824 00       		.byte	0
 1535 0825 03       		.uleb128 0x3
 1536 0826 EF020000 		.4byte	.LASF135
 1537 082a 10       		.byte	0x10
 1538 082b 46       		.byte	0x46
 1539 082c F8070000 		.4byte	0x7f8
 1540 0830 06       		.uleb128 0x6
 1541 0831 87050000 		.4byte	.LASF136
 1542 0835 10       		.byte	0x10
 1543 0836 11       		.byte	0x11
 1544 0837 3B       		.byte	0x3b
 1545 0838 6D080000 		.4byte	0x86d
 1546 083c 07       		.uleb128 0x7
 1547 083d 09030000 		.4byte	.LASF137
 1548 0841 11       		.byte	0x11
 1549 0842 3C       		.byte	0x3c
 1550 0843 75070000 		.4byte	0x775
 1551 0847 00       		.byte	0
 1552 0848 07       		.uleb128 0x7
 1553 0849 95040000 		.4byte	.LASF138
 1554 084d 11       		.byte	0x11
 1555 084e 3D       		.byte	0x3d
 1556 084f 6E080000 		.4byte	0x86e
 1557 0853 04       		.byte	0x4
 1558 0854 07       		.uleb128 0x7
 1559 0855 E6020000 		.4byte	.LASF139
 1560 0859 11       		.byte	0x11
 1561 085a 3E       		.byte	0x3e
 1562 085b 6E080000 		.4byte	0x86e
 1563 085f 08       		.byte	0x8
 1564 0860 07       		.uleb128 0x7
 1565 0861 F9040000 		.4byte	.LASF140
 1566 0865 11       		.byte	0x11
 1567 0866 3F       		.byte	0x3f
 1568 0867 6E080000 		.4byte	0x86e
 1569 086b 0C       		.byte	0xc
 1570 086c 00       		.byte	0
 1571 086d 1B       		.uleb128 0x1b
 1572 086e 0A       		.uleb128 0xa
 1573 086f 04       		.byte	0x4
 1574 0870 6D080000 		.4byte	0x86d
 1575 0874 1C       		.uleb128 0x1c
 1576 0875 7D070000 		.4byte	.LASF152
 1577 0879 01       		.byte	0x1
 1578 087a 47       		.byte	0x47
 1579 087b 01       		.byte	0x1
 1580 087c 8A080000 		.4byte	0x88a
 1581 0880 1D       		.uleb128 0x1d
 1582 0881 6900     		.ascii	"i\000"
 1583 0883 01       		.byte	0x1
 1584 0884 48       		.byte	0x48
 1585 0885 25000000 		.4byte	0x25
 1586 0889 00       		.byte	0
 1587 088a 1E       		.uleb128 0x1e
 1588 088b E9060000 		.4byte	.LASF153
 1589 088f 01       		.byte	0x1
 1590 0890 3C       		.byte	0x3c
ARM GAS  /var/folders/c6/c789hm653lg9vtl73krp73tm0000gn/T//ccKhBMj9.s 			page 44


 1591 0891 45030000 		.4byte	0x345
 1592 0895 00000000 		.4byte	.LFB229
 1593 0899 04000000 		.4byte	.LFE229-.LFB229
 1594 089d 01       		.uleb128 0x1
 1595 089e 9C       		.byte	0x9c
 1596 089f B3080000 		.4byte	0x8b3
 1597 08a3 1F       		.uleb128 0x1f
 1598 08a4 F7060000 		.4byte	.LASF154
 1599 08a8 01       		.byte	0x1
 1600 08a9 3C       		.byte	0x3c
 1601 08aa 2C000000 		.4byte	0x2c
 1602 08ae 00000000 		.4byte	.LLST0
 1603 08b2 00       		.byte	0
 1604 08b3 20       		.uleb128 0x20
 1605 08b4 F3050000 		.4byte	.LASF155
 1606 08b8 01       		.byte	0x1
 1607 08b9 42       		.byte	0x42
 1608 08ba 00000000 		.4byte	.LFB230
 1609 08be 10000000 		.4byte	.LFE230-.LFB230
 1610 08c2 01       		.uleb128 0x1
 1611 08c3 9C       		.byte	0x9c
 1612 08c4 E8080000 		.4byte	0x8e8
 1613 08c8 21       		.uleb128 0x21
 1614 08c9 0C000000 		.4byte	.LVL2
 1615 08cd E20A0000 		.4byte	0xae2
 1616 08d1 22       		.uleb128 0x22
 1617 08d2 01       		.uleb128 0x1
 1618 08d3 52       		.byte	0x52
 1619 08d4 01       		.uleb128 0x1
 1620 08d5 30       		.byte	0x30
 1621 08d6 22       		.uleb128 0x22
 1622 08d7 01       		.uleb128 0x1
 1623 08d8 51       		.byte	0x51
 1624 08d9 03       		.uleb128 0x3
 1625 08da 0A       		.byte	0xa
 1626 08db 6801     		.2byte	0x168
 1627 08dd 22       		.uleb128 0x22
 1628 08de 01       		.uleb128 0x1
 1629 08df 50       		.byte	0x50
 1630 08e0 05       		.uleb128 0x5
 1631 08e1 03       		.byte	0x3
 1632 08e2 00000000 		.4byte	.LANCHOR0
 1633 08e6 00       		.byte	0
 1634 08e7 00       		.byte	0
 1635 08e8 23       		.uleb128 0x23
 1636 08e9 74080000 		.4byte	0x874
 1637 08ed 00000000 		.4byte	.LFB231
 1638 08f1 C0000000 		.4byte	.LFE231-.LFB231
 1639 08f5 01       		.uleb128 0x1
 1640 08f6 9C       		.byte	0x9c
 1641 08f7 5E0A0000 		.4byte	0xa5e
 1642 08fb 24       		.uleb128 0x24
 1643 08fc 80080000 		.4byte	0x880
 1644 0900 21000000 		.4byte	.LLST1
 1645 0904 25       		.uleb128 0x25
 1646 0905 00000000 		.4byte	.Ldebug_ranges0+0
 1647 0909 EB090000 		.4byte	0x9eb
ARM GAS  /var/folders/c6/c789hm653lg9vtl73krp73tm0000gn/T//ccKhBMj9.s 			page 45


 1648 090d 24       		.uleb128 0x24
 1649 090e 80080000 		.4byte	0x880
 1650 0912 62000000 		.4byte	.LLST2
 1651 0916 26       		.uleb128 0x26
 1652 0917 4E000000 		.4byte	.LVL11
 1653 091b 030B0000 		.4byte	0xb03
 1654 091f 34090000 		.4byte	0x934
 1655 0923 22       		.uleb128 0x22
 1656 0924 01       		.uleb128 0x1
 1657 0925 51       		.byte	0x51
 1658 0926 03       		.uleb128 0x3
 1659 0927 74       		.byte	0x74
 1660 0928 00       		.sleb128 0
 1661 0929 06       		.byte	0x6
 1662 092a 22       		.uleb128 0x22
 1663 092b 01       		.uleb128 0x1
 1664 092c 50       		.byte	0x50
 1665 092d 05       		.uleb128 0x5
 1666 092e 03       		.byte	0x3
 1667 092f 00000000 		.4byte	.LANCHOR0
 1668 0933 00       		.byte	0
 1669 0934 26       		.uleb128 0x26
 1670 0935 5C000000 		.4byte	.LVL12
 1671 0939 030B0000 		.4byte	0xb03
 1672 093d 4B090000 		.4byte	0x94b
 1673 0941 22       		.uleb128 0x22
 1674 0942 01       		.uleb128 0x1
 1675 0943 50       		.byte	0x50
 1676 0944 05       		.uleb128 0x5
 1677 0945 03       		.byte	0x3
 1678 0946 00000000 		.4byte	.LANCHOR0
 1679 094a 00       		.byte	0
 1680 094b 26       		.uleb128 0x26
 1681 094c 68000000 		.4byte	.LVL14
 1682 0950 190B0000 		.4byte	0xb19
 1683 0954 62090000 		.4byte	0x962
 1684 0958 22       		.uleb128 0x22
 1685 0959 01       		.uleb128 0x1
 1686 095a 50       		.byte	0x50
 1687 095b 05       		.uleb128 0x5
 1688 095c 03       		.byte	0x3
 1689 095d 00000000 		.4byte	.LANCHOR0
 1690 0961 00       		.byte	0
 1691 0962 26       		.uleb128 0x26
 1692 0963 74000000 		.4byte	.LVL15
 1693 0967 2E0B0000 		.4byte	0xb2e
 1694 096b 75090000 		.4byte	0x975
 1695 096f 22       		.uleb128 0x22
 1696 0970 01       		.uleb128 0x1
 1697 0971 50       		.byte	0x50
 1698 0972 01       		.uleb128 0x1
 1699 0973 33       		.byte	0x33
 1700 0974 00       		.byte	0
 1701 0975 26       		.uleb128 0x26
 1702 0976 80000000 		.4byte	.LVL17
 1703 097a 190B0000 		.4byte	0xb19
 1704 097e 8C090000 		.4byte	0x98c
ARM GAS  /var/folders/c6/c789hm653lg9vtl73krp73tm0000gn/T//ccKhBMj9.s 			page 46


 1705 0982 22       		.uleb128 0x22
 1706 0983 01       		.uleb128 0x1
 1707 0984 50       		.byte	0x50
 1708 0985 05       		.uleb128 0x5
 1709 0986 03       		.byte	0x3
 1710 0987 00000000 		.4byte	.LANCHOR0
 1711 098b 00       		.byte	0
 1712 098c 26       		.uleb128 0x26
 1713 098d 8E000000 		.4byte	.LVL18
 1714 0991 2E0B0000 		.4byte	0xb2e
 1715 0995 9F090000 		.4byte	0x99f
 1716 0999 22       		.uleb128 0x22
 1717 099a 01       		.uleb128 0x1
 1718 099b 50       		.byte	0x50
 1719 099c 01       		.uleb128 0x1
 1720 099d 34       		.byte	0x34
 1721 099e 00       		.byte	0
 1722 099f 26       		.uleb128 0x26
 1723 09a0 9C000000 		.4byte	.LVL21
 1724 09a4 E20A0000 		.4byte	0xae2
 1725 09a8 C4090000 		.4byte	0x9c4
 1726 09ac 22       		.uleb128 0x22
 1727 09ad 01       		.uleb128 0x1
 1728 09ae 52       		.byte	0x52
 1729 09af 05       		.uleb128 0x5
 1730 09b0 03       		.byte	0x3
 1731 09b1 00000000 		.4byte	null_provider
 1732 09b5 22       		.uleb128 0x22
 1733 09b6 01       		.uleb128 0x1
 1734 09b7 51       		.byte	0x51
 1735 09b8 01       		.uleb128 0x1
 1736 09b9 40       		.byte	0x40
 1737 09ba 22       		.uleb128 0x22
 1738 09bb 01       		.uleb128 0x1
 1739 09bc 50       		.byte	0x50
 1740 09bd 05       		.uleb128 0x5
 1741 09be 03       		.byte	0x3
 1742 09bf 00000000 		.4byte	.LANCHOR0
 1743 09c3 00       		.byte	0
 1744 09c4 26       		.uleb128 0x26
 1745 09c5 A2000000 		.4byte	.LVL22
 1746 09c9 190B0000 		.4byte	0xb19
 1747 09cd DB090000 		.4byte	0x9db
 1748 09d1 22       		.uleb128 0x22
 1749 09d2 01       		.uleb128 0x1
 1750 09d3 50       		.byte	0x50
 1751 09d4 05       		.uleb128 0x5
 1752 09d5 03       		.byte	0x3
 1753 09d6 00000000 		.4byte	.LANCHOR0
 1754 09da 00       		.byte	0
 1755 09db 21       		.uleb128 0x21
 1756 09dc B4000000 		.4byte	.LVL24
 1757 09e0 2E0B0000 		.4byte	0xb2e
 1758 09e4 22       		.uleb128 0x22
 1759 09e5 01       		.uleb128 0x1
 1760 09e6 50       		.byte	0x50
 1761 09e7 01       		.uleb128 0x1
ARM GAS  /var/folders/c6/c789hm653lg9vtl73krp73tm0000gn/T//ccKhBMj9.s 			page 47


 1762 09e8 35       		.byte	0x35
 1763 09e9 00       		.byte	0
 1764 09ea 00       		.byte	0
 1765 09eb 26       		.uleb128 0x26
 1766 09ec 10000000 		.4byte	.LVL3
 1767 09f0 4F0B0000 		.4byte	0xb4f
 1768 09f4 0D0A0000 		.4byte	0xa0d
 1769 09f8 22       		.uleb128 0x22
 1770 09f9 01       		.uleb128 0x1
 1771 09fa 52       		.byte	0x52
 1772 09fb 01       		.uleb128 0x1
 1773 09fc 35       		.byte	0x35
 1774 09fd 22       		.uleb128 0x22
 1775 09fe 01       		.uleb128 0x1
 1776 09ff 51       		.byte	0x51
 1777 0a00 02       		.uleb128 0x2
 1778 0a01 75       		.byte	0x75
 1779 0a02 00       		.sleb128 0
 1780 0a03 22       		.uleb128 0x22
 1781 0a04 01       		.uleb128 0x1
 1782 0a05 50       		.byte	0x50
 1783 0a06 05       		.uleb128 0x5
 1784 0a07 03       		.byte	0x3
 1785 0a08 00000000 		.4byte	.LANCHOR0
 1786 0a0c 00       		.byte	0
 1787 0a0d 26       		.uleb128 0x26
 1788 0a0e 18000000 		.4byte	.LVL5
 1789 0a12 190B0000 		.4byte	0xb19
 1790 0a16 240A0000 		.4byte	0xa24
 1791 0a1a 22       		.uleb128 0x22
 1792 0a1b 01       		.uleb128 0x1
 1793 0a1c 50       		.byte	0x50
 1794 0a1d 05       		.uleb128 0x5
 1795 0a1e 03       		.byte	0x3
 1796 0a1f 00000000 		.4byte	.LANCHOR0
 1797 0a23 00       		.byte	0
 1798 0a24 26       		.uleb128 0x26
 1799 0a25 24000000 		.4byte	.LVL6
 1800 0a29 2E0B0000 		.4byte	0xb2e
 1801 0a2d 370A0000 		.4byte	0xa37
 1802 0a31 22       		.uleb128 0x22
 1803 0a32 01       		.uleb128 0x1
 1804 0a33 50       		.byte	0x50
 1805 0a34 01       		.uleb128 0x1
 1806 0a35 31       		.byte	0x31
 1807 0a36 00       		.byte	0
 1808 0a37 26       		.uleb128 0x26
 1809 0a38 30000000 		.4byte	.LVL8
 1810 0a3c 190B0000 		.4byte	0xb19
 1811 0a40 4E0A0000 		.4byte	0xa4e
 1812 0a44 22       		.uleb128 0x22
 1813 0a45 01       		.uleb128 0x1
 1814 0a46 50       		.byte	0x50
 1815 0a47 05       		.uleb128 0x5
 1816 0a48 03       		.byte	0x3
 1817 0a49 00000000 		.4byte	.LANCHOR0
 1818 0a4d 00       		.byte	0
ARM GAS  /var/folders/c6/c789hm653lg9vtl73krp73tm0000gn/T//ccKhBMj9.s 			page 48


 1819 0a4e 27       		.uleb128 0x27
 1820 0a4f 3E000000 		.4byte	.LVL9
 1821 0a53 2E0B0000 		.4byte	0xb2e
 1822 0a57 22       		.uleb128 0x22
 1823 0a58 01       		.uleb128 0x1
 1824 0a59 50       		.byte	0x50
 1825 0a5a 01       		.uleb128 0x1
 1826 0a5b 32       		.byte	0x32
 1827 0a5c 00       		.byte	0
 1828 0a5d 00       		.byte	0
 1829 0a5e 28       		.uleb128 0x28
 1830 0a5f 6D703100 		.ascii	"mp1\000"
 1831 0a63 01       		.byte	0x1
 1832 0a64 31       		.byte	0x31
 1833 0a65 25080000 		.4byte	0x825
 1834 0a69 05       		.uleb128 0x5
 1835 0a6a 03       		.byte	0x3
 1836 0a6b 00000000 		.4byte	mp1
 1837 0a6f 29       		.uleb128 0x29
 1838 0a70 CB010000 		.4byte	.LASF141
 1839 0a74 12       		.byte	0x12
 1840 0a75 A706     		.2byte	0x6a7
 1841 0a77 CE000000 		.4byte	0xce
 1842 0a7b 2A       		.uleb128 0x2a
 1843 0a7c 636800   		.ascii	"ch\000"
 1844 0a7f 07       		.byte	0x7
 1845 0a80 0902     		.2byte	0x209
 1846 0a82 3C040000 		.4byte	0x43c
 1847 0a86 15       		.uleb128 0x15
 1848 0a87 45030000 		.4byte	0x345
 1849 0a8b 910A0000 		.4byte	0xa91
 1850 0a8f 2B       		.uleb128 0x2b
 1851 0a90 00       		.byte	0
 1852 0a91 2C       		.uleb128 0x2c
 1853 0a92 776100   		.ascii	"wa\000"
 1854 0a95 11       		.byte	0x11
 1855 0a96 A9       		.byte	0xa9
 1856 0a97 9B0A0000 		.4byte	0xa9b
 1857 0a9b 19       		.uleb128 0x19
 1858 0a9c 860A0000 		.4byte	0xa86
 1859 0aa0 2D       		.uleb128 0x2d
 1860 0aa1 B8050000 		.4byte	.LASF142
 1861 0aa5 01       		.byte	0x1
 1862 0aa6 64       		.byte	0x64
 1863 0aa7 B10A0000 		.4byte	0xab1
 1864 0aab 05       		.uleb128 0x5
 1865 0aac 03       		.byte	0x3
 1866 0aad 00000000 		.4byte	testpools1
 1867 0ab1 19       		.uleb128 0x19
 1868 0ab2 30080000 		.4byte	0x830
 1869 0ab6 15       		.uleb128 0x15
 1870 0ab7 C60A0000 		.4byte	0xac6
 1871 0abb C60A0000 		.4byte	0xac6
 1872 0abf 16       		.uleb128 0x16
 1873 0ac0 B4040000 		.4byte	0x4b4
 1874 0ac4 01       		.byte	0x1
 1875 0ac5 00       		.byte	0
ARM GAS  /var/folders/c6/c789hm653lg9vtl73krp73tm0000gn/T//ccKhBMj9.s 			page 49


 1876 0ac6 0A       		.uleb128 0xa
 1877 0ac7 04       		.byte	0x4
 1878 0ac8 B10A0000 		.4byte	0xab1
 1879 0acc 2D       		.uleb128 0x2d
 1880 0acd AD040000 		.4byte	.LASF143
 1881 0ad1 01       		.byte	0x1
 1882 0ad2 70       		.byte	0x70
 1883 0ad3 DD0A0000 		.4byte	0xadd
 1884 0ad7 05       		.uleb128 0x5
 1885 0ad8 03       		.byte	0x3
 1886 0ad9 00000000 		.4byte	patternpools
 1887 0add 19       		.uleb128 0x19
 1888 0ade B60A0000 		.4byte	0xab6
 1889 0ae2 2E       		.uleb128 0x2e
 1890 0ae3 BC030000 		.4byte	.LASF144
 1891 0ae7 10       		.byte	0x10
 1892 0ae8 6C       		.byte	0x6c
 1893 0ae9 FD0A0000 		.4byte	0xafd
 1894 0aed 0D       		.uleb128 0xd
 1895 0aee FD0A0000 		.4byte	0xafd
 1896 0af2 0D       		.uleb128 0xd
 1897 0af3 2C000000 		.4byte	0x2c
 1898 0af7 0D       		.uleb128 0xd
 1899 0af8 B9070000 		.4byte	0x7b9
 1900 0afc 00       		.byte	0
 1901 0afd 0A       		.uleb128 0xa
 1902 0afe 04       		.byte	0x4
 1903 0aff 25080000 		.4byte	0x825
 1904 0b03 2E       		.uleb128 0x2e
 1905 0b04 CF060000 		.4byte	.LASF145
 1906 0b08 10       		.byte	0x10
 1907 0b09 71       		.byte	0x71
 1908 0b0a 190B0000 		.4byte	0xb19
 1909 0b0e 0D       		.uleb128 0xd
 1910 0b0f FD0A0000 		.4byte	0xafd
 1911 0b13 0D       		.uleb128 0xd
 1912 0b14 45030000 		.4byte	0x345
 1913 0b18 00       		.byte	0
 1914 0b19 2F       		.uleb128 0x2f
 1915 0b1a C3060000 		.4byte	.LASF146
 1916 0b1e 10       		.byte	0x10
 1917 0b1f 6F       		.byte	0x6f
 1918 0b20 45030000 		.4byte	0x345
 1919 0b24 2E0B0000 		.4byte	0xb2e
 1920 0b28 0D       		.uleb128 0xd
 1921 0b29 FD0A0000 		.4byte	0xafd
 1922 0b2d 00       		.byte	0
 1923 0b2e 2F       		.uleb128 0x2f
 1924 0b2f FC060000 		.4byte	.LASF147
 1925 0b33 11       		.byte	0x11
 1926 0b34 5A       		.byte	0x5a
 1927 0b35 480B0000 		.4byte	0xb48
 1928 0b39 480B0000 		.4byte	0xb48
 1929 0b3d 0D       		.uleb128 0xd
 1930 0b3e 37000000 		.4byte	0x37
 1931 0b42 0D       		.uleb128 0xd
 1932 0b43 480B0000 		.4byte	0xb48
ARM GAS  /var/folders/c6/c789hm653lg9vtl73krp73tm0000gn/T//ccKhBMj9.s 			page 50


 1933 0b47 00       		.byte	0
 1934 0b48 04       		.uleb128 0x4
 1935 0b49 01       		.byte	0x1
 1936 0b4a 02       		.byte	0x2
 1937 0b4b 19050000 		.4byte	.LASF148
 1938 0b4f 30       		.uleb128 0x30
 1939 0b50 42070000 		.4byte	.LASF156
 1940 0b54 10       		.byte	0x10
 1941 0b55 6D       		.byte	0x6d
 1942 0b56 0D       		.uleb128 0xd
 1943 0b57 FD0A0000 		.4byte	0xafd
 1944 0b5b 0D       		.uleb128 0xd
 1945 0b5c 45030000 		.4byte	0x345
 1946 0b60 0D       		.uleb128 0xd
 1947 0b61 2C000000 		.4byte	0x2c
 1948 0b65 00       		.byte	0
 1949 0b66 00       		.byte	0
 1950              		.section	.debug_abbrev,"",%progbits
 1951              	.Ldebug_abbrev0:
 1952 0000 01       		.uleb128 0x1
 1953 0001 11       		.uleb128 0x11
 1954 0002 01       		.byte	0x1
 1955 0003 25       		.uleb128 0x25
 1956 0004 0E       		.uleb128 0xe
 1957 0005 13       		.uleb128 0x13
 1958 0006 0B       		.uleb128 0xb
 1959 0007 03       		.uleb128 0x3
 1960 0008 0E       		.uleb128 0xe
 1961 0009 1B       		.uleb128 0x1b
 1962 000a 0E       		.uleb128 0xe
 1963 000b 55       		.uleb128 0x55
 1964 000c 17       		.uleb128 0x17
 1965 000d 11       		.uleb128 0x11
 1966 000e 01       		.uleb128 0x1
 1967 000f 10       		.uleb128 0x10
 1968 0010 17       		.uleb128 0x17
 1969 0011 00       		.byte	0
 1970 0012 00       		.byte	0
 1971 0013 02       		.uleb128 0x2
 1972 0014 24       		.uleb128 0x24
 1973 0015 00       		.byte	0
 1974 0016 0B       		.uleb128 0xb
 1975 0017 0B       		.uleb128 0xb
 1976 0018 3E       		.uleb128 0x3e
 1977 0019 0B       		.uleb128 0xb
 1978 001a 03       		.uleb128 0x3
 1979 001b 08       		.uleb128 0x8
 1980 001c 00       		.byte	0
 1981 001d 00       		.byte	0
 1982 001e 03       		.uleb128 0x3
 1983 001f 16       		.uleb128 0x16
 1984 0020 00       		.byte	0
 1985 0021 03       		.uleb128 0x3
 1986 0022 0E       		.uleb128 0xe
 1987 0023 3A       		.uleb128 0x3a
 1988 0024 0B       		.uleb128 0xb
 1989 0025 3B       		.uleb128 0x3b
ARM GAS  /var/folders/c6/c789hm653lg9vtl73krp73tm0000gn/T//ccKhBMj9.s 			page 51


 1990 0026 0B       		.uleb128 0xb
 1991 0027 49       		.uleb128 0x49
 1992 0028 13       		.uleb128 0x13
 1993 0029 00       		.byte	0
 1994 002a 00       		.byte	0
 1995 002b 04       		.uleb128 0x4
 1996 002c 24       		.uleb128 0x24
 1997 002d 00       		.byte	0
 1998 002e 0B       		.uleb128 0xb
 1999 002f 0B       		.uleb128 0xb
 2000 0030 3E       		.uleb128 0x3e
 2001 0031 0B       		.uleb128 0xb
 2002 0032 03       		.uleb128 0x3
 2003 0033 0E       		.uleb128 0xe
 2004 0034 00       		.byte	0
 2005 0035 00       		.byte	0
 2006 0036 05       		.uleb128 0x5
 2007 0037 35       		.uleb128 0x35
 2008 0038 00       		.byte	0
 2009 0039 49       		.uleb128 0x49
 2010 003a 13       		.uleb128 0x13
 2011 003b 00       		.byte	0
 2012 003c 00       		.byte	0
 2013 003d 06       		.uleb128 0x6
 2014 003e 13       		.uleb128 0x13
 2015 003f 01       		.byte	0x1
 2016 0040 03       		.uleb128 0x3
 2017 0041 0E       		.uleb128 0xe
 2018 0042 0B       		.uleb128 0xb
 2019 0043 0B       		.uleb128 0xb
 2020 0044 3A       		.uleb128 0x3a
 2021 0045 0B       		.uleb128 0xb
 2022 0046 3B       		.uleb128 0x3b
 2023 0047 0B       		.uleb128 0xb
 2024 0048 01       		.uleb128 0x1
 2025 0049 13       		.uleb128 0x13
 2026 004a 00       		.byte	0
 2027 004b 00       		.byte	0
 2028 004c 07       		.uleb128 0x7
 2029 004d 0D       		.uleb128 0xd
 2030 004e 00       		.byte	0
 2031 004f 03       		.uleb128 0x3
 2032 0050 0E       		.uleb128 0xe
 2033 0051 3A       		.uleb128 0x3a
 2034 0052 0B       		.uleb128 0xb
 2035 0053 3B       		.uleb128 0x3b
 2036 0054 0B       		.uleb128 0xb
 2037 0055 49       		.uleb128 0x49
 2038 0056 13       		.uleb128 0x13
 2039 0057 38       		.uleb128 0x38
 2040 0058 0B       		.uleb128 0xb
 2041 0059 00       		.byte	0
 2042 005a 00       		.byte	0
 2043 005b 08       		.uleb128 0x8
 2044 005c 0D       		.uleb128 0xd
 2045 005d 00       		.byte	0
 2046 005e 03       		.uleb128 0x3
ARM GAS  /var/folders/c6/c789hm653lg9vtl73krp73tm0000gn/T//ccKhBMj9.s 			page 52


 2047 005f 08       		.uleb128 0x8
 2048 0060 3A       		.uleb128 0x3a
 2049 0061 0B       		.uleb128 0xb
 2050 0062 3B       		.uleb128 0x3b
 2051 0063 05       		.uleb128 0x5
 2052 0064 49       		.uleb128 0x49
 2053 0065 13       		.uleb128 0x13
 2054 0066 38       		.uleb128 0x38
 2055 0067 0B       		.uleb128 0xb
 2056 0068 00       		.byte	0
 2057 0069 00       		.byte	0
 2058 006a 09       		.uleb128 0x9
 2059 006b 0D       		.uleb128 0xd
 2060 006c 00       		.byte	0
 2061 006d 03       		.uleb128 0x3
 2062 006e 0E       		.uleb128 0xe
 2063 006f 3A       		.uleb128 0x3a
 2064 0070 0B       		.uleb128 0xb
 2065 0071 3B       		.uleb128 0x3b
 2066 0072 05       		.uleb128 0x5
 2067 0073 49       		.uleb128 0x49
 2068 0074 13       		.uleb128 0x13
 2069 0075 38       		.uleb128 0x38
 2070 0076 0B       		.uleb128 0xb
 2071 0077 00       		.byte	0
 2072 0078 00       		.byte	0
 2073 0079 0A       		.uleb128 0xa
 2074 007a 0F       		.uleb128 0xf
 2075 007b 00       		.byte	0
 2076 007c 0B       		.uleb128 0xb
 2077 007d 0B       		.uleb128 0xb
 2078 007e 49       		.uleb128 0x49
 2079 007f 13       		.uleb128 0x13
 2080 0080 00       		.byte	0
 2081 0081 00       		.byte	0
 2082 0082 0B       		.uleb128 0xb
 2083 0083 13       		.uleb128 0x13
 2084 0084 01       		.byte	0x1
 2085 0085 03       		.uleb128 0x3
 2086 0086 0E       		.uleb128 0xe
 2087 0087 0B       		.uleb128 0xb
 2088 0088 0B       		.uleb128 0xb
 2089 0089 3A       		.uleb128 0x3a
 2090 008a 0B       		.uleb128 0xb
 2091 008b 3B       		.uleb128 0x3b
 2092 008c 05       		.uleb128 0x5
 2093 008d 01       		.uleb128 0x1
 2094 008e 13       		.uleb128 0x13
 2095 008f 00       		.byte	0
 2096 0090 00       		.byte	0
 2097 0091 0C       		.uleb128 0xc
 2098 0092 15       		.uleb128 0x15
 2099 0093 01       		.byte	0x1
 2100 0094 27       		.uleb128 0x27
 2101 0095 19       		.uleb128 0x19
 2102 0096 01       		.uleb128 0x1
 2103 0097 13       		.uleb128 0x13
ARM GAS  /var/folders/c6/c789hm653lg9vtl73krp73tm0000gn/T//ccKhBMj9.s 			page 53


 2104 0098 00       		.byte	0
 2105 0099 00       		.byte	0
 2106 009a 0D       		.uleb128 0xd
 2107 009b 05       		.uleb128 0x5
 2108 009c 00       		.byte	0
 2109 009d 49       		.uleb128 0x49
 2110 009e 13       		.uleb128 0x13
 2111 009f 00       		.byte	0
 2112 00a0 00       		.byte	0
 2113 00a1 0E       		.uleb128 0xe
 2114 00a2 0F       		.uleb128 0xf
 2115 00a3 00       		.byte	0
 2116 00a4 0B       		.uleb128 0xb
 2117 00a5 0B       		.uleb128 0xb
 2118 00a6 00       		.byte	0
 2119 00a7 00       		.byte	0
 2120 00a8 0F       		.uleb128 0xf
 2121 00a9 13       		.uleb128 0x13
 2122 00aa 01       		.byte	0x1
 2123 00ab 03       		.uleb128 0x3
 2124 00ac 0E       		.uleb128 0xe
 2125 00ad 0B       		.uleb128 0xb
 2126 00ae 05       		.uleb128 0x5
 2127 00af 3A       		.uleb128 0x3a
 2128 00b0 0B       		.uleb128 0xb
 2129 00b1 3B       		.uleb128 0x3b
 2130 00b2 05       		.uleb128 0x5
 2131 00b3 01       		.uleb128 0x1
 2132 00b4 13       		.uleb128 0x13
 2133 00b5 00       		.byte	0
 2134 00b6 00       		.byte	0
 2135 00b7 10       		.uleb128 0x10
 2136 00b8 0D       		.uleb128 0xd
 2137 00b9 00       		.byte	0
 2138 00ba 03       		.uleb128 0x3
 2139 00bb 0E       		.uleb128 0xe
 2140 00bc 3A       		.uleb128 0x3a
 2141 00bd 0B       		.uleb128 0xb
 2142 00be 3B       		.uleb128 0x3b
 2143 00bf 05       		.uleb128 0x5
 2144 00c0 49       		.uleb128 0x49
 2145 00c1 13       		.uleb128 0x13
 2146 00c2 38       		.uleb128 0x38
 2147 00c3 05       		.uleb128 0x5
 2148 00c4 00       		.byte	0
 2149 00c5 00       		.byte	0
 2150 00c6 11       		.uleb128 0x11
 2151 00c7 0D       		.uleb128 0xd
 2152 00c8 00       		.byte	0
 2153 00c9 03       		.uleb128 0x3
 2154 00ca 08       		.uleb128 0x8
 2155 00cb 3A       		.uleb128 0x3a
 2156 00cc 0B       		.uleb128 0xb
 2157 00cd 3B       		.uleb128 0x3b
 2158 00ce 05       		.uleb128 0x5
 2159 00cf 49       		.uleb128 0x49
 2160 00d0 13       		.uleb128 0x13
ARM GAS  /var/folders/c6/c789hm653lg9vtl73krp73tm0000gn/T//ccKhBMj9.s 			page 54


 2161 00d1 38       		.uleb128 0x38
 2162 00d2 05       		.uleb128 0x5
 2163 00d3 00       		.byte	0
 2164 00d4 00       		.byte	0
 2165 00d5 12       		.uleb128 0x12
 2166 00d6 0D       		.uleb128 0xd
 2167 00d7 00       		.byte	0
 2168 00d8 03       		.uleb128 0x3
 2169 00d9 08       		.uleb128 0x8
 2170 00da 3A       		.uleb128 0x3a
 2171 00db 0B       		.uleb128 0xb
 2172 00dc 3B       		.uleb128 0x3b
 2173 00dd 0B       		.uleb128 0xb
 2174 00de 49       		.uleb128 0x49
 2175 00df 13       		.uleb128 0x13
 2176 00e0 38       		.uleb128 0x38
 2177 00e1 0B       		.uleb128 0xb
 2178 00e2 00       		.byte	0
 2179 00e3 00       		.byte	0
 2180 00e4 13       		.uleb128 0x13
 2181 00e5 13       		.uleb128 0x13
 2182 00e6 01       		.byte	0x1
 2183 00e7 0B       		.uleb128 0xb
 2184 00e8 0B       		.uleb128 0xb
 2185 00e9 3A       		.uleb128 0x3a
 2186 00ea 0B       		.uleb128 0xb
 2187 00eb 3B       		.uleb128 0x3b
 2188 00ec 0B       		.uleb128 0xb
 2189 00ed 01       		.uleb128 0x1
 2190 00ee 13       		.uleb128 0x13
 2191 00ef 00       		.byte	0
 2192 00f0 00       		.byte	0
 2193 00f1 14       		.uleb128 0x14
 2194 00f2 13       		.uleb128 0x13
 2195 00f3 01       		.byte	0x1
 2196 00f4 0B       		.uleb128 0xb
 2197 00f5 05       		.uleb128 0x5
 2198 00f6 3A       		.uleb128 0x3a
 2199 00f7 0B       		.uleb128 0xb
 2200 00f8 3B       		.uleb128 0x3b
 2201 00f9 0B       		.uleb128 0xb
 2202 00fa 01       		.uleb128 0x1
 2203 00fb 13       		.uleb128 0x13
 2204 00fc 00       		.byte	0
 2205 00fd 00       		.byte	0
 2206 00fe 15       		.uleb128 0x15
 2207 00ff 01       		.uleb128 0x1
 2208 0100 01       		.byte	0x1
 2209 0101 49       		.uleb128 0x49
 2210 0102 13       		.uleb128 0x13
 2211 0103 01       		.uleb128 0x1
 2212 0104 13       		.uleb128 0x13
 2213 0105 00       		.byte	0
 2214 0106 00       		.byte	0
 2215 0107 16       		.uleb128 0x16
 2216 0108 21       		.uleb128 0x21
 2217 0109 00       		.byte	0
ARM GAS  /var/folders/c6/c789hm653lg9vtl73krp73tm0000gn/T//ccKhBMj9.s 			page 55


 2218 010a 49       		.uleb128 0x49
 2219 010b 13       		.uleb128 0x13
 2220 010c 2F       		.uleb128 0x2f
 2221 010d 0B       		.uleb128 0xb
 2222 010e 00       		.byte	0
 2223 010f 00       		.byte	0
 2224 0110 17       		.uleb128 0x17
 2225 0111 17       		.uleb128 0x17
 2226 0112 01       		.byte	0x1
 2227 0113 0B       		.uleb128 0xb
 2228 0114 0B       		.uleb128 0xb
 2229 0115 3A       		.uleb128 0x3a
 2230 0116 0B       		.uleb128 0xb
 2231 0117 3B       		.uleb128 0x3b
 2232 0118 0B       		.uleb128 0xb
 2233 0119 01       		.uleb128 0x1
 2234 011a 13       		.uleb128 0x13
 2235 011b 00       		.byte	0
 2236 011c 00       		.byte	0
 2237 011d 18       		.uleb128 0x18
 2238 011e 0D       		.uleb128 0xd
 2239 011f 00       		.byte	0
 2240 0120 03       		.uleb128 0x3
 2241 0121 0E       		.uleb128 0xe
 2242 0122 3A       		.uleb128 0x3a
 2243 0123 0B       		.uleb128 0xb
 2244 0124 3B       		.uleb128 0x3b
 2245 0125 05       		.uleb128 0x5
 2246 0126 49       		.uleb128 0x49
 2247 0127 13       		.uleb128 0x13
 2248 0128 00       		.byte	0
 2249 0129 00       		.byte	0
 2250 012a 19       		.uleb128 0x19
 2251 012b 26       		.uleb128 0x26
 2252 012c 00       		.byte	0
 2253 012d 49       		.uleb128 0x49
 2254 012e 13       		.uleb128 0x13
 2255 012f 00       		.byte	0
 2256 0130 00       		.byte	0
 2257 0131 1A       		.uleb128 0x1a
 2258 0132 15       		.uleb128 0x15
 2259 0133 01       		.byte	0x1
 2260 0134 27       		.uleb128 0x27
 2261 0135 19       		.uleb128 0x19
 2262 0136 49       		.uleb128 0x49
 2263 0137 13       		.uleb128 0x13
 2264 0138 01       		.uleb128 0x1
 2265 0139 13       		.uleb128 0x13
 2266 013a 00       		.byte	0
 2267 013b 00       		.byte	0
 2268 013c 1B       		.uleb128 0x1b
 2269 013d 15       		.uleb128 0x15
 2270 013e 00       		.byte	0
 2271 013f 27       		.uleb128 0x27
 2272 0140 19       		.uleb128 0x19
 2273 0141 00       		.byte	0
 2274 0142 00       		.byte	0
ARM GAS  /var/folders/c6/c789hm653lg9vtl73krp73tm0000gn/T//ccKhBMj9.s 			page 56


 2275 0143 1C       		.uleb128 0x1c
 2276 0144 2E       		.uleb128 0x2e
 2277 0145 01       		.byte	0x1
 2278 0146 03       		.uleb128 0x3
 2279 0147 0E       		.uleb128 0xe
 2280 0148 3A       		.uleb128 0x3a
 2281 0149 0B       		.uleb128 0xb
 2282 014a 3B       		.uleb128 0x3b
 2283 014b 0B       		.uleb128 0xb
 2284 014c 27       		.uleb128 0x27
 2285 014d 19       		.uleb128 0x19
 2286 014e 20       		.uleb128 0x20
 2287 014f 0B       		.uleb128 0xb
 2288 0150 01       		.uleb128 0x1
 2289 0151 13       		.uleb128 0x13
 2290 0152 00       		.byte	0
 2291 0153 00       		.byte	0
 2292 0154 1D       		.uleb128 0x1d
 2293 0155 34       		.uleb128 0x34
 2294 0156 00       		.byte	0
 2295 0157 03       		.uleb128 0x3
 2296 0158 08       		.uleb128 0x8
 2297 0159 3A       		.uleb128 0x3a
 2298 015a 0B       		.uleb128 0xb
 2299 015b 3B       		.uleb128 0x3b
 2300 015c 0B       		.uleb128 0xb
 2301 015d 49       		.uleb128 0x49
 2302 015e 13       		.uleb128 0x13
 2303 015f 00       		.byte	0
 2304 0160 00       		.byte	0
 2305 0161 1E       		.uleb128 0x1e
 2306 0162 2E       		.uleb128 0x2e
 2307 0163 01       		.byte	0x1
 2308 0164 03       		.uleb128 0x3
 2309 0165 0E       		.uleb128 0xe
 2310 0166 3A       		.uleb128 0x3a
 2311 0167 0B       		.uleb128 0xb
 2312 0168 3B       		.uleb128 0x3b
 2313 0169 0B       		.uleb128 0xb
 2314 016a 27       		.uleb128 0x27
 2315 016b 19       		.uleb128 0x19
 2316 016c 49       		.uleb128 0x49
 2317 016d 13       		.uleb128 0x13
 2318 016e 11       		.uleb128 0x11
 2319 016f 01       		.uleb128 0x1
 2320 0170 12       		.uleb128 0x12
 2321 0171 06       		.uleb128 0x6
 2322 0172 40       		.uleb128 0x40
 2323 0173 18       		.uleb128 0x18
 2324 0174 9742     		.uleb128 0x2117
 2325 0176 19       		.uleb128 0x19
 2326 0177 01       		.uleb128 0x1
 2327 0178 13       		.uleb128 0x13
 2328 0179 00       		.byte	0
 2329 017a 00       		.byte	0
 2330 017b 1F       		.uleb128 0x1f
 2331 017c 05       		.uleb128 0x5
ARM GAS  /var/folders/c6/c789hm653lg9vtl73krp73tm0000gn/T//ccKhBMj9.s 			page 57


 2332 017d 00       		.byte	0
 2333 017e 03       		.uleb128 0x3
 2334 017f 0E       		.uleb128 0xe
 2335 0180 3A       		.uleb128 0x3a
 2336 0181 0B       		.uleb128 0xb
 2337 0182 3B       		.uleb128 0x3b
 2338 0183 0B       		.uleb128 0xb
 2339 0184 49       		.uleb128 0x49
 2340 0185 13       		.uleb128 0x13
 2341 0186 02       		.uleb128 0x2
 2342 0187 17       		.uleb128 0x17
 2343 0188 00       		.byte	0
 2344 0189 00       		.byte	0
 2345 018a 20       		.uleb128 0x20
 2346 018b 2E       		.uleb128 0x2e
 2347 018c 01       		.byte	0x1
 2348 018d 03       		.uleb128 0x3
 2349 018e 0E       		.uleb128 0xe
 2350 018f 3A       		.uleb128 0x3a
 2351 0190 0B       		.uleb128 0xb
 2352 0191 3B       		.uleb128 0x3b
 2353 0192 0B       		.uleb128 0xb
 2354 0193 27       		.uleb128 0x27
 2355 0194 19       		.uleb128 0x19
 2356 0195 11       		.uleb128 0x11
 2357 0196 01       		.uleb128 0x1
 2358 0197 12       		.uleb128 0x12
 2359 0198 06       		.uleb128 0x6
 2360 0199 40       		.uleb128 0x40
 2361 019a 18       		.uleb128 0x18
 2362 019b 9742     		.uleb128 0x2117
 2363 019d 19       		.uleb128 0x19
 2364 019e 01       		.uleb128 0x1
 2365 019f 13       		.uleb128 0x13
 2366 01a0 00       		.byte	0
 2367 01a1 00       		.byte	0
 2368 01a2 21       		.uleb128 0x21
 2369 01a3 898201   		.uleb128 0x4109
 2370 01a6 01       		.byte	0x1
 2371 01a7 11       		.uleb128 0x11
 2372 01a8 01       		.uleb128 0x1
 2373 01a9 9542     		.uleb128 0x2115
 2374 01ab 19       		.uleb128 0x19
 2375 01ac 31       		.uleb128 0x31
 2376 01ad 13       		.uleb128 0x13
 2377 01ae 00       		.byte	0
 2378 01af 00       		.byte	0
 2379 01b0 22       		.uleb128 0x22
 2380 01b1 8A8201   		.uleb128 0x410a
 2381 01b4 00       		.byte	0
 2382 01b5 02       		.uleb128 0x2
 2383 01b6 18       		.uleb128 0x18
 2384 01b7 9142     		.uleb128 0x2111
 2385 01b9 18       		.uleb128 0x18
 2386 01ba 00       		.byte	0
 2387 01bb 00       		.byte	0
 2388 01bc 23       		.uleb128 0x23
ARM GAS  /var/folders/c6/c789hm653lg9vtl73krp73tm0000gn/T//ccKhBMj9.s 			page 58


 2389 01bd 2E       		.uleb128 0x2e
 2390 01be 01       		.byte	0x1
 2391 01bf 31       		.uleb128 0x31
 2392 01c0 13       		.uleb128 0x13
 2393 01c1 11       		.uleb128 0x11
 2394 01c2 01       		.uleb128 0x1
 2395 01c3 12       		.uleb128 0x12
 2396 01c4 06       		.uleb128 0x6
 2397 01c5 40       		.uleb128 0x40
 2398 01c6 18       		.uleb128 0x18
 2399 01c7 9742     		.uleb128 0x2117
 2400 01c9 19       		.uleb128 0x19
 2401 01ca 01       		.uleb128 0x1
 2402 01cb 13       		.uleb128 0x13
 2403 01cc 00       		.byte	0
 2404 01cd 00       		.byte	0
 2405 01ce 24       		.uleb128 0x24
 2406 01cf 34       		.uleb128 0x34
 2407 01d0 00       		.byte	0
 2408 01d1 31       		.uleb128 0x31
 2409 01d2 13       		.uleb128 0x13
 2410 01d3 02       		.uleb128 0x2
 2411 01d4 17       		.uleb128 0x17
 2412 01d5 00       		.byte	0
 2413 01d6 00       		.byte	0
 2414 01d7 25       		.uleb128 0x25
 2415 01d8 0B       		.uleb128 0xb
 2416 01d9 01       		.byte	0x1
 2417 01da 55       		.uleb128 0x55
 2418 01db 17       		.uleb128 0x17
 2419 01dc 01       		.uleb128 0x1
 2420 01dd 13       		.uleb128 0x13
 2421 01de 00       		.byte	0
 2422 01df 00       		.byte	0
 2423 01e0 26       		.uleb128 0x26
 2424 01e1 898201   		.uleb128 0x4109
 2425 01e4 01       		.byte	0x1
 2426 01e5 11       		.uleb128 0x11
 2427 01e6 01       		.uleb128 0x1
 2428 01e7 31       		.uleb128 0x31
 2429 01e8 13       		.uleb128 0x13
 2430 01e9 01       		.uleb128 0x1
 2431 01ea 13       		.uleb128 0x13
 2432 01eb 00       		.byte	0
 2433 01ec 00       		.byte	0
 2434 01ed 27       		.uleb128 0x27
 2435 01ee 898201   		.uleb128 0x4109
 2436 01f1 01       		.byte	0x1
 2437 01f2 11       		.uleb128 0x11
 2438 01f3 01       		.uleb128 0x1
 2439 01f4 31       		.uleb128 0x31
 2440 01f5 13       		.uleb128 0x13
 2441 01f6 00       		.byte	0
 2442 01f7 00       		.byte	0
 2443 01f8 28       		.uleb128 0x28
 2444 01f9 34       		.uleb128 0x34
 2445 01fa 00       		.byte	0
ARM GAS  /var/folders/c6/c789hm653lg9vtl73krp73tm0000gn/T//ccKhBMj9.s 			page 59


 2446 01fb 03       		.uleb128 0x3
 2447 01fc 08       		.uleb128 0x8
 2448 01fd 3A       		.uleb128 0x3a
 2449 01fe 0B       		.uleb128 0xb
 2450 01ff 3B       		.uleb128 0x3b
 2451 0200 0B       		.uleb128 0xb
 2452 0201 49       		.uleb128 0x49
 2453 0202 13       		.uleb128 0x13
 2454 0203 02       		.uleb128 0x2
 2455 0204 18       		.uleb128 0x18
 2456 0205 00       		.byte	0
 2457 0206 00       		.byte	0
 2458 0207 29       		.uleb128 0x29
 2459 0208 34       		.uleb128 0x34
 2460 0209 00       		.byte	0
 2461 020a 03       		.uleb128 0x3
 2462 020b 0E       		.uleb128 0xe
 2463 020c 3A       		.uleb128 0x3a
 2464 020d 0B       		.uleb128 0xb
 2465 020e 3B       		.uleb128 0x3b
 2466 020f 05       		.uleb128 0x5
 2467 0210 49       		.uleb128 0x49
 2468 0211 13       		.uleb128 0x13
 2469 0212 3F       		.uleb128 0x3f
 2470 0213 19       		.uleb128 0x19
 2471 0214 3C       		.uleb128 0x3c
 2472 0215 19       		.uleb128 0x19
 2473 0216 00       		.byte	0
 2474 0217 00       		.byte	0
 2475 0218 2A       		.uleb128 0x2a
 2476 0219 34       		.uleb128 0x34
 2477 021a 00       		.byte	0
 2478 021b 03       		.uleb128 0x3
 2479 021c 08       		.uleb128 0x8
 2480 021d 3A       		.uleb128 0x3a
 2481 021e 0B       		.uleb128 0xb
 2482 021f 3B       		.uleb128 0x3b
 2483 0220 05       		.uleb128 0x5
 2484 0221 49       		.uleb128 0x49
 2485 0222 13       		.uleb128 0x13
 2486 0223 3F       		.uleb128 0x3f
 2487 0224 19       		.uleb128 0x19
 2488 0225 3C       		.uleb128 0x3c
 2489 0226 19       		.uleb128 0x19
 2490 0227 00       		.byte	0
 2491 0228 00       		.byte	0
 2492 0229 2B       		.uleb128 0x2b
 2493 022a 21       		.uleb128 0x21
 2494 022b 00       		.byte	0
 2495 022c 00       		.byte	0
 2496 022d 00       		.byte	0
 2497 022e 2C       		.uleb128 0x2c
 2498 022f 34       		.uleb128 0x34
 2499 0230 00       		.byte	0
 2500 0231 03       		.uleb128 0x3
 2501 0232 08       		.uleb128 0x8
 2502 0233 3A       		.uleb128 0x3a
ARM GAS  /var/folders/c6/c789hm653lg9vtl73krp73tm0000gn/T//ccKhBMj9.s 			page 60


 2503 0234 0B       		.uleb128 0xb
 2504 0235 3B       		.uleb128 0x3b
 2505 0236 0B       		.uleb128 0xb
 2506 0237 49       		.uleb128 0x49
 2507 0238 13       		.uleb128 0x13
 2508 0239 3F       		.uleb128 0x3f
 2509 023a 19       		.uleb128 0x19
 2510 023b 3C       		.uleb128 0x3c
 2511 023c 19       		.uleb128 0x19
 2512 023d 00       		.byte	0
 2513 023e 00       		.byte	0
 2514 023f 2D       		.uleb128 0x2d
 2515 0240 34       		.uleb128 0x34
 2516 0241 00       		.byte	0
 2517 0242 03       		.uleb128 0x3
 2518 0243 0E       		.uleb128 0xe
 2519 0244 3A       		.uleb128 0x3a
 2520 0245 0B       		.uleb128 0xb
 2521 0246 3B       		.uleb128 0x3b
 2522 0247 0B       		.uleb128 0xb
 2523 0248 49       		.uleb128 0x49
 2524 0249 13       		.uleb128 0x13
 2525 024a 3F       		.uleb128 0x3f
 2526 024b 19       		.uleb128 0x19
 2527 024c 02       		.uleb128 0x2
 2528 024d 18       		.uleb128 0x18
 2529 024e 00       		.byte	0
 2530 024f 00       		.byte	0
 2531 0250 2E       		.uleb128 0x2e
 2532 0251 2E       		.uleb128 0x2e
 2533 0252 01       		.byte	0x1
 2534 0253 3F       		.uleb128 0x3f
 2535 0254 19       		.uleb128 0x19
 2536 0255 03       		.uleb128 0x3
 2537 0256 0E       		.uleb128 0xe
 2538 0257 3A       		.uleb128 0x3a
 2539 0258 0B       		.uleb128 0xb
 2540 0259 3B       		.uleb128 0x3b
 2541 025a 0B       		.uleb128 0xb
 2542 025b 27       		.uleb128 0x27
 2543 025c 19       		.uleb128 0x19
 2544 025d 3C       		.uleb128 0x3c
 2545 025e 19       		.uleb128 0x19
 2546 025f 01       		.uleb128 0x1
 2547 0260 13       		.uleb128 0x13
 2548 0261 00       		.byte	0
 2549 0262 00       		.byte	0
 2550 0263 2F       		.uleb128 0x2f
 2551 0264 2E       		.uleb128 0x2e
 2552 0265 01       		.byte	0x1
 2553 0266 3F       		.uleb128 0x3f
 2554 0267 19       		.uleb128 0x19
 2555 0268 03       		.uleb128 0x3
 2556 0269 0E       		.uleb128 0xe
 2557 026a 3A       		.uleb128 0x3a
 2558 026b 0B       		.uleb128 0xb
 2559 026c 3B       		.uleb128 0x3b
ARM GAS  /var/folders/c6/c789hm653lg9vtl73krp73tm0000gn/T//ccKhBMj9.s 			page 61


 2560 026d 0B       		.uleb128 0xb
 2561 026e 27       		.uleb128 0x27
 2562 026f 19       		.uleb128 0x19
 2563 0270 49       		.uleb128 0x49
 2564 0271 13       		.uleb128 0x13
 2565 0272 3C       		.uleb128 0x3c
 2566 0273 19       		.uleb128 0x19
 2567 0274 01       		.uleb128 0x1
 2568 0275 13       		.uleb128 0x13
 2569 0276 00       		.byte	0
 2570 0277 00       		.byte	0
 2571 0278 30       		.uleb128 0x30
 2572 0279 2E       		.uleb128 0x2e
 2573 027a 01       		.byte	0x1
 2574 027b 3F       		.uleb128 0x3f
 2575 027c 19       		.uleb128 0x19
 2576 027d 03       		.uleb128 0x3
 2577 027e 0E       		.uleb128 0xe
 2578 027f 3A       		.uleb128 0x3a
 2579 0280 0B       		.uleb128 0xb
 2580 0281 3B       		.uleb128 0x3b
 2581 0282 0B       		.uleb128 0xb
 2582 0283 27       		.uleb128 0x27
 2583 0284 19       		.uleb128 0x19
 2584 0285 3C       		.uleb128 0x3c
 2585 0286 19       		.uleb128 0x19
 2586 0287 00       		.byte	0
 2587 0288 00       		.byte	0
 2588 0289 00       		.byte	0
 2589              		.section	.debug_loc,"",%progbits
 2590              	.Ldebug_loc0:
 2591              	.LLST0:
 2592 0000 00000000 		.4byte	.LVL0
 2593 0004 02000000 		.4byte	.LVL1
 2594 0008 0100     		.2byte	0x1
 2595 000a 50       		.byte	0x50
 2596 000b 02000000 		.4byte	.LVL1
 2597 000f 04000000 		.4byte	.LFE229
 2598 0013 0400     		.2byte	0x4
 2599 0015 F3       		.byte	0xf3
 2600 0016 01       		.uleb128 0x1
 2601 0017 50       		.byte	0x50
 2602 0018 9F       		.byte	0x9f
 2603 0019 00000000 		.4byte	0
 2604 001d 00000000 		.4byte	0
 2605              	.LLST1:
 2606 0021 10000000 		.4byte	.LVL3
 2607 0025 12000000 		.4byte	.LVL4
 2608 0029 0200     		.2byte	0x2
 2609 002b 30       		.byte	0x30
 2610 002c 9F       		.byte	0x9f
 2611 002d 12000000 		.4byte	.LVL4
 2612 0031 24000000 		.4byte	.LVL6
 2613 0035 0500     		.2byte	0x5
 2614 0037 35       		.byte	0x35
 2615 0038 74       		.byte	0x74
 2616 0039 00       		.sleb128 0
ARM GAS  /var/folders/c6/c789hm653lg9vtl73krp73tm0000gn/T//ccKhBMj9.s 			page 62


 2617 003a 1C       		.byte	0x1c
 2618 003b 9F       		.byte	0x9f
 2619 003c 24000000 		.4byte	.LVL6
 2620 0040 28000000 		.4byte	.LVL7
 2621 0044 0500     		.2byte	0x5
 2622 0046 36       		.byte	0x36
 2623 0047 74       		.byte	0x74
 2624 0048 00       		.sleb128 0
 2625 0049 1C       		.byte	0x1c
 2626 004a 9F       		.byte	0x9f
 2627 004b 28000000 		.4byte	.LVL7
 2628 004f 42000000 		.4byte	.LVL10
 2629 0053 0500     		.2byte	0x5
 2630 0055 35       		.byte	0x35
 2631 0056 74       		.byte	0x74
 2632 0057 00       		.sleb128 0
 2633 0058 1C       		.byte	0x1c
 2634 0059 9F       		.byte	0x9f
 2635 005a 00000000 		.4byte	0
 2636 005e 00000000 		.4byte	0
 2637              	.LLST2:
 2638 0062 62000000 		.4byte	.LVL13
 2639 0066 74000000 		.4byte	.LVL15
 2640 006a 0500     		.2byte	0x5
 2641 006c 35       		.byte	0x35
 2642 006d 74       		.byte	0x74
 2643 006e 00       		.sleb128 0
 2644 006f 1C       		.byte	0x1c
 2645 0070 9F       		.byte	0x9f
 2646 0071 74000000 		.4byte	.LVL15
 2647 0075 78000000 		.4byte	.LVL16
 2648 0079 0500     		.2byte	0x5
 2649 007b 36       		.byte	0x36
 2650 007c 74       		.byte	0x74
 2651 007d 00       		.sleb128 0
 2652 007e 1C       		.byte	0x1c
 2653 007f 9F       		.byte	0x9f
 2654 0080 78000000 		.4byte	.LVL16
 2655 0084 90000000 		.4byte	.LVL19
 2656 0088 0500     		.2byte	0x5
 2657 008a 35       		.byte	0x35
 2658 008b 74       		.byte	0x74
 2659 008c 00       		.sleb128 0
 2660 008d 1C       		.byte	0x1c
 2661 008e 9F       		.byte	0x9f
 2662 008f 92000000 		.4byte	.LVL20
 2663 0093 B0000000 		.4byte	.LVL23
 2664 0097 0500     		.2byte	0x5
 2665 0099 35       		.byte	0x35
 2666 009a 74       		.byte	0x74
 2667 009b 00       		.sleb128 0
 2668 009c 1C       		.byte	0x1c
 2669 009d 9F       		.byte	0x9f
 2670 009e 00000000 		.4byte	0
 2671 00a2 00000000 		.4byte	0
 2672              		.section	.debug_aranges,"",%progbits
 2673 0000 2C000000 		.4byte	0x2c
ARM GAS  /var/folders/c6/c789hm653lg9vtl73krp73tm0000gn/T//ccKhBMj9.s 			page 63


 2674 0004 0200     		.2byte	0x2
 2675 0006 00000000 		.4byte	.Ldebug_info0
 2676 000a 04       		.byte	0x4
 2677 000b 00       		.byte	0
 2678 000c 0000     		.2byte	0
 2679 000e 0000     		.2byte	0
 2680 0010 00000000 		.4byte	.LFB229
 2681 0014 04000000 		.4byte	.LFE229-.LFB229
 2682 0018 00000000 		.4byte	.LFB230
 2683 001c 10000000 		.4byte	.LFE230-.LFB230
 2684 0020 00000000 		.4byte	.LFB231
 2685 0024 C0000000 		.4byte	.LFE231-.LFB231
 2686 0028 00000000 		.4byte	0
 2687 002c 00000000 		.4byte	0
 2688              		.section	.debug_ranges,"",%progbits
 2689              	.Ldebug_ranges0:
 2690 0000 42000000 		.4byte	.LBB5
 2691 0004 44000000 		.4byte	.LBE5
 2692 0008 4A000000 		.4byte	.LBB6
 2693 000c AC000000 		.4byte	.LBE6
 2694 0010 B0000000 		.4byte	.LBB7
 2695 0014 C0000000 		.4byte	.LBE7
 2696 0018 00000000 		.4byte	0
 2697 001c 00000000 		.4byte	0
 2698 0020 00000000 		.4byte	.LFB229
 2699 0024 04000000 		.4byte	.LFE229
 2700 0028 00000000 		.4byte	.LFB230
 2701 002c 10000000 		.4byte	.LFE230
 2702 0030 00000000 		.4byte	.LFB231
 2703 0034 C0000000 		.4byte	.LFE231
 2704 0038 00000000 		.4byte	0
 2705 003c 00000000 		.4byte	0
 2706              		.section	.debug_line,"",%progbits
 2707              	.Ldebug_line0:
 2708 0000 B7020000 		.section	.debug_str,"MS",%progbits,1
 2708      02006F02 
 2708      00000201 
 2708      FB0E0D00 
 2708      01010101 
 2709              	.LASF149:
 2710 0000 474E5520 		.ascii	"GNU C 4.8.4 20140725 (release) [ARM/embedded-4_8-br"
 2710      4320342E 
 2710      382E3420 
 2710      32303134 
 2710      30373235 
 2711 0033 616E6368 		.ascii	"anch revision 213147] -mcpu=cortex-m4 -mno-thumb-in"
 2711      20726576 
 2711      6973696F 
 2711      6E203231 
 2711      33313437 
 2712 0066 74657277 		.ascii	"terwork -mthumb -ggdb -O2 -fomit-frame-pointer -fal"
 2712      6F726B20 
 2712      2D6D7468 
 2712      756D6220 
 2712      2D676764 
 2713 0099 69676E2D 		.ascii	"ign-functions=16 -ffunction-sections -fdata-section"
 2713      66756E63 
ARM GAS  /var/folders/c6/c789hm653lg9vtl73krp73tm0000gn/T//ccKhBMj9.s 			page 64


 2713      74696F6E 
 2713      733D3136 
 2713      202D6666 
 2714 00cc 73202D66 		.ascii	"s -fno-common -flto\000"
 2714      6E6F2D63 
 2714      6F6D6D6F 
 2714      6E202D66 
 2714      6C746F00 
 2715              	.LASF98:
 2716 00e0 74625F70 		.ascii	"tb_ptr\000"
 2716      747200
 2717              	.LASF55:
 2718 00e7 72656164 		.ascii	"ready_list_t\000"
 2718      795F6C69 
 2718      73745F74 
 2718      00
 2719              	.LASF92:
 2720 00f4 73655F74 		.ascii	"se_time\000"
 2720      696D6500 
 2721              	.LASF2:
 2722 00fc 73697A65 		.ascii	"size_t\000"
 2722      5F7400
 2723              	.LASF113:
 2724 0103 7264796D 		.ascii	"rdymsg\000"
 2724      736700
 2725              	.LASF17:
 2726 010a 75696E74 		.ascii	"uint64_t\000"
 2726      36345F74 
 2726      00
 2727              	.LASF85:
 2728 0113 6B65726E 		.ascii	"kernel_stats\000"
 2728      656C5F73 
 2728      74617473 
 2728      00
 2729              	.LASF3:
 2730 0120 5F5F7569 		.ascii	"__uint8_t\000"
 2730      6E74385F 
 2730      7400
 2731              	.LASF91:
 2732 012a 706F7274 		.ascii	"port_intctx\000"
 2732      5F696E74 
 2732      63747800 
 2733              	.LASF54:
 2734 0136 63685F74 		.ascii	"ch_threads_queue\000"
 2734      68726561 
 2734      64735F71 
 2734      75657565 
 2734      00
 2735              	.LASF74:
 2736 0147 73797374 		.ascii	"system_debug_t\000"
 2736      656D5F64 
 2736      65627567 
 2736      5F7400
 2737              	.LASF104:
 2738 0156 776F7273 		.ascii	"worst\000"
 2738      7400
 2739              	.LASF107:
ARM GAS  /var/folders/c6/c789hm653lg9vtl73krp73tm0000gn/T//ccKhBMj9.s 			page 65


 2740 015c 74696D65 		.ascii	"time_measurement_t\000"
 2740      5F6D6561 
 2740      73757265 
 2740      6D656E74 
 2740      5F7400
 2741              	.LASF13:
 2742 016f 6C6F6E67 		.ascii	"long long unsigned int\000"
 2742      206C6F6E 
 2742      6720756E 
 2742      7369676E 
 2742      65642069 
 2743              	.LASF100:
 2744 0186 63685F74 		.ascii	"ch_trace_buffer_t\000"
 2744      72616365 
 2744      5F627566 
 2744      6665725F 
 2744      7400
 2745              	.LASF95:
 2746 0198 73655F73 		.ascii	"se_state\000"
 2746      74617465 
 2746      00
 2747              	.LASF114:
 2748 01a1 65786974 		.ascii	"exitcode\000"
 2748      636F6465 
 2748      00
 2749              	.LASF84:
 2750 01aa 6D61696E 		.ascii	"mainthread\000"
 2750      74687265 
 2750      616400
 2751              	.LASF71:
 2752 01b5 76697274 		.ascii	"virtual_timers_list_t\000"
 2752      75616C5F 
 2752      74696D65 
 2752      72735F6C 
 2752      6973745F 
 2753              	.LASF141:
 2754 01cb 49544D5F 		.ascii	"ITM_RxBuffer\000"
 2754      52784275 
 2754      66666572 
 2754      00
 2755              	.LASF19:
 2756 01d8 72747469 		.ascii	"rttime_t\000"
 2756      6D655F74 
 2756      00
 2757              	.LASF32:
 2758 01e1 705F7072 		.ascii	"p_prio\000"
 2758      696F00
 2759              	.LASF11:
 2760 01e8 6C6F6E67 		.ascii	"long long int\000"
 2760      206C6F6E 
 2760      6720696E 
 2760      7400
 2761              	.LASF1:
 2762 01f6 7369676E 		.ascii	"signed char\000"
 2762      65642063 
 2762      68617200 
 2763              	.LASF47:
ARM GAS  /var/folders/c6/c789hm653lg9vtl73krp73tm0000gn/T//ccKhBMj9.s 			page 66


 2764 0202 705F6D70 		.ascii	"p_mpool\000"
 2764      6F6F6C00 
 2765              	.LASF124:
 2766 020a 6D5F7175 		.ascii	"m_queue\000"
 2766      65756500 
 2767              	.LASF83:
 2768 0212 76746C69 		.ascii	"vtlist\000"
 2768      737400
 2769              	.LASF116:
 2770 0219 77747472 		.ascii	"wttrp\000"
 2770      7000
 2771              	.LASF81:
 2772 021f 63685F73 		.ascii	"ch_system\000"
 2772      79737465 
 2772      6D00
 2773              	.LASF8:
 2774 0229 6C6F6E67 		.ascii	"long int\000"
 2774      20696E74 
 2774      00
 2775              	.LASF21:
 2776 0232 74737461 		.ascii	"tstate_t\000"
 2776      74655F74 
 2776      00
 2777              	.LASF93:
 2778 023b 73655F74 		.ascii	"se_tp\000"
 2778      7000
 2779              	.LASF34:
 2780 0241 705F6E65 		.ascii	"p_newer\000"
 2780      77657200 
 2781              	.LASF121:
 2782 0249 735F7175 		.ascii	"s_queue\000"
 2782      65756500 
 2783              	.LASF97:
 2784 0251 74625F73 		.ascii	"tb_size\000"
 2784      697A6500 
 2785              	.LASF60:
 2786 0259 725F6E65 		.ascii	"r_newer\000"
 2786      77657200 
 2787              	.LASF134:
 2788 0261 6D705F70 		.ascii	"mp_provider\000"
 2788      726F7669 
 2788      64657200 
 2789              	.LASF88:
 2790 026d 72656761 		.ascii	"regarm_t\000"
 2790      726D5F74 
 2790      00
 2791              	.LASF67:
 2792 0276 76745F70 		.ascii	"vt_prev\000"
 2792      72657600 
 2793              	.LASF75:
 2794 027e 63685F73 		.ascii	"ch_system_debug\000"
 2794      79737465 
 2794      6D5F6465 
 2794      62756700 
 2795              	.LASF128:
 2796 028e 6D757465 		.ascii	"mutex_t\000"
 2796      785F7400 
ARM GAS  /var/folders/c6/c789hm653lg9vtl73krp73tm0000gn/T//ccKhBMj9.s 			page 67


 2797              	.LASF78:
 2798 0296 6C6F636B 		.ascii	"lock_cnt\000"
 2798      5F636E74 
 2798      00
 2799              	.LASF86:
 2800 029f 69646C65 		.ascii	"idle_thread_wa\000"
 2800      5F746872 
 2800      6561645F 
 2800      776100
 2801              	.LASF26:
 2802 02ae 636E745F 		.ascii	"cnt_t\000"
 2802      7400
 2803              	.LASF37:
 2804 02b4 705F7374 		.ascii	"p_stklimit\000"
 2804      6B6C696D 
 2804      697400
 2805              	.LASF0:
 2806 02bf 756E7369 		.ascii	"unsigned int\000"
 2806      676E6564 
 2806      20696E74 
 2806      00
 2807              	.LASF66:
 2808 02cc 76745F6E 		.ascii	"vt_next\000"
 2808      65787400 
 2809              	.LASF117:
 2810 02d4 77747365 		.ascii	"wtsemp\000"
 2810      6D7000
 2811              	.LASF42:
 2812 02db 705F6D73 		.ascii	"p_msgqueue\000"
 2812      67717565 
 2812      756500
 2813              	.LASF139:
 2814 02e6 74656172 		.ascii	"teardown\000"
 2814      646F776E 
 2814      00
 2815              	.LASF135:
 2816 02ef 6D656D6F 		.ascii	"memory_pool_t\000"
 2816      72795F70 
 2816      6F6F6C5F 
 2816      7400
 2817              	.LASF108:
 2818 02fd 6E5F6972 		.ascii	"n_irq\000"
 2818      7100
 2819              	.LASF122:
 2820 0303 735F636E 		.ascii	"s_cnt\000"
 2820      7400
 2821              	.LASF137:
 2822 0309 6E616D65 		.ascii	"name\000"
 2822      00
 2823              	.LASF151:
 2824 030e 2F557365 		.ascii	"/Users/savonetj/Downloads/ChibiOS_3.0.2/demos/STM32"
 2824      72732F73 
 2824      61766F6E 
 2824      65746A2F 
 2824      446F776E 
 2825 0341 2F52542D 		.ascii	"/RT-STM32F407-OLIMEX_E407-LWIP-FATFS-USB\000"
 2825      53544D33 
ARM GAS  /var/folders/c6/c789hm653lg9vtl73krp73tm0000gn/T//ccKhBMj9.s 			page 68


 2825      32463430 
 2825      372D4F4C 
 2825      494D4558 
 2826              	.LASF6:
 2827 036a 73686F72 		.ascii	"short unsigned int\000"
 2827      7420756E 
 2827      7369676E 
 2827      65642069 
 2827      6E7400
 2828              	.LASF112:
 2829 037d 6B65726E 		.ascii	"kernel_stats_t\000"
 2829      656C5F73 
 2829      74617473 
 2829      5F7400
 2830              	.LASF51:
 2831 038c 63685F74 		.ascii	"ch_thread\000"
 2831      68726561 
 2831      6400
 2832              	.LASF24:
 2833 0396 6D73675F 		.ascii	"msg_t\000"
 2833      7400
 2834              	.LASF105:
 2835 039c 6C617374 		.ascii	"last\000"
 2835      00
 2836              	.LASF27:
 2837 03a1 75636E74 		.ascii	"ucnt_t\000"
 2837      5F7400
 2838              	.LASF80:
 2839 03a8 63685F73 		.ascii	"ch_system_t\000"
 2839      79737465 
 2839      6D5F7400 
 2840              	.LASF20:
 2841 03b4 746D6F64 		.ascii	"tmode_t\000"
 2841      655F7400 
 2842              	.LASF144:
 2843 03bc 6368506F 		.ascii	"chPoolObjectInit\000"
 2843      6F6C4F62 
 2843      6A656374 
 2843      496E6974 
 2843      00
 2844              	.LASF111:
 2845 03cd 6D5F6372 		.ascii	"m_crit_isr\000"
 2845      69745F69 
 2845      737200
 2846              	.LASF56:
 2847 03d8 63685F72 		.ascii	"ch_ready_list\000"
 2847      65616479 
 2847      5F6C6973 
 2847      7400
 2848              	.LASF25:
 2849 03e6 6576656E 		.ascii	"eventmask_t\000"
 2849      746D6173 
 2849      6B5F7400 
 2850              	.LASF7:
 2851 03f2 5F5F696E 		.ascii	"__int32_t\000"
 2851      7433325F 
 2851      7400
ARM GAS  /var/folders/c6/c789hm653lg9vtl73krp73tm0000gn/T//ccKhBMj9.s 			page 69


 2852              	.LASF89:
 2853 03fc 73746B61 		.ascii	"stkalign_t\000"
 2853      6C69676E 
 2853      5F7400
 2854              	.LASF41:
 2855 0407 705F7761 		.ascii	"p_waiting\000"
 2855      6974696E 
 2855      6700
 2856              	.LASF87:
 2857 0411 73697A65 		.ascii	"sizetype\000"
 2857      74797065 
 2857      00
 2858              	.LASF49:
 2859 041a 74687265 		.ascii	"thread_reference_t\000"
 2859      61645F72 
 2859      65666572 
 2859      656E6365 
 2859      5F7400
 2860              	.LASF72:
 2861 042d 63685F76 		.ascii	"ch_virtual_timers_list\000"
 2861      69727475 
 2861      616C5F74 
 2861      696D6572 
 2861      735F6C69 
 2862              	.LASF57:
 2863 0444 725F7175 		.ascii	"r_queue\000"
 2863      65756500 
 2864              	.LASF96:
 2865 044c 63685F73 		.ascii	"ch_swc_event_t\000"
 2865      77635F65 
 2865      76656E74 
 2865      5F7400
 2866              	.LASF73:
 2867 045b 76745F6C 		.ascii	"vt_lasttime\000"
 2867      61737474 
 2867      696D6500 
 2868              	.LASF35:
 2869 0467 705F6F6C 		.ascii	"p_older\000"
 2869      64657200 
 2870              	.LASF59:
 2871 046f 725F6374 		.ascii	"r_ctx\000"
 2871      7800
 2872              	.LASF133:
 2873 0475 6D705F6F 		.ascii	"mp_object_size\000"
 2873      626A6563 
 2873      745F7369 
 2873      7A6500
 2874              	.LASF102:
 2875 0484 746D5F63 		.ascii	"tm_calibration_t\000"
 2875      616C6962 
 2875      72617469 
 2875      6F6E5F74 
 2875      00
 2876              	.LASF138:
 2877 0495 73657475 		.ascii	"setup\000"
 2877      7000
 2878              	.LASF62:
ARM GAS  /var/folders/c6/c789hm653lg9vtl73krp73tm0000gn/T//ccKhBMj9.s 			page 70


 2879 049b 725F6375 		.ascii	"r_current\000"
 2879      7272656E 
 2879      7400
 2880              	.LASF61:
 2881 04a5 725F6F6C 		.ascii	"r_older\000"
 2881      64657200 
 2882              	.LASF143:
 2883 04ad 70617474 		.ascii	"patternpools\000"
 2883      65726E70 
 2883      6F6F6C73 
 2883      00
 2884              	.LASF12:
 2885 04ba 5F5F7569 		.ascii	"__uint64_t\000"
 2885      6E743634 
 2885      5F7400
 2886              	.LASF106:
 2887 04c5 63756D75 		.ascii	"cumulative\000"
 2887      6C617469 
 2887      766500
 2888              	.LASF22:
 2889 04d0 74726566 		.ascii	"trefs_t\000"
 2889      735F7400 
 2890              	.LASF99:
 2891 04d8 74625F62 		.ascii	"tb_buffer\000"
 2891      75666665 
 2891      7200
 2892              	.LASF64:
 2893 04e2 76697274 		.ascii	"virtual_timer_t\000"
 2893      75616C5F 
 2893      74696D65 
 2893      725F7400 
 2894              	.LASF31:
 2895 04f2 705F7072 		.ascii	"p_prev\000"
 2895      657600
 2896              	.LASF140:
 2897 04f9 65786563 		.ascii	"execute\000"
 2897      75746500 
 2898              	.LASF23:
 2899 0501 74707269 		.ascii	"tprio_t\000"
 2899      6F5F7400 
 2900              	.LASF36:
 2901 0509 705F6E61 		.ascii	"p_name\000"
 2901      6D6500
 2902              	.LASF109:
 2903 0510 6E5F6374 		.ascii	"n_ctxswc\000"
 2903      78737763 
 2903      00
 2904              	.LASF148:
 2905 0519 5F426F6F 		.ascii	"_Bool\000"
 2905      6C00
 2906              	.LASF15:
 2907 051f 696E7433 		.ascii	"int32_t\000"
 2907      325F7400 
 2908              	.LASF4:
 2909 0527 756E7369 		.ascii	"unsigned char\000"
 2909      676E6564 
 2909      20636861 
ARM GAS  /var/folders/c6/c789hm653lg9vtl73krp73tm0000gn/T//ccKhBMj9.s 			page 71


 2909      7200
 2910              	.LASF45:
 2911 0535 705F6D74 		.ascii	"p_mtxlist\000"
 2911      786C6973 
 2911      7400
 2912              	.LASF5:
 2913 053f 73686F72 		.ascii	"short int\000"
 2913      7420696E 
 2913      7400
 2914              	.LASF38:
 2915 0549 705F7374 		.ascii	"p_state\000"
 2915      61746500 
 2916              	.LASF58:
 2917 0551 725F7072 		.ascii	"r_prio\000"
 2917      696F00
 2918              	.LASF119:
 2919 0558 65776D61 		.ascii	"ewmask\000"
 2919      736B00
 2920              	.LASF30:
 2921 055f 705F6E65 		.ascii	"p_next\000"
 2921      787400
 2922              	.LASF39:
 2923 0566 705F666C 		.ascii	"p_flags\000"
 2923      61677300 
 2924              	.LASF48:
 2925 056e 705F7374 		.ascii	"p_stats\000"
 2925      61747300 
 2926              	.LASF65:
 2927 0576 63685F76 		.ascii	"ch_virtual_timer\000"
 2927      69727475 
 2927      616C5F74 
 2927      696D6572 
 2927      00
 2928              	.LASF136:
 2929 0587 74657374 		.ascii	"testcase\000"
 2929      63617365 
 2929      00
 2930              	.LASF120:
 2931 0590 63685F73 		.ascii	"ch_semaphore\000"
 2931      656D6170 
 2931      686F7265 
 2931      00
 2932              	.LASF44:
 2933 059d 705F6570 		.ascii	"p_epending\000"
 2933      656E6469 
 2933      6E6700
 2934              	.LASF16:
 2935 05a8 75696E74 		.ascii	"uint32_t\000"
 2935      33325F74 
 2935      00
 2936              	.LASF118:
 2937 05b1 77746D74 		.ascii	"wtmtxp\000"
 2937      787000
 2938              	.LASF142:
 2939 05b8 74657374 		.ascii	"testpools1\000"
 2939      706F6F6C 
 2939      733100
ARM GAS  /var/folders/c6/c789hm653lg9vtl73krp73tm0000gn/T//ccKhBMj9.s 			page 72


 2940              	.LASF68:
 2941 05c3 76745F64 		.ascii	"vt_delta\000"
 2941      656C7461 
 2941      00
 2942              	.LASF52:
 2943 05cc 63685F74 		.ascii	"ch_threads_list\000"
 2943      68726561 
 2943      64735F6C 
 2943      69737400 
 2944              	.LASF10:
 2945 05dc 6C6F6E67 		.ascii	"long unsigned int\000"
 2945      20756E73 
 2945      69676E65 
 2945      6420696E 
 2945      7400
 2946              	.LASF127:
 2947 05ee 63686172 		.ascii	"char\000"
 2947      00
 2948              	.LASF155:
 2949 05f3 706F6F6C 		.ascii	"pools1_setup\000"
 2949      73315F73 
 2949      65747570 
 2949      00
 2950              	.LASF29:
 2951 0600 74687265 		.ascii	"thread_t\000"
 2951      61645F74 
 2951      00
 2952              	.LASF103:
 2953 0609 62657374 		.ascii	"best\000"
 2953      00
 2954              	.LASF126:
 2955 060e 6D5F6E65 		.ascii	"m_next\000"
 2955      787400
 2956              	.LASF28:
 2957 0615 73797374 		.ascii	"systime_t\000"
 2957      696D655F 
 2957      7400
 2958              	.LASF46:
 2959 061f 705F7265 		.ascii	"p_realprio\000"
 2959      616C7072 
 2959      696F00
 2960              	.LASF63:
 2961 062a 76746675 		.ascii	"vtfunc_t\000"
 2961      6E635F74 
 2961      00
 2962              	.LASF9:
 2963 0633 5F5F7569 		.ascii	"__uint32_t\000"
 2963      6E743332 
 2963      5F7400
 2964              	.LASF76:
 2965 063e 70616E69 		.ascii	"panic_msg\000"
 2965      635F6D73 
 2965      6700
 2966              	.LASF101:
 2967 0648 6F666673 		.ascii	"offset\000"
 2967      657400
 2968              	.LASF123:
ARM GAS  /var/folders/c6/c789hm653lg9vtl73krp73tm0000gn/T//ccKhBMj9.s 			page 73


 2969 064f 63685F6D 		.ascii	"ch_mutex\000"
 2969      75746578 
 2969      00
 2970              	.LASF132:
 2971 0658 6D705F6E 		.ascii	"mp_next\000"
 2971      65787400 
 2972              	.LASF90:
 2973 0660 636F6E74 		.ascii	"context\000"
 2973      65787400 
 2974              	.LASF43:
 2975 0668 705F6D73 		.ascii	"p_msg\000"
 2975      6700
 2976              	.LASF18:
 2977 066e 7274636E 		.ascii	"rtcnt_t\000"
 2977      745F7400 
 2978              	.LASF129:
 2979 0676 6D656D67 		.ascii	"memgetfunc_t\000"
 2979      65746675 
 2979      6E635F74 
 2979      00
 2980              	.LASF70:
 2981 0683 76745F70 		.ascii	"vt_par\000"
 2981      617200
 2982              	.LASF53:
 2983 068a 74687265 		.ascii	"threads_queue_t\000"
 2983      6164735F 
 2983      71756575 
 2983      655F7400 
 2984              	.LASF130:
 2985 069a 706F6F6C 		.ascii	"pool_header\000"
 2985      5F686561 
 2985      64657200 
 2986              	.LASF40:
 2987 06a6 705F7265 		.ascii	"p_refs\000"
 2987      667300
 2988              	.LASF77:
 2989 06ad 6973725F 		.ascii	"isr_cnt\000"
 2989      636E7400 
 2990              	.LASF82:
 2991 06b5 726C6973 		.ascii	"rlist\000"
 2991      7400
 2992              	.LASF14:
 2993 06bb 75696E74 		.ascii	"uint8_t\000"
 2993      385F7400 
 2994              	.LASF146:
 2995 06c3 6368506F 		.ascii	"chPoolAlloc\000"
 2995      6F6C416C 
 2995      6C6F6300 
 2996              	.LASF145:
 2997 06cf 6368506F 		.ascii	"chPoolFree\000"
 2997      6F6C4672 
 2997      656500
 2998              	.LASF115:
 2999 06da 77746F62 		.ascii	"wtobjp\000"
 2999      6A7000
 3000              	.LASF131:
 3001 06e1 70685F6E 		.ascii	"ph_next\000"
ARM GAS  /var/folders/c6/c789hm653lg9vtl73krp73tm0000gn/T//ccKhBMj9.s 			page 74


 3001      65787400 
 3002              	.LASF153:
 3003 06e9 6E756C6C 		.ascii	"null_provider\000"
 3003      5F70726F 
 3003      76696465 
 3003      7200
 3004              	.LASF154:
 3005 06f7 73697A65 		.ascii	"size\000"
 3005      00
 3006              	.LASF147:
 3007 06fc 5F746573 		.ascii	"_test_assert\000"
 3007      745F6173 
 3007      73657274 
 3007      00
 3008              	.LASF150:
 3009 0709 2E2E2F2E 		.ascii	"../../../test/rt/testpools.c\000"
 3009      2E2F2E2E 
 3009      2F746573 
 3009      742F7274 
 3009      2F746573 
 3010              	.LASF50:
 3011 0726 74687265 		.ascii	"threads_list_t\000"
 3011      6164735F 
 3011      6C697374 
 3011      5F7400
 3012              	.LASF79:
 3013 0735 74726163 		.ascii	"trace_buffer\000"
 3013      655F6275 
 3013      66666572 
 3013      00
 3014              	.LASF156:
 3015 0742 6368506F 		.ascii	"chPoolLoadArray\000"
 3015      6F6C4C6F 
 3015      61644172 
 3015      72617900 
 3016              	.LASF110:
 3017 0752 6D5F6372 		.ascii	"m_crit_thd\000"
 3017      69745F74 
 3017      686400
 3018              	.LASF125:
 3019 075d 6D5F6F77 		.ascii	"m_owner\000"
 3019      6E657200 
 3020              	.LASF94:
 3021 0765 73655F77 		.ascii	"se_wtobjp\000"
 3021      746F626A 
 3021      7000
 3022              	.LASF33:
 3023 076f 705F6374 		.ascii	"p_ctx\000"
 3023      7800
 3024              	.LASF69:
 3025 0775 76745F66 		.ascii	"vt_func\000"
 3025      756E6300 
 3026              	.LASF152:
 3027 077d 706F6F6C 		.ascii	"pools1_execute\000"
 3027      73315F65 
 3027      78656375 
 3027      746500
ARM GAS  /var/folders/c6/c789hm653lg9vtl73krp73tm0000gn/T//ccKhBMj9.s 			page 75


 3028              		.comm	__gnu_lto_v1,1,1
 3029              		.ident	"GCC: (GNU Tools for ARM Embedded Processors) 4.8.4 20140725 (release) [ARM/embedded-4_8-br
ARM GAS  /var/folders/c6/c789hm653lg9vtl73krp73tm0000gn/T//ccKhBMj9.s 			page 76


DEFINED SYMBOLS
                            *ABS*:0000000000000000 testpools.c
/var/folders/c6/c789hm653lg9vtl73krp73tm0000gn/T//ccKhBMj9.s:278    .text.null_provider:0000000000000000 $t
/var/folders/c6/c789hm653lg9vtl73krp73tm0000gn/T//ccKhBMj9.s:283    .text.null_provider:0000000000000000 null_provider
/var/folders/c6/c789hm653lg9vtl73krp73tm0000gn/T//ccKhBMj9.s:300    .text.pools1_setup:0000000000000000 $t
/var/folders/c6/c789hm653lg9vtl73krp73tm0000gn/T//ccKhBMj9.s:305    .text.pools1_setup:0000000000000000 pools1_setup
/var/folders/c6/c789hm653lg9vtl73krp73tm0000gn/T//ccKhBMj9.s:321    .text.pools1_setup:000000000000000c $d
/var/folders/c6/c789hm653lg9vtl73krp73tm0000gn/T//ccKhBMj9.s:326    .text.pools1_execute:0000000000000000 $t
/var/folders/c6/c789hm653lg9vtl73krp73tm0000gn/T//ccKhBMj9.s:331    .text.pools1_execute:0000000000000000 pools1_execute
/var/folders/c6/c789hm653lg9vtl73krp73tm0000gn/T//ccKhBMj9.s:470    .text.pools1_execute:00000000000000b4 $d
/var/folders/c6/c789hm653lg9vtl73krp73tm0000gn/T//ccKhBMj9.s:488    .rodata.patternpools:0000000000000000 patternpools
/var/folders/c6/c789hm653lg9vtl73krp73tm0000gn/T//ccKhBMj9.s:504    .rodata.testpools1:0000000000000000 testpools1
/var/folders/c6/c789hm653lg9vtl73krp73tm0000gn/T//ccKhBMj9.s:481    .rodata.str1.4:0000000000000000 $d
/var/folders/c6/c789hm653lg9vtl73krp73tm0000gn/T//ccKhBMj9.s:485    .rodata.patternpools:0000000000000000 $d
/var/folders/c6/c789hm653lg9vtl73krp73tm0000gn/T//ccKhBMj9.s:492    .data.mp1:0000000000000000 $d
/var/folders/c6/c789hm653lg9vtl73krp73tm0000gn/T//ccKhBMj9.s:496    .data.mp1:0000000000000000 mp1
/var/folders/c6/c789hm653lg9vtl73krp73tm0000gn/T//ccKhBMj9.s:501    .rodata.testpools1:0000000000000000 $d
                            *COM*:0000000000000001 __gnu_lto_v1
                     .debug_frame:0000000000000010 $d

UNDEFINED SYMBOLS
chPoolObjectInit
chPoolLoadArray
chPoolAlloc
_test_assert
chPoolFree
wa
