ARM GAS  /var/folders/c6/c789hm653lg9vtl73krp73tm0000gn/T//ccUdz7k8.s 			page 1


   1              		.syntax unified
   2              		.cpu cortex-m4
   3              		.fpu softvfp
   4              		.eabi_attribute 20, 1
   5              		.eabi_attribute 21, 1
   6              		.eabi_attribute 23, 3
   7              		.eabi_attribute 24, 1
   8              		.eabi_attribute 25, 1
   9              		.eabi_attribute 26, 1
  10              		.eabi_attribute 30, 2
  11              		.eabi_attribute 34, 1
  12              		.eabi_attribute 18, 4
  13              		.thumb
  14              		.file	"chcore_v7m.c"
  15              		.text
  16              	.Ltext0:
  17              		.section	.gnu.lto_.jmpfuncs.98c9d9f7c31a08fb,"",%progbits
  18 0000 789C6362 		.ascii	"x\234cb`b\300\006\270\24043\030\263\000I\000\001\302"
  18      6062C006 
  18      B8A03433 
  18      18B30049 
  18      0001C2
  19 0013 0019     		.ascii	"\000\031"
  20              		.text
  21              		.section	.gnu.lto_.inline.98c9d9f7c31a08fb,"",%progbits
  22 0000 789C6362 		.ascii	"x\234cb`b\300\006\334\24043\003\003\277\030#\003\223"
  22      6062C006 
  22      DCA03433 
  22      0303BF18 
  22      230393
  23 0013 C8851E46 		.ascii	"\310\205\036F\006\266\005\362`\325L\334`\031N\016\240"
  23      06B605F2 
  23      60D54CDC 
  23      60194E0E 
  23      A0
  24 0024 04CF8358 		.ascii	"\004\317\203X\2708\013\003\0277HhN$\\\210\221\013D\002"
  24      B8380B03 
  24      17374868 
  24      4E245C88 
  24      910B4402 
  25 0038 000FB806 		.ascii	"\000\017\270\006\321"
  25      D1
  26              		.text
  27              		.section	.gnu.lto_.pureconst.98c9d9f7c31a08fb,"",%progbits
  28 0000 789C6362 		.ascii	"x\234cb`b`g\200\000f\006+f+\026+\000\002\367\000\304"
  28      60626067 
  28      80006606 
  28      2B662B16 
  28      2B0002F7 
  29              		.text
  30              		.section	.gnu.lto__port_irq_epilogue.part.0.98c9d9f7c31a08fb,"",%progbits
  31 0000 789CAD52 		.ascii	"x\234\255RMHTQ\024>\347\276\037ur*Z\004B\310 \204E2"
  31      4D485451 
  31      143EE7BE 
  31      1F75722A 
  31      5A0442C8 
  32 0018 2F297015 		.ascii	"/)p\025\024F\320b(\034\205Z\325\370\232\364\221:\303"
ARM GAS  /var/folders/c6/c789hm653lg9vtl73krp73tm0000gn/T//ccUdz7k8.s 			page 2


  32      1446D062 
  32      281C855A 
  32      D5F89AF4 
  32      913AC3
  33 002b CC185690 		.ascii	"\314\030V\220w~ 1B\031\024R+\034\350\307l!\021\204\320"
  33      777E2031 
  33      42191452 
  33      2B1CE8C7 
  33      6C211184 
  34 0040 662AA444 		.ascii	"f*\244D4ZEH4\273\010#\224hc?\323\271\367\315\033\307"
  34      345A4548 
  34      34BB0823 
  34      9468633F 
  34      D3B9F7CD 
  35 0056 0874D1E1 		.ascii	"\010t\321\341\315=o\3569\337\367\335\373\235\307\200"
  35      CD3D6FEE 
  35      39DFF7DD 
  35      FB9DC780 
  36 0066 C1DF7194 		.ascii	"\301\337q\224~\255*@\2062\226\001\352\203\013\364\242"
  36      7EAD2A40 
  36      86329601 
  36      EA830BF4 
  36      A2
  37 0077 23939931 		.ascii	"#\223\2311\245\257\026\270K\025k\245\202\232\330\215"
  37      A5AF16B8 
  37      4B156BA5 
  37      829AD88D 
  38 0087 97ABCE8B 		.ascii	"\227\253\316\213\206(^\000\241Wg\212\252a\357i\024\254"
  38      86285E00 
  38      A157678A 
  38      AA61EF69 
  38      14AC
  39 0099 6A0D6438 		.ascii	"j\015d8O\347f\236.\261\021\236Me\370\317|\036\321B:"
  39      4FE7669E 
  39      2EB1119E 
  39      4D65F8CF 
  39      7C1ED142 
  40 00ae 81816022 		.ascii	"\201\201`\"\234\242?\350\221\211\251\353\217$\261\243"
  40      9CA23FE8 
  40      9189A9EB 
  40      8F24B1A3 
  41 00be B90F9F07 		.ascii	"\271\017\237\007\364\221\241lj\274\210\205\315\000\323"
  41      F491A16C 
  41      6ABC8885 
  41      CD00D3
  42 00cd D95FAF6E 		.ascii	"\331_\257nU\361\361\304 \377M8\013\025\006g7%\231\316"
  42      55F1F1C4 
  42      20FF4D38 
  42      0B150667 
  42      372599CE 
  43 00e1 BEEB1FA8 		.ascii	"\276\353\037\250\352_C\252\014\202\033!\247\030\317"
  43      EA5F43AA 
  43      0C821B21 
  43      A718CF
  44 00f0 E5F3EF9F 		.ascii	"\345\363\357\237TT\"\0040\2035t\303\000\336\245\254"
  44      54542204 
  44      30833574 
ARM GAS  /var/folders/c6/c789hm653lg9vtl73krp73tm0000gn/T//ccUdz7k8.s 			page 3


  44      C300DEA5 
  44      AC
  45 0101 14B24AF9 		.ascii	"\024\262J\371>e\015,\324\010\241A\212\363A\217\274\014"
  45      3E650D2C 
  45      D408A141 
  45      8AF3418F 
  45      BC0C
  46 0113 4533ADC2 		.ascii	"E3\255\302\303f\324EVZ\220\311\274\000\361\225\027\213"
  46      C366D445 
  46      565A90C9 
  46      BC00F195 
  46      178B
  47 0125 EE42B74D 		.ascii	"\356B\267M\355\200\263\317\276M\354\324\212T\266\016"
  47      ED80B3CF 
  47      BE4DECD4 
  47      8A54B60E 
  48 0135 90CE8454 		.ascii	"\220\316\204T fIMc\201\016E\014]\261'_\015\227o\363"
  48      2066494D 
  48      63810E45 
  48      0C5DB127 
  48      5F0D976F 
  49 014a 9B872D92 		.ascii	"\233\207-\222\242h+t\315Bb\231\224\002\370\220\320\266"
  49      A2682B74 
  49      CD426299 
  49      9402F890 
  49      D0B6
  50 015c 902CCD43 		.ascii	"\220,\315Cb\351%)\035\014\340#\252\264!\223\333\263"
  50      62E92529 
  50      1D0CE023 
  50      AAB42193 
  50      DBB3
  51 016e C0EC0D5B 		.ascii	"\300\354\015[\226\266Ek\362zri\250\312\351ThW\272E\336"
  51      96B6456B 
  51      F27A7269 
  51      A8CAE954 
  51      6857BA45 
  52 0183 E4B7C13F 		.ascii	"\344\267\301?@\212\344\237\236~\360\274P\330\007\223"
  52      408AE49F 
  52      9E7EF0BC 
  52      50D80793 
  53 0193 9CE28085 		.ascii	"\234\342\200\205ec0\032\347|\273\205\345\005\032\305"
  53      6563301A 
  53      E77CBB85 
  53      E5051AC5 
  54 01a3 A18156FB 		.ascii	"\241\201V\373\310r\024\025\324^\016\222\347krj\270\332"
  54      C8721415 
  54      D45E0E92 
  54      E76B726A 
  54      B8DA
  55 01b5 1157257B 		.ascii	"\021W%{Q\2610\333\357\327\346\220\247y|\231\230\344"
  55      51B130DB 
  55      EFD7E690 
  55      A7797C99 
  55      98E4
  56 01c7 777875A3 		.ascii	"wxu\243\321\022\023\300\002$V\322\037\335\305\2419\003"
  56      D11213C0 
  56      022456D2 
ARM GAS  /var/folders/c6/c789hm653lg9vtl73krp73tm0000gn/T//ccUdz7k8.s 			page 4


  56      1FDDC5A1 
  56      3903
  57 01d9 589CDC85 		.ascii	"X\234\334\205\001|\\\360]\350\230\310l\317\021n\340"
  57      017C5CF0 
  57      5DE898C8 
  57      6CCF116E 
  57      E0
  58 01ea 7AD7C7D0 		.ascii	"z\327\307\320\266\335U\244]\253\335\301\222\221\000"
  58      B6DD55A4 
  58      5DABDDC1 
  58      929100
  59 01f9 BC81646E 		.ascii	"\274\201dnjf\207s\027\355\012\254\362>\341\305\026S"
  59      6A668773 
  59      17ED0AAC 
  59      F23EE1C5 
  59      1653
  60 020b DC8AC2C2 		.ascii	"\334\212\302\302J\200\327\220\372\022\257/v\211\343"
  60      4A80D790 
  60      FA12AF2F 
  60      7689E3
  61 021a 6BA5676F 		.ascii	"k\245go\241\346\276Z\205\254YM~\032\336\263\316\342"
  61      A1E6BE5A 
  61      85AC594D 
  61      7E1ADEB3 
  61      CEE2
  62 022c 868D2CB6 		.ascii	"\206\215,\266=\266\225\371%\013\335&\252%\314j\221\371"
  62      3DB695F9 
  62      250BDD26 
  62      AA25CC6A 
  62      91F9
  63 023e C77F60D6 		.ascii	"\307\177`\326J\2305\371\345\277\205xn\356\036\332\314"
  63      4A9835F9 
  63      E5BF8578 
  63      6EEE1EDA 
  63      CC
  64 024f 4E341396 		.ascii	"N4\023\226\212\302\264:\257\327\260\237P\324\010\366"
  64      8AC2B43A 
  64      AFD7B09F 
  64      50D408F6 
  65 025f C48C469F 		.ascii	"\304\214F\237\377\270\337\260\272\314\216\356sA\303"
  65      FFB8DFB0 
  65      BACC8EEE 
  65      7341C3
  66 026e 0C458267 		.ascii	"\014E\202g\314\316c\335]\246\267\035\364H0\332\335\021"
  66      CCCE63DD 
  66      5DA6B71D 
  66      F44830DA 
  66      DD11
  67 0280 DB5B8A89 		.ascii	"\333[\212\211\304\214p(\022\213\032G\232|\215\276\036"
  67      C48C7028 
  67      128B1A47 
  67      9A7C8DBE 
  67      1E
  68 0291 C36C9798 		.ascii	"\303l\227\230\213\015\235^\023T3\326\023\326\305\342"
  68      8B0D9D5E 
  68      135433D6 
  68      13D6C5E2 
ARM GAS  /var/folders/c6/c789hm653lg9vtl73krp73tm0000gn/T//ccUdz7k8.s 			page 5


  69 02a1 AD77FB9A 		.ascii	"\255w\373\232\374\236\335\373\353<\341h\330\005\312"
  69      FC9EDDFB 
  69      EB3CE168 
  69      D805CA
  70 02b0 A1086C8D 		.ascii	"\241\010l\215\205\302'\316\237\214\204L\177,`^p\373"
  70      85C227CE 
  70      9F8C844C 
  70      7F2C605E 
  70      70FB
  71 02c2 FC4DA258 		.ascii	"\374M\242XG].`\021P\242a\370\003\215%BG"
  71      475D2E60 
  71      1150A261 
  71      F8038D25 
  71      4247
  72              		.text
  73              		.section	.gnu.lto_SVC_Handler.98c9d9f7c31a08fb,"",%progbits
  74 0000 789C8D52 		.ascii	"x\234\215RMh\023Q\020\236y\273\333\204h\375\271Y\220"
  74      4D681351 
  74      109E79BB 
  74      DB8468FD 
  74      B95990
  75 0013 1A2A8242 		.ascii	"\032*\202B\314\026<x\022\224\202\340!(M\005=I\\\327"
  75      CC163C78 
  75      129482E0 
  75      21284D05 
  75      3D495CD7 
  76 0027 369834CB 		.ascii	"6\2304\313fS\252\007\373\362s\020R!-\365\247H\245E\304"
  76      6653AA07 
  76      FBF27310 
  76      52212DF5 
  76      A748A545 
  77 003c 42516F45 		.ascii	"BQoE\020$\"\250\305\266\242\340AzI)\"*\210\321K\017"
  77      102422A8 
  77      C5B6A2E0 
  77      417A4929 
  77      222A88D1 
  78 0052 D5F5FD24 		.ascii	"\325\365\375$\233\266\210\355\260ogwf\276\357\315|\357"
  78      9BB688ED 
  78      B06F6777 
  78      66BEEFCD 
  78      7CEF
  79 0064 1120B0DE 		.ascii	"\021 \260\336Z\330\232T\000\2762\217\012 )\315\003d"
  79      5AD89A54 
  79      00BE328F 
  79      0A2029CD 
  79      0364
  80 0076 FD04917F 		.ascii	"\375\004\221\177\000\302\000\301\201\263\310K\2256\230"
  80      00C200C1 
  80      81B3C84B 
  80      953698
  81 0085 A074B8F2 		.ascii	"\240t\270\362\351s\005GG\312\205q\272\342\272\210qd"
  81      E9730547 
  81      47CA8571 
  81      BAE2BA88 
  81      7164
  82 0097 B4210403 		.ascii	"\264!\004\003\341\014\373\301\240pD]\273\217\304\226"
  82      E10CFBC1 
ARM GAS  /var/folders/c6/c789hm653lg9vtl73krp73tm0000gn/T//ccUdz7k8.s 			page 6


  82      A070445D 
  82      BB8FC496 
  83 00a7 875EDE6A 		.ascii	"\207^\336j\241\343\271\022\375\303\240qT\010\034\332"
  83      A1E3B912 
  83      FDC3A071 
  83      54081CDA 
  84 00b7 1CB252FD 		.ascii	"\034\262R\3752}p\224\226\013\023\365]U\002\346F\330"
  84      327D7094 
  84      960B13F5 
  84      5D5502E6 
  84      46D8
  85 00c9 C7A45C71 		.ascii	"\307\244\\q\335G+\213\213S\2703\240@\014\357a\033\250"
  85      DD472B8B 
  85      8B53B833 
  85      A0400CEF 
  85      611BA8
  86 00dc 35AF313F 		.ascii	"5\2571?\301\274\237\371\373\3143\323\240@i)(\363\300"
  86      C1BC9FF9 
  86      FBCC33D3 
  86      A0406929 
  86      28F3C0
  87 00ef D99975B1 		.ascii	"\331\231u\2617W\3434\022\356\225y\310V\227\237,\240"
  87      3757E334 
  87      12EE9579 
  87      C856979F 
  87      2CA0
  88 0101 572CC1F2 		.ascii	"W,\301\362\267\\\234\035\332\002\214\361\001\313\033"
  88      B75C9C1D 
  88      DA028CF1 
  88      01CB1B
  89 0110 2808988C 		.ascii	"(\010\230\214\220P\270\372\212<\202V\2702Fo\037\215"
  89      9050B8FA 
  89      8A3C8256 
  89      B832466F 
  89      1F8D
  90 0122 B31266DD 		.ascii	"\263\022f\335\350\027U3\220\373\301yc8\211Z\255'\221"
  90      E8175533 
  90      90FBC179 
  90      6338895A 
  90      AD2791
  91 0135 9B83DCB7 		.ascii	"\233\203\334\267\027\305\331\254\"Y\273Q\021\341\031"
  91      17C5D9AC 
  91      2259BB51 
  91      11E119
  92 0144 203220DB 		.ascii	" 2 \333ea^\232/\346\177\015\372\352\225*\213\012e\202"
  92      65615E9A 
  92      2FE67F0D 
  92      FAEA952A 
  92      8B0A6582 
  93 0158 F00F802A 		.ascii	"\360\017\200*\270\277\347\335\301\335u\200&\242^e\355"
  93      B8BFE7DD 
  93      C1DD7580 
  93      26A25E65 
  93      ED
  94 0169 DC7E7FDC 		.ascii	"\334~\177\334Z\312^\243\256; \204\277\272\221\360\335"
  94      5ACA5EA3 
  94      AE3B2084 
ARM GAS  /var/folders/c6/c789hm653lg9vtl73krp73tm0000gn/T//ccUdz7k8.s 			page 7


  94      BFBA91F0 
  94      DD
  95 017a 7CB279C8 		.ascii	"|\262y\310U\227\177z:y\012\275y\373\234M\362P\210V\327"
  95      55977F7A 
  95      3A790ABD 
  95      79FB9C4D 
  95      F2508856 
  96 018f 89489910 		.ascii	"\211H\231\020\256\343Z\241\356\240T\252\311\243m\344"
  96      AEE35AA1 
  96      EEA054AA 
  96      C9A36DE4 
  97 019f EEE22A15 		.ascii	"\356\342*\025\205~~\357\276\334(\316\275\302\341<}M"
  97      857E7EEF 
  97      BEDC28CE 
  97      BDC2E13C 
  97      7D4D
  98 01b1 0B657661 		.ascii	"\013eva\366\210\276gq\243\306yL\204D\363#K\273\3267"
  98      F688BE67 
  98      71A3C679 
  98      4C8444F3 
  98      234BBBD6 
  99 01c6 3F75736C 		.ascii	"?usl\373\376\030N\257:r\372\364Yk\343\370?T\265\306"
  99      FBFE184E 
  99      AF3A72FA 
  99      F4596BE3 
  99      F83F54B5 
 100 01db 580A5B2A 		.ascii	"X\012[*[Z}\274\367\377\033\317\333\274\221_\252\345"
 100      5B5A7DBC 
 100      F7FF1BCF 
 100      DBBC915F 
 100      AAE5
 101 01ed 7DB2BD77 		.ascii	"}\262\275w\220\255L\355\225\354u\353bC\261k\311\001"
 101      90AD4CED 
 101      95EC75EB 
 101      6243B16B 
 101      C901
 102 01ff 07C2615D 		.ascii	"\007\302a]>\251\264n;\272\225\262\235\264~\2543\322"
 102      3EA9B46E 
 102      3BBA95B2 
 102      9DB47EAC 
 102      33D2
 103 0211 11E9D78D 		.ascii	"\021\351\327\215\036#e\233\347\372\016'\303\0064\031"
 103      1E23659B 
 103      E7FA0E27 
 103      C3063419 
 104 0221 4EBF156E 		.ascii	"N\277\025nW\271\013\255F\231\375\216\336\021\211\236"
 104      57B90BAD 
 104      4699FD8E 
 104      DE11899E 
 105 0231 88EAF15E 		.ascii	"\210\352\361^#\221\271`\352\002e$\217gz\215p\0174\331"
 105      2391B960 
 105      EA026524 
 105      8F677A8D 
 105      700F34D9 
 106 0245 663A9370 		.ascii	"f:\223p\232#\235\321\340\276\366P\320J[\001P\216\330"
 106      9A239DD1 
 106      E0BEF650 
ARM GAS  /var/folders/c6/c789hm653lg9vtl73krp73tm0000gn/T//ccUdz7k8.s 			page 8


 106      D04A5B01 
 106      508ED8
 107 0258 B0CD4959 		.ascii	"\260\315IY'/\236\262SF\324\211\031\227\232#\321N\236"
 107      272F9EB2 
 107      5346D489 
 107      19979A23 
 107      D14E9E
 108 026b 0CB1AA00 		.ascii	"\014\261\252\000\020\033\224\264\265\351\376z@\353\213"
 108      101B94B4 
 108      B5E9FE7A 
 108      40EB8B
 109 027a 2532E60E 		.ascii	"%2\346\016Nr>\2266-;\316\211\300\2274\223)\3732\374"
 109      4E723E96 
 109      362D3BCE 
 109      89C09734 
 109      9329FB32 
 110 028f 05CDFB1E 		.ascii	"\005\315\373\036\212"
 110      8A
 111              		.text
 112              		.section	.gnu.lto__port_irq_epilogue.98c9d9f7c31a08fb,"",%progbits
 113 0000 789C8D52 		.ascii	"x\234\215RMh\023A\024~of\267]k\225\\,\010\022B\301\203"
 113      4D681341 
 113      147E6F66 
 113      B75D6B95 
 113      5C2C0812 
 114 0017 18B2DE72 		.ascii	"\030\262\336r\360\242\024\004\017\2714\255\350I\266"
 114      F0A21404 
 114      0FB934AD 
 114      E849B6
 115 0026 EB62179A 		.ascii	"\353b\027\232&l\222\022\361\320\311\317A\321C\360\344"
 115      266C9212 
 115      F1D0C9CF 
 115      41D143F0 
 115      E4
 116 0037 5FB1557A 		.ascii	"_\261Uzh)*^T\032%\350\241Ji\245\320\203\364\224\223"
 116      68292A5E 
 116      541A25E8 
 116      A14A69A5 
 116      D083F494 
 117 004c A0144AD5 		.ascii	"\240\024J\325\213E\033\337\3546\3536\210\365\2613ov"
 117      8B451BDF 
 117      EC36EB36 
 117      88F5B133 
 117      6F76
 118 005e DE7BDFFB 		.ascii	"\336{\337\373\371\206\001\203v9I\353\020\007\230!\215"
 118      F9860183 
 118      763949EB 
 118      10079821 
 118      8D
 119 006f 1D80ACBA 		.ascii	"\035\200\254\272\014P\324\030\343\253= \272\224Z\034"
 119      0C50D418 
 119      E3AB3D20 
 119      BA945A1C 
 120 007f 44374755 		.ascii	"D7GU^\243\342\351\242\246\"\312\003 \2143\256\2508~"
 120      5EA3E2E9 
 120      A2A622CA 
 120      03208C33 
ARM GAS  /var/folders/c6/c789hm653lg9vtl73krp73tm0000gn/T//ccUdz7k8.s 			page 9


 120      AEA8387E 
 121 0093 015DB427 		.ascii	"\001]\264'\254\336h6\037\177_x\260\216s\254\233\203"
 121      ACDE6836 
 121      1F7F5F78 
 121      B08E73AC 
 121      9B83
 122 00a5 8DA0C88D 		.ascii	"\215\240\310\215D\205\212\020\325\010\200\351\376\016"
 122      44858A10 
 122      D50880E9 
 122      FE0E
 123 00b3 D02E3106 		.ascii	"\320.1\006\221I\315\337CI\003\350\205)!n5^n>\217\336"
 123      9149CDDF 
 123      434903E8 
 123      8529216E 
 123      355E6E3E 
 124 00c9 11F5CAA4 		.ascii	"\021\365\312\244\370\331l\"\332HN\347PF\236\247\037"
 124      F8D96C22 
 124      DA484EE7 
 124      50469EA7 
 124      1F
 125 00da 16711557 		.ascii	"\026q\025Wv\267\"\357\220\360a\031J\233\265\267\317"
 125      76B722EF 
 125      90F06119 
 125      4A9BB5B7 
 125      CF
 126 00eb 6E723FA5 		.ascii	"nr?\245w\250\177\333\332\0101\003\037b\257_\217\330"
 126      77A87FDB 
 126      DA083103 
 126      1F62AF5F 
 126      8FD8
 127 00fd 7875C4B7 		.ascii	"xu\304\267\337\330^Q\001\014\234B\225r\311|\214\026"
 127      DFD85E51 
 127      010C9C42 
 127      9572C97C 
 127      8C16
 128 010f 07B75384 		.ascii	"\007\267S\204\353t\244\011ro\214a\270\213\023\342\366"
 128      EB74A409 
 128      726F8C61 
 128      B88B13E2 
 128      F6
 129 0120 291B955D 		.ascii	")\033\225]\331\377\330'v\354\252W\337\022\274Y{\321"
 129      D9FFD827 
 129      76ECAA57 
 129      DF12BC59 
 129      7BD1
 130 0132 FC881EFE 		.ascii	"\374\210\036\376e\344\307aVT(\254\343\036A\331\330)"
 130      65E4C761 
 130      565428AC 
 130      E31E41D9 
 130      D829
 131 0144 2134B156 		.ascii	"!4\261V\026\007]4\315\215\032\302V\177KP\236/\317\372"
 131      16075D34 
 131      CD8D1AC2 
 131      567F4B50 
 131      9E2FCFFA 
 132 0158 E10A2148 		.ascii	"\341\012!H7\020!2\276\203\312z\361\200os\015A\031\244"
 132      37102132 
ARM GAS  /var/folders/c6/c789hm653lg9vtl73krp73tm0000gn/T//ccUdz7k8.s 			page 10


 132      BE83CA7A 
 132      F1806F73 
 132      0D4119A4 
 133 016c DA577BF8 		.ascii	"\332W{\370\007(k\236\023\300U\330\022\327D\310\306}"
 133      07286B9E 
 133      13C055D8 
 133      12D744C8 
 133      C67D
 134 017e A6D70211 		.ascii	"\246\327\002\021\325\325\362V\240\026o\343\344s\255"
 134      D5D5F256 
 134      A0166FE3 
 134      E473AD
 135 018d 8D13031F 		.ascii	"\215\023\003\037\271\003\332\223\024\370')_~HR\236\006"
 135      B903DA93 
 135      14F82729 
 135      5F7E4852 
 135      9E06
 136 019f 49997F1D 		.ascii	"I\231\177\035\366\355\213\237\276\006H\221\253\343/"
 136      F6ED8B9F 
 136      BE064891 
 136      ABE32F
 137 01ae A4183843 		.ascii	"\244\0308C\007?[\213\004\003\3470\034\234\202\352>\266"
 137      073F5B8B 
 137      0403E730 
 137      1C9C82EA 
 137      3EB6
 138 01c0 15283616 		.ascii	"\025(6\026\247q\247\024\257\301\372\257\205\373\207"
 138      A771A714 
 138      AFC1FAAF 
 138      85FB87
 139 01cf C564A92A 		.ascii	"\305d\251*\266\251?\033\3673\230\306\275\336\\\253\260"
 139      B6A93F1B 
 139      F73398C6 
 139      BDDE5CAB 
 139      B0
 140 01e0 800C5010 		.ascii	"\200\014P\020\345\220\351\217\305b\272\367\245\263\272"
 140      E590E98F 
 140      C562BAF7 
 140      A5B3BA
 141 01ef 93D33369 		.ascii	"\223\3233i'\227\325O\367'\372\022\005\335\0346\323\216"
 141      2797D54F 
 141      F727FA12 
 141      05DD1C36 
 141      D38E
 142 0201 75712C9E 		.ascii	"uq,\236\212\231\377\3559\014\352\2301\222\267\242A\177"
 142      8A99FFED 
 142      390CEA98 
 142      3192B7A2 
 142      417F
 143 0213 AB90D3FB 		.ascii	"\253\220\323\373\022\311\263I\335\0365G\362\227,\335"
 143      12C9B349 
 143      DD1E3547 
 143      F2972CDD 
 144 0223 F5375367 		.ascii	"\3657Sg\362\243&\205\204\022\311\376\310\220\221\265"
 144      F2A32685 
 144      8412C9FE 
 144      C89091B5 
ARM GAS  /var/folders/c6/c789hm653lg9vtl73krp73tm0000gn/T//ccUdz7k8.s 			page 11


 145 0233 328E1D8D 		.ascii	"2\216\035\215\034=\001\314\201\316\224\225J;W@1s\205"
 145      1C3D01CC 
 145      81CE9495 
 145      4A3B5740 
 145      317385
 146 0246 CC6FE89B 		.ascii	"\314o\350\233\356e"
 146      EE65
 147              		.text
 148              		.section	.gnu.lto_.symbol_nodes.98c9d9f7c31a08fb,"",%progbits
 149 0000 789C45CA 		.ascii	"x\234E\312\271\015\2000\024\004\321\335o\273\0162j\243"
 149      B90D8030 
 149      1404D1DD 
 149      6FBB0E32 
 149      6AA3
 150 0012 8B350972 		.ascii	"\2135\011rH\003& \243\016r\272\340\222\0205\020`\301"
 150      48032620 
 150      A30E72BA 
 150      E0921035 
 150      1060C1
 151 0025 644F1A83 		.ascii	"dO\032\203\241A\311n\012\350\027@\312\211<(\276\214"
 151      A141C96E 
 151      0AE81740 
 151      CA893C28 
 151      BE8C
 152 0037 2D7952F6 		.ascii	"-yR\366\311V\312\225uH\264\215\362?\271S\241\274\221"
 152      C956CA95 
 152      7548B48D 
 152      F23FB953 
 152      A1BC91
 153 004a 0E017377 		.ascii	"\016\001swU\316\003\343T\343\001\310\242\037\356"
 153      55CE03E3 
 153      54E301C8 
 153      A21FEE
 154              		.text
 155              		.section	.gnu.lto_.refs.98c9d9f7c31a08fb,"",%progbits
 156 0000 789C6362 		.ascii	"x\234cb`b`g\200\000&\006&F&&\006\000\000\352\000\025"
 156      60626067 
 156      80002606 
 156      26462626 
 156      060000EA 
 157              		.text
 158              		.section	.gnu.lto_.decls.98c9d9f7c31a08fb,"",%progbits
 159 0000 789CAD58 		.ascii	"x\234\255X}l\024\307\025\237\331;\177\\\3558\204&\221"
 159      7D6C14C7 
 159      159FD93B 
 159      7F5CED38 
 159      842691
 160 0013 FD17875A 		.ascii	"\375\027\207Z\252&\015>CR\325\225Z\300\234\241\266T"
 160      AA260D3E 
 160      4352D595 
 160      5AC09CA1 
 160      B654
 161 0025 37A7BB40 		.ascii	"7\247\273@\253\250\322\262=\037\334)\347;\263\267\016"
 161      ABA8D2B2 
 161      3D1FDC29 
 161      E73BB3B7 
 161      0E
ARM GAS  /var/folders/c6/c789hm653lg9vtl73krp73tm0000gn/T//ccUdz7k8.s 			page 12


 162 0036 44AAC4DA 		.ascii	"D\252\304\332\347\270\024\321\366\354\020\344D)\034"
 162      E7B814D1 
 162      F6EC10E4 
 162      44291C
 163 0045 1F494C08 		.ascii	"\037IL\010\204\030\032\323\360u A\250\"\241\246\011"
 163      84181AD3 
 163      F0752041 
 163      A822A1A6 
 163      09
 164 0056 31C1062E 		.ascii	"1\301\006.uD\245\022ZS,D,\354\353\233\331\335\273\331"
 164      7544A512 
 164      5A532C44 
 164      2CECEB9B 
 164      D9DDBBD9 
 165 006a F52EDE8B 		.ascii	"\365.\336\213\262\342=\317\355\316\374\336\357\275y"
 165      B2E23DCF 
 165      EDCEFCDE 
 165      EFBD79
 166 0079 33F3060E 		.ascii	"3\363\006\016q\350\267\030\241\034<\227j\020\332\344"
 166      71E8B718 
 166      A11C3C97 
 166      6A10DAE4 
 167 0089 40C88910 		.ascii	"@\310\211\020Z\202\012O)\310.\2207@\366\201\354\007"
 167      5A820A4F 
 167      29C82E90 
 167      3740F681 
 167      EC07
 168 009b 3908F22E 		.ascii	"9\010\362.\232\371\220~U C\352\337J\220\023 e \207A"
 168      9AF9907E 
 168      552043EA 
 168      DF4A9013 
 168      20652087 
 169 00b0 3E013903 		.ascii	">\0019\003r\022d)\310g # \203 \243 \034\310?@\376\316"
 169      72126429 
 169      C8672023 
 169      208320A3 
 169      201CC83F 
 170 00c7 D8BD0232 		.ascii	"\330\275\0022\246\332\3238\030\037\302\251\\\265\303"
 170      A6DAD338 
 170      181FC2A9 
 170      5CB5C3
 171 00d6 DA1D526D 		.ascii	"\332\035Rm\022;7\030\177\3663\2707A\306An\233\340\036"
 171      123B3718 
 171      7FF633B8 
 171      3741C641 
 171      6E9BE01E 
 172 00ea 54B1CA0C 		.ascii	"T\261\312\014>ix_\201L\202\374\004b\370S\220\335\252"
 172      3E69785F 
 172      814C82FC 
 172      0462F853 
 172      90DDAA
 173 00fd 5D4C7CC1 		.ascii	"]L|\301\3128\202\261\004\332\015X\261\261\213\261i|"
 173      CA3882B1 
 173      04DA0D58 
 173      B1B18BB1 
 173      697C
 174 010f E6A11D72 		.ascii	"\346\241\035r&\233=;}\250fs\272+\223\313-E\217\242\227"
ARM GAS  /var/folders/c6/c789hm653lg9vtl73krp73tm0000gn/T//ccUdz7k8.s 			page 13


 174      269B3D3B 
 174      7DA86673 
 174      BA2B93CB 
 174      2D458FA2 
 175 0124 6578D23D 		.ascii	"ex\322=\262\214%\001/y\004\375\012\013\270\312\205\334"
 175      B28C2501 
 175      2F7904FD 
 175      0A0BB8CA 
 175      85DC
 176 0136 B451E9A2 		.ascii	"\264Q\351\242\023\206\220\200w\343G\325\326*\207\002"
 176      13869080 
 176      77E347D5 
 176      D62A8702 
 177 0146 C7A12730 		.ascii	"\307\241'0z\034\355\203\361)Y>\363\035lb\022\241\357"
 177      7A1CED83 
 177      F129593E 
 177      F31D6C62 
 177      12A1EF
 178 0159 A1D7E9F7 		.ascii	"\241\327\351\367\001\331A\361\011\302.<\217\355\"\340"
 178      01D941F1 
 178      09C22E3C 
 178      8FED22E0 
 179 0169 3D983312 		.ascii	"=\2303\022\315\246\262\307\316}\371\"\356M\246\317\313"
 179      CDA6B2C7 
 179      CE7DF922 
 179      EE4DA6CF 
 179      CB
 180 017a E3B9DC83 		.ascii	"\343\271\334\203Ep}\323\204\353\006\014?\367\342\307"
 180      45707DD3 
 180      84EB060C 
 180      3FF7E2C7 
 181 018a 91DEF280 		.ascii	"\221\336\362\200\231\345\314\221\341\2552Nufs\271y\012"
 181      99E5CC91 
 181      E1AD324E 
 181      756673B9 
 181      790A
 182 019c 1A87FE80 		.ascii	"\032\207\376\200\315\001\336\232\011\220\206\030\357"
 182      CD01DE9A 
 182      09908618 
 182      EF
 183 01a9 FC10CB7D 		.ascii	"\374\020\313}\362\275\\\316\2014\204]3\020hld}l\366"
 183      F2BD5CCE 
 183      8134845D 
 183      3310686C 
 183      647D6CF6 
 184 01bd 1B63F3B6 		.ascii	"\033c\363\266\231\201\314\304\007\225\224\337\316e\032"
 184      9981CCC4 
 184      079594DF 
 184      CE651A
 185 01cc FC015BF0 		.ascii	"\374\001[\360\007\215\360\357\230\206\276\367\217\243"
 185      078DF0EF 
 185      9886BEF7 
 185      8FA3
 186 01da D5FD8372 		.ascii	"\325\375\203r\367\357\345\351\334&\254\213|9\372\235"
 186      F7EFE5E9 
 186      DC26AC8B 
 186      7C39FA9D 
ARM GAS  /var/folders/c6/c789hm653lg9vtl73krp73tm0000gn/T//ccUdz7k8.s 			page 14


 187 01ea 2C77C9D9 		.ascii	",w\311\331\027\345N\274\036isP\256\315\001\311\202\005"
 187      17E54EBC 
 187      1E697350 
 187      AECD01C9 
 187      8205
 188 01fc 68AF9214 		.ascii	"h\257\222\024\234\200\017\343r \36796\317\016\244t "
 188      9C800FE3 
 188      7220F739 
 188      36CF0EA4 
 188      7420
 189 020e 0F19AFB4 		.ascii	"\017\031\257\264\265\026F\2263<h2\303\377\262\230\241"
 189      B5164696 
 189      333C6832 
 189      C3FFB298 
 189      A1
 190 021f F7F41EBA 		.ascii	"\367\364\036\272\320f\302\037\234i:_en\201\362Oe_\352"
 190      D066C21F 
 190      9C693A5F 
 190      656E81F2 
 190      4F655FEA 
 191 0233 3B7B1A77 		.ascii	";{\032w\201\317\002\036\302.\260p\201\323[\260\017u"
 191      81CF021E 
 191      C22EB070 
 191      81D35BB0 
 191      0F75
 192 0245 6DFBF11F 		.ascii	"m\373\361\037\313r\271\200\337\247@G\034z \001\227\271"
 192      CB72B980 
 192      DFA74047 
 192      1C7A2001 
 192      97B9
 193 0257 F4A4E1B7 		.ascii	"\364\244\341\267\326\201\240\321\317j\203l\247\017\242"
 193      D681A0D1 
 193      CF6A836C 
 193      A70FA2
 194 0266 62BB57A0 		.ascii	"b\273W\240-\005\256sQ/\231P7\303Z\3464\332n\032\315"
 194      2D05AE73 
 194      512F9950 
 194      37C35AE6 
 194      34DA6E1A 
 195 027b 5394E249 		.ascii	"S\224\342I<W\005V\346\024\326\344\247I\334IcB\276!\223"
 195      3C570556 
 195      E614D6E4 
 195      A749DC49 
 195      6342BE21 
 196 0290 88ABCF7C 		.ascii	"\210\253\317|\224\006\203\231+\027\266\325\310\3513"
 196      94068399 
 196      2B17B6D5 
 196      C8E933
 197 029f 5867DF72 		.ascii	"Xg\337r\365\252\341\032\272z\375\226j\205\214\344\320"
 197      F5AAE11A 
 197      BA7AFD96 
 197      6A858CE4 
 197      D0
 198 02b0 AD19015B 		.ascii	"\255\031\001[Z\241\217\000\374f:ph2\317\337\314\216"
 198      5AA18F00 
 198      FC663A70 
 198      6832CFDF 
ARM GAS  /var/folders/c6/c789hm653lg9vtl73krp73tm0000gn/T//ccUdz7k8.s 			page 15


 198      CC8E
 199 02c2 DA44F9CC 		.ascii	"\332D\371\314\253r\351y\203\243\303/\341\276\244|\276"
 199      AB72E979 
 199      83A3C32F 
 199      E1BEA47C 
 199      BE
 200 02d3 4EE33055 		.ascii	"N\3430U4\242[\027\211\361\013\225)A\003\223\2356\300"
 200      34A25B17 
 200      89F10B95 
 200      29410393 
 200      9D36C0
 201 02e6 CA2DE965 		.ascii	"\312-\351e\376\307\202%\213\006\3233\233`\301z\354\200"
 201      FEC78225 
 201      8B06D333 
 201      9B60C17A 
 201      EC80
 202 02f8 CDB16676 		.ascii	"\315\261fv\207\005\333R4\230\236\331]\026\254\327\016"
 202      8705DB52 
 202      34989ED9 
 202      5D16ACD7 
 202      0E
 203 0309 58B535B3 		.ascii	"X\2655\263I\026l[\321`nC\202[\355M'p>5\037B)\272\316"
 203      49166C5B 
 203      D1606E43 
 203      825BED4D 
 203      27703E35 
 204 0322 FAABD4AD 		.ascii	"\372\253\324\255\"\373\272\\]=\373\246y\221\356\022"
 204      22FBBA5C 
 204      5D3DFBA6 
 204      7991EE12 
 205 0332 AF382D37 		.ascii	"\2578-7M\322A\343\240\264\265V\256\260kVk\360\016u\324"
 205      4DD241E3 
 205      A0B4B556 
 205      AEB06B56 
 205      6BF00E75 
 206 0347 27F821DA 		.ascii	"'\370!\332\242d\344\374Z\204\036V\276\\b\354T\272\012"
 206      A264E4FC 
 206      5A841E56 
 206      BE5C62EC 
 206      54BA0A
 207 035a 0D6D4755 		.ascii	"\015mGU\035L/\353\257R\314\253@s\364\035\005\374Y\321"
 207      1D4C2FEB 
 207      AF52CCAB 
 207      4073F41D 
 207      05FC59D1 
 208 036e A62F5B98 		.ascii	"\246/[\230\326bb\330P\310\211`\0055R\230\021\303\250"
 208      D66262D8 
 208      50C88960 
 208      05355298 
 208      11C3A8
 209 0381 37EF336A 		.ascii	"7\3573j\2640\212VN\343\331\251\177f\332\246\006e\231"
 209      B4308A56 
 209      4EE3D9A9 
 209      7F66DAA6 
 209      066599
 210 0394 9E8A9DDD 		.ascii	"\236\212\235\335\363\015\025\311\020\266\366\346\252"
 210      F30D15C9 
ARM GAS  /var/folders/c6/c789hm653lg9vtl73krp73tm0000gn/T//ccUdz7k8.s 			page 16


 210      10B6F6E6 
 210      AA
 211 03a1 C981F5A1 		.ascii	"\311\201\365\241\223\335\324\034$V\034\272X\230tz~w"
 211      93DDD41C 
 211      24561CBA 
 211      5898747A 
 211      7E77
 212 03b3 C98303B2 		.ascii	"\311\203\003\262K\001'\303\257\300\001nn\204~\2766\363"
 212      4B0127C3 
 212      AFC0016E 
 212      6E847EBE 
 212      36F3
 213 03c5 38CF8C67 		.ascii	"8\317\214g\256\215\034\207M\230\224|\247\344\371N\373"
 213      AE8D1C87 
 213      4D98947C 
 213      A7E4F94E 
 213      FB
 214 03d6 85D4172A 		.ascii	"\205\324\027*k\2072\217\012\213\202\013\324\213\261"
 214      6B87328F 
 214      0A8B820B 
 214      D48BB1
 215 03e5 995E08F8 		.ascii	"\231^\010\370s\215\306w\321\036\031\012\241\277\236"
 215      738DC677 
 215      D11E190A 
 215      A1BF9E
 216 03f4 AB4CE58F 		.ascii	"\253L\345\217\321\233t\304\230\205#\232\253Z\371r\273"
 216      D19B74C4 
 216      9885239A 
 216      AB5AF972 
 216      BB
 217 0405 D3579D2F 		.ascii	"\323W\235/_\306\214\345\313u\275\277\205\005\247K\307"
 217      5FC68CE5 
 217      CB75BDBF 
 217      8505A74B 
 217      C7
 218 0416 7ACD4099 		.ascii	"z\315@\231:\354F\321\351\370\245E:\226\352S\344X\317"
 218      3AEC46D1 
 218      E9F8A545 
 218      3A96EA53 
 218      E458CF
 219 0429 F50FE8B1 		.ascii	"\365\017\350\261Ak\326t\271V\235\335s\332\251\316n\032"
 219      416BD674 
 219      B9569DDD 
 219      73DAA9CE 
 219      6E1A
 220 043b DDFB8FE9 		.ascii	"\335\373\217\351t\036\271\252\026\177\2319\032~o\211"
 220      741EB9AA 
 220      167F9939 
 220      1A7E6F89 
 221 044b 1DFC7123 		.ascii	"\035\374q#\376-3|\222\347[q\357;=2\261\262ig&\345TR"
 221      FE2D337C 
 221      92E75B71 
 221      EF3B3D32 
 221      B1B26967 
 222 0463 81437F2E 		.ascii	"\201C\177.\2611\331\037\261\223\275\237\216\270\375"
 222      B131D91F 
 222      B193BD9F 
ARM GAS  /var/folders/c6/c789hm653lg9vtl73krp73tm0000gn/T//ccUdz7k8.s 			page 17


 222      8EB8FD
 223 0472 7526FBB6 		.ascii	"u&\373\266\221\355\204I%\227\274o\371%\340\243x\201"
 223      91ED8449 
 223      2597BC6F 
 223      F925E0A3 
 223      7881
 224 0484 ADFAC8A4 		.ascii	"\255\372\310\244$\312\346\367\347\255\371\015:\225\375"
 224      24CAE6F7 
 224      E7ADF90D 
 224      3A95FD
 225 0493 F8C6DD70 		.ascii	"\370\306\335p\222\226&\223pxph\304\020\371\331\201\010"
 225      92962693 
 225      70787068 
 225      C410F9D9 
 225      8108
 226 04a5 AD294361 		.ascii	"\255)Ca\225\371h\270Rv*\357g)\252\266%3\027\207\225"
 226      95F968B8 
 226      52762AEF 
 226      6729AAB6 
 226      25331787 
 227 04ba A22A1F81 		.ascii	"\242*\037\201\3147\020\001\016}A]\231\372z5Sw2\363\351"
 227      CC371001 
 227      0E7D415D 
 227      99FA7A35 
 227      537732F3 
 228 04cf 303D60BF 		.ascii	"0=`\277\242\023\377\357\242\301\334:\260K,\330\177\355"
 228      A213FFEF 
 228      A2C1DC3A 
 228      B04B2CD8 
 228      7FED
 229 04e1 8059954B 		.ascii	"\200Y\225K\000v\231\005\233(\032L\317l\224\005\233\264"
 229      00769905 
 229      9B281A4C 
 229      CF6C9405 
 229      9BB4
 230 04f3 0366552E 		.ascii	"\003fU.\001\330U\026l\272h0\226Ygf\374\227\207\326\030"
 230      01D85516 
 230      6CBA6830 
 230      96596766 
 230      FC9787D6 
 231 0508 6A8E24AD 		.ascii	"j\216$\2559\372\013\3311\263\350 7\235\003?\200\353"
 231      39FA0BD9 
 231      31B3E820 
 231      379D033F 
 231      80EB
 232 051a 0953A458 		.ascii	"\011S\244X\015\020\360\2378\222NX\237N\371\022D\255"
 232      0D10F09F 
 232      38924E58 
 232      9F4EF912 
 232      44AD
 233 052c 4038D455 		.ascii	"@8\324UjzW\262A\346\332\366\035\365\364\256\324\307"
 233      6A7A57B2 
 233      41E6DAF6 
 233      1DF5F4AE 
 233      D4C7
 234 053e 91986C29 		.ascii	"\221\230l)5\226\376\330pW\232\205K1}UZk4Z\225t\030{"
 234      3596FED8 
ARM GAS  /var/folders/c6/c789hm653lg9vtl73krp73tm0000gn/T//ccUdz7k8.s 			page 18


 234      70579A85 
 234      4B317D55 
 234      5A6B345A 
 235 0556 AAA43897 		.ascii	"\252\2448\227E/\001\277\314\025{\252l\347\314O\225\012"
 235      452F01BF 
 235      CC157BAA 
 235      6CE7CC4F 
 235      950A
 236 0568 1D69AD17 		.ascii	"\035i\255\027)[K\015\031\242#1K\015\334\235\204\335"
 236      295B4B0D 
 236      19A22331 
 236      4B0DDC9D 
 236      84DD
 237 057a EB3CBF8F 		.ascii	"\353<\277\217\2240\245Z\316\365\033\021\315r\316m\275"
 237      9430A55A 
 237      CEF51B11 
 237      CD72CE6D 
 237      BD
 238 058b 1A26D804 		.ascii	"\032&\330\004\336a\007\354\373\326\253\341\016\013\266"
 238      DE6107EC 
 238      FBD6ABE1 
 238      0E0BB6
 239 059a A768303D 		.ascii	"\247h0=\263\273,\330\200\035\260:kf\223,\330\201\242"
 239      B3BB2CD8 
 239      801DB03A 
 239      6B66932C 
 239      D881A2
 240 05ad C1F4CCEE 		.ascii	"\301\364\314\356\261`\207\355\200\325[3\233f\301\216"
 240      B16087ED 
 240      80D55B33 
 240      9B66C18E 
 241 05bd 160DC630 		.ascii	"\026\015\3060\333\326\231I=\233\022\362E=I^\271\220"
 241      DBD69949 
 241      3D9B12F2 
 241      453D495E 
 241      B990
 242 05cf EFCBF47B 		.ascii	"\357\313\364{\243\256\033S\373\032\272\011x@]\026\205"
 242      A3AE1B53 
 242      FB1ABA09 
 242      78405D16 
 242      85
 243 05e0 9ADEF893 		.ascii	"\232\336\370\223C'\214\274u(js\231E\020\340D\354\273"
 243      43278CBC 
 243      75286A73 
 243      994510E0 
 243      44ECBB
 244 05f3 4C8320D3 		.ascii	"L\203 \323-\343\264\235 4Y\203mc\301\316\026\015\246"
 244      2DE3B49D 
 244      20345983 
 244      6D63C1CE 
 244      160DA6
 245 0606 8FE8F642 		.ascii	"\217\350\366BD\335\206\200\312X\277\247\263\335\230"
 245      44DD8680 
 245      CA58BFA7 
 245      B3DD98
 246 0615 801ABB09 		.ascii	"\200\032\273\011\370P\321\033\315\273\026\033M\241\222"
 246      F850D11B 
ARM GAS  /var/folders/c6/c789hm653lg9vtl73krp73tm0000gn/T//ccUdz7k8.s 			page 19


 246      CDBB161B 
 246      4DA192
 247 0624 677B81DB 		.ascii	"g{\201\333\1773\272\255g\2416}VA\354\314\364[\373\235"
 247      7F33BAAD 
 247      67A1367D 
 247      5641ECCC 
 247      F45BFB9D 
 248 0638 CE433D7C 		.ascii	"\316C=|?\277\215\335\004\374\227\242\375~\317\302\357"
 248      3FBF8DDD 
 248      04FC97A2 
 248      FD7ECFC2 
 248      EF
 249 0649 FC9549D7 		.ascii	"\374\225I\327\213\374\037\237\321o=\013\265\271\306"
 249      8BFC1F9F 
 249      D16F3D0B 
 249      B5B9C6
 250 0658 C26F28E4 		.ascii	"\302o(\344^}\226\344\016a\312\241\217m\201\265[$\017"
 250      5E7D96E4 
 250      0E61CAA1 
 250      8F6D81B5 
 250      5B240F
 251 066b ACEDD72E 		.ascii	"\254\355\327.3k\373\212\235L\334\214M\250\231=l\015"
 251      336BFB8A 
 251      9D4CDC8C 
 251      4DA8993D 
 251      6C0D
 252 067d 2AE0695A 		.ascii	"*\340iZ$\346\360|\320]\034\321\335T\367P\275\231\352"
 252      24E6F07C 
 252      D05D1CD1 
 252      DD54F750 
 252      BD99EA
 253 0690 2D546FA5 		.ascii	"-To\245\272\237\352W\251~\215\352\035T\247\251\336M"
 253      BA9FEA57 
 253      A97E8DEA 
 253      1D54A7A9 
 253      DE4D
 254 06a2 F55EAADF 		.ascii	"\365^\252\337\240\372-\252\337\246\372 \325\207\251"
 254      A0FA2DAA 
 254      DFA6FA20 
 254      D587A9
 255 06b1 3E4AF5FB 		.ascii	">J\365\373\240\363\217\341\212>i\341/\361\3408gu\261"
 255      A0F38FE1 
 255      8A3E69E1 
 255      2FF1E038 
 255      6775B1
 256 06c4 DF7D9F8B 		.ascii	"\337}\237\213\375\011\316x\261?vn\324\364\3266f\250"
 256      FD09CE78 
 256      B13F766E 
 256      D4F4D636 
 256      66A8
 257 06d6 3DCC6F55 		.ascii	"=\314oU'9\303=\345\024gvk\273;2\343\326v\307\026\376"
 257      2739C33D 
 257      E5146776 
 257      6BBB3B32 
 257      E3D676C7 
 258 06ec 6923FE19 		.ascii	"i#\376\031=>z\254\266\326\243\374\213'<\242\344i\217"
 258      3D3E7AAC 
ARM GAS  /var/folders/c6/c789hm653lg9vtl73krp73tm0000gn/T//ccUdz7k8.s 			page 20


 258      B6D6A3FC 
 258      8B273CA2 
 258      E4698F
 259 06ff 8B52C2D3 		.ascii	"\213R\302\323\340o\361\266l\364\004\303\301\270\030"
 259      E06FF1B6 
 259      6CF404C3 
 259      C1B818
 260 070e E29FFF51 		.ascii	"\342\237\377Q[m\020\325\360\344\033\037\021\327\363"
 260      5B6D10D5 
 260      F0E41B1F 
 260      11D7F3
 261 071d A1F64834 		.ascii	"\241\366H4\276\256#T\333.\210Rm]\351\317~\261\312\355"
 261      BEAE2354 
 261      DB2E8852 
 261      6D5DE9CF 
 261      7EB1CAED 
 262 0731 B50D1546 		.ascii	"\265\015\025F\217(P\211\015\021)\030\346\327\212\361"
 262      8F285089 
 262      0D112918 
 262      E6D78AF1 
 263 0741 363E9210 		.ascii	"6>\222\020\277\255\274\015m\214H\371w\025\201\325^\276"
 263      BFADBC0D 
 263      6D8C48F9 
 263      771581D5 
 263      5EBE
 264 0753 4988B546 		.ascii	"I\210\265FC\342\334\231\004\334\006\223\221X0\332\321"
 264      43E2DC99 
 264      04DC0693 
 264      915830DA 
 264      D1
 265 0764 1A026B89 		.ascii	"\032\002k\211`\270\025,\225\360\313\343\361hM0\034\010"
 265      60B8152C 
 265      95F0CBE3 
 265      F1684D30 
 265      1C08
 266 0776 869B133E 		.ascii	"\206\233\023>1\024jk\227\"\361\230?\264\276#\"\206Z"
 266      31146A6B 
 266      9722F198 
 266      3FB4BE23 
 266      22865A
 267 0789 7FEEE948 		.ascii	"\177\356\351H\210\236h<(D=\336P4*\210\236u\301\340B"
 267      889E683C 
 267      28443DDE 
 267      50342A88 
 267      9E75C1E0 
 268 079e 416C5B18 		.ascii	"Al[\030\213\307B\013C\302o\"\236\305u\213\236\252\253"
 268      8BC7420B 
 268      43C26F22 
 268      9EC5758B 
 268      9EAAAB
 269 07b1 AFFBA147 		.ascii	"\257\373\241G\377Z3\226\220Z#1\011\214\225w\300\337"
 269      FF5A3396 
 269      905A2331 
 269      098C9577 
 269      C0DF
 270 07c3 2717F3D2 		.ascii	"'\027\363\322\257\277\001\3246!\030\216\304"
 270      AFBF01D4 
ARM GAS  /var/folders/c6/c789hm653lg9vtl73krp73tm0000gn/T//ccUdz7k8.s 			page 21


 270      3621188E 
 270      C4
 271 07d0 421EBE35 		.ascii	"B\036\2765\264V\350\210J\274\364B{(\001V\276\305\363"
 271      B456E888 
 271      4ABCF442 
 271      7B280156 
 271      BEC5F3
 272 07e3 9A9D0A35 		.ascii	"\232\235\0125`RP\332\270`\366\350\023\212bh\035\330"
 272      605250DA 
 272      B860F6E8 
 272      138A6268 
 272      1DD8
 273 07f5 E3254EAC 		.ascii	"\343%N\254\343\304E\234\270\230\023\237t\210\213\026"
 273      E3C4459C 
 273      B898139F 
 273      74888B16 
 274 0805 9746455E 		.ascii	"\227FE^\012\267r\355A\347\306\366\204\350\014\206\005"
 274      0AB772ED 
 274      41E7C6F6 
 274      84E80C86 
 274      05
 275 0816 F1091612 		.ascii	"\361\011\026\022\254x\274-\201\346@!\310dB\203m+;bA"
 275      AC78BC2D 
 275      81E64021 
 275      C8644283 
 275      6D2B3B62 
 276 082b 4076F1FC 		.ascii	"@v\361\374\272\220\304\373\002\276\007\204\350\006\341"
 276      BA90C4FB 
 276      02BE0784 
 276      E806E1
 277 083a 85041F89 		.ascii	"\205\004\037\211E\301\001x\237P\336WI\361\366\247\327"
 277      45C10178 
 277      9F50DE57 
 277      49F1F6A7 
 277      D7
 278 084b FAC47830 		.ascii	"\372\304x0 \011\301\347\036\246\344;b\020\246\347\012"
 278      2009C1E7 
 278      1EA6E43B 
 278      6210A6E7 
 278      0A
 279 085c F3CDBC7C 		.ascii	"\363\315\274|@\031\271\274!\260\302\347o.y^\210v\204"
 279      4019B9BC 
 279      21B0C2E7 
 279      6F2E795E 
 279      887684
 280 086f 1EB345E9 		.ascii	"\036\263E\351)\342i\300\273\234\177\006bV\342\365\255"
 280      29E269C0 
 280      BB9C7F06 
 280      6256E2F5 
 280      AD
 281 0880 6A6E7436 		.ascii	"jnt6{\003~\347\352g\236\366\22744\373\275~G\000\304"
 281      7B037EE7 
 281      EA679EF6 
 281      973434FB 
 281      BD7E4700 
 282 0895 EBF59791 		.ascii	"\353\365\227\221X\326\363\222K\211*\264\034\201&_I\240"
 282      58D6F392 
ARM GAS  /var/folders/c6/c789hm653lg9vtl73krp73tm0000gn/T//ccUdz7k8.s 			page 22


 282      4B892AB4 
 282      1C81265F 
 282      49A0
 283 08a7 8974F7AE 		.ascii	"\211t\367\256\004\325DT#\250\222\226\226\225\015~\347"
 283      04D54454 
 283      23A89296 
 283      96950D7E 
 283      E7
 284 08b8 72A21AE0 		.ascii	"r\242\032\340\267\303\267\322\357h\004ih\364;\341\233"
 284      B7C3B7D2 
 284      EF680469 
 284      68F43BE1 
 284      9B
 285 08c9 DFD91C68 		.ascii	"\337\331\034h\360\273\374+\002+\374\253W4\326\201\341"
 285      F0BBFC2B 
 285      022BFCAB 
 285      5734D681 
 285      E1
 286 08da 06AF7F2E 		.ascii	"\006\257\177.\365H\347\244+\377\352\377\"\227\373H"
 286      F548E7A4 
 286      2BFFEAFF 
 286      2297FB48 
 287              		.text
 288              		.section	.gnu.lto_.symtab.98c9d9f7c31a08fb,"",%progbits
 289 0000 5356435F 		.ascii	"SVC_Handler\000\000\000\000\000\000\000\000\000\000"
 289      48616E64 
 289      6C657200 
 289      00000000 
 289      00000000 
 290 0015 0000AB00 		.ascii	"\000\000\253\000\000\000_port_irq_epilogue\000\000\000"
 290      00005F70 
 290      6F72745F 
 290      6972715F 
 290      6570696C 
 291 0030 00000000 		.ascii	"\000\000\000\000\000\000\000\000\000\256\000\000\000"
 291      00000000 
 291      00AE0000 
 291      00
 292 003d 5F706F72 		.ascii	"_port_switch_from_isr\000\000\002\000\000\000\000\000"
 292      745F7377 
 292      69746368 
 292      5F66726F 
 292      6D5F6973 
 293 005a 00000000 		.ascii	"\000\000\000\000\246\000\000\000_port_exit_from_isr"
 293      A6000000 
 293      5F706F72 
 293      745F6578 
 293      69745F66 
 294 0075 00000200 		.ascii	"\000\000\002\000\000\000\000\000\000\000\000\000\251"
 294      00000000 
 294      00000000 
 294      A9
 295 0082 00000063 		.ascii	"\000\000\000chSchIsPreemptionRequired\000\000\002\000"
 295      68536368 
 295      49735072 
 295      65656D70 
 295      74696F6E 
ARM GAS  /var/folders/c6/c789hm653lg9vtl73krp73tm0000gn/T//ccUdz7k8.s 			page 23


 296 00a2 00000000 		.ascii	"\000\000\000\000\000\000\000\000\261\000\000\000"
 296      00000000 
 296      B1000000 
 297              		.text
 298              		.section	.gnu.lto_.opts,"",%progbits
 299 0000 272D6D63 		.ascii	"'-mcpu=cortex-m4' '-mno-thumb-interwork' '-mthumb' "
 299      70753D63 
 299      6F727465 
 299      782D6D34 
 299      2720272D 
 300 0033 272D6767 		.ascii	"'-ggdb' '-O2' '-fomit-frame-pointer' '-falign-funct"
 300      64622720 
 300      272D4F32 
 300      2720272D 
 300      666F6D69 
 301 0066 696F6E73 		.ascii	"ions=16' '-ffunction-sections' '-fdata-sections' '-"
 301      3D313627 
 301      20272D66 
 301      66756E63 
 301      74696F6E 
 302 0099 666E6F2D 		.ascii	"fno-common' '-flto'\000"
 302      636F6D6D 
 302      6F6E2720 
 302      272D666C 
 302      746F2700 
 303              		.text
 304              		.cfi_sections	.debug_frame
 305              		.section	.text.SVC_Handler,"ax",%progbits
 306              		.align	2
 307              		.p2align 4,,15
 308              		.global	SVC_Handler
 309              		.thumb
 310              		.thumb_func
 311              		.type	SVC_Handler, %function
 312              	SVC_Handler:
 313              	.LFB229:
 314              		.file 1 "../../../os/rt/ports/ARMCMx/chcore_v7m.c"
 315              		.loc 1 62 0
 316              		.cfi_startproc
 317              		@ args = 0, pretend = 0, frame = 0
 318              		@ frame_needed = 0, uses_anonymous_args = 0
 319              		@ link register save eliminated.
 320              	.LBB51:
 321              	.LBB52:
 322              		.file 2 "../../../os/ext/CMSIS/include/core_cmFunc.h"
 323              		.loc 2 428 0
 324              	@ 428 "../../../os/ext/CMSIS/include/core_cmFunc.h" 1
 325 0000 EFF30983 		MRS r3, psp
 326              	
 327              	@ 0 "" 2
 328              	.LVL0:
 329              		.thumb
 330              	.LBE52:
 331              	.LBE51:
 332              		.loc 1 76 0
 333 0004 2033     		adds	r3, r3, #32
 334              	.LVL1:
ARM GAS  /var/folders/c6/c789hm653lg9vtl73krp73tm0000gn/T//ccUdz7k8.s 			page 24


 335              	.LBB53:
 336              	.LBB54:
 337              		.loc 2 441 0
 338              	@ 441 "../../../os/ext/CMSIS/include/core_cmFunc.h" 1
 339 0006 83F30988 		MSR psp, r3
 340              	
 341              	@ 0 "" 2
 342              	.LVL2:
 343              		.thumb
 344              	.LBE54:
 345              	.LBE53:
 346              	.LBB55:
 347              	.LBB56:
 348              	.LBB57:
 349              	.LBB58:
 350              		.loc 2 546 0
 351 000a 0023     		movs	r3, #0
 352              	.LVL3:
 353              	@ 546 "../../../os/ext/CMSIS/include/core_cmFunc.h" 1
 354 000c 83F31188 		MSR basepri, r3
 355              	@ 0 "" 2
 356              		.thumb
 357 0010 7047     		bx	lr
 358              	.LBE58:
 359              	.LBE57:
 360              	.LBE56:
 361              	.LBE55:
 362              		.cfi_endproc
 363              	.LFE229:
 364              		.size	SVC_Handler, .-SVC_Handler
 365 0012 00BFAFF3 		.section	.text._port_irq_epilogue,"ax",%progbits
 365      0080AFF3 
 365      0080AFF3 
 365      0080
 366              		.align	2
 367              		.p2align 4,,15
 368              		.global	_port_irq_epilogue
 369              		.thumb
 370              		.thumb_func
 371              		.type	_port_irq_epilogue, %function
 372              	_port_irq_epilogue:
 373              	.LFB230:
 374              		.loc 1 122 0
 375              		.cfi_startproc
 376              		@ args = 0, pretend = 0, frame = 0
 377              		@ frame_needed = 0, uses_anonymous_args = 0
 378              	.LVL4:
 379 0000 10B5     		push	{r4, lr}
 380              		.cfi_def_cfa_offset 8
 381              		.cfi_offset 4, -8
 382              		.cfi_offset 14, -4
 383              	.LBB83:
 384              	.LBB84:
 385              	.LBB85:
 386              	.LBB86:
 387              		.loc 2 546 0
 388 0002 2023     		movs	r3, #32
ARM GAS  /var/folders/c6/c789hm653lg9vtl73krp73tm0000gn/T//ccUdz7k8.s 			page 25


 389              	@ 546 "../../../os/ext/CMSIS/include/core_cmFunc.h" 1
 390 0004 83F31188 		MSR basepri, r3
 391              	@ 0 "" 2
 392              		.thumb
 393              	.LBE86:
 394              	.LBE85:
 395              	.LBE84:
 396              	.LBE83:
 397              		.loc 1 125 0
 398 0008 0E4B     		ldr	r3, .L8
 399 000a 5B68     		ldr	r3, [r3, #4]
 400 000c 13F40063 		ands	r3, r3, #2048
 401 0010 02D1     		bne	.L7
 402              	.LVL5:
 403              	.LBB87:
 404              	.LBB88:
 405              	.LBB89:
 406              	.LBB90:
 407              		.loc 2 546 0
 408              	@ 546 "../../../os/ext/CMSIS/include/core_cmFunc.h" 1
 409 0012 83F31188 		MSR basepri, r3
 410              	@ 0 "" 2
 411              		.thumb
 412 0016 10BD     		pop	{r4, pc}
 413              	.LVL6:
 414              	.L7:
 415              	.LBE90:
 416              	.LBE89:
 417              	.LBE88:
 418              	.LBE87:
 419              	.LBB91:
 420              	.LBB92:
 421              	.LBB93:
 422              	.LBB94:
 423              		.loc 2 428 0
 424              	@ 428 "../../../os/ext/CMSIS/include/core_cmFunc.h" 1
 425 0018 EFF30984 		MRS r4, psp
 426              	
 427              	@ 0 "" 2
 428              	.LVL7:
 429              		.thumb
 430              	.LBE94:
 431              	.LBE93:
 432              		.loc 1 141 0
 433 001c 4FF08073 		mov	r3, #16777216
 434 0020 44F8043C 		str	r3, [r4, #-4]
 435              	.LVL8:
 436              		.loc 1 138 0
 437 0024 A4F12003 		sub	r3, r4, #32
 438              	.LVL9:
 439              	.LBB95:
 440              	.LBB96:
 441              		.loc 2 441 0
 442              	@ 441 "../../../os/ext/CMSIS/include/core_cmFunc.h" 1
 443 0028 83F30988 		MSR psp, r3
 444              	
 445              	@ 0 "" 2
ARM GAS  /var/folders/c6/c789hm653lg9vtl73krp73tm0000gn/T//ccUdz7k8.s 			page 26


 446              		.thumb
 447              	.LBE96:
 448              	.LBE95:
 449              		.loc 1 151 0
 450 002c FFF7FEFF 		bl	chSchIsPreemptionRequired
 451              	.LVL10:
 452 0030 18B1     		cbz	r0, .L4
 453              		.loc 1 153 0
 454 0032 054B     		ldr	r3, .L8+4
 455 0034 44F8083C 		str	r3, [r4, #-8]
 456 0038 10BD     		pop	{r4, pc}
 457              	.LVL11:
 458              	.L4:
 459              		.loc 1 158 0
 460 003a 044B     		ldr	r3, .L8+8
 461 003c 44F8083C 		str	r3, [r4, #-8]
 462 0040 10BD     		pop	{r4, pc}
 463              	.LVL12:
 464              	.L9:
 465 0042 00BF     		.align	2
 466              	.L8:
 467 0044 00ED00E0 		.word	-536810240
 468 0048 00000000 		.word	_port_switch_from_isr
 469 004c 00000000 		.word	_port_exit_from_isr
 470              	.LBE92:
 471              	.LBE91:
 472              		.cfi_endproc
 473              	.LFE230:
 474              		.size	_port_irq_epilogue, .-_port_irq_epilogue
 475              		.text
 476              	.Letext0:
 477              		.file 3 "/usr/local/Cellar/gcc-arm-none-eabi/20140805/arm-none-eabi/include/machine/_default_types
 478              		.file 4 "/usr/local/Cellar/gcc-arm-none-eabi/20140805/arm-none-eabi/include/stdint.h"
 479              		.file 5 "../../../os/rt/ports/ARMCMx/compilers/GCC/chtypes.h"
 480              		.file 6 "../../../os/rt/include/chsystypes.h"
 481              		.file 7 "../../../os/rt/include/chschd.h"
 482              		.file 8 "../../../os/ext/CMSIS/include/core_cm4.h"
 483              		.file 9 "../../../os/rt/ports/ARMCMx/chcore.h"
 484              		.file 10 "../../../os/rt/ports/ARMCMx/chcore_v7m.h"
 485              		.file 11 "../../../os/rt/include/chtm.h"
 486              		.file 12 "../../../os/rt/include/chsem.h"
 487              		.file 13 "../../../os/rt/include/chmtx.h"
 488              		.section	.debug_info,"",%progbits
 489              	.Ldebug_info0:
 490 0000 640A0000 		.4byte	0xa64
 491 0004 0400     		.2byte	0x4
 492 0006 00000000 		.4byte	.Ldebug_abbrev0
 493 000a 04       		.byte	0x4
 494 000b 01       		.uleb128 0x1
 495 000c 94050000 		.4byte	.LASF132
 496 0010 01       		.byte	0x1
 497 0011 0F010000 		.4byte	.LASF133
 498 0015 56040000 		.4byte	.LASF134
 499 0019 00000000 		.4byte	.Ldebug_ranges0+0
 500 001d 00000000 		.4byte	0
 501 0021 00000000 		.4byte	.Ldebug_line0
 502 0025 02       		.uleb128 0x2
ARM GAS  /var/folders/c6/c789hm653lg9vtl73krp73tm0000gn/T//ccUdz7k8.s 			page 27


 503 0026 04       		.byte	0x4
 504 0027 05       		.byte	0x5
 505 0028 696E7400 		.ascii	"int\000"
 506 002c 03       		.uleb128 0x3
 507 002d 04       		.byte	0x4
 508 002e 07       		.byte	0x7
 509 002f B1010000 		.4byte	.LASF0
 510 0033 03       		.uleb128 0x3
 511 0034 01       		.byte	0x1
 512 0035 06       		.byte	0x6
 513 0036 C4000000 		.4byte	.LASF1
 514 003a 04       		.uleb128 0x4
 515 003b 23000000 		.4byte	.LASF5
 516 003f 03       		.byte	0x3
 517 0040 1C       		.byte	0x1c
 518 0041 45000000 		.4byte	0x45
 519 0045 03       		.uleb128 0x3
 520 0046 01       		.byte	0x1
 521 0047 08       		.byte	0x8
 522 0048 65030000 		.4byte	.LASF2
 523 004c 03       		.uleb128 0x3
 524 004d 02       		.byte	0x2
 525 004e 05       		.byte	0x5
 526 004f 90030000 		.4byte	.LASF3
 527 0053 03       		.uleb128 0x3
 528 0054 02       		.byte	0x2
 529 0055 07       		.byte	0x7
 530 0056 C4030000 		.4byte	.LASF4
 531 005a 04       		.uleb128 0x4
 532 005b 57020000 		.4byte	.LASF6
 533 005f 03       		.byte	0x3
 534 0060 37       		.byte	0x37
 535 0061 65000000 		.4byte	0x65
 536 0065 03       		.uleb128 0x3
 537 0066 04       		.byte	0x4
 538 0067 05       		.byte	0x5
 539 0068 FD000000 		.4byte	.LASF7
 540 006c 04       		.uleb128 0x4
 541 006d E9040000 		.4byte	.LASF8
 542 0071 03       		.byte	0x3
 543 0072 38       		.byte	0x38
 544 0073 77000000 		.4byte	0x77
 545 0077 03       		.uleb128 0x3
 546 0078 04       		.byte	0x4
 547 0079 07       		.byte	0x7
 548 007a 44040000 		.4byte	.LASF9
 549 007e 03       		.uleb128 0x3
 550 007f 08       		.byte	0x8
 551 0080 05       		.byte	0x5
 552 0081 B6000000 		.4byte	.LASF10
 553 0085 04       		.uleb128 0x4
 554 0086 06030000 		.4byte	.LASF11
 555 008a 03       		.byte	0x3
 556 008b 4E       		.byte	0x4e
 557 008c 90000000 		.4byte	0x90
 558 0090 03       		.uleb128 0x3
 559 0091 08       		.byte	0x8
ARM GAS  /var/folders/c6/c789hm653lg9vtl73krp73tm0000gn/T//ccUdz7k8.s 			page 28


 560 0092 07       		.byte	0x7
 561 0093 52000000 		.4byte	.LASF12
 562 0097 04       		.uleb128 0x4
 563 0098 7E050000 		.4byte	.LASF13
 564 009c 04       		.byte	0x4
 565 009d 2A       		.byte	0x2a
 566 009e 3A000000 		.4byte	0x3a
 567 00a2 04       		.uleb128 0x4
 568 00a3 5D030000 		.4byte	.LASF14
 569 00a7 04       		.byte	0x4
 570 00a8 41       		.byte	0x41
 571 00a9 5A000000 		.4byte	0x5a
 572 00ad 04       		.uleb128 0x4
 573 00ae 13040000 		.4byte	.LASF15
 574 00b2 04       		.byte	0x4
 575 00b3 42       		.byte	0x42
 576 00b4 6C000000 		.4byte	0x6c
 577 00b8 04       		.uleb128 0x4
 578 00b9 1A000000 		.4byte	.LASF16
 579 00bd 04       		.byte	0x4
 580 00be 4E       		.byte	0x4e
 581 00bf 85000000 		.4byte	0x85
 582 00c3 05       		.uleb128 0x5
 583 00c4 A2000000 		.4byte	0xa2
 584 00c8 05       		.uleb128 0x5
 585 00c9 AD000000 		.4byte	0xad
 586 00cd 04       		.uleb128 0x4
 587 00ce 27050000 		.4byte	.LASF17
 588 00d2 05       		.byte	0x5
 589 00d3 45       		.byte	0x45
 590 00d4 AD000000 		.4byte	0xad
 591 00d8 04       		.uleb128 0x4
 592 00d9 26020000 		.4byte	.LASF18
 593 00dd 05       		.byte	0x5
 594 00de 48       		.byte	0x48
 595 00df 97000000 		.4byte	0x97
 596 00e3 04       		.uleb128 0x4
 597 00e4 06010000 		.4byte	.LASF19
 598 00e8 05       		.byte	0x5
 599 00e9 49       		.byte	0x49
 600 00ea 97000000 		.4byte	0x97
 601 00ee 04       		.uleb128 0x4
 602 00ef 11030000 		.4byte	.LASF20
 603 00f3 05       		.byte	0x5
 604 00f4 4A       		.byte	0x4a
 605 00f5 97000000 		.4byte	0x97
 606 00f9 04       		.uleb128 0x4
 607 00fa 3F030000 		.4byte	.LASF21
 608 00fe 05       		.byte	0x5
 609 00ff 4C       		.byte	0x4c
 610 0100 AD000000 		.4byte	0xad
 611 0104 04       		.uleb128 0x4
 612 0105 FC010000 		.4byte	.LASF22
 613 0109 05       		.byte	0x5
 614 010a 4D       		.byte	0x4d
 615 010b A2000000 		.4byte	0xa2
 616 010f 04       		.uleb128 0x4
ARM GAS  /var/folders/c6/c789hm653lg9vtl73krp73tm0000gn/T//ccUdz7k8.s 			page 29


 617 0110 3C020000 		.4byte	.LASF23
 618 0114 05       		.byte	0x5
 619 0115 4F       		.byte	0x4f
 620 0116 AD000000 		.4byte	0xad
 621 011a 04       		.uleb128 0x4
 622 011b AB010000 		.4byte	.LASF24
 623 011f 05       		.byte	0x5
 624 0120 51       		.byte	0x51
 625 0121 A2000000 		.4byte	0xa2
 626 0125 04       		.uleb128 0x4
 627 0126 CB040000 		.4byte	.LASF25
 628 012a 06       		.byte	0x6
 629 012b 33       		.byte	0x33
 630 012c AD000000 		.4byte	0xad
 631 0130 04       		.uleb128 0x4
 632 0131 BB040000 		.4byte	.LASF26
 633 0135 06       		.byte	0x6
 634 0136 3F       		.byte	0x3f
 635 0137 3B010000 		.4byte	0x13b
 636 013b 06       		.uleb128 0x6
 637 013c ED010000 		.4byte	.LASF46
 638 0140 44       		.byte	0x44
 639 0141 07       		.byte	0x7
 640 0142 C2       		.byte	0xc2
 641 0143 28020000 		.4byte	0x228
 642 0147 07       		.uleb128 0x7
 643 0148 B5030000 		.4byte	.LASF27
 644 014c 07       		.byte	0x7
 645 014d C3       		.byte	0xc3
 646 014e 33020000 		.4byte	0x233
 647 0152 00       		.byte	0
 648 0153 07       		.uleb128 0x7
 649 0154 38030000 		.4byte	.LASF28
 650 0158 07       		.byte	0x7
 651 0159 C5       		.byte	0xc5
 652 015a 33020000 		.4byte	0x233
 653 015e 04       		.byte	0x4
 654 015f 07       		.uleb128 0x7
 655 0160 AA000000 		.4byte	.LASF29
 656 0164 07       		.byte	0x7
 657 0165 C7       		.byte	0xc7
 658 0166 F9000000 		.4byte	0xf9
 659 016a 08       		.byte	0x8
 660 016b 07       		.uleb128 0x7
 661 016c 94060000 		.4byte	.LASF30
 662 0170 07       		.byte	0x7
 663 0171 C8       		.byte	0xc8
 664 0172 F2050000 		.4byte	0x5f2
 665 0176 0C       		.byte	0xc
 666 0177 07       		.uleb128 0x7
 667 0178 52010000 		.4byte	.LASF31
 668 017c 07       		.byte	0x7
 669 017d CA       		.byte	0xca
 670 017e 33020000 		.4byte	0x233
 671 0182 10       		.byte	0x10
 672 0183 07       		.uleb128 0x7
 673 0184 C9020000 		.4byte	.LASF32
ARM GAS  /var/folders/c6/c789hm653lg9vtl73krp73tm0000gn/T//ccUdz7k8.s 			page 30


 674 0188 07       		.byte	0x7
 675 0189 CB       		.byte	0xcb
 676 018a 33020000 		.4byte	0x233
 677 018e 14       		.byte	0x14
 678 018f 07       		.uleb128 0x7
 679 0190 8D050000 		.4byte	.LASF33
 680 0194 07       		.byte	0x7
 681 0195 D2       		.byte	0xd2
 682 0196 D9070000 		.4byte	0x7d9
 683 019a 18       		.byte	0x18
 684 019b 07       		.uleb128 0x7
 685 019c 9A030000 		.4byte	.LASF34
 686 01a0 07       		.byte	0x7
 687 01a1 DD       		.byte	0xdd
 688 01a2 E3000000 		.4byte	0xe3
 689 01a6 1C       		.byte	0x1c
 690 01a7 07       		.uleb128 0x7
 691 01a8 BC030000 		.4byte	.LASF35
 692 01ac 07       		.byte	0x7
 693 01ad E1       		.byte	0xe1
 694 01ae D8000000 		.4byte	0xd8
 695 01b2 1D       		.byte	0x1d
 696 01b3 07       		.uleb128 0x7
 697 01b4 6C050000 		.4byte	.LASF36
 698 01b8 07       		.byte	0x7
 699 01b9 E6       		.byte	0xe6
 700 01ba EE000000 		.4byte	0xee
 701 01be 1E       		.byte	0x1e
 702 01bf 08       		.uleb128 0x8
 703 01c0 705F7500 		.ascii	"p_u\000"
 704 01c4 07       		.byte	0x7
 705 01c5 3101     		.2byte	0x131
 706 01c7 14070000 		.4byte	0x714
 707 01cb 20       		.byte	0x20
 708 01cc 09       		.uleb128 0x9
 709 01cd 7B020000 		.4byte	.LASF37
 710 01d1 07       		.byte	0x7
 711 01d2 3601     		.2byte	0x136
 712 01d4 39020000 		.4byte	0x239
 713 01d8 24       		.byte	0x24
 714 01d9 09       		.uleb128 0x9
 715 01da D7010000 		.4byte	.LASF38
 716 01de 07       		.byte	0x7
 717 01df 3C01     		.2byte	0x13c
 718 01e1 5D020000 		.4byte	0x25d
 719 01e5 28       		.byte	0x28
 720 01e6 09       		.uleb128 0x9
 721 01e7 74060000 		.4byte	.LASF39
 722 01eb 07       		.byte	0x7
 723 01ec 4001     		.2byte	0x140
 724 01ee 04010000 		.4byte	0x104
 725 01f2 30       		.byte	0x30
 726 01f3 09       		.uleb128 0x9
 727 01f4 08040000 		.4byte	.LASF40
 728 01f8 07       		.byte	0x7
 729 01f9 4601     		.2byte	0x146
 730 01fb 0F010000 		.4byte	0x10f
ARM GAS  /var/folders/c6/c789hm653lg9vtl73krp73tm0000gn/T//ccUdz7k8.s 			page 31


 731 01ff 34       		.byte	0x34
 732 0200 09       		.uleb128 0x9
 733 0201 86030000 		.4byte	.LASF41
 734 0205 07       		.byte	0x7
 735 0206 4D01     		.2byte	0x14d
 736 0208 D3070000 		.4byte	0x7d3
 737 020c 38       		.byte	0x38
 738 020d 09       		.uleb128 0x9
 739 020e D5040000 		.4byte	.LASF42
 740 0212 07       		.byte	0x7
 741 0213 5101     		.2byte	0x151
 742 0215 F9000000 		.4byte	0xf9
 743 0219 3C       		.byte	0x3c
 744 021a 09       		.uleb128 0x9
 745 021b D0000000 		.4byte	.LASF43
 746 021f 07       		.byte	0x7
 747 0220 5801     		.2byte	0x158
 748 0222 10030000 		.4byte	0x310
 749 0226 40       		.byte	0x40
 750 0227 00       		.byte	0
 751 0228 04       		.uleb128 0x4
 752 0229 8E020000 		.4byte	.LASF44
 753 022d 06       		.byte	0x6
 754 022e 44       		.byte	0x44
 755 022f 33020000 		.4byte	0x233
 756 0233 0A       		.uleb128 0xa
 757 0234 04       		.byte	0x4
 758 0235 30010000 		.4byte	0x130
 759 0239 04       		.uleb128 0x4
 760 023a 6C020000 		.4byte	.LASF45
 761 023e 06       		.byte	0x6
 762 023f 49       		.byte	0x49
 763 0240 44020000 		.4byte	0x244
 764 0244 06       		.uleb128 0x6
 765 0245 34040000 		.4byte	.LASF47
 766 0249 04       		.byte	0x4
 767 024a 07       		.byte	0x7
 768 024b B0       		.byte	0xb0
 769 024c 5D020000 		.4byte	0x25d
 770 0250 07       		.uleb128 0x7
 771 0251 B5030000 		.4byte	.LASF27
 772 0255 07       		.byte	0x7
 773 0256 B1       		.byte	0xb1
 774 0257 33020000 		.4byte	0x233
 775 025b 00       		.byte	0
 776 025c 00       		.byte	0
 777 025d 04       		.uleb128 0x4
 778 025e 53050000 		.4byte	.LASF48
 779 0262 06       		.byte	0x6
 780 0263 50       		.byte	0x50
 781 0264 68020000 		.4byte	0x268
 782 0268 06       		.uleb128 0x6
 783 0269 99000000 		.4byte	.LASF49
 784 026d 08       		.byte	0x8
 785 026e 07       		.byte	0x7
 786 026f B7       		.byte	0xb7
 787 0270 8D020000 		.4byte	0x28d
ARM GAS  /var/folders/c6/c789hm653lg9vtl73krp73tm0000gn/T//ccUdz7k8.s 			page 32


 788 0274 07       		.uleb128 0x7
 789 0275 B5030000 		.4byte	.LASF27
 790 0279 07       		.byte	0x7
 791 027a B8       		.byte	0xb8
 792 027b 33020000 		.4byte	0x233
 793 027f 00       		.byte	0
 794 0280 07       		.uleb128 0x7
 795 0281 38030000 		.4byte	.LASF28
 796 0285 07       		.byte	0x7
 797 0286 B9       		.byte	0xb9
 798 0287 33020000 		.4byte	0x233
 799 028b 04       		.byte	0x4
 800 028c 00       		.byte	0
 801 028d 04       		.uleb128 0x4
 802 028e 00000000 		.4byte	.LASF50
 803 0292 06       		.byte	0x6
 804 0293 57       		.byte	0x57
 805 0294 98020000 		.4byte	0x298
 806 0298 0B       		.uleb128 0xb
 807 0299 2E020000 		.4byte	.LASF51
 808 029d 1C       		.byte	0x1c
 809 029e 07       		.byte	0x7
 810 029f 9001     		.2byte	0x190
 811 02a1 F4020000 		.4byte	0x2f4
 812 02a5 09       		.uleb128 0x9
 813 02a6 23040000 		.4byte	.LASF52
 814 02aa 07       		.byte	0x7
 815 02ab 9101     		.2byte	0x191
 816 02ad 5D020000 		.4byte	0x25d
 817 02b1 00       		.byte	0
 818 02b2 09       		.uleb128 0x9
 819 02b3 A7030000 		.4byte	.LASF53
 820 02b7 07       		.byte	0x7
 821 02b8 9201     		.2byte	0x192
 822 02ba F9000000 		.4byte	0xf9
 823 02be 08       		.byte	0x8
 824 02bf 09       		.uleb128 0x9
 825 02c0 D1020000 		.4byte	.LASF54
 826 02c4 07       		.byte	0x7
 827 02c5 9401     		.2byte	0x194
 828 02c7 F2050000 		.4byte	0x5f2
 829 02cb 0C       		.byte	0xc
 830 02cc 09       		.uleb128 0x9
 831 02cd 6C010000 		.4byte	.LASF55
 832 02d1 07       		.byte	0x7
 833 02d2 9701     		.2byte	0x197
 834 02d4 33020000 		.4byte	0x233
 835 02d8 10       		.byte	0x10
 836 02d9 09       		.uleb128 0x9
 837 02da FE020000 		.4byte	.LASF56
 838 02de 07       		.byte	0x7
 839 02df 9801     		.2byte	0x198
 840 02e1 33020000 		.4byte	0x233
 841 02e5 14       		.byte	0x14
 842 02e6 09       		.uleb128 0x9
 843 02e7 F4020000 		.4byte	.LASF57
 844 02eb 07       		.byte	0x7
ARM GAS  /var/folders/c6/c789hm653lg9vtl73krp73tm0000gn/T//ccUdz7k8.s 			page 33


 845 02ec 9B01     		.2byte	0x19b
 846 02ee 33020000 		.4byte	0x233
 847 02f2 18       		.byte	0x18
 848 02f3 00       		.byte	0
 849 02f4 04       		.uleb128 0x4
 850 02f5 E0040000 		.4byte	.LASF58
 851 02f9 06       		.byte	0x6
 852 02fa 5C       		.byte	0x5c
 853 02fb FF020000 		.4byte	0x2ff
 854 02ff 0A       		.uleb128 0xa
 855 0300 04       		.byte	0x4
 856 0301 05030000 		.4byte	0x305
 857 0305 0C       		.uleb128 0xc
 858 0306 10030000 		.4byte	0x310
 859 030a 0D       		.uleb128 0xd
 860 030b 10030000 		.4byte	0x310
 861 030f 00       		.byte	0
 862 0310 0E       		.uleb128 0xe
 863 0311 04       		.byte	0x4
 864 0312 04       		.uleb128 0x4
 865 0313 28030000 		.4byte	.LASF59
 866 0317 06       		.byte	0x6
 867 0318 61       		.byte	0x61
 868 0319 1D030000 		.4byte	0x31d
 869 031d 0B       		.uleb128 0xb
 870 031e EA030000 		.4byte	.LASF60
 871 0322 14       		.byte	0x14
 872 0323 07       		.byte	0x7
 873 0324 6B01     		.2byte	0x16b
 874 0326 6C030000 		.4byte	0x36c
 875 032a 09       		.uleb128 0x9
 876 032b C8010000 		.4byte	.LASF61
 877 032f 07       		.byte	0x7
 878 0330 6C01     		.2byte	0x16c
 879 0332 EB070000 		.4byte	0x7eb
 880 0336 00       		.byte	0
 881 0337 09       		.uleb128 0x9
 882 0338 7D010000 		.4byte	.LASF62
 883 033c 07       		.byte	0x7
 884 033d 6D01     		.2byte	0x16d
 885 033f EB070000 		.4byte	0x7eb
 886 0343 04       		.byte	0x4
 887 0344 09       		.uleb128 0x9
 888 0345 2B040000 		.4byte	.LASF63
 889 0349 07       		.byte	0x7
 890 034a 6E01     		.2byte	0x16e
 891 034c 25010000 		.4byte	0x125
 892 0350 08       		.byte	0x8
 893 0351 09       		.uleb128 0x9
 894 0352 9A060000 		.4byte	.LASF64
 895 0356 07       		.byte	0x7
 896 0357 6F01     		.2byte	0x16f
 897 0359 F4020000 		.4byte	0x2f4
 898 035d 0C       		.byte	0xc
 899 035e 09       		.uleb128 0x9
 900 035f 4C050000 		.4byte	.LASF65
 901 0363 07       		.byte	0x7
ARM GAS  /var/folders/c6/c789hm653lg9vtl73krp73tm0000gn/T//ccUdz7k8.s 			page 34


 902 0364 7101     		.2byte	0x171
 903 0366 10030000 		.4byte	0x310
 904 036a 10       		.byte	0x10
 905 036b 00       		.byte	0
 906 036c 04       		.uleb128 0x4
 907 036d 7D000000 		.4byte	.LASF66
 908 0371 06       		.byte	0x6
 909 0372 66       		.byte	0x66
 910 0373 77030000 		.4byte	0x377
 911 0377 0B       		.uleb128 0xb
 912 0378 A1020000 		.4byte	.LASF67
 913 037c 10       		.byte	0x10
 914 037d 07       		.byte	0x7
 915 037e 7B01     		.2byte	0x17b
 916 0380 B9030000 		.4byte	0x3b9
 917 0384 09       		.uleb128 0x9
 918 0385 C8010000 		.4byte	.LASF61
 919 0389 07       		.byte	0x7
 920 038a 7C01     		.2byte	0x17c
 921 038c EB070000 		.4byte	0x7eb
 922 0390 00       		.byte	0
 923 0391 09       		.uleb128 0x9
 924 0392 7D010000 		.4byte	.LASF62
 925 0396 07       		.byte	0x7
 926 0397 7E01     		.2byte	0x17e
 927 0399 EB070000 		.4byte	0x7eb
 928 039d 04       		.byte	0x4
 929 039e 09       		.uleb128 0x9
 930 039f 2B040000 		.4byte	.LASF63
 931 03a3 07       		.byte	0x7
 932 03a4 8001     		.2byte	0x180
 933 03a6 25010000 		.4byte	0x125
 934 03aa 08       		.byte	0x8
 935 03ab 09       		.uleb128 0x9
 936 03ac BD020000 		.4byte	.LASF68
 937 03b0 07       		.byte	0x7
 938 03b1 8801     		.2byte	0x188
 939 03b3 25010000 		.4byte	0x125
 940 03b7 0C       		.byte	0xc
 941 03b8 00       		.byte	0
 942 03b9 04       		.uleb128 0x4
 943 03ba 39000000 		.4byte	.LASF69
 944 03be 06       		.byte	0x6
 945 03bf 6B       		.byte	0x6b
 946 03c0 C4030000 		.4byte	0x3c4
 947 03c4 0B       		.uleb128 0xb
 948 03c5 47030000 		.4byte	.LASF70
 949 03c9 04       		.byte	0x4
 950 03ca 07       		.byte	0x7
 951 03cb A201     		.2byte	0x1a2
 952 03cd DF030000 		.4byte	0x3df
 953 03d1 09       		.uleb128 0x9
 954 03d2 02050000 		.4byte	.LASF71
 955 03d6 07       		.byte	0x7
 956 03d7 AA01     		.2byte	0x1aa
 957 03d9 F1070000 		.4byte	0x7f1
 958 03dd 00       		.byte	0
ARM GAS  /var/folders/c6/c789hm653lg9vtl73krp73tm0000gn/T//ccUdz7k8.s 			page 35


 959 03de 00       		.byte	0
 960 03df 04       		.uleb128 0x4
 961 03e0 1B050000 		.4byte	.LASF72
 962 03e4 06       		.byte	0x6
 963 03e5 70       		.byte	0x70
 964 03e6 EA030000 		.4byte	0x3ea
 965 03ea 0F       		.uleb128 0xf
 966 03eb F3000000 		.4byte	.LASF73
 967 03ef 5001     		.2byte	0x150
 968 03f1 07       		.byte	0x7
 969 03f2 C201     		.2byte	0x1c2
 970 03f4 46040000 		.4byte	0x446
 971 03f8 09       		.uleb128 0x9
 972 03f9 78050000 		.4byte	.LASF74
 973 03fd 07       		.byte	0x7
 974 03fe C601     		.2byte	0x1c6
 975 0400 8D020000 		.4byte	0x28d
 976 0404 00       		.byte	0
 977 0405 09       		.uleb128 0x9
 978 0406 E0000000 		.4byte	.LASF75
 979 040a 07       		.byte	0x7
 980 040b CA01     		.2byte	0x1ca
 981 040d 6C030000 		.4byte	0x36c
 982 0411 1C       		.byte	0x1c
 983 0412 08       		.uleb128 0x8
 984 0413 64626700 		.ascii	"dbg\000"
 985 0417 07       		.byte	0x7
 986 0418 CE01     		.2byte	0x1ce
 987 041a B9030000 		.4byte	0x3b9
 988 041e 2C       		.byte	0x2c
 989 041f 09       		.uleb128 0x9
 990 0420 72000000 		.4byte	.LASF76
 991 0424 07       		.byte	0x7
 992 0425 D201     		.2byte	0x1d2
 993 0427 30010000 		.4byte	0x130
 994 042b 30       		.byte	0x30
 995 042c 08       		.uleb128 0x8
 996 042d 746D00   		.ascii	"tm\000"
 997 0430 07       		.byte	0x7
 998 0431 D701     		.2byte	0x1d7
 999 0433 09070000 		.4byte	0x709
 1000 0437 74       		.byte	0x74
 1001 0438 09       		.uleb128 0x9
 1002 0439 9C010000 		.4byte	.LASF77
 1003 043d 07       		.byte	0x7
 1004 043e E301     		.2byte	0x1e3
 1005 0440 F6070000 		.4byte	0x7f6
 1006 0444 78       		.byte	0x78
 1007 0445 00       		.byte	0
 1008 0446 03       		.uleb128 0x3
 1009 0447 04       		.byte	0x4
 1010 0448 07       		.byte	0x7
 1011 0449 85020000 		.4byte	.LASF78
 1012 044d 10       		.uleb128 0x10
 1013 044e 8C       		.byte	0x8c
 1014 044f 08       		.byte	0x8
 1015 0450 7001     		.2byte	0x170
ARM GAS  /var/folders/c6/c789hm653lg9vtl73krp73tm0000gn/T//ccUdz7k8.s 			page 36


 1016 0452 68050000 		.4byte	0x568
 1017 0456 09       		.uleb128 0x9
 1018 0457 93000000 		.4byte	.LASF79
 1019 045b 08       		.byte	0x8
 1020 045c 7201     		.2byte	0x172
 1021 045e 68050000 		.4byte	0x568
 1022 0462 00       		.byte	0
 1023 0463 09       		.uleb128 0x9
 1024 0464 F7010000 		.4byte	.LASF80
 1025 0468 08       		.byte	0x8
 1026 0469 7301     		.2byte	0x173
 1027 046b C8000000 		.4byte	0xc8
 1028 046f 04       		.byte	0x4
 1029 0470 09       		.uleb128 0x9
 1030 0471 E2010000 		.4byte	.LASF81
 1031 0475 08       		.byte	0x8
 1032 0476 7401     		.2byte	0x174
 1033 0478 C8000000 		.4byte	0xc8
 1034 047c 08       		.byte	0x8
 1035 047d 09       		.uleb128 0x9
 1036 047e 02020000 		.4byte	.LASF82
 1037 0482 08       		.byte	0x8
 1038 0483 7501     		.2byte	0x175
 1039 0485 C8000000 		.4byte	0xc8
 1040 0489 0C       		.byte	0xc
 1041 048a 08       		.uleb128 0x8
 1042 048b 53435200 		.ascii	"SCR\000"
 1043 048f 08       		.byte	0x8
 1044 0490 7601     		.2byte	0x176
 1045 0492 C8000000 		.4byte	0xc8
 1046 0496 10       		.byte	0x10
 1047 0497 08       		.uleb128 0x8
 1048 0498 43435200 		.ascii	"CCR\000"
 1049 049c 08       		.byte	0x8
 1050 049d 7701     		.2byte	0x177
 1051 049f C8000000 		.4byte	0xc8
 1052 04a3 14       		.byte	0x14
 1053 04a4 08       		.uleb128 0x8
 1054 04a5 53485000 		.ascii	"SHP\000"
 1055 04a9 08       		.byte	0x8
 1056 04aa 7801     		.2byte	0x178
 1057 04ac 7D050000 		.4byte	0x57d
 1058 04b0 18       		.byte	0x18
 1059 04b1 09       		.uleb128 0x9
 1060 04b2 73030000 		.4byte	.LASF83
 1061 04b6 08       		.byte	0x8
 1062 04b7 7901     		.2byte	0x179
 1063 04b9 C8000000 		.4byte	0xc8
 1064 04bd 24       		.byte	0x24
 1065 04be 09       		.uleb128 0x9
 1066 04bf B8020000 		.4byte	.LASF84
 1067 04c3 08       		.byte	0x8
 1068 04c4 7A01     		.2byte	0x17a
 1069 04c6 C8000000 		.4byte	0xc8
 1070 04ca 28       		.byte	0x28
 1071 04cb 09       		.uleb128 0x9
 1072 04cc 80060000 		.4byte	.LASF85
ARM GAS  /var/folders/c6/c789hm653lg9vtl73krp73tm0000gn/T//ccUdz7k8.s 			page 37


 1073 04d0 08       		.byte	0x8
 1074 04d1 7B01     		.2byte	0x17b
 1075 04d3 C8000000 		.4byte	0xc8
 1076 04d7 2C       		.byte	0x2c
 1077 04d8 09       		.uleb128 0x9
 1078 04d9 08020000 		.4byte	.LASF86
 1079 04dd 08       		.byte	0x8
 1080 04de 7C01     		.2byte	0x17c
 1081 04e0 C8000000 		.4byte	0xc8
 1082 04e4 30       		.byte	0x30
 1083 04e5 09       		.uleb128 0x9
 1084 04e6 0D020000 		.4byte	.LASF87
 1085 04ea 08       		.byte	0x8
 1086 04eb 7D01     		.2byte	0x17d
 1087 04ed C8000000 		.4byte	0xc8
 1088 04f1 34       		.byte	0x34
 1089 04f2 09       		.uleb128 0x9
 1090 04f3 62010000 		.4byte	.LASF88
 1091 04f7 08       		.byte	0x8
 1092 04f8 7E01     		.2byte	0x17e
 1093 04fa C8000000 		.4byte	0xc8
 1094 04fe 38       		.byte	0x38
 1095 04ff 09       		.uleb128 0x9
 1096 0500 67010000 		.4byte	.LASF89
 1097 0504 08       		.byte	0x8
 1098 0505 7F01     		.2byte	0x17f
 1099 0507 C8000000 		.4byte	0xc8
 1100 050b 3C       		.byte	0x3c
 1101 050c 08       		.uleb128 0x8
 1102 050d 50465200 		.ascii	"PFR\000"
 1103 0511 08       		.byte	0x8
 1104 0512 8001     		.2byte	0x180
 1105 0514 92050000 		.4byte	0x592
 1106 0518 40       		.byte	0x40
 1107 0519 08       		.uleb128 0x8
 1108 051a 44465200 		.ascii	"DFR\000"
 1109 051e 08       		.byte	0x8
 1110 051f 8101     		.2byte	0x181
 1111 0521 68050000 		.4byte	0x568
 1112 0525 48       		.byte	0x48
 1113 0526 08       		.uleb128 0x8
 1114 0527 41445200 		.ascii	"ADR\000"
 1115 052b 08       		.byte	0x8
 1116 052c 8201     		.2byte	0x182
 1117 052e 68050000 		.4byte	0x568
 1118 0532 4C       		.byte	0x4c
 1119 0533 09       		.uleb128 0x9
 1120 0534 73050000 		.4byte	.LASF90
 1121 0538 08       		.byte	0x8
 1122 0539 8301     		.2byte	0x183
 1123 053b AC050000 		.4byte	0x5ac
 1124 053f 50       		.byte	0x50
 1125 0540 09       		.uleb128 0x9
 1126 0541 B1000000 		.4byte	.LASF91
 1127 0545 08       		.byte	0x8
 1128 0546 8401     		.2byte	0x184
 1129 0548 C6050000 		.4byte	0x5c6
ARM GAS  /var/folders/c6/c789hm653lg9vtl73krp73tm0000gn/T//ccUdz7k8.s 			page 38


 1130 054c 60       		.byte	0x60
 1131 054d 09       		.uleb128 0x9
 1132 054e 19030000 		.4byte	.LASF92
 1133 0552 08       		.byte	0x8
 1134 0553 8501     		.2byte	0x185
 1135 0555 B6050000 		.4byte	0x5b6
 1136 0559 74       		.byte	0x74
 1137 055a 09       		.uleb128 0x9
 1138 055b 7A060000 		.4byte	.LASF93
 1139 055f 08       		.byte	0x8
 1140 0560 8601     		.2byte	0x186
 1141 0562 C8000000 		.4byte	0xc8
 1142 0566 88       		.byte	0x88
 1143 0567 00       		.byte	0
 1144 0568 11       		.uleb128 0x11
 1145 0569 C8000000 		.4byte	0xc8
 1146 056d 12       		.uleb128 0x12
 1147 056e 97000000 		.4byte	0x97
 1148 0572 7D050000 		.4byte	0x57d
 1149 0576 13       		.uleb128 0x13
 1150 0577 46040000 		.4byte	0x446
 1151 057b 0B       		.byte	0xb
 1152 057c 00       		.byte	0
 1153 057d 05       		.uleb128 0x5
 1154 057e 6D050000 		.4byte	0x56d
 1155 0582 12       		.uleb128 0x12
 1156 0583 AD000000 		.4byte	0xad
 1157 0587 92050000 		.4byte	0x592
 1158 058b 13       		.uleb128 0x13
 1159 058c 46040000 		.4byte	0x446
 1160 0590 01       		.byte	0x1
 1161 0591 00       		.byte	0
 1162 0592 11       		.uleb128 0x11
 1163 0593 97050000 		.4byte	0x597
 1164 0597 05       		.uleb128 0x5
 1165 0598 82050000 		.4byte	0x582
 1166 059c 12       		.uleb128 0x12
 1167 059d AD000000 		.4byte	0xad
 1168 05a1 AC050000 		.4byte	0x5ac
 1169 05a5 13       		.uleb128 0x13
 1170 05a6 46040000 		.4byte	0x446
 1171 05aa 03       		.byte	0x3
 1172 05ab 00       		.byte	0
 1173 05ac 11       		.uleb128 0x11
 1174 05ad B1050000 		.4byte	0x5b1
 1175 05b1 05       		.uleb128 0x5
 1176 05b2 9C050000 		.4byte	0x59c
 1177 05b6 12       		.uleb128 0x12
 1178 05b7 AD000000 		.4byte	0xad
 1179 05bb C6050000 		.4byte	0x5c6
 1180 05bf 13       		.uleb128 0x13
 1181 05c0 46040000 		.4byte	0x446
 1182 05c4 04       		.byte	0x4
 1183 05c5 00       		.byte	0
 1184 05c6 11       		.uleb128 0x11
 1185 05c7 CB050000 		.4byte	0x5cb
 1186 05cb 05       		.uleb128 0x5
ARM GAS  /var/folders/c6/c789hm653lg9vtl73krp73tm0000gn/T//ccUdz7k8.s 			page 39


 1187 05cc B6050000 		.4byte	0x5b6
 1188 05d0 14       		.uleb128 0x14
 1189 05d1 85010000 		.4byte	.LASF94
 1190 05d5 08       		.byte	0x8
 1191 05d6 8701     		.2byte	0x187
 1192 05d8 4D040000 		.4byte	0x44d
 1193 05dc 04       		.uleb128 0x4
 1194 05dd 74010000 		.4byte	.LASF95
 1195 05e1 09       		.byte	0x9
 1196 05e2 65       		.byte	0x65
 1197 05e3 10030000 		.4byte	0x310
 1198 05e7 04       		.uleb128 0x4
 1199 05e8 61020000 		.4byte	.LASF96
 1200 05ec 09       		.byte	0x9
 1201 05ed 6D       		.byte	0x6d
 1202 05ee B8000000 		.4byte	0xb8
 1203 05f2 06       		.uleb128 0x6
 1204 05f3 13050000 		.4byte	.LASF97
 1205 05f7 04       		.byte	0x4
 1206 05f8 09       		.byte	0x9
 1207 05f9 89       		.byte	0x89
 1208 05fa 0B060000 		.4byte	0x60b
 1209 05fe 15       		.uleb128 0x15
 1210 05ff 72313300 		.ascii	"r13\000"
 1211 0603 09       		.byte	0x9
 1212 0604 8A       		.byte	0x8a
 1213 0605 86060000 		.4byte	0x686
 1214 0609 00       		.byte	0
 1215 060a 00       		.byte	0
 1216 060b 06       		.uleb128 0x6
 1217 060c 2D000000 		.4byte	.LASF98
 1218 0610 24       		.byte	0x24
 1219 0611 0A       		.byte	0xa
 1220 0612 F4       		.byte	0xf4
 1221 0613 86060000 		.4byte	0x686
 1222 0617 08       		.uleb128 0x8
 1223 0618 723400   		.ascii	"r4\000"
 1224 061b 0A       		.byte	0xa
 1225 061c 0701     		.2byte	0x107
 1226 061e DC050000 		.4byte	0x5dc
 1227 0622 00       		.byte	0
 1228 0623 08       		.uleb128 0x8
 1229 0624 723500   		.ascii	"r5\000"
 1230 0627 0A       		.byte	0xa
 1231 0628 0801     		.2byte	0x108
 1232 062a DC050000 		.4byte	0x5dc
 1233 062e 04       		.byte	0x4
 1234 062f 08       		.uleb128 0x8
 1235 0630 723600   		.ascii	"r6\000"
 1236 0633 0A       		.byte	0xa
 1237 0634 0901     		.2byte	0x109
 1238 0636 DC050000 		.4byte	0x5dc
 1239 063a 08       		.byte	0x8
 1240 063b 08       		.uleb128 0x8
 1241 063c 723700   		.ascii	"r7\000"
 1242 063f 0A       		.byte	0xa
 1243 0640 0A01     		.2byte	0x10a
ARM GAS  /var/folders/c6/c789hm653lg9vtl73krp73tm0000gn/T//ccUdz7k8.s 			page 40


 1244 0642 DC050000 		.4byte	0x5dc
 1245 0646 0C       		.byte	0xc
 1246 0647 08       		.uleb128 0x8
 1247 0648 723800   		.ascii	"r8\000"
 1248 064b 0A       		.byte	0xa
 1249 064c 0B01     		.2byte	0x10b
 1250 064e DC050000 		.4byte	0x5dc
 1251 0652 10       		.byte	0x10
 1252 0653 08       		.uleb128 0x8
 1253 0654 723900   		.ascii	"r9\000"
 1254 0657 0A       		.byte	0xa
 1255 0658 0C01     		.2byte	0x10c
 1256 065a DC050000 		.4byte	0x5dc
 1257 065e 14       		.byte	0x14
 1258 065f 08       		.uleb128 0x8
 1259 0660 72313000 		.ascii	"r10\000"
 1260 0664 0A       		.byte	0xa
 1261 0665 0D01     		.2byte	0x10d
 1262 0667 DC050000 		.4byte	0x5dc
 1263 066b 18       		.byte	0x18
 1264 066c 08       		.uleb128 0x8
 1265 066d 72313100 		.ascii	"r11\000"
 1266 0671 0A       		.byte	0xa
 1267 0672 0E01     		.2byte	0x10e
 1268 0674 DC050000 		.4byte	0x5dc
 1269 0678 1C       		.byte	0x1c
 1270 0679 08       		.uleb128 0x8
 1271 067a 6C7200   		.ascii	"lr\000"
 1272 067d 0A       		.byte	0xa
 1273 067e 0F01     		.2byte	0x10f
 1274 0680 DC050000 		.4byte	0x5dc
 1275 0684 20       		.byte	0x20
 1276 0685 00       		.byte	0
 1277 0686 0A       		.uleb128 0xa
 1278 0687 04       		.byte	0x4
 1279 0688 0B060000 		.4byte	0x60b
 1280 068c 06       		.uleb128 0x6
 1281 068d D7020000 		.4byte	.LASF99
 1282 0691 20       		.byte	0x20
 1283 0692 0A       		.byte	0xa
 1284 0693 D5       		.byte	0xd5
 1285 0694 F4060000 		.4byte	0x6f4
 1286 0698 15       		.uleb128 0x15
 1287 0699 723000   		.ascii	"r0\000"
 1288 069c 0A       		.byte	0xa
 1289 069d D6       		.byte	0xd6
 1290 069e DC050000 		.4byte	0x5dc
 1291 06a2 00       		.byte	0
 1292 06a3 15       		.uleb128 0x15
 1293 06a4 723100   		.ascii	"r1\000"
 1294 06a7 0A       		.byte	0xa
 1295 06a8 D7       		.byte	0xd7
 1296 06a9 DC050000 		.4byte	0x5dc
 1297 06ad 04       		.byte	0x4
 1298 06ae 15       		.uleb128 0x15
 1299 06af 723200   		.ascii	"r2\000"
 1300 06b2 0A       		.byte	0xa
ARM GAS  /var/folders/c6/c789hm653lg9vtl73krp73tm0000gn/T//ccUdz7k8.s 			page 41


 1301 06b3 D8       		.byte	0xd8
 1302 06b4 DC050000 		.4byte	0x5dc
 1303 06b8 08       		.byte	0x8
 1304 06b9 15       		.uleb128 0x15
 1305 06ba 723300   		.ascii	"r3\000"
 1306 06bd 0A       		.byte	0xa
 1307 06be D9       		.byte	0xd9
 1308 06bf DC050000 		.4byte	0x5dc
 1309 06c3 0C       		.byte	0xc
 1310 06c4 15       		.uleb128 0x15
 1311 06c5 72313200 		.ascii	"r12\000"
 1312 06c9 0A       		.byte	0xa
 1313 06ca DA       		.byte	0xda
 1314 06cb DC050000 		.4byte	0x5dc
 1315 06cf 10       		.byte	0x10
 1316 06d0 07       		.uleb128 0x7
 1317 06d1 D7030000 		.4byte	.LASF100
 1318 06d5 0A       		.byte	0xa
 1319 06d6 DB       		.byte	0xdb
 1320 06d7 DC050000 		.4byte	0x5dc
 1321 06db 14       		.byte	0x14
 1322 06dc 15       		.uleb128 0x15
 1323 06dd 706300   		.ascii	"pc\000"
 1324 06e0 0A       		.byte	0xa
 1325 06e1 DC       		.byte	0xdc
 1326 06e2 DC050000 		.4byte	0x5dc
 1327 06e6 18       		.byte	0x18
 1328 06e7 07       		.uleb128 0x7
 1329 06e8 A2030000 		.4byte	.LASF101
 1330 06ec 0A       		.byte	0xa
 1331 06ed DD       		.byte	0xdd
 1332 06ee DC050000 		.4byte	0x5dc
 1333 06f2 1C       		.byte	0x1c
 1334 06f3 00       		.byte	0
 1335 06f4 16       		.uleb128 0x16
 1336 06f5 04       		.byte	0x4
 1337 06f6 0B       		.byte	0xb
 1338 06f7 38       		.byte	0x38
 1339 06f8 09070000 		.4byte	0x709
 1340 06fc 07       		.uleb128 0x7
 1341 06fd 0C050000 		.4byte	.LASF102
 1342 0701 0B       		.byte	0xb
 1343 0702 3C       		.byte	0x3c
 1344 0703 CD000000 		.4byte	0xcd
 1345 0707 00       		.byte	0
 1346 0708 00       		.byte	0
 1347 0709 04       		.uleb128 0x4
 1348 070a E3020000 		.4byte	.LASF103
 1349 070e 0B       		.byte	0xb
 1350 070f 3D       		.byte	0x3d
 1351 0710 F4060000 		.4byte	0x6f4
 1352 0714 17       		.uleb128 0x17
 1353 0715 04       		.byte	0x4
 1354 0716 07       		.byte	0x7
 1355 0717 FA       		.byte	0xfa
 1356 0718 71070000 		.4byte	0x771
 1357 071c 18       		.uleb128 0x18
ARM GAS  /var/folders/c6/c789hm653lg9vtl73krp73tm0000gn/T//ccUdz7k8.s 			page 42


 1358 071d 13000000 		.4byte	.LASF104
 1359 0721 07       		.byte	0x7
 1360 0722 0101     		.2byte	0x101
 1361 0724 04010000 		.4byte	0x104
 1362 0728 18       		.uleb128 0x18
 1363 0729 69000000 		.4byte	.LASF105
 1364 072d 07       		.byte	0x7
 1365 072e 0801     		.2byte	0x108
 1366 0730 04010000 		.4byte	0x104
 1367 0734 18       		.uleb128 0x18
 1368 0735 86050000 		.4byte	.LASF106
 1369 0739 07       		.byte	0x7
 1370 073a 0F01     		.2byte	0x10f
 1371 073c 10030000 		.4byte	0x310
 1372 0740 18       		.uleb128 0x18
 1373 0741 0D000000 		.4byte	.LASF107
 1374 0745 07       		.byte	0x7
 1375 0746 1601     		.2byte	0x116
 1376 0748 71070000 		.4byte	0x771
 1377 074c 18       		.uleb128 0x18
 1378 074d D0010000 		.4byte	.LASF108
 1379 0751 07       		.byte	0x7
 1380 0752 1E01     		.2byte	0x11e
 1381 0754 9C070000 		.4byte	0x79c
 1382 0758 18       		.uleb128 0x18
 1383 0759 1C040000 		.4byte	.LASF109
 1384 075d 07       		.byte	0x7
 1385 075e 2701     		.2byte	0x127
 1386 0760 D3070000 		.4byte	0x7d3
 1387 0764 18       		.uleb128 0x18
 1388 0765 AE030000 		.4byte	.LASF110
 1389 0769 07       		.byte	0x7
 1390 076a 2F01     		.2byte	0x12f
 1391 076c 0F010000 		.4byte	0x10f
 1392 0770 00       		.byte	0
 1393 0771 0A       		.uleb128 0xa
 1394 0772 04       		.byte	0x4
 1395 0773 28020000 		.4byte	0x228
 1396 0777 06       		.uleb128 0x6
 1397 0778 FB030000 		.4byte	.LASF111
 1398 077c 0C       		.byte	0xc
 1399 077d 0C       		.byte	0xc
 1400 077e 34       		.byte	0x34
 1401 077f 9C070000 		.4byte	0x79c
 1402 0783 07       		.uleb128 0x7
 1403 0784 5A010000 		.4byte	.LASF112
 1404 0788 0C       		.byte	0xc
 1405 0789 35       		.byte	0x35
 1406 078a 5D020000 		.4byte	0x25d
 1407 078e 00       		.byte	0
 1408 078f 07       		.uleb128 0x7
 1409 0790 E7010000 		.4byte	.LASF113
 1410 0794 0C       		.byte	0xc
 1411 0795 37       		.byte	0x37
 1412 0796 1A010000 		.4byte	0x11a
 1413 079a 08       		.byte	0x8
 1414 079b 00       		.byte	0
ARM GAS  /var/folders/c6/c789hm653lg9vtl73krp73tm0000gn/T//ccUdz7k8.s 			page 43


 1415 079c 0A       		.uleb128 0xa
 1416 079d 04       		.byte	0x4
 1417 079e 77070000 		.4byte	0x777
 1418 07a2 06       		.uleb128 0x6
 1419 07a3 63050000 		.4byte	.LASF114
 1420 07a7 10       		.byte	0x10
 1421 07a8 0D       		.byte	0xd
 1422 07a9 39       		.byte	0x39
 1423 07aa D3070000 		.4byte	0x7d3
 1424 07ae 07       		.uleb128 0x7
 1425 07af D8000000 		.4byte	.LASF115
 1426 07b3 0D       		.byte	0xd
 1427 07b4 3A       		.byte	0x3a
 1428 07b5 5D020000 		.4byte	0x25d
 1429 07b9 00       		.byte	0
 1430 07ba 07       		.uleb128 0x7
 1431 07bb 85060000 		.4byte	.LASF116
 1432 07bf 0D       		.byte	0xd
 1433 07c0 3C       		.byte	0x3c
 1434 07c1 33020000 		.4byte	0x233
 1435 07c5 08       		.byte	0x8
 1436 07c6 07       		.uleb128 0x7
 1437 07c7 C4040000 		.4byte	.LASF117
 1438 07cb 0D       		.byte	0xd
 1439 07cc 3E       		.byte	0x3e
 1440 07cd 11080000 		.4byte	0x811
 1441 07d1 0C       		.byte	0xc
 1442 07d2 00       		.byte	0
 1443 07d3 0A       		.uleb128 0xa
 1444 07d4 04       		.byte	0x4
 1445 07d5 A2070000 		.4byte	0x7a2
 1446 07d9 0A       		.uleb128 0xa
 1447 07da 04       		.byte	0x4
 1448 07db DF070000 		.4byte	0x7df
 1449 07df 11       		.uleb128 0x11
 1450 07e0 E4070000 		.4byte	0x7e4
 1451 07e4 03       		.uleb128 0x3
 1452 07e5 01       		.byte	0x1
 1453 07e6 08       		.byte	0x8
 1454 07e7 A1040000 		.4byte	.LASF118
 1455 07eb 0A       		.uleb128 0xa
 1456 07ec 04       		.byte	0x4
 1457 07ed 12030000 		.4byte	0x312
 1458 07f1 05       		.uleb128 0x5
 1459 07f2 D9070000 		.4byte	0x7d9
 1460 07f6 12       		.uleb128 0x12
 1461 07f7 E7050000 		.4byte	0x5e7
 1462 07fb 06080000 		.4byte	0x806
 1463 07ff 13       		.uleb128 0x13
 1464 0800 46040000 		.4byte	0x446
 1465 0804 1A       		.byte	0x1a
 1466 0805 00       		.byte	0
 1467 0806 04       		.uleb128 0x4
 1468 0807 8E010000 		.4byte	.LASF119
 1469 080b 0D       		.byte	0xd
 1470 080c 34       		.byte	0x34
 1471 080d A2070000 		.4byte	0x7a2
ARM GAS  /var/folders/c6/c789hm653lg9vtl73krp73tm0000gn/T//ccUdz7k8.s 			page 44


 1472 0811 0A       		.uleb128 0xa
 1473 0812 04       		.byte	0x4
 1474 0813 06080000 		.4byte	0x806
 1475 0817 19       		.uleb128 0x19
 1476 0818 F4040000 		.4byte	.LASF122
 1477 081c 02       		.byte	0x2
 1478 081d 2002     		.2byte	0x220
 1479 081f 03       		.byte	0x3
 1480 0820 31080000 		.4byte	0x831
 1481 0824 1A       		.uleb128 0x1a
 1482 0825 96010000 		.4byte	.LASF124
 1483 0829 02       		.byte	0x2
 1484 082a 2002     		.2byte	0x220
 1485 082c AD000000 		.4byte	0xad
 1486 0830 00       		.byte	0
 1487 0831 1B       		.uleb128 0x1b
 1488 0832 48000000 		.4byte	.LASF120
 1489 0836 0A       		.byte	0xa
 1490 0837 BC01     		.2byte	0x1bc
 1491 0839 03       		.byte	0x3
 1492 083a 1B       		.uleb128 0x1b
 1493 083b E7000000 		.4byte	.LASF121
 1494 083f 0A       		.byte	0xa
 1495 0840 CA01     		.2byte	0x1ca
 1496 0842 03       		.byte	0x3
 1497 0843 1C       		.uleb128 0x1c
 1498 0844 42050000 		.4byte	.LASF135
 1499 0848 02       		.byte	0x2
 1500 0849 A801     		.2byte	0x1a8
 1501 084b AD000000 		.4byte	0xad
 1502 084f 03       		.byte	0x3
 1503 0850 61080000 		.4byte	0x861
 1504 0854 1D       		.uleb128 0x1d
 1505 0855 8D060000 		.4byte	.LASF128
 1506 0859 02       		.byte	0x2
 1507 085a AA01     		.2byte	0x1aa
 1508 085c AD000000 		.4byte	0xad
 1509 0860 00       		.byte	0
 1510 0861 19       		.uleb128 0x19
 1511 0862 BE010000 		.4byte	.LASF123
 1512 0866 02       		.byte	0x2
 1513 0867 B701     		.2byte	0x1b7
 1514 0869 03       		.byte	0x3
 1515 086a 7B080000 		.4byte	0x87b
 1516 086e 1A       		.uleb128 0x1a
 1517 086f 48020000 		.4byte	.LASF125
 1518 0873 02       		.byte	0x2
 1519 0874 B701     		.2byte	0x1b7
 1520 0876 AD000000 		.4byte	0xad
 1521 087a 00       		.byte	0
 1522 087b 1B       		.uleb128 0x1b
 1523 087c A6040000 		.4byte	.LASF126
 1524 0880 0A       		.byte	0xa
 1525 0881 E401     		.2byte	0x1e4
 1526 0883 03       		.byte	0x3
 1527 0884 1B       		.uleb128 0x1b
 1528 0885 2F050000 		.4byte	.LASF127
ARM GAS  /var/folders/c6/c789hm653lg9vtl73krp73tm0000gn/T//ccUdz7k8.s 			page 45


 1529 0889 0A       		.byte	0xa
 1530 088a D901     		.2byte	0x1d9
 1531 088c 03       		.byte	0x3
 1532 088d 1E       		.uleb128 0x1e
 1533 088e 13020000 		.4byte	.LASF136
 1534 0892 01       		.byte	0x1
 1535 0893 7A       		.byte	0x7a
 1536 0894 01       		.byte	0x1
 1537 0895 A7080000 		.4byte	0x8a7
 1538 0899 1F       		.uleb128 0x1f
 1539 089a 20       		.uleb128 0x20
 1540 089b 23030000 		.4byte	.LASF129
 1541 089f 01       		.byte	0x1
 1542 08a0 7E       		.byte	0x7e
 1543 08a1 A7080000 		.4byte	0x8a7
 1544 08a5 00       		.byte	0
 1545 08a6 00       		.byte	0
 1546 08a7 0A       		.uleb128 0xa
 1547 08a8 04       		.byte	0x4
 1548 08a9 8C060000 		.4byte	0x68c
 1549 08ad 21       		.uleb128 0x21
 1550 08ae DE030000 		.4byte	.LASF137
 1551 08b2 01       		.byte	0x1
 1552 08b3 3E       		.byte	0x3e
 1553 08b4 00000000 		.4byte	.LFB229
 1554 08b8 12000000 		.4byte	.LFE229-.LFB229
 1555 08bc 01       		.uleb128 0x1
 1556 08bd 9C       		.byte	0x9c
 1557 08be 4E090000 		.4byte	0x94e
 1558 08c2 22       		.uleb128 0x22
 1559 08c3 23030000 		.4byte	.LASF129
 1560 08c7 01       		.byte	0x1
 1561 08c8 40       		.byte	0x40
 1562 08c9 A7080000 		.4byte	0x8a7
 1563 08cd 00000000 		.4byte	.LLST0
 1564 08d1 23       		.uleb128 0x23
 1565 08d2 43080000 		.4byte	0x843
 1566 08d6 00000000 		.4byte	.LBB51
 1567 08da 04000000 		.4byte	.LBE51-.LBB51
 1568 08de 01       		.byte	0x1
 1569 08df 48       		.byte	0x48
 1570 08e0 F8080000 		.4byte	0x8f8
 1571 08e4 24       		.uleb128 0x24
 1572 08e5 00000000 		.4byte	.LBB52
 1573 08e9 04000000 		.4byte	.LBE52-.LBB52
 1574 08ed 25       		.uleb128 0x25
 1575 08ee 54080000 		.4byte	0x854
 1576 08f2 20000000 		.4byte	.LLST1
 1577 08f6 00       		.byte	0
 1578 08f7 00       		.byte	0
 1579 08f8 23       		.uleb128 0x23
 1580 08f9 61080000 		.4byte	0x861
 1581 08fd 06000000 		.4byte	.LBB53
 1582 0901 04000000 		.4byte	.LBE53-.LBB53
 1583 0905 01       		.byte	0x1
 1584 0906 4F       		.byte	0x4f
 1585 0907 15090000 		.4byte	0x915
ARM GAS  /var/folders/c6/c789hm653lg9vtl73krp73tm0000gn/T//ccUdz7k8.s 			page 46


 1586 090b 26       		.uleb128 0x26
 1587 090c 6E080000 		.4byte	0x86e
 1588 0910 00000000 		.4byte	.LLST0
 1589 0914 00       		.byte	0
 1590 0915 27       		.uleb128 0x27
 1591 0916 7B080000 		.4byte	0x87b
 1592 091a 0A000000 		.4byte	.LBB55
 1593 091e 08000000 		.4byte	.LBE55-.LBB55
 1594 0922 01       		.byte	0x1
 1595 0923 52       		.byte	0x52
 1596 0924 28       		.uleb128 0x28
 1597 0925 3A080000 		.4byte	0x83a
 1598 0929 0A000000 		.4byte	.LBB56
 1599 092d 08000000 		.4byte	.LBE56-.LBB56
 1600 0931 0A       		.byte	0xa
 1601 0932 E601     		.2byte	0x1e6
 1602 0934 28       		.uleb128 0x28
 1603 0935 17080000 		.4byte	0x817
 1604 0939 0A000000 		.4byte	.LBB57
 1605 093d 08000000 		.4byte	.LBE57-.LBB57
 1606 0941 0A       		.byte	0xa
 1607 0942 CD01     		.2byte	0x1cd
 1608 0944 29       		.uleb128 0x29
 1609 0945 24080000 		.4byte	0x824
 1610 0949 00       		.byte	0
 1611 094a 00       		.byte	0
 1612 094b 00       		.byte	0
 1613 094c 00       		.byte	0
 1614 094d 00       		.byte	0
 1615 094e 2A       		.uleb128 0x2a
 1616 094f 8D080000 		.4byte	0x88d
 1617 0953 00000000 		.4byte	.LFB230
 1618 0957 50000000 		.4byte	.LFE230-.LFB230
 1619 095b 01       		.uleb128 0x1
 1620 095c 9C       		.byte	0x9c
 1621 095d 3D0A0000 		.4byte	0xa3d
 1622 0961 23       		.uleb128 0x23
 1623 0962 84080000 		.4byte	0x884
 1624 0966 02000000 		.4byte	.LBB83
 1625 096a 06000000 		.4byte	.LBE83-.LBB83
 1626 096e 01       		.byte	0x1
 1627 096f 7C       		.byte	0x7c
 1628 0970 9D090000 		.4byte	0x99d
 1629 0974 28       		.uleb128 0x28
 1630 0975 31080000 		.4byte	0x831
 1631 0979 02000000 		.4byte	.LBB84
 1632 097d 06000000 		.4byte	.LBE84-.LBB84
 1633 0981 0A       		.byte	0xa
 1634 0982 DB01     		.2byte	0x1db
 1635 0984 28       		.uleb128 0x28
 1636 0985 17080000 		.4byte	0x817
 1637 0989 02000000 		.4byte	.LBB85
 1638 098d 06000000 		.4byte	.LBE85-.LBB85
 1639 0991 0A       		.byte	0xa
 1640 0992 BF01     		.2byte	0x1bf
 1641 0994 29       		.uleb128 0x29
 1642 0995 24080000 		.4byte	0x824
ARM GAS  /var/folders/c6/c789hm653lg9vtl73krp73tm0000gn/T//ccUdz7k8.s 			page 47


 1643 0999 20       		.byte	0x20
 1644 099a 00       		.byte	0
 1645 099b 00       		.byte	0
 1646 099c 00       		.byte	0
 1647 099d 23       		.uleb128 0x23
 1648 099e 7B080000 		.4byte	0x87b
 1649 09a2 12000000 		.4byte	.LBB87
 1650 09a6 06000000 		.4byte	.LBE87-.LBB87
 1651 09aa 01       		.byte	0x1
 1652 09ab A5       		.byte	0xa5
 1653 09ac DC090000 		.4byte	0x9dc
 1654 09b0 28       		.uleb128 0x28
 1655 09b1 3A080000 		.4byte	0x83a
 1656 09b5 12000000 		.4byte	.LBB88
 1657 09b9 06000000 		.4byte	.LBE88-.LBB88
 1658 09bd 0A       		.byte	0xa
 1659 09be E601     		.2byte	0x1e6
 1660 09c0 28       		.uleb128 0x28
 1661 09c1 17080000 		.4byte	0x817
 1662 09c5 12000000 		.4byte	.LBB89
 1663 09c9 06000000 		.4byte	.LBE89-.LBB89
 1664 09cd 0A       		.byte	0xa
 1665 09ce CD01     		.2byte	0x1cd
 1666 09d0 26       		.uleb128 0x26
 1667 09d1 24080000 		.4byte	0x824
 1668 09d5 40000000 		.4byte	.LLST3
 1669 09d9 00       		.byte	0
 1670 09da 00       		.byte	0
 1671 09db 00       		.byte	0
 1672 09dc 24       		.uleb128 0x24
 1673 09dd 18000000 		.4byte	.LBB92
 1674 09e1 38000000 		.4byte	.LBE92-.LBB92
 1675 09e5 25       		.uleb128 0x25
 1676 09e6 9A080000 		.4byte	0x89a
 1677 09ea 54000000 		.4byte	.LLST4
 1678 09ee 23       		.uleb128 0x23
 1679 09ef 43080000 		.4byte	0x843
 1680 09f3 18000000 		.4byte	.LBB93
 1681 09f7 04000000 		.4byte	.LBE93-.LBB93
 1682 09fb 01       		.byte	0x1
 1683 09fc 86       		.byte	0x86
 1684 09fd 150A0000 		.4byte	0xa15
 1685 0a01 24       		.uleb128 0x24
 1686 0a02 18000000 		.4byte	.LBB94
 1687 0a06 04000000 		.4byte	.LBE94-.LBB94
 1688 0a0a 25       		.uleb128 0x25
 1689 0a0b 54080000 		.4byte	0x854
 1690 0a0f 81000000 		.4byte	.LLST5
 1691 0a13 00       		.byte	0
 1692 0a14 00       		.byte	0
 1693 0a15 23       		.uleb128 0x23
 1694 0a16 61080000 		.4byte	0x861
 1695 0a1a 28000000 		.4byte	.LBB95
 1696 0a1e 04000000 		.4byte	.LBE95-.LBB95
 1697 0a22 01       		.byte	0x1
 1698 0a23 93       		.byte	0x93
 1699 0a24 320A0000 		.4byte	0xa32
ARM GAS  /var/folders/c6/c789hm653lg9vtl73krp73tm0000gn/T//ccUdz7k8.s 			page 48


 1700 0a28 26       		.uleb128 0x26
 1701 0a29 6E080000 		.4byte	0x86e
 1702 0a2d 94000000 		.4byte	.LLST6
 1703 0a31 00       		.byte	0
 1704 0a32 2B       		.uleb128 0x2b
 1705 0a33 30000000 		.4byte	.LVL10
 1706 0a37 540A0000 		.4byte	0xa54
 1707 0a3b 00       		.byte	0
 1708 0a3c 00       		.byte	0
 1709 0a3d 2C       		.uleb128 0x2c
 1710 0a3e 79030000 		.4byte	.LASF130
 1711 0a42 08       		.byte	0x8
 1712 0a43 A706     		.2byte	0x6a7
 1713 0a45 C3000000 		.4byte	0xc3
 1714 0a49 2D       		.uleb128 0x2d
 1715 0a4a 636800   		.ascii	"ch\000"
 1716 0a4d 07       		.byte	0x7
 1717 0a4e 0902     		.2byte	0x209
 1718 0a50 DF030000 		.4byte	0x3df
 1719 0a54 2E       		.uleb128 0x2e
 1720 0a55 38010000 		.4byte	.LASF138
 1721 0a59 07       		.byte	0x7
 1722 0a5a 1802     		.2byte	0x218
 1723 0a5c 600A0000 		.4byte	0xa60
 1724 0a60 03       		.uleb128 0x3
 1725 0a61 01       		.byte	0x1
 1726 0a62 02       		.byte	0x2
 1727 0a63 57030000 		.4byte	.LASF131
 1728 0a67 00       		.byte	0
 1729              		.section	.debug_abbrev,"",%progbits
 1730              	.Ldebug_abbrev0:
 1731 0000 01       		.uleb128 0x1
 1732 0001 11       		.uleb128 0x11
 1733 0002 01       		.byte	0x1
 1734 0003 25       		.uleb128 0x25
 1735 0004 0E       		.uleb128 0xe
 1736 0005 13       		.uleb128 0x13
 1737 0006 0B       		.uleb128 0xb
 1738 0007 03       		.uleb128 0x3
 1739 0008 0E       		.uleb128 0xe
 1740 0009 1B       		.uleb128 0x1b
 1741 000a 0E       		.uleb128 0xe
 1742 000b 55       		.uleb128 0x55
 1743 000c 17       		.uleb128 0x17
 1744 000d 11       		.uleb128 0x11
 1745 000e 01       		.uleb128 0x1
 1746 000f 10       		.uleb128 0x10
 1747 0010 17       		.uleb128 0x17
 1748 0011 00       		.byte	0
 1749 0012 00       		.byte	0
 1750 0013 02       		.uleb128 0x2
 1751 0014 24       		.uleb128 0x24
 1752 0015 00       		.byte	0
 1753 0016 0B       		.uleb128 0xb
 1754 0017 0B       		.uleb128 0xb
 1755 0018 3E       		.uleb128 0x3e
 1756 0019 0B       		.uleb128 0xb
ARM GAS  /var/folders/c6/c789hm653lg9vtl73krp73tm0000gn/T//ccUdz7k8.s 			page 49


 1757 001a 03       		.uleb128 0x3
 1758 001b 08       		.uleb128 0x8
 1759 001c 00       		.byte	0
 1760 001d 00       		.byte	0
 1761 001e 03       		.uleb128 0x3
 1762 001f 24       		.uleb128 0x24
 1763 0020 00       		.byte	0
 1764 0021 0B       		.uleb128 0xb
 1765 0022 0B       		.uleb128 0xb
 1766 0023 3E       		.uleb128 0x3e
 1767 0024 0B       		.uleb128 0xb
 1768 0025 03       		.uleb128 0x3
 1769 0026 0E       		.uleb128 0xe
 1770 0027 00       		.byte	0
 1771 0028 00       		.byte	0
 1772 0029 04       		.uleb128 0x4
 1773 002a 16       		.uleb128 0x16
 1774 002b 00       		.byte	0
 1775 002c 03       		.uleb128 0x3
 1776 002d 0E       		.uleb128 0xe
 1777 002e 3A       		.uleb128 0x3a
 1778 002f 0B       		.uleb128 0xb
 1779 0030 3B       		.uleb128 0x3b
 1780 0031 0B       		.uleb128 0xb
 1781 0032 49       		.uleb128 0x49
 1782 0033 13       		.uleb128 0x13
 1783 0034 00       		.byte	0
 1784 0035 00       		.byte	0
 1785 0036 05       		.uleb128 0x5
 1786 0037 35       		.uleb128 0x35
 1787 0038 00       		.byte	0
 1788 0039 49       		.uleb128 0x49
 1789 003a 13       		.uleb128 0x13
 1790 003b 00       		.byte	0
 1791 003c 00       		.byte	0
 1792 003d 06       		.uleb128 0x6
 1793 003e 13       		.uleb128 0x13
 1794 003f 01       		.byte	0x1
 1795 0040 03       		.uleb128 0x3
 1796 0041 0E       		.uleb128 0xe
 1797 0042 0B       		.uleb128 0xb
 1798 0043 0B       		.uleb128 0xb
 1799 0044 3A       		.uleb128 0x3a
 1800 0045 0B       		.uleb128 0xb
 1801 0046 3B       		.uleb128 0x3b
 1802 0047 0B       		.uleb128 0xb
 1803 0048 01       		.uleb128 0x1
 1804 0049 13       		.uleb128 0x13
 1805 004a 00       		.byte	0
 1806 004b 00       		.byte	0
 1807 004c 07       		.uleb128 0x7
 1808 004d 0D       		.uleb128 0xd
 1809 004e 00       		.byte	0
 1810 004f 03       		.uleb128 0x3
 1811 0050 0E       		.uleb128 0xe
 1812 0051 3A       		.uleb128 0x3a
 1813 0052 0B       		.uleb128 0xb
ARM GAS  /var/folders/c6/c789hm653lg9vtl73krp73tm0000gn/T//ccUdz7k8.s 			page 50


 1814 0053 3B       		.uleb128 0x3b
 1815 0054 0B       		.uleb128 0xb
 1816 0055 49       		.uleb128 0x49
 1817 0056 13       		.uleb128 0x13
 1818 0057 38       		.uleb128 0x38
 1819 0058 0B       		.uleb128 0xb
 1820 0059 00       		.byte	0
 1821 005a 00       		.byte	0
 1822 005b 08       		.uleb128 0x8
 1823 005c 0D       		.uleb128 0xd
 1824 005d 00       		.byte	0
 1825 005e 03       		.uleb128 0x3
 1826 005f 08       		.uleb128 0x8
 1827 0060 3A       		.uleb128 0x3a
 1828 0061 0B       		.uleb128 0xb
 1829 0062 3B       		.uleb128 0x3b
 1830 0063 05       		.uleb128 0x5
 1831 0064 49       		.uleb128 0x49
 1832 0065 13       		.uleb128 0x13
 1833 0066 38       		.uleb128 0x38
 1834 0067 0B       		.uleb128 0xb
 1835 0068 00       		.byte	0
 1836 0069 00       		.byte	0
 1837 006a 09       		.uleb128 0x9
 1838 006b 0D       		.uleb128 0xd
 1839 006c 00       		.byte	0
 1840 006d 03       		.uleb128 0x3
 1841 006e 0E       		.uleb128 0xe
 1842 006f 3A       		.uleb128 0x3a
 1843 0070 0B       		.uleb128 0xb
 1844 0071 3B       		.uleb128 0x3b
 1845 0072 05       		.uleb128 0x5
 1846 0073 49       		.uleb128 0x49
 1847 0074 13       		.uleb128 0x13
 1848 0075 38       		.uleb128 0x38
 1849 0076 0B       		.uleb128 0xb
 1850 0077 00       		.byte	0
 1851 0078 00       		.byte	0
 1852 0079 0A       		.uleb128 0xa
 1853 007a 0F       		.uleb128 0xf
 1854 007b 00       		.byte	0
 1855 007c 0B       		.uleb128 0xb
 1856 007d 0B       		.uleb128 0xb
 1857 007e 49       		.uleb128 0x49
 1858 007f 13       		.uleb128 0x13
 1859 0080 00       		.byte	0
 1860 0081 00       		.byte	0
 1861 0082 0B       		.uleb128 0xb
 1862 0083 13       		.uleb128 0x13
 1863 0084 01       		.byte	0x1
 1864 0085 03       		.uleb128 0x3
 1865 0086 0E       		.uleb128 0xe
 1866 0087 0B       		.uleb128 0xb
 1867 0088 0B       		.uleb128 0xb
 1868 0089 3A       		.uleb128 0x3a
 1869 008a 0B       		.uleb128 0xb
 1870 008b 3B       		.uleb128 0x3b
ARM GAS  /var/folders/c6/c789hm653lg9vtl73krp73tm0000gn/T//ccUdz7k8.s 			page 51


 1871 008c 05       		.uleb128 0x5
 1872 008d 01       		.uleb128 0x1
 1873 008e 13       		.uleb128 0x13
 1874 008f 00       		.byte	0
 1875 0090 00       		.byte	0
 1876 0091 0C       		.uleb128 0xc
 1877 0092 15       		.uleb128 0x15
 1878 0093 01       		.byte	0x1
 1879 0094 27       		.uleb128 0x27
 1880 0095 19       		.uleb128 0x19
 1881 0096 01       		.uleb128 0x1
 1882 0097 13       		.uleb128 0x13
 1883 0098 00       		.byte	0
 1884 0099 00       		.byte	0
 1885 009a 0D       		.uleb128 0xd
 1886 009b 05       		.uleb128 0x5
 1887 009c 00       		.byte	0
 1888 009d 49       		.uleb128 0x49
 1889 009e 13       		.uleb128 0x13
 1890 009f 00       		.byte	0
 1891 00a0 00       		.byte	0
 1892 00a1 0E       		.uleb128 0xe
 1893 00a2 0F       		.uleb128 0xf
 1894 00a3 00       		.byte	0
 1895 00a4 0B       		.uleb128 0xb
 1896 00a5 0B       		.uleb128 0xb
 1897 00a6 00       		.byte	0
 1898 00a7 00       		.byte	0
 1899 00a8 0F       		.uleb128 0xf
 1900 00a9 13       		.uleb128 0x13
 1901 00aa 01       		.byte	0x1
 1902 00ab 03       		.uleb128 0x3
 1903 00ac 0E       		.uleb128 0xe
 1904 00ad 0B       		.uleb128 0xb
 1905 00ae 05       		.uleb128 0x5
 1906 00af 3A       		.uleb128 0x3a
 1907 00b0 0B       		.uleb128 0xb
 1908 00b1 3B       		.uleb128 0x3b
 1909 00b2 05       		.uleb128 0x5
 1910 00b3 01       		.uleb128 0x1
 1911 00b4 13       		.uleb128 0x13
 1912 00b5 00       		.byte	0
 1913 00b6 00       		.byte	0
 1914 00b7 10       		.uleb128 0x10
 1915 00b8 13       		.uleb128 0x13
 1916 00b9 01       		.byte	0x1
 1917 00ba 0B       		.uleb128 0xb
 1918 00bb 0B       		.uleb128 0xb
 1919 00bc 3A       		.uleb128 0x3a
 1920 00bd 0B       		.uleb128 0xb
 1921 00be 3B       		.uleb128 0x3b
 1922 00bf 05       		.uleb128 0x5
 1923 00c0 01       		.uleb128 0x1
 1924 00c1 13       		.uleb128 0x13
 1925 00c2 00       		.byte	0
 1926 00c3 00       		.byte	0
 1927 00c4 11       		.uleb128 0x11
ARM GAS  /var/folders/c6/c789hm653lg9vtl73krp73tm0000gn/T//ccUdz7k8.s 			page 52


 1928 00c5 26       		.uleb128 0x26
 1929 00c6 00       		.byte	0
 1930 00c7 49       		.uleb128 0x49
 1931 00c8 13       		.uleb128 0x13
 1932 00c9 00       		.byte	0
 1933 00ca 00       		.byte	0
 1934 00cb 12       		.uleb128 0x12
 1935 00cc 01       		.uleb128 0x1
 1936 00cd 01       		.byte	0x1
 1937 00ce 49       		.uleb128 0x49
 1938 00cf 13       		.uleb128 0x13
 1939 00d0 01       		.uleb128 0x1
 1940 00d1 13       		.uleb128 0x13
 1941 00d2 00       		.byte	0
 1942 00d3 00       		.byte	0
 1943 00d4 13       		.uleb128 0x13
 1944 00d5 21       		.uleb128 0x21
 1945 00d6 00       		.byte	0
 1946 00d7 49       		.uleb128 0x49
 1947 00d8 13       		.uleb128 0x13
 1948 00d9 2F       		.uleb128 0x2f
 1949 00da 0B       		.uleb128 0xb
 1950 00db 00       		.byte	0
 1951 00dc 00       		.byte	0
 1952 00dd 14       		.uleb128 0x14
 1953 00de 16       		.uleb128 0x16
 1954 00df 00       		.byte	0
 1955 00e0 03       		.uleb128 0x3
 1956 00e1 0E       		.uleb128 0xe
 1957 00e2 3A       		.uleb128 0x3a
 1958 00e3 0B       		.uleb128 0xb
 1959 00e4 3B       		.uleb128 0x3b
 1960 00e5 05       		.uleb128 0x5
 1961 00e6 49       		.uleb128 0x49
 1962 00e7 13       		.uleb128 0x13
 1963 00e8 00       		.byte	0
 1964 00e9 00       		.byte	0
 1965 00ea 15       		.uleb128 0x15
 1966 00eb 0D       		.uleb128 0xd
 1967 00ec 00       		.byte	0
 1968 00ed 03       		.uleb128 0x3
 1969 00ee 08       		.uleb128 0x8
 1970 00ef 3A       		.uleb128 0x3a
 1971 00f0 0B       		.uleb128 0xb
 1972 00f1 3B       		.uleb128 0x3b
 1973 00f2 0B       		.uleb128 0xb
 1974 00f3 49       		.uleb128 0x49
 1975 00f4 13       		.uleb128 0x13
 1976 00f5 38       		.uleb128 0x38
 1977 00f6 0B       		.uleb128 0xb
 1978 00f7 00       		.byte	0
 1979 00f8 00       		.byte	0
 1980 00f9 16       		.uleb128 0x16
 1981 00fa 13       		.uleb128 0x13
 1982 00fb 01       		.byte	0x1
 1983 00fc 0B       		.uleb128 0xb
 1984 00fd 0B       		.uleb128 0xb
ARM GAS  /var/folders/c6/c789hm653lg9vtl73krp73tm0000gn/T//ccUdz7k8.s 			page 53


 1985 00fe 3A       		.uleb128 0x3a
 1986 00ff 0B       		.uleb128 0xb
 1987 0100 3B       		.uleb128 0x3b
 1988 0101 0B       		.uleb128 0xb
 1989 0102 01       		.uleb128 0x1
 1990 0103 13       		.uleb128 0x13
 1991 0104 00       		.byte	0
 1992 0105 00       		.byte	0
 1993 0106 17       		.uleb128 0x17
 1994 0107 17       		.uleb128 0x17
 1995 0108 01       		.byte	0x1
 1996 0109 0B       		.uleb128 0xb
 1997 010a 0B       		.uleb128 0xb
 1998 010b 3A       		.uleb128 0x3a
 1999 010c 0B       		.uleb128 0xb
 2000 010d 3B       		.uleb128 0x3b
 2001 010e 0B       		.uleb128 0xb
 2002 010f 01       		.uleb128 0x1
 2003 0110 13       		.uleb128 0x13
 2004 0111 00       		.byte	0
 2005 0112 00       		.byte	0
 2006 0113 18       		.uleb128 0x18
 2007 0114 0D       		.uleb128 0xd
 2008 0115 00       		.byte	0
 2009 0116 03       		.uleb128 0x3
 2010 0117 0E       		.uleb128 0xe
 2011 0118 3A       		.uleb128 0x3a
 2012 0119 0B       		.uleb128 0xb
 2013 011a 3B       		.uleb128 0x3b
 2014 011b 05       		.uleb128 0x5
 2015 011c 49       		.uleb128 0x49
 2016 011d 13       		.uleb128 0x13
 2017 011e 00       		.byte	0
 2018 011f 00       		.byte	0
 2019 0120 19       		.uleb128 0x19
 2020 0121 2E       		.uleb128 0x2e
 2021 0122 01       		.byte	0x1
 2022 0123 03       		.uleb128 0x3
 2023 0124 0E       		.uleb128 0xe
 2024 0125 3A       		.uleb128 0x3a
 2025 0126 0B       		.uleb128 0xb
 2026 0127 3B       		.uleb128 0x3b
 2027 0128 05       		.uleb128 0x5
 2028 0129 27       		.uleb128 0x27
 2029 012a 19       		.uleb128 0x19
 2030 012b 20       		.uleb128 0x20
 2031 012c 0B       		.uleb128 0xb
 2032 012d 01       		.uleb128 0x1
 2033 012e 13       		.uleb128 0x13
 2034 012f 00       		.byte	0
 2035 0130 00       		.byte	0
 2036 0131 1A       		.uleb128 0x1a
 2037 0132 05       		.uleb128 0x5
 2038 0133 00       		.byte	0
 2039 0134 03       		.uleb128 0x3
 2040 0135 0E       		.uleb128 0xe
 2041 0136 3A       		.uleb128 0x3a
ARM GAS  /var/folders/c6/c789hm653lg9vtl73krp73tm0000gn/T//ccUdz7k8.s 			page 54


 2042 0137 0B       		.uleb128 0xb
 2043 0138 3B       		.uleb128 0x3b
 2044 0139 05       		.uleb128 0x5
 2045 013a 49       		.uleb128 0x49
 2046 013b 13       		.uleb128 0x13
 2047 013c 00       		.byte	0
 2048 013d 00       		.byte	0
 2049 013e 1B       		.uleb128 0x1b
 2050 013f 2E       		.uleb128 0x2e
 2051 0140 00       		.byte	0
 2052 0141 03       		.uleb128 0x3
 2053 0142 0E       		.uleb128 0xe
 2054 0143 3A       		.uleb128 0x3a
 2055 0144 0B       		.uleb128 0xb
 2056 0145 3B       		.uleb128 0x3b
 2057 0146 05       		.uleb128 0x5
 2058 0147 27       		.uleb128 0x27
 2059 0148 19       		.uleb128 0x19
 2060 0149 20       		.uleb128 0x20
 2061 014a 0B       		.uleb128 0xb
 2062 014b 00       		.byte	0
 2063 014c 00       		.byte	0
 2064 014d 1C       		.uleb128 0x1c
 2065 014e 2E       		.uleb128 0x2e
 2066 014f 01       		.byte	0x1
 2067 0150 03       		.uleb128 0x3
 2068 0151 0E       		.uleb128 0xe
 2069 0152 3A       		.uleb128 0x3a
 2070 0153 0B       		.uleb128 0xb
 2071 0154 3B       		.uleb128 0x3b
 2072 0155 05       		.uleb128 0x5
 2073 0156 27       		.uleb128 0x27
 2074 0157 19       		.uleb128 0x19
 2075 0158 49       		.uleb128 0x49
 2076 0159 13       		.uleb128 0x13
 2077 015a 20       		.uleb128 0x20
 2078 015b 0B       		.uleb128 0xb
 2079 015c 01       		.uleb128 0x1
 2080 015d 13       		.uleb128 0x13
 2081 015e 00       		.byte	0
 2082 015f 00       		.byte	0
 2083 0160 1D       		.uleb128 0x1d
 2084 0161 34       		.uleb128 0x34
 2085 0162 00       		.byte	0
 2086 0163 03       		.uleb128 0x3
 2087 0164 0E       		.uleb128 0xe
 2088 0165 3A       		.uleb128 0x3a
 2089 0166 0B       		.uleb128 0xb
 2090 0167 3B       		.uleb128 0x3b
 2091 0168 05       		.uleb128 0x5
 2092 0169 49       		.uleb128 0x49
 2093 016a 13       		.uleb128 0x13
 2094 016b 00       		.byte	0
 2095 016c 00       		.byte	0
 2096 016d 1E       		.uleb128 0x1e
 2097 016e 2E       		.uleb128 0x2e
 2098 016f 01       		.byte	0x1
ARM GAS  /var/folders/c6/c789hm653lg9vtl73krp73tm0000gn/T//ccUdz7k8.s 			page 55


 2099 0170 3F       		.uleb128 0x3f
 2100 0171 19       		.uleb128 0x19
 2101 0172 03       		.uleb128 0x3
 2102 0173 0E       		.uleb128 0xe
 2103 0174 3A       		.uleb128 0x3a
 2104 0175 0B       		.uleb128 0xb
 2105 0176 3B       		.uleb128 0x3b
 2106 0177 0B       		.uleb128 0xb
 2107 0178 27       		.uleb128 0x27
 2108 0179 19       		.uleb128 0x19
 2109 017a 20       		.uleb128 0x20
 2110 017b 0B       		.uleb128 0xb
 2111 017c 01       		.uleb128 0x1
 2112 017d 13       		.uleb128 0x13
 2113 017e 00       		.byte	0
 2114 017f 00       		.byte	0
 2115 0180 1F       		.uleb128 0x1f
 2116 0181 0B       		.uleb128 0xb
 2117 0182 01       		.byte	0x1
 2118 0183 00       		.byte	0
 2119 0184 00       		.byte	0
 2120 0185 20       		.uleb128 0x20
 2121 0186 34       		.uleb128 0x34
 2122 0187 00       		.byte	0
 2123 0188 03       		.uleb128 0x3
 2124 0189 0E       		.uleb128 0xe
 2125 018a 3A       		.uleb128 0x3a
 2126 018b 0B       		.uleb128 0xb
 2127 018c 3B       		.uleb128 0x3b
 2128 018d 0B       		.uleb128 0xb
 2129 018e 49       		.uleb128 0x49
 2130 018f 13       		.uleb128 0x13
 2131 0190 00       		.byte	0
 2132 0191 00       		.byte	0
 2133 0192 21       		.uleb128 0x21
 2134 0193 2E       		.uleb128 0x2e
 2135 0194 01       		.byte	0x1
 2136 0195 3F       		.uleb128 0x3f
 2137 0196 19       		.uleb128 0x19
 2138 0197 03       		.uleb128 0x3
 2139 0198 0E       		.uleb128 0xe
 2140 0199 3A       		.uleb128 0x3a
 2141 019a 0B       		.uleb128 0xb
 2142 019b 3B       		.uleb128 0x3b
 2143 019c 0B       		.uleb128 0xb
 2144 019d 27       		.uleb128 0x27
 2145 019e 19       		.uleb128 0x19
 2146 019f 11       		.uleb128 0x11
 2147 01a0 01       		.uleb128 0x1
 2148 01a1 12       		.uleb128 0x12
 2149 01a2 06       		.uleb128 0x6
 2150 01a3 40       		.uleb128 0x40
 2151 01a4 18       		.uleb128 0x18
 2152 01a5 9742     		.uleb128 0x2117
 2153 01a7 19       		.uleb128 0x19
 2154 01a8 01       		.uleb128 0x1
 2155 01a9 13       		.uleb128 0x13
ARM GAS  /var/folders/c6/c789hm653lg9vtl73krp73tm0000gn/T//ccUdz7k8.s 			page 56


 2156 01aa 00       		.byte	0
 2157 01ab 00       		.byte	0
 2158 01ac 22       		.uleb128 0x22
 2159 01ad 34       		.uleb128 0x34
 2160 01ae 00       		.byte	0
 2161 01af 03       		.uleb128 0x3
 2162 01b0 0E       		.uleb128 0xe
 2163 01b1 3A       		.uleb128 0x3a
 2164 01b2 0B       		.uleb128 0xb
 2165 01b3 3B       		.uleb128 0x3b
 2166 01b4 0B       		.uleb128 0xb
 2167 01b5 49       		.uleb128 0x49
 2168 01b6 13       		.uleb128 0x13
 2169 01b7 02       		.uleb128 0x2
 2170 01b8 17       		.uleb128 0x17
 2171 01b9 00       		.byte	0
 2172 01ba 00       		.byte	0
 2173 01bb 23       		.uleb128 0x23
 2174 01bc 1D       		.uleb128 0x1d
 2175 01bd 01       		.byte	0x1
 2176 01be 31       		.uleb128 0x31
 2177 01bf 13       		.uleb128 0x13
 2178 01c0 11       		.uleb128 0x11
 2179 01c1 01       		.uleb128 0x1
 2180 01c2 12       		.uleb128 0x12
 2181 01c3 06       		.uleb128 0x6
 2182 01c4 58       		.uleb128 0x58
 2183 01c5 0B       		.uleb128 0xb
 2184 01c6 59       		.uleb128 0x59
 2185 01c7 0B       		.uleb128 0xb
 2186 01c8 01       		.uleb128 0x1
 2187 01c9 13       		.uleb128 0x13
 2188 01ca 00       		.byte	0
 2189 01cb 00       		.byte	0
 2190 01cc 24       		.uleb128 0x24
 2191 01cd 0B       		.uleb128 0xb
 2192 01ce 01       		.byte	0x1
 2193 01cf 11       		.uleb128 0x11
 2194 01d0 01       		.uleb128 0x1
 2195 01d1 12       		.uleb128 0x12
 2196 01d2 06       		.uleb128 0x6
 2197 01d3 00       		.byte	0
 2198 01d4 00       		.byte	0
 2199 01d5 25       		.uleb128 0x25
 2200 01d6 34       		.uleb128 0x34
 2201 01d7 00       		.byte	0
 2202 01d8 31       		.uleb128 0x31
 2203 01d9 13       		.uleb128 0x13
 2204 01da 02       		.uleb128 0x2
 2205 01db 17       		.uleb128 0x17
 2206 01dc 00       		.byte	0
 2207 01dd 00       		.byte	0
 2208 01de 26       		.uleb128 0x26
 2209 01df 05       		.uleb128 0x5
 2210 01e0 00       		.byte	0
 2211 01e1 31       		.uleb128 0x31
 2212 01e2 13       		.uleb128 0x13
ARM GAS  /var/folders/c6/c789hm653lg9vtl73krp73tm0000gn/T//ccUdz7k8.s 			page 57


 2213 01e3 02       		.uleb128 0x2
 2214 01e4 17       		.uleb128 0x17
 2215 01e5 00       		.byte	0
 2216 01e6 00       		.byte	0
 2217 01e7 27       		.uleb128 0x27
 2218 01e8 1D       		.uleb128 0x1d
 2219 01e9 01       		.byte	0x1
 2220 01ea 31       		.uleb128 0x31
 2221 01eb 13       		.uleb128 0x13
 2222 01ec 11       		.uleb128 0x11
 2223 01ed 01       		.uleb128 0x1
 2224 01ee 12       		.uleb128 0x12
 2225 01ef 06       		.uleb128 0x6
 2226 01f0 58       		.uleb128 0x58
 2227 01f1 0B       		.uleb128 0xb
 2228 01f2 59       		.uleb128 0x59
 2229 01f3 0B       		.uleb128 0xb
 2230 01f4 00       		.byte	0
 2231 01f5 00       		.byte	0
 2232 01f6 28       		.uleb128 0x28
 2233 01f7 1D       		.uleb128 0x1d
 2234 01f8 01       		.byte	0x1
 2235 01f9 31       		.uleb128 0x31
 2236 01fa 13       		.uleb128 0x13
 2237 01fb 11       		.uleb128 0x11
 2238 01fc 01       		.uleb128 0x1
 2239 01fd 12       		.uleb128 0x12
 2240 01fe 06       		.uleb128 0x6
 2241 01ff 58       		.uleb128 0x58
 2242 0200 0B       		.uleb128 0xb
 2243 0201 59       		.uleb128 0x59
 2244 0202 05       		.uleb128 0x5
 2245 0203 00       		.byte	0
 2246 0204 00       		.byte	0
 2247 0205 29       		.uleb128 0x29
 2248 0206 05       		.uleb128 0x5
 2249 0207 00       		.byte	0
 2250 0208 31       		.uleb128 0x31
 2251 0209 13       		.uleb128 0x13
 2252 020a 1C       		.uleb128 0x1c
 2253 020b 0B       		.uleb128 0xb
 2254 020c 00       		.byte	0
 2255 020d 00       		.byte	0
 2256 020e 2A       		.uleb128 0x2a
 2257 020f 2E       		.uleb128 0x2e
 2258 0210 01       		.byte	0x1
 2259 0211 31       		.uleb128 0x31
 2260 0212 13       		.uleb128 0x13
 2261 0213 11       		.uleb128 0x11
 2262 0214 01       		.uleb128 0x1
 2263 0215 12       		.uleb128 0x12
 2264 0216 06       		.uleb128 0x6
 2265 0217 40       		.uleb128 0x40
 2266 0218 18       		.uleb128 0x18
 2267 0219 9742     		.uleb128 0x2117
 2268 021b 19       		.uleb128 0x19
 2269 021c 01       		.uleb128 0x1
ARM GAS  /var/folders/c6/c789hm653lg9vtl73krp73tm0000gn/T//ccUdz7k8.s 			page 58


 2270 021d 13       		.uleb128 0x13
 2271 021e 00       		.byte	0
 2272 021f 00       		.byte	0
 2273 0220 2B       		.uleb128 0x2b
 2274 0221 898201   		.uleb128 0x4109
 2275 0224 00       		.byte	0
 2276 0225 11       		.uleb128 0x11
 2277 0226 01       		.uleb128 0x1
 2278 0227 31       		.uleb128 0x31
 2279 0228 13       		.uleb128 0x13
 2280 0229 00       		.byte	0
 2281 022a 00       		.byte	0
 2282 022b 2C       		.uleb128 0x2c
 2283 022c 34       		.uleb128 0x34
 2284 022d 00       		.byte	0
 2285 022e 03       		.uleb128 0x3
 2286 022f 0E       		.uleb128 0xe
 2287 0230 3A       		.uleb128 0x3a
 2288 0231 0B       		.uleb128 0xb
 2289 0232 3B       		.uleb128 0x3b
 2290 0233 05       		.uleb128 0x5
 2291 0234 49       		.uleb128 0x49
 2292 0235 13       		.uleb128 0x13
 2293 0236 3F       		.uleb128 0x3f
 2294 0237 19       		.uleb128 0x19
 2295 0238 3C       		.uleb128 0x3c
 2296 0239 19       		.uleb128 0x19
 2297 023a 00       		.byte	0
 2298 023b 00       		.byte	0
 2299 023c 2D       		.uleb128 0x2d
 2300 023d 34       		.uleb128 0x34
 2301 023e 00       		.byte	0
 2302 023f 03       		.uleb128 0x3
 2303 0240 08       		.uleb128 0x8
 2304 0241 3A       		.uleb128 0x3a
 2305 0242 0B       		.uleb128 0xb
 2306 0243 3B       		.uleb128 0x3b
 2307 0244 05       		.uleb128 0x5
 2308 0245 49       		.uleb128 0x49
 2309 0246 13       		.uleb128 0x13
 2310 0247 3F       		.uleb128 0x3f
 2311 0248 19       		.uleb128 0x19
 2312 0249 3C       		.uleb128 0x3c
 2313 024a 19       		.uleb128 0x19
 2314 024b 00       		.byte	0
 2315 024c 00       		.byte	0
 2316 024d 2E       		.uleb128 0x2e
 2317 024e 2E       		.uleb128 0x2e
 2318 024f 00       		.byte	0
 2319 0250 3F       		.uleb128 0x3f
 2320 0251 19       		.uleb128 0x19
 2321 0252 03       		.uleb128 0x3
 2322 0253 0E       		.uleb128 0xe
 2323 0254 3A       		.uleb128 0x3a
 2324 0255 0B       		.uleb128 0xb
 2325 0256 3B       		.uleb128 0x3b
 2326 0257 05       		.uleb128 0x5
ARM GAS  /var/folders/c6/c789hm653lg9vtl73krp73tm0000gn/T//ccUdz7k8.s 			page 59


 2327 0258 27       		.uleb128 0x27
 2328 0259 19       		.uleb128 0x19
 2329 025a 49       		.uleb128 0x49
 2330 025b 13       		.uleb128 0x13
 2331 025c 3C       		.uleb128 0x3c
 2332 025d 19       		.uleb128 0x19
 2333 025e 00       		.byte	0
 2334 025f 00       		.byte	0
 2335 0260 00       		.byte	0
 2336              		.section	.debug_loc,"",%progbits
 2337              	.Ldebug_loc0:
 2338              	.LLST0:
 2339 0000 04000000 		.4byte	.LVL0
 2340 0004 06000000 		.4byte	.LVL1
 2341 0008 0300     		.2byte	0x3
 2342 000a 73       		.byte	0x73
 2343 000b 20       		.sleb128 32
 2344 000c 9F       		.byte	0x9f
 2345 000d 06000000 		.4byte	.LVL1
 2346 0011 0C000000 		.4byte	.LVL3
 2347 0015 0100     		.2byte	0x1
 2348 0017 53       		.byte	0x53
 2349 0018 00000000 		.4byte	0
 2350 001c 00000000 		.4byte	0
 2351              	.LLST1:
 2352 0020 04000000 		.4byte	.LVL0
 2353 0024 06000000 		.4byte	.LVL1
 2354 0028 0100     		.2byte	0x1
 2355 002a 53       		.byte	0x53
 2356 002b 06000000 		.4byte	.LVL1
 2357 002f 0C000000 		.4byte	.LVL3
 2358 0033 0300     		.2byte	0x3
 2359 0035 73       		.byte	0x73
 2360 0036 60       		.sleb128 -32
 2361 0037 9F       		.byte	0x9f
 2362 0038 00000000 		.4byte	0
 2363 003c 00000000 		.4byte	0
 2364              	.LLST3:
 2365 0040 12000000 		.4byte	.LVL5
 2366 0044 18000000 		.4byte	.LVL6
 2367 0048 0200     		.2byte	0x2
 2368 004a 30       		.byte	0x30
 2369 004b 9F       		.byte	0x9f
 2370 004c 00000000 		.4byte	0
 2371 0050 00000000 		.4byte	0
 2372              	.LLST4:
 2373 0054 1C000000 		.4byte	.LVL7
 2374 0058 28000000 		.4byte	.LVL9
 2375 005c 0300     		.2byte	0x3
 2376 005e 74       		.byte	0x74
 2377 005f 60       		.sleb128 -32
 2378 0060 9F       		.byte	0x9f
 2379 0061 28000000 		.4byte	.LVL9
 2380 0065 2F000000 		.4byte	.LVL10-1
 2381 0069 0100     		.2byte	0x1
 2382 006b 53       		.byte	0x53
 2383 006c 2F000000 		.4byte	.LVL10-1
ARM GAS  /var/folders/c6/c789hm653lg9vtl73krp73tm0000gn/T//ccUdz7k8.s 			page 60


 2384 0070 42000000 		.4byte	.LVL12
 2385 0074 0300     		.2byte	0x3
 2386 0076 74       		.byte	0x74
 2387 0077 60       		.sleb128 -32
 2388 0078 9F       		.byte	0x9f
 2389 0079 00000000 		.4byte	0
 2390 007d 00000000 		.4byte	0
 2391              	.LLST5:
 2392 0081 1C000000 		.4byte	.LVL7
 2393 0085 42000000 		.4byte	.LVL12
 2394 0089 0100     		.2byte	0x1
 2395 008b 54       		.byte	0x54
 2396 008c 00000000 		.4byte	0
 2397 0090 00000000 		.4byte	0
 2398              	.LLST6:
 2399 0094 24000000 		.4byte	.LVL8
 2400 0098 28000000 		.4byte	.LVL9
 2401 009c 0300     		.2byte	0x3
 2402 009e 74       		.byte	0x74
 2403 009f 60       		.sleb128 -32
 2404 00a0 9F       		.byte	0x9f
 2405 00a1 28000000 		.4byte	.LVL9
 2406 00a5 2F000000 		.4byte	.LVL10-1
 2407 00a9 0100     		.2byte	0x1
 2408 00ab 53       		.byte	0x53
 2409 00ac 2F000000 		.4byte	.LVL10-1
 2410 00b0 42000000 		.4byte	.LVL12
 2411 00b4 0300     		.2byte	0x3
 2412 00b6 74       		.byte	0x74
 2413 00b7 60       		.sleb128 -32
 2414 00b8 9F       		.byte	0x9f
 2415 00b9 00000000 		.4byte	0
 2416 00bd 00000000 		.4byte	0
 2417              		.section	.debug_aranges,"",%progbits
 2418 0000 24000000 		.4byte	0x24
 2419 0004 0200     		.2byte	0x2
 2420 0006 00000000 		.4byte	.Ldebug_info0
 2421 000a 04       		.byte	0x4
 2422 000b 00       		.byte	0
 2423 000c 0000     		.2byte	0
 2424 000e 0000     		.2byte	0
 2425 0010 00000000 		.4byte	.LFB229
 2426 0014 12000000 		.4byte	.LFE229-.LFB229
 2427 0018 00000000 		.4byte	.LFB230
 2428 001c 50000000 		.4byte	.LFE230-.LFB230
 2429 0020 00000000 		.4byte	0
 2430 0024 00000000 		.4byte	0
 2431              		.section	.debug_ranges,"",%progbits
 2432              	.Ldebug_ranges0:
 2433 0000 00000000 		.4byte	.LFB229
 2434 0004 12000000 		.4byte	.LFE229
 2435 0008 00000000 		.4byte	.LFB230
 2436 000c 50000000 		.4byte	.LFE230
 2437 0010 00000000 		.4byte	0
 2438 0014 00000000 		.4byte	0
 2439              		.section	.debug_line,"",%progbits
 2440              	.Ldebug_line0:
ARM GAS  /var/folders/c6/c789hm653lg9vtl73krp73tm0000gn/T//ccUdz7k8.s 			page 61


 2441 0000 36020000 		.section	.debug_str,"MS",%progbits,1
 2441      0200D001 
 2441      00000201 
 2441      FB0E0D00 
 2441      01010101 
 2442              	.LASF50:
 2443 0000 72656164 		.ascii	"ready_list_t\000"
 2443      795F6C69 
 2443      73745F74 
 2443      00
 2444              	.LASF107:
 2445 000d 77747472 		.ascii	"wttrp\000"
 2445      7000
 2446              	.LASF104:
 2447 0013 7264796D 		.ascii	"rdymsg\000"
 2447      736700
 2448              	.LASF16:
 2449 001a 75696E74 		.ascii	"uint64_t\000"
 2449      36345F74 
 2449      00
 2450              	.LASF5:
 2451 0023 5F5F7569 		.ascii	"__uint8_t\000"
 2451      6E74385F 
 2451      7400
 2452              	.LASF98:
 2453 002d 706F7274 		.ascii	"port_intctx\000"
 2453      5F696E74 
 2453      63747800 
 2454              	.LASF69:
 2455 0039 73797374 		.ascii	"system_debug_t\000"
 2455      656D5F64 
 2455      65627567 
 2455      5F7400
 2456              	.LASF120:
 2457 0048 706F7274 		.ascii	"port_lock\000"
 2457      5F6C6F63 
 2457      6B00
 2458              	.LASF12:
 2459 0052 6C6F6E67 		.ascii	"long long unsigned int\000"
 2459      206C6F6E 
 2459      6720756E 
 2459      7369676E 
 2459      65642069 
 2460              	.LASF105:
 2461 0069 65786974 		.ascii	"exitcode\000"
 2461      636F6465 
 2461      00
 2462              	.LASF76:
 2463 0072 6D61696E 		.ascii	"mainthread\000"
 2463      74687265 
 2463      616400
 2464              	.LASF66:
 2465 007d 76697274 		.ascii	"virtual_timers_list_t\000"
 2465      75616C5F 
 2465      74696D65 
 2465      72735F6C 
 2465      6973745F 
ARM GAS  /var/folders/c6/c789hm653lg9vtl73krp73tm0000gn/T//ccUdz7k8.s 			page 62


 2466              	.LASF79:
 2467 0093 43505549 		.ascii	"CPUID\000"
 2467      4400
 2468              	.LASF49:
 2469 0099 63685F74 		.ascii	"ch_threads_queue\000"
 2469      68726561 
 2469      64735F71 
 2469      75657565 
 2469      00
 2470              	.LASF29:
 2471 00aa 705F7072 		.ascii	"p_prio\000"
 2471      696F00
 2472              	.LASF91:
 2473 00b1 49534152 		.ascii	"ISAR\000"
 2473      00
 2474              	.LASF10:
 2475 00b6 6C6F6E67 		.ascii	"long long int\000"
 2475      206C6F6E 
 2475      6720696E 
 2475      7400
 2476              	.LASF1:
 2477 00c4 7369676E 		.ascii	"signed char\000"
 2477      65642063 
 2477      68617200 
 2478              	.LASF43:
 2479 00d0 705F6D70 		.ascii	"p_mpool\000"
 2479      6F6F6C00 
 2480              	.LASF115:
 2481 00d8 6D5F7175 		.ascii	"m_queue\000"
 2481      65756500 
 2482              	.LASF75:
 2483 00e0 76746C69 		.ascii	"vtlist\000"
 2483      737400
 2484              	.LASF121:
 2485 00e7 706F7274 		.ascii	"port_unlock\000"
 2485      5F756E6C 
 2485      6F636B00 
 2486              	.LASF73:
 2487 00f3 63685F73 		.ascii	"ch_system\000"
 2487      79737465 
 2487      6D00
 2488              	.LASF7:
 2489 00fd 6C6F6E67 		.ascii	"long int\000"
 2489      20696E74 
 2489      00
 2490              	.LASF19:
 2491 0106 74737461 		.ascii	"tstate_t\000"
 2491      74655F74 
 2491      00
 2492              	.LASF133:
 2493 010f 2E2E2F2E 		.ascii	"../../../os/rt/ports/ARMCMx/chcore_v7m.c\000"
 2493      2E2F2E2E 
 2493      2F6F732F 
 2493      72742F70 
 2493      6F727473 
 2494              	.LASF138:
 2495 0138 63685363 		.ascii	"chSchIsPreemptionRequired\000"
ARM GAS  /var/folders/c6/c789hm653lg9vtl73krp73tm0000gn/T//ccUdz7k8.s 			page 63


 2495      68497350 
 2495      7265656D 
 2495      7074696F 
 2495      6E526571 
 2496              	.LASF31:
 2497 0152 705F6E65 		.ascii	"p_newer\000"
 2497      77657200 
 2498              	.LASF112:
 2499 015a 735F7175 		.ascii	"s_queue\000"
 2499      65756500 
 2500              	.LASF88:
 2501 0162 42464152 		.ascii	"BFAR\000"
 2501      00
 2502              	.LASF89:
 2503 0167 41465352 		.ascii	"AFSR\000"
 2503      00
 2504              	.LASF55:
 2505 016c 725F6E65 		.ascii	"r_newer\000"
 2505      77657200 
 2506              	.LASF95:
 2507 0174 72656761 		.ascii	"regarm_t\000"
 2507      726D5F74 
 2507      00
 2508              	.LASF62:
 2509 017d 76745F70 		.ascii	"vt_prev\000"
 2509      72657600 
 2510              	.LASF94:
 2511 0185 5343425F 		.ascii	"SCB_Type\000"
 2511      54797065 
 2511      00
 2512              	.LASF119:
 2513 018e 6D757465 		.ascii	"mutex_t\000"
 2513      785F7400 
 2514              	.LASF124:
 2515 0196 76616C75 		.ascii	"value\000"
 2515      6500
 2516              	.LASF77:
 2517 019c 69646C65 		.ascii	"idle_thread_wa\000"
 2517      5F746872 
 2517      6561645F 
 2517      776100
 2518              	.LASF24:
 2519 01ab 636E745F 		.ascii	"cnt_t\000"
 2519      7400
 2520              	.LASF0:
 2521 01b1 756E7369 		.ascii	"unsigned int\000"
 2521      676E6564 
 2521      20696E74 
 2521      00
 2522              	.LASF123:
 2523 01be 5F5F7365 		.ascii	"__set_PSP\000"
 2523      745F5053 
 2523      5000
 2524              	.LASF61:
 2525 01c8 76745F6E 		.ascii	"vt_next\000"
 2525      65787400 
 2526              	.LASF108:
ARM GAS  /var/folders/c6/c789hm653lg9vtl73krp73tm0000gn/T//ccUdz7k8.s 			page 64


 2527 01d0 77747365 		.ascii	"wtsemp\000"
 2527      6D7000
 2528              	.LASF38:
 2529 01d7 705F6D73 		.ascii	"p_msgqueue\000"
 2529      67717565 
 2529      756500
 2530              	.LASF81:
 2531 01e2 56544F52 		.ascii	"VTOR\000"
 2531      00
 2532              	.LASF113:
 2533 01e7 735F636E 		.ascii	"s_cnt\000"
 2533      7400
 2534              	.LASF46:
 2535 01ed 63685F74 		.ascii	"ch_thread\000"
 2535      68726561 
 2535      6400
 2536              	.LASF80:
 2537 01f7 49435352 		.ascii	"ICSR\000"
 2537      00
 2538              	.LASF22:
 2539 01fc 6D73675F 		.ascii	"msg_t\000"
 2539      7400
 2540              	.LASF82:
 2541 0202 41495243 		.ascii	"AIRCR\000"
 2541      5200
 2542              	.LASF86:
 2543 0208 44465352 		.ascii	"DFSR\000"
 2543      00
 2544              	.LASF87:
 2545 020d 4D4D4641 		.ascii	"MMFAR\000"
 2545      5200
 2546              	.LASF136:
 2547 0213 5F706F72 		.ascii	"_port_irq_epilogue\000"
 2547      745F6972 
 2547      715F6570 
 2547      696C6F67 
 2547      756500
 2548              	.LASF18:
 2549 0226 746D6F64 		.ascii	"tmode_t\000"
 2549      655F7400 
 2550              	.LASF51:
 2551 022e 63685F72 		.ascii	"ch_ready_list\000"
 2551      65616479 
 2551      5F6C6973 
 2551      7400
 2552              	.LASF23:
 2553 023c 6576656E 		.ascii	"eventmask_t\000"
 2553      746D6173 
 2553      6B5F7400 
 2554              	.LASF125:
 2555 0248 746F704F 		.ascii	"topOfProcStack\000"
 2555      6650726F 
 2555      63537461 
 2555      636B00
 2556              	.LASF6:
 2557 0257 5F5F696E 		.ascii	"__int32_t\000"
 2557      7433325F 
ARM GAS  /var/folders/c6/c789hm653lg9vtl73krp73tm0000gn/T//ccUdz7k8.s 			page 65


 2557      7400
 2558              	.LASF96:
 2559 0261 73746B61 		.ascii	"stkalign_t\000"
 2559      6C69676E 
 2559      5F7400
 2560              	.LASF45:
 2561 026c 74687265 		.ascii	"threads_list_t\000"
 2561      6164735F 
 2561      6C697374 
 2561      5F7400
 2562              	.LASF37:
 2563 027b 705F7761 		.ascii	"p_waiting\000"
 2563      6974696E 
 2563      6700
 2564              	.LASF78:
 2565 0285 73697A65 		.ascii	"sizetype\000"
 2565      74797065 
 2565      00
 2566              	.LASF44:
 2567 028e 74687265 		.ascii	"thread_reference_t\000"
 2567      61645F72 
 2567      65666572 
 2567      656E6365 
 2567      5F7400
 2568              	.LASF67:
 2569 02a1 63685F76 		.ascii	"ch_virtual_timers_list\000"
 2569      69727475 
 2569      616C5F74 
 2569      696D6572 
 2569      735F6C69 
 2570              	.LASF84:
 2571 02b8 43465352 		.ascii	"CFSR\000"
 2571      00
 2572              	.LASF68:
 2573 02bd 76745F6C 		.ascii	"vt_lasttime\000"
 2573      61737474 
 2573      696D6500 
 2574              	.LASF32:
 2575 02c9 705F6F6C 		.ascii	"p_older\000"
 2575      64657200 
 2576              	.LASF54:
 2577 02d1 725F6374 		.ascii	"r_ctx\000"
 2577      7800
 2578              	.LASF99:
 2579 02d7 706F7274 		.ascii	"port_extctx\000"
 2579      5F657874 
 2579      63747800 
 2580              	.LASF103:
 2581 02e3 746D5F63 		.ascii	"tm_calibration_t\000"
 2581      616C6962 
 2581      72617469 
 2581      6F6E5F74 
 2581      00
 2582              	.LASF57:
 2583 02f4 725F6375 		.ascii	"r_current\000"
 2583      7272656E 
 2583      7400
ARM GAS  /var/folders/c6/c789hm653lg9vtl73krp73tm0000gn/T//ccUdz7k8.s 			page 66


 2584              	.LASF56:
 2585 02fe 725F6F6C 		.ascii	"r_older\000"
 2585      64657200 
 2586              	.LASF11:
 2587 0306 5F5F7569 		.ascii	"__uint64_t\000"
 2587      6E743634 
 2587      5F7400
 2588              	.LASF20:
 2589 0311 74726566 		.ascii	"trefs_t\000"
 2589      735F7400 
 2590              	.LASF92:
 2591 0319 52455345 		.ascii	"RESERVED0\000"
 2591      52564544 
 2591      3000
 2592              	.LASF129:
 2593 0323 63747870 		.ascii	"ctxp\000"
 2593      00
 2594              	.LASF59:
 2595 0328 76697274 		.ascii	"virtual_timer_t\000"
 2595      75616C5F 
 2595      74696D65 
 2595      725F7400 
 2596              	.LASF28:
 2597 0338 705F7072 		.ascii	"p_prev\000"
 2597      657600
 2598              	.LASF21:
 2599 033f 74707269 		.ascii	"tprio_t\000"
 2599      6F5F7400 
 2600              	.LASF70:
 2601 0347 63685F73 		.ascii	"ch_system_debug\000"
 2601      79737465 
 2601      6D5F6465 
 2601      62756700 
 2602              	.LASF131:
 2603 0357 5F426F6F 		.ascii	"_Bool\000"
 2603      6C00
 2604              	.LASF14:
 2605 035d 696E7433 		.ascii	"int32_t\000"
 2605      325F7400 
 2606              	.LASF2:
 2607 0365 756E7369 		.ascii	"unsigned char\000"
 2607      676E6564 
 2607      20636861 
 2607      7200
 2608              	.LASF83:
 2609 0373 53484353 		.ascii	"SHCSR\000"
 2609      5200
 2610              	.LASF130:
 2611 0379 49544D5F 		.ascii	"ITM_RxBuffer\000"
 2611      52784275 
 2611      66666572 
 2611      00
 2612              	.LASF41:
 2613 0386 705F6D74 		.ascii	"p_mtxlist\000"
 2613      786C6973 
 2613      7400
 2614              	.LASF3:
ARM GAS  /var/folders/c6/c789hm653lg9vtl73krp73tm0000gn/T//ccUdz7k8.s 			page 67


 2615 0390 73686F72 		.ascii	"short int\000"
 2615      7420696E 
 2615      7400
 2616              	.LASF34:
 2617 039a 705F7374 		.ascii	"p_state\000"
 2617      61746500 
 2618              	.LASF101:
 2619 03a2 78707372 		.ascii	"xpsr\000"
 2619      00
 2620              	.LASF53:
 2621 03a7 725F7072 		.ascii	"r_prio\000"
 2621      696F00
 2622              	.LASF110:
 2623 03ae 65776D61 		.ascii	"ewmask\000"
 2623      736B00
 2624              	.LASF27:
 2625 03b5 705F6E65 		.ascii	"p_next\000"
 2625      787400
 2626              	.LASF35:
 2627 03bc 705F666C 		.ascii	"p_flags\000"
 2627      61677300 
 2628              	.LASF4:
 2629 03c4 73686F72 		.ascii	"short unsigned int\000"
 2629      7420756E 
 2629      7369676E 
 2629      65642069 
 2629      6E7400
 2630              	.LASF100:
 2631 03d7 6C725F74 		.ascii	"lr_thd\000"
 2631      686400
 2632              	.LASF137:
 2633 03de 5356435F 		.ascii	"SVC_Handler\000"
 2633      48616E64 
 2633      6C657200 
 2634              	.LASF60:
 2635 03ea 63685F76 		.ascii	"ch_virtual_timer\000"
 2635      69727475 
 2635      616C5F74 
 2635      696D6572 
 2635      00
 2636              	.LASF111:
 2637 03fb 63685F73 		.ascii	"ch_semaphore\000"
 2637      656D6170 
 2637      686F7265 
 2637      00
 2638              	.LASF40:
 2639 0408 705F6570 		.ascii	"p_epending\000"
 2639      656E6469 
 2639      6E6700
 2640              	.LASF15:
 2641 0413 75696E74 		.ascii	"uint32_t\000"
 2641      33325F74 
 2641      00
 2642              	.LASF109:
 2643 041c 77746D74 		.ascii	"wtmtxp\000"
 2643      787000
 2644              	.LASF52:
ARM GAS  /var/folders/c6/c789hm653lg9vtl73krp73tm0000gn/T//ccUdz7k8.s 			page 68


 2645 0423 725F7175 		.ascii	"r_queue\000"
 2645      65756500 
 2646              	.LASF63:
 2647 042b 76745F64 		.ascii	"vt_delta\000"
 2647      656C7461 
 2647      00
 2648              	.LASF47:
 2649 0434 63685F74 		.ascii	"ch_threads_list\000"
 2649      68726561 
 2649      64735F6C 
 2649      69737400 
 2650              	.LASF9:
 2651 0444 6C6F6E67 		.ascii	"long unsigned int\000"
 2651      20756E73 
 2651      69676E65 
 2651      6420696E 
 2651      7400
 2652              	.LASF134:
 2653 0456 2F557365 		.ascii	"/Users/savonetj/Downloads/ChibiOS_3.0.2/demos/STM32"
 2653      72732F73 
 2653      61766F6E 
 2653      65746A2F 
 2653      446F776E 
 2654 0489 2F52542D 		.ascii	"/RT-STM32F407-DISCOVERY\000"
 2654      53544D33 
 2654      32463430 
 2654      372D4449 
 2654      53434F56 
 2655              	.LASF118:
 2656 04a1 63686172 		.ascii	"char\000"
 2656      00
 2657              	.LASF126:
 2658 04a6 706F7274 		.ascii	"port_unlock_from_isr\000"
 2658      5F756E6C 
 2658      6F636B5F 
 2658      66726F6D 
 2658      5F697372 
 2659              	.LASF26:
 2660 04bb 74687265 		.ascii	"thread_t\000"
 2660      61645F74 
 2660      00
 2661              	.LASF117:
 2662 04c4 6D5F6E65 		.ascii	"m_next\000"
 2662      787400
 2663              	.LASF25:
 2664 04cb 73797374 		.ascii	"systime_t\000"
 2664      696D655F 
 2664      7400
 2665              	.LASF42:
 2666 04d5 705F7265 		.ascii	"p_realprio\000"
 2666      616C7072 
 2666      696F00
 2667              	.LASF58:
 2668 04e0 76746675 		.ascii	"vtfunc_t\000"
 2668      6E635F74 
 2668      00
 2669              	.LASF8:
ARM GAS  /var/folders/c6/c789hm653lg9vtl73krp73tm0000gn/T//ccUdz7k8.s 			page 69


 2670 04e9 5F5F7569 		.ascii	"__uint32_t\000"
 2670      6E743332 
 2670      5F7400
 2671              	.LASF122:
 2672 04f4 5F5F7365 		.ascii	"__set_BASEPRI\000"
 2672      745F4241 
 2672      53455052 
 2672      4900
 2673              	.LASF71:
 2674 0502 70616E69 		.ascii	"panic_msg\000"
 2674      635F6D73 
 2674      6700
 2675              	.LASF102:
 2676 050c 6F666673 		.ascii	"offset\000"
 2676      657400
 2677              	.LASF97:
 2678 0513 636F6E74 		.ascii	"context\000"
 2678      65787400 
 2679              	.LASF72:
 2680 051b 63685F73 		.ascii	"ch_system_t\000"
 2680      79737465 
 2680      6D5F7400 
 2681              	.LASF17:
 2682 0527 7274636E 		.ascii	"rtcnt_t\000"
 2682      745F7400 
 2683              	.LASF127:
 2684 052f 706F7274 		.ascii	"port_lock_from_isr\000"
 2684      5F6C6F63 
 2684      6B5F6672 
 2684      6F6D5F69 
 2684      737200
 2685              	.LASF135:
 2686 0542 5F5F6765 		.ascii	"__get_PSP\000"
 2686      745F5053 
 2686      5000
 2687              	.LASF65:
 2688 054c 76745F70 		.ascii	"vt_par\000"
 2688      617200
 2689              	.LASF48:
 2690 0553 74687265 		.ascii	"threads_queue_t\000"
 2690      6164735F 
 2690      71756575 
 2690      655F7400 
 2691              	.LASF114:
 2692 0563 63685F6D 		.ascii	"ch_mutex\000"
 2692      75746578 
 2692      00
 2693              	.LASF36:
 2694 056c 705F7265 		.ascii	"p_refs\000"
 2694      667300
 2695              	.LASF90:
 2696 0573 4D4D4652 		.ascii	"MMFR\000"
 2696      00
 2697              	.LASF74:
 2698 0578 726C6973 		.ascii	"rlist\000"
 2698      7400
 2699              	.LASF13:
ARM GAS  /var/folders/c6/c789hm653lg9vtl73krp73tm0000gn/T//ccUdz7k8.s 			page 70


 2700 057e 75696E74 		.ascii	"uint8_t\000"
 2700      385F7400 
 2701              	.LASF106:
 2702 0586 77746F62 		.ascii	"wtobjp\000"
 2702      6A7000
 2703              	.LASF33:
 2704 058d 705F6E61 		.ascii	"p_name\000"
 2704      6D6500
 2705              	.LASF132:
 2706 0594 474E5520 		.ascii	"GNU C 4.8.4 20140725 (release) [ARM/embedded-4_8-br"
 2706      4320342E 
 2706      382E3420 
 2706      32303134 
 2706      30373235 
 2707 05c7 616E6368 		.ascii	"anch revision 213147] -mcpu=cortex-m4 -mno-thumb-in"
 2707      20726576 
 2707      6973696F 
 2707      6E203231 
 2707      33313437 
 2708 05fa 74657277 		.ascii	"terwork -mthumb -ggdb -O2 -fomit-frame-pointer -fal"
 2708      6F726B20 
 2708      2D6D7468 
 2708      756D6220 
 2708      2D676764 
 2709 062d 69676E2D 		.ascii	"ign-functions=16 -ffunction-sections -fdata-section"
 2709      66756E63 
 2709      74696F6E 
 2709      733D3136 
 2709      202D6666 
 2710 0660 73202D66 		.ascii	"s -fno-common -flto\000"
 2710      6E6F2D63 
 2710      6F6D6D6F 
 2710      6E202D66 
 2710      6C746F00 
 2711              	.LASF39:
 2712 0674 705F6D73 		.ascii	"p_msg\000"
 2712      6700
 2713              	.LASF93:
 2714 067a 43504143 		.ascii	"CPACR\000"
 2714      5200
 2715              	.LASF85:
 2716 0680 48465352 		.ascii	"HFSR\000"
 2716      00
 2717              	.LASF116:
 2718 0685 6D5F6F77 		.ascii	"m_owner\000"
 2718      6E657200 
 2719              	.LASF128:
 2720 068d 72657375 		.ascii	"result\000"
 2720      6C7400
 2721              	.LASF30:
 2722 0694 705F6374 		.ascii	"p_ctx\000"
 2722      7800
 2723              	.LASF64:
 2724 069a 76745F66 		.ascii	"vt_func\000"
 2724      756E6300 
 2725              		.comm	__gnu_lto_v1,1,1
 2726              		.ident	"GCC: (GNU Tools for ARM Embedded Processors) 4.8.4 20140725 (release) [ARM/embedded-4_8-br
ARM GAS  /var/folders/c6/c789hm653lg9vtl73krp73tm0000gn/T//ccUdz7k8.s 			page 71


ARM GAS  /var/folders/c6/c789hm653lg9vtl73krp73tm0000gn/T//ccUdz7k8.s 			page 72


DEFINED SYMBOLS
                            *ABS*:0000000000000000 chcore_v7m.c
/var/folders/c6/c789hm653lg9vtl73krp73tm0000gn/T//ccUdz7k8.s:306    .text.SVC_Handler:0000000000000000 $t
/var/folders/c6/c789hm653lg9vtl73krp73tm0000gn/T//ccUdz7k8.s:312    .text.SVC_Handler:0000000000000000 SVC_Handler
/var/folders/c6/c789hm653lg9vtl73krp73tm0000gn/T//ccUdz7k8.s:366    .text._port_irq_epilogue:0000000000000000 $t
/var/folders/c6/c789hm653lg9vtl73krp73tm0000gn/T//ccUdz7k8.s:372    .text._port_irq_epilogue:0000000000000000 _port_irq_epilogue
/var/folders/c6/c789hm653lg9vtl73krp73tm0000gn/T//ccUdz7k8.s:467    .text._port_irq_epilogue:0000000000000044 $d
                            *COM*:0000000000000001 __gnu_lto_v1
                     .debug_frame:0000000000000010 $d

UNDEFINED SYMBOLS
chSchIsPreemptionRequired
_port_switch_from_isr
_port_exit_from_isr
