ARM GAS  /var/folders/c6/c789hm653lg9vtl73krp73tm0000gn/T//cc7oBT3V.s 			page 1


   1              		.syntax unified
   2              		.cpu cortex-m4
   3              		.fpu softvfp
   4              		.eabi_attribute 20, 1
   5              		.eabi_attribute 21, 1
   6              		.eabi_attribute 23, 3
   7              		.eabi_attribute 24, 1
   8              		.eabi_attribute 25, 1
   9              		.eabi_attribute 26, 1
  10              		.eabi_attribute 30, 2
  11              		.eabi_attribute 34, 1
  12              		.eabi_attribute 18, 4
  13              		.thumb
  14              		.file	"chdynamic.c"
  15              		.text
  16              	.Ltext0:
  17              		.section	.gnu.lto_.jmpfuncs.f375748057c8c4c,"",%progbits
  18 0000 789C758C 		.ascii	"x\234u\214\313\015\2000\014\305\342\327rf\204\256\305"
  18      CB0D8030 
  18      0CC5E2D7 
  18      726684AE 
  18      C5
  19 0011 0A2CD059 		.ascii	"\012,\320Y\030\2211x\375 \201\004\2718\211,+\024_sL"
  19      18913178 
  19      FD208104 
  19      B938892C 
  19      2B145F73 
  20 0026 2E8185E4 		.ascii	".\201\205\344\255F\200\300\360\243\310\327\311\306\216"
  20      AD4680C0 
  20      F0A3C8D7 
  20      C9C68E
  21 0035 6F35D2F5 		.ascii	"o5\322\365\346R;4\220\006\262\241\036\342v\362\372\250"
  21      E6523B34 
  21      9006B2A1 
  21      1EE276F2 
  21      FAA8
  22 0047 E855F9E9 		.ascii	"\350U\371\3510\003q\001h\027\013#"
  22      30037101 
  22      68170B23 
  23              		.text
  24              		.section	.gnu.lto_.inline.f375748057c8c4c,"",%progbits
  25 0000 789C6362 		.ascii	"x\234cb`b\300\006\336BiV\006\006\036\021Ff\006F\006"
  25      6062C006 
  25      DE426956 
  25      06061E11 
  25      46660646 
  26 0015 06E6058C 		.ascii	"\006\346\005\214`\252\001J\261p\260v\2503\260w\2503"
  26      60AA014A 
  26      B170B076 
  26      A833B077 
  26      A833
  27 0027 3130BE60 		.ascii	"10\276`g\201\220 \202\003\314\344\000\021\002`\246\000"
  27      67819020 
  27      8203CCE4 
  27      00110260 
  27      A600
  28 0039 C824661E 		.ascii	"\310$f\036\006\006\246\011~\023\374\030\0318\330\031"
ARM GAS  /var/folders/c6/c789hm653lg9vtl73krp73tm0000gn/T//cc7oBT3V.s 			page 2


  28      0606A609 
  28      7E13FC18 
  28      1938D819 
  29 0049 1998380E 		.ascii	"\031\2308\016\3301p|\320\003[\317\304 \307\007\024R"
  29      D831707C 
  29      D0035BCF 
  29      C420C707 
  29      1452
  30 005b 5FD1C6C8 		.ascii	"_\321\306\310\300;\307\034\"\306\315\300\3008\301\017"
  30      C03BC71C 
  30      22C6CDC0 
  30      C038C10F 
  31 006b 4A313388 		.ascii	"J13\210\351\003Up\375\361f`[ \317\204d \003\310xV\220"
  31      E9035570 
  31      FDF16660 
  31      5B20CF84 
  31      642003C8 
  32 0082 C110C8C2 		.ascii	"\301\020\310\302\013\265\207\205A\034\244\205wU\022"
  32      0BB58785 
  32      411CA485 
  32      775512
  33 0091 03FB2D35 		.ascii	"\003\373-5|Z@\302@;\030\000\221/$\277"
  33      7C5A40C2 
  33      403B1800 
  33      912F24BF 
  34              		.text
  35              		.section	.gnu.lto_.pureconst.f375748057c8c4c,"",%progbits
  36 0000 789C6362 		.ascii	"x\234cb`b\340f\200\000V\006)F+&+f+\026+\000\006)\001"
  36      6062E066 
  36      80005606 
  36      29462B26 
  36      2B662B16 
  37 0019 21       		.ascii	"!"
  38              		.text
  39              		.section	.gnu.lto_chThdRelease.part.0.f375748057c8c4c,"",%progbits
  40 0000 789CAD92 		.ascii	"x\234\255\222\277J\304@\020\306\347\333\335h\260\362"
  40      BF4AC440 
  40      10C6E7DB 
  40      DD68B0F2 
  41 0010 0D940882 		.ascii	"\015\224\010\202\036\\Z\237@\260\277\003\265\213{\032"
  41      1E5C5A9F 
  41      40B0BF03 
  41      B58B7B1A 
  42 0020 539CC2C5 		.ascii	"S\234\302\305F,n#\036X\0366\2126\036>\200\257p\275\250"
  42      462C6E23 
  42      1E581E36 
  42      8A361E3E 
  42      80AF70BD 
  43 0035 D81D5679 		.ascii	"\330\035Vy\003k=!\316&\344\374\023\304\306%\231\331"
  43      036B3D21 
  43      CE26E4FC 
  43      13C4C625 
  43      99D9
  44 0047 19E637DF 		.ascii	"\031\3467\337\354&\202\004\375\\5~W9\275\310\036\016"
  44      EC268204 
  44      FD5C357E 
  44      5739BDC8 
ARM GAS  /var/folders/c6/c789hm653lg9vtl73krp73tm0000gn/T//cc7oBT3V.s 			page 3


  44      1E0E
  45 0059 41F51F78 		.ascii	"A\365\037x\243 r/ \255O\\\011\330\015\201\272JHt7`a"
  45      A320722F 
  45      20AD4F5C 
  45      09D80D81 
  45      BA4A4874 
  46 0070 D1067934 		.ascii	"\321\006y40\346,\355\275\214pn\206\311\265y\3172 \002"
  46      30E62CED 
  46      BD8C706E 
  46      86C9B579 
  46      CF322002 
  47 0084 6B79200D 		.ascii	"ky \015Z\347\000n\356\004\276\213\337\012\223f\331k"
  47      5AE7006E 
  47      EE04BE8B 
  47      DF0A9366 
  47      D96B
  48 0096 E6CE006D 		.ascii	"\346\316\000m@P\004)\255Q\3268l\024W9tbL\177>\300\000"
  48      40500429 
  48      AD51D638 
  48      6C145739 
  48      74624C7F 
  49 00ad 1E873A6F 		.ascii	"\036\207:o\322`k'jp\011{\331d\332\372;\0366\300\015"
  49      D2606B27 
  49      6A70097B 
  49      D964DAFA 
  49      3B1E36C0 
  50 00c2 1FA5C519 		.ascii	"\037\245\305\031\272\247\343\347\213\361J\221\011!j"
  50      BAA7E3E7 
  50      8BF14A91 
  50      09216A
  51 00d1 B4CC9DAF 		.ascii	"\264\314\235\257\35021f6\202\023\002v0\231\217\2635"
  51      E8323166 
  51      36821302 
  51      7630998F 
  51      B335
  52 00e3 198FB1CD 		.ascii	"\031\217\261\315\222\221\1770\370d\326\012\246\012\210"
  52      92917F30 
  52      F864D60A 
  52      A60A88
  53 00f2 2A10DAF8 		.ascii	"*\020\332\370\253\216\372\007\035U=LX^\303h\234\212"
  53      AB8EFA07 
  53      1D553D4C 
  53      585EC368 
  53      9C8A
  54 0104 52CBC951 		.ascii	"R\313\311Q\365\253V\371\237<Ro\270T@DG\364fNm\365\224"
  54      F5AB56F9 
  54      9F3C526F 
  54      B8544044 
  54      47F4664E 
  55 011b 9E9CC182 		.ascii	"\236\234\301\202\021\246\213\352&\363\3457 \276\177"
  55      11A68BEA 
  55      26F3E537 
  55      20BE7F
  56 012a EEF64449 		.ascii	"\356\366DI\232-\224\035\212\325`\232\313\254\306\\\275"
  56      9A2D941D 
  56      8AD5609A 
  56      CBACC65C 
ARM GAS  /var/folders/c6/c789hm653lg9vtl73krp73tm0000gn/T//cc7oBT3V.s 			page 4


  56      BD
  57 013b EE17CF7E 		.ascii	"\356\027\317~\354w\016\374\270\243}\275\333:\334\013"
  57      EC770EFC 
  57      B8A37DBD 
  57      DB3ADC0B 
  58 014b DA91AE6B 		.ascii	"\332\221\256kR\235\355\235\370\003M\375\201\257"
  58      529DED9D 
  58      F8034DFD 
  58      81AF
  59              		.text
  60              		.section	.gnu.lto_chThdAddRef.f375748057c8c4c,"",%progbits
  61 0000 789C8552 		.ascii	"x\234\205RMh\023A\024~o&\333\006s\351U\220\270\024\004"
  61      4D681341 
  61      147E6F26 
  61      DB0673E9 
  61      5590B814 
  62 0015 6D43D69B 		.ascii	"mC\326\233W\245P(\230KSAO\262\235.\311B7)\273IhN\335"
  62      57A55028 
  62      984B5341 
  62      4FB29D2E 
  62      C9423729 
  63 002e A63D2808 		.ascii	"\246=(\010\026AH-\242U\020l\305\376\035\004\351! (\205"
  63      1641482D 
  63      A255106C 
  63      C5FE1D04 
  63      E9212028 
  64 0043 B6E0D553 		.ascii	"\266\340\325SN\202z\220\036\025a}3\333\3356{h\207\371"
  64      4E827A90 
  64      1E15617D 
  64      33DBDD36 
  64      7B6887F9 
  65 0057 79F3DEF7 		.ascii	"y\363\336\367\336\367\346c\0300H\216\213\264\326\311"
  65      DEF7E663 
  65      1830488E 
  65      8BB4D6C9 
  66 0067 FD914EE4 		.ascii	"\375\221N\344\200l\351\020`>\315\020\245\001\010s\014"
  66      806CE910 
  66      603ECD10 
  66      A5010873 
  66      0C
  67 0078 E7EEA1C2 		.ascii	"\347\356\241\302n\260N7\010\336\267?\277\331\307ev\201"
  67      6EB04E37 
  67      08DEB73F 
  67      BFD9C765 
  67      7681
  68 008a A3839002 		.ascii	"\243\203\220\002\033A\223\033\015\015\026}\177Iw\220"
  68      1B41931B 
  68      0D0D167D 
  68      7F497790 
  69 009a 6E427926 		.ascii	"nBy&h\227\205\356 \223'\337\203V\032`\020V}\377I\367"
  69      689785EE 
  69      209327DF 
  69      83561A60 
  69      10567DFF 
  70 00b0 E9D187DC 		.ascii	"\351\321\207\334\262\337Y|\351\377\013\002D\033\011"
  70      B2DF597C 
  70      E9FF0B02 
ARM GAS  /var/folders/c6/c789hm653lg9vtl73krp73tm0000gn/T//cc7oBT3V.s 			page 5


  70      441B09
  71 00bf 741B65E6 		.ascii	"t\033e\346]\2720]\035<\325\333\260\364\241N\306!\264"
  71      5DBA305D 
  71      1D3CD5DB 
  71      B0F4A14E 
  71      C621B4
  72 00d2 8ED63E6D 		.ascii	"\216\326>m?\342\307\254\021}g\375\357\357\001f\342+"
  72      3FE2C7AC 
  72      117D67FD 
  72      EFEF0166 
  72      E22B
  73 00e4 1C8C5BEA 		.ascii	"\034\214[\352\004\217w3\227\342\333\303/\324\226\211"
  73      048F7733 
  73      97E2DBC3 
  73      2FD49689 
  74 00f4 ABA81199 		.ascii	"\253\250\021\231$d\2648\250\367\"\274 \223\024\341\241"
  74      2464B438 
  74      A8F722BC 
  74      209314E1 
  74      A1
  75 0105 5A59D8C4 		.ascii	"ZY\330\304\347~\373\246\215\251\036\372\223\370\316"
  75      E77EFBA6 
  75      8DA91EFA 
  75      93F8CE
  76 0114 715C0B1B 		.ascii	"q\\\013\033<\200\326\267\366\367\253a\371\022\246\206"
  76      3C80D6B7 
  76      F6F7AB61 
  76      F912A686 
  77 0124 61C8C6BE 		.ascii	"a\310\306\276\025xF\231\375%\344\262BZ!'1z\324\001,"
  77      15784699 
  77      FD25E4B2 
  77      425A2127 
  77      317AD401 
  78 0139 3C586844 		.ascii	"<XhD)\032eIT\037\206\345\306\302\3000\254\37142\347"
  78      291A6549 
  78      541F86E5 
  78      C6C2C030 
  78      ACF93432 
  79 014e 542BC946 		.ascii	"T+\311Fzu\376\261\233\320\331\304\327\352\315\347\012"
  79      7A75FEB1 
  79      9BD0D9C4 
  79      D7EACDE7 
  79      0A
  80 015f 0D670AFD 		.ascii	"\015g\012\375\363\217\024z\253W\350_\231l\374\023b\367"
  80      F38F147A 
  80      AB57E85F 
  80      996CFC13 
  80      62F7
  81 0171 DEFE29C5 		.ascii	"\336\376)\305\025\221PfRt\023\337\222\021SG\"\233\370"
  81      15915066 
  81      527413DF 
  81      92115347 
  81      229BF8
  82 0184 0EB3615B 		.ascii	"\016\263a[_a\276\273\"\"\251x\350\234 8}/\211\275\234"
  82      5F61BEBB 
  82      2222A978 
  82      E89C2038 
ARM GAS  /var/folders/c6/c789hm653lg9vtl73krp73tm0000gn/T//cc7oBT3V.s 			page 6


  82      7D2F89BD 
  83 0199 CF1BE1AC 		.ascii	"\317\033\341\254z\206[3<W\030\242<\325\254\230\216-"
  83      7A865B33 
  83      3C5718A2 
  83      3CD5AC98 
  83      8E2D
  84 01ab F202AE25 		.ascii	"\362\002\256%\3423U\267\346\031\267\306\013#\205Y\002"
  84      E23355B7 
  84      E619B7C6 
  84      0B238559 
  84      02
  85 01bc 8AAA6BDD 		.ascii	"\212\252k\335o\334p\362e\320\032\346t\335\312\235\306"
  85      6FDC70F2 
  85      65D01AE6 
  85      74DDCA9D 
  85      C6
  86 01cd 5BB33563 		.ascii	"[\2635c\244P\034+\032vEL\327\247,C\341\2053Z\257\010"
  86      A4501C2B 
  86      1A76454C 
  86      D7A72C43 
  86      E185335A 
  87 01e3 4A4992C7 		.ascii	"JI\222\307\250\262\327\364(>P(\216\353\223\246g\315"
  87      A8B2D7F4 
  87      283E5028 
  87      8EEB93A6 
  87      67CD
  88 01f5 B8764EBF 		.ascii	"\270vN\277r\035\230\013\375\216\345T\335&\374\007\377"
  88      721D980B 
  88      FD8EE554 
  88      DD26FC07 
  88      FF
  89 0206 27D196   		.ascii	"'\321\226"
  90              		.text
  91              		.section	.gnu.lto_chThdRelease.f375748057c8c4c,"",%progbits
  92 0000 789CA554 		.ascii	"x\234\245TMh\023A\024~of7\273M\254-\242\010\2425T\004"
  92      4D681341 
  92      147E6F66 
  92      37BB4DAC 
  92      2DA208A2 
  93 0017 B5A5EB4D 		.ascii	"\265\245\353M\217\212 x\350A\253\240^d\335\306v\301"
  93      8F8A2078 
  93      E841ABA0 
  93      5E64DDC6 
  93      76C1
  94 0029 B492B4A5 		.ascii	"\264\222\264\245\305\203\223&\242B\205\"\036\252\"\365"
  94      C5839326 
  94      A2428522 
  94      1EAA22F5 
  95 0039 A75E1414 		.ascii	"\247^\024\024\374A\301\202\021\245\370\377\003=y\320"
  95      FC41C182 
  95      11A5F8FF 
  95      033D79D0 
  96 0049 80A8A807 		.ascii	"\200\250\250\007\321\203\177\210\361\315Lv\233\244E"
  96      D1837F88 
  96      F1CD4C76 
  96      9BA445
  97 0058 0F0ED937 		.ascii	"\017\016\3317\263\363\336\367\2757\357\333\014\003\006"
ARM GAS  /var/folders/c6/c789hm653lg9vtl73krp73tm0000gn/T//cc7oBT3V.s 			page 7


  97      B3F3DEF7 
  97      BD37EFDB 
  97      0C0306
  98 0067 D563073D 		.ascii	"\325c\007=\257M\200[4\243\015\310\206\237\000dl\306"
  98      AF4D805B 
  98      34A30DC8 
  98      869F0064 
  98      6CC6
  99 0079 F8A40322 		.ascii	"\370\244\003\"j\2157\200\230\305\2311\261H\276=XIo\006"
  99      6A8D3780 
  99      98C59931 
  99      B148BE3D 
  99      58496F06 
 100 008d B7F62F00 		.ascii	"\267\366/\000a\233\312F\364\032-\015\214\350\005Z\210"
 100      619BCA46 
 100      F41A2D0D 
 100      8CE8055A 
 100      88
 101 009e 7206847D 		.ascii	"r\006\204}\214\033f\304\302}\333Pe\274\304\362\205b"
 101      8C1B66C4 
 101      C27DDB50 
 101      65BCC4F2 
 101      8562
 102 00b0 F1E2D789 		.ascii	"\361\342\327\211\261_8\312\346qL\"\030\340#\230\322"
 102      B15F38CA 
 102      E6714C22 
 102      18E02398 
 102      D2
 103 00c1 D8D2D448 		.ascii	"\330\322\324H\023%\2031ij\245\231+\367h\230\220\023"
 103      13258331 
 103      696AA599 
 103      2BF76898 
 103      9013
 104 00d3 6238DE08 		.ascii	"b8\336\010\247\2058\222\3771qx\276(\210a\361\273XD\037"
 104      A7853892 
 104      FF317178 
 104      BE288861 
 104      F1BB5844 
 105 00e8 19834604 		.ascii	"\031\203F\004\017a+\275p[M\006V\2368\211\264\341\251"
 105      0F612BBD 
 105      705B4D06 
 105      569E3889 
 105      B4E1A9
 106 00fb CDCD6465 		.ascii	"\315\315de\225[\220\311\231\337\207A\033@S\027F?_o>"
 106      955B90C9 
 106      99DF8741 
 106      1B405317 
 106      463F5F6F 
 107 0110 26F2B953 		.ascii	"&\362\271S\342\027q\023\221\311`\343\024y\\\223\033"
 107      E2177113 
 107      91C960E3 
 107      14795C93 
 107      1B
 108 0121 95E472CF 		.ascii	"\225\344r\317\214\323\342\011\014~\276t\347\362\020"
 108      8CD3E209 
 108      0C7EBE74 
 108      E7F210
ARM GAS  /var/folders/c6/c789hm653lg9vtl73krp73tm0000gn/T//cc7oBT3V.s 			page 8


 109 0130 2FD51B14 		.ascii	"/\325\033\024\236\277\365\363S=sq\014\033\303\303\344"
 109      9EBFF5F3 
 109      533D7371 
 109      0C1BC3C3 
 109      E4
 110 0141 AF1C1D8F 		.ascii	"\257\034\035\217-\014\337\016\275\242\262\\<\215&%\223"
 110      2D0CDF0E 
 110      BDA2B25C 
 110      3C8D2625 
 110      93
 111 0152 09193D1C 		.ascii	"\011\031=\034T3\021\306hI2r\255e\003\\\303\223bd\215"
 111      543311C6 
 111      68493272 
 111      AD65035C 
 111      C3936264 
 112 0167 8F918AF4 		.ascii	"\217\221\212\364S\376\033%\277\245\013|\014\203/F\276"
 112      53FE1B25 
 112      BFA50B7C 
 112      0C832F46 
 112      BE
 113 0178 2CD3F41D 		.ascii	",\323\364\035h4\301\012j\333\0118NH\273\003\271d\320"
 113      6834C10A 
 113      6ADB0938 
 113      4E48BB03 
 113      B964D0
 114 018b 0DDB19F6 		.ascii	"\015\333\031\366\3551d\017f\373\002\210I(\031\305\212"
 114      ED31640F 
 114      66FB0288 
 114      492819C5 
 114      8A
 115 019c A8F93668 		.ascii	"\250\3716hO\023\234\0274b\377\240#\002\000jt\341~6\242"
 115      4F139C17 
 115      3462FFA0 
 115      2302006A 
 115      74E17E36 
 116 01b1 812E9EA1 		.ascii	"\201.\236\241f\004\373e\002\274\037\257\022\300\305"
 116      6604FB65 
 116      02BC1FAF 
 116      12C0C5
 117 01c0 73AA19FF 		.ascii	"s\252\031\377T\000\376\252\300\207\037R\201+\225\012"
 117      5400FEAA 
 117      C0871F52 
 117      812B950A 
 118 01d0 7C8C3584 		.ascii	"|\2145\204\037\327\224\024o\312\244P\211<\265\254V\303"
 118      1FD79414 
 118      6FCAA450 
 118      893CB5AC 
 118      56C3
 119 01e2 C50BB408 		.ascii	"\305\013\264\010S\007\335w\361\"6\350\262\356\301\335"
 119      5307DD77 
 119      F12236E8 
 119      B2EEC1DD 
 120 01f2 77B7470F 		.ascii	"w\267G\017\360\260\2132\270\242\360-\3040\351p)\320"
 120      F0B08B32 
 120      B8A2F02D 
 120      C430E970 
 120      29D0
ARM GAS  /var/folders/c6/c789hm653lg9vtl73krp73tm0000gn/T//cc7oBT3V.s 			page 9


 121 0204 B3394198 		.ascii	"\2639A\230\255\364\251\231\271\241\001^rg\006B\210b"
 121      ADF4A999 
 121      B9A1015E 
 121      72670642 
 121      8862
 122 0216 AEAB6036 		.ascii	"\256\253`6 ;G1\217|\375\216A`\215\342\216\316\314\035"
 122      203B4731 
 122      8F7CFD8E 
 122      41608DE2 
 122      8ECECC1D 
 123 022a DC14A4FD 		.ascii	"\334\024\244\375\315\354\333\0203\227`\212_v\340\021"
 123      CDECDB10 
 123      3397608A 
 123      5F76E011 
 124 023a E4F266E8 		.ascii	"\344\362f\3509\014C\231\234\310\177\261|\372\327\322"
 124      390C4399 
 124      9CC87FB1 
 124      7CFAD7D2 
 125 024a 682F7194 		.ascii	"h/q\224\366\257\312}\005E\345\344\345\316\311\320\311"
 125      F6AFCA7D 
 125      0545E5E4 
 125      E5CEC9D0 
 125      C9
 126 025b 94D3A8A8 		.ascii	"\224\323\250\250\336\204L\204?\244\313E\347RXu\230o"
 126      DE844C84 
 126      3FA4CB45 
 126      E7525875 
 126      986F
 127 026d AB83EC51 		.ascii	"\253\203\354Qu\026\234\371,<<\313\340\366\000\020\373"
 127      75169CF9 
 127      2C3C3CCB 
 127      E0F60010 
 127      FB
 128 027e 1BC09802 		.ascii	"\033\300\230\002\204\037wEttzt\207<uy\206\332\377\312"
 128      841F7745 
 128      74747A74 
 128      873C7579 
 128      86DAFFCA 
 129 0292 503BFD00 		.ascii	"P;\375\000\224\026\340)\344\012/\317F5\006`/\374\024"
 129      9416E029 
 129      E40A2FCF 
 129      46350660 
 129      2FFC14
 130 02a5 0745BD8F 		.ascii	"\007E\275\217\263<}\003P\024\367\351\306,\265.R\335"
 130      B33C7D03 
 130      5014F7E9 
 130      C62CB52E 
 130      52DD
 131 02b7 3A4351D8 		.ascii	":CQ\330\323\360\263\275\322\015\241\360u\001\336R\367"
 131      D3F0B3BD 
 131      D20DA1F0 
 131      7501DE52 
 131      F7
 132 02c8 A2242809 		.ascii	"\242$(\011\372\0342\205\342\222\000\256\307f*\224\302"
 132      FA1C3285 
 132      E29200AE 
 132      C7662A94 
ARM GAS  /var/folders/c6/c789hm653lg9vtl73krp73tm0000gn/T//cc7oBT3V.s 			page 10


 132      C2
 133 02d9 A4748B5B 		.ascii	"\244t\213[Z\034\375\353N;\251\036'\235\362\034\257\263"
 133      5A1CFDEB 
 133      4E3BA91E 
 133      279DF21C 
 133      AFB3
 134 02eb 7DA0CB4D 		.ascii	"}\240\313M\372^\213\007F*\261+\275\274*hOw\252'\355"
 134      FA5E8B07 
 134      462AB12B 
 134      BDBC2A68 
 134      4F77AA27 
 135 0300 ACDDD4BA 		.ascii	"\254\335\324\272\256\265\237\242\275\356TbG\337\252"
 135      AEB59FA2 
 135      BDEE5462 
 135      47DFAA
 136 030f 644B2798 		.ascii	"dK'\230}\356\356\336Dsy|\242\277\307Y\327\332\266\241"
 136      7DEEEEDE 
 136      4473797C 
 136      A2BFC759 
 136      D7DAB6A1 
 137 0323 CDF1BBBC 		.ascii	"\315\361\273\274\335\275\355\011G\305{\311\365\275]"
 137      DDBDED09 
 137      47C57BC9 
 137      F5BD5D
 138 0332 1E41AA2B 		.ascii	"\036A\252+\010\243:\323\003i\362\327\267\266m\212\357"
 138      08A33AD3 
 138      0369F2D7 
 138      B7B66D8A 
 138      EF
 139 0343 74D3893D 		.ascii	"t\323\211=)\2779\276t%\260\024X\311D\262;5\000\177\000"
 139      29BF39BE 
 139      7425B014 
 139      58C944B2 
 139      3B35007F 
 140 0358 20BD7663 		.ascii	" \275vc"
 141              		.text
 142              		.section	.gnu.lto_chThdCreateFromHeap.f375748057c8c4c,"",%progbits
 143 0000 789C8553 		.ascii	"x\234\205S_HSQ\030\377\276s\356\234n\256\006\365P\020"
 143      5F485351 
 143      18FFBE73 
 143      EE9C6EAE 
 143      06F55010 
 144 0014 36848248 		.ascii	"6\204\202Hv\203\036z-\204\240\207\275\270\204z\212\353"
 144      76831E7A 
 144      2D84A087 
 144      BDB8847A 
 144      8AEB
 145 0026 71CC0BCE 		.ascii	"q\314\013\316\215m\232\322\203\247\241\020!!\321\203"
 145      8D6D9AD2 
 145      83A7A110 
 145      2121D183 
 146 0036 958122FD 		.ascii	"\225\201\"\375!\302\376AZ\031L\372C\2232z\222\210b/"
 146      21C2FE41 
 146      5A194CFA 
 146      4393327A 
 146      9288622F 
 147 004a 2215213E 		.ascii	"\"\025!>\205b\331w\316\335\346\266 \317\275\367\374"
ARM GAS  /var/folders/c6/c789hm653lg9vtl73krp73tm0000gn/T//cc7oBT3V.s 			page 11


 147      8562D977 
 147      CEDDE6B6 
 147      20CFBDF7 
 147      FC
 148 005b F9CEEF3B 		.ascii	"\371\316\357;\347\373~\277\3572`P\335\016\323\307\014"
 148      E7FB7EBF 
 148      EF326050 
 148      DD0ED3C7 
 148      0C
 149 006c 80591AD1 		.ascii	"\200Y\032\321\005\310\206\347\001\316\3272f\314q\220"
 149      05C886E7 
 149      01CED732 
 149      66CC7190 
 150 007c 1EFE660E 		.ascii	"\036\376f\016@\326s4\034\273\201\250&\200\320\317\270"
 150      40D67334 
 150      1CBB81A8 
 150      2680D0CF 
 150      B8
 151 008d 81FDA751 		.ascii	"\201\375\247Q\035\302\032a\\\312\313\371\327\2239\274"
 151      1DC21A61 
 151      5CCACBF9 
 151      D79339BC 
 152 009d 2AB30363 		.ascii	"*\263\003cr}c\003\321F\272\260\021A \234\242\005\006"
 152      727D6303 
 152      D146BAB0 
 152      1141209C 
 152      A20506
 153 00b0 F4A06E2B 		.ascii	"\364\240n+o\216o\366\327\334\245\335r,3,\377\220\253"
 153      6F8E6FF6 
 153      D7DCA5DD 
 153      722C332C 
 153      FF90AB
 154 00c3 8D9CC1FE 		.ascii	"\215\234\301\376\255<\357\263l~cct\341\301\320=\234"
 154      AD3CEFB3 
 154      6C7E6363 
 154      74E1C1D0 
 154      3D9C
 155 00d5 643B10C8 		.ascii	"d;\020\310\315\300\030\202\213:t\203\205\343\330\010"
 155      CDC01882 
 155      8B3A7483 
 155      85E3D808 
 156 00e5 75B4601E 		.ascii	"u\264`\036\352\270\227:\303G\346\0112Ss\301\200\224"
 156      EAB8973A 
 156      C347E609 
 156      325373C1 
 156      8094
 157 00f7 C3010756 		.ascii	"\303\001\007V\264\012\235\321I\352U\242\255\310\324"
 157      B40A9DD1 
 157      49EA55A2 
 157      ADC8D4
 158 0106 C83FC060 		.ascii	"\310?\300`\376\305\"Zx\223H\212\242\373\034\254\311"
 158      FEC5225A 
 158      7893488A 
 158      A2FB1CAC 
 158      C9
 159 0117 0BD26FA3 		.ascii	"\013\322o\243!P;\220\321\210\242\313\246m\310\001s\200"
 159      21503B90 
ARM GAS  /var/folders/c6/c789hm653lg9vtl73krp73tm0000gn/T//cc7oBT3V.s 			page 12


 159      D188A2CB 
 159      A66DC801 
 159      7380
 160 0129 CEC90407 		.ascii	"\316\311\004\007x\013\257\226f\177_\344\245\023TB\025"
 160      780BAF96 
 160      667F5FE4 
 160      A5135442 
 160      15
 161 013a D9B42207 		.ascii	"\331\264\"\007b\233\347 S[d%\377xe\252\251\202\321\032"
 161      629BE720 
 161      535B6425 
 161      FF7865AA 
 161      A982D11A 
 162 014e 06E1AD78 		.ascii	"\006\341\255xQ\266\232\000M\346!\263\362\364\345\243"
 162      51B69A00 
 162      4DE621B3 
 162      F2F4E5A3 
 163 015e 215EC8B4 		.ascii	"!^\310\264\230rvim\331O1\336\326\031\027l\317\257\314"
 163      98727669 
 163      6DD94F31 
 163      DED61917 
 163      6CCFAFCC 
 164 0172 78F79456 		.ascii	"x\367\224V\271\237T+N\260\2028\020\024\234@}\017\322"
 164      B99F542B 
 164      4EB08238 
 164      10149C40 
 164      7D0FD2
 165 0185 738B96B4 		.ascii	"s\213\226\264\317\235\202j\200)\274!G\216\332*\321\262"
 165      CF9D826A 
 165      8029BC21 
 165      478EDA2A 
 165      D1B2
 166 0197 EB37F79F 		.ascii	"\3537\367\237\025\366k\235\000?\300\210|\367yW\221\013"
 166      15F66B9D 
 166      003FC088 
 166      7CF77957 
 166      910B
 167 01a9 5F89CD3A 		.ascii	"_\211\315:\241\370\323l\272\211\315(\326E\321\023E\257"
 167      A1F8D36C 
 167      BA89CD28 
 167      D645D113 
 167      45AF
 168 01bb 8D9E0A5A 		.ascii	"\215\236\012Z'4\255>\200\367\220\231\236\236Z-\010s"
 168      2734AD3E 
 168      80F79099 
 168      9E9E5A2D 
 168      0873
 169 01cd 10EE4A6A 		.ascii	"\020\356Jj\004\367^\207k\024F=\201T8\\\037\332\206\233"
 169      04F75E87 
 169      6B14463D 
 169      8154385C 
 169      1FDA869B 
 170 01e1 FCF850C7 		.ascii	"\374\370P\3071\230\377\272\350v\234\001Jal\023XS\010"
 170      3198FFBA 
 170      E8769C01 
 170      4A616C13 
 170      585308
ARM GAS  /var/folders/c6/c789hm653lg9vtl73krp73tm0000gn/T//cc7oBT3V.s 			page 13


 171 01f4 43BB6F07 		.ascii	"C\273o\007*-\277\212\240\\\232o3U\322XxGS\265\2456\360"
 171      2A2DBF8A 
 171      A05C9A6F 
 171      3355D258 
 171      784753B5 
 172 020b 5F6DBEAF 		.ascii	"_m\276\257*m\236Tj\363\303\333P*\330M\221\226\313D\322"
 172      2A6D9E54 
 172      6AF3C3DB 
 172      502AD84D 
 172      9196CB44 
 173 0220 DC0BA2F8 		.ascii	"\334\013\242\370_\235,\234\244I\351\352\242.\026>\304"
 173      5F9D2C9C 
 173      A449E9EA 
 173      A22E163E 
 173      C4
 174 0231 86F20234 		.ascii	"\206\362\0024t\255\177\244\377\\\245\256\331\372\004"
 174      74AD7FA4 
 174      FF5CA5AE 
 174      D9FA04
 175 0240 582090AD 		.ascii	"X \220\255/\354$>\370\350\227z\365\177\240\302\252c"
 175      2FEC243E 
 175      F8E8977A 
 175      F57FA0C2 
 175      AA63
 176 0252 F60683A6 		.ascii	"\366\006\203\246\363\306Sf2m\246\222\302\024\035\355"
 176      F3C65366 
 176      326DA692 
 176      C2141DED 
 177 0262 7D5D56CC 		.ascii	"}]V\314\026A\001\374l*\301\322\211\003U\260D<\231N\231"
 177      164101FC 
 177      6C2AC1D2 
 177      890355B0 
 177      443C994E 
 178 0277 C75A42CD 		.ascii	"\307ZB\315\241^\302\213x2r\246\347H,\330\001\256\036"
 178      A15EC28B 
 178      783272A6 
 178      E7482CD8 
 178      01AE1E
 179 028a ABB33BD2 		.ascii	"\253\263;\322T\216\217\364\246\315\346P\370D\330\264"
 179      548E8FF4 
 179      A6CDE650 
 179      F844D8B4 
 180 029a BB446777 		.ascii	"\273Dgw{\304\324x\021;\336\335%\310\245:\206\022\252"
 180      7BC4D478 
 180      113BDEDD 
 180      25C8A53A 
 180      8612AA
 181 02ad 23D597A2 		.ascii	"#\325\227\242}\177(\334\022h\263R\221D\322n\012\354"
 181      7D7F28DC 
 181      1268B352 
 181      9144D26E 
 181      0AEC
 182 02bf 3B042C09 		.ascii	";\004,\011\356X$\026O\366\301_J\260%\337"
 182      EE582416 
 182      4FF6C15F 
 182      4AB025DF 
 183              		.text
ARM GAS  /var/folders/c6/c789hm653lg9vtl73krp73tm0000gn/T//cc7oBT3V.s 			page 14


 184              		.section	.gnu.lto_chThdCreateFromMemoryPool.f375748057c8c4c,"",%progbits
 185 0000 789C8554 		.ascii	"x\234\205TMhSA\020\236\331\367\362\323\244\321h{\021"
 185      4D685341 
 185      109ED9F7 
 185      F2D3A4D1 
 185      687B11
 186 0013 A4868282 		.ascii	"\244\206\202\202\266$\202\007\257JA\360\220KcAO\222"
 186      B6248207 
 186      AF4A41F0 
 186      904B6341 
 186      4F92
 187 0025 6E43F2A0 		.ascii	"nC\362\240iB\222\326\006\017\335\206\012\012\245\024"
 187      694292D6 
 187      060FDD86 
 187      0A0AA514 
 188 0035 F15015A1 		.ascii	"\361P\025\241\245\370\203\202\242\036\252\265`\212?"
 188      A5F88382 
 188      A21EAAB5 
 188      608A3F
 189 0044 984A5BBC 		.ascii	"\230J[\274Y\351!\242\020\324\203\266E\260U\214\263\357"
 189      59E921A2 
 189      10D483B6 
 189      45B0558C 
 189      B3EF
 190 0056 25CF2415 		.ascii	"%\317$\025\373\222\354\276\235\235og\346\233o\303\200"
 190      FB92ECBE 
 190      9D9D6F67 
 190      E69B6FC3 
 190      80
 191 0067 41ED7388 		.ascii	"A\355s\210~\011\025`\226f\264\000\262\321\005\200A;"
 191      7E091560 
 191      9666B400 
 191      B2D10580 
 191      413B
 192 0079 63EA9C02 		.ascii	"c\352\234\002\302\241\274\234\003\020\365\012\252\206"
 192      C2A1BC9C 
 192      0310F50A 
 192      AA86
 193 0087 5D45942F 		.ascii	"]E\224/\2000\300\024\025\007N\241<\2045\303\204\020"
 193      8030C014 
 193      15074EA1 
 193      3C8435C3 
 193      8410
 194 0099 17F32F0A 		.ascii	"\027\363/\0129\274,\262C\343\342W\261\210\250!\005l"
 194      39BC2CB2 
 194      43E3E257 
 194      B188A821 
 194      056C
 195 00ab 46E00827 		.ascii	"F\340\010'i\201\036}bju\006\0066\373tad\227\030\317"
 195      69811E7D 
 195      626A7506 
 195      0636FB74 
 195      61649718 
 196 00c0 8C8ADF04 		.ascii	"\214\212\337\004\325Pa\260o+\344=\226\315\027\213\313"
 196      D55061B0 
 196      6F2BE43D 
 196      96CD178B 
ARM GAS  /var/folders/c6/c789hm653lg9vtl73krp73tm0000gn/T//cc7oBT3V.s 			page 15


 196      CB
 197 00d1 6BDF3E2C 		.ascii	"k\337>,aC#\002\241T\214\"X!\210\023\330\014v\262\250"
 197      61432302 
 197      A1548C22 
 197      58218813 
 197      D80C76B2 
 198 00e6 75644107 		.ascii	"udA\007\015\314I\203\342\242\275I\332\243\307\002CB"
 198      0DCC4983 
 198      E2A2BD49 
 198      DAA3C702 
 198      4342
 199 00f8 8C7A0C5F 		.ascii	"\214z\014_\303\032E\012\301\365\232N\320(K\355@&ge\021"
 199      C31A450A 
 199      C1F59A4E 
 199      D0284BED 
 199      40266765 
 200 010d 86F2770A 		.ascii	"\206\362w\012\030\304\353DS\030\255gaC\234\027n\015"
 200      18C4EB44 
 200      5318AD67 
 200      61439C17 
 200      6E0D
 201 011f 2D1C7500 		.ascii	"-\034u\000\031U\015\255\0009`\206\227qrX\332^\301\363"
 201      19550DAD 
 201      00396086 
 201      97717258 
 201      DA5EC1F3 
 202 0133 C2ECD288 		.ascii	"\302\354\322\210b\302e=U\305t\240\002D\266\222\203\214"
 202      62C2653D 
 202      55C574A0 
 202      0244B692 
 202      838C
 203 0145 BD4C4AFE 		.ascii	"\275LJ\376\341\312Tk\025\2416\006\201\255h\2216\233"
 203      E1CA546B 
 203      15A13606 
 203      81AD6891 
 203      369B
 204 0157 875E1620 		.ascii	"\207^\026 \263\362\370\331\203a\245Ti\271\344la\343"
 204      B3F2F8D9 
 204      8361A554 
 204      69B9E46C 
 204      61E3
 205 0169 AB9B72BC 		.ascii	"\253\233r\274\251\363P\262=\2714\343\334m\256r\037\025"
 205      A9F350B2 
 205      3DB934E3 
 205      DC6DAE72 
 205      1F15
 206 017b 0023594E 		.ascii	"\000#YN\004pJ\216\243\036\007\351s\203\226$%\305\320"
 206      04704A8E 
 206      A31E07E9 
 206      73839624 
 206      25C5D0
 207 018e 53134CE1 		.ascii	"S\023L\34151vDC{U\370\277\373\323\245\375:#\301y\310"
 207      35317644 
 207      437B55F8 
 207      BFFBD3A5 
 207      FD3A23C1 
 208 01a4 BC7BBBFA 		.ascii	"\274{\273\372\236\225\311\260\267\300\001\015\035W\341"
ARM GAS  /var/folders/c6/c789hm653lg9vtl73krp73tm0000gn/T//cc7oBT3V.s 			page 16


 208      9E95C9B0 
 208      B7C0010D 
 208      1D57E1
 209 01b3 CAA01022 		.ascii	"\312\240\020\"\255\241\223\250\224\307\324\353\356\235"
 209      ADA193A8 
 209      94C7D4EB 
 209      EE9D
 210 01c1 26518B30 		.ascii	"&Q\2130&\"e\224\313\354\200\213\223\301\350\200\225"
 210      26226594 
 210      CBEC808B 
 210      93C1E880 
 210      95
 211 01d2 4E0B635D 		.ascii	"N\013c]\030\035atj\270\255\252\033\223z7\\z\002\217"
 211      181D6174 
 211      6AB8ADAA 
 211      1B937A37 
 211      5C7A028F 
 212 01e6 7EACAE97 		.ascii	"~\254\256\227\232\331\002\267)\254 \367\355\224\002"
 212      9AD902B7 
 212      29AC20F7 
 212      ED9402
 213 01f5 85759393 		.ascii	"\205u\223\223\014\257\224\302\243I\353\016f\244\377"
 213      0CAF94C2 
 213      A349EB0E 
 213      66A4FF
 214 0204 7A6C6D33 		.ascii	"zlm3\032\376\215feq\310\374\317\345\347\0136\003\010"
 214      1AFE8D66 
 214      6571C8FC 
 214      CFE5E70B 
 214      360308
 215 0217 6016B093 		.ascii	"`\026\260\223K\215\350^:\264\001H\271\2152\367J-|\232"
 215      4B8DE85E 
 215      3AB40148 
 215      B98D32F7 
 215      4A2D7C9A 
 216 022b A9D14210 		.ascii	"\251\321B\020o\351\275\331R\014\360_1|^\227b\230\256"
 216      6FE9BDD9 
 216      520CF05F 
 216      317C5E97 
 216      6298AE
 217 023e 16C31767 		.ascii	"\026\303\027g\223yCL\363\205B\205*\364S9\365|\2630\202"
 217      9379434C 
 217      F3854285 
 217      2AF45339 
 217      F57CB330 
 218 0253 78975ECC 		.ascii	"x\227^\314\320e!\004\361>6U*^\325o\326\033\372_\221"
 218      D0652104 
 218      F13E3655 
 218      2A5ED56F 
 218      D61BFA5F 
 219 0268 A5EB342F 		.ascii	"\245\3534/\001\226\310c\313\337\033\211\017e\370g\275"
 219      0196C863 
 219      CBDF1B89 
 219      0F65F867 
 219      BD
 220 0279 BC8D287D 		.ascii	"\274\215(}\3451{\274^\237\361\215%}\211\224/\231\340"
 220      E5317BBC 
ARM GAS  /var/folders/c6/c789hm653lg9vtl73krp73tm0000gn/T//cc7oBT3V.s 			page 17


 220      5E9FF18D 
 220      257D8994 
 220      2F99E0
 221 028c 3E1EE94A 		.ascii	">\036\351J\367\004\243\032\367rP\316$\343,\025\337_"
 221      F704A31A 
 221      F77250CE 
 221      24E32C15 
 221      DF5F
 222 029e E3168F25 		.ascii	"\343\026\217%RI\337\321v\177\233\277\237\374y,\021:"
 222      5249DFD1 
 222      767F9BBF 
 222      9FFC792C 
 222      113A
 223 02b0 DD7738EA 		.ascii	"\335w8\352\215\200\245/\330\335\033j\255\364\017\365"
 223      8D80A52F 
 223      D8DD1B6A 
 223      ADF40FF5 
 224 02c0 A77C6DFE 		.ascii	"\247|m\376\300\361\200O\353\341\335\275]!\237\356\317"
 224      C0F1804F 
 224      EBE1DDBD 
 224      5D219FEE 
 224      CF
 225 02d1 A3C77A7B 		.ascii	"\243\307z{8Ajs0\275\"\311t\222\366\335\376@\273\247"
 225      38416A73 
 225      30BD22C9 
 225      7492F6DD 
 225      FE40BBA7 
 226 02e5 33980CC5 		.ascii	"3\230\014\305\023Z\253g\357A`\011\260EC\321X\"\015\177"
 226      135AAB67 
 226      EF416009 
 226      B04543D1 
 226      58220D7F 
 227 02f9 002A7D3F 		.ascii	"\000*}?:"
 227      3A
 228              		.text
 229              		.section	.gnu.lto_.symbol_nodes.f375748057c8c4c,"",%progbits
 230 0000 789C4DC8 		.ascii	"x\234M\310K\012\3020\000\204\341\231$m\323\036\302\253"
 230      4B0AC230 
 230      0084E199 
 230      246DD31E 
 230      C2AB
 231 0012 4EA12082 		.ascii	"N\241 \202\033/\240\033ob\367=\203\">\212\342c\245\033"
 231      1B2FA01B 
 231      6F62F73D 
 231      83223E8A 
 231      E263A51B 
 232 0026 C59416D3 		.ascii	"\305\224\026\323\331\014\337o`\320b\230yS\300\242\001"
 232      D90CDF6F 
 232      60D06298 
 232      7953C0A2 
 232      01
 233 0037 A4E58CE6 		.ascii	"\244\345\214\346@q\340*\360H\231\021O\224\035\361L\271"
 233      4071E02A 
 233      F0489911 
 233      4F941DF1 
 233      4CB9
 234 0049 485EA9A4 		.ascii	"H^\251\244gY\222\027*\215zPY\324\235\362Q7*\217zR\305"
ARM GAS  /var/folders/c6/c789hm653lg9vtl73krp73tm0000gn/T//cc7oBT3V.s 			page 18


 234      67599217 
 234      2A8D7A50 
 234      59D49DF2 
 234      51372A8F 
 235 0060 5F1609F6 		.ascii	"_\026\011\366\273/\255IQ\315\233\360\300\246{\233\243"
 235      BB2FAD49 
 235      51CD9BF0 
 235      C0A67B9B 
 235      A3
 236 0071 DA866E3D 		.ascii	"\332\206n=\326\355+|\206j\372\231XW\364\335y\324]w\031"
 236      D6ED2B7C 
 236      866AFA99 
 236      5857F4DD 
 236      79D45D77 
 237 0086 EAD0F103 		.ascii	"\352\320\361\003a\332I>"
 237      61DA493E 
 238              		.text
 239              		.section	.gnu.lto_.refs.f375748057c8c4c,"",%progbits
 240 0000 789C6362 		.ascii	"x\234cb`b`d\200\002\000\000F\000\006"
 240      60626064 
 240      80020000 
 240      460006
 241              		.text
 242              		.section	.gnu.lto_.decls.f375748057c8c4c,"",%progbits
 243 0000 789CBD5B 		.ascii	"x\234\275[\177t\024\325\275\237;\273\311f\223\005Q\237"
 243      7F7414D5 
 243      BD9F3BBB 
 243      C9669305 
 243      519F
 244 0012 3678EC73 		.ascii	"6x\354s}\325\036\237\257&\261E\213\375\243\350\243U"
 244      7DD51E9F 
 244      AF26B145 
 244      8BFDA3E8 
 244      A355
 245 0024 3CA7F658 		.ascii	"<\247\366X\321\323\236\327\276\263\216\233!\233\307"
 245      D1D39ED7 
 245      BEB38E9B 
 245      219BC7
 246 0033 6E76BB3B 		.ascii	"nv\273;\341\307\373\307!@\202\200\030\022 `\023\010"
 246      E1C7FBC7 
 246      21408280 
 246      18122060 
 246      1308
 247 0045 022A88C1 		.ascii	"\002*\210\301 ?\015\247,<I\370\031\014\221VQ\313\"\002"
 247      203F0DA7 
 247      2C3C49F8 
 247      190C9156 
 247      51CB2202 
 248 0059 6D5E8DC6 		.ascii	"m^\215\306\030 \007a\337\367\336;\263;swfwf\251o\016"
 248      18200761 
 248      DFF7DE3B 
 248      B33B7377 
 248      667766A9 
 249 006f 77767EDC 		.ascii	"wv~\334\373\371\376\270\337_\367N\3409\236\273\313\301"
 249      FBF9FEB8 
 249      DF5FF74E 
 249      E0399EBB 
ARM GAS  /var/folders/c6/c789hm653lg9vtl73krp73tm0000gn/T//cc7oBT3V.s 			page 19


 249      CBC1
 250 0081 7149386E 		.ascii	"qI8n\374\011\307\375\334\305q\205\034\307\375\024\032"
 250      FC09C7FD 
 250      DCC57185 
 250      1CC7FD14 
 250      1A
 251 0092 0F0D71F4 		.ascii	"\017\015q\364\036\037%\320\326B\3735<\374Oh~h\035\320"
 251      1E1F25D0 
 251      D642FB35 
 251      3CFC4F68 
 251      7E681DD0 
 252 00a6 8E413B01 		.ascii	"\216A;\001\355}h\037B;\003\355<\3422\016<\266\010\332"
 252      ED7D681F 
 252      423B03ED 
 252      3CE2320E 
 252      3CB608DA 
 253 00ba 256863A1 		.ascii	"%hc\241y\240\255\2076\011\332\006h\0030\246\027\032"
 253      79A0AD87 
 253      3609DA06 
 253      680330A6 
 253      171A
 254 00cc B0C37D02 		.ascii	"\260\303}\002\355#h\277B\224\017<\026\323q\302\357\377"
 254      ED2368BF 
 254      42940F3C 
 254      16D371C2 
 254      EFFF
 255 00de C2EFD3D0 		.ascii	"\302\357\323\320\206\240}\305\320\301\274\271\025\276"
 255      86A07DC5 
 255      D0C1BCB9 
 255      15BE
 256 00ec B769E80C 		.ascii	"\267i\350\014\303\203\021DioP\350\342>\027\025\371\360"
 256      C3831144 
 256      696F50E8 
 256      E23E1715 
 256      F9F0
 257 00fe B84BD0AE 		.ascii	"\270K\320\256@\273\006\315\005D\213yJ\373\267p?\206"
 257      40BB06CD 
 257      05448B79 
 257      4AFBB770 
 257      3F86
 258 0110 D7D3C1F2 		.ascii	"\327\323\301\362\217S0\32632m\323\320\303\264.@\373"
 258      8F5330D6 
 258      33326DD3 
 258      D0C3B42E 
 258      40FB
 259 0122 4AD1E95A 		.ascii	"J\321\351Zx\326\006\355&\300{\005\356\013\024\036\316"
 259      78D606ED 
 259      26C07B05 
 259      EE0B141E 
 259      CE
 260 0133 431BD2C8 		.ascii	"C\033\322\310]\244\3200\342\011\353z\2552V@T\0377\303"
 260      5DA4D030 
 260      E209EB7A 
 260      AD325640 
 260      541F37C3 
 261 0147 F37F8276 		.ascii	"\363\177\202v\013\303'\236\243\033\025\035ku~+\364\373"
 261      0BC3279E 
ARM GAS  /var/folders/c6/c789hm653lg9vtl73krp73tm0000gn/T//cc7oBT3V.s 			page 20


 261      A31B151D 
 261      6B757E2B 
 261      F4FB
 262 0159 14E979FD 		.ascii	"\024\351y\375\016<;\205(\257\033\024\331Jy\252\237\223"
 262      0E3C3B85 
 262      28AF1B14 
 262      D94A79AA 
 262      9F93
 263 016b 88DE631E 		.ascii	"\210\336c\036\335\012\356\031\206\277\017\025\033P\371"
 263      DD0AEE19 
 263      86BF0F15 
 263      1B50F9
 264 017a C4FCAD87 		.ascii	"\304\374\255\207\373W\241\275\006m#\2647\230\371\302"
 264      FB57A1BD 
 264      066D23B4 
 264      3798F9C2 
 265 018a F6738B01 		.ascii	"\366s\213\001\177x\354x\300\270\300\360\370{h[\241u"
 265      7F78EC78 
 265      C0B8C0F0 
 265      F87B685B 
 265      A175
 266 019c 5AE017DB 		.ascii	"Z\340\027\333\321^Dy\376\225b\027\035\212m\346\342\273"
 266      D15E4479 
 266      FE956217 
 266      1D8A6DE6 
 266      E2BB
 267 01ae 07EE0F41 		.ascii	"\007\356\017A;\014\355\010\264\333\030\275\336\301\255"
 267      3B0CED08 
 267      B4DB18BD 
 267      DEC1AD
 268 01bd 96E389C4 		.ascii	"\226\343\211\304\271\301\267\306/h\257\213'\223\223"
 268      B9C1B7C6 
 268      2F68AF8B 
 268      279393
 269 01cc B85BB9E5 		.ascii	"\270[\271\3452\034\355\365\262\214$\001\375\364\026"
 269      321CEDF5 
 269      B28C2401 
 269      FDF416
 270 01db EE374840 		.ascii	"\3567H@c\335\234\227\\x\334\304x\361\224\275\202n%W"
 270      63DD9C97 
 270      5C78DCC4 
 270      78F194BD 
 270      826E2557 
 271 01ef 0E625EE0 		.ascii	"\016b^\340W\013e\271\016\017\234rp\354M\334R\214\342"
 271      570B65B9 
 271      0E0F9C72 
 271      70EC4DDC 
 271      528CE2
 272 0202 3D08DA50 		.ascii	"=\010\332P\306\267;U\200\237A\357\273\271\365\262\334"
 272      C6B73B55 
 272      809F41EF 
 272      BBB9F5B2 
 272      DC
 273 0213 98587EB5 		.ascii	"\230X~\265\337!\313E\002\332\200n\002\230\307\020w/"
 273      DF21CB45 
 273      02DA806E 
 273      0298C710 
ARM GAS  /var/folders/c6/c789hm653lg9vtl73krp73tm0000gn/T//cc7oBT3V.s 			page 21


 273      772F
 274 0225 B7110636 		.ascii	"\267\021\0066\002\324\275\006\316\307\345\004\346\261"
 274      02D4BD06 
 274      CEC7E504 
 274      E6B1
 275 0233 13086823 		.ascii	"\023\010h#\340\011\350ut/\245$'\232\033\016\314Es@("
 275      E009E875 
 275      742FA524 
 275      279A1B0E 
 275      CC457340 
 276 0248 FA8E53DE 		.ascii	"\372\216S\336\032\034wr\355@=\336\262\244m\274\334\276"
 276      1A1C7772 
 276      ED403DDE 
 276      B2A46DBC 
 276      DCBE
 277 025a 1FFAAF47 		.ascii	"\037\372\257G%\000[\207T\\#\205(\227\364P:\350\361^"
 277      25005B87 
 277      545C2385 
 277      2897F450 
 277      3AE8F15E 
 278 026e EEF5340A 		.ascii	"\356\3654\012*\330\013\266\301\274:\2605\275\255\204"
 278      2AD80BB6 
 278      C1BC3AB0 
 278      35BDAD84 
 279 027e 3937B720 		.ascii	"97\267 \255t\316\020L\321t\337\302\336>4\227\310\337"
 279      AD74CE10 
 279      4CD174DF 
 279      C2DE3E34 
 279      97C8DF
 280 0291 09C378EE 		.ascii	"\011\303x\356\000a!\255\003\353P]K\016\354Cu\004j\033"
 280      006121AD 
 280      03EB505D 
 280      4B0EEC43 
 280      75046A1B 
 281 02a5 817A99CF 		.ascii	"\201z\231\317\027\252\245y\317Cd\376w\022 \331\241\007"
 281      17AAA579 
 281      CF4364FE 
 281      771220D9 
 281      A107
 282 02b7 12902BA5 		.ascii	"\022\220+\245\306\324\275\332\001\243\221\327\312\005"
 282      C6D4BDDA 
 282      01A391D7 
 282      CA05
 283 02c5 0EFE3770 		.ascii	"\016\3767p\337rw\236[\344\2600uEfv '\232\032\216:V\311"
 283      DF72779E 
 283      5BE4B030 
 283      75456676 
 283      20279A1A 
 284 02dd F1790EC5 		.ascii	"\361y\016\305\224\333\013\315t\304sM\204\326\036\326"
 284      94DB0BCD 
 284      74C4734D 
 284      84D61ED6 
 285 02ed 96474E1D 		.ascii	"\226GN\035\255Sly\217%[\336~\270\205\230KN\037\345U"
 285      AD536C79 
 285      8F255BDE 
 285      7EB88598 
 285      4B4E1FE5 
ARM GAS  /var/folders/c6/c789hm653lg9vtl73krp73tm0000gn/T//cc7oBT3V.s 			page 22


 286 0302 FA7711FA 		.ascii	"\372w\021\372qB\177\037K\177\367\352\213\252/\355\263"
 286      71427F1F 
 286      4B7FF7EA 
 286      8BAA2FED 
 286      B3
 287 0313 447FCD89 		.ascii	"D\177\315\211e\231\364M\203\213b\033#\247\316\017)T"
 287      6599F44D 
 287      838B621B 
 287      23A7CE0F 
 287      2954
 288 0325 0E10A7B9 		.ascii	"\016\020\247\271\230a\035\223J\364\363\007\367\232\016"
 288      98611D93 
 288      4AF4F307 
 288      F79A0E
 289 0334 3C974CF1 		.ascii	"<\227L\361\237\227\317\202\240G\227\241\246\271\362"
 289      9F97CF82 
 289      A04797A1 
 289      A6B9F2
 290 0343 C10A9587 		.ascii	"\301\012\225\207:\247]D\257N\023[O\220(@\301\346[\001"
 290      3AA75D44 
 290      AF4E135B 
 290      4F902840 
 290      C1E65B01 
 291 0357 3335A5BA 		.ascii	"35\245\272\3706-\330\002\333`z\316vh\301\026Y\001\033"
 291      F8362DD8 
 291      02DB607A 
 291      CE7668C1 
 291      1659011B 
 292 036b 67CED92E 		.ascii	"g\316\331.-\330\022\333`z\316\336\321\202-\265\002V"
 292      2DD812DB 
 292      607ACEDE 
 292      D1822DB5 
 292      0256
 293 037d 6ACED91E 		.ascii	"j\316\331\036-\330r\333`z\316\376\250\005[e\005\314"
 293      2DD872DB 
 293      607ACEFE 
 293      A8055B65 
 293      05CC
 294 038f 6BC059EA 		.ascii	"k\300Y\3520\313\264q\224\262s\236ku\2521\301\246Msi"
 294      30CBB471 
 294      94B2739E 
 294      6B75AA31 
 294      C1A64D73 
 295 03a4 8C76A7DD 		.ascii	"\214v\247\335\030\246\223\033\222\351\261u\250\231\372"
 295      18A6931B 
 295      92E9B175 
 295      A899FA
 296 03b3 054D68AF 		.ascii	"\005Mh\257ZA\314b0;\264\331\261\3036\230~Z\336\307`"
 296      5A41CC62 
 296      303BB4D9 
 296      B1C33698 
 296      7E5ADEC7 
 297 03c8 BA58A364 		.ascii	"\272X\243d\244\304\206x\351\312t\270+R\261p\245Ac\033"
 297      A4C48678 
 297      E9CA74B8 
 297      2B52B170 
 297      A541631B 
ARM GAS  /var/folders/c6/c789hm653lg9vtl73krp73tm0000gn/T//cc7oBT3V.s 			page 23


 298 03dc 141E7CAA 		.ascii	"\024\036|\252\263\\Zj\334W@\237\242\273\341|\026\271"
 298      B35C5A6A 
 298      DC57409F 
 298      A2BBE17C 
 298      16B9
 299 03ee 535CD06B 		.ascii	"S\\\320k\365*I*\376\035N\243\032\206\000d\037jf\011"
 299      F52A492A 
 299      FE1D4EA3 
 299      1A860064 
 299      1F6A6609 
 300 0402 09AD2574 		.ascii	"\011\255%tYQS\026W\270\322\333\372\0359\021G\032y\263"
 300      59515316 
 300      57B8D2DB 
 300      FA1D3911 
 300      471A79B3 
 301 0416 2A078A88 		.ascii	"*\007\212\210\303G\325\"\342\002I\330\373\235\206\231"
 301      C347D522 
 301      E20249D8 
 301      FB9D8699 
 302 0426 DF0254D7 		.ascii	"\337\002T\327\2227\377\215d\376\001\002t$o\240\226\346"
 302      9237FF8D 
 302      64FE0102 
 302      74246FA0 
 302      96E6
 303 0438 D51309D0 		.ascii	"\325\023\011\320\347\004\250\337\311&\011\304\224\020"
 303      E704A8DF 
 303      C92609C4 
 303      9410
 304 0446 489FE453 		.ascii	"H\237\344S\272WT\377m\365\345\271O\330\371\322\211\223"
 304      BA5754FF 
 304      6DF5E5B9 
 304      4FD8F9D2 
 304      8993
 305 0458 33DA249A 		.ascii	"3\332$\232{>kF\303u\362\312\012\0333\26605c_\021\375"
 305      7B3E6B46 
 305      C375F2CA 
 305      0A1B33B6 
 305      3035635F 
 306 046e 9CCBD0CF 		.ascii	"\234\313\320\317\200M\005\361\334\347\266\005\271G/"
 306      804D05F1 
 306      DCE7B605 
 306      B9472F
 307 047d 48C3853C 		.ascii	"H\303\205<\0049\246\012r\211\0102\362\017\020\344\252"
 307      0439A60A 
 307      72890832 
 307      F20F10E4 
 307      AA
 308 048e 6D412A34 		.ascii	"mA*4\202\300\242\242\347\353e4\016\336\3145e/\3460?"
 308      82C0A2A2 
 308      E7EB6534 
 308      0EDECC35 
 308      652FE630 
 309 04a3 DFA09B75 		.ascii	"\337\240\233u\205T|\3448\362\322\307\271j(9\336|BS\362"
 309      85547CE4 
 309      38F2D2C7 
 309      B96A2839 
 309      DE7C4253 
ARM GAS  /var/folders/c6/c789hm653lg9vtl73krp73tm0000gn/T//cc7oBT3V.s 			page 24


 310 04b8 CB964AFE 		.ascii	"\313\226J\376\303\251\222?IT6\257\300\300\311,Au\365"
 310      C3A9923F 
 310      495436AF 
 310      C0C0C92C 
 310      4175F5
 311 04cb BEDBA994 		.ascii	"\276\333\251\224\374u<\206Z\2307TK\377N\352\257\363"
 311      FC753C86 
 311      5A983754 
 311      4BFF4EEA 
 311      AFF3
 312 04dd 09505301 		.ascii	"\011PS\001;\215\205\314,\026\352g\021n1\245\313\270"
 312      3B8D85CC 
 312      2C16EA67 
 312      116E31A5 
 312      CBB8
 313 04ef 2047CF2B 		.ascii	" G\317+O\360\215\213\373\177\037\007\331\230\260\217"
 313      4FF08D8B 
 313      FB7F1F07 
 313      D998B08F 
 314 04ff 67309F0A 		.ascii	"g0\237\012\023/K\217.S3)\235\244u\327\205X\027\337\333"
 314      132F4B8F 
 314      2E533329 
 314      9DA475D7 
 314      855817DF 
 315 0514 A4AE5B27 		.ascii	"\244\256['\341\\\272\371:\341>>\301\346R\246\210\337"
 315      E15CBAF9 
 315      3AE13E3E 
 315      C1E652A6 
 315      88DF
 316 0526 60927FD4 		.ascii	"`\222\177\324\025~\347\342\037\220\351~\211\307\354"
 316      157EE7E2 
 316      1F90E97E 
 316      89C7EC
 317 0535 BC9D31DD 		.ascii	"\274\2351\335\353\021S\304\343\007\232.f\316\264\204"
 317      EB1153C4 
 317      E3079A2E 
 317      66CEB484 
 318 0545 D7A4C2EE 		.ascii	"\327\244\302\356\353\223\022\246\341\364z:\015\271\226"
 318      EB9312A6 
 318      E1F47A3A 
 318      0DB996
 319 0554 48CFAA68 		.ascii	"H\317\252h\036B\370(!\274\234gVH\303\203\211z\305_\360"
 319      1E42F828 
 319      21BC9C67 
 319      5648C383 
 319      897AC55F 
 320 0569 BBDCDEFD 		.ascii	"\273\334\336\375\3219\267\334\3441\240\367\260\266\034"
 320      D139B7DC 
 320      E431A0F7 
 320      B0B61C
 321 0578 5375BAF6 		.ascii	"Su\272\366\305\307\211NW\361x\327d\224\321\251\272\260"
 321      C5C7894E 
 321      57F178D7 
 321      6494D1A9 
 321      BAB0
 322 058a 7CD80C86 		.ascii	"|\330\014\206\347^(\304CZY\266\233{.\251\013\313V\013"
 322      E75E28C4 
ARM GAS  /var/folders/c6/c789hm653lg9vtl73krp73tm0000gn/T//cc7oBT3V.s 			page 25


 322      435A59B6 
 322      9B7B2EA9 
 322      0BCB560B 
 323 059e 6CD7C587 		.ascii	"l\327\305\207\026i7I\004\364&\342\025\334\374\254\355"
 323      16693749 
 323      04F426E2 
 323      15DCFCAC 
 323      ED
 324 05af AB23A932 		.ascii	"\253#\2512P@[l\203y\215XU\355*-\255\200V\363\270|[\303"
 324      50405B6C 
 324      83798D58 
 324      55ED2A2D 
 324      AD8056F3 
 325 05c7 DF09E776 		.ascii	"\337\011\347v8\247\016\236{\271P\235Q#\325\345\366\350"
 325      38A70E9E 
 325      7BB9509D 
 325      5123D5E5 
 325      F6E8
 326 05d9 E1C1CB2B 		.ascii	"\341\301\313+\250)\331\211\324\357\253\221z\035\211"
 326      A829D989 
 326      D4EFAB91 
 326      7A1D89
 327 05e8 8AAF14B2 		.ascii	"\212\257\024\262n\202\303\256N\034[a\352uV(\253+\315"
 327      6E82C3AE 
 327      4E1C5B61 
 327      EA755628 
 327      AB2BCD
 328 05fb D461E686 		.ascii	"\324a\346\206\313\264n\330Qx\235n\330s\301\242\033\312"
 328      CBB46ED8 
 328      51789D6E 
 328      D873C1A2 
 328      1BCA
 329 060d 48BB0EE0 		.ascii	"H\273\016\340\271\355\204\362&\326\240\257\016\037l"
 329      B9ED84F2 
 329      26D6A0AF 
 329      0E1F6C
 330 061c 500C7A93 		.ascii	"P\014z\223%?\034!~\250z\326_R\250\371\330B]|\364o\207"
 330      253F1C21 
 330      7EA87AD6 
 330      5F52A8F9 
 330      D8425D7C 
 331 0633 1081A3EB 		.ascii	"\020\201\243\353\232\363,\234\315\365\3767\242]\305"
 331      9AF32C9C 
 331      CDF5FE37 
 331      A25DC5
 332 0642 50FB8A7F 		.ascii	"P\373\212\177x\016\327\031o\023\231\0063L\213jFcZ\233"
 332      780ED719 
 332      6F139906 
 332      334C8B6A 
 332      46635A9B 
 333 0656 349EB299 		.ascii	"4\236\262\231x\312\233\304S\266\220s\247\326_\314\314"
 333      78CA9BC4 
 333      53B69073 
 333      A7D65FCC 
 333      CC
 334 0667 62ABD62C 		.ascii	"b\253\326,.\332\226\333k\321\3726j\311\\\275N\353k\352"
 334      2EDA96DB 
ARM GAS  /var/folders/c6/c789hm653lg9vtl73krp73tm0000gn/T//cc7oBT3V.s 			page 26


 334      6BD1FA36 
 334      6AC95CBD 
 334      4EEB6BEA 
 335 067b F9C24976 		.ascii	"\371\302Iv\346l\354\252\036>\256:\356n\342\270\363\\"
 335      E66CECAA 
 335      1E3EAE3A 
 335      EE6EE2B8 
 335      F35C
 336 068d AC76B7B1 		.ascii	"\254v\267\261U\251\225M\306FW\236\242\244\016\236kq"
 336      55A9954D 
 336      C646579E 
 336      A2A40E9E 
 336      6B71
 337 069f 59581E7A 		.ascii	"YX\036z\315\324\201K\223KJi\222s\247R\315K\347\026O"
 337      CDD4814B 
 337      934B4A69 
 337      9273A752 
 337      CD4BE716 
 338 06b4 2179692F 		.ascii	"!yi/\261\264?\270\214\363R\226\015\317Md\310\376\214"
 338      B1B43FB8 
 338      8CF35296 
 338      0DCF4D64 
 338      C8FE8C
 339 06c7 BCD4F0B5 		.ascii	"\274\324\360\265\232\227\366[\312K\375\206yi\277\375"
 339      9A97F65B 
 339      CA4BFD86 
 339      7969BFFD 
 340 06d7 BC647468 		.ascii	"\274dth\031\024\320\273\304A\016\350\223\310;\266u\357"
 340      1914D0BB 
 340      C4410EE8 
 340      93C83BB6 
 340      75EF
 341 06e9 D5EA3E3E 		.ascii	"\325\352>>\332\337\212(\3774\020\275\313\342\031\005"
 341      DADF8A28 
 341      FF3410BD 
 341      CBE21905 
 342 06f9 A27B4CE7 		.ascii	"\242{L\3472\336\370'\222Wi\205y\334\012s\025f`u\361"
 342      32DEF827 
 342      92576985 
 342      79DC0A73 
 342      15666075 
 343 070e 560A460D 		.ascii	"V\012F\015\376\244m0\257\016\254k\205:S\033I\201\230"
 343      FEA46D30 
 343      AF0EAC6B 
 343      853A531B 
 343      498198
 344 0721 B08237D1 		.ascii	"\260\2027\321\234\271\376?\265*x\3643\307\200m<=\177"
 344      9CB9FE3F 
 344      B52A78F4 
 344      33C7806D 
 344      3C3D7F
 345 0734 432B74E5 		.ascii	"C+t\345\364\210\025\270\207-\033R\3723\225\200\336 "
 345      F48815B8 
 345      872D1B52 
 345      FA339580 
 345      DE20
 346 0746 5B4A9B11 		.ascii	"[J\233\021\216\261\035\344\374\0269w\221\363G\344\374"
ARM GAS  /var/folders/c6/c789hm653lg9vtl73krp73tm0000gn/T//cc7oBT3V.s 			page 27


 346      8EB11DE4 
 346      FC163977 
 346      91F347E4 
 346      FC
 347 0757 09399F26 		.ascii	"\0119\237&\347\363\344<D\316\027\311\371\0129\377\221"
 347      E7F3E43C 
 347      44CE17C9 
 347      F90A39FF 
 347      91
 348 0768 44E91E72 		.ascii	"D\351\036r>D\316G\310\371\0309\037'\347>+1\234)\304"
 348      3E44CE47 
 348      C8F91839 
 348      1F27E73E 
 348      2B319C29 
 349 077d 05F48C43 		.ascii	"\005\364\214Cc\342W\031\357\276\213['\313M\211s\203"
 349      63E25719 
 349      EFBE8B5B 
 349      27CB4D89 
 349      7383
 350 078f 7FC59F37 		.ascii	"\177\305\2377\234j\316[Z\204\273\255Ew\030\222I\225"
 350      9C6ACE5B 
 350      5A84BBAD 
 350      45771892 
 350      4995
 351 07a1 FFDFE736 		.ascii	"\377\337\3476\340\315\267\027\345\371\343\020\3710\300"
 351      E0CDB717 
 351      E5F9E310 
 351      F930C0
 352 07b0 29A374EA 		.ascii	")\243t\352\352\347u\0370\361\347\313\366D|U\367\213"
 352      EAE7751F 
 352      30F1E7CB 
 352      F6447C55 
 352      F78B
 353 07c2 3045869F 		.ascii	"0E\206\237/1\272\231x\037\360\272\357\227"
 353      2F31BA99 
 353      781FF0BA 
 353      EF97
 354 07d0 AABC3A21 		.ascii	"\252\274:!\227\025\031\011)7\213S\324\356'y\034Y\376"
 354      97151909 
 354      29378B53 
 354      D4EE2779 
 354      1C59FE
 355 07e3 CC5B91AF 		.ascii	"\314[\221\257N\336\371\331\223S\324g\346\243\024\006"
 355      4EDEF9D9 
 355      9353D467 
 355      E6A31406 
 356 07f3 4F194A7B 		.ascii	"O\031J{\251\376\010\324\024\3627\311\344\334\"\033_"
 356      A9FE08D4 
 356      14F237C9 
 356      E4DC221B 
 356      5F
 357 0804 6BFF6241 		.ascii	"k\377bA\332vci\257T2\322~bIZ\231\231M<J7\233\011C\371"
 357      DA766369 
 357      AF5432D2 
 357      7E62495A 
 357      99994D3C 
 358 081e 860EE735 		.ascii	"\206\016\3475\233\237\361\271\277F/8\233\336Z\225S\237"
ARM GAS  /var/folders/c6/c789hm653lg9vtl73krp73tm0000gn/T//cc7oBT3V.s 			page 28


 358      9B9FF1B9 
 358      BF462F38 
 358      9BDE5A95 
 358      539F
 359 0830 BABC5C7A 		.ascii	"\272\274\\z\233c\335\231\036u\177\223\304\335\336\""
 359      9B63DD99 
 359      1E757F93 
 359      C4DDDE22 
 360 0840 C3149605 		.ascii	"\303\024\226\005\211\347>&c\006\230\034\026\337[\357"
 360      89E73E26 
 360      6306981C 
 360      16DF5BEF 
 361 0850 919DF479 		.ascii	"\221\235\364y\356\374\325\327\335\232\371\301\214\321"
 361      EEFCD5D7 
 361      DD9AF9C1 
 361      8CD1
 362 085e C6247365 		.ascii	"\306$se|\241W\206\365z\246\363\2653?\331\"\313\343 "
 362      7CA15786 
 362      F57AA6F3 
 362      B5333FD9 
 362      22CBE320 
 363 0872 AE90E8FE 		.ascii	"\256\220\350\376?n\266\234)`\252\231\002}5S\340N_(\325"
 363      3F6EB69C 
 363      2960AA99 
 363      027D3553 
 363      E04E5F28 
 364 0887 8CCEC8B2 		.ascii	"\214\316\310\262\320\336\3361\264BY3\017\222T0\310\020"
 364      D0DEDE31 
 364      B4425933 
 364      0F925430 
 364      C810
 365 0899 67361EB0 		.ascii	"g6\036\260\220f\012\270\310\227\230\3508\343\035\317"
 365      90660AB8 
 365      C89798E8 
 365      38E31DCF 
 366 08a9 5D71AB13 		.ascii	"]q\253\023\226O\335(\203\325\364\335\266{\233,w>\253"
 366      964FDD28 
 366      83D5F4DD 
 366      B67B9B2C 
 366      773EAB
 367 08bc EC02C60B 		.ascii	"\354\002\306\013\265\366\301,\275\353\2131\265Q\236"
 367      B5F6C12C 
 367      BDEB8B31 
 367      B5519E
 368 08cb D90A6CEE 		.ascii	"\331\012l\356vx\351\343\334\326\261\274\376\245\333"
 368      7678E9E3 
 368      DCD6B1BC 
 368      FEA5DB
 369 08da E4F6C5A5 		.ascii	"\344\366\305\245\312\274\306\353\345\005hN\347\355Y"
 369      CABCC6EB 
 369      E505684E 
 369      E7ED59
 370 08e9 F70C464E 		.ascii	"\367\014FN\015\256U\264{\225n\274\025\033\356\270[\002"
 370      0DAE55B4 
 370      7B956EBC 
 370      151BEEB8 
 370      5B02
ARM GAS  /var/folders/c6/c789hm653lg9vtl73krp73tm0000gn/T//cc7oBT3V.s 			page 29


 371 08fb EB5A725C 		.ascii	"\353Zr\\\375\013\000\331\201\301\332\362\007ko\351\277"
 371      FD0B00D9 
 371      81C1DAF2 
 371      076B6FE9 
 371      BF
 372 090c 1D3BC65C 		.ascii	"\035;\306\\\002\364j1kpn\306\340\334z\203s\273\323\027"
 372      02F46A31 
 372      6B706EC6 
 372      E0DC7A83 
 372      73BBD317 
 373 0920 49F560B7 		.ascii	"I\365`\267\346\277\3051<\327\231\232\320|\026\211\330"
 373      E6BFC531 
 373      3CD7999A 
 373      D07C1689 
 373      D8
 374 0931 7C0E8D07 		.ascii	"|\016\215\007\307N\227\331\246\3736\230\255\005\016"
 374      C74E97D9 
 374      A6FB3698 
 374      AD050E
 375 0940 26AEB474 		.ascii	"&\256\264t\343\265\035~\234{u\273\246\033\347\016\217"
 375      E3B51D7E 
 375      9C7B75BB 
 375      A61BE70E 
 375      8F
 376 0951 A5CDEA45 		.ascii	"\245\315\352E\016\306BWu\363^\3728\267\205\376\241\276"
 376      0EC64257 
 376      75F35EFA 
 376      38B785FE 
 376      A1BE
 377 0963 CDE883BF 		.ascii	"\315\350\203\277FI\031\364\22684K\271\235D\247\230V"
 377      464919F4 
 377      9638344B 
 377      B99D44A7 
 377      9856
 378 0975 5E4BB978 		.ascii	"^K\271xk7)Q\317\2238\262'_\260\324\301s\373\010\006"
 378      6B372951 
 378      CF9338B2 
 378      275FB0D4 
 378      C173FB08 
 379 098a D6727E0C 		.ascii	"\326r~\014uv\253e\251\022Xm\343y3x:\230\257\341i0\016"
 379      7576AB65 
 379      A912586D 
 379      E3793378 
 379      3A98AFE1 
 380 09a1 1733B1CF 		.ascii	"\0273\261\317\010\303\374\257Y\342\037<\212\365Lw\026"
 380      08C3FCAF 
 380      59E21F3C 
 380      8AF54C77 
 380      16
 381 09b2 FA582CFD 		.ascii	"\372X,\375^\204\346\322Zq<\240Ye\375\235\254\262>'\305"
 381      5E84E6D2 
 381      5A713CA0 
 381      5965FD9D 
 381      ACB23E27 
 382 09c7 EB65726E 		.ascii	"\353ernqX(a\317\247\367\007R\205\317\020\335IK\335w"
 382      71582861 
 382      CFA7F707 
ARM GAS  /var/folders/c6/c789hm653lg9vtl73krp73tm0000gn/T//cc7oBT3V.s 			page 30


 382      5285CF10 
 382      DD494BDD 
 383 09dc 22ED7DB6 		.ascii	"\"\355}\266\214\233\245\274js0\345\325$\246\272\312"
 383      8C9BA5BC 
 383      6A7330E5 
 383      D524A6BA 
 383      CA
 384 09ed 92F84EEF 		.ascii	"\222\370N\3578\243n\026\267:\260\301^)\316\232\3700"
 384      38A36E16 
 384      B73AB0C1 
 384      5E29CE9A 
 384      F830
 385 09ff 2D333ED6 		.ascii	"-3>\326:\314\023_\346;-\267\\F\205?\267\304\260\302"
 385      3ACC135F 
 385      E63B2DB7 
 385      5C46853F 
 385      B7C4B0C2 
 386 0a13 9FDF3154 		.ascii	"\237\3371T@+|\352^-\244\333Y\323\232\220\314\201RJ\216"
 386      402B7CEA 
 386      5E2DA4DB 
 386      59D39A90 
 386      CC81524A 
 387 0a28 E2C2194F 		.ascii	"\342\302\031O\200\200\2269\370\254\303\3104\321a\361"
 387      80809639 
 387      F8ACC3C8 
 387      34D161F1 
 388 0a38 E1C3AF81 		.ascii	"\341\303\257\201\367\360\352\232\256-\007E2\243\012"
 388      F7F0EA9A 
 388      AE2D0745 
 388      32A30A
 389 0a47 C58F3045 		.ascii	"\305\2170E\252\326Wr\014\303\275\324aI<\214\254\370"
 389      AAD65772 
 389      0CC3BDD4 
 389      61493C8C 
 389      ACF8
 390 0a59 36E41835 		.ascii	"6\344\0305IS\337\223\342u!fT-\361\315\306)S\262\316"
 390      4953DF93 
 390      E2752166 
 390      542DF1CD 
 390      C62953B2 
 391 0a6e 615402EF 		.ascii	"aT\002\357\352\3654\316I$\223w\330\250\177\2678l\375"
 391      EAF534CE 
 391      49249377 
 391      D8A87FB7 
 391      386CFD
 392 0a81 35E6B3EA 		.ascii	"5\346\263\352xO\332\016\337\356\032*\245\305\357V\007"
 392      784FDA0E 
 392      DFEE1A2A 
 392      A5C5EF56 
 392      07
 393 0a92 297E4B8C 		.ascii	")~K\214\213_3\030\314\306v6=-\355&e\357v\013\371\251"
 393      8B5F3318 
 393      CCC67636 
 393      3D2DED26 
 393      65EF760B 
 394 0aa8 2EDE6C94 		.ascii	".\336l\2246,l\033}L8\335\315\322\036\022\274\364in\312"
 394      362C6C1B 
ARM GAS  /var/folders/c6/c789hm653lg9vtl73krp73tm0000gn/T//cc7oBT3V.s 			page 31


 394      7D4C38DD 
 394      CDD21E12 
 394      BCF4696E 
 395 0abd C3EA4EED 		.ascii	"\303\352N\355.b*\177M\001\346\2332\314\346i\2276\315"
 395      2E622A7F 
 395      4D01E69B 
 395      32CCE669 
 395      9736CD
 396 0ad0 7D49C86C 		.ascii	"}I\310l\317;\253,g\262\312e\333x^\035\336J\2326i\371"
 396      CF3BAB2C 
 396      67B2CA65 
 396      DB785E1D 
 396      DE4A9A36 
 397 0ae6 DDE0B100 		.ascii	"\335\340\261\000\226\365\233\201\346\320Z\206\200v8"
 397      96F59B81 
 397      E6D05A86 
 397      807638
 398 0af5 7034DFE9 		.ascii	"p4\337\351\300q|/9\357\263\022\315;\035\231\321\\\037"
 398      C0717C2F 
 398      39EFB312 
 398      CD3B1D99 
 398      D15C1F
 399 0b08 BD1527CE 		.ascii	"\275\025'\316\025\331\232=\306\221\355\302\231B\032"
 399      15D99A3D 
 399      C691EDC2 
 399      99421A
 400 0b17 D93A8915 		.ascii	"\331:\211\025\274I\272u8L\343\214&`\200\2357\"\312\016"
 400      BC49BA75 
 400      384CE38C 
 400      2660809D 
 400      3722CA0E 
 401 0b2b 2093D896 		.ascii	" \223\330\226e`:@\305\273z;hlk%\341yS\216\241\332 u"
 401      65603A40 
 401      C5BB7A3B 
 401      686C6B25 
 401      E179538E 
 402 0b43 5A095202 		.ascii	"Z\011R\002\332\234c\224.H\355\356e\202\224\3318E\355"
 402      DA9C6394 
 402      2E48EDEE 
 402      658294D9 
 402      3845ED
 403 0b56 DD99412A 		.ascii	"\335\231A*\201\243\305\241\177^\271U\236\367\202|-\371"
 403      81A3C5A1 
 403      7F5EB955 
 403      9EF7827C 
 403      2DF9
 404 0b68 3CB29E29 		.ascii	"<\262\236){\331L\211\265\230}\272\336b\246Ke\254\317"
 404      7BD94C89 
 404      B5987DBA 
 404      DE62A64B 
 404      65ACCF
 405 0b7b 90B177D6 		.ascii	"\220\261w\326\355\373\356*y\377<9\231|^\311\314<\327"
 405      EDFBEE2A 
 405      79FF3C39 
 405      997C5EC9 
 405      CC3CD7
 406 0b8e 6502D16F 		.ascii	"e\002\321o\010\321\324\360\347\322\024\204u\321N\262"
ARM GAS  /var/folders/c6/c789hm653lg9vtl73krp73tm0000gn/T//cc7oBT3V.s 			page 32


 406      08D1D4F0 
 406      E7D21484 
 406      75D14EB2 
 407 0b9e A26105A7 		.ascii	"\242a\005\247n\222\324R\031\331\272M\030\373\300\220"
 407      6E92D452 
 407      19D9BA4D 
 407      18FBC090 
 408 0bae B1D33B46 		.ascii	"\261\323;F\357i3Sz\266\364p\312\240>\261X\021Y\364\251"
 408      EF693353 
 408      7AB6F470 
 408      CAA03EB1 
 408      581159F4 
 409 0bc3 7E134112 		.ascii	"~\023A\022\206\202t\255\033\275}\225\231 Yv6>e\345\300"
 409      868274AD 
 409      1BBD7D95 
 409      99205976 
 409      363E65E5 
 410 0bd8 D5052B08 		.ascii	"\325\005+\010\303Y\302\204\263s\206\234m\355\032\375"
 410      C359C284 
 410      B373869C 
 410      6DED1AFD 
 411 0be8 AED9DC67 		.ascii	"\256\331\334ga\354\202\221Y3\214\374\335\204\221\277"
 411      61EC8291 
 411      59338CFC 
 411      DD8491BF 
 412 0bf8 E91961CA 		.ascii	"\351\031a\312\275\336,\345\336@:\"\376\013\267V~\357"
 412      BDDE2CE5 
 412      DE403A22 
 412      FE0BB756 
 412      7EEF
 413 0c0a BDC4B92F 		.ascii	"\275\304\271/V\242\005\011\271\021\364\232D7r\215$c"
 413      56A20509 
 413      B911F49A 
 413      4437728D 
 413      2463
 414 0c1c AF049833 		.ascii	"\257\004\23030\251\012L@\205\031CFj{\2355\355\005\325"
 414      30A90A4C 
 414      40851943 
 414      466A7B9D 
 414      35ED05D5 
 415 0c30 B7E34672 		.ascii	"\267\343Fr\245\373\256Mz\230\2617\350H\377\221\243\307"
 415      A5FBAE4D 
 415      7A98B137 
 415      E848FF91 
 415      A3C7
 416 0c42 9DBEF0E8 		.ascii	"\235\276\360\350\304W{\341\004F4\244\331_d\230\340\271"
 416      C4577BE1 
 416      044634A4 
 416      D95F6498 
 416      E0B9
 417 0c54 39639032 		.ascii	"9c\2202\014\212d\240\270\006\177\337<\331S\327\216W"
 417      0C8A64A0 
 417      B8067FDF 
 417      3CD953D7 
 417      8E57
 418 0c66 C146FBC6 		.ascii	"\301F\373\306\264K\243<\2377~\257H\337\3760#\3768\225"
 418      B44BA33C 
ARM GAS  /var/folders/c6/c789hm653lg9vtl73krp73tm0000gn/T//cc7oBT3V.s 			page 33


 418      9F377EAF 
 418      48DFFE30 
 418      23FE3895 
 419 0c7a 32AFD01B 		.ascii	"2\257\320\033\266-\376\327&\342#=iV\361\023\325~.\005"
 419      B62DFED7 
 419      26E2233D 
 419      6956F113 
 419      D57E2E05 
 420 0c8e 67C436E5 		.ascii	"g\3046\345\213&\224\325\377\004G\376\343\317\227\211"
 420      8B2694D5 
 420      FF0447FE 
 420      E3CF9789 
 421 0c9e BD037DBF 		.ascii	"\275\003}\277\335\274U\226\211\027\316\231g#\212_V\314"
 421      DDBC5596 
 421      8917CE99 
 421      67238A5F 
 421      56CC
 422 0cb0 3D6DE13C 		.ascii	"=m\341<\267e\014k\336\312>\260\374\272\354H)\377\222"
 422      B7650C6B 
 422      DECA3EB0 
 422      FCBAEC48 
 422      29FF92
 423 0cc3 83D9061E 		.ascii	"\203\331\006\036\315tC`m\327\352k8\027\0237\274\223"
 423      CD744360 
 423      6DD7EA6B 
 423      38171337 
 423      BC93
 424 0cd5 D2E3B9DD 		.ascii	"\322\343\271\335\226(\\a)|cH\241ep\337b\264tK\275\214"
 424      96285C61 
 424      297C6348 
 424      A16570DF 
 424      62B4744B 
 425 0ceb 6BEDE7D7 		.ascii	"k\355\347\327\304\033\235\326\305O\262\336\276\215\344"
 425      C41B9DD6 
 425      C54FB2DE 
 425      BE8DE4
 426 0cfa 7D9DB77F 		.ascii	"}\235\267\177\251c\226\364\344\271k\212\371\252)\274"
 426      A96396F4 
 426      E4B96B8A 
 426      F9AA29BC 
 427 0d0a 8F960DF4 		.ascii	"\217\226\015\364\377\321,\036\213G\\3\315\342\312\247"
 427      FFD12C1E 
 427      8B475C33 
 427      CDE2CAA7 
 428 0d1a 6445E6E1 		.ascii	"dE\346\3419O\226\246d\276\306\312<\307i$\363\336\201"
 428      394F96A6 
 428      64BEC6CA 
 428      3CC76924 
 428      F3DE81
 429 0d2d A1DF6927 		.ascii	"\241\337i'\\Ul\323X+\212mp2D\026\030\022\331\265\372"
 429      5C556CD3 
 429      582B8A6D 
 429      70324416 
 429      1812D9B5 
 430 0d42 982B63EA 		.ascii	"\230+c\352V[\242\260\220\245\260HOA\015rgs\0079fib\342"
 430      565BA2B0 
 430      90A5B048 
ARM GAS  /var/folders/c6/c789hm653lg9vtl73krp73tm0000gn/T//cc7oBT3V.s 			page 34


 430      4F410D72 
 430      67730739 
 431 0d5a 6B190B98 		.ascii	"k\031\013\230\227\234v}\255\321i\354k\332?kK\367\202"
 431      979C767D 
 431      ADD169EC 
 431      6BDA3F6B 
 431      4BF782
 432 0d6d CB2F1CCC 		.ascii	"\313/\034\314'#\206\011\236\3334V\033\344\230|\200\377"
 432      27238609 
 432      9EDB3456 
 432      1BE4987C 
 432      80FF
 433 0d7f DF9D192F 		.ascii	"\337\235\031/M\316\024U\203\270\247\373\002\243\204"
 433      4DCE1455 
 433      83B8A7FB 
 433      02A384
 434 0d8e CEEDFAD0 		.ascii	"\316\355\372\320i\324\345\375\006\271\330\004\204a\355"
 434      69D4E5FD 
 434      06B9D804 
 434      8461ED
 435 0d9d D32CA96A 		.ascii	"\323,\251jE\2325f\324\251,\243ZLG\235\3142j\245\351"
 435      459A3566 
 435      D4A92CA3 
 435      5A4C479D 
 435      CC326AA5 
 436 0db2 A80B5946 		.ascii	"\250\013YF\255r2\3114\336\337\373\202\214\344zy\316"
 436      AD7232C9 
 436      34DEDFFB 
 436      828CE47A 
 436      79CE
 437 0dc4 97C9E40D 		.ascii	"\227\311\344\015&v\366^j\223\353\266l\206\306v\203\252"
 437      2676F65E 
 437      6A93EBB6 
 437      6C86C676 
 437      83AA
 438 0dd6 CAB6A5B5 		.ascii	"\312\266\245\265\231X\332x\235\245\265\261\226\246)"
 438      9958DA78 
 438      9DA5B5B1 
 438      96A629
 439 0de5 EF592E78 		.ascii	"\357Y.xn\227\316\324\270;\312\312\312\351\277p\254<"
 439      6E97CED4 
 439      B83BCACA 
 439      CAE9BF70 
 439      AC3C
 440 0df7 2A95C7A2 		.ascii	"*\225\307\242\376r\177\240rv\215\020\252\366\227\371"
 440      FE727FA0 
 440      72768D10 
 440      AAF697F9 
 441 0e07 B9BB98F7 		.ascii	"\271\273\230\367\3255\376`m\245\010}b\263c\322\354\210"
 441      D535FE60 
 441      6DA5087D 
 441      62B363D2 
 441      EC88
 442 0e19 182B0B70 		.ascii	"\030+\013pER *\012\225>\251\360\261_>\343\235\314\271"
 442      4552202A 
 442      0A953EA9 
 442      F0B15F3E 
ARM GAS  /var/folders/c6/c789hm653lg9vtl73krp73tm0000gn/T//cc7oBT3V.s 			page 35


 442      E39DCCB9 
 443 0e2d FD011F7D 		.ascii	"\375\001\037}\3445\037\016T`ha\304W#\316\222\340'\022"
 443      E4351F0E 
 443      54606861 
 443      C45723CE 
 443      92E02712 
 444 0e41 15674C60 		.ascii	"\025gL`\272G\302Q)V\376\310SOL~bV\271?\034\212T\007"
 444      BA47C251 
 444      2956FEC8 
 444      534F4C7E 
 444      6256B93F 
 445 0e59 C568ACFC 		.ascii	"\305h\254\374\261\311\223\001A\245\356\222\"\321\352"
 445      B1C99301 
 445      41A5EE92 
 445      22D1EA
 446 0e68 B04FFA45 		.ascii	"\260O\372Eym,Z\036\014\373\205`\371d1\030\024\242\345"
 446      796D2C5A 
 446      1E0CFB85 
 446      60F96431 
 446      1814A2E5 
 447 0e7c 557EFF7D 		.ascii	"U~\377}B4t_M\270F\274O\024\236\253.\377a\305\375\023"
 447      4234745F 
 447      4DB846BC 
 447      4F149EAB 
 447      2EFF61C5 
 448 0e92 2A26563C 		.ascii	"*&V<P\256\177\254\362\025\223*\253k$,R-\374\376\350"
 448      50AE7FAC 
 448      F215932A 
 448      AB6B242C 
 448      522DFCFE 
 449 0ea7 873EE977 		.ascii	"\207>\351w\377\000\324\220\340\017T\327\210\345\276"
 449      FF00D490 
 449      E00F54D7 
 449      88E5BE
 450 0eb6 4A719A50 		.ascii	"Jq\232P\033\224|*\353\305>\237J\207h\240:\354\362\207"
 450      1B947C2A 
 450      EBC53E9F 
 450      4A8768A0 
 450      3AECF287 
 451 0eca 6B2450C8 		.ascii	"k$P\310\335Y5\021\360\207\243\"\214/\301\217}\200\340"
 451      DD593511 
 451      F087A322 
 451      8C2FC18F 
 451      7D80E0
 452 0edd 9766FD6B 		.ascii	"\227f\375k\356\021\276\031?\016a\331\242b\0250\352\223"
 452      EE11BE19 
 452      3F0E61D9 
 452      A2621530 
 452      EA93
 453 0eef F8E8043E 		.ascii	"\370\350\004>\372\000\037}\220\217\376\230\217N\344"
 453      FA001F7D 
 453      908FFE98 
 453      8F4EE4
 454 0efe A30F39A2 		.ascii	"\243\0179\242\367W@\273\237\017F\341\347G\005\021\037"
 454      F75740BB 
 454      9F0F46E1 
 454      E7470511 
ARM GAS  /var/folders/c6/c789hm653lg9vtl73krp73tm0000gn/T//cc7oBT3V.s 			page 36


 454      1F
 455 0f0f 20BBF01C 		.ascii	" \273\360\034\315\024\243\360\033\016V\212Q\247? D\361"
 455      CD14A3F0 
 455      1B0E568A 
 455      51A73F20 
 455      44F1
 456 0f21 C40921B1 		.ascii	"\304\011!\261H\212I\202$\372$\027\026d\242OrS\221\340"
 456      488A4982 
 456      24FA2417 
 456      1664A24F 
 456      725391E0 
 457 0f35 0ABA9377 		.ascii	"\012\272\223w.)\024\256\024\311\375\264\240P\025sIQ"
 457      2E2914AE 
 457      14C9FDB4 
 457      A0501573 
 457      4951
 458 0f47 715A8C48 		.ascii	"qZ\214H\214/\012B\261*x\251\250\001\206\253\012\211"
 458      8C2F0A42 
 458      B12A78A9 
 458      A80186AB 
 458      0A89
 459 0f59 56CE8657 		.ascii	"V\316\206WE\342\254j\311\017\000\2053\245\360s\377\025"
 459      45E2AC6A 
 459      C90F0085 
 459      33A5F073 
 459      FF15
 460 0f6b B949B135 		.ascii	"\271I\2615\030*F\305\032?\000\027\314\224\244h\304\003"
 460      182A46C5 
 460      1A3F0017 
 460      CC94A468 
 460      C403
 461 0f7d 46171343 		.ascii	"F\027\023CB$\000\222\262f\255\261;\021\253\340\006\212"
 461      42240092 
 461      B266ADB1 
 461      3B11ABE0 
 461      068A
 462 0f8f 12F3FDBE 		.ascii	"\022\363\375\276V\254\005\210q)\213U\036\271\224\337"
 462      56AC0588 
 462      71298B55 
 462      1EB994DF 
 463 0f9f 02       		.ascii	"\002"
 464 0fa0 7F0D4C57 		.ascii	"\177\015LWA\314\007\277\300\001\214\216\024A\337P-L"
 464      41CC07BF 
 464      C0018C8E 
 464      1441DF50 
 464      2D4C
 465 0fb2 92399190 		.ascii	"\2229\221\2204\013\033fH\301\012\371\3023k@\177d\024"
 465      340B1B66 
 465      48C10AF9 
 465      C2336B40 
 465      7F6414
 466 0fc5 4816A236 		.ascii	"H\026\2426?S\202~\221\022q\206X#\205\204\330tx#\316"
 466      3F53827E 
 466      91127186 
 466      58238584 
 466      D8747823 
 467 0fda C4178E88 		.ascii	"\304\027\216\210\257v\254\312N\260:\006\034\334\240"
ARM GAS  /var/folders/c6/c789hm653lg9vtl73krp73tm0000gn/T//cc7oBT3V.s 			page 37


 467      AF76ACCA 
 467      4EB03A06 
 467      1CDCA0
 468 0fe9 61103F71 		.ascii	"a\020?qG|3\205j\251\272\246\2528\342\0035Qf\311%<\020"
 468      477C3385 
 468      6AA9BAA6 
 468      AA38E203 
 468      355166C9 
 469 1000 23620D18 		.ascii	"#b\015\030r\025\364\002\022\270\1771V\266\020$&\006"
 469      7215F402 
 469      12B87F31 
 469      56B61024 
 469      2606
 470 1012 0F23E170 		.ascii	"\017#\341p\360f\177\340\351@\345SbP\024bbYD\210Je\025"
 470      F0667FE0 
 470      E940E553 
 470      62501462 
 470      62594488 
 471 1029 BC142921 		.ascii	"\274\024)!\217\037\251\2047\323<\332.\346\276\034\020"
 471      8F1FA984 
 471      37D33CDA 
 471      2EE6BE1C 
 471      10
 472 103a 8508C83B 		.ascii	"\205\010\310;&$\206\302\321\331>|\353\223J4w\377a\313"
 472      262486C2 
 472      D1D93E7C 
 472      EB934A34 
 472      77FF61CB 
 473 104e 8982D5CF 		.ascii	"\211\202\325\317\341\327\2143M(\233X6A\353\250\340L"
 473      E1D78C33 
 473      4D289B58 
 473      3641EBA8 
 473      E04C
 474 1060 3880C4AA 		.ascii	"8\200\304\252\377\033&\360{\346s!\206\024o\361\300e"
 474      FF1B26F0 
 474      7BE67321 
 474      86146FF1 
 474      C065
 475 1072 95284DAB 		.ascii	"\225(M\253\255\361\373\244\342\000\370[xF5\330s\011"
 475      ADF1FBA4 
 475      E200F85B 
 475      784635D8 
 475      7309
 476 1084 61184E70 		.ascii	"a\030Np]\034\223\246\013\301\352\252\032\237DB\300\203"
 476      5D1C93A6 
 476      0BC1EAAA 
 476      1A9F4442 
 476      C083
 477 1096 13A02B35 		.ascii	"\023\240+5i|Y@\3369\361\3649\361(T\353\304\364Q\240"
 477      697C5940 
 477      DE39F1F4 
 477      39F12854 
 477      EBC4F451 
 478 10ab 30E09B16 		.ascii	"0\340\233\026\025\305\202\000V\27093\312\024\222\250"
 478      15C58200 
 478      56B83933 
 478      CA1492A8 
ARM GAS  /var/folders/c6/c789hm653lg9vtl73krp73tm0000gn/T//cc7oBT3V.s 			page 38


 479 10bb 45F9A0B3 		.ascii	"E\371\240\2630\031\036K\342\243\321ph\012\240\026`\350"
 479      30191E4B 
 479      E2A3D170 
 479      680AA016 
 479      60E8
 480 10cd 88134F16 		.ascii	"\210\023O\026\037\231\346\020\242U\346a\030d\302\223"
 480      1F99E610 
 480      A255E661 
 480      1864C293 
 481 10dd 19D3E81F 		.ascii	"\031\323\350\037\337\203\376\311\017\225\312\025\011"
 481      DF83FEC9 
 481      0F95CA15 
 481      09
 482 10ea 10937385 		.ascii	"\020\223s\205h\270\035\013\277\340L\242_\362a\366KB"
 482      68B81D0B 
 482      BFE04CA2 
 482      5FF261F6 
 482      4B42
 483 10fc 919432C6 		.ascii	"\221\2242\3063\374<A0\237\004,>\024)\366\007\360\325"
 483      33FC3C41 
 483      309F042C 
 483      3E1429F6 
 483      07F0D5
 484 110f A320295C 		.ascii	"\243 )\\bV\361%X\311T\177\340\327\302t\26162\325\243"
 484      6256F125 
 484      58C9547F 
 484      E0D7C274 
 484      B13632D5 
 485 1124 19FF7809 		.ascii	"\031\377x\011\355\364H\020\246\276\204\216%\327E>\037"
 485      EDF44810 
 485      A6BE848E 
 485      25D7453E 
 485      1F
 486 1135 91DE3746 		.ascii	"\221\3367F\275({p\302C\023\262x\355l, \344\225\251\263"
 486      BD287B70 
 486      C24313B2 
 486      78ED6C2C 
 486      20E495A9 
 487 114a 63BF08FB 		.ascii	"c\277\010\373\247\273I\340\003\244\351?\320\216\001"
 487      A7BB49E0 
 487      03A4E93F 
 487      D08E01
 488 1159 D1CA273F 		.ascii	"\321\312'?1\365\361\251\351\2418\354\371C\217\002\021"
 488      31F5F1A9 
 488      E9A138EC 
 488      F9438F02 
 488      11
 489 116a AC211F84 		.ascii	"\254!\037\204\010\311\367\357\217L\375\371\223O=>F\010"
 489      08C9F7EF 
 489      8F4CFDF9 
 489      934F3D3E 
 489      4608
 490 117c CE1466C7 		.ascii	"\316\024f\307 \340\004!:\027\314\020\202\265b\011!\361"
 490      20E00421 
 490      3A17CC10 
 490      82B56209 
 490      21F1
ARM GAS  /var/folders/c6/c789hm653lg9vtl73krp73tm0000gn/T//cc7oBT3V.s 			page 39


 491 118e 4C0D86A6 		.ascii	"L\015\206\246\321\265\226\\k\031\235\370\220\346\356"
 491      D1B5965C 
 491      6B199DF8 
 491      90E6EE
 492 119d 81FB1FFC 		.ascii	"\201\373\037\374?B\212v\232"
 492      3F428A76 
 492      9A
 493              		.text
 494              		.section	.gnu.lto_.symtab.f375748057c8c4c,"",%progbits
 495 0000 63685468 		.ascii	"chThdAddRef\000\000\000\000\000\000\000\000\000\000"
 495      64416464 
 495      52656600 
 495      00000000 
 495      00000000 
 496 0015 00005701 		.ascii	"\000\000W\001\000\000chThdRelease\000\000\000\000\000"
 496      00006368 
 496      54686452 
 496      656C6561 
 496      73650000 
 497 002c 00000000 		.ascii	"\000\000\000\000\000\000\000]\001\000\000chThdCreat"
 497      0000005D 
 497      01000063 
 497      68546864 
 497      43726561 
 498 0041 6546726F 		.ascii	"eFromHeap\000\000\000\000\000\000\000\000\000\000\000"
 498      6D486561 
 498      70000000 
 498      00000000 
 498      00000000 
 499 0055 00630100 		.ascii	"\000c\001\000\000chThdCreateFromMemoryPool\000\000\000"
 499      00636854 
 499      68644372 
 499      65617465 
 499      46726F6D 
 500 0076 00000000 		.ascii	"\000\000\000\000\000\000\000\000\000\256\001\000\000"
 500      00000000 
 500      00AE0100 
 500      00
 501 0083 6368506F 		.ascii	"chPoolFree\000\000\002\000\000\000\000\000\000\000\000"
 501      6F6C4672 
 501      65650000 
 501      02000000 
 501      00000000 
 502 0098 00CD0100 		.ascii	"\000\315\001\000\000chHeapFree\000\000\002\000\000\000"
 502      00636848 
 502      65617046 
 502      72656500 
 502      00020000 
 503 00ad 00000000 		.ascii	"\000\000\000\000\000\000\322\001\000\000chSchWakeup"
 503      0000D201 
 503      00006368 
 503      53636857 
 503      616B6575 
 504 00c2 53000002 		.ascii	"S\000\000\002\000\000\000\000\000\000\000\000\000\324"
 504      00000000 
 504      00000000 
 504      00D4
ARM GAS  /var/folders/c6/c789hm653lg9vtl73krp73tm0000gn/T//cc7oBT3V.s 			page 40


 505 00d0 01000063 		.ascii	"\001\000\000chThdCreateI\000\000\002\000\000\000\000"
 505      68546864 
 505      43726561 
 505      74654900 
 505      00020000 
 506 00e6 00000000 		.ascii	"\000\000\000\000\000\331\001\000\000chHeapAlloc\000"
 506      00D90100 
 506      00636848 
 506      65617041 
 506      6C6C6F63 
 507 00fb 00020000 		.ascii	"\000\002\000\000\000\000\000\000\000\000\000\341\001"
 507      00000000 
 507      000000E1 
 507      01
 508 0108 00006368 		.ascii	"\000\000chPoolAlloc\000\000\002\000\000\000\000\000"
 508      506F6F6C 
 508      416C6C6F 
 508      63000002 
 508      00000000 
 509 011d 00000000 		.ascii	"\000\000\000\000\346\001\000\000"
 509      E6010000 
 510              		.text
 511              		.section	.gnu.lto_.opts,"",%progbits
 512 0000 272D6D63 		.ascii	"'-mcpu=cortex-m4' '-mno-thumb-interwork' '-mthumb' "
 512      70753D63 
 512      6F727465 
 512      782D6D34 
 512      2720272D 
 513 0033 272D6767 		.ascii	"'-ggdb' '-O2' '-fomit-frame-pointer' '-falign-funct"
 513      64622720 
 513      272D4F32 
 513      2720272D 
 513      666F6D69 
 514 0066 696F6E73 		.ascii	"ions=16' '-ffunction-sections' '-fdata-sections' '-"
 514      3D313627 
 514      20272D66 
 514      66756E63 
 514      74696F6E 
 515 0099 666E6F2D 		.ascii	"fno-common' '-flto'\000"
 515      636F6D6D 
 515      6F6E2720 
 515      272D666C 
 515      746F2700 
 516              		.text
 517              		.cfi_sections	.debug_frame
 518              		.section	.text.chThdAddRef,"ax",%progbits
 519              		.align	2
 520              		.p2align 4,,15
 521              		.global	chThdAddRef
 522              		.thumb
 523              		.thumb_func
 524              		.type	chThdAddRef, %function
 525              	chThdAddRef:
 526              	.LFB229:
 527              		.file 1 "../../../os/rt/src/chdynamic.c"
 528              		.loc 1 68 0
 529              		.cfi_startproc
ARM GAS  /var/folders/c6/c789hm653lg9vtl73krp73tm0000gn/T//cc7oBT3V.s 			page 41


 530              		@ args = 0, pretend = 0, frame = 0
 531              		@ frame_needed = 0, uses_anonymous_args = 0
 532              		@ link register save eliminated.
 533              	.LVL0:
 534              	.LBB63:
 535              	.LBB64:
 536              	.LBB65:
 537              	.LBB66:
 538              		.file 2 "../../../os/ext/CMSIS/include/core_cmFunc.h"
 539              		.loc 2 546 0
 540 0000 2022     		movs	r2, #32
 541              	@ 546 "../../../os/ext/CMSIS/include/core_cmFunc.h" 1
 542 0002 82F31188 		MSR basepri, r2
 543              	@ 0 "" 2
 544              		.thumb
 545              	.LBE66:
 546              	.LBE65:
 547              	.LBE64:
 548              	.LBE63:
 549              		.loc 1 72 0
 550 0006 827F     		ldrb	r2, [r0, #30]	@ zero_extendqisi2
 551 0008 0132     		adds	r2, r2, #1
 552 000a 8277     		strb	r2, [r0, #30]
 553              	.LVL1:
 554              	.LBB67:
 555              	.LBB68:
 556              	.LBB69:
 557              	.LBB70:
 558              	.LBB71:
 559              		.loc 2 546 0
 560 000c 0023     		movs	r3, #0
 561              	@ 546 "../../../os/ext/CMSIS/include/core_cmFunc.h" 1
 562 000e 83F31188 		MSR basepri, r3
 563              	@ 0 "" 2
 564              		.thumb
 565              	.LBE71:
 566              	.LBE70:
 567              	.LBE69:
 568              	.LBE68:
 569              	.LBE67:
 570              		.loc 1 76 0
 571 0012 7047     		bx	lr
 572              		.cfi_endproc
 573              	.LFE229:
 574              		.size	chThdAddRef, .-chThdAddRef
 575 0014 AFF30080 		.section	.text.chThdRelease,"ax",%progbits
 575      AFF30080 
 575      AFF30080 
 576              		.align	2
 577              		.p2align 4,,15
 578              		.global	chThdRelease
 579              		.thumb
 580              		.thumb_func
 581              		.type	chThdRelease, %function
 582              	chThdRelease:
 583              	.LFB230:
 584              		.loc 1 91 0
ARM GAS  /var/folders/c6/c789hm653lg9vtl73krp73tm0000gn/T//cc7oBT3V.s 			page 42


 585              		.cfi_startproc
 586              		@ args = 0, pretend = 0, frame = 0
 587              		@ frame_needed = 0, uses_anonymous_args = 0
 588              		@ link register save eliminated.
 589              	.LVL2:
 590              		.loc 1 91 0
 591 0000 0146     		mov	r1, r0
 592              	.LBB92:
 593              	.LBB93:
 594              	.LBB94:
 595              	.LBB95:
 596              		.loc 2 546 0
 597 0002 2023     		movs	r3, #32
 598              	@ 546 "../../../os/ext/CMSIS/include/core_cmFunc.h" 1
 599 0004 83F31188 		MSR basepri, r3
 600              	@ 0 "" 2
 601              		.thumb
 602              	.LBE95:
 603              	.LBE94:
 604              	.LBE93:
 605              	.LBE92:
 606              		.loc 1 96 0
 607 0008 837F     		ldrb	r3, [r0, #30]	@ zero_extendqisi2
 608 000a 013B     		subs	r3, r3, #1
 609 000c DBB2     		uxtb	r3, r3
 610 000e 8377     		strb	r3, [r0, #30]
 611              	.LVL3:
 612              	.LBB96:
 613              	.LBB97:
 614              	.LBB98:
 615              	.LBB99:
 616              	.LBB100:
 617              		.loc 2 546 0
 618 0010 0022     		movs	r2, #0
 619              	@ 546 "../../../os/ext/CMSIS/include/core_cmFunc.h" 1
 620 0012 82F31188 		MSR basepri, r2
 621              	@ 0 "" 2
 622              		.thumb
 623              	.LBE100:
 624              	.LBE99:
 625              	.LBE98:
 626              	.LBE97:
 627              	.LBE96:
 628              		.loc 1 103 0
 629 0016 13B9     		cbnz	r3, .L2
 630              		.loc 1 103 0 is_stmt 0 discriminator 1
 631 0018 037F     		ldrb	r3, [r0, #28]	@ zero_extendqisi2
 632              	.LVL4:
 633 001a 0F2B     		cmp	r3, #15
 634 001c 00D0     		beq	.L7
 635              	.L2:
 636 001e 7047     		bx	lr
 637              	.L7:
 638              		.loc 1 104 0 is_stmt 1
 639 0020 437F     		ldrb	r3, [r0, #29]	@ zero_extendqisi2
 640 0022 03F00303 		and	r3, r3, #3
 641 0026 012B     		cmp	r3, #1
ARM GAS  /var/folders/c6/c789hm653lg9vtl73krp73tm0000gn/T//cc7oBT3V.s 			page 43


 642 0028 02D0     		beq	.L4
 643 002a 022B     		cmp	r3, #2
 644 002c 07D0     		beq	.L5
 645 002e 7047     		bx	lr
 646              	.L4:
 647              		.loc 1 108 0
 648 0030 4369     		ldr	r3, [r0, #20]
 649 0032 0269     		ldr	r2, [r0, #16]
 650 0034 1A61     		str	r2, [r3, #16]
 651 0036 0269     		ldr	r2, [r0, #16]
 652 0038 5361     		str	r3, [r2, #20]
 653              		.loc 1 110 0
 654 003a FFF7FEBF 		b	chHeapFree
 655              	.LVL5:
 656              	.L5:
 657              	.LBB101:
 658              	.LBB102:
 659              		.loc 1 116 0
 660 003e 4369     		ldr	r3, [r0, #20]
 661 0040 0269     		ldr	r2, [r0, #16]
 662 0042 1A61     		str	r2, [r3, #16]
 663 0044 0269     		ldr	r2, [r0, #16]
 664              		.loc 1 118 0
 665 0046 006C     		ldr	r0, [r0, #64]
 666              	.LVL6:
 667              		.loc 1 116 0
 668 0048 5361     		str	r3, [r2, #20]
 669              		.loc 1 118 0
 670 004a FFF7FEBF 		b	chPoolFree
 671              	.LVL7:
 672              	.LBE102:
 673              	.LBE101:
 674              		.cfi_endproc
 675              	.LFE230:
 676              		.size	chThdRelease, .-chThdRelease
 677 004e 00BF     		.section	.text.chThdCreateFromHeap,"ax",%progbits
 678              		.align	2
 679              		.p2align 4,,15
 680              		.global	chThdCreateFromHeap
 681              		.thumb
 682              		.thumb_func
 683              		.type	chThdCreateFromHeap, %function
 684              	chThdCreateFromHeap:
 685              	.LFB231:
 686              		.loc 1 153 0
 687              		.cfi_startproc
 688              		@ args = 4, pretend = 0, frame = 0
 689              		@ frame_needed = 0, uses_anonymous_args = 0
 690              	.LVL8:
 691 0000 F0B5     		push	{r4, r5, r6, r7, lr}
 692              		.cfi_def_cfa_offset 20
 693              		.cfi_offset 4, -20
 694              		.cfi_offset 5, -16
 695              		.cfi_offset 6, -12
 696              		.cfi_offset 7, -8
 697              		.cfi_offset 14, -4
 698 0002 83B0     		sub	sp, sp, #12
ARM GAS  /var/folders/c6/c789hm653lg9vtl73krp73tm0000gn/T//cc7oBT3V.s 			page 44


 699              		.cfi_def_cfa_offset 32
 700              		.loc 1 153 0
 701 0004 1746     		mov	r7, r2
 702 0006 1E46     		mov	r6, r3
 703 0008 0D46     		mov	r5, r1
 704              		.loc 1 157 0
 705 000a FFF7FEFF 		bl	chHeapAlloc
 706              	.LVL9:
 707              		.loc 1 158 0
 708 000e 98B1     		cbz	r0, .L9
 709              	.LVL10:
 710              	.LBB103:
 711              	.LBB104:
 712              	.LBB105:
 713              	.LBB106:
 714              		.loc 2 546 0
 715 0010 2023     		movs	r3, #32
 716              	@ 546 "../../../os/ext/CMSIS/include/core_cmFunc.h" 1
 717 0012 83F31188 		MSR basepri, r3
 718              	@ 0 "" 2
 719              		.thumb
 720              	.LBE106:
 721              	.LBE105:
 722              	.LBE104:
 723              	.LBE103:
 724              		.loc 1 172 0
 725 0016 089B     		ldr	r3, [sp, #32]
 726 0018 0093     		str	r3, [sp]
 727 001a 2946     		mov	r1, r5
 728 001c 3A46     		mov	r2, r7
 729 001e 3346     		mov	r3, r6
 730 0020 FFF7FEFF 		bl	chThdCreateI
 731              	.LVL11:
 732              		.loc 1 173 0
 733 0024 0123     		movs	r3, #1
 734 0026 4377     		strb	r3, [r0, #29]
 735              		.loc 1 174 0
 736 0028 0021     		movs	r1, #0
 737              		.loc 1 172 0
 738 002a 0446     		mov	r4, r0
 739              	.LVL12:
 740              		.loc 1 174 0
 741 002c FFF7FEFF 		bl	chSchWakeupS
 742              	.LVL13:
 743              	.LBB107:
 744              	.LBB108:
 745              	.LBB109:
 746              	.LBB110:
 747              	.LBB111:
 748              		.loc 2 546 0
 749 0030 0023     		movs	r3, #0
 750              	@ 546 "../../../os/ext/CMSIS/include/core_cmFunc.h" 1
 751 0032 83F31188 		MSR basepri, r3
 752              	@ 0 "" 2
 753              		.thumb
 754              	.LBE111:
 755              	.LBE110:
ARM GAS  /var/folders/c6/c789hm653lg9vtl73krp73tm0000gn/T//cc7oBT3V.s 			page 45


 756              	.LBE109:
 757              	.LBE108:
 758              	.LBE107:
 759              		.loc 1 177 0
 760 0036 2046     		mov	r0, r4
 761              	.LVL14:
 762              	.L9:
 763              		.loc 1 178 0
 764 0038 03B0     		add	sp, sp, #12
 765              		@ sp needed
 766 003a F0BD     		pop	{r4, r5, r6, r7, pc}
 767              		.cfi_endproc
 768              	.LFE231:
 769              		.size	chThdCreateFromHeap, .-chThdCreateFromHeap
 770 003c AFF30080 		.section	.text.chThdCreateFromMemoryPool,"ax",%progbits
 771              		.align	2
 772              		.p2align 4,,15
 773              		.global	chThdCreateFromMemoryPool
 774              		.thumb
 775              		.thumb_func
 776              		.type	chThdCreateFromMemoryPool, %function
 777              	chThdCreateFromMemoryPool:
 778              	.LFB232:
 779              		.loc 1 205 0
 780              		.cfi_startproc
 781              		@ args = 0, pretend = 0, frame = 0
 782              		@ frame_needed = 0, uses_anonymous_args = 0
 783              	.LVL15:
 784 0000 F0B5     		push	{r4, r5, r6, r7, lr}
 785              		.cfi_def_cfa_offset 20
 786              		.cfi_offset 4, -20
 787              		.cfi_offset 5, -16
 788              		.cfi_offset 6, -12
 789              		.cfi_offset 7, -8
 790              		.cfi_offset 14, -4
 791 0002 83B0     		sub	sp, sp, #12
 792              		.cfi_def_cfa_offset 32
 793              		.loc 1 205 0
 794 0004 0F46     		mov	r7, r1
 795 0006 1646     		mov	r6, r2
 796 0008 1C46     		mov	r4, r3
 797 000a 0546     		mov	r5, r0
 798              		.loc 1 211 0
 799 000c FFF7FEFF 		bl	chPoolAlloc
 800              	.LVL16:
 801              		.loc 1 212 0
 802 0010 98B1     		cbz	r0, .L12
 803              	.LVL17:
 804              	.LBB112:
 805              	.LBB113:
 806              	.LBB114:
 807              	.LBB115:
 808              		.loc 2 546 0
 809 0012 2023     		movs	r3, #32
 810              	@ 546 "../../../os/ext/CMSIS/include/core_cmFunc.h" 1
 811 0014 83F31188 		MSR basepri, r3
 812              	@ 0 "" 2
ARM GAS  /var/folders/c6/c789hm653lg9vtl73krp73tm0000gn/T//cc7oBT3V.s 			page 46


 813              		.thumb
 814              	.LBE115:
 815              	.LBE114:
 816              	.LBE113:
 817              	.LBE112:
 818              		.loc 1 226 0
 819 0018 6968     		ldr	r1, [r5, #4]
 820 001a 0094     		str	r4, [sp]
 821 001c 3A46     		mov	r2, r7
 822 001e 3346     		mov	r3, r6
 823 0020 FFF7FEFF 		bl	chThdCreateI
 824              	.LVL18:
 825              		.loc 1 227 0
 826 0024 0223     		movs	r3, #2
 827 0026 4377     		strb	r3, [r0, #29]
 828              		.loc 1 228 0
 829 0028 0564     		str	r5, [r0, #64]
 830              		.loc 1 229 0
 831 002a 0021     		movs	r1, #0
 832              		.loc 1 226 0
 833 002c 0446     		mov	r4, r0
 834              	.LVL19:
 835              		.loc 1 229 0
 836 002e FFF7FEFF 		bl	chSchWakeupS
 837              	.LVL20:
 838              	.LBB116:
 839              	.LBB117:
 840              	.LBB118:
 841              	.LBB119:
 842              	.LBB120:
 843              		.loc 2 546 0
 844 0032 0023     		movs	r3, #0
 845              	@ 546 "../../../os/ext/CMSIS/include/core_cmFunc.h" 1
 846 0034 83F31188 		MSR basepri, r3
 847              	@ 0 "" 2
 848              		.thumb
 849              	.LBE120:
 850              	.LBE119:
 851              	.LBE118:
 852              	.LBE117:
 853              	.LBE116:
 854              		.loc 1 232 0
 855 0038 2046     		mov	r0, r4
 856              	.LVL21:
 857              	.L12:
 858              		.loc 1 233 0
 859 003a 03B0     		add	sp, sp, #12
 860              		@ sp needed
 861 003c F0BD     		pop	{r4, r5, r6, r7, pc}
 862              		.cfi_endproc
 863              	.LFE232:
 864              		.size	chThdCreateFromMemoryPool, .-chThdCreateFromMemoryPool
 865 003e 00BF     		.text
 866              	.Letext0:
 867              		.file 3 "/usr/local/Cellar/gcc-arm-none-eabi/20140805/lib/gcc/arm-none-eabi/4.8.4/include/stddef.h
 868              		.file 4 "/usr/local/Cellar/gcc-arm-none-eabi/20140805/arm-none-eabi/include/machine/_default_types
 869              		.file 5 "/usr/local/Cellar/gcc-arm-none-eabi/20140805/arm-none-eabi/include/stdint.h"
ARM GAS  /var/folders/c6/c789hm653lg9vtl73krp73tm0000gn/T//cc7oBT3V.s 			page 47


 870              		.file 6 "../../../os/rt/ports/ARMCMx/compilers/GCC/chtypes.h"
 871              		.file 7 "../../../os/rt/include/chsystypes.h"
 872              		.file 8 "../../../os/rt/include/chschd.h"
 873              		.file 9 "../../../os/rt/ports/ARMCMx/chcore.h"
 874              		.file 10 "../../../os/rt/ports/ARMCMx/chcore_v7m.h"
 875              		.file 11 "../../../os/rt/include/chtm.h"
 876              		.file 12 "../../../os/rt/include/chsem.h"
 877              		.file 13 "../../../os/rt/include/chmtx.h"
 878              		.file 14 "../../../os/rt/include/chthreads.h"
 879              		.file 15 "../../../os/rt/include/chmemcore.h"
 880              		.file 16 "../../../os/rt/include/chheap.h"
 881              		.file 17 "../../../os/rt/include/chmempools.h"
 882              		.file 18 "../../../os/rt/include/chsys.h"
 883              		.file 19 "../../../os/ext/CMSIS/include/core_cm4.h"