ARM GAS  /var/folders/c6/c789hm653lg9vtl73krp73tm0000gn/T//ccNMqBii.s 			page 1


   1              		.syntax unified
   2              		.cpu cortex-m4
   3              		.fpu softvfp
   4              		.eabi_attribute 20, 1
   5              		.eabi_attribute 21, 1
   6              		.eabi_attribute 23, 3
   7              		.eabi_attribute 24, 1
   8              		.eabi_attribute 25, 1
   9              		.eabi_attribute 26, 1
  10              		.eabi_attribute 30, 2
  11              		.eabi_attribute 34, 1
  12              		.eabi_attribute 18, 4
  13              		.thumb
  14              		.file	"chheap.c"
  15              		.text
  16              	.Ltext0:
  17              		.section	.gnu.lto_.jmpfuncs.89a075f76daf8efe,"",%progbits
  18 0000 789C6362 		.ascii	"x\234cb`b\300\0062\2404+\003\003#S5\303\257\206\216"
  18      6062C006 
  18      32A0342B 
  18      03032353 
  18      35C3AF86 
  19 0015 06814C46 		.ascii	"\006\201LF\006m\206U\015\015 \026c.#C\022#\\9#\343\203"
  19      066D8655 
  19      0D0D2016 
  19      632E2343 
  19      12235C39 
  20 002c FF50C018 		.ascii	"\377P\300\030\301\230\311\0104\224\231\235\221\245\001"
  20      C198C908 
  20      3494999D 
  20      91A501
  21 003b C8042962 		.ascii	"\310\004)ba\006\222pT\0174\226\021\302d\203J0\000\000"
  21      61069270 
  21      540F3496 
  21      11C26483 
  21      4A300000 
  22 004f 14D512C5 		.ascii	"\024\325\022\305"
  23              		.text
  24              		.section	.gnu.lto_.inline.89a075f76daf8efe,"",%progbits
  25 0000 789C6362 		.ascii	"x\234cb`b\300\006L\031!4+\003\003\207\000#\003\023\333"
  25      6062C006 
  25      4C192134 
  25      2B030387 
  25      00230313 
  26 0015 073D06B6 		.ascii	"\007=\006\266\005\362`\305L\334\014\014\214\014\314"
  26      05F260C5 
  26      4CDC0C0C 
  26      8C0CCC
  27 0024 0CDCC28C 		.ascii	"\014\334\302\214LL`u \202\231\265C\235\201{\205\033"
  27      4C4C6075 
  27      208299B5 
  27      439D817B 
  27      851B
  28 0036 1303D305 		.ascii	"\023\003\323\005~\026\270\272\011~,\014\372\037\030"
  28      7E16B8BA 
  28      097E2C0C 
  28      FA1F18
ARM GAS  /var/folders/c6/c789hm653lg9vtl73krp73tm0000gn/T//ccNMqBii.s 			page 2


  29 0045 185918D2 		.ascii	"\030Y\030\322#\0303\031\231A\022\031p\026H##\210`1\353"
  29      23183319 
  29      99411219 
  29      70164823 
  29      23886031 
  30 005a E8E184D8 		.ascii	"\350\341\204\330\300\262@^\200\201c\237\236\002\222"
  30      C0B2405E 
  30      8081639F 
  30      9E0292
  31 0069 19A814AB 		.ascii	"\031\250\024\253 \204b\320\331\303\010\324\015\266\335"
  31      208462D0 
  31      D9C308D4 
  31      0DB6DD
  32 0078 61D53561 		.ascii	"a\3255a\006\276\031\316\030\326C)6\006\241\273\014\214"
  32      06BE19CE 
  32      18D64329 
  32      3606A1BB 
  32      0C8C
  33 008a 6CD85CC1 		.ascii	"l\330\\\301\010f\201\3640\246\303X\010\227\261\361<"
  33      086681F4 
  33      30A6C358 
  33      0897B1F1 
  33      3C
  34 009b 79C40E77 		.ascii	"y\304\016w\231\003\210h\000\332\331\304.\300\004&1\255"
  34      99038868 
  34      00DAD9C4 
  34      2EC00426 
  34      31AD
  35 00ad 62000049 		.ascii	"b\000\000I\345%f"
  35      E52566
  36              		.text
  37              		.section	.gnu.lto_.pureconst.89a075f76daf8efe,"",%progbits
  38 0000 789C6362 		.ascii	"x\234cb`b\340f\200\000V\006\011f)\026)V)6)\000\004?"
  38      6062E066 
  38      80005606 
  38      09662916 
  38      29562936 
  39 0018 00A7     		.ascii	"\000\247"
  40              		.text
  41              		.section	.gnu.lto__heap_init.89a075f76daf8efe,"",%progbits
  42 0000 789C6362 		.ascii	"x\234cb`b@\007\222@\374\225\221\201A\016H32302M8\307"
  42      60624007 
  42      9240FC95 
  42      9181410E 
  42      48333233 
  43 0019 C0D0C8C1 		.ascii	"\300\320\310\301\304\310\010b002\32431\326G2\202\325"
  43      C4C80862 
  43      303032D4 
  43      3331D647 
  43      3282D5
  44 002c AE673AF0 		.ascii	"\256g:\360\340\377\377u\337\216M\277\3038\207\211\015"
  44      E0FFFF75 
  44      DF8E4DBF 
  44      C3388789 
  44      0D
  45 003d 28C2CAD0 		.ascii	"(\302\312\320\322\3200A\201\201!\031\254\"\004H\202"
  45      D2D03041 
ARM GAS  /var/folders/c6/c789hm653lg9vtl73krp73tm0000gn/T//ccNMqBii.s 			page 3


  45      81812119 
  45      AC220448 
  45      82
  46 004e B4853232 		.ascii	"\264\20522\201h\346\263\014M\277\232\277\367Z'2.dde"
  46      8168E6B3 
  46      0C4DBF9A 
  46      BFF75A27 
  46      322E6464 
  47 0063 D06658D5 		.ascii	"\320fX\325\000\004\366\231\214\014\263\031f564\010d"
  47      0004F699 
  47      8C0CB319 
  47      66353634 
  47      0864
  48 0075 32325633 		.ascii	"22V3\374j\350\000\261\230r\301FD0\002\231`\333\222 "
  48      FC6AE800 
  48      B19872C1 
  48      46443002 
  48      9960DB92 
  49 008a 96324054 		.ascii	"\2262@T4Tg22'3B\304\200\346\356\270\361\376\000\013"
  49      34546732 
  49      32273342 
  49      C480E6EE 
  49      B8F1FE00 
  50 009f 8AB9A599 		.ascii	"\212\271\245\231\214,Pfa&#+\224\031\233\311\310\206"
  50      8C2C5066 
  50      6126232B 
  50      94199BC9 
  50      C886
  51 00b1 B0989D38 		.ascii	"\260\230\2358\213\031\2414\214\317\014\245Y\030`*Y`"
  51      8B19A134 
  51      8CCF0CA5 
  51      5918602A 
  51      5960
  52 00c3 CEF8F1FE 		.ascii	"\316\370\361\376\0033\2123\200vsP\323nV\270\235\034"
  52      03338A33 
  52      80767350 
  52      D36E56B8 
  52      9D1C
  53 00d5 20C67986 		.ascii	" \306y\206\226\007'\017sA\254\204\005\016\320$\316d"
  53      9607270F 
  53      7341AC84 
  53      050ED024 
  53      CE64
  54 00e7 A80E9008 		.ascii	"\250\016\220\010G&#\027\324\342\211@\215\334@[\222\030"
  54      47262317 
  54      D4E28940 
  54      8DDC405B 
  54      9218
  55 00f9 D9C0D250 		.ascii	"\331\300\322P\215\231\214<\014\014\027\031\032\037\234"
  55      8D998C3C 
  55      0C0C1719 
  55      1A1F9C
  56 0108 55861905 		.ascii	"U\206\031\005\001!@\007\000\243\016d\226\214\236\236"
  56      01214007 
  56      00A30E64 
  56      968C9E9E 
  57 0118 3E04E517 		.ascii	">\004\345\027\353\027\225\350\027\027%\353'gd\244&\026"
ARM GAS  /var/folders/c6/c789hm653lg9vtl73krp73tm0000gn/T//ccNMqBii.s 			page 4


  57      EB1795E8 
  57      171725EB 
  57      276764A4 
  57      2616
  58 012a E8253300 		.ascii	"\350%3\000\000\377\313\203o"
  58      00FFCB83 
  58      6F
  59              		.text
  60              		.section	.gnu.lto_chHeapObjectInit.89a075f76daf8efe,"",%progbits
  61 0000 789CA552 		.ascii	"x\234\245R;K\003A\020\376f/g\036\347\253\015\010> \215"
  61      3B4B0341 
  61      10FE662F 
  61      671EE7AB 
  61      0D083E20 
  62 0015 6282853F 		.ascii	"b\202\205?D0`\312xHr\205\030\214\225)\334\030A\255\014"
  62      443060CA 
  62      78487285 
  62      188C9529 
  62      DC1841AD 
  63 002a 368A36C6 		.ascii	"6\2126\306\322B\333\224g\243\244\360\005\202\226\226"
  63      D242DB94 
  63      67A3A4F0 
  63      05829696 
  64 003a 76968A42 		.ascii	"v\226\212B\316\331\273MB$\210\340\220\233\231#\263\337"
  64      CED9BB4D 
  64      422488E0 
  64      909B9923 
  64      B3DF
  65 004c 636E0504 		.ascii	"cn\005\004~F\234\237!\003\030\347J\006HTo\201rD\020"
  65      7E469C9F 
  65      210318E7 
  65      4A064854 
  65      6F817244 
  66 0061 A906840D 		.ascii	"\251\006\204\015A\033\031\362g/\204\373\342y\347\217"
  66      411B19F2 
  66      672F84FB 
  66      E279E78F 
  67 0071 D75797B4 		.ascii	"\327W\227\264\233\030 Z&\030\234(\302ID\341\020,Nj\330"
  67      9B18205A 
  67      26189C28 
  67      C24944E1 
  67      102C4E6A 
  68 0086 C49694D5 		.ascii	"\304\226\224\325\261\011\324\244\334w\237\266\017\342"
  68      B109D4A4 
  68      DC779FB6 
  68      0FE2
  69 0094 F264B32A 		.ascii	"\362d\263*\233\236G\016\011\201Q\202MX\340\027c\314"
  69      9B9E470E 
  69      09815182 
  69      4D58E017 
  69      63CC
  70 00a6 2FA150B7 		.ascii	"/\241P\267\256e\026\243F8\3469+1i\022\252\032\015\210"
  70      AE6516A3 
  70      4638E639 
  70      2B316912 
  70      AA1A0D88 
  71 00ba 2CD5C844 		.ascii	",\325\310D\226Ni\0029Ex\203\315\372\307\327\253\376"
ARM GAS  /var/folders/c6/c789hm653lg9vtl73krp73tm0000gn/T//ccNMqBii.s 			page 5


  71      964E6902 
  71      39457883 
  71      CDFAC7D7 
  71      ABFE
  72 00cc 630A6792 		.ascii	"c\012g\222c\306!\363\030G\214\336\227#C\261\204}\354"
  72      63C621F3 
  72      18478CDE 
  72      972343B1 
  72      847DEC
  73 00df C5C08ECF 		.ascii	"\305\300\216\317k\252\206O7\016\233\367F\327\351\014"
  73      6BAA864F 
  73      370E9BF7 
  73      46D7E90C 
  74 00ef 0BD56DDA 		.ascii	"\013\325m\332\241\210n\347\034\212v\340c\275\341IW\241"
  74      A1886EE7 
  74      1C8A76E0 
  74      63BDE149 
  74      57A1
  75 0101 ABA16BE0 		.ascii	"\253\241k\340\261-\270\336t\273)\231\307\372\017\217"
  75      B12DB8DE 
  75      74BB2999 
  75      C7FA0F8F 
  76 0111 D9B66569 		.ascii	"\331\266ei[\365\347\246\333\275\224\331\216\255\231"
  76      5BF5E7A6 
  76      DBBD94D9 
  76      8EAD99
  77 0120 8E2D8BE9 		.ascii	"\216-\213\351\002\216\030\313S\010\342W\017\355\211"
  77      028E18CB 
  77      5308E257 
  77      0FED89
  78 012f 1B54762A 		.ascii	"\033Tv*o{\323\001G\216\2429\212\370\002><\317\033\322"
  78      6F7BD301 
  78      478EA239 
  78      8AF8023E 
  78      3CCF1BD2 
  79 0143 BBBD0FFF 		.ascii	"\273\275\017\377\374.\326\237yM\275\263\250\017\365"
  79      FC2ED69F 
  79      794DBDB3 
  79      A80FF5
  80 0152 5979DF9B 		.ascii	"Yy\337\233lqY%\254\363u\323PE\207\372{\257\251\257s"
  80      6C715925 
  80      ACF375D3 
  80      504587FA 
  80      7BAFA9AF 
  81 0167 ADEEB0E5 		.ascii	"\255\356\260\345\352\363@\011\237rG\016;4`\353U2\246"
  81      EAF34009 
  81      9F72470E 
  81      3B3460EB 
  81      5532A6
  82 017a 4383C003 		.ascii	"C\203\300\003\312/\273\211\326\\\020\363<\303\327O\351"
  82      CA2FBB89 
  82      D65C10F3 
  82      3CC3D74F 
  82      E9
  83 018b 1A492653 		.ascii	"\032I&S\301o\245\230Z]K\025W\355\224\235\317/e\013I"
  83      C16FA598 
  83      5A5D4B15 
ARM GAS  /var/folders/c6/c789hm653lg9vtl73krp73tm0000gn/T//ccNMqBii.s 			page 6


  83      57ED949D 
  83      CF2F650B 
  84 01a0 1B225FF8 		.ascii	"\033\"_\370\0069\363\2661"
  84      0639F3B6 
  84      31
  85              		.text
  86              		.section	.gnu.lto_chHeapAlloc.89a075f76daf8efe,"",%progbits
  87 0000 789CC556 		.ascii	"x\234\305V\335k\034U\024?\347\336\335\231\331\257\331"
  87      DD6B1C55 
  87      143FE7DE 
  87      DD99D9AF 
  87      D9
  88 0011 2D094D91 		.ascii	"-\011M\221\224\204\205X\260\220P\212H(\265\210\376\003"
  88      94848558 
  88      B090508A 
  88      4828B588 
  88      FE03
  89 0023 4203FA66 		.ascii	"B\003\372f\022c\262\017\305\264\325\027\373\220Iv\013"
  89      1263B20F 
  89      C5B4D517 
  89      FB904976 
  89      0B
  90 0034 D1FA1085 		.ascii	"\321\372\020\205\244~\364!\245\224\202\242\001?H\260"
  90      A47EF421 
  90      A59482A2 
  90      013F48B0 
  91 0044 916E43D1 		.ascii	"\221nC\321$\325\330>HSiiZ\015\005+h\360!5\010\3539\367"
  91      24D5D83E 
  91      48536969 
  91      5A0D052B 
  91      68F02135 
  92 005c 6376B646 		.ascii	"cv\266F\263}\020\207\344~\314=\347w~\347\343\236Y\001"
  92      B37D1087 
  92      E47ECC3D 
  92      E7777EE7 
  92      E39E5901 
  93 0070 021E7CBE 		.ascii	"\002\036|\276\244\377\236$\300.\2321\007(\306\226\000"
  93      A4FF9E24 
  93      C02E9A31 
  93      0728C696 
  93      00
  94 0081 863D21E4 		.ascii	"\206=!\344\215\024\004\311\330gs\000AZbL\277\217aR/"
  94      8D1404C9 
  94      D8677300 
  94      415A624C 
  94      BF8F6152 
  95 0096 E2C29993 		.ascii	"\342\302\231\223$\220]Zd\001G\270\243\273h\353\361\230"
  95      24905D5A 
  95      640147B8 
  95      A3BB68EB 
  95      F198
  96 00a8 7631A1A5 		.ascii	"v1\241\245<\273H\240\257\027Y\015\360TR\304\225f2\305"
  96      3CBB48A0 
  96      AF17590D 
  96      F05452C4 
  96      956632C5 
  97 00bc 30E99448 		.ascii	"0\351\224H\177\245\266\376\"o\323\"s\345\033\265-#m"
ARM GAS  /var/folders/c6/c789hm653lg9vtl73krp73tm0000gn/T//ccNMqBii.s 			page 7


  97      7FA5B6FE 
  97      226FD322 
  97      73E51BB5 
  97      2D236D
  98 00cf 3356DB47 		.ascii	"3V\333G\344\005 \014\011\031\213;\256\227\310&S\351"
  98      E405200C 
  98      09198B3B 
  98      AE97C826 
  98      53E9
  99 00e1 8C8F43CF 		.ascii	"\214\217C\317#\273#\363p:\010\336^9\376\341\232x7(\227"
  99      23BB23F3 
  99      703A08DE 
  99      5E39FEE1 
  99      9A783728 
 100 00f6 26833F2B 		.ascii	"&\203?+\025\304\002\222\353-\010\275\010\317\321\006"
 100      15C40292 
 100      EB2D08BD 
 100      08CFD106 
 101 0106 5BD52462 		.ascii	"[\325$b\265\261\320\272\301\372\213\363A\251\\\251\034"
 101      B5B1D0BA 
 101      C1FA8BF3 
 101      41A95CA9 
 101      1C
 102 0117 505AF93A 		.ascii	"PZ\371:\265\336\352\213j\265m\2455%\312+\225\312\354"
 102      B5DEEA8B 
 102      6AB56DA5 
 102      3525CA2B 
 102      95CAEC
 103 012a F7333F9E 		.ascii	"\3673?\236\302\206G\021\016\261V7\236\306<H(\240t\220"
 103      C2864711 
 103      0EB15637 
 103      9EC63C48 
 103      28A07490 
 104 013e DEB834A0 		.ascii	"\336\2704\240G\333X\202\0040i\004R\364&\356\323\000"
 104      47DB5882 
 104      04306904 
 104      52F426EE 
 104      D300
 105 0150 593ECBF1 		.ascii	"Y>\313\361\260\215\267\015$p\226\004\032y\263\235_7"
 105      B08DB70D 
 105      24709604 
 105      1A79B39D 
 105      5F37
 106 0162 F1B09301 		.ascii	"\361\260\223\001[hpZy\233'\2513$\325ffz\342P\012\202"
 106      5B68705A 
 106      799B27A9 
 106      3324D566 
 106      667AE250 
 107 0178 B1560DAF 		.ascii	"\261V\015\257\337j$`7\3509H\343o\016t\241\240I\316\303"
 107      DF6A2460 
 107      37E83948 
 107      E36F0E74 
 107      A1A049CE 
 108 018d A5BB176F 		.ascii	"\245\273\027o\276!\273\361\034\306\241\037\035\366\320"
 108      BE21BBF1 
 108      1CC6A11F 
 108      1DF6D0
ARM GAS  /var/folders/c6/c789hm653lg9vtl73krp73tm0000gn/T//ccNMqBii.s 			page 8


 109 019c 8DBAD785 		.ascii	"\215\272\327\205\022J(\027`dej\325\321r\344\3201\330"
 109      124A2817 
 109      6064656A 
 109      D5D172E4 
 109      D031D8
 110 01af 08468360 		.ascii	"\010F\203`\037I\037B\021\221\2161,I{\300b\375H\346\276"
 110      1F491F42 
 110      11918E31 
 110      2C497BC0 
 110      62FD48E6 
 111 01c4 85E268F1 		.ascii	"\205\342h\361\336\370#\326\210\327\217.\333\361\330"
 111      DEF823D6 
 111      88D78F2E 
 111      DBF1D8
 112 01d3 101D9E2F 		.ascii	"\020\035\236/\366\330\243\004\235\252\243\373\225J%"
 112      F6D8A304 
 112      9DAAA3FB 
 112      954A25
 113 01e2 4BC70B20 		.ascii	"K\307\013 \254M\244c\226\037\331(\376:\356X\215$3\241"
 113      AC4DA463 
 113      961FD928 
 113      FE3AEE58 
 113      8D2433A1 
 114 01f6 670F056A 		.ascii	"g\017\005j7|\300\313\375\005L\274\017\357\021L\222\354"
 114      377CC0CB 
 114      FD054CBC 
 114      0FEF114C 
 114      92EC
 115 0208 573DEAC1 		.ascii	"W=\352\301\210_D\261l@t\260\010\312\240\257\217\207"
 115      885F44B1 
 115      6C4074B0 
 115      08CAA0AF 
 115      8F87
 116 021a F1481D83 		.ascii	"\361H\035\203\327(E\273\341\261\002\2466\307\214\200"
 116      D72845BB 
 116      E1B102A6 
 116      36C78C80 
 117 022a 7E0731AD 		.ascii	"~\0071\255\010&>\271\002\246{\215\004\201\0250\303\253"
 117      08263EB9 
 117      02A67B8D 
 117      04811530 
 117      C3AB
 118 023c EB40AE38 		.ascii	"\353@\2568\002\265L\371\326\242\037FQ\316H\016b\034"
 118      02B54CF9 
 118      D6A21F46 
 118      51CE480E 
 118      621C
 119 024e E84AA998 		.ascii	"\350J\251\230_8\036\222<\243H\372\212\344\017\357|\262"
 119      5F381E92 
 119      3CA348FA 
 119      8AE40FEF 
 119      7CB2
 120 0260 86966456 		.ascii	"\206\226dV\321\363\214\367O\024\320\327L)\230>3\005"
 120      D1F38CF7 
 120      4F14D0D7 
 120      4C29983E 
 120      3305
ARM GAS  /var/folders/c6/c789hm653lg9vtl73krp73tm0000gn/T//ccNMqBii.s 			page 9


 121 0272 C3549859 		.ascii	"\303T\230Y\032\272\363P\272;\274'DQ\341\255&\322\201"
 121      1ABAF350 
 121      BA3BBC27 
 121      4451E1AD 
 121      26D281
 122 0285 8FA554A9 		.ascii	"\217\245T\251;7\361\244\025\312\221\220\312\217\247"
 122      3B37F1A4 
 122      15CA9190 
 122      CA8FA7
 123 0294 F42FAD0E 		.ascii	"\364/\255\016?\036\321\317E\365]\270\206\222\251\316"
 123      3F1ED1CF 
 123      45F55DB8 
 123      8692A9CE 
 124 02a4 7CFA4718 		.ascii	"|\372G\030\317m\212\252M\324\261\002sW\313W\267d\035"
 124      CF6D8AAA 
 124      4DD4B102 
 124      7357CB57 
 124      B7641D
 125 02b7 3373DC58 		.ascii	"3s\334X \350\205+)\015l@\236\255\251\201\354f\001\021"
 125      20E8852B 
 125      290D6C40 
 125      9EADA981 
 125      EC660111 
 126 02cb 5B43134B 		.ascii	"[C\023K\353\203\247}(\236(\336\233h\266>4\020A\345k"
 126      EB83A77D 
 126      289E28DE 
 126      9B68B63E 
 126      341041E5 
 127 02e0 589BFA86 		.ascii	"X\233\372\206\321\211\311\315t\325\341\306\377\333\341"
 127      D189C9CD 
 127      74D5E1C6 
 127      FFDBE1
 128 02ef 867A1C6E 		.ascii	"\206z\034nT\367\360\365\342\372\304\220%\276\335V\004"
 128      54F7F0F5 
 128      E2FAC490 
 128      25BEDD56 
 128      04
 129 0300 9740E84E 		.ascii	"\227@\350N\023\035\324\334O&5VKj\377?\324\342\246L\244"
 129      131DD4DC 
 129      4F263556 
 129      4B6AFF3F 
 129      D4E2A64C 
 130 0315 61D0A4A1 		.ascii	"a\320\244\241\226\247\327\304\177\222R\235\232\313\367"
 130      96A7D7C4 
 130      7F92529D 
 130      9ACBF7
 131 0324 A76F8BBA 		.ascii	"\247o\213\272\310\376\313\305\011\357I\027-\324\035"
 131      C8FECBC5 
 131      09EF4917 
 131      2DD41D
 132 0333 19B93CF3 		.ascii	"\031\271<\363\305\337q]\263\354\254\362\336[w\322\035"
 132      C5DF715D 
 132      B3ECACF2 
 132      DE5B77D2 
 132      1D
 133 0344 630AB9AB 		.ascii	"c\012\271\253\224V~^\305\315:\2130R\272\263\250B\375"
 133      94567E5E 
ARM GAS  /var/folders/c6/c789hm653lg9vtl73krp73tm0000gn/T//ccNMqBii.s 			page 10


 133      C5CD3A8B 
 133      3052BAB3 
 133      A842FD
 134 0357 BCC9E66A 		.ascii	"\274\311\346j\2471!<S@\0071\013\223_\003vQ\247\243\217"
 134      A731213C 
 134      53400731 
 134      0B935F03 
 134      7651A7A3 
 135 036c AFE9D2B6 		.ascii	"\257\351\322\266\373\011]\274\313S\013\302\"\3705\305"
 135      FB095DBC 
 135      CB530BC2 
 135      22F835C5 
 136 037c 7BA0EA47 		.ascii	"{\240\352G\347C\306_\365\232_\206\367\206\300U\025\365"
 136      E743C65F 
 136      F59A5F86 
 136      F786C055 
 136      15F5
 137 038e 5C0741ED 		.ascii	"\\\007A\35576{m\007\235e\337\274\365\002\0077\005sR"
 137      37367B6D 
 137      079D65DF 
 137      BCF50207 
 137      37057352 
 138 03a2 B2F31B7D 		.ascii	"\262\363\033}\365\370N\324/\334\016{b\213\242\236\333"
 138      F5F84ED4 
 138      2FDC0E7B 
 138      628BA29E 
 138      DB
 139 03b3 BC65BB51 		.ascii	"\274e\273QR\231P\205E\"-\2149\244\341#\323\004+'\367"
 139      52995085 
 139      45222D8C 
 139      39A4E123 
 139      D3042B27 
 140 03c8 59C1D668 		.ascii	"Y\301\326h\023$\202\345\035\366$O(\314\251\265\300="
 140      132482E5 
 140      1DF6244F 
 140      28CCA9B5 
 140      C03D
 141 03da 24D21F74 		.ascii	"$\322\037t\357\316k\223\027\307\374P\341\201@\260\315"
 141      EFCE6B93 
 141      17C7FC50 
 141      E18140B0 
 141      CD
 142 03eb 0C9C3545 		.ascii	"\014\2345Eu\347\341\213*_gQ1\376\362\235\253\265\370"
 142      75E7E18B 
 142      2A5F6751 
 142      31FEF29D 
 142      ABB5F8
 143 03fe 9DD5CBB0 		.ascii	"\235\325\313\2605h\3442P!M\236p\243\276>\003O\027\320"
 143      3568E432 
 143      50214D9E 
 143      70A3BE3E 
 143      034F17D0 
 144 0412 FA470568 		.ascii	"\372G\005h\023\250?\260\347O\2716\000m\372\363]>\271"
 144      13A83FB0 
 144      E74FB936 
 144      006DFAF3 
 144      5D3EB9
ARM GAS  /var/folders/c6/c789hm653lg9vtl73krp73tm0000gn/T//ccNMqBii.s 			page 11


 145 0425 942605B2 		.ascii	"\224&\005\2628\034p~\255Q\251j7\324\326\001\362\371"
 145      381C707E 
 145      AD51A96A 
 145      37D4D601 
 145      F2F9
 146 0437 27C655FA 		.ascii	"'\306U\372\021\311\346\245\256\037I\365\236\270q\263"
 146      11C9E6A5 
 146      AE1F49F5 
 146      9EB871B3 
 147 0447 9910333F 		.ascii	"\231\0203?\035V\252\000\351\331\337\323f\231R\365\217"
 147      1D56AA00 
 147      E9D9DFD3 
 147      669952F5 
 147      8F
 148 0458 A4C9FC9B 		.ascii	"\244\311\374\233\333\333;\364\337\313G;\216\274\322"
 148      DBDB3BF4 
 148      DFCB473B 
 148      8EBCD2
 149 0467 71F4486F 		.ascii	"q\364HoG\357\300@_\367`{/\210\303\203b`P\2744\370\027"
 149      47EFC040 
 149      5FF7607B 
 149      2F88C383 
 149      626050BC 
 150 047e 100B59C6 		.ascii	"\020\013Y\306"
 151              		.text
 152              		.section	.gnu.lto_chHeapFree.89a075f76daf8efe,"",%progbits
 153 0000 789CAD55 		.ascii	"x\234\255U]h\024W\024>\347\316\314\316\354\316\304\335"
 153      5D681457 
 153      143EE7CE 
 153      CCCEECCE 
 153      C4DD
 154 0012 1809D918 		.ascii	"\030\011\331\030\211l-\205X\262\024\021\221R}\356\243"
 154      896C2D85 
 154      58B21411 
 154      91527DEE 
 154      A3
 155 0023 D4803EC6 		.ascii	"\324\200>\306\255$\373\020LM\373\322P\234l\362\020\020"
 155      AD24FB10 
 155      4C4DFBD2 
 155      509C6CF2 
 155      1010
 156 0035 6A10FC6B 		.ascii	"j\020\374k\260&\024\021\372R(>\370\270+\012\256\250"
 156      B0261411 
 156      FA52283E 
 156      F8B82B0A 
 156      AEA8
 157 0047 A96F2A82 		.ascii	"\251o*\202\311C[\301\007\225\264I\\C\247\347\376\315"
 157      C9435BC1 
 157      0795B449 
 157      5C43A7E7 
 157      FECD
 158 0059 CC2E4B93 		.ascii	"\314.K\223\015\035v\317\275\347\336{\276\357\374\335"
 158      0D1D76CF 
 158      BDE7DE7B 
 158      BEEFFCDD 
 159 0069 19060C1A 		.ascii	"\031\006\014\032\2379\372\037J\001\364\321\210m\200"
 159      9F39FA1F 
ARM GAS  /var/folders/c6/c789hm653lg9vtl73krp73tm0000gn/T//ccNMqBii.s 			page 12


 159      4A01F4D1 
 159      886D80
 160 0078 6CE611C0 		.ascii	"l\346\021\300\204\303\320\220\023\203Y\317]\360S\346"
 160      84C3D090 
 160      138359CF 
 160      5DF053E6 
 161 0088 CDDB00BE 		.ascii	"\315\333\000\276g2k\372#R].=\213\331\267\015\322\022"
 161      67326BFA 
 161      23525D2E 
 161      3D8BD9B7 
 161      0DD212
 162 009b 8FEEF3CD 		.ascii	"\217\356\363\315\204R]\251\332\314\021\246Ii\352`RB"
 162      84525DA9 
 162      DACC11A6 
 162      4969EA60 
 162      5242
 163 00ad 26594AAC 		.ascii	"&YJ\254{r=\205\236\\w%g\305\361\020\371\004\020\316"
 163      7B723D85 
 163      9E5C7725 
 163      67C5F110 
 163      F90410CE 
 164 00c1 30C3B412 		.ascii	"0\303\264\022\266\223L\271\036\2369\216\334c#\007\363"
 164      B6934CB9 
 164      1E9E398E 
 164      DC632307 
 164      F3
 165 00d2 BE7F7EF1 		.ascii	"\276\177~\361\356\253\267\354\212_\236\232\363\327\203"
 165      EEABB7EC 
 165      8A5F9E9A 
 165      F3D783
 166 00e1 00B18814 		.ascii	"\000\261\210\024]/B\001\341\030)\270[\014\314\254\017"
 166      5D2F4201 
 166      E11829B8 
 166      5B0CCCAC 
 166      0F
 167 00f2 57DAFAAB 		.ascii	"W\332\372\253_\336\363\247\312ApXX\3456gU~\361\375\205"
 167      5FDEF3A7 
 167      CA417058 
 167      58E53667 
 167      557EF1FD 
 168 0107 AC3F579A 		.ascii	"\254?W\232\361\377!\302\"\032\014>\334\310\362\027V"
 168      F1FF21C2 
 168      221A0C3E 
 168      DCC8F217 
 168      56
 169 0118 5E0C82E7 		.ascii	"^\014\202\347\177\277\\Z\307\216\017\020\006q\036s`"
 169      7FBF5C5A 
 169      C78E0F10 
 169      06711E73 
 169      60
 170 0129 E2088245 		.ascii	"\342\010\202E\312O\244\3304^\247\321Q\233I(\242\351"
 170      CA4FA4D8 
 170      345EA7D1 
 170      519B4928 
 170      A2E9
 171 013b 92806D24 		.ascii	"\222\200m$\2544\011\226\341j;\027\333\371Z\007\027;"
 171      AC340996 
ARM GAS  /var/folders/c6/c789hm653lg9vtl73krp73tm0000gn/T//ccNMqBii.s 			page 13


 171      E16A3B17 
 171      DBF95A07 
 171      173B
 172 014d B8E8E46B 		.ascii	"\270\350\344k]|\226\345\347\272\271\272\223\253=\\\354"
 172      5D7C96E5 
 172      E7BAB9BA 
 172      93AB3D5C 
 172      EC
 173 015e E2A297AF 		.ascii	"\342\242\227\257\345\0248=\026L\371\376\314n\251K\027"
 173      E514383D 
 173      164CF9FE 
 173      CC6EA94B 
 173      17
 174 016f A4032348 		.ascii	"\244\003#H\371-\210\034\037%Y3`\000\031\015\306C\230"
 174      F92D881C 
 174      1F255933 
 174      6000190D 
 174      C64398
 175 0182 3C3BB97C 		.ascii	"<;\271|51\2107\320\202!\264\206\320\024\301\256\005"
 175      35318837 
 175      D08221B4 
 175      86D014C1 
 175      AE05
 176 0194 4190A6E3 		.ascii	"A\220\246\343U`rO\302\321\011\200\207Pz\366\344u\025"
 176      5560724F 
 176      C2D10980 
 176      87507AF6 
 176      E47515
 177 01a7 B591BD17 		.ascii	"\265\221\275\027~\366\351\031\240\304\251\351\221\""
 177      7EF6E919 
 177      A0C4A9E9 
 177      9122
 178 01b5 26D4F4D3 		.ascii	"&\324\364\323\"\332\263\360\003\201:\012\03448\234@"
 178      22DAB3F0 
 178      03813A0A 
 178      1C34389C 
 178      40
 179 01c6 99CB1388 		.ascii	"\231\313\023\210j\324m\\\205R9\253\231\257\013f[0\327"
 179      6AD46D5C 
 179      855239AB 
 179      99AF0B66 
 179      5B30D7
 180 01d9 2683C85D 		.ascii	"&\203\310]g\034j\234\343\023\002Ut\237\021\217\244K"
 180      671C6A9C 
 180      E3130255 
 180      749F118F 
 180      A44B
 181 01eb 9209A733 		.ascii	"\222\011\2473\024\264\021\325\216\243'4\372\274@w\024"
 181      14B411D5 
 181      8EA32734 
 181      FABC4077 
 181      14
 182 01fc FA8D1F0D 		.ascii	"\372\215\037\015\215\236\034\207o\251`{\241\257\210"
 182      8D9E1C87 
 182      6FA9607B 
 182      A1AF88
 183 020b A9E698B1 		.ascii	"\251\346\230\261\236X\000S\032\002p\257\246\375L\021"
ARM GAS  /var/folders/c6/c789hm653lg9vtl73krp73tm0000gn/T//ccNMqBii.s 			page 14


 183      9E580053 
 183      1A0270AF 
 183      A6FD4C11 
 184 021b DD820A8C 		.ascii	"\335\202\012\214\300\212\350\311\203\003dM\227\300 "
 184      C08AE8C9 
 184      8303644D 
 184      97C020
 185 022a 278854F3 		.ascii	"'\210T\363\323\271{p\347\317\312\3549O\363\243\360J"
 185      D3B97B70 
 185      E7CFCAEC 
 185      394FF3A3 
 185      F04A
 186 023c 3E4F81B4 		.ascii	">O\201\264\234\373\327w\264\306\326W\2738\214\011t\315"
 186      9CFBD777 
 186      B4C6D657 
 186      BB388C09 
 186      74CD
 187 024e 0CB2FAA3 		.ascii	"\014\262\372\2432\273\260'VB\214\274\032\240\265\225"
 187      32BBB027 
 187      56428CBC 
 187      1AA0B595 
 188 025e 8F0D51B2 		.ascii	"\217\015Q\262\345\307L\037rEP\260A\265PT\013\232W\312"
 188      E5C74C1F 
 188      724550B0 
 188      41B55054 
 188      0B9A57CA 
 189 0272 520CD2EB 		.ascii	"R\014\322\353\205|\010\035\031\205>$`\271\217;\372{"
 189      857C081D 
 189      19853E24 
 189      60B98F3B 
 189      FA7B
 190 0284 E56A9DA3 		.ascii	"\345j\235\243n\374\220-\033\262T\275\274\262\244\034"
 190      6EFC902D 
 190      1BB254BD 
 190      BCB2A41C 
 191 0294 8D6AAAA7 		.ascii	"\215j\252\247\007#W\367\265\324X\226\252\203+\352\\"
 191      072357F7 
 191      B5D45896 
 191      AA832BEA 
 191      5C
 192 02a5 BDB5058E 		.ascii	"\275\265\005\216M\244#\274\037k+O\303\373\261M$\273"
 192      4DA423BC 
 192      1F6B2B4F 
 192      C3FBB14D 
 192      24BB
 193 02b7 4DC84D78 		.ascii	"M\310Mx\234P\031\241\2739\035\366b\232`\304\305t\344"
 193      9C5019A1 
 193      BB391DF6 
 193      629A60C4 
 193      C574E4
 194 02ca CED97027 		.ascii	"\316\331p'#2\231\226\264o\322z\271\275\256\302\343Q"
 194      23329996 
 194      B46FD27A 
 194      B9BDAEC2 
 194      E351
 195 02dc 48DF6C21 		.ascii	"H\337l!m\262\312\023\373c\234\355\361\3229\360\000D"
 195      6DB2CA13 
ARM GAS  /var/folders/c6/c789hm653lg9vtl73krp73tm0000gn/T//ccNMqBii.s 			page 15


 195      FB639CED 
 195      F1D239F0 
 195      0044
 196 02ee 8FDD5A7D 		.ascii	"\217\335Z}k\352C\333u\330\202\366\022\306y\333\233\245"
 196      6BEA43DB 
 196      75D882F6 
 196      12C679DB 
 196      9BA5
 197 0300 321EF8E4 		.ascii	"2\036\370\344\257a\372:(tBkH\310\016\332\340 m2!\245"
 197      AF61FA3A 
 197      2874426B 
 197      48C80EDA 
 197      E0206D32 
 198 0316 CFE3D5CC 		.ascii	"\317\343\325\314\204\274\231\026RN\240\352\345\266Z"
 198      84BC9916 
 198      524EA0EA 
 198      E5B65A
 199 0325 B5344F67 		.ascii	"\2654Og]\036\257a\224\310+\033G\324\230E\336y\277\271"
 199      5D1EAF61 
 199      94C82B1B 
 199      47D49845 
 199      DE79BFB9 
 200 0339 757D77A4 		.ascii	"u}w\244\356\325\245\261\017l\251\267;u=\222\352*=\273"
 200      EED5A5B1 
 200      0F6CA9B7 
 200      3B753D92 
 200      EA2A3DBB 
 201 034d 5C5B0AF3 		.ascii	"\\[\012\363\330\325\264\015\2336u\323\026\314\022D\363"
 201      D8D5B40D 
 201      9B3675D3 
 201      16CC1244 
 201      F3
 202 035e 16EC16EF 		.ascii	"\026\354\026\357\252lc\227t\017\205\201\013\257R\272"
 202      AA6C6397 
 202      740F8581 
 202      0BAF52BA 
 203 036e 4B9ED496 		.ascii	"K\236\324\226B\333\235u]2\326\362\015\2115J\0179H\200"
 203      42DB9D75 
 203      5D32D6F2 
 203      0D89354A 
 203      0F394880 
 204 0382 0D6EEFA2 		.ascii	"\015n\357\242\215V\033\345?\222B\200\352\206\327\336"
 204      8D561BE5 
 204      3F924280 
 204      EA86D7DE 
 205 0392 851CBDFF 		.ascii	"\205\034\275\377\357e\333Z\233l\352\365\324\253\213"
 205      EF65DB5A 
 205      9B6CEAF5 
 205      D4AB8B
 206 03a1 E1C2C5FB 		.ascii	"\341\302\305\373\262\032k\357+a\012s\012\370\213\210"
 206      B21A6BEF 
 206      2B610A73 
 206      0AF88B88 
 207 03b1 EE704477 		.ascii	"\356pDw\260\345\217\003\377\320v\325\177hs\332\003\217"
 207      B0E58F03 
 207      FFD076D5 
 207      7F6873DA 
ARM GAS  /var/folders/c6/c789hm653lg9vtl73krp73tm0000gn/T//ccNMqBii.s 			page 16


 207      038F
 208 03c3 37E9024C 		.ascii	"7\351\002L-\276\033j\366\341d\312c\371\341|\014\023"
 208      2DBE1B6A 
 208      F6E164CA 
 208      63F9E17C 
 208      0C13
 209 03d5 73EF6D7D 		.ascii	"s\357m}N>G\211\256f\360s=\375\375y\371;5\226?\375u~"
 209      4E3E4789 
 209      AE66F073 
 209      3DFDFD79 
 209      F93B3596 
 210 03ed EC74215F 		.ascii	"\354t!_\030\036>98\332_\000\366\325(\033\036\265\270"
 210      181E3E39 
 210      38DA5F00 
 210      F6D5281B 
 210      1EB5B8
 211 0400 36FA2F05 		.ascii	"6\372/\005\372X0"
 211      FA5830
 212              		.text
 213              		.section	.gnu.lto_chHeapStatus.89a075f76daf8efe,"",%progbits
 214 0000 789C8D53 		.ascii	"x\234\215S\315KTQ\024?\347\336\3675\363f\306\210Z\010"
 214      CD4B5451 
 214      143FE7DE 
 214      F735F366 
 214      C6885A08 
 215 0014 4122D122 		.ascii	"A\"\321\"\301!ZED\377\204B\255b\234\342\371\026\226"
 215      C1215A45 
 215      44FF8442 
 215      AD629CE2 
 215      F91696
 216 0027 1FAD74E1 		.ascii	"\037\255t\341\035}\221\201\201\030bY\013E\304,\313M"
 216      1D7D9181 
 216      81186259 
 216      0B45C42C 
 216      CB4D
 217 0039 0BC9C031 		.ascii	"\013\311\3001\244\034\301Dw\212\213\241\026\"\270j\021"
 217      A41CC144 
 217      778A8BA1 
 217      1622B86A 
 217      11
 218 004a 25D174EE 		.ascii	"%\321t\356\273\367\315G\010\365\230y\347\276{\177\347"
 218      BBF7CD47 
 218      08F59879 
 218      E7BE7B7F 
 218      E7
 219 005b 9CDFF99D 		.ascii	"\234\337\371\235s\0310\370\373\351\242\377y\223\376"
 219      731930F8 
 219      FBE9A2FF 
 219      7993FE
 220 006a 64310EC8 		.ascii	"d1\016\310F>\003\344\034\306\370\236\013\"n\274\375"
 220      463E03E4 
 220      1CC6F89E 
 220      0B226EBC 
 220      FD
 221 007b 0020121C 		.ascii	"\000 \022\034\015\265o\240\245\026\246Z\2548\0263\207"
 221      0DB56FA0 
 221      A516A65A 
ARM GAS  /var/folders/c6/c789hm653lg9vtl73krp73tm0000gn/T//ccNMqBii.s 			page 17


 221      AC381633 
 221      87
 222 008c 3F11266E 		.ascii	"?\021&n\0076!m\346L|\224\237\261\357\362\323\301\230"
 222      0736216D 
 222      E64C7C94 
 222      9FB1EFF2 
 222      D3C198
 223 009f C2C710E5 		.ascii	"\302\307\020\345\002\020\372\0317L\313\246\235\376\033"
 223      0210FA19 
 223      374CCBA6 
 223      9DFE1B
 224 00ae 2829F046 		.ascii	"()\360F\230\022b\264x\177\366\033{*\362\301\244\370"
 224      981262B4 
 224      787FF61B 
 224      7B2AF2C1 
 224      A4F8
 225 00c0 552A21FA 		.ascii	"U*!\372Ht\317\"d\021\256\323\0076\204\206\031\265\374"
 225      4874CF22 
 225      6411AED3 
 225      07368486 
 225      19B5FC
 226 00d3 956F7E69 		.ascii	"\225o~i\364Q\275\230\034\030\021\277\311\325G\316\240"
 226      F451BD98 
 226      1C1811BF 
 226      C9D547CE 
 226      A0
 227 00e4 F1FF3CC5 		.ascii	"\361\377<\305\322\2555\021\344K\245k\241\327\271\177"
 227      D2AD3511 
 227      E44BA56B 
 227      A1D7B97F 
 228 00f4 792DB07C 		.ascii	"y-\260|\261Tz\377\370\340\353:\236:\211\320!Yfp\012"
 228      B1547AFF 
 228      F8E0EB3A 
 228      9E3A89D0 
 228      21596670 
 229 0109 1B81939D 		.ascii	"\033\201\223\235&k\220\235!k!\035\332\340\243\021\327"
 229      266B909D 
 229      216B211D 
 229      DAE0A311 
 229      D7
 230 011a 08973E20 		.ascii	"\010\227> A/3\2511)\355SGX)\206\011\201\020#\015\012"
 230      412F33A9 
 230      3129ED53 
 230      47582986 
 230      09811023 
 231 0130 AE8E1410 		.ascii	"\256\216\024\020$/zZ\350MB\267\"#\303\327`u\177ey\224"
 231      242F7A5A 
 231      E84D42B7 
 231      2223C3D7 
 231      60757F65 
 232 0146 6770164D 		.ascii	"gp\026M\360\320\222\224\255j\276\255\310\341\001\362"
 232      F0D09294 
 232      AD6ABEAD 
 232      C8E101F2 
 233 0156 020C145F 		.ascii	"\002\014\024_\034X\012G\264\372\340H\014\011q\205\320"
 233      1C580A47 
 233      B4FAE048 
ARM GAS  /var/folders/c6/c789hm653lg9vtl73krp73tm0000gn/T//ccNMqBii.s 			page 18


 233      0C097185 
 233      D0
 234 0167 1DC8AAD0 		.ascii	"\035\310\252\320\206\014Kh\007$\314\223\2446`\340hp"
 234      860C4B68 
 234      0724CC93 
 234      A43660E0 
 234      6870
 235 0179 61A69CC4 		.ascii	"a\246\234\304\356\203^*\252\011.\370h?\203\011J\351"
 235      EE835E2A 
 235      AA092EF8 
 235      683F8309 
 235      4AE9
 236 018b 10B092BA 		.ascii	"\020\260\222\272\015\253\010l\202\241\034A'=\341c,\213"
 236      0DAB086C 
 236      82A11C41 
 236      273DE163 
 236      2C8B
 237 019d 0A42C17C 		.ascii	"\012B\301|\232:\220\364\346\013\250\200\252`\031\216"
 237      9A3A90F4 
 237      E60BA880 
 237      AA60198E 
 238 01ad 4B8C3C7B 		.ascii	"K\214<{=W>\233\256>\013\251-\315X\021\265\270LA\317"
 238      3D573E9B 
 238      AE3E0BA9 
 238      2DCD5811 
 238      B5B84C41 
 239 01c2 45D2B909 		.ascii	"E\322\271\011^\312\345U\037\335\343IV\261\244\034y+"
 239      5ECAE555 
 239      1FDDE349 
 239      56B1A41C 
 239      792B
 240 01d4 CA20A5F7 		.ascii	"\312 \245\367$+\200\035@\022\225\241b\236\337\332N\225"
 240      242B801D 
 240      401295A1 
 240      629EDFDA 
 240      4E95
 241 01e6 05E38B5C 		.ascii	"\005\343\213\\\352e\002M?'\036\273O\336l\227%J\204\342"
 241      EA65024D 
 241      3F271EBB 
 241      4FDE6C97 
 241      254A84E2 
 242 01fa 704DE1A6 		.ascii	"pM\341\246\217\011E\301\365\320\225\024@S`\332r\315"
 242      8F0945C1 
 242      F5D09514 
 242      405360DA 
 242      72CD
 243 020c 63030687 		.ascii	"c\003\006\207\006\333\242(I\012\344QG\210\036\253\226"
 243      06DBA228 
 243      490AE451 
 243      47881EAB 
 243      96
 244 021d 864E3474 		.ascii	"\206N4t\277Rz\312C\036\352\202P\3430\035:\244\224\216"
 244      BF527ACA 
 244      431EEA82 
 244      50E3301D 
 244      3AA4948E 
 245 0231 EF1EFE55 		.ascii	"\357\036\376U\245\033\365\335\002\272\236\272\361Q\226"
ARM GAS  /var/folders/c6/c789hm653lg9vtl73krp73tm0000gn/T//ccNMqBii.s 			page 19


 245      A51BF5DD 
 245      02BA9EBA 
 245      F15196
 246 0240 30B3DA50 		.ascii	"0\263\332PQxeC\271\263\260\005\273?^\255\263\210\207"
 246      51786543 
 246      B9B3B005 
 246      BB3F5EAD 
 246      B38887
 247 0253 1B961EA9 		.ascii	"\033\226\036\251O\267*\251\227\227\253U`\307\251`hk"
 247      4FB72AA9 
 247      9797AB55 
 247      60C7A960 
 247      686B
 248 0265 6A35D620 		.ascii	"j5\326 8\314]*\007\256\270\200\352\015\243.\031\207"
 248      38CC5D2A 
 248      07AEB880 
 248      EA0DA32E 
 248      1987
 249 0277 63F57466 		.ascii	"c\365tf\316\217gv\200\353\3010\366\306NS\315\346\363"
 249      CE8F6776 
 249      80EBC130 
 249      F6C64E53 
 249      CDE6F3
 250 028a F1FA1D30 		.ascii	"\361\372\0350\242\315\3251jf\322\034\036\317\310\202"
 250      A2CDD531 
 250      6A66D21C 
 250      1ECFC882 
 251 029a 6D757F82 		.ascii	"mu\177\202\303\225\237\225\373S'\261\251\332\373\343"
 251      C3959F95 
 251      FB5327B1 
 251      A9DAFBE3 
 252 02aa C09C251B 		.ascii	"\300\234%\033\\X\\\370\242\247\220\312\310QE.\305\255"
 252      5C585CF8 
 252      A2A790CA 
 252      C851452E 
 252      C5AD
 253 02bc F1F17409 		.ascii	"\361\361t\011\344\025\223\3417!(.\373\307\215?\253\031"
 253      E41593E1 
 253      3721282E 
 253      FBC78D3F 
 253      AB19
 254 02ce FF2DC84D 		.ascii	"\377-\310M\026b\021\011=\014-4\240\201-\201g\232\233"
 254      16621109 
 254      3D0C2D34 
 254      A0812D81 
 254      679A9B
 255 02e1 D3EA77B7 		.ascii	"\323\352w\267'\335}/\335\323\235Mg\333\333og:\233\263"
 255      27DD7D2F 
 255      DDD39D4D 
 255      67DBDB6F 
 255      673A9BB3 
 256 02f5 C0BA3AF1 		.ascii	"\300\272:\361\016\353\351\375\003\323\3210\223"
 256      0EEBE9FD 
 256      03D3D130 
 256      93
 257              		.text
 258              		.section	.gnu.lto_.symbol_nodes.89a075f76daf8efe,"",%progbits
ARM GAS  /var/folders/c6/c789hm653lg9vtl73krp73tm0000gn/T//ccNMqBii.s 			page 20


 259 0000 789C4DCC 		.ascii	"x\234M\314=\012\302@\020\005\340\367vv\263\311)r\324"
 259      3D0AC240 
 259      1005E0F7 
 259      7676B3C9 
 259      2972D4
 260 0013 892C8820 		.ascii	"\211,\210 \210\220\336\306\243\330[hi\243\204\030\177"
 260      8890DEC6 
 260      A3D85B68 
 260      69A38418 
 260      7F
 261 0024 16BD819A 		.ascii	"\026\275\201\232h0\231\346\361\315<\306\300\340\200"
 261      683099E6 
 261      F1CD3CC6 
 261      C0E080
 262 0033 7ECC990A 		.ascii	"~\314\231\012,\267\200\352jFW\023V\205w*\177\333bB\323"
 262      2CB780EA 
 262      6A465713 
 262      5685772A 
 262      7FDB6242 
 263 0048 50CDD031 		.ascii	"P\315\3201\027\252\214x\245\332\021oT7\220\221\232\364"
 263      17AA8C78 
 263      A5DA116F 
 263      54379091 
 263      9AF4
 264 005a 9F0AF249 		.ascii	"\237\012\362I\365\203\036\324\364/\201Gu|Q\304#Lc.6"
 264      F5831ED4 
 264      F42F8147 
 264      757C51C4 
 264      234C632E 
 265 006f C3FA9B29 		.ascii	"\303\372\233)\252E\364]\206\335\333[\213r\337xq\031"
 265      AA45F45D 
 265      86DDDB5B 
 265      8B72DF78 
 265      7119
 266 0081 AA535B77 		.ascii	"\252S[w\355\271lkI\206\3209I\261\231\307\034\037\320"
 266      EDB96C6B 
 266      4986D039 
 266      49B199C7 
 266      1C1FD0
 267 0094 0044F5   		.ascii	"\000D\365"
 268              		.text
 269              		.section	.gnu.lto_.refs.89a075f76daf8efe,"",%progbits
 270 0000 789C6362 		.ascii	"x\234cb`b\020e\200\000V\006FF&&F \000\022,@\314\306"
 270      60621065 
 270      80005606 
 270      46462626 
 270      46200012 
 271 0018 C4C80000 		.ascii	"\304\310\000\000\004\212\000>"
 271      048A003E 
 272              		.text
 273              		.section	.gnu.lto_.decls.89a075f76daf8efe,"",%progbits
 274 0000 789CBD5A 		.ascii	"x\234\275Z{p\024E\032\357\236\315n\262I\024\304:\017"
 274      7B701445 
 274      1AEF9ECD 
 274      6EB24914 
 274      C43A0F
 275 0013 3DEA583C 		.ascii	"=\352X<\275\362\274\203\004E\304\373C\260\270R\254\322"
ARM GAS  /var/folders/c6/c789hm653lg9vtl73krp73tm0000gn/T//ccNMqBii.s 			page 21


 275      BDF2BC83 
 275      0445C4FB 
 275      43B0B852 
 275      ACD2
 276 0025 3BEAD02A 		.ascii	";\352\320*\313\263j\0316Cvu_\316N Xe9Y \027\003B\010"
 276      CBB36A19 
 276      36437675 
 276      5FCE4E20 
 276      58653959 
 277 003e 10406348 		.ascii	"\020@cHT\024\264\020\202<\345\265\"\206\034\206\360"
 277      5414B410 
 277      823CE5B5 
 277      22861C86 
 277      F0
 278 004f F2402E16 		.ascii	"\362@.\026\256\212\307=D\217\000\212\247\260\367u\317"
 278      AE8AC73D 
 278      448F008A 
 278      A7B0F775 
 278      CF
 279 0060 CCEE4CEF 		.ascii	"\314\356L\357\314fv\321\233J\367\364\316t\377\372\367"
 279      CC6676D1 
 279      9B4AF7F4 
 279      CE74FFFA 
 279      F7
 280 0071 3DBABFEE 		.ascii	"=\272\277\356\236p\210C\2678\020J\3015b$B'\234\010\271"
 280      9E708843 
 280      B738104A 
 280      C1356224 
 280      42279C08 
 281 0086 10427743 		.ascii	"\020BwC\202\"\352\200\364\022\244\311\030\241)\220f"
 281      8222EA80 
 281      F412A4C9 
 281      18A12990 
 281      66
 282 0097 43823F54 		.ascii	"C\202?T\007\231\033\356s\340\336\000\251\021R\013\244"
 282      07991BEE 
 282      73E0DE00 
 282      A911520B 
 282      A4
 283 00a8 3648AB20 		.ascii	"6H\253 \275\011i\003\244\215j\375\315$\323]\244\335"
 283      BD096903 
 283      A48D6AFD 
 283      CD24D35D 
 283      A4DD
 284 00ba 5570FF13 		.ascii	"Up\377\023\334\037R\261\247B\252\205T\003I\204\344\303"
 284      DC1F52B1 
 284      A742AA85 
 284      54034984 
 284      E4C3
 285 00cc 4ABF5B71 		.ascii	"J\277[q\206\307:(\027\303\375Q\270O\203\364$$\011\322"
 285      86C73A28 
 285      17C3FD51 
 285      B84F83F4 
 285      242409D2 
 286 00e0 4C484F63 		.ascii	"LHOc\205\227C\307\353M\213\376\011\337A:\031I\277W\303"
 286      859743C7 
 286      EB4D8BFE 
ARM GAS  /var/folders/c6/c789hm653lg9vtl73krp73tm0000gn/T//ccNMqBii.s 			page 22


 286      09DF413A 
 286      1949BF57 
 287 00f5 BD9CE1C4 		.ascii	"\275\234\341\304r!\034\010\037;<8\265\037\302\241\010"
 287      72211C08 
 287      1F3B3C38 
 287      B51FC2A1 
 287      08
 288 0106 CACD706F 		.ascii	"\312\315po\202\264\004\3226\206\017\321\335\020\206"
 288      82B404D2 
 288      36860FD1 
 288      DD1086
 289 0115 C7781DBF 		.ascii	"\307x\035\277\251*\237\311*\227\207\030.\242\312\225"
 289      A92A9FC9 
 289      2A978718 
 289      2EA2CA95 
 290 0125 707F0C52 		.ascii	"p\177\014R\011Rx\325\251\334\236\326\361{\012+\274\035"
 290      095278D5 
 290      A9DC9ED6 
 290      F17B0A2B 
 290      BC1D
 291 0137 6ABF1B55 		.ascii	"j\277\033U[\221\337/\300\275\025g\353\253M\345\245\347"
 291      5B91DF2F 
 291      C0BD1567 
 291      EBAB4DE5 
 291      A5E7
 292 0149 3745B50B 		.ascii	"7E\265\013\341\250\327\023\313m\262\252+MGO\341\014"
 292      E1A8D713 
 292      CB6DB2AA 
 292      2B4D474F 
 292      E10C
 293 015b 374D5F0E 		.ascii	"7M_\016\265\017\215\013\321\335Kp\337\315\360X\245\332"
 293      B50F8D0B 
 293      D1DD4B70 
 293      DFCDF058 
 293      A5DA
 294 016d 4DCF63B2 		.ascii	"M\317c\262\216\307\024\265\357\207p\246\177\237N?\304"
 294      8EC714B5 
 294      EF8770A6 
 294      7F9F4E3F 
 294      C4
 295 017e 7F5DAAFF 		.ascii	"\177]\252\377jv\323\353\306\241\366\241\327\311\353"
 295      6A76D3EB 
 295      C6A1F6A1 
 295      D7C9EB
 296 018d 707FC344 		.ascii	"p\177\303D'e\250Q\226\343r{\275<\251\373\352!h\221\014"
 296      2765A851 
 296      96E3727B 
 296      BD3CA9FB 
 296      EA216891 
 297 01a2 97A71B58 		.ascii	"\227\247\033X=\202y|\265\033\311\230\226\312\335h0\324"
 297      3D82797C 
 297      B51BC998 
 297      96CADD68 
 297      30D4
 298 01b4 BE19BD22 		.ascii	"\276\031\275\"\313M\311\271}\303\344\"\036\277\204\207"
 298      CB4DC9B9 
 298      7DC3E422 
ARM GAS  /var/folders/c6/c789hm653lg9vtl73krp73tm0000gn/T//ccNMqBii.s 			page 23


 298      1EBF8487 
 299 01c4 808C3762 		.ascii	"\200\2147bt+Z\003\315\232dy\317u(\373\032\020\225C\243"
 299      742B5A03 
 299      CD9A6479 
 299      CF7528FB 
 299      1A109543 
 300 01d9 31E2F1AB 		.ascii	"1\342\361\253\000\307\343U\370V\245\0339q\216\367(O"
 300      00C7E355 
 300      F856A51B 
 300      39718EF7 
 300      284F
 301 01eb 91FADCE4 		.ascii	"\221\372\334\344\032\201\332I\325\013\237\273\345\346"
 301      1A81DA49 
 301      D50B9FBB 
 301      E5E6
 302 01f9 72939E26 		.ascii	"r\223\236&h\035\225d\350_\350x\356~Y.\341\361\353T\000"
 302      681D9564 
 302      E85FE878 
 302      EE7E592E 
 302      E1F1EB54 
 303 020e 2F36C0AB 		.ascii	"/6\300\253 \355\023\254P8\024!-\3262t\223\213\366\177"
 303      20ED13AC 
 303      50381421 
 303      2DD63274 
 303      938BF67F 
 304 0222 13C775B2 		.ascii	"\023\307u\262\214\225w\003\221\216'\316\316{\361z\271"
 304      8C957703 
 304      918E27CE 
 304      CE7BF17A 
 304      B9
 305 0233 7D0F1EC8 		.ascii	"}\017\036\310\006\355EZ\367\277\313\010q\376\222\003"
 305      06ED455A 
 305      F7BFCB08 
 305      71FE9203 
 306 0243 B4B3814A 		.ascii	"\264\263\201J\320\201ME\260\306\340\300\037H\223MY2"
 306      D0814D45 
 306      B0C6E0C0 
 306      1F48934D 
 306      5932
 307 0255 34BE375B 		.ascii	"4\2767[\225a\223-\031\226-Pd\340q'\310\301\201\317i"
 307      9561932D 
 307      19962D50 
 307      64E07127 
 307      C8C181CF 
 308 026a B86AC71E 		.ascii	"\270j\307\036\255_2{\250E\345R+\030\361\236\357-o\342"
 308      AD5F327B 
 308      A845E552 
 308      2B18F19E 
 308      EF2D6FE2 
 309 027e 35B0ED79 		.ascii	"5\260\355y\203y\014`+{[)97j\310(\030\231\202\251Z]\272"
 309      83790C60 
 309      2B7B5B29 
 309      39376AC8 
 309      28189982 
 310 0296 A0F7309E 		.ascii	"\240\3670\236M\345\337\011\3158\364\015\243Z\373P\251"
 310      4DE5DF09 
 310      CD38F40D 
ARM GAS  /var/folders/c6/c789hm653lg9vtl73krp73tm0000gn/T//ccNMqBii.s 			page 24


 310      A35AFB50 
 310      A9
 311 02a7 85EFBD83 		.ascii	"\205\357\275\203\343\024*A\241z\270B\241\372Zv\334E"
 311      E3142A41 
 311      A17AB842 
 311      A1FA5A76 
 311      DC45
 312 02b9 1DF65D0A 		.ascii	"\035\366]\012\264\301a\004\342qqZ\215\351\337Z\005\202"
 312      B4C16104 
 312      E271715A 
 312      8DE9DF5A 
 312      0582
 313 02cb 465FAB05 		.ascii	"F_\253\005\022$\007\241\037\271:\207v:l\230\256\304"
 313      122407A1 
 313      1FB93A87 
 313      763A6C98 
 313      AEC4
 314 02dd CA0FE464 		.ascii	"\312\017\344dSc\217c\205\234\230\343\320\206\243\313"
 314      53638F63 
 314      859C98E3 
 314      D086A3CB 
 315 02ed 4A471CDA 		.ascii	"JG\034\332K\373\352f}y\333\311\036m<v\333\362\345M\373"
 315      4BFBEA66 
 315      7D79DBC9 
 315      1E6D3C76 
 315      DBF2E54D 
 316 0302 97D91B8F 		.ascii	"\227\331\033\217\234\326\377M\264\377~\332\377\001\266"
 316      9CD6FF4D 
 316      B4FF7EDA 
 316      FF01B6
 317 0311 FF4B2BBF 		.ascii	"\377K+\277\326\306\322\001[\375\257<\262$\273\177\036"
 317      D6C6D201 
 317      5BFDAF3C 
 317      B224BB7F 
 317      1E
 318 0322 DFFD935C 		.ascii	"\337\375\223\\\276\261\355\344\337\317\252\275\034\246"
 318      BEB1EDE4 
 318      DFCFAABD 
 318      1CA6
 319 0330 83667511 		.ascii	"\203fu\021\353\035\343\313\214\366\203\337\272\012\034"
 319      EB1DE3CB 
 319      8CF683DF 
 319      BA0A1C
 320 033f EA2CD2F8 		.ascii	"\352,\322\370\0274fA\320\236%\270y\266\334]\251q\330"
 320      17346641 
 320      D09E25B8 
 320      79B6DC5D 
 320      A971D8
 321 0352 9837A2C7 		.ascii	"\2307\242\307\240\211\015G\350,\240\200m\261\003f\351"
 321      A0890D47 
 321      E82CA080 
 321      6DB10366 
 321      E9
 322 0363 4AF1C446 		.ascii	"J\361\304F=\330\333y\203\031\231m\326\203\355\264\003"
 322      3DD8DB79 
 322      8319996D 
 322      D683EDB4 
ARM GAS  /var/folders/c6/c789hm653lg9vtl73krp73tm0000gn/T//ccNMqBii.s 			page 25


 322      03
 323 0374 36D89AD9 		.ascii	"6\330\232\331V=X\"o0#\263\267\365`\357\332\001\033j"
 323      563D5822 
 323      6F3023B3 
 323      B7F560EF 
 323      DA011B6A 
 324 0388 CD6C871E 		.ascii	"\315l\207\036l_\336`Ff\273\364`\357\333\001\363\230"
 324      6C5FDE60 
 324      4666BBF4 
 324      60EFDB01 
 324      F398
 325 039a 304B5F66 		.ascii	"0K_f\355\210[\367\340\264\237s\250\267H\233\023\362"
 325      ED885BF7 
 325      E0B49F73 
 325      A8B7489B 
 325      13F2
 326 03ac F46994C1 		.ascii	"\364i\224\3018R\224\357\034f\220\033\202\351\201\227"
 326      385294EF 
 326      1C66901B 
 326      82E98197 
 327 03bc F162655C 		.ascii	"\361be\\(\001\355C;\2109\034f\263>:&\363\0063\232\345"
 327      2801ED43 
 327      3B88391C 
 327      66B33E3A 
 327      26F30633 
 328 03d2 03026698 		.ascii	"\003\002f\230k\324\210\224\\\225\030\272<3\335\225h"
 328      6BD48894 
 328      5C9518BA 
 328      3C33DD95 
 328      68
 329 03e3 5864E9A8 		.ascii	"Xd\351\250\314m\260\324\343\322\225\345\241C\315\353"
 329      CC6DB0D4 
 329      E3D295E5 
 329      A143CDEB 
 330 03f3 F2F84B7C 		.ascii	"\362\370K|3\344_aw\232\205R\326J)\272J\376G\021\263"
 330      33E45F61 
 330      779A8552 
 330      D64A29BA 
 330      4AFE4711 
 331 0408 28D5AE81 		.ascii	"(\325\256\201\232Zy\302\027zO8cGM9\206\302w\275\255"
 331      9A5A79C2 
 331      177A4F38 
 331      63474D39 
 331      86C277BD 
 332 041d 3F959309 		.ascii	"?\225\223\011\254\2237\247r`\021\321\333\243-\"\316"
 332      AC9337A7 
 332      726011D1 
 332      DBA32D22 
 332      CE
 333 042e D1807DBE 		.ascii	"\321\200}\276\3104\362\333\200J-\\\373k\032\371\277"
 333      C834F2DB 
 333      804A2D5C 
 333      FB6B1AF9 
 333      BF
 334 043f A640970A 		.ascii	"\246@\227\012\006\352ki\033G\201\276\245@s\235l\220"
 334      06EA6B69 
 334      1B4781BE 
ARM GAS  /var/folders/c6/c789hm653lg9vtl73krp73tm0000gn/T//ccNMqBii.s 			page 26


 334      A540739D 
 334      6C90
 335 0451 C0CC1202 		.ascii	"\300\314\022\002\033\203|Z\367\252\352\177\254\272\034"
 335      1B837C5A 
 335      F7AAEA7F 
 335      ACBA1C
 336 0460 5AE864EC 		.ascii	"Z\350d\354e\020g\300\331\006\226\341\247\026\343sqy"
 336      651067C0 
 336      D90696E1 
 336      A716E373 
 336      7179
 337 0472 79651E16 		.ascii	"ye\036\026[\220\266\330e\252\237eY\372\371:O\005qhe"
 337      5B90B6D8 
 337      65AA9F65 
 337      59FAF93A 
 337      4F057168 
 338 0487 DE82DC62 		.ascii	"\336\202\334b\024\244\361t\001\202\034\320\004\231\315"
 338      14A4F174 
 338      01821CD0 
 338      0499CD
 339 0496 11415EFB 		.ascii	"\021A^\373\001\004Y\227\267 \225:A\310\306\350\374\022"
 339      01045997 
 339      B720953A 
 339      41C8C6E8 
 339      FC12
 340 04a8 651EBC16 		.ascii	"e\036\274\0265\347^\314\021>\015\334\265\306}\340\205"
 340      35E75ECC 
 340      113E0DDC 
 340      B5C67DE0 
 340      85
 341 04b9 83D8A33C 		.ascii	"\203\330\243<\036x#\270\370\210n\311/\333Z\362\367\246"
 341      1E7823B8 
 341      F8886EC9 
 341      2FDB5AF2 
 341      F7A6
 342 04cb 97FCF3A8 		.ascii	"\227\374\363\250\3126;M\006\231-\250\324\301\275\235"
 342      CA363B4D 
 342      06992DA8 
 342      D4C1BD9D 
 343 04db EA927F01 		.ascii	"\352\222\177\001\205\332Q0T\337\261-\312x]D\201\366"
 343      85DA5130 
 343      54DFB12D 
 343      CA785D44 
 343      81F6
 344 04ed 6699D1C5 		.ascii	"f\231\321\305X\321e\264\"\374$=]$\013r\374\214\372\204"
 344      58D165B4 
 344      22FC243D 
 344      5D240B72 
 344      FC8CFA84 
 345 0501 FC2846FF 		.ascii	"\374(F\377\367v\020\215)}b\301BV\230d[\332\263D\213"
 345      F776108D 
 345      297D62C1 
 345      42569864 
 345      5BDAB344 
 346 0516 A48A91FE 		.ascii	"\244\212\221\376zE\210\361\304\356fm\337:\236\304\322"
 346      7A4588F1 
 346      C4EE666D 
ARM GAS  /var/folders/c6/c789hm653lg9vtl73krp73tm0000gn/T//ccNMqBii.s 			page 27


 346      DF3A9EC4 
 346      D2
 347 0527 935708F7 		.ascii	"\223W\010\367\321\0216\2262\213\370\015\026\361G;\222"
 347      D1113696 
 347      328BF80D 
 347      16F1473B 
 347      92
 348 0538 E89CFF1B 		.ascii	"\350\234\377\033j\356\0278B\347\363,swbf\021O\036\350"
 348      6AEE1738 
 348      42E7F32C 
 348      73776266 
 348      114F1EE8 
 349 054c AA580DA6 		.ascii	"\252X\015\246\3479](\274xeR\202\031>~E1\303@[\244\251"
 349      E7395D28 
 349      BC786552 
 349      82193E7E 
 349      4531C340 
 350 0563 1A5A39ED 		.ascii	"\032Z9\355\3702\355\270\203cvH[\372\223\365\352x!\357"
 350      F832EDB8 
 350      83637648 
 350      5BFA93F5 
 350      EA7821EF 
 351 0577 061EDD7D 		.ascii	"\006\036\335}\364\230G;\270y\303\245\241\252\275N\320"
 351      F498473B 
 351      B879C3A5 
 351      A1AABD4E 
 351      D0
 352 0588 2FCA06F4 		.ascii	"/\312\006\364\252\304I\241\2732\237y\342\003m\236x\215"
 352      AAC449A1 
 352      BB329F79 
 352      E2036D9E 
 352      788D
 353 059a BAE05B2E 		.ascii	"\272\340[.\326Hd\320\027>H\266\261\342\330\335\347\244"
 353      D64864D0 
 353      173E48B6 
 353      B1E2D8DD 
 353      E7A4
 354 05ac 2F2B2768 		.ascii	"/+'h\327;\301n\327\025:\301\376\323fN\240\234\324Y1"
 354      D73BC16E 
 354      D7153AC1 
 354      FED3664E 
 354      A09CD459 
 355 05c1 58AB67D0 		.ascii	"X\253g\320ue\014\022\273\217\346}\254\323{P\263\335"
 355      75650C12 
 355      BB8FE67D 
 355      ACD37B50 
 355      B3DD
 356 05d3 7A6ABB03 		.ascii	"zj\273\003Y\266K\260a\321\316)\307\211B%I_\260\214w"
 356      59B64BB0 
 356      61D1CE29 
 356      C7894225 
 356      495FB08C 
 357 05e8 D9589F7A 		.ascii	"\331X\237z,\275\030\006\3457\352\3348\340Q\2116\331"
 357      2CBD1806 
 357      E537EADC 
 357      38E05189 
 357      36D9
ARM GAS  /var/folders/c6/c789hm653lg9vtl73krp73tm0000gn/T//ccNMqBii.s 			page 28


 358 05fa 7C3E7F12 		.ascii	"|>\177\022\235l6sd\030\235bta\343\304\345\034m\262\215"
 358      9D6C3673 
 358      64189D62 
 358      7461E3C4 
 358      E51C6DB2 
 359 060f 1DCF8B1A 		.ascii	"\035\317\213\032\317k'.\333l\214\347x\342\350<\375\351"
 359      CF6B272E 
 359      DB6C8CE7 
 359      78E2E83C 
 359      FDE9
 360 0621 21B4C29C 		.ascii	"!\264\302\234\212[\250>\015&\314\020\344\361v\216lE"
 360      8A5BA83E 
 360      0D26CC10 
 360      E4F1768E 
 360      6C45
 361 0633 767023F4 		.ascii	"vp#\364\272\237]\234\257\356=z\335'\276=\332\212\025"
 361      BA9F5D9C 
 361      AFEE3D7A 
 361      DD27BE3D 
 361      DA8A15
 362 0646 FECA8CF4 		.ascii	"\376\312\214\364\034\213g6#\335bi\313D\3231\272\277"
 362      1C8B6736 
 362      23DD6269 
 362      CB44D331 
 362      BABF
 363 0658 5342DC72 		.ascii	"SB\334r;\344*\255\300\342\211V\005Lq\370\266\274\301"
 363      3BE42AAD 
 363      C0E28956 
 363      054C71F8 
 363      B6BCC1
 364 066b 3C06B0ED 		.ascii	"<\006\260\355-\232\245\326\322\010\265\306\016\3368"
 364      2D9AA5D6 
 364      D208B5C6 
 364      0EDE38
 365 067a 6B72478F 		.ascii	"krG\217\265\252x\3129\353[y\343\031\371\235m1\304\363"
 365      B5AA78CA 
 365      39EB5B79 
 365      E319F99D 
 365      6D31C4F3 
 366 068e 5D76E026 		.ascii	"]v\340&\330v\244\31499\217\267\320=\355V<\002\362\267"
 366      D876A4CC 
 366      39398FB7 
 366      D03DED56 
 366      3C02F2B7 
 367 06a2 69BE83E6 		.ascii	"i\276\203\346\373h~\232\346\377\244\371\277i\336O\363"
 367      FB687E9A 
 367      E6FFA4F9 
 367      BF69DE4F 
 367      F3
 368 06b3 4B348F73 		.ascii	"K4\217s$\3773\3157\321|\027\315\0234\337C\363\2754\357"
 368      24FF33CD 
 368      37D17C17 
 368      CD1334DF 
 368      43F3BD34 
 369 06c8 A279B7DE 		.ascii	"\242y\267\336]\255\346Vf%\240\215\242\265\005\237\301"
 369      5DADE656 
 369      6625A08D 
ARM GAS  /var/folders/c6/c789hm653lg9vtl73krp73tm0000gn/T//ccNMqBii.s 			page 29


 369      A2B5059F 
 369      C1
 370 06d9 F7BF9F3E 		.ascii	"\367\277\237>e\200q\2237\230'\227&\327\3524\271\216"
 370      65807193 
 370      37982797 
 370      26D7EA34 
 370      B98E
 371 06eb 6A723DD5 		.ascii	"jr=\325\314~\343\300\354*\326\276\010\025\022\332\343"
 371      CC7EE3C0 
 371      EC2AD6BE 
 371      081512DA 
 371      E3
 372 06fc C9391FEB 		.ascii	"\3119\037\353\016JzY0\273\201U\325\307\367\002YwvP\254"
 372      0E4A7A59 
 372      30BB8155 
 372      D5C7F702 
 372      59777650 
 373 0711 637963E5 		.ascii	"cyc\345T\307\253:u\254\246\352XC\325\321C\315\337k\307"
 373      54C7AB3A 
 373      75ACA6EA 
 373      5843D5D1 
 373      43CDDF6B 
 374 0726 FC1D9995 		.ascii	"\374\035\231\225\241\375\200\370\335\345\344o\327\311"
 374      A1FD80F8 
 374      DDE5E46F 
 374      D7C9
 375 0734 F2601E1F 		.ascii	"\362`\036\037\242\323\303\326\0226\036:\231p\3504\206"
 375      A2D3C3D6 
 375      12361E3A 
 375      9970E834 
 375      86
 376 0745 43A73B53 		.ascii	"C\247;SP\303\241\351\232\260\341\263\3149\215\234>7"
 376      50C3A1E9 
 376      9AB0E1B3 
 376      CC398D9C 
 376      3E37
 377 0757 F76498A4 		.ascii	"\367d\230\244^\376d\237\032\232?\240\341(\311P\031\030"
 377      5EFE649F 
 377      1A9A3FA0 
 377      E128C950 
 377      1918
 378 0769 89435FD2 		.ascii	"\211C_\3226\307\231x\224\330]_N\276S\036\267\025\213"
 378      36C79978 
 378      94D85D5F 
 378      4EBE531E 
 378      B7158B
 379 077c 0E77B566 		.ascii	"\016w\265f\237\276_\207\226\252\313C\031Ktn\2612\303"
 379      9FBE5F87 
 379      96AACB43 
 379      194B746E 
 379      B132C3
 380 078f 479CF2ED 		.ascii	"G\234\362\355\323A?\373\"E\261<~\330\221\323\200ZD~"
 380      D3413FFB 
 380      2245B13C 
 380      7ED891D3 
 380      805A447E 
 381 07a3 ED6C8BBA 		.ascii	"\355l\213\272\020\356\243\323k\233\333\250\004f\251"
ARM GAS  /var/folders/c6/c789hm653lg9vtl73krp73tm0000gn/T//ccNMqBii.s 			page 30


 381      10EEA3D3 
 381      6B9BDBA8 
 381      0466A9
 382 07b2 453AB322 		.ascii	"E:\263\"\222\344\312,d\315z\007Kh\267\246\270B\246\012"
 382      92E4CA2C 
 382      64CD7A07 
 382      4B68B7A6 
 382      B842A60A 
 383 07c6 19AC77F8 		.ascii	"\031\254w\370\206m\033e\271s"
 383      866D1B65 
 383      B973
 384 07d0 AABAB54F 		.ascii	"\252\272\265O\270\364v2\214Z\330Y\323\336>c\367\367"
 384      B8F47632 
 384      8C5AD859 
 384      D3DE3E63 
 384      F7F7
 385 07e2 8BBBC8A7 		.ascii	"\213\273\310\247\314\317l\354\357\343\211\245\365\013"
 385      CCCF6CEC 
 385      EFE389A5 
 385      F50B
 386 07f0 6F90DBE7 		.ascii	"o\220\333\347\017U]=Q/7\340\272\316a\346=\246?\221|"
 386      0F555D3D 
 386      512F37E0 
 386      BACE61E6 
 386      3DA63F91 
 387 0805 D9A16AF7 		.ascii	"\331\241j\3674\365\366=\214v\363\001K-<\250}\326\373"
 387      34F5F63D 
 387      8C76F301 
 387      4B2D3CA8 
 387      7DD6FB
 388 0818 97B2942C 		.ascii	"\227\262\224,\034\254\275\357\030\375\220~\206\002\035"
 388      1CACBDEF 
 388      18FD907E 
 388      86021D
 389 0827 73B363D0 		.ascii	"s\263c\320\315\214A\267q\014\272\335\231BJ\273\330\363"
 389      CD8C41B7 
 389      710CBADD 
 389      99424ABB 
 389      D8F3
 390 0839 B61FB10D 		.ascii	"\266\037\261\015\207>I\033\264\240\035\030\270\317_"
 390      873E491B 
 390      B4A01D18 
 390      B8CF5F
 391 0848 AE870196 		.ascii	"\256\207\001\226Y\272Z~t'\264\372\331\361\275\254\213"
 391      59BA5A7E 
 391      7427B4FA 
 391      D9F1BDAC 
 391      8B
 392 0859 1C0CF5DB 		.ascii	"\034\014\365\333\332:\256\354z\037\303\336\321\326\011"
 392      DA3AAEEC 
 392      7A1FC3DE 
 392      D1D609
 393 0868 D405D643 		.ascii	"\324\005\326CWtq\036\345\361\300\036\372B\275\311W}"
 393      5774711E 
 393      E5F1C01E 
 393      FA42BDC9 
 393      577D
ARM GAS  /var/folders/c6/c789hm653lg9vtl73krp73tm0000gn/T//ccNMqBii.s 			page 31


 394 087a 8392B2FA 		.ascii	"\203\222\262\372\273\250\337\035\235\246:\275P\360\356"
 394      BBA8DF1D 
 394      9DA63ABD 
 394      50F0EE
 395 0889 A8B58B86 		.ascii	"\250\265\213\206\276\243t\036\371\242P\260\364\305\241"
 395      BEA3741E 
 395      F9A250B0 
 395      F4C5A1
 396 0898 B314A3BF 		.ascii	"\263\024\243\277\3009\"\236\350\354\322\226zJ\2549\227"
 396      C039229E 
 396      E8ECD296 
 396      7A4AAC39 
 396      97
 397 08a9 379E278B 		.ascii	"7\236'\213\323\305B\035O\207\361_v\3563\303\260\376"
 397      D3C5421D 
 397      4F87F15F 
 397      76EE33C3 
 397      B0FE
 398 08bb 449DF8F0 		.ascii	"D\235\370\360^\242g\345\237`\352J\031,\343\177\270\350"
 398      5EA267E5 
 398      9F60EA4A 
 398      192CE37F 
 398      B8E8
 399 08cd 8AF6169C 		.ascii	"\212\366\026\234\307u;\227\023t\347\3627\272\"\370\224"
 399      C7753B97 
 399      1374E7F2 
 399      37BA22F8 
 399      94
 400 08de E6750E1B 		.ascii	"\346u\016\033\353\202\243\031\247b\\\221\230\301\252"
 400      EB82A319 
 400      A7625C91 
 400      98C1AA
 401 08ed D56C47BA 		.ascii	"\325lG\272\325p\324&\267'\223+7\234\370Y\013l/\345\377"
 401      D570D426 
 401      B727932B 
 401      379CF859 
 401      0B6C2FE5 
 402 0902 9028CF04 		.ascii	"\220(\317\004D\213o\323\004i\256\343:\265\244\305@\016"
 402      448B6FD3 
 402      0469AEE3 
 402      3AB5A4C5 
 402      400E
 403 0914 BD528A99 		.ascii	"\275R\212\231\361\363K\264\212\340\311\253e\007E#\365"
 403      F1F34BB4 
 403      8AE0C9AB 
 403      65074523 
 403      F5
 404 0925 E738861B 		.ascii	"\3478\206\033\265Q\357\340\364\017\010\261$\011\232"
 404      B551EFE0 
 404      F40F08B1 
 404      24099A
 405 0934 8787ADD8 		.ascii	"\207\207\255\330 \317yV\276\234z\006+A\221C\353\262"
 405      20CF7956 
 405      BE9C7A06 
 405      2B419143 
 405      EBB2
 406 0946 BA50309E 		.ascii	"\272P0\236\315\306\240\302\035\376y!\302\315s0\321\236"
ARM GAS  /var/folders/c6/c789hm653lg9vtl73krp73tm0000gn/T//ccNMqBii.s 			page 32


 406      CDC6A0C2 
 406      1DFE7921 
 406      C2CD7330 
 406      D19E
 407 0958 683BFD43 		.ascii	"h;\375C\371\340nX\011\030\024Au\261\235!z\023zY\226"
 407      F9E06E58 
 407      09181441 
 407      75B19D21 
 407      7A137A59 
 408 096d 9BE51785 		.ascii	"\233\345\027\205I\332\340\355\2415\032A\033f4T\013\253"
 408      49DAE0ED 
 408      A1351A41 
 408      1B663454 
 408      0BAB
 409 097f CD8E9366 		.ascii	"\315\216\223ft\353sd\200V\3433\215R\244\221\262N\271"
 409      74EB7364 
 409      8056E333 
 409      8D52A491 
 409      B24EB9
 410 0992 CC71395B 		.ascii	"\314q9[\2512\250\346zN\236;\030\247\355\325\310\332"
 410      A932A8E6 
 410      7A4E9E3B 
 410      18A7EDD5 
 410      C8DA
 411 09a4 6BA199AE 		.ascii	"k\241\231\256\023\307\367\223\031X\376>\225r\260\232"
 411      13C7F793 
 411      1958FE3E 
 411      9572B09A 
 412 09b4 CEB1AE5A 		.ascii	"\316\261\256Z\226S\323\346\252=f\256\332\245\232jy\274"
 412      9653D3E6 
 412      AA3D66AE 
 412      DAA59A6A 
 412      79BC
 413 09c6 C841C46D 		.ascii	"\310A\304m\261\245\332\303\254\226\254\233\351\265\024"
 413      B1A5DAC3 
 413      AC96AC9B 
 413      E9B514
 414 09d5 97D7D5CF 		.ascii	"\227\327\325\317\035\\\244z\203u+U\316\347Mu\326\267"
 414      1D5CA47A 
 414      83752B55 
 414      CEE74D75 
 414      D6B7
 415 09e7 C0526739 		.ascii	"\300Rg9\274s%\2533\372\037\037\006\025}j\256\242\217"
 415      BC7325AB 
 415      33FA1F1F 
 415      06157D6A 
 415      AEA28F
 416 09fa AB34373A 		.ascii	"\25347:C+\264\345t#\013\177hc\375\241\303T\266-\315"
 416      432BB4E5 
 416      74230B7F 
 416      6863FDA1 
 416      C354B62D 
 417 0a0f F3212EC4 		.ascii	"\363!.\304\023\251\324xV\266\\3\324\2539\035B\235\277"
 417      13A9D478 
 417      56B65C33 
 417      D4AB391D 
 417      429DBF
ARM GAS  /var/folders/c6/c789hm653lg9vtl73krp73tm0000gn/T//ccNMqBii.s 			page 33


 418 0a22 1869BF32 		.ascii	"\030i\2772\227v\005\353\020\253\354\2175\322\021\207"
 418      977605EB 
 418      10ABEC8F 
 418      35D21187 
 419 0a32 BE57802D 		.ascii	"\276W\200-\233\251tT\207\350<5y\222\346$\326\255T9\327"
 419      9BA97454 
 419      87E83C35 
 419      7992E624 
 419      D6AD5439 
 420 0a47 984E7AA7 		.ascii	"\230Nz\247\316u\343\206\274\035b\035\253\263\016\234"
 420      CE75E386 
 420      BC1D621D 
 420      ABB30E9C 
 421 0a57 E511F132 		.ascii	"\345\021\3612\363\211\263\323\214Gb\353\276\3712n\252"
 421      F389B3D3 
 421      8C4762EB 
 421      BEF9326E 
 421      AA
 422 0a68 4BA652C3 		.ascii	"K\246R\303\025x\0165[\000\274e\012\260>\033\240\315"
 422      15780E35 
 422      5B00BC65 
 422      0AB03E1B 
 422      A0CD
 423 0a7a 02609311 		.ascii	"\002`\223\021\340F\324!'\016\301\324\375\311\365o\302"
 423      E046D421 
 423      270EC1D4 
 423      FDC9F56F 
 423      C2
 424 0a8b 42BC1354 		.ascii	"B\274\023T\220\302\251\361\332\376qu\032\305t\263H\000"
 424      90C2A9F1 
 424      DAFE7175 
 424      1AC574B3 
 424      4800
 425 0a9d B7640099 		.ascii	"\267d\000\231\320H\210X)qk&4\022\012\207\016%\372\366"
 425      D0488858 
 425      29716B26 
 425      34120A87 
 425      0E25FAF6 
 426 0ab1 3D2B63B9 		.ascii	"=+c\271^\256#\321\343\032\324D\367\251\313\001\346\014"
 426      5EAE23D1 
 426      E31AD444 
 426      F7A9CB01 
 426      E60C
 427 0ac3 4EFB6F43 		.ascii	"N\373oCz!p\015m\252\257\366\225u5\036ow(%\303\027\012"
 427      7A21700D 
 427      6DAAAFF6 
 427      9575351E 
 427      6F772825 
 428 0ada 5AC38AE0 		.ascii	"Z\303\212\340\016G\346\237%\312\335\210Yv \246\026\250"
 428      0E47E69F 
 428      25CADD88 
 428      597620A6 
 428      16A8
 429 0aec 6A531913 		.ascii	"jS\031\023*X\026\034\332U\206\325v\340\351\232\334\375"
 429      2A58161C 
 429      DA5586D5 
 429      76E0E99A 
ARM GAS  /var/folders/c6/c789hm653lg9vtl73krp73tm0000gn/T//ccNMqBii.s 			page 34


 429      DCFD
 430 0afe BD72C97A 		.ascii	"\275r\311z\271AN\245\236\261\220\372\021\015\247,\227"
 430      B9414EA5 
 430      9EB190FA 
 430      110DA72C 
 430      97
 431 0b0f D04C2D1E 		.ascii	"\320L-\036\277\223\267\314{,d.5\310\254\325\202\342"
 431      BF93B7CC 
 431      7B2C642E 
 431      35C8ACD5 
 431      82E2
 432 0b21 4E3AD075 		.ascii	"N:\320u\363\032C\002\302\256Ad4|\324\250\012\345/\022"
 432      F31A4302 
 432      C2AE4164 
 432      347CD4A8 
 432      0AE52F12 
 433 0b35 AB10A58A 		.ascii	"\253\020\245\212@\330\027\254\251\022*|\376\220T;\312"
 433      40D817AC 
 433      A9122A7C 
 433      FE90543B 
 433      CA
 434 0b46 8F8A4335 		.ascii	"\217\212C5\222P\353\225\\\367\375\376a\317DT\342\363"
 434      9250EB95 
 434      5CF7FDFE 
 434      61CF4454 
 434      E2F3
 435 0b58 7BE9939B 		.ascii	"{\351\223\233,\333\305f\305\244YQ!\006\215\007I~Q\340"
 435      2CDBC566 
 435      C5A45951 
 435      21068D07 
 435      497E51E0 
 436 0b6c AB62DE27 		.ascii	"\253b\336'k\204\032\301+\015\206\326\206G\036k\024\237"
 436      6B841AC1 
 436      2B0D86D6 
 436      86471E6B 
 436      149F
 437 0b7e BF0A104A 		.ascii	"\277\012\020J\224\352^\311\235n\352\212z\303B\255\004"
 437      94EA5EC9 
 437      9D6EEA8A 
 437      7AC342AD 
 437      04
 438 0b8f B7A828CC 		.ascii	"\267\250(\314\030\303 D#\242\024\253\270\347\217\017"
 438      18C32044 
 438      23A214AB 
 438      B8E78F0F 
 439 0b9f 4E7CB0B6 		.ascii	"N|\260\266\302\027\011E\003AA\214U\3347q\"\200j\274"
 439      C2170945 
 439      0341418C 
 439      55DC3771 
 439      22806ABC 
 440 0bb3 8AA5A818 		.ascii	"\212\245\250\030\210x\245\007*jbbE0\342\343\203\025"
 440      8878A507 
 440      2A6A6262 
 440      4530E2E3 
 440      8315
 441 0bc5 13856090 		.ascii	"\023\205`\220\027+\252}\276\221\274\030\032\031\216"
 441      172BAA7D 
ARM GAS  /var/folders/c6/c789hm653lg9vtl73krp73tm0000gn/T//ccNMqBii.s 			page 35


 441      BE91BC18 
 441      1A198E
 442 0bd4 84859102 		.ascii	"\204\205\221\002?-Pq[\345\3501\225\343*\357\2500>\326"
 442      3F2D5071 
 442      5BE5E831 
 442      95E32AEF 
 442      A8303ED6 
 443 0be8 A8C6A4AA 		.ascii	"\250\306\244\252@X\"Tk\340~\373m^\351\261\037\0005\304"
 443      40582254 
 443      6BE07EFB 
 443      6D5EE9B1 
 443      1F0035C4 
 444 0bfc FBFC81B0 		.ascii	"\373\374\201\260P\341\255\022\246\3635A\311\253Q/\365"
 444      50E1AD12 
 444      A6F33541 
 444      C9AB512F 
 444      F5
 445 0c0d 7AB57EA8 		.ascii	"z\265~\250\006\002\221b_$\014\006\221n\316\251\011\277"
 445      06029162 
 445      5F240C06 
 445      916ECEA9 
 445      09BF
 446 0c1f 2F220AD0 		.ascii	"/\"\012\320\276\214<\366\002\202O\252\375\325\300-\274"
 446      BE8C3CF6 
 446      02824FAA 
 446      FDD5C02D 
 446      BC
 447 0c30 33EE0C11 		.ascii	"3\356\014\021\331D\241\032\210z%N\034\303\211wp\342"
 447      D944A11A 
 447      887A254E 
 447      1CC38977 
 447      70E2
 448 0c42 584EBC93 		.ascii	"XN\274\223\023\307q\342]\016qt%\244\321\\P\204\333\355"
 448      13C771E2 
 448      5D0E7174 
 448      25A4D15C 
 448      5084DBED 
 449 0c56 CEA81790 		.ascii	"\316\250\027\220\213\211\215f\012\"\334#\301*A,\362"
 449      8B898D66 
 449      0A22DC23 
 449      C12A412C 
 449      F2
 450 0c67 F9799118 		.ascii	"\371y\221\030\216\017\011%RL\342%\360\206b\"\31080\255"
 450      8E0F0925 
 450      524CE225 
 450      F0866222 
 450      C83830AD 
 451 0c7b 221294A0 		.ascii	"\"\022\224\240:}W,\205\"U\002\375==\310W\307\212%Q\230"
 451      3A7D572C 
 451      85225502 
 451      FD3D3DC8 
 451      57C78A25 
 452 0c91 1EA31293 		.ascii	"\036\243\022\223\2023\024\253\206\227\252\032\240\271"
 452      823314AB 
 452      8697AA1A 
 452      A0B9
 453 0c9f A610B16A 		.ascii	"\246\020\261j\026\274*\021j\003\222\017\000\\3\245\310"
ARM GAS  /var/folders/c6/c789hm653lg9vtl73krp73tm0000gn/T//ccNMqBii.s 			page 36


 453      16BC2A11 
 453      6A03920F 
 453      005C33A5 
 453      C8
 454 0cb0 B4C7A343 		.ascii	"\264\307\243CT\037\202\246\202(\204}\000\354\234)Ib"
 454      541F82A6 
 454      8228847D 
 454      00EC9C29 
 454      4962
 455 0cc2 B41C7C2A 		.ascii	"\264\034|*&\204\370\250\037$\265\036\010P\205\370\214"
 455      2684F8A8 
 455      1F24B51E 
 455      085085F8 
 455      8C
 456 0cd3 EAB24E5F 		.ascii	"\352\262N_\030\254\341\214y\341\016\035\300\313(\334"
 456      18ACE18C 
 456      79E10E1D 
 456      C0CB28DC 
 457 0ce3 60B044CB 		.ascii	"`\260D\313\204\031BX\012\361\261'\200\2120\223\024\034"
 457      84194258 
 457      0AF1B127 
 457      808A3093 
 457      141C
 458 0cf5 516FCDD5 		.ascii	"Qo\315\325\232\307\007\0031h9H7\006\310\023w\324;\223"
 458      9AC70703 
 458      31683948 
 458      3706C813 
 458      77D43B93 
 459 0d09 0F488170 		.ascii	"\017H\201pui\324\013\354\225Nh\021\036\010Q!\014\376"
 459      7569D40B 
 459      EC954E68 
 459      111E0851 
 459      210CFE
 460 0d1c 550DB5A0 		.ascii	"U\015\265\240\013R\277\224\350\200\017R\313\303\303"
 460      0B52BF94 
 460      E8800F52 
 460      CBC3C3
 461 0d2b 6824122C 		.ascii	"h$\022,\016)\324\340\036\231\031\026DW\210\216\220G"
 461      0E29D4E0 
 461      1E991916 
 461      4457888E 
 461      9047
 462 0d3d F3F2C360 		.ascii	"\363\362\303``\032y\315\370\343\230Q\343F\215\321\373"
 462      601A79CD 
 462      F8E39851 
 462      E3468DD1 
 462      FB
 463 0d4e 3AF82328 		.ascii	":\370#(\303\025\013<\005j\264\036\276~\201\217B\275"
 463      C3150B3C 
 463      056AB41E 
 463      BE7E818F 
 463      42BD
 464 0d60 AB424228 		.ascii	"\253BB(\"\316\362\222\237^\251L\367\353\027\326\363"
 464      22CEF292 
 464      9F5EA94C 
 464      F7EB17D6 
 464      F3
ARM GAS  /var/folders/c6/c789hm653lg9vtl73krp73tm0000gn/T//ccNMqBii.s 			page 37


 465 0d71 8E10527D 		.ascii	"\216\020R}\265\034\212\325\2024\275&\354\363J\245~\360"
 465      B51C8AD5 
 465      8234BD26 
 465      ECF34AA5 
 465      7EF0
 466 0d83 F6C88C00 		.ascii	"\366\310\214\000xS\031\205\203\014\312\2451\351\011"
 466      78531985 
 466      830CCAA5 
 466      31E909
 467 0d92 3E18A80E 		.ascii	">\030\250\016{%:\000\307\216\201\252\212C\221\242\223"
 467      7B253A00 
 467      C78E81AA 
 467      8A4391A2 
 467      93
 468 0da3 BE2B22EA 		.ascii	"\276+\"\352(\"\255pM\021\241\216\375.\277w\272(\010"
 468      2822AD70 
 468      4D11A18E 
 468      FD2EBF77 
 468      BA2808
 469 0db6 4E3FD1EB 		.ascii	"N?\321\3530\206LL\364i2\370`\304\321\356\002\341\200"
 469      30864C4C 
 469      F46932F8 
 469      60C4D1EE 
 469      02E180
 470 0dc9 54E6F34F 		.ascii	"T\346\363O\004j\367\004A\2510\227M\202\347\177\230\366"
 470      046AF704 
 470      41A93097 
 470      4D82E77F 
 470      98F6
 471 0ddb B8E093EE 		.ascii	"\270\340\223\356\207\227NR-\352\230V3\275LyE\253\225"
 471      87974E52 
 471      2DEA9856 
 471      33BD4C79 
 471      45AB95
 472 0dee 2AE57BA1 		.ascii	"*\345{\241/L\034\216\374\230\002>^\023s\022\"Qp\207"
 472      2F4C1C8E 
 472      FC98023E 
 472      5E137312 
 472      22517087 
 473 0e02 07A5DA0C 		.ascii	"\007\245\332\014J\031\375\375p\030\232>\341\246\345"
 473      4A19FDFD 
 473      70189A3E 
 473      E1A6E5
 474 0e11 07A054AE 		.ascii	"\007\240T\256M\003\244\217\022\257\227\252\304{\225"
 474      4D03A48F 
 474      12AF97AA 
 474      C47B95
 475 0e20 56183576 		.ascii	"V\0305v\314]cu\277\356\030}\373\377\000z\375\220\215"
 475      CC5D6375 
 475      BFEE187D 
 475      FBFF007A 
 475      FD908D
 476              		.text
 477              		.section	.gnu.lto_.symtab.89a075f76daf8efe,"",%progbits
 478 0000 5F686561 		.ascii	"_heap_init\000\000\000\000\000\000\000\000\000\000\000"
 478      705F696E 
 478      69740000 
ARM GAS  /var/folders/c6/c789hm653lg9vtl73krp73tm0000gn/T//ccNMqBii.s 			page 38


 478      00000000 
 478      00000000 
 479 0015 00840100 		.ascii	"\000\204\001\000\000chHeapObjectInit\000\000\000\000"
 479      00636848 
 479      6561704F 
 479      626A6563 
 479      74496E69 
 480 002e 00000000 		.ascii	"\000\000\000\000\000\000\000\000\212\001\000\000chH"
 480      00000000 
 480      8A010000 
 480      636848
 481 003d 65617041 		.ascii	"eapAlloc\000\000\000\000\000\000\000\000\000\000\000"
 481      6C6C6F63 
 481      00000000 
 481      00000000 
 481      000000
 482 0050 00960100 		.ascii	"\000\226\001\000\000chHeapFree\000\000\000\000\000\000"
 482      00636848 
 482      65617046 
 482      72656500 
 482      00000000 
 483 0065 00000000 		.ascii	"\000\000\000\000\000\000\236\001\000\000chHeapStatu"
 483      00009E01 
 483      00006368 
 483      48656170 
 483      53746174 
 484 007a 73000000 		.ascii	"s\000\000\000\000\000\000\000\000\000\000\000\000\245"
 484      00000000 
 484      00000000 
 484      00A5
 485 0088 01000063 		.ascii	"\001\000\000chCoreAlloc\000\000\002\000\000\000\000"
 485      68436F72 
 485      65416C6C 
 485      6F630000 
 485      02000000 
 486 009d 00000000 		.ascii	"\000\000\000\000\000\210\001\000\000chMtxObjectInit"
 486      00880100 
 486      0063684D 
 486      74784F62 
 486      6A656374 
 487 00b5 00000200 		.ascii	"\000\000\002\000\000\000\000\000\000\000\000\000\256"
 487      00000000 
 487      00000000 
 487      AE
 488 00c2 01000063 		.ascii	"\001\000\000chMtxUnlock\000\000\002\000\000\000\000"
 488      684D7478 
 488      556E6C6F 
 488      636B0000 
 488      02000000 
 489 00d7 00000000 		.ascii	"\000\000\000\000\000\262\001\000\000chMtxLock\000\000"
 489      00B20100 
 489      0063684D 
 489      74784C6F 
 489      636B0000 
 490 00eb 02000000 		.ascii	"\002\000\000\000\000\000\000\000\000\000\264\001\000"
 490      00000000 
 490      0000B401 
ARM GAS  /var/folders/c6/c789hm653lg9vtl73krp73tm0000gn/T//ccNMqBii.s 			page 39


 490      00
 491 00f8 00       		.ascii	"\000"
 492              		.text
 493              		.section	.gnu.lto_.opts,"",%progbits
 494 0000 272D6D63 		.ascii	"'-mcpu=cortex-m4' '-mno-thumb-interwork' '-mthumb' "
 494      70753D63 
 494      6F727465 
 494      782D6D34 
 494      2720272D 
 495 0033 272D6767 		.ascii	"'-ggdb' '-O2' '-fomit-frame-pointer' '-falign-funct"
 495      64622720 
 495      272D4F32 
 495      2720272D 
 495      666F6D69 
 496 0066 696F6E73 		.ascii	"ions=16' '-ffunction-sections' '-fdata-sections' '-"
 496      3D313627 
 496      20272D66 
 496      66756E63 
 496      74696F6E 
 497 0099 666E6F2D 		.ascii	"fno-common' '-flto'\000"
 497      636F6D6D 
 497      6F6E2720 
 497      272D666C 
 497      746F2700 
 498              		.text
 499              		.cfi_sections	.debug_frame
 500              		.section	.text._heap_init,"ax",%progbits
 501              		.align	2
 502              		.p2align 4,,15
 503              		.global	_heap_init
 504              		.thumb
 505              		.thumb_func
 506              		.type	_heap_init, %function
 507              	_heap_init:
 508              	.LFB229:
 509              		.file 1 "../../../os/rt/src/chheap.c"
 510              		.loc 1 91 0
 511              		.cfi_startproc
 512              		@ args = 0, pretend = 0, frame = 0
 513              		@ frame_needed = 0, uses_anonymous_args = 0
 514              		@ link register save eliminated.
 515              		.loc 1 93 0
 516 0000 044B     		ldr	r3, .L2
 517 0002 054A     		ldr	r2, .L2+4
 518 0004 1A60     		str	r2, [r3]
 519              		.loc 1 97 0
 520 0006 03F11000 		add	r0, r3, #16
 521              		.loc 1 94 0
 522 000a 0022     		movs	r2, #0
 523 000c 9A60     		str	r2, [r3, #8]
 524              		.loc 1 95 0
 525 000e DA60     		str	r2, [r3, #12]
 526              		.loc 1 97 0
 527 0010 FFF7FEBF 		b	chMtxObjectInit
 528              	.LVL0:
 529              	.L3:
 530              		.align	2
ARM GAS  /var/folders/c6/c789hm653lg9vtl73krp73tm0000gn/T//ccNMqBii.s 			page 40


 531              	.L2:
 532 0014 00000000 		.word	.LANCHOR0
 533 0018 00000000 		.word	chCoreAlloc
 534              		.cfi_endproc
 535              	.LFE229:
 536              		.size	_heap_init, .-_heap_init
 537 001c AFF30080 		.section	.text.chHeapObjectInit,"ax",%progbits
 538              		.align	2
 539              		.p2align 4,,15
 540              		.global	chHeapObjectInit
 541              		.thumb
 542              		.thumb_func
 543              		.type	chHeapObjectInit, %function
 544              	chHeapObjectInit:
 545              	.LFB230:
 546              		.loc 1 114 0
 547              		.cfi_startproc
 548              		@ args = 0, pretend = 0, frame = 0
 549              		@ frame_needed = 0, uses_anonymous_args = 0
 550              		@ link register save eliminated.
 551              	.LVL1:
 552              		.loc 1 119 0
 553 0000 0023     		movs	r3, #0
 554              		.loc 1 123 0
 555 0002 083A     		subs	r2, r2, #8
 556              	.LVL2:
 557              		.loc 1 120 0
 558 0004 8160     		str	r1, [r0, #8]
 559              		.loc 1 119 0
 560 0006 0360     		str	r3, [r0]
 561              		.loc 1 121 0
 562 0008 C360     		str	r3, [r0, #12]
 563              		.loc 1 125 0
 564 000a 1030     		adds	r0, r0, #16
 565              	.LVL3:
 566              		.loc 1 123 0
 567 000c 4A60     		str	r2, [r1, #4]
 568              		.loc 1 122 0
 569 000e 0B60     		str	r3, [r1]
 570              		.loc 1 125 0
 571 0010 FFF7FEBF 		b	chMtxObjectInit
 572              	.LVL4:
 573              		.cfi_endproc
 574              	.LFE230:
 575              		.size	chHeapObjectInit, .-chHeapObjectInit
 576 0014 AFF30080 		.section	.text.chHeapAlloc,"ax",%progbits
 576      AFF30080 
 576      AFF30080 
 577              		.align	2
 578              		.p2align 4,,15
 579              		.global	chHeapAlloc
 580              		.thumb
 581              		.thumb_func
 582              		.type	chHeapAlloc, %function
 583              	chHeapAlloc:
 584              	.LFB231:
 585              		.loc 1 147 0
ARM GAS  /var/folders/c6/c789hm653lg9vtl73krp73tm0000gn/T//ccNMqBii.s 			page 41


 586              		.cfi_startproc
 587              		@ args = 0, pretend = 0, frame = 0
 588              		@ frame_needed = 0, uses_anonymous_args = 0
 589              	.LVL5:
 590 0000 F8B5     		push	{r3, r4, r5, r6, r7, lr}
 591              		.cfi_def_cfa_offset 24
 592              		.cfi_offset 3, -24
 593              		.cfi_offset 4, -20
 594              		.cfi_offset 5, -16
 595              		.cfi_offset 6, -12
 596              		.cfi_offset 7, -8
 597              		.cfi_offset 14, -4
 598              		.loc 1 151 0
 599 0002 214E     		ldr	r6, .L21
 600 0004 0028     		cmp	r0, #0
 601 0006 18BF     		it	ne
 602 0008 0646     		movne	r6, r0
 603              	.LVL6:
 604              		.loc 1 157 0
 605 000a 06F11007 		add	r7, r6, #16
 606              		.loc 1 154 0
 607 000e 0731     		adds	r1, r1, #7
 608              	.LVL7:
 609              		.loc 1 157 0
 610 0010 3846     		mov	r0, r7
 611              		.loc 1 154 0
 612 0012 21F00705 		bic	r5, r1, #7
 613              	.LVL8:
 614              		.loc 1 155 0
 615 0016 06F10804 		add	r4, r6, #8
 616              	.LVL9:
 617              		.loc 1 157 0
 618 001a FFF7FEFF 		bl	chMtxLock
 619              	.LVL10:
 620              		.loc 1 158 0
 621 001e 03E0     		b	.L7
 622              	.LVL11:
 623              	.L12:
 624              		.loc 1 160 0
 625 0020 5A68     		ldr	r2, [r3, #4]
 626 0022 9542     		cmp	r5, r2
 627 0024 12D9     		bls	.L20
 628 0026 1C46     		mov	r4, r3
 629              	.LVL12:
 630              	.L7:
 631              		.loc 1 158 0 discriminator 1
 632 0028 2368     		ldr	r3, [r4]
 633              	.LVL13:
 634 002a 002B     		cmp	r3, #0
 635 002c F8D1     		bne	.L12
 636              		.loc 1 186 0
 637 002e 3846     		mov	r0, r7
 638 0030 FFF7FEFF 		bl	chMtxUnlock
 639              	.LVL14:
 640              		.loc 1 190 0
 641 0034 3368     		ldr	r3, [r6]
 642 0036 2BB3     		cbz	r3, .L14
ARM GAS  /var/folders/c6/c789hm653lg9vtl73krp73tm0000gn/T//ccNMqBii.s 			page 42


 643              		.loc 1 191 0
 644 0038 05F10800 		add	r0, r5, #8
 645 003c 9847     		blx	r3
 646              	.LVL15:
 647              		.loc 1 192 0
 648 003e 08B3     		cbz	r0, .L14
 649              		.loc 1 193 0
 650 0040 0660     		str	r6, [r0]
 651              		.loc 1 194 0
 652 0042 4560     		str	r5, [r0, #4]
 653              	.LVL16:
 654              		.loc 1 198 0
 655 0044 00F10804 		add	r4, r0, #8
 656              	.LVL17:
 657              	.L11:
 658              		.loc 1 204 0
 659 0048 2046     		mov	r0, r4
 660 004a F8BD     		pop	{r3, r4, r5, r6, r7, pc}
 661              	.LVL18:
 662              	.L20:
 663              		.loc 1 161 0
 664 004c 05F10801 		add	r1, r5, #8
 665 0050 9142     		cmp	r1, r2
 666 0052 09D9     		bls	.L9
 667              		.loc 1 165 0
 668 0054 1A68     		ldr	r2, [r3]
 669 0056 2260     		str	r2, [r4]
 670              	.L10:
 671              		.loc 1 177 0
 672 0058 1C46     		mov	r4, r3
 673              	.LVL19:
 674              		.loc 1 178 0
 675 005a 3846     		mov	r0, r7
 676              		.loc 1 177 0
 677 005c 44F8086B 		str	r6, [r4], #8
 678              		.loc 1 178 0
 679 0060 FFF7FEFF 		bl	chMtxUnlock
 680              	.LVL20:
 681              		.loc 1 204 0
 682 0064 2046     		mov	r0, r4
 683 0066 F8BD     		pop	{r3, r4, r5, r6, r7, pc}
 684              	.LVL21:
 685              	.L9:
 686              		.loc 1 173 0
 687 0068 6FF00700 		mvn	r0, #7
 688 006c 401B     		subs	r0, r0, r5
 689              		.loc 1 170 0
 690 006e 03EB010E 		add	lr, r3, r1
 691              	.LVL22:
 692              		.loc 1 173 0
 693 0072 0244     		add	r2, r2, r0
 694              		.loc 1 172 0
 695 0074 1868     		ldr	r0, [r3]
 696 0076 5850     		str	r0, [r3, r1]
 697              		.loc 1 173 0
 698 0078 CEF80420 		str	r2, [lr, #4]
 699              		.loc 1 174 0
ARM GAS  /var/folders/c6/c789hm653lg9vtl73krp73tm0000gn/T//ccNMqBii.s 			page 43


 700 007c C4F800E0 		str	lr, [r4]
 701              		.loc 1 175 0
 702 0080 5D60     		str	r5, [r3, #4]
 703 0082 E9E7     		b	.L10
 704              	.LVL23:
 705              	.L14:
 706              		.loc 1 203 0
 707 0084 0024     		movs	r4, #0
 708              	.LVL24:
 709 0086 DFE7     		b	.L11
 710              	.L22:
 711              		.align	2
 712              	.L21:
 713 0088 00000000 		.word	.LANCHOR0
 714              		.cfi_endproc
 715              	.LFE231:
 716              		.size	chHeapAlloc, .-chHeapAlloc
 717 008c AFF30080 		.section	.text.chHeapFree,"ax",%progbits
 718              		.align	2
 719              		.p2align 4,,15
 720              		.global	chHeapFree
 721              		.thumb
 722              		.thumb_func
 723              		.type	chHeapFree, %function
 724              	chHeapFree:
 725              	.LFB232:
 726              		.loc 1 213 0
 727              		.cfi_startproc
 728              		@ args = 0, pretend = 0, frame = 0
 729              		@ frame_needed = 0, uses_anonymous_args = 0
 730              	.LVL25:
 731 0000 F8B5     		push	{r3, r4, r5, r6, r7, lr}
 732              		.cfi_def_cfa_offset 24
 733              		.cfi_offset 3, -24
 734              		.cfi_offset 4, -20
 735              		.cfi_offset 5, -16
 736              		.cfi_offset 6, -12
 737              		.cfi_offset 7, -8
 738              		.cfi_offset 14, -4
 739              		.loc 1 222 0
 740 0002 50F8085C 		ldr	r5, [r0, #-8]
 741              		.loc 1 225 0
 742 0006 05F11007 		add	r7, r5, #16
 743              		.loc 1 213 0
 744 000a 0646     		mov	r6, r0
 745              		.loc 1 220 0
 746 000c A0F10804 		sub	r4, r0, #8
 747              	.LVL26:
 748              		.loc 1 223 0
 749 0010 0835     		adds	r5, r5, #8
 750              	.LVL27:
 751              		.loc 1 225 0
 752 0012 3846     		mov	r0, r7
 753              	.LVL28:
 754 0014 FFF7FEFF 		bl	chMtxLock
 755              	.LVL29:
 756              		.loc 1 223 0
ARM GAS  /var/folders/c6/c789hm653lg9vtl73krp73tm0000gn/T//ccNMqBii.s 			page 44


 757 0018 2B46     		mov	r3, r5
 758              	.LVL30:
 759              	.L30:
 760              		.loc 1 229 0
 761 001a AB42     		cmp	r3, r5
 762 001c 04D0     		beq	.L24
 763              	.L35:
 764              		.loc 1 229 0 is_stmt 0 discriminator 2
 765 001e A342     		cmp	r3, r4
 766 0020 02D3     		bcc	.L24
 767 0022 1B68     		ldr	r3, [r3]
 768              	.LVL31:
 769              		.loc 1 229 0
 770 0024 AB42     		cmp	r3, r5
 771 0026 FAD1     		bne	.L35
 772              	.L24:
 773              		.loc 1 230 0 is_stmt 1 discriminator 1
 774 0028 1A68     		ldr	r2, [r3]
 775              		.loc 1 229 0 discriminator 1
 776 002a 1AB1     		cbz	r2, .L26
 777              		.loc 1 230 0
 778 002c 9442     		cmp	r4, r2
 779 002e 01D3     		bcc	.L26
 780 0030 1346     		mov	r3, r2
 781              	.LVL32:
 782              		.loc 1 248 0
 783 0032 F2E7     		b	.L30
 784              	.LVL33:
 785              	.L26:
 786              		.loc 1 235 0
 787 0034 56F8041C 		ldr	r1, [r6, #-4]
 788              		.loc 1 232 0
 789 0038 46F8082C 		str	r2, [r6, #-8]
 790              		.loc 1 233 0
 791 003c 1C60     		str	r4, [r3]
 792              		.loc 1 235 0
 793 003e 01F10802 		add	r2, r1, #8
 794 0042 56F8085C 		ldr	r5, [r6, #-8]
 795              	.LVL34:
 796 0046 A018     		adds	r0, r4, r2
 797 0048 A842     		cmp	r0, r5
 798 004a 0AD0     		beq	.L36
 799              		.loc 1 240 0
 800 004c 5A68     		ldr	r2, [r3, #4]
 801 004e 02F10801 		add	r1, r2, #8
 802 0052 1944     		add	r1, r1, r3
 803 0054 8C42     		cmp	r4, r1
 804 0056 12D0     		beq	.L37
 805              	.L29:
 806              		.loc 1 249 0
 807 0058 3846     		mov	r0, r7
 808              		.loc 1 252 0
 809 005a BDE8F840 		pop	{r3, r4, r5, r6, r7, lr}
 810              	.LVL35:
 811              		.loc 1 249 0
 812 005e FFF7FEBF 		b	chMtxUnlock
 813              	.LVL36:
ARM GAS  /var/folders/c6/c789hm653lg9vtl73krp73tm0000gn/T//ccNMqBii.s 			page 45


 814              	.L36:
 815              		.loc 1 237 0
 816 0062 4068     		ldr	r0, [r0, #4]
 817              		.loc 1 238 0
 818 0064 A258     		ldr	r2, [r4, r2]
 819 0066 46F8082C 		str	r2, [r6, #-8]
 820              		.loc 1 237 0
 821 006a 0A18     		adds	r2, r1, r0
 822 006c 0832     		adds	r2, r2, #8
 823 006e 46F8042C 		str	r2, [r6, #-4]
 824              		.loc 1 240 0
 825 0072 5A68     		ldr	r2, [r3, #4]
 826 0074 02F10801 		add	r1, r2, #8
 827 0078 1944     		add	r1, r1, r3
 828 007a 8C42     		cmp	r4, r1
 829 007c ECD1     		bne	.L29
 830              	.L37:
 831              		.loc 1 242 0
 832 007e 56F8040C 		ldr	r0, [r6, #-4]
 833              		.loc 1 243 0
 834 0082 56F8081C 		ldr	r1, [r6, #-8]
 835 0086 1960     		str	r1, [r3]
 836              		.loc 1 242 0
 837 0088 0244     		add	r2, r2, r0
 838 008a 0832     		adds	r2, r2, #8
 839 008c 5A60     		str	r2, [r3, #4]
 840              		.loc 1 249 0
 841 008e 3846     		mov	r0, r7
 842              		.loc 1 252 0
 843 0090 BDE8F840 		pop	{r3, r4, r5, r6, r7, lr}
 844              	.LVL37:
 845              		.loc 1 249 0
 846 0094 FFF7FEBF 		b	chMtxUnlock
 847              	.LVL38:
 848              		.cfi_endproc
 849              	.LFE232:
 850              		.size	chHeapFree, .-chHeapFree
 851 0098 AFF30080 		.section	.text.chHeapStatus,"ax",%progbits
 851      AFF30080 
 852              		.align	2
 853              		.p2align 4,,15
 854              		.global	chHeapStatus
 855              		.thumb
 856              		.thumb_func
 857              		.type	chHeapStatus, %function
 858              	chHeapStatus:
 859              	.LFB233:
 860              		.loc 1 267 0
 861              		.cfi_startproc
 862              		@ args = 0, pretend = 0, frame = 0
 863              		@ frame_needed = 0, uses_anonymous_args = 0
 864              	.LVL39:
 865 0000 F8B5     		push	{r3, r4, r5, r6, r7, lr}
 866              		.cfi_def_cfa_offset 24
 867              		.cfi_offset 3, -24
 868              		.cfi_offset 4, -20
 869              		.cfi_offset 5, -16
ARM GAS  /var/folders/c6/c789hm653lg9vtl73krp73tm0000gn/T//ccNMqBii.s 			page 46


 870              		.cfi_offset 6, -12
 871              		.cfi_offset 7, -8
 872              		.cfi_offset 14, -4
 873              		.loc 1 272 0
 874 0002 0E4C     		ldr	r4, .L51
 875 0004 0028     		cmp	r0, #0
 876 0006 18BF     		it	ne
 877 0008 0446     		movne	r4, r0
 878              	.LVL40:
 879              		.loc 1 275 0
 880 000a 04F11006 		add	r6, r4, #16
 881 000e 3046     		mov	r0, r6
 882              		.loc 1 267 0
 883 0010 0F46     		mov	r7, r1
 884              		.loc 1 275 0
 885 0012 FFF7FEFF 		bl	chMtxLock
 886              	.LVL41:
 887              		.loc 1 279 0
 888 0016 A368     		ldr	r3, [r4, #8]
 889 0018 6BB1     		cbz	r3, .L44
 890              		.loc 1 276 0
 891 001a 0022     		movs	r2, #0
 892              		.loc 1 277 0
 893 001c 1446     		mov	r4, r2
 894              	.LVL42:
 895              	.L41:
 896              		.loc 1 279 0
 897 001e 28CB     		ldmia	r3, {r3, r5}
 898              		.loc 1 281 0
 899 0020 0134     		adds	r4, r4, #1
 900              	.LVL43:
 901              		.loc 1 280 0
 902 0022 2A44     		add	r2, r2, r5
 903              	.LVL44:
 904              		.loc 1 279 0
 905 0024 002B     		cmp	r3, #0
 906 0026 FAD1     		bne	.L41
 907              	.LVL45:
 908              	.L40:
 909              		.loc 1 284 0
 910 0028 07B1     		cbz	r7, .L42
 911              		.loc 1 285 0
 912 002a 3A60     		str	r2, [r7]
 913              	.L42:
 914              		.loc 1 287 0
 915 002c 3046     		mov	r0, r6
 916 002e FFF7FEFF 		bl	chMtxUnlock
 917              	.LVL46:
 918              		.loc 1 290 0
 919 0032 2046     		mov	r0, r4
 920 0034 F8BD     		pop	{r3, r4, r5, r6, r7, pc}
 921              	.LVL47:
 922              	.L44:
 923              		.loc 1 276 0
 924 0036 1A46     		mov	r2, r3
 925              		.loc 1 277 0
 926 0038 1C46     		mov	r4, r3
ARM GAS  /var/folders/c6/c789hm653lg9vtl73krp73tm0000gn/T//ccNMqBii.s 			page 47


 927              	.LVL48:
 928 003a F5E7     		b	.L40
 929              	.L52:
 930              		.align	2
 931              	.L51:
 932 003c 00000000 		.word	.LANCHOR0
 933              		.cfi_endproc
 934              	.LFE233:
 935              		.size	chHeapStatus, .-chHeapStatus
 936              		.section	.bss.default_heap,"aw",%nobits
 937              		.align	3
 938              		.set	.LANCHOR0,. + 0
 939              		.type	default_heap, %object
 940              		.size	default_heap, 32
 941              	default_heap:
 942 0000 00000000 		.space	32
 942      00000000 
 942      00000000 
 942      00000000 
 942      00000000 
 943              		.text
 944              	.Letext0:
 945              		.file 2 "/usr/local/Cellar/gcc-arm-none-eabi/20140805/lib/gcc/arm-none-eabi/4.8.4/include/stddef.h
 946              		.file 3 "/usr/local/Cellar/gcc-arm-none-eabi/20140805/arm-none-eabi/include/machine/_default_types
 947              		.file 4 "/usr/local/Cellar/gcc-arm-none-eabi/20140805/arm-none-eabi/include/stdint.h"
 948              		.file 5 "../../../os/rt/ports/ARMCMx/compilers/GCC/chtypes.h"
 949              		.file 6 "../../../os/rt/include/chsystypes.h"
 950              		.file 7 "../../../os/rt/include/chschd.h"
 951              		.file 8 "../../../os/rt/ports/ARMCMx/chcore.h"
 952              		.file 9 "../../../os/rt/ports/ARMCMx/chcore_v7m.h"
 953              		.file 10 "../../../os/rt/include/chtm.h"
 954              		.file 11 "../../../os/rt/include/chsem.h"
 955              		.file 12 "../../../os/rt/include/chmtx.h"
 956              		.file 13 "../../../os/rt/include/chmemcore.h"
 957              		.file 14 "../../../os/rt/include/chheap.h"
 958              		.file 15 "../../../os/ext/CMSIS/include/core_cm4.h"
 959              		.section	.debug_info,"",%progbits
 960              	.Ldebug_info0:
 961 0000 B9090000 		.4byte	0x9b9
 962 0004 0400     		.2byte	0x4
 963 0006 00000000 		.4byte	.Ldebug_abbrev0
 964 000a 04       		.byte	0x4
 965 000b 01       		.uleb128 0x1
 966 000c 00000000 		.4byte	.LASF125
 967 0010 01       		.byte	0x1
 968 0011 F5050000 		.4byte	.LASF126
 969 0015 E0040000 		.4byte	.LASF127
 970 0019 00000000 		.4byte	.Ldebug_ranges0+0
 971 001d 00000000 		.4byte	0
 972 0021 00000000 		.4byte	.Ldebug_line0
 973 0025 02       		.uleb128 0x2
 974 0026 04       		.byte	0x4
 975 0027 05       		.byte	0x5
 976 0028 696E7400 		.ascii	"int\000"
 977 002c 03       		.uleb128 0x3
 978 002d ED000000 		.4byte	.LASF2
 979 0031 02       		.byte	0x2
ARM GAS  /var/folders/c6/c789hm653lg9vtl73krp73tm0000gn/T//ccNMqBii.s 			page 48


 980 0032 D4       		.byte	0xd4
 981 0033 37000000 		.4byte	0x37
 982 0037 04       		.uleb128 0x4
 983 0038 04       		.byte	0x4
 984 0039 07       		.byte	0x7
 985 003a 90020000 		.4byte	.LASF0
 986 003e 04       		.uleb128 0x4
 987 003f 01       		.byte	0x1
 988 0040 06       		.byte	0x6
 989 0041 BF010000 		.4byte	.LASF1
 990 0045 03       		.uleb128 0x3
 991 0046 09010000 		.4byte	.LASF3
 992 004a 03       		.byte	0x3
 993 004b 1C       		.byte	0x1c
 994 004c 50000000 		.4byte	0x50
 995 0050 04       		.uleb128 0x4
 996 0051 01       		.byte	0x1
 997 0052 08       		.byte	0x8
 998 0053 21040000 		.4byte	.LASF4
 999 0057 04       		.uleb128 0x4
 1000 0058 02       		.byte	0x2
 1001 0059 05       		.byte	0x5
 1002 005a 45040000 		.4byte	.LASF5
 1003 005e 04       		.uleb128 0x4
 1004 005f 02       		.byte	0x2
 1005 0060 07       		.byte	0x7
 1006 0061 BD020000 		.4byte	.LASF6
 1007 0065 03       		.uleb128 0x3
 1008 0066 62010000 		.4byte	.LASF7
 1009 006a 03       		.byte	0x3
 1010 006b 37       		.byte	0x37
 1011 006c 70000000 		.4byte	0x70
 1012 0070 04       		.uleb128 0x4
 1013 0071 04       		.byte	0x4
 1014 0072 05       		.byte	0x5
 1015 0073 03020000 		.4byte	.LASF8
 1016 0077 03       		.uleb128 0x3
 1017 0078 78050000 		.4byte	.LASF9
 1018 007c 03       		.byte	0x3
 1019 007d 38       		.byte	0x38
 1020 007e 82000000 		.4byte	0x82
 1021 0082 04       		.uleb128 0x4
 1022 0083 04       		.byte	0x4
 1023 0084 07       		.byte	0x7
 1024 0085 CE040000 		.4byte	.LASF10
 1025 0089 04       		.uleb128 0x4
 1026 008a 08       		.byte	0x8
 1027 008b 05       		.byte	0x5
 1028 008c 31020000 		.4byte	.LASF11
 1029 0090 03       		.uleb128 0x3
 1030 0091 C7030000 		.4byte	.LASF12
 1031 0095 03       		.byte	0x3
 1032 0096 4E       		.byte	0x4e
 1033 0097 9B000000 		.4byte	0x9b
 1034 009b 04       		.uleb128 0x4
 1035 009c 08       		.byte	0x8
 1036 009d 07       		.byte	0x7
ARM GAS  /var/folders/c6/c789hm653lg9vtl73krp73tm0000gn/T//ccNMqBii.s 			page 49


 1037 009e 3B010000 		.4byte	.LASF13
 1038 00a2 03       		.uleb128 0x3
 1039 00a3 E2050000 		.4byte	.LASF14
 1040 00a7 04       		.byte	0x4
 1041 00a8 2A       		.byte	0x2a
 1042 00a9 45000000 		.4byte	0x45
 1043 00ad 03       		.uleb128 0x3
 1044 00ae 19040000 		.4byte	.LASF15
 1045 00b2 04       		.byte	0x4
 1046 00b3 41       		.byte	0x41
 1047 00b4 65000000 		.4byte	0x65
 1048 00b8 03       		.uleb128 0x3
 1049 00b9 98040000 		.4byte	.LASF16
 1050 00bd 04       		.byte	0x4
 1051 00be 42       		.byte	0x42
 1052 00bf 77000000 		.4byte	0x77
 1053 00c3 03       		.uleb128 0x3
 1054 00c4 00010000 		.4byte	.LASF17
 1055 00c8 04       		.byte	0x4
 1056 00c9 4E       		.byte	0x4e
 1057 00ca 90000000 		.4byte	0x90
 1058 00ce 05       		.uleb128 0x5
 1059 00cf AD000000 		.4byte	0xad
 1060 00d3 03       		.uleb128 0x3
 1061 00d4 AD050000 		.4byte	.LASF18
 1062 00d8 05       		.byte	0x5
 1063 00d9 45       		.byte	0x45
 1064 00da B8000000 		.4byte	0xb8
 1065 00de 03       		.uleb128 0x3
 1066 00df F7020000 		.4byte	.LASF19
 1067 00e3 05       		.byte	0x5
 1068 00e4 48       		.byte	0x48
 1069 00e5 A2000000 		.4byte	0xa2
 1070 00e9 03       		.uleb128 0x3
 1071 00ea 0C020000 		.4byte	.LASF20
 1072 00ee 05       		.byte	0x5
 1073 00ef 49       		.byte	0x49
 1074 00f0 A2000000 		.4byte	0xa2
 1075 00f4 03       		.uleb128 0x3
 1076 00f5 D2030000 		.4byte	.LASF21
 1077 00f9 05       		.byte	0x5
 1078 00fa 4A       		.byte	0x4a
 1079 00fb A2000000 		.4byte	0xa2
 1080 00ff 03       		.uleb128 0x3
 1081 0100 F1030000 		.4byte	.LASF22
 1082 0104 05       		.byte	0x5
 1083 0105 4C       		.byte	0x4c
 1084 0106 B8000000 		.4byte	0xb8
 1085 010a 03       		.uleb128 0x3
 1086 010b E5020000 		.4byte	.LASF23
 1087 010f 05       		.byte	0x5
 1088 0110 4D       		.byte	0x4d
 1089 0111 AD000000 		.4byte	0xad
 1090 0115 03       		.uleb128 0x3
 1091 0116 0D030000 		.4byte	.LASF24
 1092 011a 05       		.byte	0x5
 1093 011b 4F       		.byte	0x4f
ARM GAS  /var/folders/c6/c789hm653lg9vtl73krp73tm0000gn/T//ccNMqBii.s 			page 50


 1094 011c B8000000 		.4byte	0xb8
 1095 0120 03       		.uleb128 0x3
 1096 0121 8A020000 		.4byte	.LASF25
 1097 0125 05       		.byte	0x5
 1098 0126 51       		.byte	0x51
 1099 0127 AD000000 		.4byte	0xad
 1100 012b 03       		.uleb128 0x3
 1101 012c 5A050000 		.4byte	.LASF26
 1102 0130 06       		.byte	0x6
 1103 0131 33       		.byte	0x33
 1104 0132 B8000000 		.4byte	0xb8
 1105 0136 03       		.uleb128 0x3
 1106 0137 3D050000 		.4byte	.LASF27
 1107 013b 06       		.byte	0x6
 1108 013c 3F       		.byte	0x3f
 1109 013d 41010000 		.4byte	0x141
 1110 0141 06       		.uleb128 0x6
 1111 0142 D0020000 		.4byte	.LASF47
 1112 0146 44       		.byte	0x44
 1113 0147 07       		.byte	0x7
 1114 0148 C2       		.byte	0xc2
 1115 0149 2E020000 		.4byte	0x22e
 1116 014d 07       		.uleb128 0x7
 1117 014e 65040000 		.4byte	.LASF28
 1118 0152 07       		.byte	0x7
 1119 0153 C3       		.byte	0xc3
 1120 0154 39020000 		.4byte	0x239
 1121 0158 00       		.byte	0
 1122 0159 07       		.uleb128 0x7
 1123 015a EA030000 		.4byte	.LASF29
 1124 015e 07       		.byte	0x7
 1125 015f C5       		.byte	0xc5
 1126 0160 39020000 		.4byte	0x239
 1127 0164 04       		.byte	0x4
 1128 0165 07       		.uleb128 0x7
 1129 0166 AC010000 		.4byte	.LASF30
 1130 016a 07       		.byte	0x7
 1131 016b C7       		.byte	0xc7
 1132 016c FF000000 		.4byte	0xff
 1133 0170 08       		.byte	0x8
 1134 0171 07       		.uleb128 0x7
 1135 0172 47060000 		.4byte	.LASF31
 1136 0176 07       		.byte	0x7
 1137 0177 C8       		.byte	0xc8
 1138 0178 69040000 		.4byte	0x469
 1139 017c 0C       		.byte	0xc
 1140 017d 07       		.uleb128 0x7
 1141 017e 3F020000 		.4byte	.LASF32
 1142 0182 07       		.byte	0x7
 1143 0183 CA       		.byte	0xca
 1144 0184 39020000 		.4byte	0x239
 1145 0188 10       		.byte	0x10
 1146 0189 07       		.uleb128 0x7
 1147 018a 96030000 		.4byte	.LASF33
 1148 018e 07       		.byte	0x7
 1149 018f CB       		.byte	0xcb
 1150 0190 39020000 		.4byte	0x239
ARM GAS  /var/folders/c6/c789hm653lg9vtl73krp73tm0000gn/T//ccNMqBii.s 			page 51


 1151 0194 14       		.byte	0x14
 1152 0195 07       		.uleb128 0x7
 1153 0196 1E060000 		.4byte	.LASF34
 1154 019a 07       		.byte	0x7
 1155 019b D2       		.byte	0xd2
 1156 019c E8050000 		.4byte	0x5e8
 1157 01a0 18       		.byte	0x18
 1158 01a1 07       		.uleb128 0x7
 1159 01a2 4F040000 		.4byte	.LASF35
 1160 01a6 07       		.byte	0x7
 1161 01a7 DD       		.byte	0xdd
 1162 01a8 E9000000 		.4byte	0xe9
 1163 01ac 1C       		.byte	0x1c
 1164 01ad 07       		.uleb128 0x7
 1165 01ae 6C040000 		.4byte	.LASF36
 1166 01b2 07       		.byte	0x7
 1167 01b3 E1       		.byte	0xe1
 1168 01b4 DE000000 		.4byte	0xde
 1169 01b8 1D       		.byte	0x1d
 1170 01b9 07       		.uleb128 0x7
 1171 01ba D5050000 		.4byte	.LASF37
 1172 01be 07       		.byte	0x7
 1173 01bf E6       		.byte	0xe6
 1174 01c0 F4000000 		.4byte	0xf4
 1175 01c4 1E       		.byte	0x1e
 1176 01c5 08       		.uleb128 0x8
 1177 01c6 705F7500 		.ascii	"p_u\000"
 1178 01ca 07       		.byte	0x7
 1179 01cb 3101     		.2byte	0x131
 1180 01cd 23050000 		.4byte	0x523
 1181 01d1 20       		.byte	0x20
 1182 01d2 09       		.uleb128 0x9
 1183 01d3 43030000 		.4byte	.LASF38
 1184 01d7 07       		.byte	0x7
 1185 01d8 3601     		.2byte	0x136
 1186 01da 3F020000 		.4byte	0x23f
 1187 01de 24       		.byte	0x24
 1188 01df 09       		.uleb128 0x9
 1189 01e0 AC020000 		.4byte	.LASF39
 1190 01e4 07       		.byte	0x7
 1191 01e5 3C01     		.2byte	0x13c
 1192 01e7 63020000 		.4byte	0x263
 1193 01eb 28       		.byte	0x28
 1194 01ec 09       		.uleb128 0x9
 1195 01ed 39060000 		.4byte	.LASF40
 1196 01f1 07       		.byte	0x7
 1197 01f2 4001     		.2byte	0x140
 1198 01f4 0A010000 		.4byte	0x10a
 1199 01f8 30       		.byte	0x30
 1200 01f9 09       		.uleb128 0x9
 1201 01fa 8D040000 		.4byte	.LASF41
 1202 01fe 07       		.byte	0x7
 1203 01ff 4601     		.2byte	0x146
 1204 0201 15010000 		.4byte	0x115
 1205 0205 34       		.byte	0x34
 1206 0206 09       		.uleb128 0x9
 1207 0207 3B040000 		.4byte	.LASF42
ARM GAS  /var/folders/c6/c789hm653lg9vtl73krp73tm0000gn/T//ccNMqBii.s 			page 52


 1208 020b 07       		.byte	0x7
 1209 020c 4D01     		.2byte	0x14d
 1210 020e E2050000 		.4byte	0x5e2
 1211 0212 38       		.byte	0x38
 1212 0213 09       		.uleb128 0x9
 1213 0214 64050000 		.4byte	.LASF43
 1214 0218 07       		.byte	0x7
 1215 0219 5101     		.2byte	0x151
 1216 021b FF000000 		.4byte	0xff
 1217 021f 3C       		.byte	0x3c
 1218 0220 09       		.uleb128 0x9
 1219 0221 D1010000 		.4byte	.LASF44
 1220 0225 07       		.byte	0x7
 1221 0226 5801     		.2byte	0x158
 1222 0228 16030000 		.4byte	0x316
 1223 022c 40       		.byte	0x40
 1224 022d 00       		.byte	0
 1225 022e 03       		.uleb128 0x3
 1226 022f 56030000 		.4byte	.LASF45
 1227 0233 06       		.byte	0x6
 1228 0234 44       		.byte	0x44
 1229 0235 39020000 		.4byte	0x239
 1230 0239 0A       		.uleb128 0xa
 1231 023a 04       		.byte	0x4
 1232 023b 36010000 		.4byte	0x136
 1233 023f 03       		.uleb128 0x3
 1234 0240 2A060000 		.4byte	.LASF46
 1235 0244 06       		.byte	0x6
 1236 0245 49       		.byte	0x49
 1237 0246 4A020000 		.4byte	0x24a
 1238 024a 06       		.uleb128 0x6
 1239 024b B9040000 		.4byte	.LASF48
 1240 024f 04       		.byte	0x4
 1241 0250 07       		.byte	0x7
 1242 0251 B0       		.byte	0xb0
 1243 0252 63020000 		.4byte	0x263
 1244 0256 07       		.uleb128 0x7
 1245 0257 65040000 		.4byte	.LASF28
 1246 025b 07       		.byte	0x7
 1247 025c B1       		.byte	0xb1
 1248 025d 39020000 		.4byte	0x239
 1249 0261 00       		.byte	0
 1250 0262 00       		.byte	0
 1251 0263 03       		.uleb128 0x3
 1252 0264 BC050000 		.4byte	.LASF49
 1253 0268 06       		.byte	0x6
 1254 0269 50       		.byte	0x50
 1255 026a 6E020000 		.4byte	0x26e
 1256 026e 06       		.uleb128 0x6
 1257 026f 9B010000 		.4byte	.LASF50
 1258 0273 08       		.byte	0x8
 1259 0274 07       		.byte	0x7
 1260 0275 B7       		.byte	0xb7
 1261 0276 93020000 		.4byte	0x293
 1262 027a 07       		.uleb128 0x7
 1263 027b 65040000 		.4byte	.LASF28
 1264 027f 07       		.byte	0x7
ARM GAS  /var/folders/c6/c789hm653lg9vtl73krp73tm0000gn/T//ccNMqBii.s 			page 53


 1265 0280 B8       		.byte	0xb8
 1266 0281 39020000 		.4byte	0x239
 1267 0285 00       		.byte	0
 1268 0286 07       		.uleb128 0x7
 1269 0287 EA030000 		.4byte	.LASF29
 1270 028b 07       		.byte	0x7
 1271 028c B9       		.byte	0xb9
 1272 028d 39020000 		.4byte	0x239
 1273 0291 04       		.byte	0x4
 1274 0292 00       		.byte	0
 1275 0293 03       		.uleb128 0x3
 1276 0294 E0000000 		.4byte	.LASF51
 1277 0298 06       		.byte	0x6
 1278 0299 57       		.byte	0x57
 1279 029a 9E020000 		.4byte	0x29e
 1280 029e 0B       		.uleb128 0xb
 1281 029f FF020000 		.4byte	.LASF52
 1282 02a3 1C       		.byte	0x1c
 1283 02a4 07       		.byte	0x7
 1284 02a5 9001     		.2byte	0x190
 1285 02a7 FA020000 		.4byte	0x2fa
 1286 02ab 09       		.uleb128 0x9
 1287 02ac A8040000 		.4byte	.LASF53
 1288 02b0 07       		.byte	0x7
 1289 02b1 9101     		.2byte	0x191
 1290 02b3 63020000 		.4byte	0x263
 1291 02b7 00       		.byte	0
 1292 02b8 09       		.uleb128 0x9
 1293 02b9 57040000 		.4byte	.LASF54
 1294 02bd 07       		.byte	0x7
 1295 02be 9201     		.2byte	0x192
 1296 02c0 FF000000 		.4byte	0xff
 1297 02c4 08       		.byte	0x8
 1298 02c5 09       		.uleb128 0x9
 1299 02c6 9E030000 		.4byte	.LASF55
 1300 02ca 07       		.byte	0x7
 1301 02cb 9401     		.2byte	0x194
 1302 02cd 69040000 		.4byte	0x469
 1303 02d1 0C       		.byte	0xc
 1304 02d2 09       		.uleb128 0x9
 1305 02d3 4F020000 		.4byte	.LASF56
 1306 02d7 07       		.byte	0x7
 1307 02d8 9701     		.2byte	0x197
 1308 02da 39020000 		.4byte	0x239
 1309 02de 10       		.byte	0x10
 1310 02df 09       		.uleb128 0x9
 1311 02e0 BF030000 		.4byte	.LASF57
 1312 02e4 07       		.byte	0x7
 1313 02e5 9801     		.2byte	0x198
 1314 02e7 39020000 		.4byte	0x239
 1315 02eb 14       		.byte	0x14
 1316 02ec 09       		.uleb128 0x9
 1317 02ed B5030000 		.4byte	.LASF58
 1318 02f1 07       		.byte	0x7
 1319 02f2 9B01     		.2byte	0x19b
 1320 02f4 39020000 		.4byte	0x239
 1321 02f8 18       		.byte	0x18
ARM GAS  /var/folders/c6/c789hm653lg9vtl73krp73tm0000gn/T//ccNMqBii.s 			page 54


 1322 02f9 00       		.byte	0
 1323 02fa 03       		.uleb128 0x3
 1324 02fb 6F050000 		.4byte	.LASF59
 1325 02ff 06       		.byte	0x6
 1326 0300 5C       		.byte	0x5c
 1327 0301 05030000 		.4byte	0x305
 1328 0305 0A       		.uleb128 0xa
 1329 0306 04       		.byte	0x4
 1330 0307 0B030000 		.4byte	0x30b
 1331 030b 0C       		.uleb128 0xc
 1332 030c 16030000 		.4byte	0x316
 1333 0310 0D       		.uleb128 0xd
 1334 0311 16030000 		.4byte	0x316
 1335 0315 00       		.byte	0
 1336 0316 0E       		.uleb128 0xe
 1337 0317 04       		.byte	0x4
 1338 0318 03       		.uleb128 0x3
 1339 0319 DA030000 		.4byte	.LASF60
 1340 031d 06       		.byte	0x6
 1341 031e 61       		.byte	0x61
 1342 031f 23030000 		.4byte	0x323
 1343 0323 0B       		.uleb128 0xb
 1344 0324 9C050000 		.4byte	.LASF61
 1345 0328 14       		.byte	0x14
 1346 0329 07       		.byte	0x7
 1347 032a 6B01     		.2byte	0x16b
 1348 032c 72030000 		.4byte	0x372
 1349 0330 09       		.uleb128 0x9
 1350 0331 9D020000 		.4byte	.LASF62
 1351 0335 07       		.byte	0x7
 1352 0336 6C01     		.2byte	0x16c
 1353 0338 FA050000 		.4byte	0x5fa
 1354 033c 00       		.byte	0
 1355 033d 09       		.uleb128 0x9
 1356 033e 60020000 		.4byte	.LASF63
 1357 0342 07       		.byte	0x7
 1358 0343 6D01     		.2byte	0x16d
 1359 0345 FA050000 		.4byte	0x5fa
 1360 0349 04       		.byte	0x4
 1361 034a 09       		.uleb128 0x9
 1362 034b B0040000 		.4byte	.LASF64
 1363 034f 07       		.byte	0x7
 1364 0350 6E01     		.2byte	0x16e
 1365 0352 2B010000 		.4byte	0x12b
 1366 0356 08       		.byte	0x8
 1367 0357 09       		.uleb128 0x9
 1368 0358 4D060000 		.4byte	.LASF65
 1369 035c 07       		.byte	0x7
 1370 035d 6F01     		.2byte	0x16f
 1371 035f FA020000 		.4byte	0x2fa
 1372 0363 0C       		.byte	0xc
 1373 0364 09       		.uleb128 0x9
 1374 0365 B5050000 		.4byte	.LASF66
 1375 0369 07       		.byte	0x7
 1376 036a 7101     		.2byte	0x171
 1377 036c 16030000 		.4byte	0x316
 1378 0370 10       		.byte	0x10
ARM GAS  /var/folders/c6/c789hm653lg9vtl73krp73tm0000gn/T//ccNMqBii.s 			page 55


 1379 0371 00       		.byte	0
 1380 0372 03       		.uleb128 0x3
 1381 0373 6C010000 		.4byte	.LASF67
 1382 0377 06       		.byte	0x6
 1383 0378 66       		.byte	0x66
 1384 0379 7D030000 		.4byte	0x37d
 1385 037d 0B       		.uleb128 0xb
 1386 037e 69030000 		.4byte	.LASF68
 1387 0382 10       		.byte	0x10
 1388 0383 07       		.byte	0x7
 1389 0384 7B01     		.2byte	0x17b
 1390 0386 BF030000 		.4byte	0x3bf
 1391 038a 09       		.uleb128 0x9
 1392 038b 9D020000 		.4byte	.LASF62
 1393 038f 07       		.byte	0x7
 1394 0390 7C01     		.2byte	0x17c
 1395 0392 FA050000 		.4byte	0x5fa
 1396 0396 00       		.byte	0
 1397 0397 09       		.uleb128 0x9
 1398 0398 60020000 		.4byte	.LASF63
 1399 039c 07       		.byte	0x7
 1400 039d 7E01     		.2byte	0x17e
 1401 039f FA050000 		.4byte	0x5fa
 1402 03a3 04       		.byte	0x4
 1403 03a4 09       		.uleb128 0x9
 1404 03a5 B0040000 		.4byte	.LASF64
 1405 03a9 07       		.byte	0x7
 1406 03aa 8001     		.2byte	0x180
 1407 03ac 2B010000 		.4byte	0x12b
 1408 03b0 08       		.byte	0x8
 1409 03b1 09       		.uleb128 0x9
 1410 03b2 80030000 		.4byte	.LASF69
 1411 03b6 07       		.byte	0x7
 1412 03b7 8801     		.2byte	0x188
 1413 03b9 2B010000 		.4byte	0x12b
 1414 03bd 0C       		.byte	0xc
 1415 03be 00       		.byte	0
 1416 03bf 03       		.uleb128 0x3
 1417 03c0 1F010000 		.4byte	.LASF70
 1418 03c4 06       		.byte	0x6
 1419 03c5 6B       		.byte	0x6b
 1420 03c6 CA030000 		.4byte	0x3ca
 1421 03ca 0B       		.uleb128 0xb
 1422 03cb 09040000 		.4byte	.LASF71
 1423 03cf 04       		.byte	0x4
 1424 03d0 07       		.byte	0x7
 1425 03d1 A201     		.2byte	0x1a2
 1426 03d3 E5030000 		.4byte	0x3e5
 1427 03d7 09       		.uleb128 0x9
 1428 03d8 83050000 		.4byte	.LASF72
 1429 03dc 07       		.byte	0x7
 1430 03dd AA01     		.2byte	0x1aa
 1431 03df 00060000 		.4byte	0x600
 1432 03e3 00       		.byte	0
 1433 03e4 00       		.byte	0
 1434 03e5 03       		.uleb128 0x3
 1435 03e6 EB020000 		.4byte	.LASF73
ARM GAS  /var/folders/c6/c789hm653lg9vtl73krp73tm0000gn/T//ccNMqBii.s 			page 56


 1436 03ea 06       		.byte	0x6
 1437 03eb 70       		.byte	0x70
 1438 03ec F0030000 		.4byte	0x3f0
 1439 03f0 0F       		.uleb128 0xf
 1440 03f1 F9010000 		.4byte	.LASF74
 1441 03f5 5001     		.2byte	0x150
 1442 03f7 07       		.byte	0x7
 1443 03f8 C201     		.2byte	0x1c2
 1444 03fa 4C040000 		.4byte	0x44c
 1445 03fe 09       		.uleb128 0x9
 1446 03ff DC050000 		.4byte	.LASF75
 1447 0403 07       		.byte	0x7
 1448 0404 C601     		.2byte	0x1c6
 1449 0406 93020000 		.4byte	0x293
 1450 040a 00       		.byte	0
 1451 040b 09       		.uleb128 0x9
 1452 040c EC010000 		.4byte	.LASF76
 1453 0410 07       		.byte	0x7
 1454 0411 CA01     		.2byte	0x1ca
 1455 0413 72030000 		.4byte	0x372
 1456 0417 1C       		.byte	0x1c
 1457 0418 08       		.uleb128 0x8
 1458 0419 64626700 		.ascii	"dbg\000"
 1459 041d 07       		.byte	0x7
 1460 041e CE01     		.2byte	0x1ce
 1461 0420 BF030000 		.4byte	0x3bf
 1462 0424 2C       		.byte	0x2c
 1463 0425 09       		.uleb128 0x9
 1464 0426 DA020000 		.4byte	.LASF77
 1465 042a 07       		.byte	0x7
 1466 042b D201     		.2byte	0x1d2
 1467 042d 36010000 		.4byte	0x136
 1468 0431 30       		.byte	0x30
 1469 0432 08       		.uleb128 0x8
 1470 0433 746D00   		.ascii	"tm\000"
 1471 0436 07       		.byte	0x7
 1472 0437 D701     		.2byte	0x1d7
 1473 0439 18050000 		.4byte	0x518
 1474 043d 74       		.byte	0x74
 1475 043e 09       		.uleb128 0x9
 1476 043f 7B020000 		.4byte	.LASF78
 1477 0443 07       		.byte	0x7
 1478 0444 E301     		.2byte	0x1e3
 1479 0446 05060000 		.4byte	0x605
 1480 044a 78       		.byte	0x78
 1481 044b 00       		.byte	0
 1482 044c 04       		.uleb128 0x4
 1483 044d 04       		.byte	0x4
 1484 044e 07       		.byte	0x7
 1485 044f 4D030000 		.4byte	.LASF79
 1486 0453 03       		.uleb128 0x3
 1487 0454 57020000 		.4byte	.LASF80
 1488 0458 08       		.byte	0x8
 1489 0459 65       		.byte	0x65
 1490 045a 16030000 		.4byte	0x316
 1491 045e 03       		.uleb128 0x3
 1492 045f 27030000 		.4byte	.LASF81
ARM GAS  /var/folders/c6/c789hm653lg9vtl73krp73tm0000gn/T//ccNMqBii.s 			page 57


 1493 0463 08       		.byte	0x8
 1494 0464 6D       		.byte	0x6d
 1495 0465 C3000000 		.4byte	0xc3
 1496 0469 06       		.uleb128 0x6
 1497 046a 94050000 		.4byte	.LASF82
 1498 046e 04       		.byte	0x4
 1499 046f 08       		.byte	0x8
 1500 0470 89       		.byte	0x89
 1501 0471 82040000 		.4byte	0x482
 1502 0475 10       		.uleb128 0x10
 1503 0476 72313300 		.ascii	"r13\000"
 1504 047a 08       		.byte	0x8
 1505 047b 8A       		.byte	0x8a
 1506 047c FD040000 		.4byte	0x4fd
 1507 0480 00       		.byte	0
 1508 0481 00       		.byte	0
 1509 0482 06       		.uleb128 0x6
 1510 0483 13010000 		.4byte	.LASF83
 1511 0487 24       		.byte	0x24
 1512 0488 09       		.byte	0x9
 1513 0489 F4       		.byte	0xf4
 1514 048a FD040000 		.4byte	0x4fd
 1515 048e 08       		.uleb128 0x8
 1516 048f 723400   		.ascii	"r4\000"
 1517 0492 09       		.byte	0x9
 1518 0493 0701     		.2byte	0x107
 1519 0495 53040000 		.4byte	0x453
 1520 0499 00       		.byte	0
 1521 049a 08       		.uleb128 0x8
 1522 049b 723500   		.ascii	"r5\000"
 1523 049e 09       		.byte	0x9
 1524 049f 0801     		.2byte	0x108
 1525 04a1 53040000 		.4byte	0x453
 1526 04a5 04       		.byte	0x4
 1527 04a6 08       		.uleb128 0x8
 1528 04a7 723600   		.ascii	"r6\000"
 1529 04aa 09       		.byte	0x9
 1530 04ab 0901     		.2byte	0x109
 1531 04ad 53040000 		.4byte	0x453
 1532 04b1 08       		.byte	0x8
 1533 04b2 08       		.uleb128 0x8
 1534 04b3 723700   		.ascii	"r7\000"
 1535 04b6 09       		.byte	0x9
 1536 04b7 0A01     		.2byte	0x10a
 1537 04b9 53040000 		.4byte	0x453
 1538 04bd 0C       		.byte	0xc
 1539 04be 08       		.uleb128 0x8
 1540 04bf 723800   		.ascii	"r8\000"
 1541 04c2 09       		.byte	0x9
 1542 04c3 0B01     		.2byte	0x10b
 1543 04c5 53040000 		.4byte	0x453
 1544 04c9 10       		.byte	0x10
 1545 04ca 08       		.uleb128 0x8
 1546 04cb 723900   		.ascii	"r9\000"
 1547 04ce 09       		.byte	0x9
 1548 04cf 0C01     		.2byte	0x10c
 1549 04d1 53040000 		.4byte	0x453
ARM GAS  /var/folders/c6/c789hm653lg9vtl73krp73tm0000gn/T//ccNMqBii.s 			page 58


 1550 04d5 14       		.byte	0x14
 1551 04d6 08       		.uleb128 0x8
 1552 04d7 72313000 		.ascii	"r10\000"
 1553 04db 09       		.byte	0x9
 1554 04dc 0D01     		.2byte	0x10d
 1555 04de 53040000 		.4byte	0x453
 1556 04e2 18       		.byte	0x18
 1557 04e3 08       		.uleb128 0x8
 1558 04e4 72313100 		.ascii	"r11\000"
 1559 04e8 09       		.byte	0x9
 1560 04e9 0E01     		.2byte	0x10e
 1561 04eb 53040000 		.4byte	0x453
 1562 04ef 1C       		.byte	0x1c
 1563 04f0 08       		.uleb128 0x8
 1564 04f1 6C7200   		.ascii	"lr\000"
 1565 04f4 09       		.byte	0x9
 1566 04f5 0F01     		.2byte	0x10f
 1567 04f7 53040000 		.4byte	0x453
 1568 04fb 20       		.byte	0x20
 1569 04fc 00       		.byte	0
 1570 04fd 0A       		.uleb128 0xa
 1571 04fe 04       		.byte	0x4
 1572 04ff 82040000 		.4byte	0x482
 1573 0503 11       		.uleb128 0x11
 1574 0504 04       		.byte	0x4
 1575 0505 0A       		.byte	0xa
 1576 0506 38       		.byte	0x38
 1577 0507 18050000 		.4byte	0x518
 1578 050b 07       		.uleb128 0x7
 1579 050c 8D050000 		.4byte	.LASF84
 1580 0510 0A       		.byte	0xa
 1581 0511 3C       		.byte	0x3c
 1582 0512 D3000000 		.4byte	0xd3
 1583 0516 00       		.byte	0
 1584 0517 00       		.byte	0
 1585 0518 03       		.uleb128 0x3
 1586 0519 A4030000 		.4byte	.LASF85
 1587 051d 0A       		.byte	0xa
 1588 051e 3D       		.byte	0x3d
 1589 051f 03050000 		.4byte	0x503
 1590 0523 12       		.uleb128 0x12
 1591 0524 04       		.byte	0x4
 1592 0525 07       		.byte	0x7
 1593 0526 FA       		.byte	0xfa
 1594 0527 80050000 		.4byte	0x580
 1595 052b 13       		.uleb128 0x13
 1596 052c F9000000 		.4byte	.LASF86
 1597 0530 07       		.byte	0x7
 1598 0531 0101     		.2byte	0x101
 1599 0533 0A010000 		.4byte	0x10a
 1600 0537 13       		.uleb128 0x13
 1601 0538 52010000 		.4byte	.LASF87
 1602 053c 07       		.byte	0x7
 1603 053d 0801     		.2byte	0x108
 1604 053f 0A010000 		.4byte	0x10a
 1605 0543 13       		.uleb128 0x13
 1606 0544 11060000 		.4byte	.LASF88
ARM GAS  /var/folders/c6/c789hm653lg9vtl73krp73tm0000gn/T//ccNMqBii.s 			page 59


 1607 0548 07       		.byte	0x7
 1608 0549 0F01     		.2byte	0x10f
 1609 054b 16030000 		.4byte	0x316
 1610 054f 13       		.uleb128 0x13
 1611 0550 F3010000 		.4byte	.LASF89
 1612 0554 07       		.byte	0x7
 1613 0555 1601     		.2byte	0x116
 1614 0557 80050000 		.4byte	0x580
 1615 055b 13       		.uleb128 0x13
 1616 055c A5020000 		.4byte	.LASF90
 1617 0560 07       		.byte	0x7
 1618 0561 1E01     		.2byte	0x11e
 1619 0563 AB050000 		.4byte	0x5ab
 1620 0567 13       		.uleb128 0x13
 1621 0568 A1040000 		.4byte	.LASF91
 1622 056c 07       		.byte	0x7
 1623 056d 2701     		.2byte	0x127
 1624 056f E2050000 		.4byte	0x5e2
 1625 0573 13       		.uleb128 0x13
 1626 0574 5E040000 		.4byte	.LASF92
 1627 0578 07       		.byte	0x7
 1628 0579 2F01     		.2byte	0x12f
 1629 057b 15010000 		.4byte	0x115
 1630 057f 00       		.byte	0
 1631 0580 0A       		.uleb128 0xa
 1632 0581 04       		.byte	0x4
 1633 0582 2E020000 		.4byte	0x22e
 1634 0586 06       		.uleb128 0x6
 1635 0587 80040000 		.4byte	.LASF93
 1636 058b 0C       		.byte	0xc
 1637 058c 0B       		.byte	0xb
 1638 058d 34       		.byte	0x34
 1639 058e AB050000 		.4byte	0x5ab
 1640 0592 07       		.uleb128 0x7
 1641 0593 47020000 		.4byte	.LASF94
 1642 0597 0B       		.byte	0xb
 1643 0598 35       		.byte	0x35
 1644 0599 63020000 		.4byte	0x263
 1645 059d 00       		.byte	0
 1646 059e 07       		.uleb128 0x7
 1647 059f B7020000 		.4byte	.LASF95
 1648 05a3 0B       		.byte	0xb
 1649 05a4 37       		.byte	0x37
 1650 05a5 20010000 		.4byte	0x120
 1651 05a9 08       		.byte	0x8
 1652 05aa 00       		.byte	0
 1653 05ab 0A       		.uleb128 0xa
 1654 05ac 04       		.byte	0x4
 1655 05ad 86050000 		.4byte	0x586
 1656 05b1 06       		.uleb128 0x6
 1657 05b2 CC050000 		.4byte	.LASF96
 1658 05b6 10       		.byte	0x10
 1659 05b7 0C       		.byte	0xc
 1660 05b8 39       		.byte	0x39
 1661 05b9 E2050000 		.4byte	0x5e2
 1662 05bd 07       		.uleb128 0x7
 1663 05be D9010000 		.4byte	.LASF97
ARM GAS  /var/folders/c6/c789hm653lg9vtl73krp73tm0000gn/T//ccNMqBii.s 			page 60


 1664 05c2 0C       		.byte	0xc
 1665 05c3 3A       		.byte	0x3a
 1666 05c4 63020000 		.4byte	0x263
 1667 05c8 00       		.byte	0
 1668 05c9 07       		.uleb128 0x7
 1669 05ca 3F060000 		.4byte	.LASF98
 1670 05ce 0C       		.byte	0xc
 1671 05cf 3C       		.byte	0x3c
 1672 05d0 39020000 		.4byte	0x239
 1673 05d4 08       		.byte	0x8
 1674 05d5 07       		.uleb128 0x7
 1675 05d6 53050000 		.4byte	.LASF99
 1676 05da 0C       		.byte	0xc
 1677 05db 3E       		.byte	0x3e
 1678 05dc 20060000 		.4byte	0x620
 1679 05e0 0C       		.byte	0xc
 1680 05e1 00       		.byte	0
 1681 05e2 0A       		.uleb128 0xa
 1682 05e3 04       		.byte	0x4
 1683 05e4 B1050000 		.4byte	0x5b1
 1684 05e8 0A       		.uleb128 0xa
 1685 05e9 04       		.byte	0x4
 1686 05ea EE050000 		.4byte	0x5ee
 1687 05ee 14       		.uleb128 0x14
 1688 05ef F3050000 		.4byte	0x5f3
 1689 05f3 04       		.uleb128 0x4
 1690 05f4 01       		.byte	0x1
 1691 05f5 08       		.byte	0x8
 1692 05f6 38050000 		.4byte	.LASF100
 1693 05fa 0A       		.uleb128 0xa
 1694 05fb 04       		.byte	0x4
 1695 05fc 18030000 		.4byte	0x318
 1696 0600 05       		.uleb128 0x5
 1697 0601 E8050000 		.4byte	0x5e8
 1698 0605 15       		.uleb128 0x15
 1699 0606 5E040000 		.4byte	0x45e
 1700 060a 15060000 		.4byte	0x615
 1701 060e 16       		.uleb128 0x16
 1702 060f 4C040000 		.4byte	0x44c
 1703 0613 1A       		.byte	0x1a
 1704 0614 00       		.byte	0
 1705 0615 03       		.uleb128 0x3
 1706 0616 68020000 		.4byte	.LASF101
 1707 061a 0C       		.byte	0xc
 1708 061b 34       		.byte	0x34
 1709 061c B1050000 		.4byte	0x5b1
 1710 0620 0A       		.uleb128 0xa
 1711 0621 04       		.byte	0x4
 1712 0622 15060000 		.4byte	0x615
 1713 0626 03       		.uleb128 0x3
 1714 0627 2E010000 		.4byte	.LASF102
 1715 062b 0D       		.byte	0xd
 1716 062c 36       		.byte	0x36
 1717 062d 31060000 		.4byte	0x631
 1718 0631 0A       		.uleb128 0xa
 1719 0632 04       		.byte	0x4
 1720 0633 37060000 		.4byte	0x637
ARM GAS  /var/folders/c6/c789hm653lg9vtl73krp73tm0000gn/T//ccNMqBii.s 			page 61


 1721 0637 17       		.uleb128 0x17
 1722 0638 16030000 		.4byte	0x316
 1723 063c 46060000 		.4byte	0x646
 1724 0640 0D       		.uleb128 0xd
 1725 0641 2C000000 		.4byte	0x2c
 1726 0645 00       		.byte	0
 1727 0646 03       		.uleb128 0x3
 1728 0647 23020000 		.4byte	.LASF103
 1729 064b 0E       		.byte	0xe
 1730 064c 3C       		.byte	0x3c
 1731 064d 51060000 		.4byte	0x651
 1732 0651 06       		.uleb128 0x6
 1733 0652 55060000 		.4byte	.LASF104
 1734 0656 20       		.byte	0x20
 1735 0657 0E       		.byte	0xe
 1736 0658 4F       		.byte	0x4f
 1737 0659 82060000 		.4byte	0x682
 1738 065d 07       		.uleb128 0x7
 1739 065e EA050000 		.4byte	.LASF105
 1740 0662 0E       		.byte	0xe
 1741 0663 50       		.byte	0x50
 1742 0664 26060000 		.4byte	0x626
 1743 0668 00       		.byte	0
 1744 0669 07       		.uleb128 0x7
 1745 066a 5B010000 		.4byte	.LASF106
 1746 066e 0E       		.byte	0xe
 1747 066f 52       		.byte	0x52
 1748 0670 A1060000 		.4byte	0x6a1
 1749 0674 08       		.byte	0x8
 1750 0675 07       		.uleb128 0x7
 1751 0676 CB010000 		.4byte	.LASF107
 1752 067a 0E       		.byte	0xe
 1753 067b 54       		.byte	0x54
 1754 067c 15060000 		.4byte	0x615
 1755 0680 10       		.byte	0x10
 1756 0681 00       		.byte	0
 1757 0682 12       		.uleb128 0x12
 1758 0683 04       		.byte	0x4
 1759 0684 0E       		.byte	0xe
 1760 0685 44       		.byte	0x44
 1761 0686 A1060000 		.4byte	0x6a1
 1762 068a 18       		.uleb128 0x18
 1763 068b F4000000 		.4byte	.LASF108
 1764 068f 0E       		.byte	0xe
 1765 0690 45       		.byte	0x45
 1766 0691 C2060000 		.4byte	0x6c2
 1767 0695 18       		.uleb128 0x18
 1768 0696 C9040000 		.4byte	.LASF109
 1769 069a 0E       		.byte	0xe
 1770 069b 46       		.byte	0x46
 1771 069c C8060000 		.4byte	0x6c8
 1772 06a0 00       		.byte	0
 1773 06a1 19       		.uleb128 0x19
 1774 06a2 2F040000 		.4byte	.LASF128
 1775 06a6 08       		.byte	0x8
 1776 06a7 0E       		.byte	0xe
 1777 06a8 41       		.byte	0x41
ARM GAS  /var/folders/c6/c789hm653lg9vtl73krp73tm0000gn/T//ccNMqBii.s 			page 62


 1778 06a9 C2060000 		.4byte	0x6c2
 1779 06ad 18       		.uleb128 0x18
 1780 06ae 95010000 		.4byte	.LASF110
 1781 06b2 0E       		.byte	0xe
 1782 06b3 42       		.byte	0x42
 1783 06b4 5E040000 		.4byte	0x45e
 1784 06b8 1A       		.uleb128 0x1a
 1785 06b9 6800     		.ascii	"h\000"
 1786 06bb 0E       		.byte	0xe
 1787 06bc 49       		.byte	0x49
 1788 06bd CE060000 		.4byte	0x6ce
 1789 06c1 00       		.byte	0
 1790 06c2 0A       		.uleb128 0xa
 1791 06c3 04       		.byte	0x4
 1792 06c4 A1060000 		.4byte	0x6a1
 1793 06c8 0A       		.uleb128 0xa
 1794 06c9 04       		.byte	0x4
 1795 06ca 46060000 		.4byte	0x646
 1796 06ce 11       		.uleb128 0x11
 1797 06cf 08       		.byte	0x8
 1798 06d0 0E       		.byte	0xe
 1799 06d1 43       		.byte	0x43
 1800 06d2 ED060000 		.4byte	0x6ed
 1801 06d6 10       		.uleb128 0x10
 1802 06d7 7500     		.ascii	"u\000"
 1803 06d9 0E       		.byte	0xe
 1804 06da 47       		.byte	0x47
 1805 06db 82060000 		.4byte	0x682
 1806 06df 00       		.byte	0
 1807 06e0 07       		.uleb128 0x7
 1808 06e1 25060000 		.4byte	.LASF111
 1809 06e5 0E       		.byte	0xe
 1810 06e6 48       		.byte	0x48
 1811 06e7 2C000000 		.4byte	0x2c
 1812 06eb 04       		.byte	0x4
 1813 06ec 00       		.byte	0
 1814 06ed 1B       		.uleb128 0x1b
 1815 06ee 70020000 		.4byte	.LASF112
 1816 06f2 01       		.byte	0x1
 1817 06f3 5B       		.byte	0x5b
 1818 06f4 00000000 		.4byte	.LFB229
 1819 06f8 1C000000 		.4byte	.LFE229-.LFB229
 1820 06fc 01       		.uleb128 0x1
 1821 06fd 9C       		.byte	0x9c
 1822 06fe 16070000 		.4byte	0x716
 1823 0702 1C       		.uleb128 0x1c
 1824 0703 14000000 		.4byte	.LVL0
 1825 0707 8D090000 		.4byte	0x98d
 1826 070b 1D       		.uleb128 0x1d
 1827 070c 01       		.uleb128 0x1
 1828 070d 50       		.byte	0x50
 1829 070e 05       		.uleb128 0x5
 1830 070f 03       		.byte	0x3
 1831 0710 10000000 		.4byte	.LANCHOR0+16
 1832 0714 00       		.byte	0
 1833 0715 00       		.byte	0
 1834 0716 1B       		.uleb128 0x1b
ARM GAS  /var/folders/c6/c789hm653lg9vtl73krp73tm0000gn/T//ccNMqBii.s 			page 63


 1835 0717 32030000 		.4byte	.LASF113
 1836 071b 01       		.byte	0x1
 1837 071c 72       		.byte	0x72
 1838 071d 00000000 		.4byte	.LFB230
 1839 0721 14000000 		.4byte	.LFE230-.LFB230
 1840 0725 01       		.uleb128 0x1
 1841 0726 9C       		.byte	0x9c
 1842 0727 83070000 		.4byte	0x783
 1843 072b 1E       		.uleb128 0x1e
 1844 072c 8F010000 		.4byte	.LASF114
 1845 0730 01       		.byte	0x1
 1846 0731 72       		.byte	0x72
 1847 0732 C8060000 		.4byte	0x6c8
 1848 0736 00000000 		.4byte	.LLST0
 1849 073a 1F       		.uleb128 0x1f
 1850 073b 62756600 		.ascii	"buf\000"
 1851 073f 01       		.byte	0x1
 1852 0740 72       		.byte	0x72
 1853 0741 16030000 		.4byte	0x316
 1854 0745 2E000000 		.4byte	.LLST1
 1855 0749 1E       		.uleb128 0x1e
 1856 074a 25060000 		.4byte	.LASF111
 1857 074e 01       		.byte	0x1
 1858 074f 72       		.byte	0x72
 1859 0750 2C000000 		.4byte	0x2c
 1860 0754 4F000000 		.4byte	.LLST2
 1861 0758 20       		.uleb128 0x20
 1862 0759 687000   		.ascii	"hp\000"
 1863 075c 01       		.byte	0x1
 1864 075d 73       		.byte	0x73
 1865 075e C2060000 		.4byte	0x6c2
 1866 0762 2E000000 		.4byte	.LLST1
 1867 0766 21       		.uleb128 0x21
 1868 0767 19030000 		.4byte	.LASF116
 1869 076b 93070000 		.4byte	0x793
 1870 076f 1C       		.uleb128 0x1c
 1871 0770 14000000 		.4byte	.LVL4
 1872 0774 8D090000 		.4byte	0x98d
 1873 0778 1D       		.uleb128 0x1d
 1874 0779 01       		.uleb128 0x1
 1875 077a 50       		.byte	0x50
 1876 077b 05       		.uleb128 0x5
 1877 077c F3       		.byte	0xf3
 1878 077d 01       		.uleb128 0x1
 1879 077e 50       		.byte	0x50
 1880 077f 23       		.byte	0x23
 1881 0780 10       		.uleb128 0x10
 1882 0781 00       		.byte	0
 1883 0782 00       		.byte	0
 1884 0783 15       		.uleb128 0x15
 1885 0784 F3050000 		.4byte	0x5f3
 1886 0788 93070000 		.4byte	0x793
 1887 078c 16       		.uleb128 0x16
 1888 078d 4C040000 		.4byte	0x44c
 1889 0791 10       		.byte	0x10
 1890 0792 00       		.byte	0
 1891 0793 14       		.uleb128 0x14
ARM GAS  /var/folders/c6/c789hm653lg9vtl73krp73tm0000gn/T//ccNMqBii.s 			page 64


 1892 0794 83070000 		.4byte	0x783
 1893 0798 22       		.uleb128 0x22
 1894 0799 74040000 		.4byte	.LASF118
 1895 079d 01       		.byte	0x1
 1896 079e 93       		.byte	0x93
 1897 079f 16030000 		.4byte	0x316
 1898 07a3 00000000 		.4byte	.LFB231
 1899 07a7 8C000000 		.4byte	.LFE231-.LFB231
 1900 07ab 01       		.uleb128 0x1
 1901 07ac 9C       		.byte	0x9c
 1902 07ad 42080000 		.4byte	0x842
 1903 07b1 1E       		.uleb128 0x1e
 1904 07b2 8F010000 		.4byte	.LASF114
 1905 07b6 01       		.byte	0x1
 1906 07b7 93       		.byte	0x93
 1907 07b8 C8060000 		.4byte	0x6c8
 1908 07bc 7D000000 		.4byte	.LLST4
 1909 07c0 1E       		.uleb128 0x1e
 1910 07c1 25060000 		.4byte	.LASF111
 1911 07c5 01       		.byte	0x1
 1912 07c6 93       		.byte	0x93
 1913 07c7 2C000000 		.4byte	0x2c
 1914 07cb 9B000000 		.4byte	.LLST5
 1915 07cf 20       		.uleb128 0x20
 1916 07d0 717000   		.ascii	"qp\000"
 1917 07d3 01       		.byte	0x1
 1918 07d4 94       		.byte	0x94
 1919 07d5 C2060000 		.4byte	0x6c2
 1920 07d9 C6000000 		.4byte	.LLST6
 1921 07dd 20       		.uleb128 0x20
 1922 07de 687000   		.ascii	"hp\000"
 1923 07e1 01       		.byte	0x1
 1924 07e2 94       		.byte	0x94
 1925 07e3 C2060000 		.4byte	0x6c2
 1926 07e7 EF000000 		.4byte	.LLST7
 1927 07eb 20       		.uleb128 0x20
 1928 07ec 667000   		.ascii	"fp\000"
 1929 07ef 01       		.byte	0x1
 1930 07f0 94       		.byte	0x94
 1931 07f1 C2060000 		.4byte	0x6c2
 1932 07f5 48010000 		.4byte	.LLST8
 1933 07f9 23       		.uleb128 0x23
 1934 07fa 1E000000 		.4byte	.LVL10
 1935 07fe 9E090000 		.4byte	0x99e
 1936 0802 0D080000 		.4byte	0x80d
 1937 0806 1D       		.uleb128 0x1d
 1938 0807 01       		.uleb128 0x1
 1939 0808 50       		.byte	0x50
 1940 0809 02       		.uleb128 0x2
 1941 080a 77       		.byte	0x77
 1942 080b 00       		.sleb128 0
 1943 080c 00       		.byte	0
 1944 080d 23       		.uleb128 0x23
 1945 080e 34000000 		.4byte	.LVL14
 1946 0812 AF090000 		.4byte	0x9af
 1947 0816 21080000 		.4byte	0x821
 1948 081a 1D       		.uleb128 0x1d
ARM GAS  /var/folders/c6/c789hm653lg9vtl73krp73tm0000gn/T//ccNMqBii.s 			page 65


 1949 081b 01       		.uleb128 0x1
 1950 081c 50       		.byte	0x50
 1951 081d 02       		.uleb128 0x2
 1952 081e 77       		.byte	0x77
 1953 081f 00       		.sleb128 0
 1954 0820 00       		.byte	0
 1955 0821 24       		.uleb128 0x24
 1956 0822 3E000000 		.4byte	.LVL15
 1957 0826 31080000 		.4byte	0x831
 1958 082a 1D       		.uleb128 0x1d
 1959 082b 01       		.uleb128 0x1
 1960 082c 50       		.byte	0x50
 1961 082d 02       		.uleb128 0x2
 1962 082e 75       		.byte	0x75
 1963 082f 08       		.sleb128 8
 1964 0830 00       		.byte	0
 1965 0831 25       		.uleb128 0x25
 1966 0832 64000000 		.4byte	.LVL20
 1967 0836 AF090000 		.4byte	0x9af
 1968 083a 1D       		.uleb128 0x1d
 1969 083b 01       		.uleb128 0x1
 1970 083c 50       		.byte	0x50
 1971 083d 02       		.uleb128 0x2
 1972 083e 77       		.byte	0x77
 1973 083f 00       		.sleb128 0
 1974 0840 00       		.byte	0
 1975 0841 00       		.byte	0
 1976 0842 1B       		.uleb128 0x1b
 1977 0843 E1010000 		.4byte	.LASF115
 1978 0847 01       		.byte	0x1
 1979 0848 D5       		.byte	0xd5
 1980 0849 00000000 		.4byte	.LFB232
 1981 084d 98000000 		.4byte	.LFE232-.LFB232
 1982 0851 01       		.uleb128 0x1
 1983 0852 9C       		.byte	0x9c
 1984 0853 BF080000 		.4byte	0x8bf
 1985 0857 1F       		.uleb128 0x1f
 1986 0858 7000     		.ascii	"p\000"
 1987 085a 01       		.byte	0x1
 1988 085b D5       		.byte	0xd5
 1989 085c 16030000 		.4byte	0x316
 1990 0860 5B010000 		.4byte	.LLST9
 1991 0864 20       		.uleb128 0x20
 1992 0865 717000   		.ascii	"qp\000"
 1993 0868 01       		.byte	0x1
 1994 0869 D6       		.byte	0xd6
 1995 086a C2060000 		.4byte	0x6c2
 1996 086e A0010000 		.4byte	.LLST10
 1997 0872 20       		.uleb128 0x20
 1998 0873 687000   		.ascii	"hp\000"
 1999 0876 01       		.byte	0x1
 2000 0877 D6       		.byte	0xd6
 2001 0878 C2060000 		.4byte	0x6c2
 2002 087c D4010000 		.4byte	.LLST11
 2003 0880 26       		.uleb128 0x26
 2004 0881 8F010000 		.4byte	.LASF114
 2005 0885 01       		.byte	0x1
ARM GAS  /var/folders/c6/c789hm653lg9vtl73krp73tm0000gn/T//ccNMqBii.s 			page 66


 2006 0886 D7       		.byte	0xd7
 2007 0887 C8060000 		.4byte	0x6c8
 2008 088b 12020000 		.4byte	.LLST12
 2009 088f 21       		.uleb128 0x21
 2010 0890 15020000 		.4byte	.LASF117
 2011 0894 CF080000 		.4byte	0x8cf
 2012 0898 23       		.uleb128 0x23
 2013 0899 18000000 		.4byte	.LVL29
 2014 089d 9E090000 		.4byte	0x99e
 2015 08a1 AC080000 		.4byte	0x8ac
 2016 08a5 1D       		.uleb128 0x1d
 2017 08a6 01       		.uleb128 0x1
 2018 08a7 50       		.byte	0x50
 2019 08a8 02       		.uleb128 0x2
 2020 08a9 77       		.byte	0x77
 2021 08aa 00       		.sleb128 0
 2022 08ab 00       		.byte	0
 2023 08ac 27       		.uleb128 0x27
 2024 08ad 62000000 		.4byte	.LVL36
 2025 08b1 AF090000 		.4byte	0x9af
 2026 08b5 27       		.uleb128 0x27
 2027 08b6 98000000 		.4byte	.LVL38
 2028 08ba AF090000 		.4byte	0x9af
 2029 08be 00       		.byte	0
 2030 08bf 15       		.uleb128 0x15
 2031 08c0 F3050000 		.4byte	0x5f3
 2032 08c4 CF080000 		.4byte	0x8cf
 2033 08c8 16       		.uleb128 0x16
 2034 08c9 4C040000 		.4byte	0x44c
 2035 08cd 0A       		.byte	0xa
 2036 08ce 00       		.byte	0
 2037 08cf 14       		.uleb128 0x14
 2038 08d0 BF080000 		.4byte	0x8bf
 2039 08d4 28       		.uleb128 0x28
 2040 08d5 46050000 		.4byte	.LASF119
 2041 08d9 01       		.byte	0x1
 2042 08da 0B01     		.2byte	0x10b
 2043 08dc 2C000000 		.4byte	0x2c
 2044 08e0 00000000 		.4byte	.LFB233
 2045 08e4 40000000 		.4byte	.LFE233-.LFB233
 2046 08e8 01       		.uleb128 0x1
 2047 08e9 9C       		.byte	0x9c
 2048 08ea 5F090000 		.4byte	0x95f
 2049 08ee 29       		.uleb128 0x29
 2050 08ef 8F010000 		.4byte	.LASF114
 2051 08f3 01       		.byte	0x1
 2052 08f4 0B01     		.2byte	0x10b
 2053 08f6 C8060000 		.4byte	0x6c8
 2054 08fa 72020000 		.4byte	.LLST13
 2055 08fe 29       		.uleb128 0x29
 2056 08ff 18060000 		.4byte	.LASF120
 2057 0903 01       		.byte	0x1
 2058 0904 0B01     		.2byte	0x10b
 2059 0906 5F090000 		.4byte	0x95f
 2060 090a B5020000 		.4byte	.LLST14
 2061 090e 2A       		.uleb128 0x2a
 2062 090f 717000   		.ascii	"qp\000"
ARM GAS  /var/folders/c6/c789hm653lg9vtl73krp73tm0000gn/T//ccNMqBii.s 			page 67


 2063 0912 01       		.byte	0x1
 2064 0913 0C01     		.2byte	0x10c
 2065 0915 C2060000 		.4byte	0x6c2
 2066 0919 D3020000 		.4byte	.LLST15
 2067 091d 2A       		.uleb128 0x2a
 2068 091e 6E00     		.ascii	"n\000"
 2069 0920 01       		.byte	0x1
 2070 0921 0D01     		.2byte	0x10d
 2071 0923 2C000000 		.4byte	0x2c
 2072 0927 0F030000 		.4byte	.LLST16
 2073 092b 2A       		.uleb128 0x2a
 2074 092c 737A00   		.ascii	"sz\000"
 2075 092f 01       		.byte	0x1
 2076 0930 0D01     		.2byte	0x10d
 2077 0932 2C000000 		.4byte	0x2c
 2078 0936 52030000 		.4byte	.LLST17
 2079 093a 23       		.uleb128 0x23
 2080 093b 16000000 		.4byte	.LVL41
 2081 093f 9E090000 		.4byte	0x99e
 2082 0943 4E090000 		.4byte	0x94e
 2083 0947 1D       		.uleb128 0x1d
 2084 0948 01       		.uleb128 0x1
 2085 0949 50       		.byte	0x50
 2086 094a 02       		.uleb128 0x2
 2087 094b 76       		.byte	0x76
 2088 094c 00       		.sleb128 0
 2089 094d 00       		.byte	0
 2090 094e 25       		.uleb128 0x25
 2091 094f 32000000 		.4byte	.LVL46
 2092 0953 AF090000 		.4byte	0x9af
 2093 0957 1D       		.uleb128 0x1d
 2094 0958 01       		.uleb128 0x1
 2095 0959 50       		.byte	0x50
 2096 095a 02       		.uleb128 0x2
 2097 095b 76       		.byte	0x76
 2098 095c 00       		.sleb128 0
 2099 095d 00       		.byte	0
 2100 095e 00       		.byte	0
 2101 095f 0A       		.uleb128 0xa
 2102 0960 04       		.byte	0x4
 2103 0961 2C000000 		.4byte	0x2c
 2104 0965 2B       		.uleb128 0x2b
 2105 0966 2B050000 		.4byte	.LASF121
 2106 096a 01       		.byte	0x1
 2107 096b 4C       		.byte	0x4c
 2108 096c 46060000 		.4byte	0x646
 2109 0970 05       		.uleb128 0x5
 2110 0971 03       		.byte	0x3
 2111 0972 00000000 		.4byte	default_heap
 2112 0976 2C       		.uleb128 0x2c
 2113 0977 82010000 		.4byte	.LASF122
 2114 097b 0F       		.byte	0xf
 2115 097c A706     		.2byte	0x6a7
 2116 097e CE000000 		.4byte	0xce
 2117 0982 2D       		.uleb128 0x2d
 2118 0983 636800   		.ascii	"ch\000"
 2119 0986 07       		.byte	0x7
ARM GAS  /var/folders/c6/c789hm653lg9vtl73krp73tm0000gn/T//ccNMqBii.s 			page 68


 2120 0987 0902     		.2byte	0x209
 2121 0989 E5030000 		.4byte	0x3e5
 2122 098d 2E       		.uleb128 0x2e
 2123 098e F9030000 		.4byte	.LASF123
 2124 0992 0C       		.byte	0xc
 2125 0993 67       		.byte	0x67
 2126 0994 9E090000 		.4byte	0x99e
 2127 0998 0D       		.uleb128 0xd
 2128 0999 20060000 		.4byte	0x620
 2129 099d 00       		.byte	0
 2130 099e 2E       		.uleb128 0x2e
 2131 099f 8C030000 		.4byte	.LASF124
 2132 09a3 0C       		.byte	0xc
 2133 09a4 68       		.byte	0x68
 2134 09a5 AF090000 		.4byte	0x9af
 2135 09a9 0D       		.uleb128 0xd
 2136 09aa 20060000 		.4byte	0x620
 2137 09ae 00       		.byte	0
 2138 09af 2F       		.uleb128 0x2f
 2139 09b0 B3010000 		.4byte	.LASF129
 2140 09b4 0C       		.byte	0xc
 2141 09b5 6C       		.byte	0x6c
 2142 09b6 0D       		.uleb128 0xd
 2143 09b7 20060000 		.4byte	0x620
 2144 09bb 00       		.byte	0
 2145 09bc 00       		.byte	0
 2146              		.section	.debug_abbrev,"",%progbits
 2147              	.Ldebug_abbrev0:
 2148 0000 01       		.uleb128 0x1
 2149 0001 11       		.uleb128 0x11
 2150 0002 01       		.byte	0x1
 2151 0003 25       		.uleb128 0x25
 2152 0004 0E       		.uleb128 0xe
 2153 0005 13       		.uleb128 0x13
 2154 0006 0B       		.uleb128 0xb
 2155 0007 03       		.uleb128 0x3
 2156 0008 0E       		.uleb128 0xe
 2157 0009 1B       		.uleb128 0x1b
 2158 000a 0E       		.uleb128 0xe
 2159 000b 55       		.uleb128 0x55
 2160 000c 17       		.uleb128 0x17
 2161 000d 11       		.uleb128 0x11
 2162 000e 01       		.uleb128 0x1
 2163 000f 10       		.uleb128 0x10
 2164 0010 17       		.uleb128 0x17
 2165 0011 00       		.byte	0
 2166 0012 00       		.byte	0
 2167 0013 02       		.uleb128 0x2
 2168 0014 24       		.uleb128 0x24
 2169 0015 00       		.byte	0
 2170 0016 0B       		.uleb128 0xb
 2171 0017 0B       		.uleb128 0xb
 2172 0018 3E       		.uleb128 0x3e
 2173 0019 0B       		.uleb128 0xb
 2174 001a 03       		.uleb128 0x3
 2175 001b 08       		.uleb128 0x8
 2176 001c 00       		.byte	0
ARM GAS  /var/folders/c6/c789hm653lg9vtl73krp73tm0000gn/T//ccNMqBii.s 			page 69


 2177 001d 00       		.byte	0
 2178 001e 03       		.uleb128 0x3
 2179 001f 16       		.uleb128 0x16
 2180 0020 00       		.byte	0
 2181 0021 03       		.uleb128 0x3
 2182 0022 0E       		.uleb128 0xe
 2183 0023 3A       		.uleb128 0x3a
 2184 0024 0B       		.uleb128 0xb
 2185 0025 3B       		.uleb128 0x3b
 2186 0026 0B       		.uleb128 0xb
 2187 0027 49       		.uleb128 0x49
 2188 0028 13       		.uleb128 0x13
 2189 0029 00       		.byte	0
 2190 002a 00       		.byte	0
 2191 002b 04       		.uleb128 0x4
 2192 002c 24       		.uleb128 0x24
 2193 002d 00       		.byte	0
 2194 002e 0B       		.uleb128 0xb
 2195 002f 0B       		.uleb128 0xb
 2196 0030 3E       		.uleb128 0x3e
 2197 0031 0B       		.uleb128 0xb
 2198 0032 03       		.uleb128 0x3
 2199 0033 0E       		.uleb128 0xe
 2200 0034 00       		.byte	0
 2201 0035 00       		.byte	0
 2202 0036 05       		.uleb128 0x5
 2203 0037 35       		.uleb128 0x35
 2204 0038 00       		.byte	0
 2205 0039 49       		.uleb128 0x49
 2206 003a 13       		.uleb128 0x13
 2207 003b 00       		.byte	0
 2208 003c 00       		.byte	0
 2209 003d 06       		.uleb128 0x6
 2210 003e 13       		.uleb128 0x13
 2211 003f 01       		.byte	0x1
 2212 0040 03       		.uleb128 0x3
 2213 0041 0E       		.uleb128 0xe
 2214 0042 0B       		.uleb128 0xb
 2215 0043 0B       		.uleb128 0xb
 2216 0044 3A       		.uleb128 0x3a
 2217 0045 0B       		.uleb128 0xb
 2218 0046 3B       		.uleb128 0x3b
 2219 0047 0B       		.uleb128 0xb
 2220 0048 01       		.uleb128 0x1
 2221 0049 13       		.uleb128 0x13
 2222 004a 00       		.byte	0
 2223 004b 00       		.byte	0
 2224 004c 07       		.uleb128 0x7
 2225 004d 0D       		.uleb128 0xd
 2226 004e 00       		.byte	0
 2227 004f 03       		.uleb128 0x3
 2228 0050 0E       		.uleb128 0xe
 2229 0051 3A       		.uleb128 0x3a
 2230 0052 0B       		.uleb128 0xb
 2231 0053 3B       		.uleb128 0x3b
 2232 0054 0B       		.uleb128 0xb
 2233 0055 49       		.uleb128 0x49
ARM GAS  /var/folders/c6/c789hm653lg9vtl73krp73tm0000gn/T//ccNMqBii.s 			page 70


 2234 0056 13       		.uleb128 0x13
 2235 0057 38       		.uleb128 0x38
 2236 0058 0B       		.uleb128 0xb
 2237 0059 00       		.byte	0
 2238 005a 00       		.byte	0
 2239 005b 08       		.uleb128 0x8
 2240 005c 0D       		.uleb128 0xd
 2241 005d 00       		.byte	0
 2242 005e 03       		.uleb128 0x3
 2243 005f 08       		.uleb128 0x8
 2244 0060 3A       		.uleb128 0x3a
 2245 0061 0B       		.uleb128 0xb
 2246 0062 3B       		.uleb128 0x3b
 2247 0063 05       		.uleb128 0x5
 2248 0064 49       		.uleb128 0x49
 2249 0065 13       		.uleb128 0x13
 2250 0066 38       		.uleb128 0x38
 2251 0067 0B       		.uleb128 0xb
 2252 0068 00       		.byte	0
 2253 0069 00       		.byte	0
 2254 006a 09       		.uleb128 0x9
 2255 006b 0D       		.uleb128 0xd
 2256 006c 00       		.byte	0
 2257 006d 03       		.uleb128 0x3
 2258 006e 0E       		.uleb128 0xe
 2259 006f 3A       		.uleb128 0x3a
 2260 0070 0B       		.uleb128 0xb
 2261 0071 3B       		.uleb128 0x3b
 2262 0072 05       		.uleb128 0x5
 2263 0073 49       		.uleb128 0x49
 2264 0074 13       		.uleb128 0x13
 2265 0075 38       		.uleb128 0x38
 2266 0076 0B       		.uleb128 0xb
 2267 0077 00       		.byte	0
 2268 0078 00       		.byte	0
 2269 0079 0A       		.uleb128 0xa
 2270 007a 0F       		.uleb128 0xf
 2271 007b 00       		.byte	0
 2272 007c 0B       		.uleb128 0xb
 2273 007d 0B       		.uleb128 0xb
 2274 007e 49       		.uleb128 0x49
 2275 007f 13       		.uleb128 0x13
 2276 0080 00       		.byte	0
 2277 0081 00       		.byte	0
 2278 0082 0B       		.uleb128 0xb
 2279 0083 13       		.uleb128 0x13
 2280 0084 01       		.byte	0x1
 2281 0085 03       		.uleb128 0x3
 2282 0086 0E       		.uleb128 0xe
 2283 0087 0B       		.uleb128 0xb
 2284 0088 0B       		.uleb128 0xb
 2285 0089 3A       		.uleb128 0x3a
 2286 008a 0B       		.uleb128 0xb
 2287 008b 3B       		.uleb128 0x3b
 2288 008c 05       		.uleb128 0x5
 2289 008d 01       		.uleb128 0x1
 2290 008e 13       		.uleb128 0x13
ARM GAS  /var/folders/c6/c789hm653lg9vtl73krp73tm0000gn/T//ccNMqBii.s 			page 71


 2291 008f 00       		.byte	0
 2292 0090 00       		.byte	0
 2293 0091 0C       		.uleb128 0xc
 2294 0092 15       		.uleb128 0x15
 2295 0093 01       		.byte	0x1
 2296 0094 27       		.uleb128 0x27
 2297 0095 19       		.uleb128 0x19
 2298 0096 01       		.uleb128 0x1
 2299 0097 13       		.uleb128 0x13
 2300 0098 00       		.byte	0
 2301 0099 00       		.byte	0
 2302 009a 0D       		.uleb128 0xd
 2303 009b 05       		.uleb128 0x5
 2304 009c 00       		.byte	0
 2305 009d 49       		.uleb128 0x49
 2306 009e 13       		.uleb128 0x13
 2307 009f 00       		.byte	0
 2308 00a0 00       		.byte	0
 2309 00a1 0E       		.uleb128 0xe
 2310 00a2 0F       		.uleb128 0xf
 2311 00a3 00       		.byte	0
 2312 00a4 0B       		.uleb128 0xb
 2313 00a5 0B       		.uleb128 0xb
 2314 00a6 00       		.byte	0
 2315 00a7 00       		.byte	0
 2316 00a8 0F       		.uleb128 0xf
 2317 00a9 13       		.uleb128 0x13
 2318 00aa 01       		.byte	0x1
 2319 00ab 03       		.uleb128 0x3
 2320 00ac 0E       		.uleb128 0xe
 2321 00ad 0B       		.uleb128 0xb
 2322 00ae 05       		.uleb128 0x5
 2323 00af 3A       		.uleb128 0x3a
 2324 00b0 0B       		.uleb128 0xb
 2325 00b1 3B       		.uleb128 0x3b
 2326 00b2 05       		.uleb128 0x5
 2327 00b3 01       		.uleb128 0x1
 2328 00b4 13       		.uleb128 0x13
 2329 00b5 00       		.byte	0
 2330 00b6 00       		.byte	0
 2331 00b7 10       		.uleb128 0x10
 2332 00b8 0D       		.uleb128 0xd
 2333 00b9 00       		.byte	0
 2334 00ba 03       		.uleb128 0x3
 2335 00bb 08       		.uleb128 0x8
 2336 00bc 3A       		.uleb128 0x3a
 2337 00bd 0B       		.uleb128 0xb
 2338 00be 3B       		.uleb128 0x3b
 2339 00bf 0B       		.uleb128 0xb
 2340 00c0 49       		.uleb128 0x49
 2341 00c1 13       		.uleb128 0x13
 2342 00c2 38       		.uleb128 0x38
 2343 00c3 0B       		.uleb128 0xb
 2344 00c4 00       		.byte	0
 2345 00c5 00       		.byte	0
 2346 00c6 11       		.uleb128 0x11
 2347 00c7 13       		.uleb128 0x13
ARM GAS  /var/folders/c6/c789hm653lg9vtl73krp73tm0000gn/T//ccNMqBii.s 			page 72


 2348 00c8 01       		.byte	0x1
 2349 00c9 0B       		.uleb128 0xb
 2350 00ca 0B       		.uleb128 0xb
 2351 00cb 3A       		.uleb128 0x3a
 2352 00cc 0B       		.uleb128 0xb
 2353 00cd 3B       		.uleb128 0x3b
 2354 00ce 0B       		.uleb128 0xb
 2355 00cf 01       		.uleb128 0x1
 2356 00d0 13       		.uleb128 0x13
 2357 00d1 00       		.byte	0
 2358 00d2 00       		.byte	0
 2359 00d3 12       		.uleb128 0x12
 2360 00d4 17       		.uleb128 0x17
 2361 00d5 01       		.byte	0x1
 2362 00d6 0B       		.uleb128 0xb
 2363 00d7 0B       		.uleb128 0xb
 2364 00d8 3A       		.uleb128 0x3a
 2365 00d9 0B       		.uleb128 0xb
 2366 00da 3B       		.uleb128 0x3b
 2367 00db 0B       		.uleb128 0xb
 2368 00dc 01       		.uleb128 0x1
 2369 00dd 13       		.uleb128 0x13
 2370 00de 00       		.byte	0
 2371 00df 00       		.byte	0
 2372 00e0 13       		.uleb128 0x13
 2373 00e1 0D       		.uleb128 0xd
 2374 00e2 00       		.byte	0
 2375 00e3 03       		.uleb128 0x3
 2376 00e4 0E       		.uleb128 0xe
 2377 00e5 3A       		.uleb128 0x3a
 2378 00e6 0B       		.uleb128 0xb
 2379 00e7 3B       		.uleb128 0x3b
 2380 00e8 05       		.uleb128 0x5
 2381 00e9 49       		.uleb128 0x49
 2382 00ea 13       		.uleb128 0x13
 2383 00eb 00       		.byte	0
 2384 00ec 00       		.byte	0
 2385 00ed 14       		.uleb128 0x14
 2386 00ee 26       		.uleb128 0x26
 2387 00ef 00       		.byte	0
 2388 00f0 49       		.uleb128 0x49
 2389 00f1 13       		.uleb128 0x13
 2390 00f2 00       		.byte	0
 2391 00f3 00       		.byte	0
 2392 00f4 15       		.uleb128 0x15
 2393 00f5 01       		.uleb128 0x1
 2394 00f6 01       		.byte	0x1
 2395 00f7 49       		.uleb128 0x49
 2396 00f8 13       		.uleb128 0x13
 2397 00f9 01       		.uleb128 0x1
 2398 00fa 13       		.uleb128 0x13
 2399 00fb 00       		.byte	0
 2400 00fc 00       		.byte	0
 2401 00fd 16       		.uleb128 0x16
 2402 00fe 21       		.uleb128 0x21
 2403 00ff 00       		.byte	0
 2404 0100 49       		.uleb128 0x49
ARM GAS  /var/folders/c6/c789hm653lg9vtl73krp73tm0000gn/T//ccNMqBii.s 			page 73


 2405 0101 13       		.uleb128 0x13
 2406 0102 2F       		.uleb128 0x2f
 2407 0103 0B       		.uleb128 0xb
 2408 0104 00       		.byte	0
 2409 0105 00       		.byte	0
 2410 0106 17       		.uleb128 0x17
 2411 0107 15       		.uleb128 0x15
 2412 0108 01       		.byte	0x1
 2413 0109 27       		.uleb128 0x27
 2414 010a 19       		.uleb128 0x19
 2415 010b 49       		.uleb128 0x49
 2416 010c 13       		.uleb128 0x13
 2417 010d 01       		.uleb128 0x1
 2418 010e 13       		.uleb128 0x13
 2419 010f 00       		.byte	0
 2420 0110 00       		.byte	0
 2421 0111 18       		.uleb128 0x18
 2422 0112 0D       		.uleb128 0xd
 2423 0113 00       		.byte	0
 2424 0114 03       		.uleb128 0x3
 2425 0115 0E       		.uleb128 0xe
 2426 0116 3A       		.uleb128 0x3a
 2427 0117 0B       		.uleb128 0xb
 2428 0118 3B       		.uleb128 0x3b
 2429 0119 0B       		.uleb128 0xb
 2430 011a 49       		.uleb128 0x49
 2431 011b 13       		.uleb128 0x13
 2432 011c 00       		.byte	0
 2433 011d 00       		.byte	0
 2434 011e 19       		.uleb128 0x19
 2435 011f 17       		.uleb128 0x17
 2436 0120 01       		.byte	0x1
 2437 0121 03       		.uleb128 0x3
 2438 0122 0E       		.uleb128 0xe
 2439 0123 0B       		.uleb128 0xb
 2440 0124 0B       		.uleb128 0xb
 2441 0125 3A       		.uleb128 0x3a
 2442 0126 0B       		.uleb128 0xb
 2443 0127 3B       		.uleb128 0x3b
 2444 0128 0B       		.uleb128 0xb
 2445 0129 01       		.uleb128 0x1
 2446 012a 13       		.uleb128 0x13
 2447 012b 00       		.byte	0
 2448 012c 00       		.byte	0
 2449 012d 1A       		.uleb128 0x1a
 2450 012e 0D       		.uleb128 0xd
 2451 012f 00       		.byte	0
 2452 0130 03       		.uleb128 0x3
 2453 0131 08       		.uleb128 0x8
 2454 0132 3A       		.uleb128 0x3a
 2455 0133 0B       		.uleb128 0xb
 2456 0134 3B       		.uleb128 0x3b
 2457 0135 0B       		.uleb128 0xb
 2458 0136 49       		.uleb128 0x49
 2459 0137 13       		.uleb128 0x13
 2460 0138 00       		.byte	0
 2461 0139 00       		.byte	0
ARM GAS  /var/folders/c6/c789hm653lg9vtl73krp73tm0000gn/T//ccNMqBii.s 			page 74


 2462 013a 1B       		.uleb128 0x1b
 2463 013b 2E       		.uleb128 0x2e
 2464 013c 01       		.byte	0x1
 2465 013d 3F       		.uleb128 0x3f
 2466 013e 19       		.uleb128 0x19
 2467 013f 03       		.uleb128 0x3
 2468 0140 0E       		.uleb128 0xe
 2469 0141 3A       		.uleb128 0x3a
 2470 0142 0B       		.uleb128 0xb
 2471 0143 3B       		.uleb128 0x3b
 2472 0144 0B       		.uleb128 0xb
 2473 0145 27       		.uleb128 0x27
 2474 0146 19       		.uleb128 0x19
 2475 0147 11       		.uleb128 0x11
 2476 0148 01       		.uleb128 0x1
 2477 0149 12       		.uleb128 0x12
 2478 014a 06       		.uleb128 0x6
 2479 014b 40       		.uleb128 0x40
 2480 014c 18       		.uleb128 0x18
 2481 014d 9742     		.uleb128 0x2117
 2482 014f 19       		.uleb128 0x19
 2483 0150 01       		.uleb128 0x1
 2484 0151 13       		.uleb128 0x13
 2485 0152 00       		.byte	0
 2486 0153 00       		.byte	0
 2487 0154 1C       		.uleb128 0x1c
 2488 0155 898201   		.uleb128 0x4109
 2489 0158 01       		.byte	0x1
 2490 0159 11       		.uleb128 0x11
 2491 015a 01       		.uleb128 0x1
 2492 015b 9542     		.uleb128 0x2115
 2493 015d 19       		.uleb128 0x19
 2494 015e 31       		.uleb128 0x31
 2495 015f 13       		.uleb128 0x13
 2496 0160 00       		.byte	0
 2497 0161 00       		.byte	0
 2498 0162 1D       		.uleb128 0x1d
 2499 0163 8A8201   		.uleb128 0x410a
 2500 0166 00       		.byte	0
 2501 0167 02       		.uleb128 0x2
 2502 0168 18       		.uleb128 0x18
 2503 0169 9142     		.uleb128 0x2111
 2504 016b 18       		.uleb128 0x18
 2505 016c 00       		.byte	0
 2506 016d 00       		.byte	0
 2507 016e 1E       		.uleb128 0x1e
 2508 016f 05       		.uleb128 0x5
 2509 0170 00       		.byte	0
 2510 0171 03       		.uleb128 0x3
 2511 0172 0E       		.uleb128 0xe
 2512 0173 3A       		.uleb128 0x3a
 2513 0174 0B       		.uleb128 0xb
 2514 0175 3B       		.uleb128 0x3b
 2515 0176 0B       		.uleb128 0xb
 2516 0177 49       		.uleb128 0x49
 2517 0178 13       		.uleb128 0x13
 2518 0179 02       		.uleb128 0x2
ARM GAS  /var/folders/c6/c789hm653lg9vtl73krp73tm0000gn/T//ccNMqBii.s 			page 75


 2519 017a 17       		.uleb128 0x17
 2520 017b 00       		.byte	0
 2521 017c 00       		.byte	0
 2522 017d 1F       		.uleb128 0x1f
 2523 017e 05       		.uleb128 0x5
 2524 017f 00       		.byte	0
 2525 0180 03       		.uleb128 0x3
 2526 0181 08       		.uleb128 0x8
 2527 0182 3A       		.uleb128 0x3a
 2528 0183 0B       		.uleb128 0xb
 2529 0184 3B       		.uleb128 0x3b
 2530 0185 0B       		.uleb128 0xb
 2531 0186 49       		.uleb128 0x49
 2532 0187 13       		.uleb128 0x13
 2533 0188 02       		.uleb128 0x2
 2534 0189 17       		.uleb128 0x17
 2535 018a 00       		.byte	0
 2536 018b 00       		.byte	0
 2537 018c 20       		.uleb128 0x20
 2538 018d 34       		.uleb128 0x34
 2539 018e 00       		.byte	0
 2540 018f 03       		.uleb128 0x3
 2541 0190 08       		.uleb128 0x8
 2542 0191 3A       		.uleb128 0x3a
 2543 0192 0B       		.uleb128 0xb
 2544 0193 3B       		.uleb128 0x3b
 2545 0194 0B       		.uleb128 0xb
 2546 0195 49       		.uleb128 0x49
 2547 0196 13       		.uleb128 0x13
 2548 0197 02       		.uleb128 0x2
 2549 0198 17       		.uleb128 0x17
 2550 0199 00       		.byte	0
 2551 019a 00       		.byte	0
 2552 019b 21       		.uleb128 0x21
 2553 019c 34       		.uleb128 0x34
 2554 019d 00       		.byte	0
 2555 019e 03       		.uleb128 0x3
 2556 019f 0E       		.uleb128 0xe
 2557 01a0 49       		.uleb128 0x49
 2558 01a1 13       		.uleb128 0x13
 2559 01a2 34       		.uleb128 0x34
 2560 01a3 19       		.uleb128 0x19
 2561 01a4 00       		.byte	0
 2562 01a5 00       		.byte	0
 2563 01a6 22       		.uleb128 0x22
 2564 01a7 2E       		.uleb128 0x2e
 2565 01a8 01       		.byte	0x1
 2566 01a9 3F       		.uleb128 0x3f
 2567 01aa 19       		.uleb128 0x19
 2568 01ab 03       		.uleb128 0x3
 2569 01ac 0E       		.uleb128 0xe
 2570 01ad 3A       		.uleb128 0x3a
 2571 01ae 0B       		.uleb128 0xb
 2572 01af 3B       		.uleb128 0x3b
 2573 01b0 0B       		.uleb128 0xb
 2574 01b1 27       		.uleb128 0x27
 2575 01b2 19       		.uleb128 0x19
ARM GAS  /var/folders/c6/c789hm653lg9vtl73krp73tm0000gn/T//ccNMqBii.s 			page 76


 2576 01b3 49       		.uleb128 0x49
 2577 01b4 13       		.uleb128 0x13
 2578 01b5 11       		.uleb128 0x11
 2579 01b6 01       		.uleb128 0x1
 2580 01b7 12       		.uleb128 0x12
 2581 01b8 06       		.uleb128 0x6
 2582 01b9 40       		.uleb128 0x40
 2583 01ba 18       		.uleb128 0x18
 2584 01bb 9742     		.uleb128 0x2117
 2585 01bd 19       		.uleb128 0x19
 2586 01be 01       		.uleb128 0x1
 2587 01bf 13       		.uleb128 0x13
 2588 01c0 00       		.byte	0
 2589 01c1 00       		.byte	0
 2590 01c2 23       		.uleb128 0x23
 2591 01c3 898201   		.uleb128 0x4109
 2592 01c6 01       		.byte	0x1
 2593 01c7 11       		.uleb128 0x11
 2594 01c8 01       		.uleb128 0x1
 2595 01c9 31       		.uleb128 0x31
 2596 01ca 13       		.uleb128 0x13
 2597 01cb 01       		.uleb128 0x1
 2598 01cc 13       		.uleb128 0x13
 2599 01cd 00       		.byte	0
 2600 01ce 00       		.byte	0
 2601 01cf 24       		.uleb128 0x24
 2602 01d0 898201   		.uleb128 0x4109
 2603 01d3 01       		.byte	0x1
 2604 01d4 11       		.uleb128 0x11
 2605 01d5 01       		.uleb128 0x1
 2606 01d6 01       		.uleb128 0x1
 2607 01d7 13       		.uleb128 0x13
 2608 01d8 00       		.byte	0
 2609 01d9 00       		.byte	0
 2610 01da 25       		.uleb128 0x25
 2611 01db 898201   		.uleb128 0x4109
 2612 01de 01       		.byte	0x1
 2613 01df 11       		.uleb128 0x11
 2614 01e0 01       		.uleb128 0x1
 2615 01e1 31       		.uleb128 0x31
 2616 01e2 13       		.uleb128 0x13
 2617 01e3 00       		.byte	0
 2618 01e4 00       		.byte	0
 2619 01e5 26       		.uleb128 0x26
 2620 01e6 34       		.uleb128 0x34
 2621 01e7 00       		.byte	0
 2622 01e8 03       		.uleb128 0x3
 2623 01e9 0E       		.uleb128 0xe
 2624 01ea 3A       		.uleb128 0x3a
 2625 01eb 0B       		.uleb128 0xb
 2626 01ec 3B       		.uleb128 0x3b
 2627 01ed 0B       		.uleb128 0xb
 2628 01ee 49       		.uleb128 0x49
 2629 01ef 13       		.uleb128 0x13
 2630 01f0 02       		.uleb128 0x2
 2631 01f1 17       		.uleb128 0x17
 2632 01f2 00       		.byte	0
ARM GAS  /var/folders/c6/c789hm653lg9vtl73krp73tm0000gn/T//ccNMqBii.s 			page 77


 2633 01f3 00       		.byte	0
 2634 01f4 27       		.uleb128 0x27
 2635 01f5 898201   		.uleb128 0x4109
 2636 01f8 00       		.byte	0
 2637 01f9 11       		.uleb128 0x11
 2638 01fa 01       		.uleb128 0x1
 2639 01fb 9542     		.uleb128 0x2115
 2640 01fd 19       		.uleb128 0x19
 2641 01fe 31       		.uleb128 0x31
 2642 01ff 13       		.uleb128 0x13
 2643 0200 00       		.byte	0
 2644 0201 00       		.byte	0
 2645 0202 28       		.uleb128 0x28
 2646 0203 2E       		.uleb128 0x2e
 2647 0204 01       		.byte	0x1
 2648 0205 3F       		.uleb128 0x3f
 2649 0206 19       		.uleb128 0x19
 2650 0207 03       		.uleb128 0x3
 2651 0208 0E       		.uleb128 0xe
 2652 0209 3A       		.uleb128 0x3a
 2653 020a 0B       		.uleb128 0xb
 2654 020b 3B       		.uleb128 0x3b
 2655 020c 05       		.uleb128 0x5
 2656 020d 27       		.uleb128 0x27
 2657 020e 19       		.uleb128 0x19
 2658 020f 49       		.uleb128 0x49
 2659 0210 13       		.uleb128 0x13
 2660 0211 11       		.uleb128 0x11
 2661 0212 01       		.uleb128 0x1
 2662 0213 12       		.uleb128 0x12
 2663 0214 06       		.uleb128 0x6
 2664 0215 40       		.uleb128 0x40
 2665 0216 18       		.uleb128 0x18
 2666 0217 9742     		.uleb128 0x2117
 2667 0219 19       		.uleb128 0x19
 2668 021a 01       		.uleb128 0x1
 2669 021b 13       		.uleb128 0x13
 2670 021c 00       		.byte	0
 2671 021d 00       		.byte	0
 2672 021e 29       		.uleb128 0x29
 2673 021f 05       		.uleb128 0x5
 2674 0220 00       		.byte	0
 2675 0221 03       		.uleb128 0x3
 2676 0222 0E       		.uleb128 0xe
 2677 0223 3A       		.uleb128 0x3a
 2678 0224 0B       		.uleb128 0xb
 2679 0225 3B       		.uleb128 0x3b
 2680 0226 05       		.uleb128 0x5
 2681 0227 49       		.uleb128 0x49
 2682 0228 13       		.uleb128 0x13
 2683 0229 02       		.uleb128 0x2
 2684 022a 17       		.uleb128 0x17
 2685 022b 00       		.byte	0
 2686 022c 00       		.byte	0
 2687 022d 2A       		.uleb128 0x2a
 2688 022e 34       		.uleb128 0x34
 2689 022f 00       		.byte	0
ARM GAS  /var/folders/c6/c789hm653lg9vtl73krp73tm0000gn/T//ccNMqBii.s 			page 78


 2690 0230 03       		.uleb128 0x3
 2691 0231 08       		.uleb128 0x8
 2692 0232 3A       		.uleb128 0x3a
 2693 0233 0B       		.uleb128 0xb
 2694 0234 3B       		.uleb128 0x3b
 2695 0235 05       		.uleb128 0x5
 2696 0236 49       		.uleb128 0x49
 2697 0237 13       		.uleb128 0x13
 2698 0238 02       		.uleb128 0x2
 2699 0239 17       		.uleb128 0x17
 2700 023a 00       		.byte	0
 2701 023b 00       		.byte	0
 2702 023c 2B       		.uleb128 0x2b
 2703 023d 34       		.uleb128 0x34
 2704 023e 00       		.byte	0
 2705 023f 03       		.uleb128 0x3
 2706 0240 0E       		.uleb128 0xe
 2707 0241 3A       		.uleb128 0x3a
 2708 0242 0B       		.uleb128 0xb
 2709 0243 3B       		.uleb128 0x3b
 2710 0244 0B       		.uleb128 0xb
 2711 0245 49       		.uleb128 0x49
 2712 0246 13       		.uleb128 0x13
 2713 0247 02       		.uleb128 0x2
 2714 0248 18       		.uleb128 0x18
 2715 0249 00       		.byte	0
 2716 024a 00       		.byte	0
 2717 024b 2C       		.uleb128 0x2c
 2718 024c 34       		.uleb128 0x34
 2719 024d 00       		.byte	0
 2720 024e 03       		.uleb128 0x3
 2721 024f 0E       		.uleb128 0xe
 2722 0250 3A       		.uleb128 0x3a
 2723 0251 0B       		.uleb128 0xb
 2724 0252 3B       		.uleb128 0x3b
 2725 0253 05       		.uleb128 0x5
 2726 0254 49       		.uleb128 0x49
 2727 0255 13       		.uleb128 0x13
 2728 0256 3F       		.uleb128 0x3f
 2729 0257 19       		.uleb128 0x19
 2730 0258 3C       		.uleb128 0x3c
 2731 0259 19       		.uleb128 0x19
 2732 025a 00       		.byte	0
 2733 025b 00       		.byte	0
 2734 025c 2D       		.uleb128 0x2d
 2735 025d 34       		.uleb128 0x34
 2736 025e 00       		.byte	0
 2737 025f 03       		.uleb128 0x3
 2738 0260 08       		.uleb128 0x8
 2739 0261 3A       		.uleb128 0x3a
 2740 0262 0B       		.uleb128 0xb
 2741 0263 3B       		.uleb128 0x3b
 2742 0264 05       		.uleb128 0x5
 2743 0265 49       		.uleb128 0x49
 2744 0266 13       		.uleb128 0x13
 2745 0267 3F       		.uleb128 0x3f
 2746 0268 19       		.uleb128 0x19
ARM GAS  /var/folders/c6/c789hm653lg9vtl73krp73tm0000gn/T//ccNMqBii.s 			page 79


 2747 0269 3C       		.uleb128 0x3c
 2748 026a 19       		.uleb128 0x19
 2749 026b 00       		.byte	0
 2750 026c 00       		.byte	0
 2751 026d 2E       		.uleb128 0x2e
 2752 026e 2E       		.uleb128 0x2e
 2753 026f 01       		.byte	0x1
 2754 0270 3F       		.uleb128 0x3f
 2755 0271 19       		.uleb128 0x19
 2756 0272 03       		.uleb128 0x3
 2757 0273 0E       		.uleb128 0xe
 2758 0274 3A       		.uleb128 0x3a
 2759 0275 0B       		.uleb128 0xb
 2760 0276 3B       		.uleb128 0x3b
 2761 0277 0B       		.uleb128 0xb
 2762 0278 27       		.uleb128 0x27
 2763 0279 19       		.uleb128 0x19
 2764 027a 3C       		.uleb128 0x3c
 2765 027b 19       		.uleb128 0x19
 2766 027c 01       		.uleb128 0x1
 2767 027d 13       		.uleb128 0x13
 2768 027e 00       		.byte	0
 2769 027f 00       		.byte	0
 2770 0280 2F       		.uleb128 0x2f
 2771 0281 2E       		.uleb128 0x2e
 2772 0282 01       		.byte	0x1
 2773 0283 3F       		.uleb128 0x3f
 2774 0284 19       		.uleb128 0x19
 2775 0285 03       		.uleb128 0x3
 2776 0286 0E       		.uleb128 0xe
 2777 0287 3A       		.uleb128 0x3a
 2778 0288 0B       		.uleb128 0xb
 2779 0289 3B       		.uleb128 0x3b
 2780 028a 0B       		.uleb128 0xb
 2781 028b 27       		.uleb128 0x27
 2782 028c 19       		.uleb128 0x19
 2783 028d 3C       		.uleb128 0x3c
 2784 028e 19       		.uleb128 0x19
 2785 028f 00       		.byte	0
 2786 0290 00       		.byte	0
 2787 0291 00       		.byte	0
 2788              		.section	.debug_loc,"",%progbits
 2789              	.Ldebug_loc0:
 2790              	.LLST0:
 2791 0000 00000000 		.4byte	.LVL1
 2792 0004 0C000000 		.4byte	.LVL3
 2793 0008 0100     		.2byte	0x1
 2794 000a 50       		.byte	0x50
 2795 000b 0C000000 		.4byte	.LVL3
 2796 000f 13000000 		.4byte	.LVL4-1
 2797 0013 0300     		.2byte	0x3
 2798 0015 70       		.byte	0x70
 2799 0016 70       		.sleb128 -16
 2800 0017 9F       		.byte	0x9f
 2801 0018 13000000 		.4byte	.LVL4-1
 2802 001c 14000000 		.4byte	.LFE230
 2803 0020 0400     		.2byte	0x4
ARM GAS  /var/folders/c6/c789hm653lg9vtl73krp73tm0000gn/T//ccNMqBii.s 			page 80


 2804 0022 F3       		.byte	0xf3
 2805 0023 01       		.uleb128 0x1
 2806 0024 50       		.byte	0x50
 2807 0025 9F       		.byte	0x9f
 2808 0026 00000000 		.4byte	0
 2809 002a 00000000 		.4byte	0
 2810              	.LLST1:
 2811 002e 00000000 		.4byte	.LVL1
 2812 0032 13000000 		.4byte	.LVL4-1
 2813 0036 0100     		.2byte	0x1
 2814 0038 51       		.byte	0x51
 2815 0039 13000000 		.4byte	.LVL4-1
 2816 003d 14000000 		.4byte	.LFE230
 2817 0041 0400     		.2byte	0x4
 2818 0043 F3       		.byte	0xf3
 2819 0044 01       		.uleb128 0x1
 2820 0045 51       		.byte	0x51
 2821 0046 9F       		.byte	0x9f
 2822 0047 00000000 		.4byte	0
 2823 004b 00000000 		.4byte	0
 2824              	.LLST2:
 2825 004f 00000000 		.4byte	.LVL1
 2826 0053 04000000 		.4byte	.LVL2
 2827 0057 0100     		.2byte	0x1
 2828 0059 52       		.byte	0x52
 2829 005a 04000000 		.4byte	.LVL2
 2830 005e 13000000 		.4byte	.LVL4-1
 2831 0062 0300     		.2byte	0x3
 2832 0064 72       		.byte	0x72
 2833 0065 08       		.sleb128 8
 2834 0066 9F       		.byte	0x9f
 2835 0067 13000000 		.4byte	.LVL4-1
 2836 006b 14000000 		.4byte	.LFE230
 2837 006f 0400     		.2byte	0x4
 2838 0071 F3       		.byte	0xf3
 2839 0072 01       		.uleb128 0x1
 2840 0073 52       		.byte	0x52
 2841 0074 9F       		.byte	0x9f
 2842 0075 00000000 		.4byte	0
 2843 0079 00000000 		.4byte	0
 2844              	.LLST4:
 2845 007d 00000000 		.4byte	.LVL5
 2846 0081 0A000000 		.4byte	.LVL6
 2847 0085 0100     		.2byte	0x1
 2848 0087 50       		.byte	0x50
 2849 0088 0A000000 		.4byte	.LVL6
 2850 008c 8C000000 		.4byte	.LFE231
 2851 0090 0100     		.2byte	0x1
 2852 0092 56       		.byte	0x56
 2853 0093 00000000 		.4byte	0
 2854 0097 00000000 		.4byte	0
 2855              	.LLST5:
 2856 009b 00000000 		.4byte	.LVL5
 2857 009f 10000000 		.4byte	.LVL7
 2858 00a3 0100     		.2byte	0x1
 2859 00a5 51       		.byte	0x51
 2860 00a6 10000000 		.4byte	.LVL7
ARM GAS  /var/folders/c6/c789hm653lg9vtl73krp73tm0000gn/T//ccNMqBii.s 			page 81


 2861 00aa 16000000 		.4byte	.LVL8
 2862 00ae 0300     		.2byte	0x3
 2863 00b0 71       		.byte	0x71
 2864 00b1 79       		.sleb128 -7
 2865 00b2 9F       		.byte	0x9f
 2866 00b3 16000000 		.4byte	.LVL8
 2867 00b7 8C000000 		.4byte	.LFE231
 2868 00bb 0100     		.2byte	0x1
 2869 00bd 55       		.byte	0x55
 2870 00be 00000000 		.4byte	0
 2871 00c2 00000000 		.4byte	0
 2872              	.LLST6:
 2873 00c6 1A000000 		.4byte	.LVL9
 2874 00ca 48000000 		.4byte	.LVL17
 2875 00ce 0100     		.2byte	0x1
 2876 00d0 54       		.byte	0x54
 2877 00d1 4C000000 		.4byte	.LVL18
 2878 00d5 5A000000 		.4byte	.LVL19
 2879 00d9 0100     		.2byte	0x1
 2880 00db 54       		.byte	0x54
 2881 00dc 68000000 		.4byte	.LVL21
 2882 00e0 86000000 		.4byte	.LVL24
 2883 00e4 0100     		.2byte	0x1
 2884 00e6 54       		.byte	0x54
 2885 00e7 00000000 		.4byte	0
 2886 00eb 00000000 		.4byte	0
 2887              	.LLST7:
 2888 00ef 20000000 		.4byte	.LVL11
 2889 00f3 28000000 		.4byte	.LVL12
 2890 00f7 0100     		.2byte	0x1
 2891 00f9 53       		.byte	0x53
 2892 00fa 2A000000 		.4byte	.LVL13
 2893 00fe 33000000 		.4byte	.LVL14-1
 2894 0102 0100     		.2byte	0x1
 2895 0104 53       		.byte	0x53
 2896 0105 3E000000 		.4byte	.LVL15
 2897 0109 44000000 		.4byte	.LVL16
 2898 010d 0100     		.2byte	0x1
 2899 010f 50       		.byte	0x50
 2900 0110 44000000 		.4byte	.LVL16
 2901 0114 48000000 		.4byte	.LVL17
 2902 0118 0300     		.2byte	0x3
 2903 011a 70       		.byte	0x70
 2904 011b 08       		.sleb128 8
 2905 011c 9F       		.byte	0x9f
 2906 011d 4C000000 		.4byte	.LVL18
 2907 0121 63000000 		.4byte	.LVL20-1
 2908 0125 0100     		.2byte	0x1
 2909 0127 53       		.byte	0x53
 2910 0128 63000000 		.4byte	.LVL20-1
 2911 012c 68000000 		.4byte	.LVL21
 2912 0130 0300     		.2byte	0x3
 2913 0132 74       		.byte	0x74
 2914 0133 78       		.sleb128 -8
 2915 0134 9F       		.byte	0x9f
 2916 0135 68000000 		.4byte	.LVL21
 2917 0139 84000000 		.4byte	.LVL23
ARM GAS  /var/folders/c6/c789hm653lg9vtl73krp73tm0000gn/T//ccNMqBii.s 			page 82


 2918 013d 0100     		.2byte	0x1
 2919 013f 53       		.byte	0x53
 2920 0140 00000000 		.4byte	0
 2921 0144 00000000 		.4byte	0
 2922              	.LLST8:
 2923 0148 72000000 		.4byte	.LVL22
 2924 014c 84000000 		.4byte	.LVL23
 2925 0150 0100     		.2byte	0x1
 2926 0152 5E       		.byte	0x5e
 2927 0153 00000000 		.4byte	0
 2928 0157 00000000 		.4byte	0
 2929              	.LLST9:
 2930 015b 00000000 		.4byte	.LVL25
 2931 015f 14000000 		.4byte	.LVL28
 2932 0163 0100     		.2byte	0x1
 2933 0165 50       		.byte	0x50
 2934 0166 14000000 		.4byte	.LVL28
 2935 016a 5E000000 		.4byte	.LVL35
 2936 016e 0100     		.2byte	0x1
 2937 0170 56       		.byte	0x56
 2938 0171 5E000000 		.4byte	.LVL35
 2939 0175 62000000 		.4byte	.LVL36
 2940 0179 0400     		.2byte	0x4
 2941 017b F3       		.byte	0xf3
 2942 017c 01       		.uleb128 0x1
 2943 017d 50       		.byte	0x50
 2944 017e 9F       		.byte	0x9f
 2945 017f 62000000 		.4byte	.LVL36
 2946 0183 94000000 		.4byte	.LVL37
 2947 0187 0100     		.2byte	0x1
 2948 0189 56       		.byte	0x56
 2949 018a 94000000 		.4byte	.LVL37
 2950 018e 98000000 		.4byte	.LFE232
 2951 0192 0400     		.2byte	0x4
 2952 0194 F3       		.byte	0xf3
 2953 0195 01       		.uleb128 0x1
 2954 0196 50       		.byte	0x50
 2955 0197 9F       		.byte	0x9f
 2956 0198 00000000 		.4byte	0
 2957 019c 00000000 		.4byte	0
 2958              	.LLST10:
 2959 01a0 12000000 		.4byte	.LVL27
 2960 01a4 1A000000 		.4byte	.LVL30
 2961 01a8 0100     		.2byte	0x1
 2962 01aa 55       		.byte	0x55
 2963 01ab 1A000000 		.4byte	.LVL30
 2964 01af 32000000 		.4byte	.LVL32
 2965 01b3 0100     		.2byte	0x1
 2966 01b5 53       		.byte	0x53
 2967 01b6 34000000 		.4byte	.LVL33
 2968 01ba 5E000000 		.4byte	.LVL35
 2969 01be 0100     		.2byte	0x1
 2970 01c0 53       		.byte	0x53
 2971 01c1 62000000 		.4byte	.LVL36
 2972 01c5 94000000 		.4byte	.LVL37
 2973 01c9 0100     		.2byte	0x1
 2974 01cb 53       		.byte	0x53
ARM GAS  /var/folders/c6/c789hm653lg9vtl73krp73tm0000gn/T//ccNMqBii.s 			page 83


 2975 01cc 00000000 		.4byte	0
 2976 01d0 00000000 		.4byte	0
 2977              	.LLST11:
 2978 01d4 10000000 		.4byte	.LVL26
 2979 01d8 5E000000 		.4byte	.LVL35
 2980 01dc 0100     		.2byte	0x1
 2981 01de 54       		.byte	0x54
 2982 01df 5E000000 		.4byte	.LVL35
 2983 01e3 62000000 		.4byte	.LVL36
 2984 01e7 0600     		.2byte	0x6
 2985 01e9 F3       		.byte	0xf3
 2986 01ea 01       		.uleb128 0x1
 2987 01eb 50       		.byte	0x50
 2988 01ec 38       		.byte	0x38
 2989 01ed 1C       		.byte	0x1c
 2990 01ee 9F       		.byte	0x9f
 2991 01ef 62000000 		.4byte	.LVL36
 2992 01f3 94000000 		.4byte	.LVL37
 2993 01f7 0100     		.2byte	0x1
 2994 01f9 54       		.byte	0x54
 2995 01fa 94000000 		.4byte	.LVL37
 2996 01fe 98000000 		.4byte	.LFE232
 2997 0202 0600     		.2byte	0x6
 2998 0204 F3       		.byte	0xf3
 2999 0205 01       		.uleb128 0x1
 3000 0206 50       		.byte	0x50
 3001 0207 38       		.byte	0x38
 3002 0208 1C       		.byte	0x1c
 3003 0209 9F       		.byte	0x9f
 3004 020a 00000000 		.4byte	0
 3005 020e 00000000 		.4byte	0
 3006              	.LLST12:
 3007 0212 10000000 		.4byte	.LVL26
 3008 0216 12000000 		.4byte	.LVL27
 3009 021a 0100     		.2byte	0x1
 3010 021c 55       		.byte	0x55
 3011 021d 12000000 		.4byte	.LVL27
 3012 0221 17000000 		.4byte	.LVL29-1
 3013 0225 0200     		.2byte	0x2
 3014 0227 74       		.byte	0x74
 3015 0228 00       		.sleb128 0
 3016 0229 17000000 		.4byte	.LVL29-1
 3017 022d 46000000 		.4byte	.LVL34
 3018 0231 0300     		.2byte	0x3
 3019 0233 75       		.byte	0x75
 3020 0234 78       		.sleb128 -8
 3021 0235 9F       		.byte	0x9f
 3022 0236 46000000 		.4byte	.LVL34
 3023 023a 5E000000 		.4byte	.LVL35
 3024 023e 0300     		.2byte	0x3
 3025 0240 77       		.byte	0x77
 3026 0241 70       		.sleb128 -16
 3027 0242 9F       		.byte	0x9f
 3028 0243 5E000000 		.4byte	.LVL35
 3029 0247 61000000 		.4byte	.LVL36-1
 3030 024b 0300     		.2byte	0x3
 3031 024d 70       		.byte	0x70
ARM GAS  /var/folders/c6/c789hm653lg9vtl73krp73tm0000gn/T//ccNMqBii.s 			page 84


 3032 024e 70       		.sleb128 -16
 3033 024f 9F       		.byte	0x9f
 3034 0250 62000000 		.4byte	.LVL36
 3035 0254 94000000 		.4byte	.LVL37
 3036 0258 0300     		.2byte	0x3
 3037 025a 77       		.byte	0x77
 3038 025b 70       		.sleb128 -16
 3039 025c 9F       		.byte	0x9f
 3040 025d 94000000 		.4byte	.LVL37
 3041 0261 97000000 		.4byte	.LVL38-1
 3042 0265 0300     		.2byte	0x3
 3043 0267 70       		.byte	0x70
 3044 0268 70       		.sleb128 -16
 3045 0269 9F       		.byte	0x9f
 3046 026a 00000000 		.4byte	0
 3047 026e 00000000 		.4byte	0
 3048              	.LLST13:
 3049 0272 00000000 		.4byte	.LVL39
 3050 0276 0A000000 		.4byte	.LVL40
 3051 027a 0100     		.2byte	0x1
 3052 027c 50       		.byte	0x50
 3053 027d 0A000000 		.4byte	.LVL40
 3054 0281 1E000000 		.4byte	.LVL42
 3055 0285 0100     		.2byte	0x1
 3056 0287 54       		.byte	0x54
 3057 0288 1E000000 		.4byte	.LVL42
 3058 028c 36000000 		.4byte	.LVL47
 3059 0290 0300     		.2byte	0x3
 3060 0292 76       		.byte	0x76
 3061 0293 70       		.sleb128 -16
 3062 0294 9F       		.byte	0x9f
 3063 0295 36000000 		.4byte	.LVL47
 3064 0299 3A000000 		.4byte	.LVL48
 3065 029d 0100     		.2byte	0x1
 3066 029f 54       		.byte	0x54
 3067 02a0 3A000000 		.4byte	.LVL48
 3068 02a4 40000000 		.4byte	.LFE233
 3069 02a8 0300     		.2byte	0x3
 3070 02aa 76       		.byte	0x76
 3071 02ab 70       		.sleb128 -16
 3072 02ac 9F       		.byte	0x9f
 3073 02ad 00000000 		.4byte	0
 3074 02b1 00000000 		.4byte	0
 3075              	.LLST14:
 3076 02b5 00000000 		.4byte	.LVL39
 3077 02b9 15000000 		.4byte	.LVL41-1
 3078 02bd 0100     		.2byte	0x1
 3079 02bf 51       		.byte	0x51
 3080 02c0 15000000 		.4byte	.LVL41-1
 3081 02c4 40000000 		.4byte	.LFE233
 3082 02c8 0100     		.2byte	0x1
 3083 02ca 57       		.byte	0x57
 3084 02cb 00000000 		.4byte	0
 3085 02cf 00000000 		.4byte	0
 3086              	.LLST15:
 3087 02d3 16000000 		.4byte	.LVL41
 3088 02d7 1E000000 		.4byte	.LVL42
ARM GAS  /var/folders/c6/c789hm653lg9vtl73krp73tm0000gn/T//ccNMqBii.s 			page 85


 3089 02db 0300     		.2byte	0x3
 3090 02dd 74       		.byte	0x74
 3091 02de 08       		.sleb128 8
 3092 02df 9F       		.byte	0x9f
 3093 02e0 1E000000 		.4byte	.LVL42
 3094 02e4 24000000 		.4byte	.LVL44
 3095 02e8 0300     		.2byte	0x3
 3096 02ea 76       		.byte	0x76
 3097 02eb 78       		.sleb128 -8
 3098 02ec 9F       		.byte	0x9f
 3099 02ed 36000000 		.4byte	.LVL47
 3100 02f1 3A000000 		.4byte	.LVL48
 3101 02f5 0300     		.2byte	0x3
 3102 02f7 74       		.byte	0x74
 3103 02f8 08       		.sleb128 8
 3104 02f9 9F       		.byte	0x9f
 3105 02fa 3A000000 		.4byte	.LVL48
 3106 02fe 40000000 		.4byte	.LFE233
 3107 0302 0300     		.2byte	0x3
 3108 0304 76       		.byte	0x76
 3109 0305 78       		.sleb128 -8
 3110 0306 9F       		.byte	0x9f
 3111 0307 00000000 		.4byte	0
 3112 030b 00000000 		.4byte	0
 3113              	.LLST16:
 3114 030f 16000000 		.4byte	.LVL41
 3115 0313 1E000000 		.4byte	.LVL42
 3116 0317 0200     		.2byte	0x2
 3117 0319 30       		.byte	0x30
 3118 031a 9F       		.byte	0x9f
 3119 031b 1E000000 		.4byte	.LVL42
 3120 031f 22000000 		.4byte	.LVL43
 3121 0323 0100     		.2byte	0x1
 3122 0325 54       		.byte	0x54
 3123 0326 22000000 		.4byte	.LVL43
 3124 032a 24000000 		.4byte	.LVL44
 3125 032e 0300     		.2byte	0x3
 3126 0330 74       		.byte	0x74
 3127 0331 7F       		.sleb128 -1
 3128 0332 9F       		.byte	0x9f
 3129 0333 24000000 		.4byte	.LVL44
 3130 0337 28000000 		.4byte	.LVL45
 3131 033b 0100     		.2byte	0x1
 3132 033d 54       		.byte	0x54
 3133 033e 36000000 		.4byte	.LVL47
 3134 0342 40000000 		.4byte	.LFE233
 3135 0346 0200     		.2byte	0x2
 3136 0348 30       		.byte	0x30
 3137 0349 9F       		.byte	0x9f
 3138 034a 00000000 		.4byte	0
 3139 034e 00000000 		.4byte	0
 3140              	.LLST17:
 3141 0352 16000000 		.4byte	.LVL41
 3142 0356 1E000000 		.4byte	.LVL42
 3143 035a 0200     		.2byte	0x2
 3144 035c 30       		.byte	0x30
 3145 035d 9F       		.byte	0x9f
ARM GAS  /var/folders/c6/c789hm653lg9vtl73krp73tm0000gn/T//ccNMqBii.s 			page 86


 3146 035e 1E000000 		.4byte	.LVL42
 3147 0362 28000000 		.4byte	.LVL45
 3148 0366 0100     		.2byte	0x1
 3149 0368 52       		.byte	0x52
 3150 0369 36000000 		.4byte	.LVL47
 3151 036d 40000000 		.4byte	.LFE233
 3152 0371 0200     		.2byte	0x2
 3153 0373 30       		.byte	0x30
 3154 0374 9F       		.byte	0x9f
 3155 0375 00000000 		.4byte	0
 3156 0379 00000000 		.4byte	0
 3157              		.section	.debug_aranges,"",%progbits
 3158 0000 3C000000 		.4byte	0x3c
 3159 0004 0200     		.2byte	0x2
 3160 0006 00000000 		.4byte	.Ldebug_info0
 3161 000a 04       		.byte	0x4
 3162 000b 00       		.byte	0
 3163 000c 0000     		.2byte	0
 3164 000e 0000     		.2byte	0
 3165 0010 00000000 		.4byte	.LFB229
 3166 0014 1C000000 		.4byte	.LFE229-.LFB229
 3167 0018 00000000 		.4byte	.LFB230
 3168 001c 14000000 		.4byte	.LFE230-.LFB230
 3169 0020 00000000 		.4byte	.LFB231
 3170 0024 8C000000 		.4byte	.LFE231-.LFB231
 3171 0028 00000000 		.4byte	.LFB232
 3172 002c 98000000 		.4byte	.LFE232-.LFB232
 3173 0030 00000000 		.4byte	.LFB233
 3174 0034 40000000 		.4byte	.LFE233-.LFB233
 3175 0038 00000000 		.4byte	0
 3176 003c 00000000 		.4byte	0
 3177              		.section	.debug_ranges,"",%progbits
 3178              	.Ldebug_ranges0:
 3179 0000 00000000 		.4byte	.LFB229
 3180 0004 1C000000 		.4byte	.LFE229
 3181 0008 00000000 		.4byte	.LFB230
 3182 000c 14000000 		.4byte	.LFE230
 3183 0010 00000000 		.4byte	.LFB231
 3184 0014 8C000000 		.4byte	.LFE231
 3185 0018 00000000 		.4byte	.LFB232
 3186 001c 98000000 		.4byte	.LFE232
 3187 0020 00000000 		.4byte	.LFB233
 3188 0024 40000000 		.4byte	.LFE233
 3189 0028 00000000 		.4byte	0
 3190 002c 00000000 		.4byte	0
 3191              		.section	.debug_line,"",%progbits
 3192              	.Ldebug_line0:
 3193 0000 2A030000 		.section	.debug_str,"MS",%progbits,1
 3193      02004602 
 3193      00000201 
 3193      FB0E0D00 
 3193      01010101 
 3194              	.LASF125:
 3195 0000 474E5520 		.ascii	"GNU C 4.8.4 20140725 (release) [ARM/embedded-4_8-br"
 3195      4320342E 
 3195      382E3420 
 3195      32303134 
ARM GAS  /var/folders/c6/c789hm653lg9vtl73krp73tm0000gn/T//ccNMqBii.s 			page 87


 3195      30373235 
 3196 0033 616E6368 		.ascii	"anch revision 213147] -mcpu=cortex-m4 -mno-thumb-in"
 3196      20726576 
 3196      6973696F 
 3196      6E203231 
 3196      33313437 
 3197 0066 74657277 		.ascii	"terwork -mthumb -ggdb -O2 -fomit-frame-pointer -fal"
 3197      6F726B20 
 3197      2D6D7468 
 3197      756D6220 
 3197      2D676764 
 3198 0099 69676E2D 		.ascii	"ign-functions=16 -ffunction-sections -fdata-section"
 3198      66756E63 
 3198      74696F6E 
 3198      733D3136 
 3198      202D6666 
 3199 00cc 73202D66 		.ascii	"s -fno-common -flto\000"
 3199      6E6F2D63 
 3199      6F6D6D6F 
 3199      6E202D66 
 3199      6C746F00 
 3200              	.LASF51:
 3201 00e0 72656164 		.ascii	"ready_list_t\000"
 3201      795F6C69 
 3201      73745F74 
 3201      00
 3202              	.LASF2:
 3203 00ed 73697A65 		.ascii	"size_t\000"
 3203      5F7400
 3204              	.LASF108:
 3205 00f4 6E657874 		.ascii	"next\000"
 3205      00
 3206              	.LASF86:
 3207 00f9 7264796D 		.ascii	"rdymsg\000"
 3207      736700
 3208              	.LASF17:
 3209 0100 75696E74 		.ascii	"uint64_t\000"
 3209      36345F74 
 3209      00
 3210              	.LASF3:
 3211 0109 5F5F7569 		.ascii	"__uint8_t\000"
 3211      6E74385F 
 3211      7400
 3212              	.LASF83:
 3213 0113 706F7274 		.ascii	"port_intctx\000"
 3213      5F696E74 
 3213      63747800 
 3214              	.LASF70:
 3215 011f 73797374 		.ascii	"system_debug_t\000"
 3215      656D5F64 
 3215      65627567 
 3215      5F7400
 3216              	.LASF102:
 3217 012e 6D656D67 		.ascii	"memgetfunc_t\000"
 3217      65746675 
 3217      6E635F74 
 3217      00
ARM GAS  /var/folders/c6/c789hm653lg9vtl73krp73tm0000gn/T//ccNMqBii.s 			page 88


 3218              	.LASF13:
 3219 013b 6C6F6E67 		.ascii	"long long unsigned int\000"
 3219      206C6F6E 
 3219      6720756E 
 3219      7369676E 
 3219      65642069 
 3220              	.LASF87:
 3221 0152 65786974 		.ascii	"exitcode\000"
 3221      636F6465 
 3221      00
 3222              	.LASF106:
 3223 015b 685F6672 		.ascii	"h_free\000"
 3223      656500
 3224              	.LASF7:
 3225 0162 5F5F696E 		.ascii	"__int32_t\000"
 3225      7433325F 
 3225      7400
 3226              	.LASF67:
 3227 016c 76697274 		.ascii	"virtual_timers_list_t\000"
 3227      75616C5F 
 3227      74696D65 
 3227      72735F6C 
 3227      6973745F 
 3228              	.LASF122:
 3229 0182 49544D5F 		.ascii	"ITM_RxBuffer\000"
 3229      52784275 
 3229      66666572 
 3229      00
 3230              	.LASF114:
 3231 018f 68656170 		.ascii	"heapp\000"
 3231      7000
 3232              	.LASF110:
 3233 0195 616C6967 		.ascii	"align\000"
 3233      6E00
 3234              	.LASF50:
 3235 019b 63685F74 		.ascii	"ch_threads_queue\000"
 3235      68726561 
 3235      64735F71 
 3235      75657565 
 3235      00
 3236              	.LASF30:
 3237 01ac 705F7072 		.ascii	"p_prio\000"
 3237      696F00
 3238              	.LASF129:
 3239 01b3 63684D74 		.ascii	"chMtxUnlock\000"
 3239      78556E6C 
 3239      6F636B00 
 3240              	.LASF1:
 3241 01bf 7369676E 		.ascii	"signed char\000"
 3241      65642063 
 3241      68617200 
 3242              	.LASF107:
 3243 01cb 685F6D74 		.ascii	"h_mtx\000"
 3243      7800
 3244              	.LASF44:
 3245 01d1 705F6D70 		.ascii	"p_mpool\000"
 3245      6F6F6C00 
ARM GAS  /var/folders/c6/c789hm653lg9vtl73krp73tm0000gn/T//ccNMqBii.s 			page 89


 3246              	.LASF97:
 3247 01d9 6D5F7175 		.ascii	"m_queue\000"
 3247      65756500 
 3248              	.LASF115:
 3249 01e1 63684865 		.ascii	"chHeapFree\000"
 3249      61704672 
 3249      656500
 3250              	.LASF76:
 3251 01ec 76746C69 		.ascii	"vtlist\000"
 3251      737400
 3252              	.LASF89:
 3253 01f3 77747472 		.ascii	"wttrp\000"
 3253      7000
 3254              	.LASF74:
 3255 01f9 63685F73 		.ascii	"ch_system\000"
 3255      79737465 
 3255      6D00
 3256              	.LASF8:
 3257 0203 6C6F6E67 		.ascii	"long int\000"
 3257      20696E74 
 3257      00
 3258              	.LASF20:
 3259 020c 74737461 		.ascii	"tstate_t\000"
 3259      74655F74 
 3259      00
 3260              	.LASF117:
 3261 0215 5F5F6675 		.ascii	"__func__.6513\000"
 3261      6E635F5F 
 3261      2E363531 
 3261      3300
 3262              	.LASF103:
 3263 0223 6D656D6F 		.ascii	"memory_heap_t\000"
 3263      72795F68 
 3263      6561705F 
 3263      7400
 3264              	.LASF11:
 3265 0231 6C6F6E67 		.ascii	"long long int\000"
 3265      206C6F6E 
 3265      6720696E 
 3265      7400
 3266              	.LASF32:
 3267 023f 705F6E65 		.ascii	"p_newer\000"
 3267      77657200 
 3268              	.LASF94:
 3269 0247 735F7175 		.ascii	"s_queue\000"
 3269      65756500 
 3270              	.LASF56:
 3271 024f 725F6E65 		.ascii	"r_newer\000"
 3271      77657200 
 3272              	.LASF80:
 3273 0257 72656761 		.ascii	"regarm_t\000"
 3273      726D5F74 
 3273      00
 3274              	.LASF63:
 3275 0260 76745F70 		.ascii	"vt_prev\000"
 3275      72657600 
 3276              	.LASF101:
ARM GAS  /var/folders/c6/c789hm653lg9vtl73krp73tm0000gn/T//ccNMqBii.s 			page 90


 3277 0268 6D757465 		.ascii	"mutex_t\000"
 3277      785F7400 
 3278              	.LASF112:
 3279 0270 5F686561 		.ascii	"_heap_init\000"
 3279      705F696E 
 3279      697400
 3280              	.LASF78:
 3281 027b 69646C65 		.ascii	"idle_thread_wa\000"
 3281      5F746872 
 3281      6561645F 
 3281      776100
 3282              	.LASF25:
 3283 028a 636E745F 		.ascii	"cnt_t\000"
 3283      7400
 3284              	.LASF0:
 3285 0290 756E7369 		.ascii	"unsigned int\000"
 3285      676E6564 
 3285      20696E74 
 3285      00
 3286              	.LASF62:
 3287 029d 76745F6E 		.ascii	"vt_next\000"
 3287      65787400 
 3288              	.LASF90:
 3289 02a5 77747365 		.ascii	"wtsemp\000"
 3289      6D7000
 3290              	.LASF39:
 3291 02ac 705F6D73 		.ascii	"p_msgqueue\000"
 3291      67717565 
 3291      756500
 3292              	.LASF95:
 3293 02b7 735F636E 		.ascii	"s_cnt\000"
 3293      7400
 3294              	.LASF6:
 3295 02bd 73686F72 		.ascii	"short unsigned int\000"
 3295      7420756E 
 3295      7369676E 
 3295      65642069 
 3295      6E7400
 3296              	.LASF47:
 3297 02d0 63685F74 		.ascii	"ch_thread\000"
 3297      68726561 
 3297      6400
 3298              	.LASF77:
 3299 02da 6D61696E 		.ascii	"mainthread\000"
 3299      74687265 
 3299      616400
 3300              	.LASF23:
 3301 02e5 6D73675F 		.ascii	"msg_t\000"
 3301      7400
 3302              	.LASF73:
 3303 02eb 63685F73 		.ascii	"ch_system_t\000"
 3303      79737465 
 3303      6D5F7400 
 3304              	.LASF19:
 3305 02f7 746D6F64 		.ascii	"tmode_t\000"
 3305      655F7400 
 3306              	.LASF52:
ARM GAS  /var/folders/c6/c789hm653lg9vtl73krp73tm0000gn/T//ccNMqBii.s 			page 91


 3307 02ff 63685F72 		.ascii	"ch_ready_list\000"
 3307      65616479 
 3307      5F6C6973 
 3307      7400
 3308              	.LASF24:
 3309 030d 6576656E 		.ascii	"eventmask_t\000"
 3309      746D6173 
 3309      6B5F7400 
 3310              	.LASF116:
 3311 0319 5F5F6675 		.ascii	"__func__.6496\000"
 3311      6E635F5F 
 3311      2E363439 
 3311      3600
 3312              	.LASF81:
 3313 0327 73746B61 		.ascii	"stkalign_t\000"
 3313      6C69676E 
 3313      5F7400
 3314              	.LASF113:
 3315 0332 63684865 		.ascii	"chHeapObjectInit\000"
 3315      61704F62 
 3315      6A656374 
 3315      496E6974 
 3315      00
 3316              	.LASF38:
 3317 0343 705F7761 		.ascii	"p_waiting\000"
 3317      6974696E 
 3317      6700
 3318              	.LASF79:
 3319 034d 73697A65 		.ascii	"sizetype\000"
 3319      74797065 
 3319      00
 3320              	.LASF45:
 3321 0356 74687265 		.ascii	"thread_reference_t\000"
 3321      61645F72 
 3321      65666572 
 3321      656E6365 
 3321      5F7400
 3322              	.LASF68:
 3323 0369 63685F76 		.ascii	"ch_virtual_timers_list\000"
 3323      69727475 
 3323      616C5F74 
 3323      696D6572 
 3323      735F6C69 
 3324              	.LASF69:
 3325 0380 76745F6C 		.ascii	"vt_lasttime\000"
 3325      61737474 
 3325      696D6500 
 3326              	.LASF124:
 3327 038c 63684D74 		.ascii	"chMtxLock\000"
 3327      784C6F63 
 3327      6B00
 3328              	.LASF33:
 3329 0396 705F6F6C 		.ascii	"p_older\000"
 3329      64657200 
 3330              	.LASF55:
 3331 039e 725F6374 		.ascii	"r_ctx\000"
 3331      7800
ARM GAS  /var/folders/c6/c789hm653lg9vtl73krp73tm0000gn/T//ccNMqBii.s 			page 92


 3332              	.LASF85:
 3333 03a4 746D5F63 		.ascii	"tm_calibration_t\000"
 3333      616C6962 
 3333      72617469 
 3333      6F6E5F74 
 3333      00
 3334              	.LASF58:
 3335 03b5 725F6375 		.ascii	"r_current\000"
 3335      7272656E 
 3335      7400
 3336              	.LASF57:
 3337 03bf 725F6F6C 		.ascii	"r_older\000"
 3337      64657200 
 3338              	.LASF12:
 3339 03c7 5F5F7569 		.ascii	"__uint64_t\000"
 3339      6E743634 
 3339      5F7400
 3340              	.LASF21:
 3341 03d2 74726566 		.ascii	"trefs_t\000"
 3341      735F7400 
 3342              	.LASF60:
 3343 03da 76697274 		.ascii	"virtual_timer_t\000"
 3343      75616C5F 
 3343      74696D65 
 3343      725F7400 
 3344              	.LASF29:
 3345 03ea 705F7072 		.ascii	"p_prev\000"
 3345      657600
 3346              	.LASF22:
 3347 03f1 74707269 		.ascii	"tprio_t\000"
 3347      6F5F7400 
 3348              	.LASF123:
 3349 03f9 63684D74 		.ascii	"chMtxObjectInit\000"
 3349      784F626A 
 3349      65637449 
 3349      6E697400 
 3350              	.LASF71:
 3351 0409 63685F73 		.ascii	"ch_system_debug\000"
 3351      79737465 
 3351      6D5F6465 
 3351      62756700 
 3352              	.LASF15:
 3353 0419 696E7433 		.ascii	"int32_t\000"
 3353      325F7400 
 3354              	.LASF4:
 3355 0421 756E7369 		.ascii	"unsigned char\000"
 3355      676E6564 
 3355      20636861 
 3355      7200
 3356              	.LASF128:
 3357 042f 68656170 		.ascii	"heap_header\000"
 3357      5F686561 
 3357      64657200 
 3358              	.LASF42:
 3359 043b 705F6D74 		.ascii	"p_mtxlist\000"
 3359      786C6973 
 3359      7400
ARM GAS  /var/folders/c6/c789hm653lg9vtl73krp73tm0000gn/T//ccNMqBii.s 			page 93


 3360              	.LASF5:
 3361 0445 73686F72 		.ascii	"short int\000"
 3361      7420696E 
 3361      7400
 3362              	.LASF35:
 3363 044f 705F7374 		.ascii	"p_state\000"
 3363      61746500 
 3364              	.LASF54:
 3365 0457 725F7072 		.ascii	"r_prio\000"
 3365      696F00
 3366              	.LASF92:
 3367 045e 65776D61 		.ascii	"ewmask\000"
 3367      736B00
 3368              	.LASF28:
 3369 0465 705F6E65 		.ascii	"p_next\000"
 3369      787400
 3370              	.LASF36:
 3371 046c 705F666C 		.ascii	"p_flags\000"
 3371      61677300 
 3372              	.LASF118:
 3373 0474 63684865 		.ascii	"chHeapAlloc\000"
 3373      6170416C 
 3373      6C6F6300 
 3374              	.LASF93:
 3375 0480 63685F73 		.ascii	"ch_semaphore\000"
 3375      656D6170 
 3375      686F7265 
 3375      00
 3376              	.LASF41:
 3377 048d 705F6570 		.ascii	"p_epending\000"
 3377      656E6469 
 3377      6E6700
 3378              	.LASF16:
 3379 0498 75696E74 		.ascii	"uint32_t\000"
 3379      33325F74 
 3379      00
 3380              	.LASF91:
 3381 04a1 77746D74 		.ascii	"wtmtxp\000"
 3381      787000
 3382              	.LASF53:
 3383 04a8 725F7175 		.ascii	"r_queue\000"
 3383      65756500 
 3384              	.LASF64:
 3385 04b0 76745F64 		.ascii	"vt_delta\000"
 3385      656C7461 
 3385      00
 3386              	.LASF48:
 3387 04b9 63685F74 		.ascii	"ch_threads_list\000"
 3387      68726561 
 3387      64735F6C 
 3387      69737400 
 3388              	.LASF109:
 3389 04c9 68656170 		.ascii	"heap\000"
 3389      00
 3390              	.LASF10:
 3391 04ce 6C6F6E67 		.ascii	"long unsigned int\000"
 3391      20756E73 
ARM GAS  /var/folders/c6/c789hm653lg9vtl73krp73tm0000gn/T//ccNMqBii.s 			page 94


 3391      69676E65 
 3391      6420696E 
 3391      7400
 3392              	.LASF127:
 3393 04e0 2F557365 		.ascii	"/Users/savonetj/Downloads/ChibiOS_3.0.2/demos/STM32"
 3393      72732F73 
 3393      61766F6E 
 3393      65746A2F 
 3393      446F776E 
 3394 0513 2F52542D 		.ascii	"/RT-STM32F407-DISCOVERY\000"
 3394      53544D33 
 3394      32463430 
 3394      372D4449 
 3394      53434F56 
 3395              	.LASF121:
 3396 052b 64656661 		.ascii	"default_heap\000"
 3396      756C745F 
 3396      68656170 
 3396      00
 3397              	.LASF100:
 3398 0538 63686172 		.ascii	"char\000"
 3398      00
 3399              	.LASF27:
 3400 053d 74687265 		.ascii	"thread_t\000"
 3400      61645F74 
 3400      00
 3401              	.LASF119:
 3402 0546 63684865 		.ascii	"chHeapStatus\000"
 3402      61705374 
 3402      61747573 
 3402      00
 3403              	.LASF99:
 3404 0553 6D5F6E65 		.ascii	"m_next\000"
 3404      787400
 3405              	.LASF26:
 3406 055a 73797374 		.ascii	"systime_t\000"
 3406      696D655F 
 3406      7400
 3407              	.LASF43:
 3408 0564 705F7265 		.ascii	"p_realprio\000"
 3408      616C7072 
 3408      696F00
 3409              	.LASF59:
 3410 056f 76746675 		.ascii	"vtfunc_t\000"
 3410      6E635F74 
 3410      00
 3411              	.LASF9:
 3412 0578 5F5F7569 		.ascii	"__uint32_t\000"
 3412      6E743332 
 3412      5F7400
 3413              	.LASF72:
 3414 0583 70616E69 		.ascii	"panic_msg\000"
 3414      635F6D73 
 3414      6700
 3415              	.LASF84:
 3416 058d 6F666673 		.ascii	"offset\000"
 3416      657400
ARM GAS  /var/folders/c6/c789hm653lg9vtl73krp73tm0000gn/T//ccNMqBii.s 			page 95


 3417              	.LASF82:
 3418 0594 636F6E74 		.ascii	"context\000"
 3418      65787400 
 3419              	.LASF61:
 3420 059c 63685F76 		.ascii	"ch_virtual_timer\000"
 3420      69727475 
 3420      616C5F74 
 3420      696D6572 
 3420      00
 3421              	.LASF18:
 3422 05ad 7274636E 		.ascii	"rtcnt_t\000"
 3422      745F7400 
 3423              	.LASF66:
 3424 05b5 76745F70 		.ascii	"vt_par\000"
 3424      617200
 3425              	.LASF49:
 3426 05bc 74687265 		.ascii	"threads_queue_t\000"
 3426      6164735F 
 3426      71756575 
 3426      655F7400 
 3427              	.LASF96:
 3428 05cc 63685F6D 		.ascii	"ch_mutex\000"
 3428      75746578 
 3428      00
 3429              	.LASF37:
 3430 05d5 705F7265 		.ascii	"p_refs\000"
 3430      667300
 3431              	.LASF75:
 3432 05dc 726C6973 		.ascii	"rlist\000"
 3432      7400
 3433              	.LASF14:
 3434 05e2 75696E74 		.ascii	"uint8_t\000"
 3434      385F7400 
 3435              	.LASF105:
 3436 05ea 685F7072 		.ascii	"h_provider\000"
 3436      6F766964 
 3436      657200
 3437              	.LASF126:
 3438 05f5 2E2E2F2E 		.ascii	"../../../os/rt/src/chheap.c\000"
 3438      2E2F2E2E 
 3438      2F6F732F 
 3438      72742F73 
 3438      72632F63 
 3439              	.LASF88:
 3440 0611 77746F62 		.ascii	"wtobjp\000"
 3440      6A7000
 3441              	.LASF120:
 3442 0618 73697A65 		.ascii	"sizep\000"
 3442      7000
 3443              	.LASF34:
 3444 061e 705F6E61 		.ascii	"p_name\000"
 3444      6D6500
 3445              	.LASF111:
 3446 0625 73697A65 		.ascii	"size\000"
 3446      00
 3447              	.LASF46:
 3448 062a 74687265 		.ascii	"threads_list_t\000"
ARM GAS  /var/folders/c6/c789hm653lg9vtl73krp73tm0000gn/T//ccNMqBii.s 			page 96


 3448      6164735F 
 3448      6C697374 
 3448      5F7400
 3449              	.LASF40:
 3450 0639 705F6D73 		.ascii	"p_msg\000"
 3450      6700
 3451              	.LASF98:
 3452 063f 6D5F6F77 		.ascii	"m_owner\000"
 3452      6E657200 
 3453              	.LASF31:
 3454 0647 705F6374 		.ascii	"p_ctx\000"
 3454      7800
 3455              	.LASF65:
 3456 064d 76745F66 		.ascii	"vt_func\000"
 3456      756E6300 
 3457              	.LASF104:
 3458 0655 6D656D6F 		.ascii	"memory_heap\000"
 3458      72795F68 
 3458      65617000 
 3459              		.comm	__gnu_lto_v1,1,1
 3460              		.ident	"GCC: (GNU Tools for ARM Embedded Processors) 4.8.4 20140725 (release) [ARM/embedded-4_8-br
ARM GAS  /var/folders/c6/c789hm653lg9vtl73krp73tm0000gn/T//ccNMqBii.s 			page 97


DEFINED SYMBOLS
                            *ABS*:0000000000000000 chheap.c
/var/folders/c6/c789hm653lg9vtl73krp73tm0000gn/T//ccNMqBii.s:501    .text._heap_init:0000000000000000 $t
/var/folders/c6/c789hm653lg9vtl73krp73tm0000gn/T//ccNMqBii.s:507    .text._heap_init:0000000000000000 _heap_init
/var/folders/c6/c789hm653lg9vtl73krp73tm0000gn/T//ccNMqBii.s:532    .text._heap_init:0000000000000014 $d
/var/folders/c6/c789hm653lg9vtl73krp73tm0000gn/T//ccNMqBii.s:538    .text.chHeapObjectInit:0000000000000000 $t
/var/folders/c6/c789hm653lg9vtl73krp73tm0000gn/T//ccNMqBii.s:544    .text.chHeapObjectInit:0000000000000000 chHeapObjectInit
/var/folders/c6/c789hm653lg9vtl73krp73tm0000gn/T//ccNMqBii.s:577    .text.chHeapAlloc:0000000000000000 $t
/var/folders/c6/c789hm653lg9vtl73krp73tm0000gn/T//ccNMqBii.s:583    .text.chHeapAlloc:0000000000000000 chHeapAlloc
/var/folders/c6/c789hm653lg9vtl73krp73tm0000gn/T//ccNMqBii.s:713    .text.chHeapAlloc:0000000000000088 $d
/var/folders/c6/c789hm653lg9vtl73krp73tm0000gn/T//ccNMqBii.s:718    .text.chHeapFree:0000000000000000 $t
/var/folders/c6/c789hm653lg9vtl73krp73tm0000gn/T//ccNMqBii.s:724    .text.chHeapFree:0000000000000000 chHeapFree
/var/folders/c6/c789hm653lg9vtl73krp73tm0000gn/T//ccNMqBii.s:852    .text.chHeapStatus:0000000000000000 $t
/var/folders/c6/c789hm653lg9vtl73krp73tm0000gn/T//ccNMqBii.s:858    .text.chHeapStatus:0000000000000000 chHeapStatus
/var/folders/c6/c789hm653lg9vtl73krp73tm0000gn/T//ccNMqBii.s:932    .text.chHeapStatus:000000000000003c $d
/var/folders/c6/c789hm653lg9vtl73krp73tm0000gn/T//ccNMqBii.s:937    .bss.default_heap:0000000000000000 $d
/var/folders/c6/c789hm653lg9vtl73krp73tm0000gn/T//ccNMqBii.s:941    .bss.default_heap:0000000000000000 default_heap
                            *COM*:0000000000000001 __gnu_lto_v1
                     .debug_frame:0000000000000010 $d
/var/folders/c6/c789hm653lg9vtl73krp73tm0000gn/T//ccNMqBii.s:537    .text._heap_init:000000000000001c $t
/var/folders/c6/c789hm653lg9vtl73krp73tm0000gn/T//ccNMqBii.s:717    .text.chHeapAlloc:000000000000008c $t

UNDEFINED SYMBOLS
chMtxObjectInit
chCoreAlloc
chMtxLock
chMtxUnlock
