ARM GAS  /var/folders/c6/c789hm653lg9vtl73krp73tm0000gn/T//ccvFz436.s 			page 1


   1              		.syntax unified
   2              		.cpu cortex-m4
   3              		.fpu softvfp
   4              		.eabi_attribute 20, 1
   5              		.eabi_attribute 21, 1
   6              		.eabi_attribute 23, 3
   7              		.eabi_attribute 24, 1
   8              		.eabi_attribute 25, 1
   9              		.eabi_attribute 26, 1
  10              		.eabi_attribute 30, 2
  11              		.eabi_attribute 34, 1
  12              		.eabi_attribute 18, 4
  13              		.thumb
  14              		.file	"chmempools.c"
  15              		.text
  16              	.Ltext0:
  17              		.section	.gnu.lto_.jmpfuncs.429ad536565160d5,"",%progbits
  18 0000 789C6362 		.ascii	"x\234cb`b\300\006\244\2414\033\003;#;\023##\220y\200"
  18      6062C006 
  18      A4A1341B 
  18      033B233B 
  18      13232390 
  19 0016 818D19C4 		.ascii	"\201\215\031\304\250g``afef\000\000\027\362\001\222"
  19      A8676060 
  19      61666566 
  19      000017F2 
  19      0192
  20              		.text
  21              		.section	.gnu.lto_.inline.429ad536565160d5,"",%progbits
  22 0000 789C6D4F 		.ascii	"x\234mO!\016\302@\020\234\335\273\366\332\006\002-\002"
  22      210EC240 
  22      109CDDBB 
  22      F6DA0602 
  22      2D02
  23 0012 090E4750 		.ascii	"\011\016GP\325}\001\032\215\001~Q\211 )\022C\202E`I"
  23      D57D011A 
  23      8D017E51 
  23      89202912 
  23      43824560 
  24 0027 9F81AC42 		.ascii	"\237\201\254B\203\343\011\354\335\0015\\.\2673;s\231"
  24      83E309EC 
  24      DD01355C 
  24      2EB7333B 
  24      7399
  25 0039 5D06E3DF 		.ascii	"]\006\343\337I\311\327Pn@`U\017\0217\2713\023\272O\020"
  25      49C9D750 
  25      6E406055 
  25      0F1137B9 
  25      3313BA4F 
  26 004e B1B5705A 		.ascii	"\261\265pZ\335\023\304\307\0353\264\345H\0232X/hce\005"
  26      DD13C4C7 
  26      1D33B4E5 
  26      48133258 
  26      2F686365 
  27 0063 AC5AE8BA 		.ascii	"\254Z\350\272\202U\341\273\036\222\323Z<Nl\356i\304"
  27      8255E1BB 
  27      1E92D35A 
ARM GAS  /var/folders/c6/c789hm653lg9vtl73krp73tm0000gn/T//ccvFz436.s 			page 2


  27      3C4E6CEE 
  27      69C4
  28 0075 A0872918 		.ascii	"\240\207)\030\301v\"BC%EB\352H*\350L%\367\205\177\000"
  28      C1762242 
  28      43254542 
  28      EA482AE8 
  28      4C25F785 
  29 008b D425D3A0 		.ascii	"\324%\323\240*\324n\302 \205\364h?W\030td\372\354\272"
  29      2AD46EC2 
  29      2085F468 
  29      3F571874 
  29      64FAECBA 
  30 009f 4472987D 		.ascii	"Dr\230}5\253h\273\027\371p\315\267\036\242\327\324%"
  30      35AB68BB 
  30      17F970CD 
  30      B71EA2D7 
  30      D425
  31 00b1 6AFF3A2B 		.ascii	"j\377:+\"#\277M\223\377v\307\033\257\224\037\255"
  31      2223BF4D 
  31      93FF76C7 
  31      1BAF941F 
  31      AD
  32              		.text
  33              		.section	.gnu.lto_.pureconst.429ad536565160d5,"",%progbits
  34 0000 789C6362 		.ascii	"x\234cb`b\340e\200\0006\006)F+&)f+\026)V+\000\007\246"
  34      6062E065 
  34      80003606 
  34      29462B26 
  34      29662B16 
  35 001a 0123     		.ascii	"\001#"
  36              		.text
  37              		.section	.gnu.lto_chPoolObjectInit.429ad536565160d5,"",%progbits
  38 0000 789C6D8F 		.ascii	"x\234m\2171k\002A\020\205\337\233;E\360\027$\225h)\334"
  38      316B0241 
  38      1085DF9B 
  38      3B45F017 
  38      24956829 
  39 0015 FD190553 		.ascii	"\375\031\005S&GP\301\343\202g\357)bm)Z\245\275\"\351"
  39      264750C1 
  39      E38267EF 
  39      29626D29 
  39      5AA5BD22 
  40 002a 82A5D662 		.ascii	"\202\245\326bB\272\224v\202\225\245\235\231\275\325"
  40      42BA9476 
  40      8295A59D 
  40      99BDD5
  41 0039 461D76DF 		.ascii	"F\035v\337\014;\363\275\335\025\010\256\343A\367#\201"
  41      0C3BF3BD 
  41      DD1508AE 
  41      E341F723 
  41      81
  42 004a B2663AA0 		.ascii	"\262f:\240L\276\201AAHS\200\350\013\373O\314f?e\271"
  42      4CBE8141 
  42      41485380 
  42      E80BFB4F 
  42      CC663F65 
  43 005f 3D9D3EBE 		.ascii	"=\235>\276\306?+\246\025\235\011\011W\205y\025c\235"
ARM GAS  /var/folders/c6/c789hm653lg9vtl73krp73tm0000gn/T//ccvFz436.s 			page 3


  43      C63F2BA6 
  43      159D0909 
  43      57857915 
  43      639D
  44 0071 C3284926 		.ascii	"\303(I&\245P\215\020dLM\325\030\325\265\257\331\331"
  44      A5508D10 
  44      644C4DD5 
  44      18D5B5AF 
  44      D9D9
  45 0083 60B838EE 		.ascii	"`\2708\356\216|\346;s\250\"M4\212mb\216\031\333d\223"
  45      8E7CE63B 
  45      73A8224D 
  45      348A6D62 
  45      8E19DB64 
  46 0098 D2D06CDF 		.ascii	"\322\320l\337\371b\257\2059\311\012\245\327\323\375"
  46      F962AF85 
  46      39C90AA5 
  46      D7D3FD
  47 00a7 41AE69E7 		.ascii	"A\256i\347>m\241&]K.\366\1777\244{\237\2243\231\007"
  47      3E6DA126 
  47      5D4B2EF6 
  47      7F37A47B 
  47      9F943399 
  48 00bc 7E31D8A6 		.ascii	"~1\330\246\025\313]\242\246\326\372\0333U\362<\337\256"
  48      15CB5DA2 
  48      A6D6FA1B 
  48      3355F23C 
  48      DFAE
  49 00ce 28F6BB3D 		.ascii	"(\366\273=?\356\006~\320\012_\303\267(\352\304^\200"
  49      3FEE067E 
  49      D00A5FC3 
  49      B728EAC4 
  49      5E80
  50 00e0 7F46284B 		.ascii	"\177F(K\234"
  50      9C
  51              		.text
  52              		.section	.gnu.lto_chPoolLoadArray.429ad536565160d5,"",%progbits
  53 0000 789CBD54 		.ascii	"x\234\275TMh\023A\024~of7i\223H\365&R\322\340\017\370"
  53      4D681341 
  53      147E6F66 
  53      37699348 
  53      F52652D2 
  54 0017 531A6F9E 		.ascii	"S\032o\236\004\245 x\310\305\266\240'\331\256!\2154"
  54      04A52078 
  54      C8C5B6A0 
  54      27D9AE21 
  54      8D34
  55 0029 26246DA9 		.ascii	"&$m\251^\234\266\241\012\326R\252\210Z\013\376\377!"
  55      5E9CB6A1 
  55      0AD652AA 
  55      885A0BFE 
  55      FF21
  56 003b 8AFF5245 		.ascii	"\212\377RE\243\242m\321\026{\263E$EDD\017zQ\0041\276"
  56      A3A26DD1 
  56      167BB345 
  56      24454444 
  56      0F7A5104 
ARM GAS  /var/folders/c6/c789hm653lg9vtl73krp73tm0000gn/T//ccvFz436.s 			page 4


  57 0051 D9C96E92 		.ascii	"\331\311n\222\372\223\203\340\220\235\235\235\367\315"
  57      FA9383E0 
  57      909D9D9D 
  57      F7CD
  58 005f F7E67DEF 		.ascii	"\367\346}\357\3451`0w\254\245\307t\001|\2447\272\000"
  58      E5316030 
  58      77ACA5C7 
  58      74017CA4 
  58      37BA00
  59 0072 D9C02440 		.ascii	"\331\300$@W\005CM-\270Z<\254\320\030\357\033\005\020"
  59      5705434D 
  59      2DB85A3C 
  59      ACD018EF 
  59      1B0510
  60 0085 1E3DED06 		.ascii	"\036=\355\006\341\323\021\345> \354f\\\323q\367\026"
  60      E1D311E5 
  60      3E20EC66 
  60      5CD371F7 
  60      16
  61 0096 B4F8AEB0 		.ascii	"\264\370\256\260L6\227\273<\270\347\376s\034f\013\020"
  61      4C3697BB 
  61      3CB8E7FE 
  61      731C660B 
  61      10
  62 00a7 62485E63 		.ascii	"bH^c\210\032\322J\247\011\3354\261J\210\"x\244\325+"
  62      881AD24A 
  62      A709DD34 
  62      B14A8822 
  62      78A4D52B 
  63 00bb AD3EFA94 		.ascii	"\255>\372\224\004:\244\205\030\010\304\220\323\265,"
  63      043AA485 
  63      1808C490 
  63      D3B52C
  64 00ca C6469AC9 		.ascii	"\306F\232\311c\0232z\361qxT\001t@#\012\025@\023A\351"
  64      6313327A 
  64      F1717854 
  64      01744023 
  64      0A154013 
  65 00e0 6264E9CE 		.ascii	"bd\351\316N>v\033x\002u\002\350\204\001\030\007\246"
  65      4E3E761B 
  65      78027502 
  65      E8840118 
  65      07A6
  66 00f2 3616C309 		.ascii	"6\026\303\011!\0063\007\366<C1(\272>\345rUQd\014\226"
  66      21063307 
  66      F63C4331 
  66      28BA3EE5 
  66      72555164 
  67 0108 A074B319 		.ascii	"\240t\263\031\243\310\003\326K\323J\365\211\310k\021"
  67      A3C803D6 
  67      4BD34AF5 
  67      89C86B11 
  68 0118 B7E5D545 		.ascii	"\267\345\325E\274\366\227b\314^}{\260\366\210\310\244"
  68      BCF69762 
  68      CC5E7D7B 
  68      B0F688C8 
  68      A4
ARM GAS  /var/folders/c6/c789hm653lg9vtl73krp73tm0000gn/T//ccvFz436.s 			page 5


  69 0129 8F8BEFB9 		.ascii	"\217\213\357\271\034\022\201\316 T\216\224\230Ji\304"
  69      1C1281CE 
  69      20548E94 
  69      984A69C4 
  70 0139 35212A2D 		.ascii	"5!*-\012N\014\006\236\241\350\376\205\202\242>U\226"
  70      0A4E0C06 
  70      9EA1E8FE 
  70      8582A23E 
  70      5596
  71 014b A228B47C 		.ascii	"\242(\264|0/z\177\270J\202q1\330U.\030\271\347\012\320"
  71      302F7A7F 
  71      B84A8271 
  71      31D8552E 
  71      18B9E70A 
  72 0160 6212BA3F 		.ascii	"b\022\272?\357}r\255\217\347\223hg3sj\177n\336r\003"
  72      EF7D72AD 
  72      8FE79368 
  72      6733736A 
  72      7F6EDE72 
  73 0175 CFE36227 		.ascii	"\317\343b'\303\231\257\207\356y\253\235\257\361'\334"
  73      C399AF87 
  73      EE79AB9D 
  73      AFF127DC 
  74 0185 59BF99B9 		.ascii	"Y\277\231\271\260\010\015<Gh\003\317\026\237\331\367"
  74      B0080D3C 
  74      476803CF 
  74      169FD9F7 
  75 0195 6E961B78 		.ascii	"n\226\033x\3322\234\264\014*\271&\312;\312p9=\032=:"
  75      DA329CB4 
  75      0C2AB926 
  75      CA3BCA70 
  75      393D1A3D 
  76 01aa 58A58930 		.ascii	"X\245\2110A[T(\\U\276\037^\343\2608\274.\212\356\222"
  76      415B5428 
  76      5C55BE1F 
  76      5EE3B038 
  76      BC2E8AEE 
  77 01bf 9B17ECB3 		.ascii	"\233\027\354\263y{\205\212\255X\235\314\201\376\342"
  77      797B858A 
  77      AD589DCC 
  77      81FEE2
  78 01ce E2F9DF59 		.ascii	"\342\371\337Y\312\276z\353\315\013\373\033*\242y\217"
  78      CABE7AEB 
  78      CD0BFB1B 
  78      2AA2798F 
  79 01de E532650B 		.ascii	"\3452e\013)\256\037\363\033x\313\322\361f^\307\313\226"
  79      29AE1FF3 
  79      1B78CBD2 
  79      F1665EC7 
  79      CB96
  80 01f0 8E2EB03E 		.ascii	"\216.\260>\356\320\246\345w\002\272g\356\214\314\322"
  80      EED0A6E5 
  80      7702BA67 
  80      EE8CCCD2 
  81 0200 456F933D 		.ascii	"Eo\223=\202\276!8\332%\304|r\030A\267\364Q\231g&\344"
  81      82BE2138 
  81      DA25C47C 
ARM GAS  /var/folders/c6/c789hm653lg9vtl73krp73tm0000gn/T//ccvFz436.s 			page 6


  81      721841B7 
  81      F4519967 
  82 0216 F88047E1 		.ascii	"\370\200G\341V\301EAc\036\241\034\274\207\370$^u\211"
  82      56C14541 
  82      631EA11C 
  82      BC87F824 
  82      5E7589
  83 0229 66B4FC8C 		.ascii	"f\264\374\214\310D\021\253:\376r\344\033*\202?x\371"
  83      C84411AB 
  83      3AFE72E4 
  83      1B2A823F 
  83      78F9
  84 023b B560A77A 		.ascii	"\265`\247z'Fq\260G\214\211t\206*\266\206\362i\340\205"
  84      274671B0 
  84      478C8974 
  84      862AB686 
  84      F269E085 
  85 024f B29A5A89 		.ascii	"\262\232Z\211\207\277\227\354p\025\225\354\203\322\222"
  85      87BF97EC 
  85      701595EC 
  85      83D292
  86 025e FDE0F53B 		.ascii	"\375\340\365;-\252P\273OyA@\253\256L*\237_k\320\300"
  86      2DAA50BB 
  86      4F794140 
  86      ABAE4C2A 
  86      9F5F6BD0 
  87 0273 ABB4705C 		.ascii	"\253\264p\\\3335g\340\015\364;\032\316\034\3762\246"
  87      DB3567E0 
  87      0DF43B1A 
  87      CE1CFE32 
  87      A6
  88 0284 A9AA8E60 		.ascii	"\251\252\216`\345*X\031E\257RC\014\321I_^\017=\257\""
  88      E52A5819 
  88      45AF5243 
  88      0CD1495F 
  88      5E0F3DAF 
  89 0299 3AEAF7EC 		.ascii	":\352\367\354\353\361\333\347\244\326\021\251\231\323"
  89      EBF1DBE7 
  89      A4D611A9 
  89      99D3
  90 02a7 FEA8CDD2 		.ascii	"\376\250\315\322\266\205\333\333\363\241\337e#\275\021"
  90      B685DBDB 
  90      F3A1DF65 
  90      23BD11
  91 02b6 6492CF9B 		.ascii	"d\222\317\233\243Q\005%'\210\302\253\330\233\350?E\315"
  91      A3510525 
  91      2788C2AB 
  91      D89BE83F 
  91      45CD
  92 02c8 9EDB6D90 		.ascii	"\236\333m\220,\254\320\024UZ\306 \375\361\341\320\250"
  92      2CACD014 
  92      555AC620 
  92      FDF1E1D0 
  92      A8
  93 02d9 CF6656B4 		.ascii	"\317fV\264\005\311\247\201Ni\214&\017\357\273[=\015"
  93      05C9A781 
  93      4E698C26 
ARM GAS  /var/folders/c6/c789hm653lg9vtl73krp73tm0000gn/T//ccvFz436.s 			page 7


  93      0FEFBB5B 
  93      3D0D
  94 02eb 2C42AD52 		.ascii	",B\255R\372\340\227\356.\224>t\331\337\247\240+\373"
  94      FAE097EE 
  94      2E943E74 
  94      D9DFA7A0 
  94      2BFB
  95 02fd 6A8922B1 		.ascii	"j\211\"\261G#\361\247\335R\254@]]P\375\342\251`\262"
  95      4723F1A7 
  95      DD52AC40 
  95      5D5D50FD 
  95      E2A960B2 
  96 0311 2D984A9A 		.ascii	"-\230J\232A\263%\026\216%\342\361\326T\235\011Z\274"
  96      41B32516 
  96      8E25E2F1 
  96      D6549D09 
  96      5ABC
  97 0323 797B62E9 		.ascii	"y{b\351\034Tt\207\331\332\276-\\\214l\001\026K\254\230"
  97      1C547487 
  97      D9DABE2D 
  97      5C8C6C01 
  97      164BAC98 
  98 0337 834BC493 		.ascii	"\203K\304\223m\251\340\372M\241\372P'\201\315x2\274"
  98      6DA9E0FA 
  98      4DA1FA50 
  98      2781CD78 
  98      32BC
  99 0349 B5634D8C 		.ascii	"\265cM\214\300z\207\321\332\036\256-\306\207;\333\202"
  99      C07A87D1 
  99      DA1EAE2D 
  99      C6873BDB 
  99      82
 100 035a F5A1868D 		.ascii	"\365\241\206\215\015\005z\2117c\033\332w\230t\244\346"
 100      0D057A89 
 100      37631BDA 
 100      779874A4 
 100      E6
 101 036b 8F9748ED 		.ascii	"\217\227H\355\224\376\347\207\0326\005\232\215T8\221"
 101      94FEE787 
 101      1A36059A 
 101      8D543891 
 102 037b 8CD60696 		.ascii	"\214\326\006\226\255\006\226\0047\335/\236\334\011<"
 102      AD069604 
 102      37DD2F9E 
 102      DC093C
 103 038a D192F809 		.ascii	"\321\222\370\011\204\250\272\012"
 103      84A8BA0A 
 104              		.text
 105              		.section	.gnu.lto_chPoolAllocI.429ad536565160d5,"",%progbits
 106 0000 789C8552 		.ascii	"x\234\205R\275K\034A\024\177\277\371Xo\357\224\210\225"
 106      BD4B1C41 
 106      147FBFF9 
 106      586FEF94 
 106      8895
 107 0012 581D4911 		.ascii	"X\035I\021\210pW\212\205\177A\332\010\332\251\213\350"
 107      8870578A 
 107      857F41DA 
ARM GAS  /var/folders/c6/c789hm653lg9vtl73krp73tm0000gn/T//ccvFz436.s 			page 8


 107      08DAA98B 
 107      E8
 108 0023 851C279E 		.ascii	"\205\034'\236mpN\256\022\013\223\312\017$~`c\243\245"
 108      6D704EAE 
 108      120B93CA 
 108      0F247E60 
 108      63A3A5
 109 0036 85E0A653 		.ascii	"\205\340\246S\310\007v1\325\221\332F$`!Y\337\314\356"
 109      C8077631 
 109      D591DA46 
 109      24602159 
 109      DFCCEE
 110 0049 2C5C0C64 		.ascii	",\\\014d\330\235\267\363v~\037\357\315\010\022\364\367"
 110      D89DB7F3 
 110      767E1FEF 
 110      CD0812F4 
 110      F7
 111 005a 78CDEF31 		.ascii	"x\315\3571\247_rD\017A\254\177#j\025\204\220;cd\212"
 111      A75F7244 
 111      0F41AC7F 
 111      236A1584 
 111      903B6364 
 112 006f EAAE9F4C 		.ascii	"\352\256\237L\257D\220\246\225\320\3336\035\374\266"
 112      AF4490A6 
 112      95D0DB36 
 112      1DFCB6
 113 007e 69EDD301 		.ascii	"i\355\323\001`?\010\264,\244\322\001\226'a\311\361\234"
 113      603F08B4 
 113      2CA4D201 
 113      962761C9 
 113      F19C
 114 0090 F68CF9D8 		.ascii	"\366\214\371\3309\374s\201M\023\267w\315C\222\0005\260"
 114      39FC7381 
 114      4D13B777 
 114      CD439200 
 114      35B0
 115 00a2 9117A008 		.ascii	"\221\027\240\0104\301\013\224]\020\252\333\331\261\210"
 115      34C10B94 
 115      5D10AADB 
 115      D9B188
 116 00b1 3B49B276 		.ascii	";I\262v~\366k\023\003\275\240i\3541\237B\035\244\263"
 116      7EF66B13 
 116      03BDA069 
 116      EC319F42 
 116      1DA4B3
 117 00c4 454035C8 		.ascii	"E@5\310\002O*\344I\227\2624\017Mmc\326\313\351\272\016"
 117      024F2AE4 
 117      4997B234 
 117      0F4D6D63 
 117      D6CBE9BA 
 118 00d9 76133947 		.ascii	"v\0239Gox\266V\307!l\224_i\345\347\217$\3064\016\240"
 118      6F78B656 
 118      C7216C94 
 118      5F69E5E7 
 118      8F24C634 
 119 00ef 690E7A98 		.ascii	"i\016z\230\216\014\217Q&\336\246-\266\025\314AY{=\316"
 119      8E0C8F51 
ARM GAS  /var/folders/c6/c789hm653lg9vtl73krp73tm0000gn/T//ccvFz436.s 			page 9


 119      26DEA62D 
 119      B615CC41 
 119      597B3DCE 
 120 0103 D40CBCBD 		.ascii	"\324\014\274\275KZ\211\007SX\252\302`\242\013j\337|"
 120      4B5A8907 
 120      5358AAC2 
 120      60A20B6A 
 120      DF7C
 121 0115 FEB02A73 		.ascii	"\376\260*s>\013\355*k\034\222v\306\234\360\351\376m"
 121      3E0BED2A 
 121      6B1C9276 
 121      C69CF0E9 
 121      FE6D
 122 0127 BE3118A6 		.ascii	"\2761\030\246W\271f!\003\312L\32330\350\362\244\230"
 122      57B96621 
 122      03CA4CD3 
 122      3330E8F2 
 122      A498
 123 0139 4232A3CF 		.ascii	"B2\243\317\376c\224\231\275\256\242\273~\247{\277\177"
 123      FE639499 
 123      BDAEA2BB 
 123      7EA77BBF 
 123      7F
 124 014a 9B175C70 		.ascii	"\233\027\\p\272\341\277)\374u\261U\265Fr\210\335\022"
 124      BAE1BF29 
 124      FC75B155 
 124      B5467288 
 124      DD12
 125 015c 76D7A4E9 		.ascii	"v\327\244\351S\237\343\3368\270\316k\012\035w\221\271"
 125      539FE3DE 
 125      38B8CE6B 
 125      0A1D7791 
 125      B9
 126 016d 5BECF4FD 		.ascii	"[\354\364\375S~\231\341\277S;\036\362\250\022+X\337"
 126      537E99E1 
 126      BF533B1E 
 126      F2A8122B 
 126      58DF
 127 017f 610D25DB 		.ascii	"a\015%\333f\321\335\344\222\227\014\334\001\3621\360"
 127      66D1DDE4 
 127      92970CDC 
 127      01F231F0 
 128 018f 6EFF938B 		.ascii	"n\377\223\213\276\242Vgc\326\223\271.\\\023\270\241"
 128      BEA25667 
 128      63D693B9 
 128      2E5C13B8 
 128      A1
 129 01a0 F2E67C8A 		.ascii	"\362\346|\212\203\262\034\372\313\325\274\275\014\260"
 129      83B21CFA 
 129      CBD5BCBD 
 129      0CB0
 130 01ae 1CB6CA72 		.ascii	"\034\266\312r\245RM\237F\263\272\270Tm.F\325h\276>["
 130      A5524D9F 
 130      46B3BAB8 
 130      546D2E46 
 130      D568BE3E 
 131 01c3 5F6834DE 		.ascii	"_h4\3365+\021\251\306\314\333\205G\307A\245\033"
ARM GAS  /var/folders/c6/c789hm653lg9vtl73krp73tm0000gn/T//ccvFz436.s 			page 10


 131      352B11A9 
 131      C6CCDB85 
 131      47C741A5 
 131      1B
 132              		.text
 133              		.section	.gnu.lto_chPoolAlloc.429ad536565160d5,"",%progbits
 134 0000 789C8D54 		.ascii	"x\234\215T]H\024Q\024>\347\316\317\376Yn=U\204-E\017"
 134      5D481451 
 134      143EE7CE 
 134      CFFE596E 
 134      3D55842D 
 135 0016 A5ECF6E6 		.ascii	"\245\354\366\346SP\010A\204/\232PO5NK\273\341\266\313"
 135      53500841 
 135      842F9A50 
 135      4F354E4B 
 135      BBE1B6CB 
 136 002a AE8A3E79 		.ascii	"\256\212>yW\214(|0)\350\007\251,_\0222\015\312\300j"
 136      578C287C 
 136      3029E807 
 136      A92C5F12 
 136      320DCAC0 
 137 003f 23A2ECC7 		.ascii	"#\242\354\307\360!\3102X\352!*\241D\202\212j;\367\316"
 137      F021C832 
 137      58EA212A 
 137      A144828A 
 137      6A3BF7CE 
 138 0053 CC36BB51 		.ascii	"\3146\273Q6\2733\367\336\363\367}\347\2349\303\200A"
 138      36BB33F7 
 138      DEF3F77D 
 138      E79C39C3 
 138      8041
 139 0065 F9B583EE 		.ascii	"\371\265\203\356:\015\340.\255\350\001d}S\000Y/c\312"
 139      3A0DE02E 
 139      ADE80164 
 139      7D530059 
 139      2F63CA
 140 0078 C066E07E 		.ascii	"\300f\340~u!\010\274BA\335\022\253L;#\304\372g!\326"
 140      752108BC 
 140      4241DD12 
 140      AB4C3B23 
 140      C4FA6721 
 141 008d 1CB18E28 		.ascii	"\034\261\216(6\200\320\305\024U\323\261k7\212\340\270"
 141      3680D0C5 
 141      1455D3B1 
 141      6B378AE0 
 141      B8
 142 009e 16CE73DE 		.ascii	"\026\316s\336\237\2777<\211\247x\256\347\034\377^( "
 142      9FBF373C 
 142      89A778AE 
 142      E71CFF5E 
 142      2820
 143 00b0 C69188AC 		.ascii	"\306\221\210\254C0\021v\321\001Craj)\263\021\226\313"
 143      43301176 
 143      D1014372 
 143      616A29B3 
 143      1196CB
 144 00c3 170AB3CF 		.ascii	"\027\012\263\317\306_\337\304\345\313\024L \350`\340"
ARM GAS  /var/folders/c6/c789hm653lg9vtl73krp73tm0000gn/T//ccvFz436.s 			page 11


 144      C65FDFC4 
 144      E5CB144C 
 144      20E860E0 
 145 00d3 790AEA81 		.ascii	"y\012\352\2018*^z\250>zh~[\034\260W\2724\350\341\274"
 145      382A5E7A 
 145      A83E7A68 
 145      7E5B1CB0 
 145      57BA34E8 
 146 00e9 2FE49C4D 		.ascii	"/\344\234MIg'=\005\317&dbU&\241\333\013`s\034\235\277"
 146      4967273D 
 146      05CF2664 
 146      625526A1 
 146      DB0B6073 
 147 0100 5E53C251 		.ascii	"^S\302Qg\320\260\030G!\323C\264\231\202\356\371\361"
 147      67D0B018 
 147      4721D343 
 147      B49982EE 
 147      F9F1
 148 0112 BB63BD8A 		.ascii	"\273c\275\212\015\3540\310\275\371\3661\310\014\274"
 148      0DEC30C8 
 148      BDF9F631 
 148      C80CBC
 149 0121 2869D8B2 		.ascii	"(i\330\262\353\307'\002\253\213\247#\263\324\025\003"
 149      EBC72702 
 149      AB8BA723 
 149      B3D41503 
 150 0131 2FA04660 		.ascii	"/\240F`\002\220\321\255\310\362\321o\210\266\244W\254"
 150      0290D1AD 
 150      C8F2D16F 
 150      88B6A457 
 150      AC
 151 0142 D655C135 		.ascii	"\326U\3015\034\340'\267\304\251Un\370\337\372\033\266"
 151      1CE027B7 
 151      C4A9556E 
 151      F8DFFA1B 
 151      B6
 152 0153 DE6B1174 		.ascii	"\336k\021t\247\230{\371\360\021\362~\236\375T(T\306"
 152      A7987BF9 
 152      F011F27E 
 152      9EFD5428 
 152      54C6
 153 0165 D1C7E00E 		.ascii	"\321\307\340\016.\226\340~\301\344\011t\277x^\310\241"
 153      2E96E07E 
 153      C1E40974 
 153      BF785EC8 
 153      A1
 154 0176 9D9B1D6D 		.ascii	"\235\233\035m\341~\357J~\256\273\217\377\244zQK\015"
 154      E17EEF4A 
 154      7EAEBB8F 
 154      FFA47A51 
 154      4B0D
 155 0188 1C94D4FF 		.ascii	"\034\224\324\377\025\316I\232\277=\261\302\300\021Y"
 155      15CE499A 
 155      BF3DB1C2 
 155      C01159
 156 0197 142775D5 		.ascii	"\024'u\325\302\323\253\341\022\347<\367\343\360Rj\362"
 156      C2D3ABE1 
ARM GAS  /var/folders/c6/c789hm653lg9vtl73krp73tm0000gn/T//ccvFz436.s 			page 12


 156      12E73CF7 
 156      E3F0526A 
 156      F2
 157 01a8 19389DE5 		.ascii	"\0318\235\345<\030G?1\021\021}2J3J\307\253\344h%\231"
 157      3C18473F 
 157      3111117D 
 157      324A334A 
 157      C7ABE468 
 158 01be A370A374 		.ascii	"\243p\243t2p\214\202R\024\200\007\3203w\347\330Q\305"
 158      32708C82 
 158      52148007 
 158      D03377E7 
 158      D851C5
 159 01d1 529048B8 		.ascii	"R\220H\270\227pi\242\344\0066+\"\275\361\301\371\242"
 159      977069A2 
 159      E406362B 
 159      22BDF1C1 
 159      F9A2
 160 01e3 A1A71A36 		.ascii	"\241\247\0326\272\241\003\266\257bC\243\013\232|'\257"
 160      BAA103B6 
 160      AF6243A3 
 160      0B9A7C27 
 160      AF
 161 01f4 F82D4F8B 		.ascii	"\370-O\2138\257\374?\332\373\255\026\012\026*,\004%"
 161      38AFFC3F 
 161      DAFBAD16 
 161      0A162A2C 
 161      0425
 162 0206 8B2F83F3 		.ascii	"\213/\203\363\350\260\360J\026\025\177\215\304\\,D\252"
 162      E8B0F04A 
 162      16157F8D 
 162      C45C2C44 
 162      AA
 163 0217 D9DAA2A7 		.ascii	"\331\332\242\2470\253(MT\203\263K$\304\311\0133\305"
 163      30AB284D 
 163      5483B34B 
 163      24C4C90B 
 163      33C5
 164 0229 447D1262 		.ascii	"D}\022b\311_!\024\027\304S\350\311\255r\034\311\320"
 164      C95F2114 
 164      17C453E8 
 164      C9AD721C 
 164      C9D0
 165 023b 2B32F0C5 		.ascii	"+2\360\305q\251(?+-\276\337A\325]c\346(\003\262_\371"
 165      71A9283F 
 165      2B2DBEDF 
 165      41D55D63 
 165      E62803B2 
 166 0251 1B8774AB 		.ascii	"\033\207t\253\361\305\221\205\322q|7Q6\216\006\016-"
 166      F1C59185 
 166      D2717C37 
 166      51368E06 
 166      0E2D
 167 0263 FA7EC981 		.ascii	"\372~\311\201\200\177\316\343\373\257b\036o\225\316"
 167      807FCEE3 
 167      FBAF621E 
 167      6F95CE
ARM GAS  /var/folders/c6/c789hm653lg9vtl73krp73tm0000gn/T//ccvFz436.s 			page 13


 168 0272 E3874055 		.ascii	"\343\207@U\361\233\361{0_\271\006S\026\301\244\340\177"
 168      F19BF17B 
 168      305FB906 
 168      5316C1A4 
 168      E07F
 169 0284 CEA681C3 		.ascii	"\316\246\201\303\264)B;\263h\340e\254\262hMC6?\021\265"
 169      B429423B 
 169      B368E065 
 169      ACB2684D 
 169      43363F11 
 170 0299 42C90A00 		.ascii	"B\311\012\000\314\200x\255\224\271\333{iQE\321\264\307"
 170      CC8078AD 
 170      94B9DB7B 
 170      695145D1 
 170      B4C7
 171 02ab D331F18D 		.ascii	"\3231\361\215BQ4\021!\024\016G\254\1772\023I\267F2i"
 171      42513411 
 171      21140E47 
 171      AC7F3213 
 171      49B74632 
 172 02c0 3362C612 		.ascii	"3b\306\022\321D*\231l\311\204MP\223\315\007R\033\312"
 172      D1442A99 
 172      6CC9844D 
 172      5093CD07 
 172      521BCA
 173 02d3 AC52C974 		.ascii	"\254R\311tk&\262\265\241\276\256\276\203\314\315d:\272"
 173      6B26B2B5 
 173      A1BEAEBE 
 173      83CCCD64 
 173      3ABA
 174 02e5 A7BD3611 		.ascii	"\247\2756\021\216\201\326n\264\264Ek\334\366\321\216"
 174      8E81D66E 
 174      B4B4456B 
 174      DCF6D18E 
 175 02f5 D6485D7D 		.ascii	"\326H]}\343\366\306H\374\240\331\322\266/\032\221\366"
 175      E3F6C648 
 175      FCA0D9D2 
 175      B62F1A91 
 175      F6
 176 0306 66625BDB 		.ascii	"fb[\333A\223\\\326\224\005/Z\3052\235\031\322\007\353"
 176      41935CD6 
 176      94052F5A 
 176      C5329D19 
 176      D207EB
 177 0319 1B1B42CD 		.ascii	"\033\033B\315F&\232J\307kB\3537\001K\203\207\030&\323"
 177      46269A4A 
 177      C76B42EB 
 177      37014B83 
 177      871826D3 
 178 032d 9DC012A9 		.ascii	"\235\300\022\251_\361\017r\360"
 178      5FF10F72 
 178      F0
 179              		.text
 180              		.section	.gnu.lto_chPoolFreeI.429ad536565160d5,"",%progbits
 181 0000 789C8551 		.ascii	"x\234\205Q\261J\003A\020}o\367\016E\361\003\322\205"
 181      B14A0341 
 181      107D6FF7 
ARM GAS  /var/folders/c6/c789hm653lg9vtl73krp73tm0000gn/T//ccvFz436.s 			page 14


 181      0E45F103 
 181      D285
 182 0012 881606EE 		.ascii	"\210\026\006\356~&\202\026\026\361\220\213\340qG\316"
 182      7E268216 
 182      16F1908B 
 182      E07147CE 
 183 0022 3E9BE007 		.ascii	">\233\340\007\0346\2026\306\322\"6\"\032,\322\206\020"
 183      1C368236 
 183      C6D22236 
 183      221A2CD2 
 183      8610
 184 0034 C14EAC62 		.ascii	"\301N\254b\355\027\330x\316\336%Bl\034vgfw\346\315{"
 184      ED17D878 
 184      CEDE2542 
 184      6C1C7667 
 184      6677E6CD 
 185 0049 CB2A28FC 		.ascii	"\313*(\374\265\212\354\003\002\333\022\251A\225\275"
 185      B58AEC03 
 185      02DB12A9 
 185      4195BD
 186 0058 00DD5545 		.ascii	"\000\335UE\332\004DG\261\263\317\242\367N\215fy>x\230"
 186      DA044447 
 186      B1B3CFA2 
 186      F74E8D66 
 186      793E7898 
 187 006c DC3F73A0 		.ascii	"\334?s\240V\310\210\320\342\350\340\270\350pqfLV\255"
 187      56C888D0 
 187      E2E8E0B8 
 187      E8707166 
 187      4C56AD
 188 007f A16FCCF9 		.ascii	"\241o\314\371\350irQ1\327\275\314|\3479\245Aa\223\010"
 188      E8697251 
 188      31D7BDCC 
 188      7CE739A5 
 188      41619308 
 189 0093 883D39B0 		.ascii	"\210=9\260Z\004\345,\253\211(\012\203bVC\274\225\260"
 189      5A04E52C 
 189      AB89280A 
 189      83625643 
 189      BC95B0
 190 00a6 2B5712F5 		.ascii	"+W\022\365\030\252\311>]4y\303\032BJ}\212\336\373\343"
 190      18AAC93E 
 190      5D3479C3 
 190      1A424A7D 
 190      8ADEFBE3 
 191 00ba F0635E08 		.ascii	"\360c^\010\351\324\261#DW\270\224\331:\244\266\034%"
 191      E9D4B123 
 191      4457B894 
 191      D93AA4B6 
 191      1C25
 192 00cc C521171C 		.ascii	"\305!\027\034\002\032gk%\244\216[#\266\361\013re\256"
 192      021A676B 
 192      25A48E5B 
 192      23B6F10B 
 192      7265AE
 193 00df 05610E2A 		.ascii	"\005a\016*\223\320\016\261\270\267\341\027\227\220\353"
 193      93D00EB1 
ARM GAS  /var/folders/c6/c789hm653lg9vtl73krp73tm0000gn/T//ccvFz436.s 			page 15


 193      B8B7E117 
 193      9790EB
 194 00ee FFD01532 		.ascii	"\377\320\0252_\321\235}n\225\270\2055\244 \317\262\037"
 194      5FD19D7D 
 194      6E95B885 
 194      35A420CF 
 194      B21F
 195 0100 52F53CBF 		.ascii	"R\365<\277\\q\352\267O\375\264\035\370A+:\212\2228>"
 195      5C71EAB7 
 195      4FFDB41D 
 195      F8412B3A 
 195      8A92383E 
 196 0114 49BD003A 		.ascii	"I\275\000:i%?\265>YW"
 196      69253FB5 
 196      3E5957
 197              		.text
 198              		.section	.gnu.lto_chPoolFree.429ad536565160d5,"",%progbits
 199 0000 789C8D53 		.ascii	"x\234\215SKh\023Q\024\275\367M\322\244F1[Ab(\210hC\306"
 199      4B681351 
 199      14BDF74D 
 199      D2A44631 
 199      5B416228 
 200 0018 9D5BA520 		.ascii	"\235[\245 \270\310\246\251\240+\231\214\241\031I:\303"
 200      B8C8A6A9 
 200      A02B998C 
 200      A119493A 
 200      C3
 201 0029 4C52DA55 		.ascii	"LR\332U_B\227\022B\024\374CkW~Cc\300R\003\006\374\021"
 201      5F429712 
 201      4214FC43 
 201      6B577E43 
 201      63C05203 
 202 0040 C4823B11 		.ascii	"\304\202;\021\221\270p\341\007l\227\025!\336y\223\304"
 202      91B870E1 
 202      076C9715 
 202      21DE7993 
 202      C4
 203 0051 4914D347 		.ascii	"I\024\323Gf\336\233y\367\234s\337\311\031\006\014\006"
 203      66DE9B79 
 203      F79C73DF 
 203      C919060C 
 203      06
 204 0062 C73EBA3E 		.ascii	"\307>\272>J\000\257hF\011\220\2256\000\362~\206h/\000"
 204      4A00AF68 
 204      46099095 
 204      3600F27E 
 204      86682F00 
 205 0076 6181E1C2 		.ascii	"a\201\341\302Y\024\265\025\326h\265\333\017\313\305"
 205      5914B515 
 205      D668B5DB 
 205      0FCBC5
 206 0085 DA775C63 		.ascii	"\332w\\c\273%\314 x\350\206>\320D\205\027\0269/\205"
 206      BB25CC20 
 206      78E8863E 
 206      D0448517 
 206      16392F85 
 207 0099 0154F138 		.ascii	"\001T\3618Ew\233\34542{\226\232P\360\003\214\3012\347"
ARM GAS  /var/folders/c6/c789hm653lg9vtl73krp73tm0000gn/T//ccvFz436.s 			page 16


 207      45779BE5 
 207      34327B96 
 207      9A50F003 
 207      8CC132E7 
 208 00ad E5D695AD 		.ascii	"\345\326\225\255\307\221k\274\261\270\304\177\265\333"
 208      C7916BBC 
 208      B1B8C47F 
 208      B5DB
 209 00bb 881A5251 		.ascii	"\210\032RQ\014m\344\031z`a1I\236\376n\355wH\374\260"
 209      0C6DE419 
 209      7A606131 
 209      499EFE6E 
 209      ED7748FC 
 210 00d0 0185AD7B 		.ascii	"\001\205\255{\317\252\027\245\236\244\263hT~\376\010"
 210      CFAA17A5 
 210      9EA4B368 
 210      547EFE08 
 211 00e0 32056FE3 		.ascii	"2\005o\343X\257\237\306\312\345z`\177\357\251\371\202"
 211      58AF9FC6 
 211      CAE57A60 
 211      7FEFA9F9 
 211      82
 212 00f1 8EABE032 		.ascii	"\216\253\3402zI\314\026dtI \016\213\260DKrIr\254\012"
 212      7A49CC16 
 212      64744920 
 212      0E8BB044 
 212      4B724972 
 213 0107 C12ADEE2 		.ascii	"\301*\336\342W\217k\350\351\223\377\263_\353\354{\235"
 213      578F6BE8 
 213      E993FFB3 
 213      5FEBEC7B 
 213      9D
 214 0118 06DD476C 		.ascii	"\006\335Gl\\*\276F^\346\371\315v{\257\206#\014\3528"
 214      5C2ABE46 
 214      5EE6F9CD 
 214      767BAF86 
 214      230CEA38 
 215 012c EC80D376 		.ascii	"\354\200\323v'n\022^\345|Tx$i\350c\360t\007\024\036"
 215      276E125E 
 215      E57C5478 
 215      2469E863 
 215      F0740714 
 216 0141 41D1FAF0 		.ascii	"A\321\372\3609\320q\347\037T\324\377\363\241T]\317\370"
 216      39D071E7 
 216      1F54D4FF 
 216      F3A1545D 
 216      CFF8
 217 0153 A39B2105 		.ascii	"\243\233!\005+\344\251\202\017\204\263]\377\004@\301"
 217      2BE4A982 
 217      0F84B35D 
 217      FF0440C1 
 218 0163 2ABD14BA 		.ascii	"*\275\024\272o\240\360~m\375\023\375\003\253\264?\215"
 218      6FA0F07E 
 218      6DFD13FD 
 218      03ABB43F 
 218      8D
 219 0174 BE713842 		.ascii	"\276q8Bb7\340z\236\363\240\206~:\240\2554\"\330\023"
ARM GAS  /var/folders/c6/c789hm653lg9vtl73krp73tm0000gn/T//ccvFz436.s 			page 17


 219      6237E07A 
 219      9EF3A086 
 219      7E3AA0AD 
 219      3422D813 
 220 0188 28D035C7 		.ascii	"(\3205\307=\3026K\273\034\3448\334\3454\366\270\261"
 220      3DC2364B 
 220      BB1CE438 
 220      DCE534F6 
 220      B8B1
 221 019a A3A46063 		.ascii	"\243\244`c\241\203\305\036\226t\034\370\273\365m\354"
 221      A183C51E 
 221      96741CF8 
 221      BBF56DEC 
 222 01aa 2308EC4C 		.ascii	"#\010\354L\274\353\231+\236_\352\003\361TpEDeh>\341"
 222      BCEB992B 
 222      9E5FEA03 
 222      F1547045 
 222      4465683E 
 223 01bf BFF9FCBA 		.ascii	"\277\371\374\272m\347\363I\177>\277\005B\256\257\247"
 223      6DE7F349 
 223      7F3EBF05 
 223      42AEAFA7 
 224 01cf 1BD497AE 		.ascii	"\033\324\227\256\240\012\207Tj\375\357\254*x\207\026"
 224      A00A8754 
 224      6AFDEFAC 
 224      2A788716 
 225 01df 3DE96E36 		.ascii	"=\351n6\025\274\217!\247\255\267\220o\025\0179T\335"
 225      15BC8F21 
 225      A7ADB790 
 225      6F150F39 
 225      54DD
 226 01f1 3145D5F4 		.ascii	"1E\325\364Q\332\245\341hTv~\272%\233Y\3312UYMe\222\031"
 226      51DAA5E1 
 226      6854767E 
 226      BA259B59 
 226      D9325559 
 227 0209 43D7D356 		.ascii	"C\327\323VT\205\303\003\005\206nf-\371\304dl\"6G\225"
 227      5485C303 
 227      05866E66 
 227      2DF9C464 
 227      6C223647 
 228 021e AA6E26CF 		.ascii	"\252n&\317\315\036\313DS\340\235U\322\271d\304]\237"
 228      CD1ECB44 
 228      53E09D55 
 228      D2B964C4 
 228      5D9F
 229 0230 9CCBCA13 		.ascii	"\234\313\312\023\261\370\251\270\254\315\250\351\334"
 229      B1F8A9B8 
 229      ACCDA8E9 
 229      DC
 230 023d F9A42CEA 		.ascii	"\371\244,\352\325\314\311\334\214J\220\003\003\344\275"
 230      D5CCC9DC 
 230      8C4A9003 
 230      03E4BD
 231 024c AA94356F 		.ascii	"\252\2245o\321~0\026\237\014'\024+i\230Z$|\360(0\023"
 231      D17E3016 
 231      9F0C2714 
ARM GAS  /var/folders/c6/c789hm653lg9vtl73krp73tm0000gn/T//ccvFz436.s 			page 18


 231      2B69985A 
 231      247CF028 
 232 0262 7CD49C6E 		.ascii	"|\324\234n\316\003\313\030\036=q\301\220\214\224\361"
 232      CE03CB18 
 232      1E3D71C1 
 232      908C94F1 
 233 0272 1B79981E 		.ascii	"\033y\230\036j"
 233      6A
 234              		.text
 235              		.section	.gnu.lto_.symbol_nodes.429ad536565160d5,"",%progbits
 236 0000 789C4DC7 		.ascii	"x\234M\307\273\015\200@\020\003Q\333\2674K\023N/D\""
 236      BB0D8040 
 236      100351DB 
 236      B7344B13 
 236      4E2F4422 
 237 0014 A71C42BA 		.ascii	"\247\034B\272\340w\"\243\001\010\220\330IFO\020z|i\245"
 237      E07722A3 
 237      010890D8 
 237      49464F10 
 237      7A7C69A5 
 238 0028 816101EC 		.ascii	"\201a\001\354\251R\033\315\304\235V\342A\227\304\223"
 238      A9521BCD 
 238      C49D56E2 
 238      4197C493 
 239 0038 8EC44677 		.ascii	"\216\304Fw?C\030\347KQp\277\303\003Hl#\004"
 239      3F4318E7 
 239      4B5170BF 
 239      C303486C 
 239      2304
 240              		.text
 241              		.section	.gnu.lto_.refs.429ad536565160d5,"",%progbits
 242 0000 789C6362 		.ascii	"x\234cb`b`d\200\002\000\000F\000\006"
 242      60626064 
 242      80020000 
 242      460006
 243              		.text
 244              		.section	.gnu.lto_.decls.429ad536565160d5,"",%progbits
 245 0000 789CAD58 		.ascii	"x\234\255X{\214SU\032?\347\266\364A;\303h\"\031\263"
 245      7B8C5355 
 245      1A3FE7B6 
 245      F4413BC3 
 245      682219B3 
 246 0014 C932ACA0 		.ascii	"\3112\254\240\361\301\224AP\366\037G$\272L\002+\221"
 246      F1C19441 
 246      50F61F47 
 246      24BA4C02 
 246      2B91
 247 0026 906C5CCD 		.ascii	"\220l\\\315\365\322\271\332j\247m\332\016:\373\017\247"
 247      F5D2B9DA 
 247      6AA76DDA 
 247      0E3AFB0F 
 247      A7
 248 0037 33308262 		.ascii	"30\202b(\343\262@\220\265\243\270\212\017f\203<4(VT"
 248      28E3B240 
 248      90B5A3B8 
 248      8A0F6683 
 248      3C342856 
ARM GAS  /var/folders/c6/c789hm653lg9vtl73krp73tm0000gn/T//ccvFz436.s 			page 19


 249 004c 06071F63 		.ascii	"\006\007\037cL0(h1*A\214\031\226]\003\301\320\375\316"
 249      4C302868 
 249      312A418C 
 249      19965D03 
 249      C1D0FDCE 
 250 0060 E3B6F79E 		.ascii	"\343\266\367\236\271\267\323n\366f\276\336s\357\375"
 250      B9B7D36E 
 250      F666BEDE 
 250      73EFFD
 251 006f 1EBFEFF7 		.ascii	"\036\277\357\367\235\373\335sFA\012\032S\020*\3011\347"
 251      9DFBDD73 
 251      46410A1A 
 251      53102AC1 
 251      31E7
 252 0081 2A843A5D 		.ascii	"*\204:]\010y\021B\267\201\300m\324\0162\210\370\341"
 252      08791142 
 252      B781C06D 
 252      D40E3288 
 252      F8E1
 253 0093 01790564 		.ascii	"\001y\005d\004\344\030\310\011\220\"\310\0314\376\240"
 253      04E418C8 
 253      099022C8 
 253      1934FEA0 
 254 00a3 7A9340F6 		.ascii	"z\223@\366\202\014\201\354\002\331!|A\010\264\007\344"
 254      820C81EC 
 254      02D9217C 
 254      4108B407 
 254      E4
 255 00b4 2D908320 		.ascii	"-\220\203 X\350\273A\336\003\371\000d\030\344g\311'"
 255      58E8BB41 
 255      DE03F900 
 255      6418E467 
 255      C927
 256 00c6 8DDB60F2 		.ascii	"\215\333`\362K\2615\202\004\205\377\013 \227\021w\250"
 256      4BB13582 
 256      0485FF0B 
 256      20971177 
 256      A8
 257 00d7 80EC1331 		.ascii	"\200\354\0231\207D.o\212\230~\341\313\2059v\037\234"
 257      87442E6F 
 257      8A987EE1 
 257      CB853976 
 257      1F9C
 258 00e9 83205330 		.ascii	"\203 S0\317\247\031\316\277\301\234\207\317@>\007\031"
 258      CFA719CE 
 258      BFC19C87 
 258      CF403E07 
 258      19
 259 00fa 05F92DDC 		.ascii	"\005\371-\334\273\006d\006\310Ll\305vL\3400c\242\030"
 259      BB066406 
 259      C84C6CC5 
 259      764CE030 
 259      63A218
 260 010d 5F16780D 		.ascii	"_\026x\015\016\366\011\016(\256\347D\316{\004\266\203"
 260      0EF6090E 
 260      28AEE744 
 260      CE7B04B6 
ARM GAS  /var/folders/c6/c789hm653lg9vtl73krp73tm0000gn/T//ccvFz436.s 			page 20


 260      83
 261 011e 021F16FE 		.ascii	"\002\037\026\376(\346/A\256\225bQ\336\247T\211e\346"
 261      28E62F41 
 261      AE956251 
 261      DEA75489 
 261      65E6
 262 0130 6197885D 		.ascii	"a\227\210]K\\\257\360m\346\343\230\211\017\012\343k"
 262      4B5CAFF0 
 262      6DE6E398 
 262      890F0AE3 
 262      6B
 263 0141 A926942F 		.ascii	"\251&\224/\217\210o`1\347\252\230\342`\241O\353\377"
 263      8F886F60 
 263      31E7AA98 
 263      E260A14F 
 263      EBFF
 264 0153 03C8F720 		.ascii	"\003\310\367 7J\271\321zL\026\376.\230|\232\363i7\345"
 264      374AB9D1 
 264      7A4C16FE 
 264      2E987C9A 
 264      F36937E5 
 265 0167 64F6EF45 		.ascii	"d\366\357E\325\353Iu\317\202\374$\345\020@O\020\322"
 265      D5EB4975 
 265      CF82FC24 
 265      E510404F 
 265      10D2
 266 0179 4BF2FD64 		.ascii	"K\362\375d\321\221\306\251h\023\201\003.\010\316h\270"
 266      D191C6A9 
 266      68138103 
 266      2E08CE68 
 266      B8
 267 018a 3D80FE84 		.ascii	"=\200\376\2045\334\350G-l\020\3643\352\020\322\360s"
 267      35DCE847 
 267      2D6C10F4 
 267      33EA10D2 
 267      F073
 268 019c 782A1BB9 		.ascii	"x*\033\271\230c\230Uk+^\220\255\325L\264\203\220\\q"
 268      98639855 
 268      6B2B5E90 
 268      ADD54CB4 
 268      83905C71 
 269 01b0 CDD98B0A 		.ascii	"\315\331\213\012!>\015\357\300~\260\275\037\243\033"
 269      213E0DEF 
 269      C07EB0BD 
 269      1FA31B
 270 01bf D04E8899 		.ascii	"\320N\210\231\003\373\233%>D\254I\376q\327\032~\021"
 270      03FB9B25 
 270      3E44AC49 
 270      FE71D71A 
 270      7E11
 271 01d1 DF807820 		.ascii	"\337\200x \366X\014\350\233<\205\352,w\225\015\252\200"
 271      F6580CE8 
 271      9B3C85EA 
 271      2C77950D 
 271      AA80
 272 01e3 D9FFF8FE 		.ascii	"\331\377\370\376\353\031\230A\034\0000\0330.{\036\307"
 272      EB199841 
ARM GAS  /var/folders/c6/c789hm653lg9vtl73krp73tm0000gn/T//ccvFz436.s 			page 21


 272      1C00301B 
 272      302E7B1E 
 272      C7
 273 01f4 0DCFD989 		.ascii	"\015\317\331\211\217\227\301\201\331\324\214Wz6\015"
 273      8F97C181 
 273      D9D48C57 
 273      7A360D
 274 0203 FD9DE48B 		.ascii	"\375\235\344\213\305\213#\037k[Ia5)\225V!\211\370\333"
 274      C58B231F 
 274      6B5B4961 
 274      35299556 
 274      2189F8DB 
 275 0217 AE720CF4 		.ascii	"\256r\014\364\252\225x\013\304+\321F\352\245\305T\202"
 275      AA95780B 
 275      C42BD146 
 275      EAA5C554 
 275      82
 276 0228 070CFB60 		.ascii	"\007\014\373`%\353KO\016\267\261\254\207\360\225\340"
 276      25EB4B4F 
 276      0EB7B1AC 
 276      87F095E0 
 277 0238 E55B29EB 		.ascii	"\345[)\353\211\274P\024\273\301\222\3330\237\244\260"
 277      89BC5014 
 277      BBC192DB 
 277      309FA4B0 
 278 0248 F17090B8 		.ascii	"\361p\220\270\371}\344@\004\034\323Q\036\320\026\236"
 278      F97DE440 
 278      041CD351 
 278      1ED0169E 
 279 0258 EEDF7E35 		.ascii	"\356\337~5\311\037\302v\340\363\036\247\011\004\275"
 279      C91FC276 
 279      E0F31EA7 
 279      0904BD
 280 0267 9A21DD27 		.ascii	"\232!\335'\307>\247\265\360\273\023G>\177\346CL\006"
 280      C73EA7B5 
 280      F0BB1347 
 280      3E7FE643 
 280      4C06
 281 0279 821ADECB 		.ascii	"\202\032\336\313\012\376k\331\241]@1\264\314\"\371p"
 281      0AFE6BD9 
 281      A15D4031 
 281      B4CC22F9 
 281      70
 282 028a 2A13F52F 		.ascii	"*\023\365/\016\005\255V\260\340\254\3160\002\365\246"
 282      0E05AD56 
 282      B0E0ACCE 
 282      3002F5A6 
 283 029a C3CF30BE 		.ascii	"\303\3170\276\214\227f}\335\376Z,\376\266\034\016\346"
 283      8C97667D 
 283      DDFE5A2C 
 283      FEB61C0E 
 283      E6
 284 02ab 3463D26F 		.ascii	"4c\322o\253\305\231\257\032\007\246\303<34\374:\236"
 284      ABC599AF 
 284      1A07A6C3 
 284      3C3334FC 
 284      3A9E
ARM GAS  /var/folders/c6/c789hm653lg9vtl73krp73tm0000gn/T//ccvFz436.s 			page 22


 285 02bd 09BF7BF0 		.ascii	"\011\277{\360t\370}\213\375\036\204\337\011\271\333"
 285      74F87D8B 
 285      FD1E84DF 
 285      09B9DB
 286 02cc 55E14ECC 		.ascii	"U\341N\314r\236\270\371z\220\353X^t\005\275\250X\247"
 286      729EB8F9 
 286      7A90EB58 
 286      5E7405BD 
 286      A858A7
 287 02df F20CF43C 		.ascii	"\362\014\364<!\003\364U;\205\377\332G\026q\337\012z"
 287      2103F455 
 287      3B85FFDA 
 287      471671DF 
 287      0A7A
 288 02f1 83E9BD82 		.ascii	"\203\351\275\202\247\331b\020\010\2701\371\\_d\360~"
 288      A7D96210 
 288      08B831F9 
 288      5C5F64F0 
 288      7E
 289 0302 60023306 		.ascii	"`\0023\006R\230m\005\216\261\301qa\002C\221\315\265"
 289      52986D05 
 289      8EB1C171 
 289      61024391 
 289      CDB5
 290 0314 E805FA0A 		.ascii	"\350\005\372\012<E\3264a\326\004\220\260\2620|\010+"
 290      3C45D634 
 290      61D60490 
 290      B0B2307C 
 290      082B
 291 0326 E61BBC9D 		.ascii	"\346\033\274\235\024\006\206\203\271l\261T\232V{+9j"
 291      14068683 
 291      B96CB154 
 291      9A567B2B 
 291      396A
 292 0338 6D253CED 		.ascii	"m%<\355\362E{\300\256\000\022\341\037\332\022N\266\351"
 292      F2457BC0 
 292      AE0012E1 
 292      1FDA124E 
 292      B6E9
 293 034a 826A0DBF 		.ascii	"\202j\015\277\017h5<R\023\325\357P\263vJ\330q\346\327"
 293      0F68353C 
 293      5213D5EF 
 293      50B3764A 
 293      D871E6D7 
 294 035e D9AABD62 		.ascii	"\331\252\275bt\276R\237\257&\260\0229\330\322<\"\323"
 294      74BE529F 
 294      AF26B012 
 294      39D8D23C 
 294      22D3
 295 0370 FCE9789A 		.ascii	"\374\351x\232\213c\205s\303G\241\201\220_K\245>\237"
 295      8B638573 
 295      C347A181 
 295      905F4BA5 
 295      3E9F
 296 0382 DCB5AB7C 		.ascii	"\334\265\253|.\277\260\243Z\342\362\244=\227\233e.\217"
 296      2EBFB0A3 
 296      5AE2F2A4 
ARM GAS  /var/folders/c6/c789hm653lg9vtl73krp73tm0000gn/T//ccvFz436.s 			page 23


 296      3D979B65 
 296      2E8F
 297 0394 55E752E4 		.ascii	"U\347R\344\327K\206\372\3274\271E\035\235\255\004\300"
 297      D74B86FA 
 297      D734B945 
 297      1D9DAD04 
 297      C0
 298 03a5 E3B693EA 		.ascii	"\343\266\223\352\313\0211\251x\006\012\372\321\036\343"
 298      CB1131A9 
 298      78060AFA 
 298      D11EE3
 299 03b4 2619E389 		.ascii	"&\031\343\211\377\011\243\223\225\300x\322\266\"\373"
 299      FF09A393 
 299      95C078D2 
 299      B622FB
 300 03c3 9F74AE48 		.ascii	"\237t\256H\225\311\177\252\206\311/\025\350\027\373"
 300      95C97FAA 
 300      86C92F15 
 300      E817FB
 301 03d2 E49F9693 		.ascii	"\344\237\226\223/\3264\331\367\227'{\257\013W\265jw"
 301      2FD634D9 
 301      F797277B 
 301      AF0B57B5 
 301      6A77
 302 03e4 6E0E4579 		.ascii	"n\016Ey\326~g\313\321\300'\274\216\317\336\316\023W"
 302      D67E67CB 
 302      D1C027BC 
 302      8ECFDECE 
 302      1357
 303 03f6 D0E32EDB 		.ascii	"\320\343.\333\\6\312\271\234\251)\227\275\"\027\015"
 303      5C36CAB9 
 303      9CA92997 
 303      BD22170D 
 304 0406 9F9EC0AA 		.ascii	"\237\236\300\252J.g\344\\~\264\346\362;4HFG\013\007"
 304      4A2E67E4 
 304      5C7EB4E6 
 304      F23B3448 
 304      46470B07 
 305 041a 0EAF2398 		.ascii	"\016\257#\230\364\223\354\030,\365\256@9\266V\331\322"
 305      F493EC18 
 305      2CF5AE40 
 305      39B656D9 
 305      D2
 306 042b 2856A0C5 		.ascii	"(V\240\305\027\012\315[*\013\010\237\021\235\256,\371"
 306      170ACD5B 
 306      2A0B089F 
 306      119DAE2C 
 306      F9
 307 043c 72010C94 		.ascii	"r\001\014\224\2622in\266\327\325\3609\366\361\372\027"
 307      B232696E 
 307      B6D7D5F0 
 307      39F6F1FA 
 307      17
 308 044d 6F19EC11 		.ascii	"o\031\354\021\037\033\243\022[T\017\270\354\326\254"
 308      1F1BA312 
 308      5B540FB8 
 308      ECD6AC
ARM GAS  /var/folders/c6/c789hm653lg9vtl73krp73tm0000gn/T//ccvFz436.s 			page 24


 309 045c CC417553 		.ascii	"\314AuS\021t-6\242^\301\224+\011qU\0075\015\377\033"
 309      11742D36 
 309      A25EC194 
 309      2B097155 
 309      07350DFF 
 310 0471 F3114B85 		.ascii	"\363\021K\205\224\327\250A\277\343\214\377\217\011O"
 310      94D7A841 
 310      BFE38CFF 
 310      8F094F
 311 0480 D05F1934 		.ascii	"\320_\0314YP\033Z\220\333f\227\364\325\222Q((/\322\327"
 311      59501B5A 
 311      90DB6697 
 311      F4D59251 
 311      28282FD2 
 312 0495 F0645CCF 		.ascii	"\360d\\\317.\340\355m\037\274\213{\341%\325\360\005"
 312      2EE0ED6D 
 312      1FBC8B7B 
 312      E125D5F0 
 312      05
 313 04a6 D6BA2F49 		.ascii	"\326\272/I\363\261vW[\277-l\306}\314\325%\346\352\224"
 313      F3B17657 
 313      5BBF2D6C 
 313      C67DCCD5 
 313      25E6EA94 
 314 04ba DBEA4AC3 		.ascii	"\333\352J\303^i\003\341\265n \274\376\312@l \352T\027"
 314      5E6903E1 
 314      B56E20BC 
 314      FECA406C 
 314      20EA5417 
 315 04ce 55CBDF2E 		.ascii	"U\313\337.\225\255\311\300\253\010W\227\353\256Z\311"
 315      95ADC9C0 
 315      AB085797 
 315      EBAE5AC9 
 316 04de A16AC6B4 		.ascii	"\241j\306\264s\2300\363\015=\257\360C\224z#g\025\373"
 316      739830F3 
 316      0D3DAFF0 
 316      43947A23 
 316      6715FB
 317 04f1 C81E1159 		.ascii	"\310\036\021Y\332\035\321\025\257\223\253^\245\274\242"
 317      DA1DD115 
 317      AF93AB5E 
 317      A5BCA2
 318 0500 A31DA930 		.ascii	"\243\035\2510Z\274t\364\243Cx\240\217\034!\3645\316"
 318      5ABC74F4 
 318      A34378A0 
 318      8F1C21F4 
 318      35CE
 319 0512 FB8CBEF4 		.ascii	"\373\214\276\364\223\333\266/\035\220\373R\237RK_\372"
 319      93DBB62F 
 319      1D90FB52 
 319      9F524B5F 
 319      FA
 320 0523 46EA4BCE 		.ascii	"F\352K\316V\226\276t\234,m.\267%jc\231\016\253\225q"
 320      5696BE74 
 320      9C2C6D2E 
 320      B7256A63 
 320      990EAB95 
ARM GAS  /var/folders/c6/c789hm653lg9vtl73krp73tm0000gn/T//ccvFz436.s 			page 25


 321 0538 2DB63056 		.ascii	"-\2660V<qz\364\317\306vnz\355\237\241u\312T12>5\012"
 321      3C717AF4 
 321      CFC6766E 
 321      7AED9FA1 
 321      75CA5431 
 322 0550 FADB242B 		.ascii	"\372\333$+\007e\\\344%\342*\343Z+\343z\302\026W\356"
 322      07655CE4 
 322      25E22AE3 
 322      5A2BE37A 
 322      C21657EE 
 323 0564 6C3151C6 		.ascii	"l1Q\306\305\343)h\244\246\010\353\345\010O\331F8\376"
 323      C5E32968 
 323      A4A608EB 
 323      E5084FD9 
 323      4638FE
 324 0577 73613DDE 		.ascii	"sa=\3368\324O\350'f\325\263\205\234\273\366\364s\212"
 324      38D44FE8 
 324      2766D5B3 
 324      859CBBF6 
 324      F4738A
 325 058a F415A6DD 		.ascii	"\364\025\246\335@\372\354f=f\260L\023\266\352\036l\231"
 325      40FAEC66 
 325      3D66B04C 
 325      13B6EA1E 
 325      6C99
 326 059c 209FF1E5 		.ascii	" \237\361\3456o&\333\231\305\006\307b_\260\254\003\317"
 326      366F26DB 
 326      99C506C7 
 326      625FB0AC 
 326      03CF
 327 05ae 674DD5DE 		.ascii	"gM\325\336 \347<`\233\363\311\323c\367\275\272\233\220"
 327      20E73C60 
 327      9BF3C9D3 
 327      63F7BDBA 
 327      9B90
 328 05c0 75E47269 		.ascii	"u\344riUv56\210}\336S\013\261[\344 [\035J7\3323\256"
 328      55763536 
 328      887DDE53 
 328      0BB15BE4 
 328      205B1D4A 
 329 05d8 74433545 		.ascii	"tC5E\330&GxF\261\371\226\302\306\350\373\266l\256\220"
 329      D8264778 
 329      46B1F996 
 329      C2C6E8FB 
 329      B66CAE90 
 330 05ec CDD3E513 		.ascii	"\315\323\345\023\306\346^2V\351%\244\334\366\371\247"
 330      C6E65E32 
 330      56E925A4 
 330      DCF6F9A7 
 331 05fc C2A1E5C8 		.ascii	"\302\241\345\310j\032\316\327\335s\006\035z\216\271"
 331      6A1ACED7 
 331      DD73061D 
 331      7A8EB9
 332 060b 2557B460 		.ascii	"%W\264`\370\213\274\275\220Q\300\256\315c\376F]\207"
 332      F88BBCBD 
 332      9051C0AE 
 332      CD63FE46 
ARM GAS  /var/folders/c6/c789hm653lg9vtl73krp73tm0000gn/T//ccvFz436.s 			page 26


 332      5D87
 333 061d FE41FF67 		.ascii	"\376A\377g\260\375\223#Y\334b\331k\362\203?'\273\363"
 333      B0FD9323 
 333      59DC62D9 
 333      6BF2833F 
 333      27BBF3
 334 0630 4DF53E14 		.ascii	"M\365>\024\353\223\213\303\266\353\023\013\243\021\003"
 334      EB938BC3 
 334      B6EB130B 
 334      A31103
 335 063f 63433542 		.ascii	"cC5B%-\015\277T7\237;\035\370\014Z\370\334)\363i\332"
 335      252D0DBF 
 335      54379F3B 
 335      1DF80C5A 
 335      F8DC29F3 
 336 0655 2C482060 		.ascii	",H `\313g\241S$}\360(\361\375\223\254\2453\325!e\351"
 336      CB67A153 
 336      247DF028 
 336      F1FD93AC 
 336      A533D521 
 337 066b 5F480E29 		.ascii	"_H\016)\217\373G\323ku\247\274\313!es\265*Z\345\224"
 337      8FFB47D3 
 337      6B75A7BC 
 337      CB216573 
 337      B52A5AE5 
 338 0680 4DCB6F09 		.ascii	"M\313o\011\204\202\276\260\244\214\356\015u\247S\241"
 338      8482BEB0 
 338      A48CEE0D 
 338      75A753A1 
 339 0690 5822ACC5 		.ascii	"X\"\254\305B\013\365XLK\205\036\012\207gi\251\256Y\361"
 339      420BF558 
 339      4C4B851E 
 339      0A876769 
 339      A9AE59F1 
 340 06a4 445C9FA5 		.ascii	"D\\\237\245k+\242\2419\263\333\346\316\236?{^(\026]"
 340      6B2BA2A1 
 340      39B3DBE6 
 340      CE9E3F7B 
 340      5E28165D 
 341 06b8 411F87AC 		.ascii	"A\037\207\254\217\347\266\316o\235\033\212\306\303\261"
 341      8FE7B6CE 
 341      6F9D1B8A 
 341      C6C3B1
 342 06c7 EE4E3D94 		.ascii	"\356N=\224\316tv\352\017\266F\220'\035\375\213\256f"
 342      CE7476EA 
 342      0FB64690 
 342      271DFD8B 
 342      AE66
 343 06d9 3C7FF8E3 		.ascii	"<\177\370\343\362\226\205\350\232\326\326\020\377K\244"
 343      F29685E8 
 343      9AD6D610 
 343      FF4BA4
 344 06e8 43A94C59 		.ascii	"C\251LY=\034\351\322\273\302\211\224\016\026A\030>\244"
 344      3D1CE9D2 
 344      BBC28994 
 344      0E164118 
 344      3EA4
ARM GAS  /var/folders/c6/c789hm653lg9vtl73krp73tm0000gn/T//ccvFz436.s 			page 27


 345 06fa 671EEC8E 		.ascii	"g\036\354\216\207\325L\213d\220N\205\271r2\221\210\245"
 345      87D54C8B 
 345      64904E85 
 345      B9723291 
 345      88A5
 346 070c 5BC36846 		.ascii	"[\303hF5\217\\)\202\032`\234H\365\250\364Z\315\004\330"
 346      358F5C29 
 346      821A609C 
 346      48F5A8F4 
 346      5ACD04D8 
 347 0720 29A26B9D 		.ascii	")\242k\235z\312\233\214\250q\375\261\214\267+\311\316"
 347      7ACA9B8C 
 347      A871FDB1 
 347      8CB72BC9 
 347      CE
 348 0731 8D704EAC 		.ascii	"\215pN\254xX\017gT\012<\000\227\311Tbe\024T\233\302"
 348      78580F67 
 348      540A3C00 
 348      97C95462 
 348      6514549B 
 349 0746 91A56078 		.ascii	"\221\245`x7{\332\021\217f\224\256\244\233*\371\014\215"
 349      377BDA11 
 349      8F6694AE 
 349      A49B2AF9 
 349      0C8D
 350 0758 295C6371 		.ascii	")\\cqB\353\\\220Ji=8\211\343A~oA\014\330\355\010\230"
 350      42EB5C90 
 350      4A693D38 
 350      89E3417E 
 350      6F410CD8 
 351 076f 2EC4F8AE 		.ascii	".\304\370\256\224\256w\270!drr\345\206;\034\321R>Ue"
 351      94AE77B8 
 351      21647272 
 351      E5863B1C 
 351      D1523E55 
 352 0784 1CA80DC6 		.ascii	"\034\250\015\306\240\365\226\271\277o[\\W\255\254\267"
 352      A0F596B9 
 352      BF6F5B5C 
 352      57ADACB7 
 353 0794 4DD589C6 		.ascii	"M\325\211\3063@\214\257\033\3167\317Q3\367\375\037\274"
 353      33408CAF 
 353      1BCE37CF 
 353      5133F7FD 
 353      1FBC
 354 07a6 7669E148 		.ascii	"vi\341H4\256\207T\250\274\326\035\313\250\231\236\244"
 354      34AE8754 
 354      A8BCD61D 
 354      CBA8999E 
 354      A4
 355 07b7 4EE99FAC 		.ascii	"N\351\237\254\252F\034\277`\240\263s\232c\341\322=\324"
 355      AA461CBF 
 355      60A0B373 
 355      9A63E1D2 
 355      3DD4
 356 07c9 083497F5 		.ascii	"\0104\227\365\244\027'"
 356      A41727
 357 07d0 C28F5C2F 		.ascii	"\302\217\\/i&\023\251L:\264\340\236%\013\227<\006\352"
ARM GAS  /var/folders/c6/c789hm653lg9vtl73krp73tm0000gn/T//ccvFz436.s 			page 28


 357      692613A9 
 357      4C3AB4E0 
 357      9E250B97 
 357      3C06EA
 358 07e3 74DAA82B 		.ascii	"t\332\250+o\355\2426\364\221\012Y<r\223\331\006\352"
 358      6FEDA236 
 358      F4910A59 
 358      3C7293D9 
 358      06EA
 359 07f5 1A5AB864 		.ascii	"\032Z\270dY\307\262J\020j\023\356\272\013h\245\323C"
 359      59C7B24A 
 359      106A13EE 
 359      BA0B68A5 
 359      D343
 360 0807 55D37A46 		.ascii	"U\323zF\275c\301\262;\227\336\323\321\240\305\036\325"
 360      BD63C1B2 
 360      3B97DED3 
 360      D1A0C51E 
 360      D5
 361 0818 7AD26A34 		.ascii	"z\322j4\036\203l&\255\324b\335z\200\201Y\036\247\256"
 361      1E836C26 
 361      ADD462DD 
 361      7A808159 
 361      1EA7AE
 362 082b 032C4837 		.ascii	"\003,H7\033[Js\253\351j\336\354y\346\253\266y\377\005"
 362      1B5B4A73 
 362      ABE96ADE 
 362      EC79E6AB 
 362      B679FF05 
 363 083f 100D5F1C 		.ascii	"\020\015_\034"
 364              		.text
 365              		.section	.gnu.lto_.symtab.429ad536565160d5,"",%progbits
 366 0000 6368506F 		.ascii	"chPoolObjectInit\000\000\000\000\000\000\000\000\000"
 366      6F6C4F62 
 366      6A656374 
 366      496E6974 
 366      00000000 
 367 0019 000000AB 		.ascii	"\000\000\000\253\000\000\000chPoolLoadArray\000\000"
 367      00000063 
 367      68506F6F 
 367      6C4C6F61 
 367      64417272 
 368 0031 00000000 		.ascii	"\000\000\000\000\000\000\000\000\000\000\312\000\000"
 368      00000000 
 368      0000CA00 
 368      00
 369 003e 00636850 		.ascii	"\000chPoolAllocI\000\000\000\000\000\000\000\000\000"
 369      6F6F6C41 
 369      6C6C6F63 
 369      49000000 
 369      00000000 
 370 0054 000000D6 		.ascii	"\000\000\000\326\000\000\000chPoolAlloc\000\000\000"
 370      00000063 
 370      68506F6F 
 370      6C416C6C 
 370      6F630000 
 371 0069 00000000 		.ascii	"\000\000\000\000\000\000\000\000\000\334\000\000\000"
ARM GAS  /var/folders/c6/c789hm653lg9vtl73krp73tm0000gn/T//ccvFz436.s 			page 29


 371      00000000 
 371      00DC0000 
 371      00
 372 0076 6368506F 		.ascii	"chPoolFreeI\000\000\000\000\000\000\000\000\000\000"
 372      6F6C4672 
 372      65654900 
 372      00000000 
 372      00000000 
 373 008b 0000E000 		.ascii	"\000\000\340\000\000\000chPoolFree\000\000\000\000\000"
 373      00006368 
 373      506F6F6C 
 373      46726565 
 373      00000000 
 374 00a0 00000000 		.ascii	"\000\000\000\000\000\000\000\351\000\000\000"
 374      000000E9 
 374      000000
 375              		.text
 376              		.section	.gnu.lto_.opts,"",%progbits
 377 0000 272D6D63 		.ascii	"'-mcpu=cortex-m4' '-mno-thumb-interwork' '-mthumb' "
 377      70753D63 
 377      6F727465 
 377      782D6D34 
 377      2720272D 
 378 0033 272D6767 		.ascii	"'-ggdb' '-O2' '-fomit-frame-pointer' '-falign-funct"
 378      64622720 
 378      272D4F32 
 378      2720272D 
 378      666F6D69 
 379 0066 696F6E73 		.ascii	"ions=16' '-ffunction-sections' '-fdata-sections' '-"
 379      3D313627 
 379      20272D66 
 379      66756E63 
 379      74696F6E 
 380 0099 666E6F2D 		.ascii	"fno-common' '-flto'\000"
 380      636F6D6D 
 380      6F6E2720 
 380      272D666C 
 380      746F2700 
 381              		.text
 382              		.cfi_sections	.debug_frame
 383              		.section	.text.chPoolObjectInit,"ax",%progbits
 384              		.align	2
 385              		.p2align 4,,15
 386              		.global	chPoolObjectInit
 387              		.thumb
 388              		.thumb_func
 389              		.type	chPoolObjectInit, %function
 390              	chPoolObjectInit:
 391              	.LFB229:
 392              		.file 1 "../../../os/rt/src/chmempools.c"
 393              		.loc 1 75 0
 394              		.cfi_startproc
 395              		@ args = 0, pretend = 0, frame = 0
 396              		@ frame_needed = 0, uses_anonymous_args = 0
 397              		@ link register save eliminated.
 398              	.LVL0:
 399              		.loc 1 79 0
ARM GAS  /var/folders/c6/c789hm653lg9vtl73krp73tm0000gn/T//ccvFz436.s 			page 30


 400 0000 0023     		movs	r3, #0
 401              		.loc 1 80 0
 402 0002 4160     		str	r1, [r0, #4]
 403              		.loc 1 81 0
 404 0004 8260     		str	r2, [r0, #8]
 405              		.loc 1 79 0
 406 0006 0360     		str	r3, [r0]
 407 0008 7047     		bx	lr
 408              		.cfi_endproc
 409              	.LFE229:
 410              		.size	chPoolObjectInit, .-chPoolObjectInit
 411 000a 00BFAFF3 		.section	.text.chPoolLoadArray,"ax",%progbits
 411      0080
 412              		.align	2
 413              		.p2align 4,,15
 414              		.global	chPoolLoadArray
 415              		.thumb
 416              		.thumb_func
 417              		.type	chPoolLoadArray, %function
 418              	chPoolLoadArray:
 419              	.LFB230:
 420              		.loc 1 97 0
 421              		.cfi_startproc
 422              		@ args = 0, pretend = 0, frame = 0
 423              		@ frame_needed = 0, uses_anonymous_args = 0
 424              		@ link register save eliminated.
 425              	.LVL1:
 426 0000 30B4     		push	{r4, r5}
 427              		.cfi_def_cfa_offset 8
 428              		.cfi_offset 4, -8
 429              		.cfi_offset 5, -4
 430              		.loc 1 101 0
 431 0002 62B1     		cbz	r2, .L2
 432              	.LBB77:
 433              	.LBB78:
 434              	.LBB79:
 435              	.LBB80:
 436              	.LBB81:
 437              	.LBB82:
 438              		.file 2 "../../../os/ext/CMSIS/include/core_cmFunc.h"
 439              		.loc 2 546 0
 440 0004 2025     		movs	r5, #32
 441              	.LBE82:
 442              	.LBE81:
 443              	.LBE80:
 444              	.LBE79:
 445              	.LBB86:
 446              	.LBB87:
 447              	.LBB88:
 448              	.LBB89:
 449              	.LBB90:
 450 0006 0024     		movs	r4, #0
 451              	.LVL2:
 452              	.L5:
 453              	.LBE90:
 454              	.LBE89:
 455              	.LBE88:
ARM GAS  /var/folders/c6/c789hm653lg9vtl73krp73tm0000gn/T//ccvFz436.s 			page 31


 456              	.LBE87:
 457              	.LBE86:
 458              	.LBB95:
 459              	.LBB85:
 460              	.LBB84:
 461              	.LBB83:
 462              	@ 546 "../../../os/ext/CMSIS/include/core_cmFunc.h" 1
 463 0008 85F31188 		MSR basepri, r5
 464              	@ 0 "" 2
 465              	.LVL3:
 466              		.thumb
 467              	.LBE83:
 468              	.LBE84:
 469              	.LBE85:
 470              	.LBE95:
 471              	.LBB96:
 472              	.LBB97:
 473              		.loc 1 177 0
 474 000c 0368     		ldr	r3, [r0]
 475 000e 0B60     		str	r3, [r1]
 476              		.loc 1 178 0
 477 0010 0160     		str	r1, [r0]
 478              	.LVL4:
 479              	.LBE97:
 480              	.LBE96:
 481              	.LBB98:
 482              	.LBB94:
 483              	.LBB93:
 484              	.LBB92:
 485              	.LBB91:
 486              		.loc 2 546 0
 487              	@ 546 "../../../os/ext/CMSIS/include/core_cmFunc.h" 1
 488 0012 84F31188 		MSR basepri, r4
 489              	@ 0 "" 2
 490              		.thumb
 491              	.LBE91:
 492              	.LBE92:
 493              	.LBE93:
 494              	.LBE94:
 495              	.LBE98:
 496              	.LBE78:
 497              	.LBE77:
 498              		.loc 1 104 0
 499 0016 4368     		ldr	r3, [r0, #4]
 500              		.loc 1 101 0
 501 0018 013A     		subs	r2, r2, #1
 502              	.LVL5:
 503              		.loc 1 104 0
 504 001a 1944     		add	r1, r1, r3
 505              	.LVL6:
 506              		.loc 1 101 0
 507 001c F4D1     		bne	.L5
 508              	.LVL7:
 509              	.L2:
 510              		.loc 1 108 0
 511 001e 30BC     		pop	{r4, r5}
 512 0020 7047     		bx	lr
ARM GAS  /var/folders/c6/c789hm653lg9vtl73krp73tm0000gn/T//ccvFz436.s 			page 32


 513              		.cfi_endproc
 514              	.LFE230:
 515              		.size	chPoolLoadArray, .-chPoolLoadArray
 516 0022 00BFAFF3 		.section	.text.chPoolAllocI,"ax",%progbits
 516      0080AFF3 
 516      0080AFF3 
 516      0080
 517              		.align	2
 518              		.p2align 4,,15
 519              		.global	chPoolAllocI
 520              		.thumb
 521              		.thumb_func
 522              		.type	chPoolAllocI, %function
 523              	chPoolAllocI:
 524              	.LFB231:
 525              		.loc 1 120 0
 526              		.cfi_startproc
 527              		@ args = 0, pretend = 0, frame = 0
 528              		@ frame_needed = 0, uses_anonymous_args = 0
 529              	.LVL8:
 530 0000 08B5     		push	{r3, lr}
 531              		.cfi_def_cfa_offset 8
 532              		.cfi_offset 3, -8
 533              		.cfi_offset 14, -4
 534              		.loc 1 120 0
 535 0002 0346     		mov	r3, r0
 536              		.loc 1 126 0
 537 0004 0068     		ldr	r0, [r0]
 538              	.LVL9:
 539              		.loc 1 128 0
 540 0006 10B1     		cbz	r0, .L12
 541              		.loc 1 129 0
 542 0008 0268     		ldr	r2, [r0]
 543 000a 1A60     		str	r2, [r3]
 544 000c 08BD     		pop	{r3, pc}
 545              	.LVL10:
 546              	.L12:
 547              		.loc 1 131 0
 548 000e 9A68     		ldr	r2, [r3, #8]
 549 0010 0AB1     		cbz	r2, .L13
 550              		.loc 1 132 0
 551 0012 5868     		ldr	r0, [r3, #4]
 552              	.LVL11:
 553 0014 9047     		blx	r2
 554              	.LVL12:
 555              	.L13:
 556              		.loc 1 137 0
 557 0016 08BD     		pop	{r3, pc}
 558              		.cfi_endproc
 559              	.LFE231:
 560              		.size	chPoolAllocI, .-chPoolAllocI
 561 0018 AFF30080 		.section	.text.chPoolAlloc,"ax",%progbits
 561      AFF30080 
 562              		.align	2
 563              		.p2align 4,,15
 564              		.global	chPoolAlloc
 565              		.thumb
ARM GAS  /var/folders/c6/c789hm653lg9vtl73krp73tm0000gn/T//ccvFz436.s 			page 33


 566              		.thumb_func
 567              		.type	chPoolAlloc, %function
 568              	chPoolAlloc:
 569              	.LFB232:
 570              		.loc 1 149 0
 571              		.cfi_startproc
 572              		@ args = 0, pretend = 0, frame = 0
 573              		@ frame_needed = 0, uses_anonymous_args = 0
 574              	.LVL13:
 575 0000 08B5     		push	{r3, lr}
 576              		.cfi_def_cfa_offset 8
 577              		.cfi_offset 3, -8
 578              		.cfi_offset 14, -4
 579              	.LBB99:
 580              	.LBB100:
 581              	.LBB101:
 582              	.LBB102:
 583              		.loc 2 546 0
 584 0002 2022     		movs	r2, #32
 585              	.LBE102:
 586              	.LBE101:
 587              	.LBE100:
 588              	.LBE99:
 589              		.loc 1 149 0
 590 0004 0346     		mov	r3, r0
 591              	.LBB106:
 592              	.LBB105:
 593              	.LBB104:
 594              	.LBB103:
 595              		.loc 2 546 0
 596              	@ 546 "../../../os/ext/CMSIS/include/core_cmFunc.h" 1
 597 0006 82F31188 		MSR basepri, r2
 598              	@ 0 "" 2
 599              	.LVL14:
 600              		.thumb
 601              	.LBE103:
 602              	.LBE104:
 603              	.LBE105:
 604              	.LBE106:
 605              	.LBB107:
 606              	.LBB108:
 607              		.loc 1 126 0
 608 000a 0068     		ldr	r0, [r0]
 609              	.LVL15:
 610              		.loc 1 128 0
 611 000c 28B1     		cbz	r0, .L18
 612              		.loc 1 129 0
 613 000e 0268     		ldr	r2, [r0]
 614 0010 1A60     		str	r2, [r3]
 615              	.L19:
 616              	.LVL16:
 617              	.LBE108:
 618              	.LBE107:
 619              	.LBB110:
 620              	.LBB111:
 621              	.LBB112:
 622              	.LBB113:
ARM GAS  /var/folders/c6/c789hm653lg9vtl73krp73tm0000gn/T//ccvFz436.s 			page 34


 623              	.LBB114:
 624              		.loc 2 546 0
 625 0012 0023     		movs	r3, #0
 626              	.LVL17:
 627              	@ 546 "../../../os/ext/CMSIS/include/core_cmFunc.h" 1
 628 0014 83F31188 		MSR basepri, r3
 629              	@ 0 "" 2
 630              		.thumb
 631              	.LBE114:
 632              	.LBE113:
 633              	.LBE112:
 634              	.LBE111:
 635              	.LBE110:
 636              		.loc 1 157 0
 637 0018 08BD     		pop	{r3, pc}
 638              	.LVL18:
 639              	.L18:
 640              	.LBB119:
 641              	.LBB109:
 642              		.loc 1 131 0
 643 001a 9A68     		ldr	r2, [r3, #8]
 644 001c 002A     		cmp	r2, #0
 645 001e F8D0     		beq	.L19
 646              		.loc 1 132 0
 647 0020 5868     		ldr	r0, [r3, #4]
 648              	.LVL19:
 649 0022 9047     		blx	r2
 650              	.LVL20:
 651              	.LBE109:
 652              	.LBE119:
 653              	.LBB120:
 654              	.LBB118:
 655              	.LBB117:
 656              	.LBB116:
 657              	.LBB115:
 658              		.loc 2 546 0
 659 0024 0023     		movs	r3, #0
 660              	@ 546 "../../../os/ext/CMSIS/include/core_cmFunc.h" 1
 661 0026 83F31188 		MSR basepri, r3
 662              	@ 0 "" 2
 663              		.thumb
 664              	.LBE115:
 665              	.LBE116:
 666              	.LBE117:
 667              	.LBE118:
 668              	.LBE120:
 669              		.loc 1 157 0
 670 002a 08BD     		pop	{r3, pc}
 671              		.cfi_endproc
 672              	.LFE232:
 673              		.size	chPoolAlloc, .-chPoolAlloc
 674 002c AFF30080 		.section	.text.chPoolFreeI,"ax",%progbits
 675              		.align	2
 676              		.p2align 4,,15
 677              		.global	chPoolFreeI
 678              		.thumb
 679              		.thumb_func
ARM GAS  /var/folders/c6/c789hm653lg9vtl73krp73tm0000gn/T//ccvFz436.s 			page 35


 680              		.type	chPoolFreeI, %function
 681              	chPoolFreeI:
 682              	.LFB233:
 683              		.loc 1 171 0
 684              		.cfi_startproc
 685              		@ args = 0, pretend = 0, frame = 0
 686              		@ frame_needed = 0, uses_anonymous_args = 0
 687              		@ link register save eliminated.
 688              	.LVL21:
 689              		.loc 1 177 0
 690 0000 0368     		ldr	r3, [r0]
 691 0002 0B60     		str	r3, [r1]
 692              		.loc 1 178 0
 693 0004 0160     		str	r1, [r0]
 694 0006 7047     		bx	lr
 695              		.cfi_endproc
 696              	.LFE233:
 697              		.size	chPoolFreeI, .-chPoolFreeI
 698 0008 AFF30080 		.section	.text.chPoolFree,"ax",%progbits
 698      AFF30080 
 699              		.align	2
 700              		.p2align 4,,15
 701              		.global	chPoolFree
 702              		.thumb
 703              		.thumb_func
 704              		.type	chPoolFree, %function
 705              	chPoolFree:
 706              	.LFB234:
 707              		.loc 1 193 0
 708              		.cfi_startproc
 709              		@ args = 0, pretend = 0, frame = 0
 710              		@ frame_needed = 0, uses_anonymous_args = 0
 711              		@ link register save eliminated.
 712              	.LVL22:
 713              	.LBB121:
 714              	.LBB122:
 715              	.LBB123:
 716              	.LBB124:
 717              		.loc 2 546 0
 718 0000 2023     		movs	r3, #32
 719              	@ 546 "../../../os/ext/CMSIS/include/core_cmFunc.h" 1
 720 0002 83F31188 		MSR basepri, r3
 721              	@ 0 "" 2
 722              	.LVL23:
 723              		.thumb
 724              	.LBE124:
 725              	.LBE123:
 726              	.LBE122:
 727              	.LBE121:
 728              	.LBB125:
 729              	.LBB126:
 730              		.loc 1 177 0
 731 0006 0368     		ldr	r3, [r0]
 732 0008 0B60     		str	r3, [r1]
 733              	.LBE126:
 734              	.LBE125:
 735              	.LBB128:
ARM GAS  /var/folders/c6/c789hm653lg9vtl73krp73tm0000gn/T//ccvFz436.s 			page 36


 736              	.LBB129:
 737              	.LBB130:
 738              	.LBB131:
 739              	.LBB132:
 740              		.loc 2 546 0
 741 000a 0023     		movs	r3, #0
 742              	.LBE132:
 743              	.LBE131:
 744              	.LBE130:
 745              	.LBE129:
 746              	.LBE128:
 747              	.LBB137:
 748              	.LBB127:
 749              		.loc 1 178 0
 750 000c 0160     		str	r1, [r0]
 751              	.LVL24:
 752              	.LBE127:
 753              	.LBE137:
 754              	.LBB138:
 755              	.LBB136:
 756              	.LBB135:
 757              	.LBB134:
 758              	.LBB133:
 759              		.loc 2 546 0
 760              	@ 546 "../../../os/ext/CMSIS/include/core_cmFunc.h" 1
 761 000e 83F31188 		MSR basepri, r3
 762              	@ 0 "" 2
 763              		.thumb
 764 0012 7047     		bx	lr
 765              	.LBE133:
 766              	.LBE134:
 767              	.LBE135:
 768              	.LBE136:
 769              	.LBE138:
 770              		.cfi_endproc
 771              	.LFE234:
 772              		.size	chPoolFree, .-chPoolFree
 773 0014 AFF30080 		.text
 773      AFF30080 
 773      AFF30080 
 774              	.Letext0:
 775              		.file 3 "/usr/local/Cellar/gcc-arm-none-eabi/20140805/lib/gcc/arm-none-eabi/4.8.4/include/stddef.h
 776              		.file 4 "/usr/local/Cellar/gcc-arm-none-eabi/20140805/arm-none-eabi/include/machine/_default_types
 777              		.file 5 "/usr/local/Cellar/gcc-arm-none-eabi/20140805/arm-none-eabi/include/stdint.h"
 778              		.file 6 "../../../os/rt/ports/ARMCMx/compilers/GCC/chtypes.h"
 779              		.file 7 "../../../os/rt/include/chsystypes.h"
 780              		.file 8 "../../../os/rt/include/chschd.h"
 781              		.file 9 "../../../os/rt/ports/ARMCMx/chcore.h"
 782              		.file 10 "../../../os/rt/ports/ARMCMx/chcore_v7m.h"
 783              		.file 11 "../../../os/rt/include/chtm.h"
 784              		.file 12 "../../../os/rt/include/chsem.h"
 785              		.file 13 "../../../os/rt/include/chmtx.h"
 786              		.file 14 "../../../os/rt/include/chmemcore.h"
 787              		.file 15 "../../../os/rt/include/chmempools.h"
 788              		.file 16 "../../../os/rt/include/chsys.h"
 789              		.file 17 "../../../os/ext/CMSIS/include/core_cm4.h"