ARM GAS  /var/folders/c6/c789hm653lg9vtl73krp73tm0000gn/T//ccYJu1mY.s 			page 1


   1              		.syntax unified
   2              		.cpu cortex-m4
   3              		.fpu softvfp
   4              		.eabi_attribute 20, 1
   5              		.eabi_attribute 21, 1
   6              		.eabi_attribute 23, 3
   7              		.eabi_attribute 24, 1
   8              		.eabi_attribute 25, 1
   9              		.eabi_attribute 26, 1
  10              		.eabi_attribute 30, 2
  11              		.eabi_attribute 34, 1
  12              		.eabi_attribute 18, 4
  13              		.thumb
  14              		.file	"chmemcore.c"
  15              		.text
  16              	.Ltext0:
  17              		.section	.gnu.lto_.jmpfuncs.4ed60bb222296535,"",%progbits
  18 0000 789C6362 		.ascii	"x\234cb`b\300\006\270\2404\013\003\003+#\033#;\003\003"
  18      6062C006 
  18      B8A0340B 
  18      03032B23 
  18      1B233B03 
  19 0015 00020A00 		.ascii	"\000\002\012\000'"
  19      27
  20              		.text
  21              		.section	.gnu.lto_.inline.4ed60bb222296535,"",%progbits
  22 0000 789C6362 		.ascii	"x\234cb`b\300\006\222\2414\013\003\003+\013#\003\023"
  22      6062C006 
  22      92A1340B 
  22      03032B0B 
  22      230313
  23 0013 CB027906 		.ascii	"\313\002y\006\266\005\362`\305\254\014|\274\214\214"
  23      B605F260 
  23      C5AC0C7C 
  23      BC8C8C
  24 0022 0C8C4026 		.ascii	"\014\214@&\263\320\201NF\210\004P\005\013H\226\215\201"
  24      B3D0814E 
  24      46880450 
  24      050B4896 
  24      8D81
  25 0034 871B26CB 		.ascii	"\207\033&\313\267 \013U\222\235\201\215\025h\032\333"
  25      B7200B55 
  25      929D818D 
  25      15681ADB 
  26 0044 073DB869 		.ascii	"\007=\270i\014\000\350g\011\333"
  26      0C00E867 
  26      09DB
  27              		.text
  28              		.section	.gnu.lto_.pureconst.4ed60bb222296535,"",%progbits
  29 0000 789C6362 		.ascii	"x\234cb`b\340d\200\000\026\006\011V+6\011v\026\000\003"
  29      6062E064 
  29      80001606 
  29      09562B36 
  29      09761600 
  30 0015 7C0092   		.ascii	"|\000\222"
  31              		.text
  32              		.section	.gnu.lto__core_init.4ed60bb222296535,"",%progbits
ARM GAS  /var/folders/c6/c789hm653lg9vtl73krp73tm0000gn/T//ccYJu1mY.s 			page 2


  33 0000 789C8D51 		.ascii	"x\234\215Q\277K\034A\024~ov\357\334#?\324\322J\271\364"
  33      BF4B1C41 
  33      147E6F76 
  33      EFDC233F 
  33      D4D24AB9 
  34 0015 BB511B8B 		.ascii	"\273Q\033\213\200\177\200\255\202V\313\272.\361\212"
  34      807F80AD 
  34      8256CBBA 
  34      2EF18A
  35 0024 3BC39D88 		.ascii	";\303\235\210\220\342\346~D\016A8E\021\265QD$\004I\300"
  35      90E2E67E 
  35      440E4138 
  35      4511B551 
  35      44240449 
  36 0039 2288825B 		.ascii	"\"\210\202[IR\030\324\326\346\004;ER\006I2y3{\233;7"
  36      495218D4 
  36      D6E6043B 
  36      45520649 
  36      3279337B 
  37 0050 511C76F7 		.ascii	"Q\034v\367\315\274\357}\357\373\366\015\003\006\321"
  37      CDBCEF7D 
  37      EFFBF60D 
  37      0306D1
  38 005f D541EF2F 		.ascii	"\325A\357/Jg(\242\006\310\252\337\000\012\006C\224\033"
  38      4A6728A2 
  38      06C8AADF 
  38      000A0643 
  38      941B
  39 0071 40C833CC 		.ascii	"@\3103\314\217\240,\325\223\260\301\371B\355\335\225"
  39      8FA02CD5 
  39      93B0C1F9 
  39      42EDDD95 
  40 0081 AFAD2CFA 		.ascii	"\257\255,\372\345u\376S\010\304\024R\333$\202\2130L"
  40      E575FE53 
  40      08C41452 
  40      DB24828B 
  40      304C
  41 0093 07EC5281 		.ascii	"\007\354R\201\351wu\002.\337\277<\321\277\360\262/D"
  41      E9777502 
  41      2EDFBF3C 
  41      D1BFF0B2 
  41      2F44
  42 00a5 7F0A3506 		.ascii	"\177\0125\006=\377\345\2451J\364\317\217\226;f\327\213"
  42      3DFFE5A5 
  42      314AF4CF 
  42      8F963B66 
  42      D78B
  43 00b7 55FE9B34 		.ascii	"U\376\2334\225\344\253GJ\356E$\007\356\221lh~d~M\210"
  43      95E4AB47 
  43      4AEE4524 
  43      07EE916C 
  43      687E647E 
  44 00cd EBDD838B 		.ascii	"\353\335\203\213Cl\177\202\340\340\006&I\221d5\371\321"
  44      436C7F82 
  44      E0E00626 
  44      49916435 
  44      F9D1
ARM GAS  /var/folders/c6/c789hm653lg9vtl73krp73tm0000gn/T//ccYJu1mY.s 			page 3


  45 00df 29B34999 		.ascii	")\263I\231\026\212[\024\015\231L\320a\233\016\264bP"
  45      168A5B14 
  45      0D994CD0 
  45      619B0EB4 
  45      6250
  46 00f1 E6BCDA25 		.ascii	"\346\274\332%\365kU\377tf\011\371\005\237\257;\327\031"
  46      F56B55FF 
  46      746609F9 
  46      059FAF3B 
  46      D719
  47 0103 0C2A07E1 		.ascii	"\014*\007\341r\360\003\262f\317\3049;\342\034?\371\025"
  47      72F003B2 
  47      66CFC439 
  47      3BE21C3F 
  47      F915
  48 0115 2E445E51 		.ascii	".D^QF#\224\035l\272\312\000\241\256 \357l\210 \212\332"
  48      4623941D 
  48      6CBACA00 
  48      A1AE20EF 
  48      6C88208A 
  49 012a 31146F4A 		.ascii	"1\024oJ\273s}\016\276\307\030\274F|\013\267\334Ha,]"
  49      BB737D0E 
  49      BEC718BC 
  49      467C0BB7 
  49      DC48612C 
  50 013f E71E43A9 		.ascii	"\347\036C\251\242\205(\243\0029\014\372)\205\354\377"
  50      A28528A3 
  50      02390CFA 
  50      2985ECFF 
  51 014f 45340215 		.ascii	"E4\002\025\362C\010\321\252\320\342Ui*\204u\252P\271"
  51      F24308D1 
  51      AAD0E255 
  51      692A8475 
  51      AA50B9
  52 0162 AFDFE341 		.ascii	"\257\337\343An\015V\013\234\267\321\260\245bE\356\342"
  52      6E0D560B 
  52      9CB7D1B0 
  52      A56245EE 
  52      E2
  53 0173 C18DCA36 		.ascii	"\301\215\3126q\245M<E\272)}\236\263\302V-\015\207Z\350"
  53      71A54D3C 
  53      45BA297D 
  53      9EB3C256 
  53      2D0D875A 
  54 0188 B0E1C3A0 		.ascii	"\260\341\303\240\202\177}dC8A\025\201\217\223\007}`"
  54      827F7D64 
  54      43384115 
  54      818F9307 
  54      7D60
  55 019a C44702E0 		.ascii	"\304G\002\340\024\012\265\303\027\001)\\\203THS\224"
  55      140AB5C3 
  55      1701295C 
  55      83544853 
  55      94
  56 01ab 93EA344D 		.ascii	"\223\3524M+x&rVv\322\312e]\313\035O{iw\"\353\231.\264"
  56      2B782672 
  56      5676D2CA 
ARM GAS  /var/folders/c6/c789hm653lg9vtl73krp73tm0000gn/T//ccYJu1mY.s 			page 4


  56      655DCB1D 
  56      4F7B6977 
  57 01c4 DAF6B8E7 		.ascii	"\332\366\270\347\274\261G\235\234g\333\346\313D\306"
  57      BCB1479D 
  57      9C67DBE6 
  57      CB44C6
  58 01d3 9B9E24D8 		.ascii	"\233\236$\330\354~^G\274\314\030\001=\006E\231\357}"
  58      EC7E5E47 
  58      BCCC1801 
  58      3D064599 
  58      EF7D
  59 01e5 7687F1B4 		.ascii	"v\207\361\264\271\352\0177\367\340\325"
  59      B9EA0F37 
  59      F7E0D5
  60              		.text
  61              		.section	.gnu.lto_chCoreAlloc.4ed60bb222296535,"",%progbits
  62 0000 789C9D54 		.ascii	"x\234\235T[HTa\020\236\371\317\331\273\253\005>d\305"
  62      5B485461 
  62      109EF9CF 
  62      D9BBAB05 
  62      3E64C5
  63 0013 BA086141 		.ascii	"\272\010aA\354\026]\014z)\244\300\007{\310\242z\212"
  63      EC165D0C 
  63      7A29A4C0 
  63      077BC8A2 
  63      7A8A
  64 0025 D3715917 		.ascii	"\323qY\027\334UvU\254\036:\272\022ZI\213\010f7\224\260"
  64      DC557655 
  64      AC1E3ABA 
  64      125A498B 
  64      08663794 
  65 003a 0B519610 		.ascii	"\013Q\226\020E\032\355\203eJ\006\021EA\017KA\367\202"
  65      451AED83 
  65      654A0611 
  65      45410F4B 
  65      41F782
  66 004d A8E84278 		.ascii	"\250\350Bx\232\377\234=g\335ETZvw\346\314\374\337|3"
  66      9AFF9C3D 
  66      67DD4554 
  66      5A7677E6 
  66      CCFCDF7C 
  67 0062 F3CF1C06 		.ascii	"\363\317\034\006\014r?k\350Wj\005\370J\022-\200,\361"
  67      0C723F6B 
  67      E8576A05 
  67      F84A122D 
  67      802CF1
  68 0075 08A0C5CE 		.ascii	"\010\240\305\316\230\370\316\006\212S\270x\037@\311"
  68      98F8CE06 
  68      8A53B878 
  68      1F40C9
  69 0084 1350D4ED 		.ascii	"\023P\324\355\"\"W\000\341\020\023D<\264\007y\020k\011"
  69      22225700 
  69      E1101344 
  69      3CB40779 
  69      106B09
  70 0097 F42B4A57 		.ascii	"\364+JWj\340\347\255\"\245\2575\241L\251*\206\220\350"
  70      6AE0E7AD 
ARM GAS  /var/folders/c6/c789hm653lg9vtl73krp73tm0000gn/T//ccYJu1mY.s 			page 5


  70      22A5AF35 
  70      A14CA92A 
  70      8690E8
  71 00aa 4A106484 		.ascii	"J\020d\204\335\364\200^M01\233_G&\357Nt\026Md\220\002"
  71      DDF4805E 
  71      4D30319B 
  71      5F4726EF 
  71      4E74164D 
  72 00c1 83D21991 		.ascii	"\203\322\031\221a\314\201&\2227&z\212\216d\240\"\203"
  72      61CC8126 
  72      9237267A 
  72      8A8E64A0 
  72      2283
  73 00d3 D5F32355 		.ascii	"\325\363#U\206.*\216>\345\257\252\012\032\343\306y\301"
  73      862E2A8E 
  73      3EE5AFAA 
  73      0A1AE3C6 
  73      79C1
  74 00e5 12593062 		.ascii	"\022Y0b\333\362\177l\333\346\202\015\262dJU_\016\367"
  74      DBF27F6C 
  74      DBE6820D 
  74      B2644A55 
  74      5F0EF7
  75 00f8 BDFA8C0B 		.ascii	"\275\372\214\013\013\005\014#Z!\204\026\033H\330\217"
  75      0B050C23 
  75      5A218416 
  75      1B48D88F 
  76 0108 25602779 		.ascii	"%`'y\231\244\203\344%\222N\222\027H\272H\016\220\314"
  76      99A483E4 
  76      25924E92 
  76      1748BA48 
  76      0E90CC
  77 011b A3C3A29B 		.ascii	"\243\303\242\233#\362\311r\216,\005\364@W\015\026h\243"
  77      23F2C972 
  77      8E2C05F4 
  77      40570D16 
  77      68A3
  78 012d 3ABCE9D6 		.ascii	":\274\351\326\337\031;6\375\322\254\014v\315\225\032"
  78      DF193B36 
  78      FDD2AC0C 
  78      76CD951A 
  79 013d 703F7D76 		.ascii	"p?}v\320?\037\207\235\310\270\024\306\241\325n\324\233"
  79      D03F1F87 
  79      9DC8B814 
  79      C6A1D56E 
  79      D49B
  80 014f FA7678EA 		.ascii	"\372vx\352>v\305\225\007J[\222\"\027\207\320\306 \216"
  80      3E76C595 
  80      074A5B92 
  80      221787D0 
  80      C6208E
  81 0162 73C5E636 		.ascii	"s\305\3466\233\227\224G\320\372\265\367\336\3201!\235"
  81      9B979447 
  81      D0FAB5F7 
  81      DED03121 
  81      9D
  82 0173 AE9177F2 		.ascii	"\256\221w\362m\247\352^.\3415\252\310\264\015\367\214"
ARM GAS  /var/folders/c6/c789hm653lg9vtl73krp73tm0000gn/T//ccYJu1mY.s 			page 6


  82      6DA7EA5E 
  82      2EE135AA 
  82      C8B40DF7 
  82      8C
  83 0184 B8969A4F 		.ascii	"\270\226\232O\035\337)1\011\257\320@\313\032!\243\237"
  83      1DDF2931 
  83      09AFD040 
  83      CB1A21A3 
  83      9F
  84 0195 00DADC22 		.ascii	"\000\332\334\"<#\225\026A\320\267\301\003o\361\214r"
  84      3C239516 
  84      41D0B7C1 
  84      036FF18C 
  84      72
  85 01a6 625308ED 		.ascii	"bS\010\355Y\364\031\377\207\264\337\241'\250\027\251"
  85      59F419FF 
  85      87B4DFA1 
  85      27A817A9 
  86 01b6 DF419047 		.ascii	"\337A\220G\235\204x{\374u\367\342\354\266\366Nd\267"
  86      9D84787B 
  86      FC75F7E2 
  86      ECB6F64E 
  86      64B7
  87 01c8 55C2412D 		.ascii	"U\302A-\215\331\373\252\307P.\034\267\350\004\2312\264"
  87      8DD9FBAA 
  87      C7502E1C 
  87      B7E80499 
  87      32B4
  88 01da A341B412 		.ascii	"\243A\264\022%\207\202\0154\346ab^$\3410\235\011\242"
  88      2587820D 
  88      34E66162 
  88      5E24E130 
  88      9D09A2
  89 01ed 8DFC9AF3 		.ascii	"\215\374\232\363\227\252\252\005Z\256L\367\031\351\332"
  89      97AAAA05 
  89      5AAE4CF7 
  89      19E9DA
  90 01fc 38A875FC 		.ascii	"8\250u\374\371\371\337\314\000\331O\301\311\026EY@S"
  90      F9F9DFCC 
  90      00D94FC1 
  90      C9164559 
  90      4053
  91 020e 7910FE28 		.ascii	"y\020\376(\355\\s\206\221\245\233\341LgF\260\217\202"
  91      ED5C7386 
  91      91A59BE1 
  91      4C6746B0 
  91      8F82
  92 0220 81710479 		.ascii	"\201q\004y\267\310TaX\2343G\201\331\242\270\202\334"
  92      B7C85461 
  92      589C3347 
  92      81D9A2B8 
  92      82DC
  93 0232 4E457498 		.ascii	"NEt\230\246<-\266K;\370%\3561\314n\362\000<\200\321"
  93      A63C2DB6 
  93      4B3BF825 
  93      EE31CC6E 
  93      F2003C80 
ARM GAS  /var/folders/c6/c789hm653lg9vtl73krp73tm0000gn/T//ccYJu1mY.s 			page 7


  94 0247 372DEE69 		.ascii	"7-\356i\305\2723\215\333I7A\357*>\202\251\263\003hT"
  94      C5BA338D 
  94      DB493741 
  94      EF2A3E82 
  94      A9B30368 
  95 025c 3DA255AD 		.ascii	"=\242U\255\263\034\215\253\335K\014t>Y\215v\244\213"
  95      B31C8DAB 
  95      DD4B0C74 
  95      3E598D76 
  95      A48B
  96 026e 984F0504 		.ascii	"\230O\005\0044\370Dc\344S\357\317\241~K\022^\325\356"
  96      34F84463 
  96      E453EFCF 
  96      A17E4B12 
  96      5ED5EE
  97 0281 CC181273 		.ascii	"\314\030\022s\023&\307r6A\302\353sN\2036\2120\373&\234"
  97      1326C772 
  97      3641C2EB 
  97      734E8336 
  97      8A30FB26 
  98 0296 29A04D18 		.ascii	")\240M\030\315\336\204\217.\217\271\343\231\225\370"
  98      CDDE848F 
  98      2E8FB9E3 
  98      9995F8
  99 02a5 316D252C 		.ascii	"1m%,\372\012[g\330\012\011o\222bR\033[ \341m\364\350"
  99      FA0A5B67 
  99      D80A096F 
  99      9262521B 
  99      5B20E16D 
 100 02bb 693D8696 		.ascii	"i=\206\226\324'Y\017\025D>e\360\002\0128\202\336-\354"
 100      D427590F 
 100      15443E65 
 100      F0020A38 
 100      82DE2DEC 
 101 02cf E19342EA 		.ascii	"\341\223B\352\254p\372i\036\177= \357\021\017P\354\363"
 101      AC70FA69 
 101      1E7F3D20 
 101      EF110F50 
 101      ECF3
 102 02e1 F9F56F5D 		.ascii	"\371\365o]\314\037m\360\307\242\262_\256\011\007\302"
 102      CC1F6DF0 
 102      C7A2B25F 
 102      AE0907C2 
 103 02f1 725D34E0 		.ascii	"r]4\340\223A\214\205\016\004\034\221@s\003\331|\033"
 103      93418C85 
 103      0E041C91 
 103      407303D9 
 103      7C1B
 104 0303 4CADCCD4 		.ascii	"L\255\314\324\326\333\003\221j\256\2543\224\265X\277"
 104      D6DB0391 
 104      6AAEAC33 
 104      94B558BF 
 105 0313 22276C7D 		.ascii	"\"'l}]\264!\346\337\274\275\262\274\262\231\342\363"
 105      5DB421E6 
 105      DFBCBDB2 
 105      BCB299E2 
 105      F3
ARM GAS  /var/folders/c6/c789hm653lg9vtl73krp73tm0000gn/T//ccYJu1mY.s 			page 8


 106 0324 E07B9BCA 		.ascii	"\340{\233\312\302\276\032\2604I\265\215\201\225\323"
 106      C2BE1AB0 
 106      3449B58D 
 106      8195D3
 107 0333 CF53607F 		.ascii	"\317S`\177yeUE\225?\024\221k\033\253\003~\355\274\034"
 107      79655545 
 107      953F1491 
 107      6B1BAB03 
 107      7EEDBC1C 
 108 0347 DEDA1891 		.ascii	"\336\332\030\221\011\222\233\263y\252&\266?F\376\005"
 108      09929BB3 
 108      79AA26B6 
 108      3F46FE05 
 109 0357 9555DBBD 		.ascii	"\225U\333\275\373\244X\240>\032Z\351]\266\012X\024l"
 109      FBA458A0 
 109      3E1A5AE9 
 109      5DB60A58 
 109      146C
 110 0369 94585D74 		.ascii	"\224X]t?\374\003\3549\272$"
 110      3FFC03EC 
 110      39BA24
 111              		.text
 112              		.section	.gnu.lto_chCoreAllocI.4ed60bb222296535,"",%progbits
 113 0000 789C9D53 		.ascii	"x\234\235SMh\023A\024~of\326M\322\204\212x\251\202\226"
 113      4D681341 
 113      147E6F66 
 113      D64DD284 
 113      8A78A982 
 114 0015 5C85E460 		.ascii	"\\\205\344`\3759y\326\253Z\320c\\C\314!\255\244=\010"
 114      FD3979D6 
 114      AB5AD063 
 114      5C43CC21 
 114      ADA43D08 
 115 0029 1E3AC9F6 		.ascii	"\036:\311\366PQ!\224\\\252EZ\264Z\177@\360\252`\016"
 115      50512194 
 115      5CAA455A 
 115      B45A7F40 
 115      F0AA600E 
 116 003d 2A26A850 		.ascii	"*&\250PJAoA\021\004\301\263\212\270~3\311$V\212\006"
 116      4A416F41 
 116      1104C1B3 
 116      8AB87E33 
 116      C924568A 
 117 0052 97DD7D6F 		.ascii	"\227\335}o\277\367\276\367;+H\320\237\327~<\213\222"
 117      BFF7BEF7 
 117      3B2B48D0 
 117      9FD77E3C 
 117      8B92
 118 0064 E804247B 		.ascii	"\350\004${\304\242\366\206\250\022\023B}\362I'\344\352"
 118      C4A2F686 
 118      A8121342 
 118      7DF24927 
 118      E4EA
 119 0076 0B229D94 		.ascii	"\013\"\235\224\254:\270b6\0121\315\010\251x\3464\233"
 119      AC3AB862 
 119      360A31CD 
 119      08A978E6 
ARM GAS  /var/folders/c6/c789hm653lg9vtl73krp73tm0000gn/T//ccYJu1mY.s 			page 9


 119      349B
 120 0088 205E9A96 		.ascii	" ^\232\226\265\236o?\277\375M,\324\033\263K\372G\024"
 120      B59E6F3F 
 120      BFFD4D2C 
 120      D41BB34B 
 120      FA4714
 121 009b 31171909 		.ascii	"1\027\031\011\323L\001\323)|\360\250\025Bm\256\300r"
 121      D34C01D3 
 121      297CF0A8 
 121      15426DAE 
 121      C072
 122 00ad 6BFAD1AA 		.ascii	"k\372\321\252\216[\236,\262\024\264o \332\374&\032\262"
 122      8E5B9E2C 
 122      B214B46F 
 122      20DAFC26 
 122      1AB2
 123 00bf 8DFD5FB6 		.ascii	"\215\375_\266#\203ek<m]\035i-Uk\372'\372\263\011\217"
 123      2383656B 
 123      3C6D5D1D 
 123      692D556B 
 123      FA27FAB3 
 124 00d5 6EC92C71 		.ascii	"n\311,q\237\372P4\332Q\364d\355\326\373{\274c\230\251"
 124      9FFA5034 
 124      DA51F464 
 124      EDD6FB7B 
 124      BC6398A9 
 125 00e9 C84A7289 		.ascii	"\310Jr\211YA\363<\270\262O9^\3464\305 oB\306!W \023"
 125      5941F33C 
 125      B8B24F39 
 125      5EE634C5 
 125      206F42C6 
 126 0101 90772087 		.ascii	"\220w \207\340)\223\306=\005\344.\0203s\232E#\243\335"
 126      E02993C6 
 126      3D05E42E 
 126      1033739A 
 126      4523A3DD 
 127 0115 C2165A57 		.ascii	"\302\026ZWFt\2770%\350\370\277Z\"c\307u\022o\263\323"
 127      4674BF30 
 127      25E8F8BF 
 127      5A2263C7 
 127      75126FB3 
 128 012a 711646CA 		.ascii	"q\026F\312\327\024\316\205\037\352\273r|\037\007\242"
 128      D714CE85 
 128      1FEABB72 
 128      7C1F07A2 
 129 013a C0AAC0D2 		.ascii	"\300\252\300\322\360\267\371p\206\361qx\306\231<X\255"
 129      F0B7F970 
 129      86F17178 
 129      C6993C58 
 129      AD
 130 014b E96B1445 		.ascii	"\351k\024E\30307Itl\350\012f\343_m\276\305\251p\014"
 130      C3303749 
 130      746CE80A 
 130      66E35F6D 
 130      BEC5A970 
 131 0160 FF3A5DAB 		.ascii	"\377:]\253h\275\035\263\273H\337\365\234\321\374\022"
 131      68BD1DB3 
ARM GAS  /var/folders/c6/c789hm653lg9vtl73krp73tm0000gn/T//ccYJu1mY.s 			page 10


 131      BB48DFF5 
 131      9CD1FC12 
 132 0170 9B736902 		.ascii	"\233si\002\371\335\312@\373,\035'V08\240c\016\211o\035"
 132      F9DDCA40 
 132      FB2C1D27 
 132      563038A0 
 132      630E896F 
 133 0185 85FE1625 		.ascii	"\205\376\026%\001\232\255\377R\017\032\262\261\023\326"
 133      019AADFF 
 133      520F1AB2 
 133      B113D6
 134 0194 F14BB8C7 		.ascii	"\361K\270\307\301IX\210^\322\263\217\225\324o\230\327"
 134      C1495888 
 134      5ED2B38F 
 134      95D46F98 
 134      D7
 135 01a5 1FDC384B 		.ascii	"\037\3348K\302\217!\233Tm\337X\341\216S\216\037`3.\313"
 135      C28F219B 
 135      546DDF58 
 135      E18E538E 
 135      1F60332E 
 136 01ba E530AAEF 		.ascii	"\3450\252\357v\354\024P7\216n\023\203t\000\242\313\247"
 136      76EC1450 
 136      378E6E13 
 136      837400A2 
 136      CBA7
 137 01cc EC6AD6F0 		.ascii	"\354j\326\360\007\032\330\372\275#6\256\330\252x\265"
 137      071AD8FA 
 137      BD2336AE 
 137      D8AA78B5 
 138 01dc BE1319E4 		.ascii	"\276\023\031\344\342F\322\254\223\215\257\231\350\336"
 138      E246D2AC 
 138      938DAF99 
 138      E8DE
 139 01ea 4C26DBB9 		.ascii	"L&\333\271'\247\262\345\351\354T9\310\006\347J\371R"
 139      27A7B2E5 
 139      E9EC5439 
 139      C806E74A 
 139      F952
 140 01fc 3059CE67 		.ascii	"0Y\316g\002\212\345'\316\342+3\346\224\003\361\211\374"
 140      028AE527 
 140      CEE22B33 
 140      E69403F1 
 140      89FC
 141 020e 8569A31D 		.ascii	"\205i\243\035\354i\207z\332a>\377\013O\223\360'"
 141      EC69877A 
 141      DA613EFF 
 141      0B4F93F0 
 141      27
 142              		.text
 143              		.section	.gnu.lto_chCoreGetStatusX.4ed60bb222296535,"",%progbits
 144 0000 789C9D52 		.ascii	"x\234\235R1K\303@\030\375\276\273\\\233:\2108\351d\311"
 144      314BC340 
 144      18FDBEBB 
 144      5C9B3A88 
 144      38E964C9 
 145 0014 2A245670 		.ascii	"*$Vpps\325\271\202\216%\206\332!-\244\035\004\207^m"
ARM GAS  /var/folders/c6/c789hm653lg9vtl73krp73tm0000gn/T//ccYJu1mY.s 			page 11


 145      7073D5B9 
 145      828E2586 
 145      DA212DA4 
 145      1D04875E 
 146 0029 07DD4A71 		.ascii	"\007\335JqQ\227\026\021u*8;t\021t\250\320I\307:\013"
 146      51971611 
 146      752A383B 
 146      741174A8 
 146      D049C73A 
 147 003e FE0029C4 		.ascii	"\376\000)\304\357\256m\244\"*\036\311\275\357^\356\275"
 147      EFAE6DA4 
 147      222A1EC9 
 147      BDEF5EEE 
 147      BD
 148 004f F7DD1106 		.ascii	"\367\335\021\006\014\276\216yz\347\210\336 D\016\310"
 148      0CBE8E79 
 148      7AE788DE 
 148      20440EC8 
 149 005f EA8F0015 		.ascii	"\352\217\000\025\223!\252\002\020\312\014\313\333\250"
 149      9321AA02 
 149      10CA0CCB 
 149      DBA8
 150 006d B61A16B4 		.ascii	"\266\032\026\264\244l\364\357\332=~r\334\2515\345 \014"
 150      A46CF4EF 
 150      DA3D7E72 
 150      DCA935E5 
 150      200C
 151 007f 117348B6 		.ascii	"\021sH\266\026\202\213\260E\013Lj`\306d\216\326\326"
 151      16828BB0 
 151      450B4C6A 
 151      60C6648E 
 151      D6D6
 152 0091 E5CD954C 		.ascii	"\345\315\225Lh\035\317!g\260\370'YcBFi+\377K[\373M\326"
 152      681DCF21 
 152      67B0F827 
 152      59634246 
 152      692BFF4B 
 153 00a9 669D7E18 		.ascii	"f\235~\030\336>\015^\356q\326d\220\301\026Z\300\011"
 153      DE3E0D5E 
 153      EE71D664 
 153      90C1165A 
 153      C009
 154 00bb CF090DC2 		.ascii	"\317\011\015\302\013BAxI\030\003r\215\323\244\\\004"
 154      0B424178 
 154      49180372 
 154      8DD3A45C 
 154      04
 155 00cc D4283109 		.ascii	"\324(1\011*\201F\232fu\201\233\310\024\362.\034<<\323"
 155      2A81469A 
 155      6675819B 
 155      C814F22E 
 155      1C3C3CD3 
 156 00e0 BD65F01A 		.ascii	"\275e\360\032\005d\221\235\301iE\312\031:\316>\274\313"
 156      0564919D 
 156      C16945CA 
 156      193ACE3E 
 156      BCCB
ARM GAS  /var/folders/c6/c789hm653lg9vtl73krp73tm0000gn/T//ccYJu1mY.s 			page 12


 157 00f2 4355095F 		.ascii	"CU\011_KUcb\324\020\311^#\015'\231\246\326\307\214\361"
 157      4B556362 
 157      D410C95E 
 157      230D2799 
 157      A6D6C78C 
 158 0107 BD0BFEE4 		.ascii	"\275\013\376\344\"\262\252\337.T\217\"*\246\275\205"
 158      22B2AADF 
 158      2E548F22 
 158      2AA6BD85 
 159 0117 DEF8569D 		.ascii	"\336\370V\235\036\323q\372\002\320\003\214\210\241]"
 159      1ED371FA 
 159      02D0038C 
 159      88A15D
 160 0126 9A02E84C 		.ascii	"\232\002\350L\352_Z\260mg\370\024\212NPr\212\201\353"
 160      EA5F5AB0 
 160      6D67F814 
 160      8A4E5072 
 160      8A81EB
 161 0139 B8BBBEE7 		.ascii	"\270\273\276\347\273\205\300\263]0\275\374\016\255\354"
 161      BB85C0B3 
 161      5D30BDFC 
 161      0EADEC
 162 0148 D5C4A848 		.ascii	"\325\304\250H-M\345\275\275\222.S\237\345\362\007\364"
 162      2D4DE5BD 
 162      BD922E53 
 162      9FE5F207 
 162      F4
 163 0159 F38F8A   		.ascii	"\363\217\212"
 164              		.text
 165              		.section	.gnu.lto_.symbol_nodes.4ed60bb222296535,"",%progbits
 166 0000 789C4DCA 		.ascii	"x\234M\312\311\015\2000\020CQ\333\3034I3\276\346H\005"
 166      C90D8030 
 166      104351DB 
 166      C3344933 
 166      BEE64805 
 167 0014 944417EC 		.ascii	"\224D\027\354)\202 !\005\237\376\223,\010#\276i\247"
 167      29822021 
 167      059FFE93 
 167      2C0823BE 
 167      69A7
 168 0026 816901EC 		.ascii	"\201i\001\354\2710o\266B\256\344\340\310J\275\332\030"
 168      B9306FB6 
 168      42AEE4E0 
 168      C84ABDDA 
 168      18
 169 0037 4D3A68F6 		.ascii	"M:h\366\253NZ?^tt\342\001v?\031\345"
 169      AB4E5A3F 
 169      5E7474E2 
 169      01763F19 
 169      E5
 170              		.text
 171              		.section	.gnu.lto_.refs.4ed60bb222296535,"",%progbits
 172 0000 789C6362 		.ascii	"x\234cb`bPd\200\000\026\006&FF&&fF\026fV0\207\211\231"
 172      60625064 
 172      80001606 
 172      26464626 
 172      26664616 
ARM GAS  /var/folders/c6/c789hm653lg9vtl73krp73tm0000gn/T//ccYJu1mY.s 			page 13


 173 001a 0D4233B1 		.ascii	"\015B3\261\203h\006\000\012\332\000l"
 173      83680600 
 173      0ADA006C 
 174              		.text
 175              		.section	.gnu.lto_.decls.4ed60bb222296535,"",%progbits
 176 0000 789CAD56 		.ascii	"x\234\255V]l\024U\024\276wv\333\355\262\013\342\203"
 176      5D6C1455 
 176      14BE7776 
 176      DBEDB20B 
 176      E283
 177 0012 884F2051 		.ascii	"\210O Q\023\321v*b\254/\024l\024\232\200!4M\2101\231"
 177      13D1762A 
 177      62AC2F14 
 177      6C149A80 
 177      21344D88 
 178 0028 0CD3D1DD 		.ascii	"\014\323\321\335\260\3356;\263H}\341R\265!\204@m,B\320"
 178      B0DD363B 
 178      B3487DE1 
 178      52B52184 
 178      406D2C42 
 179 003d B694969F 		.ascii	"\266\224\226\237(RH5\242\030\027\244\245\255!\266*\""
 179      28524835 
 179      A21817A4 
 179      A5AD21B6 
 179      2A22
 180 004f 98EA1A0D 		.ascii	"\230\352\032\015\004}\301\030\322\027e<\367\316\235"
 180      047DC118 
 180      D217653C 
 180      F7CE9D
 181 005e CECCED2C 		.ascii	"\316\314\355,n\211\223\236\366v\346\234\357\373\316"
 181      6E89939E 
 181      F676E69C 
 181      EFFBCE
 182 006d B9E7CC1D 		.ascii	"\271\347\314\035\011I\350]\214\220\005\327\2259\010"
 182      0949E85D 
 182      8C9005D7 
 182      953908
 183 007c ED90102A 		.ascii	"\355\220\020*A\010\255@\356\025\006;\010v\030l\000l"
 183      4108AD40 
 183      EE15063B 
 183      0876186C 
 183      006C
 184 008e 90DFFB04 		.ascii	"\220\337\373\004\354,\330y\260a\344\277\250\177\004"
 184      EC2CD879 
 184      B061E4BF 
 184      A87F04
 185 009d D958F3C0 		.ascii	"\331X\363\300\342`\347\300N\203\215\200\215r?\314}\303"
 185      E260E7C0 
 185      4E838D80 
 185      8D723FCC 
 185      7DC3
 186 00af 1C6B98E3 		.ascii	"\034k\230\343\236\027\360(w\014\354\230\200\027\346"
 186      9E17F028 
 186      770CEC98 
 186      8017E6
 187 00be 1CD56063 		.ascii	"\034\325`c`\343`\227<\370\021\036{\031\354*\330$\317"
 187      60E36097 
ARM GAS  /var/folders/c6/c789hm653lg9vtl73krp73tm0000gn/T//ccYJu1mY.s 			page 14


 187      3CF8111E 
 187      7B19EC2A 
 187      D824CF
 188 00d1 E11AD80D 		.ascii	"\341\032\330\015\260\020\347=\036\220\003\365+\343<"
 188      B010E73D 
 188      1E9003F5 
 188      2BE33C
 189 00e0 0E679873 		.ascii	"\016g\230s\225p-\336<\006<x\247\002\360h\335J\003\360"
 189      95702DDE 
 189      3C063C78 
 189      A702F068 
 189      DD4A03F0 
 190 00f4 441CEA27 		.ascii	"D\034\352'\361\370\263\002\306\"\324Ez\362\371\241\353"
 190      F1F8B302 
 190      C622D445 
 190      7AF2F9A1 
 190      EB
 191 0105 030F909E 		.ascii	"\003\017\220\236\326\234eU\243\005\250\223\300\325\323"
 191      D69C6555 
 191      A305A893 
 191      C0D5D3
 192 0114 46083655 		.ascii	"F\0106U\274\342>\264\021\253x^\024-f\213x\224\221 \244"
 192      BCE23EB4 
 192      11AB785E 
 192      142D668B 
 192      78949120 
 193 0129 E25EBC80 		.ascii	"\342^\274\200\257\352C6\234\204\226`\264\024\035\203"
 193      AFEA4336 
 193      9C849660 
 193      B4141D83 
 194 0139 F876427A 		.ascii	"\370vBz\357GA\327#\250\237\022\220\243$\304\340)\300"
 194      EF4741D7 
 194      23A89F12 
 194      90A324C4 
 194      E029C0
 195 014c 41BCC8EB 		.ascii	"A\274\310\353\242\342CX\232\2513\367\331\205\2570\351"
 195      A2E24358 
 195      9AA933F7 
 195      D985AF30 
 195      E9
 196 015d 207F5B56 		.ascii	" \177[VH\324Y\035+\250\363\010\327\031be@Q\264\203\220"
 196      48D4591D 
 196      2BA8F308 
 196      D7196265 
 196      4051B483 
 197 0172 561AB866 		.ascii	"V\032\270f\004\352\026\024\3650\352\203\014\362WN\276"
 197      04EA1614 
 197      F530EA83 
 197      0CF2574E 
 197      BE
 198 0183 271352A6 		.ascii	"'\023R\246\342c8\012\261{0\006\264>\274tZeI\324\257"
 198      E263380A 
 198      B17B3006 
 198      B43EBC74 
 198      5A6549D4 
 199 0198 1AFE771C 		.ascii	"\032\376w\034(\032{\314\027t\"\356\361\326\212\225k"
 199      281A7BCC 
ARM GAS  /var/folders/c6/c789hm653lg9vtl73krp73tm0000gn/T//ccYJu1mY.s 			page 15


 199      177422EE 
 199      F1D68A95 
 199      6B
 200 01a9 AF00F910 		.ascii	"\257\000\371\020:DHG\276\177j<\264\237\344\302\016s"
 200      3A444847 
 200      BE7F6A3C 
 200      B49FE4C2 
 200      0E73
 201 01bb 2F733B0C 		.ascii	"/s;\014E\012Rk{9\225m%'\332\336\234\037f\025Aw\210\342"
 201      450A526B 
 201      7B39956D 
 201      2527DADE 
 201      9C1F6615 
 202 01d3 923F9859 		.ascii	"\222?\230Y\350\374\315\334\336\261x\373\366\274eu\257"
 202      E8FCCDDC 
 202      DEB178FB 
 202      F6BC6575 
 202      AF
 203 01e4 B4CB27A1 		.ascii	"\264\313'\241#\201J\311T\303\032\233^\305\037\002\222"
 203      23814AC9 
 203      54C31A9B 
 203      5EC51F02 
 203      92
 204 01f5 8A07EE4A 		.ascii	"\212\007\356Jd\241(.\362d`7L\355\334\345tm\231\320\015"
 204      64A1282E 
 204      F2646037 
 204      4CEDDCE5 
 204      746D99D0 
 205 020a 94AB503B 		.ascii	"\224\253P;|\024\320\266\203Bv\3232O\035%QG\272\212\007"
 205      7C14D0B6 
 205      834276D3 
 205      324F1D25 
 205      5147BA8A 
 206 021f EF2CF363 		.ascii	"\357,\363c\277\314%\350 \311\267\347&\332:1\371\005"
 206      BFCC25E8 
 206      20C9B7E7 
 206      26DA3A31 
 206      F905
 207 0231 C4DDB62C 		.ascii	"\304\335\266,|/j\247:\027\357\233\307\3330\337O\026"
 207      7C2F6AA7 
 207      3A17EF9B 
 207      C7DB30DF 
 207      4F16
 208 0243 EE73DBB0 		.ascii	"\356s\333\260\314\201\305n\033\036\330}\3741\326\206"
 208      CC81C56E 
 208      1B1ED87D 
 208      FC31D686 
 209 0253 9FB266E8 		.ascii	"\237\262f\350\220\374Z\213\007\272\325\321U\305\200"
 209      90FC5A8B 
 209      07BAD5D1 
 209      55C580
 210 0262 3E674053 		.ascii	">g@S\222\330\317X\350g\354\357g\034u\027\026Fw\345\253"
 210      92D8CF58 
 210      E867ECEF 
 210      671C7517 
 210      164677E5 
 211 0277 E2D35004 		.ascii	"\342\323P\004\317%\241\355!\354C\312\271e\244%$\337"
ARM GAS  /var/folders/c6/c789hm653lg9vtl73krp73tm0000gn/T//ccYJu1mY.s 			page 16


 211      CF25A1ED 
 211      21EC43CA 
 211      B965A425 
 211      24DF
 212 0289 E4877E7E 		.ascii	"\344\207~~\233\356\264]\302\030\332\351\316\257]\224"
 212      9BEEB45D 
 212      C218DAE9 
 212      CEAF5D94 
 213 0299 425B7D0E 		.ascii	"B[}\016\307\\\232=!'\335B\356_\372\211a\357\276\365"
 213      C75C9A3D 
 213      2127DD42 
 213      EE5FFA89 
 213      61EFBEF5 
 214 02ad EE9D2D5D 		.ascii	"\356\235-]B\357\010z\207D\2759\253\177\224\276\247\310"
 214      42EF087A 
 214      8744BD39 
 214      AB7F94BE 
 214      A7C8
 215 02bf 4D98795B 		.ascii	"M\230y[\205\204\372\376\223\376\202\213#\344Hy\013E"
 215      8584FAFE 
 215      93FE828B 
 215      23E44879 
 215      0B45
 216 02d1 8DB8390A 		.ascii	"\215\2709\012Q\224\267P\324\250\033U\374\373\360\300"
 216      5194B750 
 216      D4A81B55 
 216      FCFBF0C0 
 217 02e1 EEA1B318 		.ascii	"\356\241\263\030v\001\036\214\261\016z?\024\330\212"
 217      76011E8C 
 217      B10E7A3F 
 217      14D88A
 218 02f0 4540DDEA 		.ascii	"E@\335\3528\363\014k\305\213\014h0$\266bDh\305\210\277"
 218      38F30C6B 
 218      C58B0C68 
 218      3024B662 
 218      4468C588 
 219 0305 BD225177 		.ascii	"\275\"Qw\301_\255\263t\347\223\330\263\3227\212\013"
 219      C15FADB3 
 219      74E793D8 
 219      B3D2378A 
 219      0B
 220 0316 EF3040F4 		.ascii	"\3570@\364L\223T<\301\024\177\021\362\017\200\207{\202"
 220      4C93543C 
 220      C1147F11 
 220      F20F8087 
 220      7B82
 221 0328 8F118D9F 		.ascii	"\217\021\215\237\230\236\203\011>\010\034~\276\003/"
 221      989E8309 
 221      3E081C7E 
 221      BE032F
 222 0337 F1A8713E 		.ascii	"\361\250q>\026L\014\231\336\304x\341\356\376\316\303"
 222      164C0C99 
 222      DEC478E1 
 222      EEFECEC3 
 223 0347 138FBA0B 		.ascii	"\023\217\272\013G\230\373\256\261\3319N\225\343\027"
 223      4798FBAE 
 223      B1D9394E 
ARM GAS  /var/folders/c6/c789hm653lg9vtl73krp73tm0000gn/T//ccYJu1mY.s 			page 17


 223      95E317
 224 0356 E1389766 		.ascii	"\3418\227f\315\374}\001\346R\316L_\320\271\233\371\375"
 224      CDFC7D01 
 224      E652CE4C 
 224      5FD0B99B 
 224      F9FD
 225 0368 5D9343B8 		.ascii	"]\223C\270\343u2\302\006\241\247\314\376d\220\320o\241"
 225      E37532C2 
 225      06A1A7CC 
 225      FE6490D0 
 225      6FA1
 226 037a C0B7ADF0 		.ascii	"\300\267\255\360MpY\374&\370a\346)\000$g\272o\227\302"
 226      4D7059FC 
 226      26F861E6 
 226      29002467 
 226      BA6F97C2 
 227 038e 59F906B1 		.ascii	"Y\371\006\261\254m\017:\014\373\302\3050\\\025\031~"
 227      AC6D0F3A 
 227      0CFBC2C5 
 227      305C1519 
 227      7E
 228 039f 0C64E8FC 		.ascii	"\014d\350\3745\267\013\277u\242\215\320#q[w\256=\\\374"
 228      35B70BBF 
 228      75A28DD0 
 228      23715B77 
 228      AE3D5CFC 
 229 03b3 37D24FFE 		.ascii	"7\322O\376o\017{p\204\217\200\257}b\231\247\204&\303"
 229      6F0F7B70 
 229      848F80AF 
 229      7D6299A7 
 229      8426C3
 230 03c6 7C1BF941 		.ascii	"|\033\371A;1\034o\237\236\273?X\304d\301\243v\314s\324"
 230      3B311C6F 
 230      9F9EBB3F 
 230      58C464C1 
 230      A376CC73 
 231 03db 12F2D7F6 		.ascii	"\022\362\327\366\365\013\247s\236\024s\316\007\346\274"
 231      F50BA773 
 231      9E1473CE 
 231      07E6BC
 232 03ea BFEB7AE0 		.ascii	"\277\353z\340\326\375YTa\257\211$\327\013l\335\305\310"
 232      D6FD5954 
 232      61AF8924 
 232      D70B6CDD 
 232      C5C8
 233 03fc 8CADFBA7 		.ascii	"\214\255\373\247(\206\033\"\303\357~\006\264\250\242"
 233      28861B22 
 233      C3EF7E06 
 233      B4A8A2
 234 040b 42B67F9A 		.ascii	"B\266\177\232\0149c\312FF\223\265D\243\336\2505e\364"
 234      0C3963CA 
 234      464693B5 
 234      44A3DEA8 
 234      3565F4
 235 041e 0A0DCD51 		.ascii	"\012\015\315Q\350BI\246\223f\351\352\027\352\027\327"
 235      E84249A6 
 235      9366E9EA 
ARM GAS  /var/folders/c6/c789hm653lg9vtl73krp73tm0000gn/T//ccYJu1mY.s 			page 18


 235      17EA17D7 
 236 042e A017E5AC 		.ascii	"\240\027\345\254\221\221SM\232\232\222k\364TJ\315\310"
 236      9191534D 
 236      9A9A926B 
 236      F4544ACD 
 236      C8
 237 043f AF685AB9 		.ascii	"\257hZ\271\232i,O7\245\365r]\335\224\224\227U>\261\274"
 237      9A692C4F 
 237      37A5F572 
 237      5DDD9494 
 237      97553EB1 
 238 0454 B2AAF229 		.ascii	"\262\252\362)9\225\334D\037\313\376\307\313+\252*\226"
 238      3995DC44 
 238      1FCBFEC7 
 238      CB2BAA2A 
 238      96
 239 0465 CBC9B496 		.ascii	"\313\311\264\226\3126\350\262a64\350/W$P\251\221|MW"
 239      CA36E8B2 
 239      613634E8 
 239      2F572450 
 239      A9917C4D 
 240 047a CC9896A8 		.ascii	"\314\230\226\250\001\322U) \011\323[q\317\215\332\371"
 240      01D25529 
 240      2009D35B 
 240      71CF8DDA 
 240      F9
 241 048b F63FAB75 		.ascii	"\366?\253u\263\316T\315\254\261q\355\254\004\371o{$"
 241      B3CE54CD 
 241      ACB171ED 
 241      AC04F96F 
 241      7B24
 242 049d 24D32648 		.ascii	"$\323&H\210d\341o\225b\276\364?\2006\252Z\"\231\326"
 242      8864E16F 
 242      9562BEF4 
 242      3F8036AA 
 242      5A2299D6 
 243 04b1 6505B253 		.ascii	"e\005\262S\263)S1[\232u\003H\242\212\302i\346*JBW\233"
 243      B3295331 
 243      5B9A7503 
 243      48A28AC2 
 243      69E62A4A 
 244 04c8 954DAAA1 		.ascii	"\225M\252\241+J$\255o5\241\366q~WO7(J)\374\206{e4\342"
 244      2B4A24AD 
 244      6F35A1F6 
 244      717E574F 
 244      37284A29 
 245 04e2 C9658A39 		.ascii	"\311e\2129\307\016\246\313\260\226P3\342\016:\354Z\302"
 245      C70EA6CB 
 245      B0965033 
 245      E20E3AEC 
 245      5AC2
 246 04f4 6861645A 		.ascii	"hadZ\242\256\305X\333\244m~T\360ln\312\230\206\274j"
 246      A2AEC558 
 246      DBA46D7E 
 246      54F06C6E 
 246      CA9886BC 
 247 0509 C3BA9A75 		.ascii	"\303\272\232u[\301\235m\364\226\247\033i\014}\244@\366"
ARM GAS  /var/folders/c6/c789hm653lg9vtl73krp73tm0000gn/T//ccYJu1mY.s 			page 19


 247      5BC19D6D 
 247      F496A71B 
 247      690C7DA4 
 247      40F6
 248 051b 9B1FF7C6 		.ascii	"\233\037\367\306\200:\271f]]m\235KBc\264\306\347\263"
 248      803AB966 
 248      5D5D6D9D 
 248      4B4263B4 
 248      C6E7B3
 249 052e 690DC220 		.ascii	"i\015\302 \033C7\225gW\325=\267~C\355\\5\365\252\332"
 249      1B433795 
 249      6757D53D 
 249      B77E43ED 
 249      5C35F5AA 
 250 0543 6240EFA4 		.ascii	"b@\357\244\240\012%[\324TV\21711\365i\012\035c$Y\266"
 250      A00A255B 
 250      D454568F 
 250      3131F569 
 250      0A1D6324 
 251 0559 FE17B636 		.ascii	"\376\027\2666)a"
 251      2961
 252              		.text
 253              		.section	.gnu.lto_.symtab.4ed60bb222296535,"",%progbits
 254 0000 5F636F72 		.ascii	"_core_init\000\000\000\000\000\000\000\000\000\000\000"
 254      655F696E 
 254      69740000 
 254      00000000 
 254      00000000 
 255 0015 00A10000 		.ascii	"\000\241\000\000\000chCoreAlloc\000\000\000\000\000"
 255      00636843 
 255      6F726541 
 255      6C6C6F63 
 255      00000000 
 256 002a 00000000 		.ascii	"\000\000\000\000\000\000\000\246\000\000\000chCoreA"
 256      000000A6 
 256      00000063 
 256      68436F72 
 256      6541
 257 003c 6C6C6F63 		.ascii	"llocI\000\000\000\000\000\000\000\000\000\000\000\000"
 257      49000000 
 257      00000000 
 257      00000000 
 257      00
 258 004d B0000000 		.ascii	"\260\000\000\000chCoreGetStatusX\000\000\000\000\000"
 258      6368436F 
 258      72654765 
 258      74537461 
 258      74757358 
 259 0066 00000000 		.ascii	"\000\000\000\000\000\000\000\264\000\000\000__heap_"
 259      000000B4 
 259      0000005F 
 259      5F686561 
 259      705F
 260 0078 62617365 		.ascii	"base__\000\000\002\000\000\000\000\000\000\000\000\000"
 260      5F5F0000 
 260      02000000 
 260      00000000 
ARM GAS  /var/folders/c6/c789hm653lg9vtl73krp73tm0000gn/T//ccYJu1mY.s 			page 20


 260      0000
 261 008a B8000000 		.ascii	"\270\000\000\000__heap_end__\000\000\002\000\000\000"
 261      5F5F6865 
 261      61705F65 
 261      6E645F5F 
 261      00000200 
 262 00a0 00000000 		.ascii	"\000\000\000\000\000\000\304\000\000\000"
 262      0000C400 
 262      0000
 263              		.text
 264              		.section	.gnu.lto_.opts,"",%progbits
 265 0000 272D6D63 		.ascii	"'-mcpu=cortex-m4' '-mno-thumb-interwork' '-mthumb' "
 265      70753D63 
 265      6F727465 
 265      782D6D34 
 265      2720272D 
 266 0033 272D6767 		.ascii	"'-ggdb' '-O2' '-fomit-frame-pointer' '-falign-funct"
 266      64622720 
 266      272D4F32 
 266      2720272D 
 266      666F6D69 
 267 0066 696F6E73 		.ascii	"ions=16' '-ffunction-sections' '-fdata-sections' '-"
 267      3D313627 
 267      20272D66 
 267      66756E63 
 267      74696F6E 
 268 0099 666E6F2D 		.ascii	"fno-common' '-flto'\000"
 268      636F6D6D 
 268      6F6E2720 
 268      272D666C 
 268      746F2700 
 269              		.text
 270              		.cfi_sections	.debug_frame
 271              		.section	.text._core_init,"ax",%progbits
 272              		.align	2
 273              		.p2align 4,,15
 274              		.global	_core_init
 275              		.thumb
 276              		.thumb_func
 277              		.type	_core_init, %function
 278              	_core_init:
 279              	.LFB229:
 280              		.file 1 "../../../os/rt/src/chmemcore.c"
 281              		.loc 1 78 0
 282              		.cfi_startproc
 283              		@ args = 0, pretend = 0, frame = 0
 284              		@ frame_needed = 0, uses_anonymous_args = 0
 285              		@ link register save eliminated.
 286              		.loc 1 84 0
 287 0000 0548     		ldr	r0, .L2
 288              		.loc 1 85 0
 289 0002 064A     		ldr	r2, .L2+4
 290              		.loc 1 84 0
 291 0004 0649     		ldr	r1, .L2+8
 292              		.loc 1 85 0
 293 0006 074B     		ldr	r3, .L2+12
 294              		.loc 1 84 0
ARM GAS  /var/folders/c6/c789hm653lg9vtl73krp73tm0000gn/T//ccYJu1mY.s 			page 21


 295 0008 20F00700 		bic	r0, r0, #7
 296              		.loc 1 85 0
 297 000c 22F00702 		bic	r2, r2, #7
 298              		.loc 1 84 0
 299 0010 0860     		str	r0, [r1]
 300              		.loc 1 85 0
 301 0012 1A60     		str	r2, [r3]
 302 0014 7047     		bx	lr
 303              	.L3:
 304 0016 00BF     		.align	2
 305              	.L2:
 306 0018 07000000 		.word	__heap_base__+7
 307 001c 00000000 		.word	__heap_end__
 308 0020 00000000 		.word	.LANCHOR0
 309 0024 00000000 		.word	.LANCHOR1
 310              		.cfi_endproc
 311              	.LFE229:
 312              		.size	_core_init, .-_core_init
 313 0028 AFF30080 		.section	.text.chCoreAlloc,"ax",%progbits
 313      AFF30080 
 314              		.align	2
 315              		.p2align 4,,15
 316              		.global	chCoreAlloc
 317              		.thumb
 318              		.thumb_func
 319              		.type	chCoreAlloc, %function
 320              	chCoreAlloc:
 321              	.LFB230:
 322              		.loc 1 109 0
 323              		.cfi_startproc
 324              		@ args = 0, pretend = 0, frame = 0
 325              		@ frame_needed = 0, uses_anonymous_args = 0
 326              		@ link register save eliminated.
 327              	.LVL0:
 328              	.LBB26:
 329              	.LBB27:
 330              	.LBB28:
 331              	.LBB29:
 332              		.file 2 "../../../os/ext/CMSIS/include/core_cmFunc.h"
 333              		.loc 2 546 0
 334 0000 2023     		movs	r3, #32
 335              	@ 546 "../../../os/ext/CMSIS/include/core_cmFunc.h" 1
 336 0002 83F31188 		MSR basepri, r3
 337              	@ 0 "" 2
 338              	.LVL1:
 339              		.thumb
 340              	.LBE29:
 341              	.LBE28:
 342              	.LBE27:
 343              	.LBE26:
 344              	.LBB30:
 345              	.LBB31:
 346              		.loc 1 138 0
 347 0006 094A     		ldr	r2, .L7
 348 0008 0949     		ldr	r1, .L7+4
 349 000a 1368     		ldr	r3, [r2]
 350 000c 0968     		ldr	r1, [r1]
ARM GAS  /var/folders/c6/c789hm653lg9vtl73krp73tm0000gn/T//ccYJu1mY.s 			page 22


 351              		.loc 1 136 0
 352 000e 0730     		adds	r0, r0, #7
 353              	.LVL2:
 354 0010 20F00700 		bic	r0, r0, #7
 355              	.LVL3:
 356              		.loc 1 138 0
 357 0014 C91A     		subs	r1, r1, r3
 358 0016 8842     		cmp	r0, r1
 359              	.LVL4:
 360              		.loc 1 143 0
 361 0018 9BBF     		ittet	ls
 362 001a C018     		addls	r0, r0, r3
 363              	.LVL5:
 364 001c 1060     		strls	r0, [r2]
 365              		.loc 1 140 0
 366 001e 0020     		movhi	r0, #0
 367              	.LVL6:
 368              		.loc 1 145 0
 369 0020 1846     		movls	r0, r3
 370              	.LBE31:
 371              	.LBE30:
 372              	.LBB32:
 373              	.LBB33:
 374              	.LBB34:
 375              	.LBB35:
 376              	.LBB36:
 377              		.loc 2 546 0
 378 0022 0023     		movs	r3, #0
 379              	.LVL7:
 380              	@ 546 "../../../os/ext/CMSIS/include/core_cmFunc.h" 1
 381 0024 83F31188 		MSR basepri, r3
 382              	@ 0 "" 2
 383              		.thumb
 384              	.LBE36:
 385              	.LBE35:
 386              	.LBE34:
 387              	.LBE33:
 388              	.LBE32:
 389              		.loc 1 117 0
 390 0028 7047     		bx	lr
 391              	.L8:
 392 002a 00BF     		.align	2
 393              	.L7:
 394 002c 00000000 		.word	.LANCHOR0
 395 0030 00000000 		.word	.LANCHOR1
 396              		.cfi_endproc
 397              	.LFE230:
 398              		.size	chCoreAlloc, .-chCoreAlloc
 399 0034 AFF30080 		.section	.text.chCoreAllocI,"ax",%progbits
 399      AFF30080 
 399      AFF30080 
 400              		.align	2
 401              		.p2align 4,,15
 402              		.global	chCoreAllocI
 403              		.thumb
 404              		.thumb_func
 405              		.type	chCoreAllocI, %function
ARM GAS  /var/folders/c6/c789hm653lg9vtl73krp73tm0000gn/T//ccYJu1mY.s 			page 23


 406              	chCoreAllocI:
 407              	.LFB231:
 408              		.loc 1 131 0
 409              		.cfi_startproc
 410              		@ args = 0, pretend = 0, frame = 0
 411              		@ frame_needed = 0, uses_anonymous_args = 0
 412              		@ link register save eliminated.
 413              	.LVL8:
 414              		.loc 1 138 0
 415 0000 074A     		ldr	r2, .L12
 416 0002 0849     		ldr	r1, .L12+4
 417 0004 1368     		ldr	r3, [r2]
 418 0006 0968     		ldr	r1, [r1]
 419              		.loc 1 136 0
 420 0008 0730     		adds	r0, r0, #7
 421              	.LVL9:
 422 000a 20F00700 		bic	r0, r0, #7
 423              	.LVL10:
 424              		.loc 1 138 0
 425 000e C91A     		subs	r1, r1, r3
 426 0010 8842     		cmp	r0, r1
 427              	.LVL11:
 428              		.loc 1 143 0
 429 0012 9DBF     		ittte	ls
 430 0014 C018     		addls	r0, r0, r3
 431              	.LVL12:
 432 0016 1060     		strls	r0, [r2]
 433              		.loc 1 145 0
 434 0018 1846     		movls	r0, r3
 435              		.loc 1 140 0
 436 001a 0020     		movhi	r0, #0
 437              		.loc 1 146 0
 438 001c 7047     		bx	lr
 439              	.L13:
 440 001e 00BF     		.align	2
 441              	.L12:
 442 0020 00000000 		.word	.LANCHOR0
 443 0024 00000000 		.word	.LANCHOR1
 444              		.cfi_endproc
 445              	.LFE231:
 446              		.size	chCoreAllocI, .-chCoreAllocI
 447 0028 AFF30080 		.section	.text.chCoreGetStatusX,"ax",%progbits
 447      AFF30080 
 448              		.align	2
 449              		.p2align 4,,15
 450              		.global	chCoreGetStatusX
 451              		.thumb
 452              		.thumb_func
 453              		.type	chCoreGetStatusX, %function
 454              	chCoreGetStatusX:
 455              	.LFB232:
 456              		.loc 1 155 0
 457              		.cfi_startproc
 458              		@ args = 0, pretend = 0, frame = 0
 459              		@ frame_needed = 0, uses_anonymous_args = 0
 460              		@ link register save eliminated.
 461              		.loc 1 158 0
ARM GAS  /var/folders/c6/c789hm653lg9vtl73krp73tm0000gn/T//ccYJu1mY.s 			page 24


 462 0000 024A     		ldr	r2, .L15
 463 0002 034B     		ldr	r3, .L15+4
 464 0004 1068     		ldr	r0, [r2]
 465 0006 1B68     		ldr	r3, [r3]
 466              		.loc 1 160 0
 467 0008 C01A     		subs	r0, r0, r3
 468 000a 7047     		bx	lr
 469              	.L16:
 470              		.align	2
 471              	.L15:
 472 000c 00000000 		.word	.LANCHOR1
 473 0010 00000000 		.word	.LANCHOR0
 474              		.cfi_endproc
 475              	.LFE232:
 476              		.size	chCoreGetStatusX, .-chCoreGetStatusX
 477 0014 AFF30080 		.section	.bss.endmem,"aw",%nobits
 477      AFF30080 
 477      AFF30080 
 478              		.align	2
 479              		.set	.LANCHOR1,. + 0
 480              		.type	endmem, %object
 481              		.size	endmem, 4
 482              	endmem:
 483 0000 00000000 		.space	4
 484              		.section	.bss.nextmem,"aw",%nobits
 485              		.align	2
 486              		.set	.LANCHOR0,. + 0
 487              		.type	nextmem, %object
 488              		.size	nextmem, 4
 489              	nextmem:
 490 0000 00000000 		.space	4
 491              		.text
 492              	.Letext0:
 493              		.file 3 "/usr/local/Cellar/gcc-arm-none-eabi/20140805/lib/gcc/arm-none-eabi/4.8.4/include/stddef.h
 494              		.file 4 "/usr/local/Cellar/gcc-arm-none-eabi/20140805/arm-none-eabi/include/machine/_default_types
 495              		.file 5 "/usr/local/Cellar/gcc-arm-none-eabi/20140805/arm-none-eabi/include/stdint.h"
 496              		.file 6 "../../../os/rt/ports/ARMCMx/compilers/GCC/chtypes.h"
 497              		.file 7 "../../../os/rt/include/chsystypes.h"
 498              		.file 8 "../../../os/rt/include/chschd.h"
 499              		.file 9 "../../../os/rt/ports/ARMCMx/chcore.h"
 500              		.file 10 "../../../os/rt/ports/ARMCMx/chcore_v7m.h"
 501              		.file 11 "../../../os/rt/include/chtm.h"
 502              		.file 12 "../../../os/rt/include/chsem.h"
 503              		.file 13 "../../../os/rt/include/chmtx.h"
 504              		.file 14 "../../../os/rt/include/chsys.h"
 505              		.file 15 "../../../os/ext/CMSIS/include/core_cm4.h"
 506              		.section	.debug_info,"",%progbits
 507              	.Ldebug_info0:
 508 0000 57080000 		.4byte	0x857
 509 0004 0400     		.2byte	0x4
 510 0006 00000000 		.4byte	.Ldebug_abbrev0
 511 000a 04       		.byte	0x4
 512 000b 01       		.uleb128 0x1
 513 000c 00000000 		.4byte	.LASF115
 514 0010 01       		.byte	0x1
 515 0011 D6010000 		.4byte	.LASF116
 516 0015 CE040000 		.4byte	.LASF117
ARM GAS  /var/folders/c6/c789hm653lg9vtl73krp73tm0000gn/T//ccYJu1mY.s 			page 25


 517 0019 00000000 		.4byte	.Ldebug_ranges0+0
 518 001d 00000000 		.4byte	0
 519 0021 00000000 		.4byte	.Ldebug_line0
 520 0025 02       		.uleb128 0x2
 521 0026 04       		.byte	0x4
 522 0027 05       		.byte	0x5
 523 0028 696E7400 		.ascii	"int\000"
 524 002c 03       		.uleb128 0x3
 525 002d F4000000 		.4byte	.LASF2
 526 0031 03       		.byte	0x3
 527 0032 D4       		.byte	0xd4
 528 0033 37000000 		.4byte	0x37
 529 0037 04       		.uleb128 0x4
 530 0038 04       		.byte	0x4
 531 0039 07       		.byte	0x7
 532 003a 94020000 		.4byte	.LASF0
 533 003e 04       		.uleb128 0x4
 534 003f 01       		.byte	0x1
 535 0040 06       		.byte	0x6
 536 0041 BA010000 		.4byte	.LASF1
 537 0045 03       		.uleb128 0x3
 538 0046 17010000 		.4byte	.LASF3
 539 004a 04       		.byte	0x4
 540 004b 1C       		.byte	0x1c
 541 004c 50000000 		.4byte	0x50
 542 0050 04       		.uleb128 0x4
 543 0051 01       		.byte	0x1
 544 0052 08       		.byte	0x8
 545 0053 F9030000 		.4byte	.LASF4
 546 0057 04       		.uleb128 0x4
 547 0058 02       		.byte	0x2
 548 0059 05       		.byte	0x5
 549 005a 1C040000 		.4byte	.LASF5
 550 005e 04       		.uleb128 0x4
 551 005f 02       		.byte	0x2
 552 0060 07       		.byte	0x7
 553 0061 CF020000 		.4byte	.LASF6
 554 0065 03       		.uleb128 0x3
 555 0066 20030000 		.4byte	.LASF7
 556 006a 04       		.byte	0x4
 557 006b 37       		.byte	0x37
 558 006c 70000000 		.4byte	0x70
 559 0070 04       		.uleb128 0x4
 560 0071 04       		.byte	0x4
 561 0072 05       		.byte	0x5
 562 0073 29020000 		.4byte	.LASF8
 563 0077 03       		.uleb128 0x3
 564 0078 54050000 		.4byte	.LASF9
 565 007c 04       		.byte	0x4
 566 007d 38       		.byte	0x38
 567 007e 82000000 		.4byte	0x82
 568 0082 04       		.uleb128 0x4
 569 0083 04       		.byte	0x4
 570 0084 07       		.byte	0x7
 571 0085 BC040000 		.4byte	.LASF10
 572 0089 04       		.uleb128 0x4
 573 008a 08       		.byte	0x8
ARM GAS  /var/folders/c6/c789hm653lg9vtl73krp73tm0000gn/T//ccYJu1mY.s 			page 26


 574 008b 05       		.byte	0x5
 575 008c AC010000 		.4byte	.LASF11
 576 0090 03       		.uleb128 0x3
 577 0091 AF030000 		.4byte	.LASF12
 578 0095 04       		.byte	0x4
 579 0096 4E       		.byte	0x4e
 580 0097 9B000000 		.4byte	0x9b
 581 009b 04       		.uleb128 0x4
 582 009c 08       		.byte	0x8
 583 009d 07       		.byte	0x7
 584 009e 46010000 		.4byte	.LASF13
 585 00a2 03       		.uleb128 0x3
 586 00a3 C9050000 		.4byte	.LASF14
 587 00a7 05       		.byte	0x5
 588 00a8 2A       		.byte	0x2a
 589 00a9 45000000 		.4byte	0x45
 590 00ad 03       		.uleb128 0x3
 591 00ae F1030000 		.4byte	.LASF15
 592 00b2 05       		.byte	0x5
 593 00b3 41       		.byte	0x41
 594 00b4 65000000 		.4byte	0x65
 595 00b8 03       		.uleb128 0x3
 596 00b9 8B040000 		.4byte	.LASF16
 597 00bd 05       		.byte	0x5
 598 00be 42       		.byte	0x42
 599 00bf 77000000 		.4byte	0x77
 600 00c3 03       		.uleb128 0x3
 601 00c4 02010000 		.4byte	.LASF17
 602 00c8 05       		.byte	0x5
 603 00c9 4E       		.byte	0x4e
 604 00ca 90000000 		.4byte	0x90
 605 00ce 05       		.uleb128 0x5
 606 00cf AD000000 		.4byte	0xad
 607 00d3 03       		.uleb128 0x3
 608 00d4 86050000 		.4byte	.LASF18
 609 00d8 06       		.byte	0x6
 610 00d9 45       		.byte	0x45
 611 00da B8000000 		.4byte	0xb8
 612 00de 03       		.uleb128 0x3
 613 00df FE020000 		.4byte	.LASF19
 614 00e3 06       		.byte	0x6
 615 00e4 48       		.byte	0x48
 616 00e5 A2000000 		.4byte	0xa2
 617 00e9 03       		.uleb128 0x3
 618 00ea 32020000 		.4byte	.LASF20
 619 00ee 06       		.byte	0x6
 620 00ef 49       		.byte	0x49
 621 00f0 A2000000 		.4byte	0xa2
 622 00f4 03       		.uleb128 0x3
 623 00f5 BA030000 		.4byte	.LASF21
 624 00f9 06       		.byte	0x6
 625 00fa 4A       		.byte	0x4a
 626 00fb A2000000 		.4byte	0xa2
 627 00ff 03       		.uleb128 0x3
 628 0100 D9030000 		.4byte	.LASF22
 629 0104 06       		.byte	0x6
 630 0105 4C       		.byte	0x4c
ARM GAS  /var/folders/c6/c789hm653lg9vtl73krp73tm0000gn/T//ccYJu1mY.s 			page 27


 631 0106 B8000000 		.4byte	0xb8
 632 010a 03       		.uleb128 0x3
 633 010b EC020000 		.4byte	.LASF23
 634 010f 06       		.byte	0x6
 635 0110 4D       		.byte	0x4d
 636 0111 AD000000 		.4byte	0xad
 637 0115 03       		.uleb128 0x3
 638 0116 14030000 		.4byte	.LASF24
 639 011a 06       		.byte	0x6
 640 011b 4F       		.byte	0x4f
 641 011c B8000000 		.4byte	0xb8
 642 0120 03       		.uleb128 0x3
 643 0121 8E020000 		.4byte	.LASF25
 644 0125 06       		.byte	0x6
 645 0126 51       		.byte	0x51
 646 0127 AD000000 		.4byte	0xad
 647 012b 03       		.uleb128 0x3
 648 012c 36050000 		.4byte	.LASF26
 649 0130 07       		.byte	0x7
 650 0131 33       		.byte	0x33
 651 0132 B8000000 		.4byte	0xb8
 652 0136 03       		.uleb128 0x3
 653 0137 1E050000 		.4byte	.LASF27
 654 013b 07       		.byte	0x7
 655 013c 3F       		.byte	0x3f
 656 013d 41010000 		.4byte	0x141
 657 0141 06       		.uleb128 0x6
 658 0142 E2020000 		.4byte	.LASF47
 659 0146 44       		.byte	0x44
 660 0147 08       		.byte	0x8
 661 0148 C2       		.byte	0xc2
 662 0149 2E020000 		.4byte	0x22e
 663 014d 07       		.uleb128 0x7
 664 014e 49040000 		.4byte	.LASF28
 665 0152 08       		.byte	0x8
 666 0153 C3       		.byte	0xc3
 667 0154 39020000 		.4byte	0x239
 668 0158 00       		.byte	0
 669 0159 07       		.uleb128 0x7
 670 015a D2030000 		.4byte	.LASF29
 671 015e 08       		.byte	0x8
 672 015f C5       		.byte	0xc5
 673 0160 39020000 		.4byte	0x239
 674 0164 04       		.byte	0x4
 675 0165 07       		.uleb128 0x7
 676 0166 A5010000 		.4byte	.LASF30
 677 016a 08       		.byte	0x8
 678 016b C7       		.byte	0xc7
 679 016c FF000000 		.4byte	0xff
 680 0170 08       		.byte	0x8
 681 0171 07       		.uleb128 0x7
 682 0172 0D060000 		.4byte	.LASF31
 683 0176 08       		.byte	0x8
 684 0177 C8       		.byte	0xc8
 685 0178 69040000 		.4byte	0x469
 686 017c 0C       		.byte	0xc
 687 017d 07       		.uleb128 0x7
ARM GAS  /var/folders/c6/c789hm653lg9vtl73krp73tm0000gn/T//ccYJu1mY.s 			page 28


 688 017e 3B020000 		.4byte	.LASF32
 689 0182 08       		.byte	0x8
 690 0183 CA       		.byte	0xca
 691 0184 39020000 		.4byte	0x239
 692 0188 10       		.byte	0x10
 693 0189 07       		.uleb128 0x7
 694 018a 7E030000 		.4byte	.LASF33
 695 018e 08       		.byte	0x8
 696 018f CB       		.byte	0xcb
 697 0190 39020000 		.4byte	0x239
 698 0194 14       		.byte	0x14
 699 0195 07       		.uleb128 0x7
 700 0196 D8050000 		.4byte	.LASF34
 701 019a 08       		.byte	0x8
 702 019b D2       		.byte	0xd2
 703 019c E8050000 		.4byte	0x5e8
 704 01a0 18       		.byte	0x18
 705 01a1 07       		.uleb128 0x7
 706 01a2 26040000 		.4byte	.LASF35
 707 01a6 08       		.byte	0x8
 708 01a7 DD       		.byte	0xdd
 709 01a8 E9000000 		.4byte	0xe9
 710 01ac 1C       		.byte	0x1c
 711 01ad 07       		.uleb128 0x7
 712 01ae 50040000 		.4byte	.LASF36
 713 01b2 08       		.byte	0x8
 714 01b3 E1       		.byte	0xe1
 715 01b4 DE000000 		.4byte	0xde
 716 01b8 1D       		.byte	0x1d
 717 01b9 07       		.uleb128 0x7
 718 01ba BC050000 		.4byte	.LASF37
 719 01be 08       		.byte	0x8
 720 01bf E6       		.byte	0xe6
 721 01c0 F4000000 		.4byte	0xf4
 722 01c4 1E       		.byte	0x1e
 723 01c5 08       		.uleb128 0x8
 724 01c6 705F7500 		.ascii	"p_u\000"
 725 01ca 08       		.byte	0x8
 726 01cb 3101     		.2byte	0x131
 727 01cd 23050000 		.4byte	0x523
 728 01d1 20       		.byte	0x20
 729 01d2 09       		.uleb128 0x9
 730 01d3 35030000 		.4byte	.LASF38
 731 01d7 08       		.byte	0x8
 732 01d8 3601     		.2byte	0x136
 733 01da 3F020000 		.4byte	0x23f
 734 01de 24       		.byte	0x24
 735 01df 09       		.uleb128 0x9
 736 01e0 BE020000 		.4byte	.LASF39
 737 01e4 08       		.byte	0x8
 738 01e5 3C01     		.2byte	0x13c
 739 01e7 63020000 		.4byte	0x263
 740 01eb 28       		.byte	0x28
 741 01ec 09       		.uleb128 0x9
 742 01ed FF050000 		.4byte	.LASF40
 743 01f1 08       		.byte	0x8
 744 01f2 4001     		.2byte	0x140
ARM GAS  /var/folders/c6/c789hm653lg9vtl73krp73tm0000gn/T//ccYJu1mY.s 			page 29


 745 01f4 0A010000 		.4byte	0x10a
 746 01f8 30       		.byte	0x30
 747 01f9 09       		.uleb128 0x9
 748 01fa 80040000 		.4byte	.LASF41
 749 01fe 08       		.byte	0x8
 750 01ff 4601     		.2byte	0x146
 751 0201 15010000 		.4byte	0x115
 752 0205 34       		.byte	0x34
 753 0206 09       		.uleb128 0x9
 754 0207 12040000 		.4byte	.LASF42
 755 020b 08       		.byte	0x8
 756 020c 4D01     		.2byte	0x14d
 757 020e E2050000 		.4byte	0x5e2
 758 0212 38       		.byte	0x38
 759 0213 09       		.uleb128 0x9
 760 0214 40050000 		.4byte	.LASF43
 761 0218 08       		.byte	0x8
 762 0219 5101     		.2byte	0x151
 763 021b FF000000 		.4byte	0xff
 764 021f 3C       		.byte	0x3c
 765 0220 09       		.uleb128 0x9
 766 0221 C6010000 		.4byte	.LASF44
 767 0225 08       		.byte	0x8
 768 0226 5801     		.2byte	0x158
 769 0228 16030000 		.4byte	0x316
 770 022c 40       		.byte	0x40
 771 022d 00       		.byte	0
 772 022e 03       		.uleb128 0x3
 773 022f 48030000 		.4byte	.LASF45
 774 0233 07       		.byte	0x7
 775 0234 44       		.byte	0x44
 776 0235 39020000 		.4byte	0x239
 777 0239 0A       		.uleb128 0xa
 778 023a 04       		.byte	0x4
 779 023b 36010000 		.4byte	0x136
 780 023f 03       		.uleb128 0x3
 781 0240 E4050000 		.4byte	.LASF46
 782 0244 07       		.byte	0x7
 783 0245 49       		.byte	0x49
 784 0246 4A020000 		.4byte	0x24a
 785 024a 06       		.uleb128 0x6
 786 024b AC040000 		.4byte	.LASF48
 787 024f 04       		.byte	0x4
 788 0250 08       		.byte	0x8
 789 0251 B0       		.byte	0xb0
 790 0252 63020000 		.4byte	0x263
 791 0256 07       		.uleb128 0x7
 792 0257 49040000 		.4byte	.LASF28
 793 025b 08       		.byte	0x8
 794 025c B1       		.byte	0xb1
 795 025d 39020000 		.4byte	0x239
 796 0261 00       		.byte	0
 797 0262 00       		.byte	0
 798 0263 03       		.uleb128 0x3
 799 0264 A3050000 		.4byte	.LASF49
 800 0268 07       		.byte	0x7
 801 0269 50       		.byte	0x50
ARM GAS  /var/folders/c6/c789hm653lg9vtl73krp73tm0000gn/T//ccYJu1mY.s 			page 30


 802 026a 6E020000 		.4byte	0x26e
 803 026e 06       		.uleb128 0x6
 804 026f 94010000 		.4byte	.LASF50
 805 0273 08       		.byte	0x8
 806 0274 08       		.byte	0x8
 807 0275 B7       		.byte	0xb7
 808 0276 93020000 		.4byte	0x293
 809 027a 07       		.uleb128 0x7
 810 027b 49040000 		.4byte	.LASF28
 811 027f 08       		.byte	0x8
 812 0280 B8       		.byte	0xb8
 813 0281 39020000 		.4byte	0x239
 814 0285 00       		.byte	0
 815 0286 07       		.uleb128 0x7
 816 0287 D2030000 		.4byte	.LASF29
 817 028b 08       		.byte	0x8
 818 028c B9       		.byte	0xb9
 819 028d 39020000 		.4byte	0x239
 820 0291 04       		.byte	0x4
 821 0292 00       		.byte	0
 822 0293 03       		.uleb128 0x3
 823 0294 E7000000 		.4byte	.LASF51
 824 0298 07       		.byte	0x7
 825 0299 57       		.byte	0x57
 826 029a 9E020000 		.4byte	0x29e
 827 029e 0B       		.uleb128 0xb
 828 029f 06030000 		.4byte	.LASF52
 829 02a3 1C       		.byte	0x1c
 830 02a4 08       		.byte	0x8
 831 02a5 9001     		.2byte	0x190
 832 02a7 FA020000 		.4byte	0x2fa
 833 02ab 09       		.uleb128 0x9
 834 02ac 9B040000 		.4byte	.LASF53
 835 02b0 08       		.byte	0x8
 836 02b1 9101     		.2byte	0x191
 837 02b3 63020000 		.4byte	0x263
 838 02b7 00       		.byte	0
 839 02b8 09       		.uleb128 0x9
 840 02b9 3B040000 		.4byte	.LASF54
 841 02bd 08       		.byte	0x8
 842 02be 9201     		.2byte	0x192
 843 02c0 FF000000 		.4byte	0xff
 844 02c4 08       		.byte	0x8
 845 02c5 09       		.uleb128 0x9
 846 02c6 86030000 		.4byte	.LASF55
 847 02ca 08       		.byte	0x8
 848 02cb 9401     		.2byte	0x194
 849 02cd 69040000 		.4byte	0x469
 850 02d1 0C       		.byte	0xc
 851 02d2 09       		.uleb128 0x9
 852 02d3 58020000 		.4byte	.LASF56
 853 02d7 08       		.byte	0x8
 854 02d8 9701     		.2byte	0x197
 855 02da 39020000 		.4byte	0x239
 856 02de 10       		.byte	0x10
 857 02df 09       		.uleb128 0x9
 858 02e0 A7030000 		.4byte	.LASF57
ARM GAS  /var/folders/c6/c789hm653lg9vtl73krp73tm0000gn/T//ccYJu1mY.s 			page 31


 859 02e4 08       		.byte	0x8
 860 02e5 9801     		.2byte	0x198
 861 02e7 39020000 		.4byte	0x239
 862 02eb 14       		.byte	0x14
 863 02ec 09       		.uleb128 0x9
 864 02ed 9D030000 		.4byte	.LASF58
 865 02f1 08       		.byte	0x8
 866 02f2 9B01     		.2byte	0x19b
 867 02f4 39020000 		.4byte	0x239
 868 02f8 18       		.byte	0x18
 869 02f9 00       		.byte	0
 870 02fa 03       		.uleb128 0x3
 871 02fb 4B050000 		.4byte	.LASF59
 872 02ff 07       		.byte	0x7
 873 0300 5C       		.byte	0x5c
 874 0301 05030000 		.4byte	0x305
 875 0305 0A       		.uleb128 0xa
 876 0306 04       		.byte	0x4
 877 0307 0B030000 		.4byte	0x30b
 878 030b 0C       		.uleb128 0xc
 879 030c 16030000 		.4byte	0x316
 880 0310 0D       		.uleb128 0xd
 881 0311 16030000 		.4byte	0x316
 882 0315 00       		.byte	0
 883 0316 0E       		.uleb128 0xe
 884 0317 04       		.byte	0x4
 885 0318 03       		.uleb128 0x3
 886 0319 C2030000 		.4byte	.LASF60
 887 031d 07       		.byte	0x7
 888 031e 61       		.byte	0x61
 889 031f 23030000 		.4byte	0x323
 890 0323 0B       		.uleb128 0xb
 891 0324 62040000 		.4byte	.LASF61
 892 0328 14       		.byte	0x14
 893 0329 08       		.byte	0x8
 894 032a 6B01     		.2byte	0x16b
 895 032c 72030000 		.4byte	0x372
 896 0330 09       		.uleb128 0x9
 897 0331 A1020000 		.4byte	.LASF62
 898 0335 08       		.byte	0x8
 899 0336 6C01     		.2byte	0x16c
 900 0338 FA050000 		.4byte	0x5fa
 901 033c 00       		.byte	0
 902 033d 09       		.uleb128 0x9
 903 033e 69020000 		.4byte	.LASF63
 904 0342 08       		.byte	0x8
 905 0343 6D01     		.2byte	0x16d
 906 0345 FA050000 		.4byte	0x5fa
 907 0349 04       		.byte	0x4
 908 034a 09       		.uleb128 0x9
 909 034b A3040000 		.4byte	.LASF64
 910 034f 08       		.byte	0x8
 911 0350 6E01     		.2byte	0x16e
 912 0352 2B010000 		.4byte	0x12b
 913 0356 08       		.byte	0x8
 914 0357 09       		.uleb128 0x9
 915 0358 13060000 		.4byte	.LASF65
ARM GAS  /var/folders/c6/c789hm653lg9vtl73krp73tm0000gn/T//ccYJu1mY.s 			page 32


 916 035c 08       		.byte	0x8
 917 035d 6F01     		.2byte	0x16f
 918 035f FA020000 		.4byte	0x2fa
 919 0363 0C       		.byte	0xc
 920 0364 09       		.uleb128 0x9
 921 0365 8E050000 		.4byte	.LASF66
 922 0369 08       		.byte	0x8
 923 036a 7101     		.2byte	0x171
 924 036c 16030000 		.4byte	0x316
 925 0370 10       		.byte	0x10
 926 0371 00       		.byte	0
 927 0372 03       		.uleb128 0x3
 928 0373 71010000 		.4byte	.LASF67
 929 0377 07       		.byte	0x7
 930 0378 66       		.byte	0x66
 931 0379 7D030000 		.4byte	0x37d
 932 037d 0B       		.uleb128 0xb
 933 037e 5B030000 		.4byte	.LASF68
 934 0382 10       		.byte	0x10
 935 0383 08       		.byte	0x8
 936 0384 7B01     		.2byte	0x17b
 937 0386 BF030000 		.4byte	0x3bf
 938 038a 09       		.uleb128 0x9
 939 038b A1020000 		.4byte	.LASF62
 940 038f 08       		.byte	0x8
 941 0390 7C01     		.2byte	0x17c
 942 0392 FA050000 		.4byte	0x5fa
 943 0396 00       		.byte	0
 944 0397 09       		.uleb128 0x9
 945 0398 69020000 		.4byte	.LASF63
 946 039c 08       		.byte	0x8
 947 039d 7E01     		.2byte	0x17e
 948 039f FA050000 		.4byte	0x5fa
 949 03a3 04       		.byte	0x4
 950 03a4 09       		.uleb128 0x9
 951 03a5 A3040000 		.4byte	.LASF64
 952 03a9 08       		.byte	0x8
 953 03aa 8001     		.2byte	0x180
 954 03ac 2B010000 		.4byte	0x12b
 955 03b0 08       		.byte	0x8
 956 03b1 09       		.uleb128 0x9
 957 03b2 72030000 		.4byte	.LASF69
 958 03b6 08       		.byte	0x8
 959 03b7 8801     		.2byte	0x188
 960 03b9 2B010000 		.4byte	0x12b
 961 03bd 0C       		.byte	0xc
 962 03be 00       		.byte	0
 963 03bf 03       		.uleb128 0x3
 964 03c0 2D010000 		.4byte	.LASF70
 965 03c4 07       		.byte	0x7
 966 03c5 6B       		.byte	0x6b
 967 03c6 CA030000 		.4byte	0x3ca
 968 03ca 0B       		.uleb128 0xb
 969 03cb E1030000 		.4byte	.LASF71
 970 03cf 04       		.byte	0x4
 971 03d0 08       		.byte	0x8
 972 03d1 A201     		.2byte	0x1a2
ARM GAS  /var/folders/c6/c789hm653lg9vtl73krp73tm0000gn/T//ccYJu1mY.s 			page 33


 973 03d3 E5030000 		.4byte	0x3e5
 974 03d7 09       		.uleb128 0x9
 975 03d8 6D050000 		.4byte	.LASF72
 976 03dc 08       		.byte	0x8
 977 03dd AA01     		.2byte	0x1aa
 978 03df 00060000 		.4byte	0x600
 979 03e3 00       		.byte	0
 980 03e4 00       		.byte	0
 981 03e5 03       		.uleb128 0x3
 982 03e6 F2020000 		.4byte	.LASF73
 983 03ea 07       		.byte	0x7
 984 03eb 70       		.byte	0x70
 985 03ec F0030000 		.4byte	0x3f0
 986 03f0 0F       		.uleb128 0xf
 987 03f1 1F020000 		.4byte	.LASF74
 988 03f5 5001     		.2byte	0x150
 989 03f7 08       		.byte	0x8
 990 03f8 C201     		.2byte	0x1c2
 991 03fa 4C040000 		.4byte	0x44c
 992 03fe 09       		.uleb128 0x9
 993 03ff C3050000 		.4byte	.LASF75
 994 0403 08       		.byte	0x8
 995 0404 C601     		.2byte	0x1c6
 996 0406 93020000 		.4byte	0x293
 997 040a 00       		.byte	0
 998 040b 09       		.uleb128 0x9
 999 040c F5010000 		.4byte	.LASF76
 1000 0410 08       		.byte	0x8
 1001 0411 CA01     		.2byte	0x1ca
 1002 0413 72030000 		.4byte	0x372
 1003 0417 1C       		.byte	0x1c
 1004 0418 08       		.uleb128 0x8
 1005 0419 64626700 		.ascii	"dbg\000"
 1006 041d 08       		.byte	0x8
 1007 041e CE01     		.2byte	0x1ce
 1008 0420 BF030000 		.4byte	0x3bf
 1009 0424 2C       		.byte	0x2c
 1010 0425 09       		.uleb128 0x9
 1011 0426 66010000 		.4byte	.LASF77
 1012 042a 08       		.byte	0x8
 1013 042b D201     		.2byte	0x1d2
 1014 042d 36010000 		.4byte	0x136
 1015 0431 30       		.byte	0x30
 1016 0432 08       		.uleb128 0x8
 1017 0433 746D00   		.ascii	"tm\000"
 1018 0436 08       		.byte	0x8
 1019 0437 D701     		.2byte	0x1d7
 1020 0439 18050000 		.4byte	0x518
 1021 043d 74       		.byte	0x74
 1022 043e 09       		.uleb128 0x9
 1023 043f 7F020000 		.4byte	.LASF78
 1024 0443 08       		.byte	0x8
 1025 0444 E301     		.2byte	0x1e3
 1026 0446 05060000 		.4byte	0x605
 1027 044a 78       		.byte	0x78
 1028 044b 00       		.byte	0
 1029 044c 04       		.uleb128 0x4
ARM GAS  /var/folders/c6/c789hm653lg9vtl73krp73tm0000gn/T//ccYJu1mY.s 			page 34


 1030 044d 04       		.byte	0x4
 1031 044e 07       		.byte	0x7
 1032 044f 3F030000 		.4byte	.LASF79
 1033 0453 03       		.uleb128 0x3
 1034 0454 60020000 		.4byte	.LASF80
 1035 0458 09       		.byte	0x9
 1036 0459 65       		.byte	0x65
 1037 045a 16030000 		.4byte	0x316
 1038 045e 03       		.uleb128 0x3
 1039 045f 2A030000 		.4byte	.LASF81
 1040 0463 09       		.byte	0x9
 1041 0464 6D       		.byte	0x6d
 1042 0465 C3000000 		.4byte	0xc3
 1043 0469 06       		.uleb128 0x6
 1044 046a 7E050000 		.4byte	.LASF82
 1045 046e 04       		.byte	0x4
 1046 046f 09       		.byte	0x9
 1047 0470 89       		.byte	0x89
 1048 0471 82040000 		.4byte	0x482
 1049 0475 10       		.uleb128 0x10
 1050 0476 72313300 		.ascii	"r13\000"
 1051 047a 09       		.byte	0x9
 1052 047b 8A       		.byte	0x8a
 1053 047c FD040000 		.4byte	0x4fd
 1054 0480 00       		.byte	0
 1055 0481 00       		.byte	0
 1056 0482 06       		.uleb128 0x6
 1057 0483 21010000 		.4byte	.LASF83
 1058 0487 24       		.byte	0x24
 1059 0488 0A       		.byte	0xa
 1060 0489 F4       		.byte	0xf4
 1061 048a FD040000 		.4byte	0x4fd
 1062 048e 08       		.uleb128 0x8
 1063 048f 723400   		.ascii	"r4\000"
 1064 0492 0A       		.byte	0xa
 1065 0493 0701     		.2byte	0x107
 1066 0495 53040000 		.4byte	0x453
 1067 0499 00       		.byte	0
 1068 049a 08       		.uleb128 0x8
 1069 049b 723500   		.ascii	"r5\000"
 1070 049e 0A       		.byte	0xa
 1071 049f 0801     		.2byte	0x108
 1072 04a1 53040000 		.4byte	0x453
 1073 04a5 04       		.byte	0x4
 1074 04a6 08       		.uleb128 0x8
 1075 04a7 723600   		.ascii	"r6\000"
 1076 04aa 0A       		.byte	0xa
 1077 04ab 0901     		.2byte	0x109
 1078 04ad 53040000 		.4byte	0x453
 1079 04b1 08       		.byte	0x8
 1080 04b2 08       		.uleb128 0x8
 1081 04b3 723700   		.ascii	"r7\000"
 1082 04b6 0A       		.byte	0xa
 1083 04b7 0A01     		.2byte	0x10a
 1084 04b9 53040000 		.4byte	0x453
 1085 04bd 0C       		.byte	0xc
 1086 04be 08       		.uleb128 0x8
ARM GAS  /var/folders/c6/c789hm653lg9vtl73krp73tm0000gn/T//ccYJu1mY.s 			page 35


 1087 04bf 723800   		.ascii	"r8\000"
 1088 04c2 0A       		.byte	0xa
 1089 04c3 0B01     		.2byte	0x10b
 1090 04c5 53040000 		.4byte	0x453
 1091 04c9 10       		.byte	0x10
 1092 04ca 08       		.uleb128 0x8
 1093 04cb 723900   		.ascii	"r9\000"
 1094 04ce 0A       		.byte	0xa
 1095 04cf 0C01     		.2byte	0x10c
 1096 04d1 53040000 		.4byte	0x453
 1097 04d5 14       		.byte	0x14
 1098 04d6 08       		.uleb128 0x8
 1099 04d7 72313000 		.ascii	"r10\000"
 1100 04db 0A       		.byte	0xa
 1101 04dc 0D01     		.2byte	0x10d
 1102 04de 53040000 		.4byte	0x453
 1103 04e2 18       		.byte	0x18
 1104 04e3 08       		.uleb128 0x8
 1105 04e4 72313100 		.ascii	"r11\000"
 1106 04e8 0A       		.byte	0xa
 1107 04e9 0E01     		.2byte	0x10e
 1108 04eb 53040000 		.4byte	0x453
 1109 04ef 1C       		.byte	0x1c
 1110 04f0 08       		.uleb128 0x8
 1111 04f1 6C7200   		.ascii	"lr\000"
 1112 04f4 0A       		.byte	0xa
 1113 04f5 0F01     		.2byte	0x10f
 1114 04f7 53040000 		.4byte	0x453
 1115 04fb 20       		.byte	0x20
 1116 04fc 00       		.byte	0
 1117 04fd 0A       		.uleb128 0xa
 1118 04fe 04       		.byte	0x4
 1119 04ff 82040000 		.4byte	0x482
 1120 0503 11       		.uleb128 0x11
 1121 0504 04       		.byte	0x4
 1122 0505 0B       		.byte	0xb
 1123 0506 38       		.byte	0x38
 1124 0507 18050000 		.4byte	0x518
 1125 050b 07       		.uleb128 0x7
 1126 050c 77050000 		.4byte	.LASF84
 1127 0510 0B       		.byte	0xb
 1128 0511 3C       		.byte	0x3c
 1129 0512 D3000000 		.4byte	0xd3
 1130 0516 00       		.byte	0
 1131 0517 00       		.byte	0
 1132 0518 03       		.uleb128 0x3
 1133 0519 8C030000 		.4byte	.LASF85
 1134 051d 0B       		.byte	0xb
 1135 051e 3D       		.byte	0x3d
 1136 051f 03050000 		.4byte	0x503
 1137 0523 12       		.uleb128 0x12
 1138 0524 04       		.byte	0x4
 1139 0525 08       		.byte	0x8
 1140 0526 FA       		.byte	0xfa
 1141 0527 80050000 		.4byte	0x580
 1142 052b 13       		.uleb128 0x13
 1143 052c FB000000 		.4byte	.LASF86
ARM GAS  /var/folders/c6/c789hm653lg9vtl73krp73tm0000gn/T//ccYJu1mY.s 			page 36


 1144 0530 08       		.byte	0x8
 1145 0531 0101     		.2byte	0x101
 1146 0533 0A010000 		.4byte	0x10a
 1147 0537 13       		.uleb128 0x13
 1148 0538 5D010000 		.4byte	.LASF87
 1149 053c 08       		.byte	0x8
 1150 053d 0801     		.2byte	0x108
 1151 053f 0A010000 		.4byte	0x10a
 1152 0543 13       		.uleb128 0x13
 1153 0544 D1050000 		.4byte	.LASF88
 1154 0548 08       		.byte	0x8
 1155 0549 0F01     		.2byte	0x10f
 1156 054b 16030000 		.4byte	0x316
 1157 054f 13       		.uleb128 0x13
 1158 0550 19020000 		.4byte	.LASF89
 1159 0554 08       		.byte	0x8
 1160 0555 1601     		.2byte	0x116
 1161 0557 80050000 		.4byte	0x580
 1162 055b 13       		.uleb128 0x13
 1163 055c B7020000 		.4byte	.LASF90
 1164 0560 08       		.byte	0x8
 1165 0561 1E01     		.2byte	0x11e
 1166 0563 AB050000 		.4byte	0x5ab
 1167 0567 13       		.uleb128 0x13
 1168 0568 94040000 		.4byte	.LASF91
 1169 056c 08       		.byte	0x8
 1170 056d 2701     		.2byte	0x127
 1171 056f E2050000 		.4byte	0x5e2
 1172 0573 13       		.uleb128 0x13
 1173 0574 42040000 		.4byte	.LASF92
 1174 0578 08       		.byte	0x8
 1175 0579 2F01     		.2byte	0x12f
 1176 057b 15010000 		.4byte	0x115
 1177 057f 00       		.byte	0
 1178 0580 0A       		.uleb128 0xa
 1179 0581 04       		.byte	0x4
 1180 0582 2E020000 		.4byte	0x22e
 1181 0586 06       		.uleb128 0x6
 1182 0587 73040000 		.4byte	.LASF93
 1183 058b 0C       		.byte	0xc
 1184 058c 0C       		.byte	0xc
 1185 058d 34       		.byte	0x34
 1186 058e AB050000 		.4byte	0x5ab
 1187 0592 07       		.uleb128 0x7
 1188 0593 43020000 		.4byte	.LASF94
 1189 0597 0C       		.byte	0xc
 1190 0598 35       		.byte	0x35
 1191 0599 63020000 		.4byte	0x263
 1192 059d 00       		.byte	0
 1193 059e 07       		.uleb128 0x7
 1194 059f C9020000 		.4byte	.LASF95
 1195 05a3 0C       		.byte	0xc
 1196 05a4 37       		.byte	0x37
 1197 05a5 20010000 		.4byte	0x120
 1198 05a9 08       		.byte	0x8
 1199 05aa 00       		.byte	0
 1200 05ab 0A       		.uleb128 0xa
ARM GAS  /var/folders/c6/c789hm653lg9vtl73krp73tm0000gn/T//ccYJu1mY.s 			page 37


 1201 05ac 04       		.byte	0x4
 1202 05ad 86050000 		.4byte	0x586
 1203 05b1 06       		.uleb128 0x6
 1204 05b2 B3050000 		.4byte	.LASF96
 1205 05b6 10       		.byte	0x10
 1206 05b7 0D       		.byte	0xd
 1207 05b8 39       		.byte	0x39
 1208 05b9 E2050000 		.4byte	0x5e2
 1209 05bd 07       		.uleb128 0x7
 1210 05be CE010000 		.4byte	.LASF97
 1211 05c2 0D       		.byte	0xd
 1212 05c3 3A       		.byte	0x3a
 1213 05c4 63020000 		.4byte	0x263
 1214 05c8 00       		.byte	0
 1215 05c9 07       		.uleb128 0x7
 1216 05ca 05060000 		.4byte	.LASF98
 1217 05ce 0D       		.byte	0xd
 1218 05cf 3C       		.byte	0x3c
 1219 05d0 39020000 		.4byte	0x239
 1220 05d4 08       		.byte	0x8
 1221 05d5 07       		.uleb128 0x7
 1222 05d6 2F050000 		.4byte	.LASF99
 1223 05da 0D       		.byte	0xd
 1224 05db 3E       		.byte	0x3e
 1225 05dc 20060000 		.4byte	0x620
 1226 05e0 0C       		.byte	0xc
 1227 05e1 00       		.byte	0
 1228 05e2 0A       		.uleb128 0xa
 1229 05e3 04       		.byte	0x4
 1230 05e4 B1050000 		.4byte	0x5b1
 1231 05e8 0A       		.uleb128 0xa
 1232 05e9 04       		.byte	0x4
 1233 05ea EE050000 		.4byte	0x5ee
 1234 05ee 14       		.uleb128 0x14
 1235 05ef F3050000 		.4byte	0x5f3
 1236 05f3 04       		.uleb128 0x4
 1237 05f4 01       		.byte	0x1
 1238 05f5 08       		.byte	0x8
 1239 05f6 19050000 		.4byte	.LASF100
 1240 05fa 0A       		.uleb128 0xa
 1241 05fb 04       		.byte	0x4
 1242 05fc 18030000 		.4byte	0x318
 1243 0600 05       		.uleb128 0x5
 1244 0601 E8050000 		.4byte	0x5e8
 1245 0605 15       		.uleb128 0x15
 1246 0606 5E040000 		.4byte	0x45e
 1247 060a 15060000 		.4byte	0x615
 1248 060e 16       		.uleb128 0x16
 1249 060f 4C040000 		.4byte	0x44c
 1250 0613 1A       		.byte	0x1a
 1251 0614 00       		.byte	0
 1252 0615 03       		.uleb128 0x3
 1253 0616 71020000 		.4byte	.LASF101
 1254 061a 0D       		.byte	0xd
 1255 061b 34       		.byte	0x34
 1256 061c B1050000 		.4byte	0x5b1
 1257 0620 0A       		.uleb128 0xa
ARM GAS  /var/folders/c6/c789hm653lg9vtl73krp73tm0000gn/T//ccYJu1mY.s 			page 38


 1258 0621 04       		.byte	0x4
 1259 0622 15060000 		.4byte	0x615
 1260 0626 0A       		.uleb128 0xa
 1261 0627 04       		.byte	0x4
 1262 0628 A2000000 		.4byte	0xa2
 1263 062c 17       		.uleb128 0x17
 1264 062d 5F050000 		.4byte	.LASF107
 1265 0631 02       		.byte	0x2
 1266 0632 2002     		.2byte	0x220
 1267 0634 03       		.byte	0x3
 1268 0635 46060000 		.4byte	0x646
 1269 0639 18       		.uleb128 0x18
 1270 063a 79020000 		.4byte	.LASF105
 1271 063e 02       		.byte	0x2
 1272 063f 2002     		.2byte	0x220
 1273 0641 B8000000 		.4byte	0xb8
 1274 0645 00       		.byte	0
 1275 0646 19       		.uleb128 0x19
 1276 0647 3C010000 		.4byte	.LASF102
 1277 064b 0A       		.byte	0xa
 1278 064c BC01     		.2byte	0x1bc
 1279 064e 03       		.byte	0x3
 1280 064f 19       		.uleb128 0x19
 1281 0650 FC010000 		.4byte	.LASF103
 1282 0654 0A       		.byte	0xa
 1283 0655 CA01     		.2byte	0x1ca
 1284 0657 03       		.byte	0x3
 1285 0658 19       		.uleb128 0x19
 1286 0659 58040000 		.4byte	.LASF104
 1287 065d 0E       		.byte	0xe
 1288 065e 5A01     		.2byte	0x15a
 1289 0660 03       		.byte	0x3
 1290 0661 1A       		.uleb128 0x1a
 1291 0662 4B020000 		.4byte	.LASF118
 1292 0666 01       		.byte	0x1
 1293 0667 83       		.byte	0x83
 1294 0668 16030000 		.4byte	0x316
 1295 066c 01       		.byte	0x1
 1296 066d 86060000 		.4byte	0x686
 1297 0671 1B       		.uleb128 0x1b
 1298 0672 DF050000 		.4byte	.LASF106
 1299 0676 01       		.byte	0x1
 1300 0677 83       		.byte	0x83
 1301 0678 2C000000 		.4byte	0x2c
 1302 067c 1C       		.uleb128 0x1c
 1303 067d 7000     		.ascii	"p\000"
 1304 067f 01       		.byte	0x1
 1305 0680 84       		.byte	0x84
 1306 0681 16030000 		.4byte	0x316
 1307 0685 00       		.byte	0
 1308 0686 17       		.uleb128 0x17
 1309 0687 F3050000 		.4byte	.LASF108
 1310 068b 0E       		.byte	0xe
 1311 068c 6601     		.2byte	0x166
 1312 068e 03       		.byte	0x3
 1313 068f A1060000 		.4byte	0x6a1
 1314 0693 1D       		.uleb128 0x1d
ARM GAS  /var/folders/c6/c789hm653lg9vtl73krp73tm0000gn/T//ccYJu1mY.s 			page 39


 1315 0694 A9020000 		.4byte	.LASF109
 1316 0698 B1060000 		.4byte	0x6b1
 1317 069c F3050000 		.4byte	.LASF108
 1318 06a0 00       		.byte	0
 1319 06a1 15       		.uleb128 0x15
 1320 06a2 F3050000 		.4byte	0x5f3
 1321 06a6 B1060000 		.4byte	0x6b1
 1322 06aa 16       		.uleb128 0x16
 1323 06ab 4C040000 		.4byte	0x44c
 1324 06af 0B       		.byte	0xb
 1325 06b0 00       		.byte	0
 1326 06b1 14       		.uleb128 0x14
 1327 06b2 A1060000 		.4byte	0x6a1
 1328 06b6 1E       		.uleb128 0x1e
 1329 06b7 07040000 		.4byte	.LASF119
 1330 06bb 01       		.byte	0x1
 1331 06bc 4E       		.byte	0x4e
 1332 06bd 00000000 		.4byte	.LFB229
 1333 06c1 28000000 		.4byte	.LFE229-.LFB229
 1334 06c5 01       		.uleb128 0x1
 1335 06c6 9C       		.byte	0x9c
 1336 06c7 E2060000 		.4byte	0x6e2
 1337 06cb 1F       		.uleb128 0x1f
 1338 06cc 95050000 		.4byte	.LASF110
 1339 06d0 01       		.byte	0x1
 1340 06d1 50       		.byte	0x50
 1341 06d2 E2060000 		.4byte	0x6e2
 1342 06d6 1F       		.uleb128 0x1f
 1343 06d7 2E040000 		.4byte	.LASF111
 1344 06db 01       		.byte	0x1
 1345 06dc 51       		.byte	0x51
 1346 06dd E2060000 		.4byte	0x6e2
 1347 06e1 00       		.byte	0
 1348 06e2 15       		.uleb128 0x15
 1349 06e3 A2000000 		.4byte	0xa2
 1350 06e7 ED060000 		.4byte	0x6ed
 1351 06eb 20       		.uleb128 0x20
 1352 06ec 00       		.byte	0
 1353 06ed 21       		.uleb128 0x21
 1354 06ee 0B010000 		.4byte	.LASF120
 1355 06f2 01       		.byte	0x1
 1356 06f3 6D       		.byte	0x6d
 1357 06f4 16030000 		.4byte	0x316
 1358 06f8 00000000 		.4byte	.LFB230
 1359 06fc 34000000 		.4byte	.LFE230-.LFB230
 1360 0700 01       		.uleb128 0x1
 1361 0701 9C       		.byte	0x9c
 1362 0702 D2070000 		.4byte	0x7d2
 1363 0706 22       		.uleb128 0x22
 1364 0707 DF050000 		.4byte	.LASF106
 1365 070b 01       		.byte	0x1
 1366 070c 6D       		.byte	0x6d
 1367 070d 2C000000 		.4byte	0x2c
 1368 0711 00000000 		.4byte	.LLST0
 1369 0715 1C       		.uleb128 0x1c
 1370 0716 7000     		.ascii	"p\000"
 1371 0718 01       		.byte	0x1
ARM GAS  /var/folders/c6/c789hm653lg9vtl73krp73tm0000gn/T//ccYJu1mY.s 			page 40


 1372 0719 6E       		.byte	0x6e
 1373 071a 16030000 		.4byte	0x316
 1374 071e 23       		.uleb128 0x23
 1375 071f 58060000 		.4byte	0x658
 1376 0723 00000000 		.4byte	.LBB26
 1377 0727 06000000 		.4byte	.LBE26-.LBB26
 1378 072b 01       		.byte	0x1
 1379 072c 70       		.byte	0x70
 1380 072d 5A070000 		.4byte	0x75a
 1381 0731 24       		.uleb128 0x24
 1382 0732 46060000 		.4byte	0x646
 1383 0736 00000000 		.4byte	.LBB27
 1384 073a 06000000 		.4byte	.LBE27-.LBB27
 1385 073e 0E       		.byte	0xe
 1386 073f 5C01     		.2byte	0x15c
 1387 0741 24       		.uleb128 0x24
 1388 0742 2C060000 		.4byte	0x62c
 1389 0746 00000000 		.4byte	.LBB28
 1390 074a 06000000 		.4byte	.LBE28-.LBB28
 1391 074e 0A       		.byte	0xa
 1392 074f BF01     		.2byte	0x1bf
 1393 0751 25       		.uleb128 0x25
 1394 0752 39060000 		.4byte	0x639
 1395 0756 20       		.byte	0x20
 1396 0757 00       		.byte	0
 1397 0758 00       		.byte	0
 1398 0759 00       		.byte	0
 1399 075a 23       		.uleb128 0x23
 1400 075b 61060000 		.4byte	0x661
 1401 075f 06000000 		.4byte	.LBB30
 1402 0763 1C000000 		.4byte	.LBE30-.LBB30
 1403 0767 01       		.byte	0x1
 1404 0768 71       		.byte	0x71
 1405 0769 8A070000 		.4byte	0x78a
 1406 076d 26       		.uleb128 0x26
 1407 076e 71060000 		.4byte	0x671
 1408 0772 2E000000 		.4byte	.LLST1
 1409 0776 27       		.uleb128 0x27
 1410 0777 06000000 		.4byte	.LBB31
 1411 077b 1C000000 		.4byte	.LBE31-.LBB31
 1412 077f 28       		.uleb128 0x28
 1413 0780 7C060000 		.4byte	0x67c
 1414 0784 6C000000 		.4byte	.LLST2
 1415 0788 00       		.byte	0
 1416 0789 00       		.byte	0
 1417 078a 29       		.uleb128 0x29
 1418 078b 86060000 		.4byte	0x686
 1419 078f 22000000 		.4byte	.LBB32
 1420 0793 06000000 		.4byte	.LBE32-.LBB32
 1421 0797 01       		.byte	0x1
 1422 0798 72       		.byte	0x72
 1423 0799 27       		.uleb128 0x27
 1424 079a 22000000 		.4byte	.LBB33
 1425 079e 06000000 		.4byte	.LBE33-.LBB33
 1426 07a2 2A       		.uleb128 0x2a
 1427 07a3 93060000 		.4byte	0x693
 1428 07a7 24       		.uleb128 0x24
ARM GAS  /var/folders/c6/c789hm653lg9vtl73krp73tm0000gn/T//ccYJu1mY.s 			page 41


 1429 07a8 4F060000 		.4byte	0x64f
 1430 07ac 22000000 		.4byte	.LBB34
 1431 07b0 06000000 		.4byte	.LBE34-.LBB34
 1432 07b4 0E       		.byte	0xe
 1433 07b5 7301     		.2byte	0x173
 1434 07b7 24       		.uleb128 0x24
 1435 07b8 2C060000 		.4byte	0x62c
 1436 07bc 22000000 		.4byte	.LBB35
 1437 07c0 06000000 		.4byte	.LBE35-.LBB35
 1438 07c4 0A       		.byte	0xa
 1439 07c5 CD01     		.2byte	0x1cd
 1440 07c7 25       		.uleb128 0x25
 1441 07c8 39060000 		.4byte	0x639
 1442 07cc 00       		.byte	0
 1443 07cd 00       		.byte	0
 1444 07ce 00       		.byte	0
 1445 07cf 00       		.byte	0
 1446 07d0 00       		.byte	0
 1447 07d1 00       		.byte	0
 1448 07d2 2B       		.uleb128 0x2b
 1449 07d3 61060000 		.4byte	0x661
 1450 07d7 00000000 		.4byte	.LFB231
 1451 07db 28000000 		.4byte	.LFE231-.LFB231
 1452 07df 01       		.uleb128 0x1
 1453 07e0 9C       		.byte	0x9c
 1454 07e1 F6070000 		.4byte	0x7f6
 1455 07e5 26       		.uleb128 0x26
 1456 07e6 71060000 		.4byte	0x671
 1457 07ea 8E000000 		.4byte	.LLST3
 1458 07ee 2C       		.uleb128 0x2c
 1459 07ef 7C060000 		.4byte	0x67c
 1460 07f3 01       		.uleb128 0x1
 1461 07f4 53       		.byte	0x53
 1462 07f5 00       		.byte	0
 1463 07f6 2D       		.uleb128 0x2d
 1464 07f7 08020000 		.4byte	.LASF121
 1465 07fb 01       		.byte	0x1
 1466 07fc 9B       		.byte	0x9b
 1467 07fd 2C000000 		.4byte	0x2c
 1468 0801 00000000 		.4byte	.LFB232
 1469 0805 14000000 		.4byte	.LFE232-.LFB232
 1470 0809 01       		.uleb128 0x1
 1471 080a 9C       		.byte	0x9c
 1472 080b 2E       		.uleb128 0x2e
 1473 080c 27050000 		.4byte	.LASF112
 1474 0810 01       		.byte	0x1
 1475 0811 3E       		.byte	0x3e
 1476 0812 26060000 		.4byte	0x626
 1477 0816 05       		.uleb128 0x5
 1478 0817 03       		.byte	0x3
 1479 0818 00000000 		.4byte	nextmem
 1480 081c 2E       		.uleb128 0x2e
 1481 081d E0000000 		.4byte	.LASF113
 1482 0821 01       		.byte	0x1
 1483 0822 3F       		.byte	0x3f
 1484 0823 26060000 		.4byte	0x626
 1485 0827 05       		.uleb128 0x5
ARM GAS  /var/folders/c6/c789hm653lg9vtl73krp73tm0000gn/T//ccYJu1mY.s 			page 42


 1486 0828 03       		.byte	0x3
 1487 0829 00000000 		.4byte	endmem
 1488 082d 2F       		.uleb128 0x2f
 1489 082e 87010000 		.4byte	.LASF114
 1490 0832 0F       		.byte	0xf
 1491 0833 A706     		.2byte	0x6a7
 1492 0835 CE000000 		.4byte	0xce
 1493 0839 30       		.uleb128 0x30
 1494 083a 636800   		.ascii	"ch\000"
 1495 083d 08       		.byte	0x8
 1496 083e 0902     		.2byte	0x209
 1497 0840 E5030000 		.4byte	0x3e5
 1498 0844 1F       		.uleb128 0x1f
 1499 0845 95050000 		.4byte	.LASF110
 1500 0849 01       		.byte	0x1
 1501 084a 50       		.byte	0x50
 1502 084b E2060000 		.4byte	0x6e2
 1503 084f 1F       		.uleb128 0x1f
 1504 0850 2E040000 		.4byte	.LASF111
 1505 0854 01       		.byte	0x1
 1506 0855 51       		.byte	0x51
 1507 0856 E2060000 		.4byte	0x6e2
 1508 085a 00       		.byte	0
 1509              		.section	.debug_abbrev,"",%progbits
 1510              	.Ldebug_abbrev0:
 1511 0000 01       		.uleb128 0x1
 1512 0001 11       		.uleb128 0x11
 1513 0002 01       		.byte	0x1
 1514 0003 25       		.uleb128 0x25
 1515 0004 0E       		.uleb128 0xe
 1516 0005 13       		.uleb128 0x13
 1517 0006 0B       		.uleb128 0xb
 1518 0007 03       		.uleb128 0x3
 1519 0008 0E       		.uleb128 0xe
 1520 0009 1B       		.uleb128 0x1b
 1521 000a 0E       		.uleb128 0xe
 1522 000b 55       		.uleb128 0x55
 1523 000c 17       		.uleb128 0x17
 1524 000d 11       		.uleb128 0x11
 1525 000e 01       		.uleb128 0x1
 1526 000f 10       		.uleb128 0x10
 1527 0010 17       		.uleb128 0x17
 1528 0011 00       		.byte	0
 1529 0012 00       		.byte	0
 1530 0013 02       		.uleb128 0x2
 1531 0014 24       		.uleb128 0x24
 1532 0015 00       		.byte	0
 1533 0016 0B       		.uleb128 0xb
 1534 0017 0B       		.uleb128 0xb
 1535 0018 3E       		.uleb128 0x3e
 1536 0019 0B       		.uleb128 0xb
 1537 001a 03       		.uleb128 0x3
 1538 001b 08       		.uleb128 0x8
 1539 001c 00       		.byte	0
 1540 001d 00       		.byte	0
 1541 001e 03       		.uleb128 0x3
 1542 001f 16       		.uleb128 0x16
ARM GAS  /var/folders/c6/c789hm653lg9vtl73krp73tm0000gn/T//ccYJu1mY.s 			page 43


 1543 0020 00       		.byte	0
 1544 0021 03       		.uleb128 0x3
 1545 0022 0E       		.uleb128 0xe
 1546 0023 3A       		.uleb128 0x3a
 1547 0024 0B       		.uleb128 0xb
 1548 0025 3B       		.uleb128 0x3b
 1549 0026 0B       		.uleb128 0xb
 1550 0027 49       		.uleb128 0x49
 1551 0028 13       		.uleb128 0x13
 1552 0029 00       		.byte	0
 1553 002a 00       		.byte	0
 1554 002b 04       		.uleb128 0x4
 1555 002c 24       		.uleb128 0x24
 1556 002d 00       		.byte	0
 1557 002e 0B       		.uleb128 0xb
 1558 002f 0B       		.uleb128 0xb
 1559 0030 3E       		.uleb128 0x3e
 1560 0031 0B       		.uleb128 0xb
 1561 0032 03       		.uleb128 0x3
 1562 0033 0E       		.uleb128 0xe
 1563 0034 00       		.byte	0
 1564 0035 00       		.byte	0
 1565 0036 05       		.uleb128 0x5
 1566 0037 35       		.uleb128 0x35
 1567 0038 00       		.byte	0
 1568 0039 49       		.uleb128 0x49
 1569 003a 13       		.uleb128 0x13
 1570 003b 00       		.byte	0
 1571 003c 00       		.byte	0
 1572 003d 06       		.uleb128 0x6
 1573 003e 13       		.uleb128 0x13
 1574 003f 01       		.byte	0x1
 1575 0040 03       		.uleb128 0x3
 1576 0041 0E       		.uleb128 0xe
 1577 0042 0B       		.uleb128 0xb
 1578 0043 0B       		.uleb128 0xb
 1579 0044 3A       		.uleb128 0x3a
 1580 0045 0B       		.uleb128 0xb
 1581 0046 3B       		.uleb128 0x3b
 1582 0047 0B       		.uleb128 0xb
 1583 0048 01       		.uleb128 0x1
 1584 0049 13       		.uleb128 0x13
 1585 004a 00       		.byte	0
 1586 004b 00       		.byte	0
 1587 004c 07       		.uleb128 0x7
 1588 004d 0D       		.uleb128 0xd
 1589 004e 00       		.byte	0
 1590 004f 03       		.uleb128 0x3
 1591 0050 0E       		.uleb128 0xe
 1592 0051 3A       		.uleb128 0x3a
 1593 0052 0B       		.uleb128 0xb
 1594 0053 3B       		.uleb128 0x3b
 1595 0054 0B       		.uleb128 0xb
 1596 0055 49       		.uleb128 0x49
 1597 0056 13       		.uleb128 0x13
 1598 0057 38       		.uleb128 0x38
 1599 0058 0B       		.uleb128 0xb
ARM GAS  /var/folders/c6/c789hm653lg9vtl73krp73tm0000gn/T//ccYJu1mY.s 			page 44


 1600 0059 00       		.byte	0
 1601 005a 00       		.byte	0
 1602 005b 08       		.uleb128 0x8
 1603 005c 0D       		.uleb128 0xd
 1604 005d 00       		.byte	0
 1605 005e 03       		.uleb128 0x3
 1606 005f 08       		.uleb128 0x8
 1607 0060 3A       		.uleb128 0x3a
 1608 0061 0B       		.uleb128 0xb
 1609 0062 3B       		.uleb128 0x3b
 1610 0063 05       		.uleb128 0x5
 1611 0064 49       		.uleb128 0x49
 1612 0065 13       		.uleb128 0x13
 1613 0066 38       		.uleb128 0x38
 1614 0067 0B       		.uleb128 0xb
 1615 0068 00       		.byte	0
 1616 0069 00       		.byte	0
 1617 006a 09       		.uleb128 0x9
 1618 006b 0D       		.uleb128 0xd
 1619 006c 00       		.byte	0
 1620 006d 03       		.uleb128 0x3
 1621 006e 0E       		.uleb128 0xe
 1622 006f 3A       		.uleb128 0x3a
 1623 0070 0B       		.uleb128 0xb
 1624 0071 3B       		.uleb128 0x3b
 1625 0072 05       		.uleb128 0x5
 1626 0073 49       		.uleb128 0x49
 1627 0074 13       		.uleb128 0x13
 1628 0075 38       		.uleb128 0x38
 1629 0076 0B       		.uleb128 0xb
 1630 0077 00       		.byte	0
 1631 0078 00       		.byte	0
 1632 0079 0A       		.uleb128 0xa
 1633 007a 0F       		.uleb128 0xf
 1634 007b 00       		.byte	0
 1635 007c 0B       		.uleb128 0xb
 1636 007d 0B       		.uleb128 0xb
 1637 007e 49       		.uleb128 0x49
 1638 007f 13       		.uleb128 0x13
 1639 0080 00       		.byte	0
 1640 0081 00       		.byte	0
 1641 0082 0B       		.uleb128 0xb
 1642 0083 13       		.uleb128 0x13
 1643 0084 01       		.byte	0x1
 1644 0085 03       		.uleb128 0x3
 1645 0086 0E       		.uleb128 0xe
 1646 0087 0B       		.uleb128 0xb
 1647 0088 0B       		.uleb128 0xb
 1648 0089 3A       		.uleb128 0x3a
 1649 008a 0B       		.uleb128 0xb
 1650 008b 3B       		.uleb128 0x3b
 1651 008c 05       		.uleb128 0x5
 1652 008d 01       		.uleb128 0x1
 1653 008e 13       		.uleb128 0x13
 1654 008f 00       		.byte	0
 1655 0090 00       		.byte	0
 1656 0091 0C       		.uleb128 0xc
ARM GAS  /var/folders/c6/c789hm653lg9vtl73krp73tm0000gn/T//ccYJu1mY.s 			page 45


 1657 0092 15       		.uleb128 0x15
 1658 0093 01       		.byte	0x1
 1659 0094 27       		.uleb128 0x27
 1660 0095 19       		.uleb128 0x19
 1661 0096 01       		.uleb128 0x1
 1662 0097 13       		.uleb128 0x13
 1663 0098 00       		.byte	0
 1664 0099 00       		.byte	0
 1665 009a 0D       		.uleb128 0xd
 1666 009b 05       		.uleb128 0x5
 1667 009c 00       		.byte	0
 1668 009d 49       		.uleb128 0x49
 1669 009e 13       		.uleb128 0x13
 1670 009f 00       		.byte	0
 1671 00a0 00       		.byte	0
 1672 00a1 0E       		.uleb128 0xe
 1673 00a2 0F       		.uleb128 0xf
 1674 00a3 00       		.byte	0
 1675 00a4 0B       		.uleb128 0xb
 1676 00a5 0B       		.uleb128 0xb
 1677 00a6 00       		.byte	0
 1678 00a7 00       		.byte	0
 1679 00a8 0F       		.uleb128 0xf
 1680 00a9 13       		.uleb128 0x13
 1681 00aa 01       		.byte	0x1
 1682 00ab 03       		.uleb128 0x3
 1683 00ac 0E       		.uleb128 0xe
 1684 00ad 0B       		.uleb128 0xb
 1685 00ae 05       		.uleb128 0x5
 1686 00af 3A       		.uleb128 0x3a
 1687 00b0 0B       		.uleb128 0xb
 1688 00b1 3B       		.uleb128 0x3b
 1689 00b2 05       		.uleb128 0x5
 1690 00b3 01       		.uleb128 0x1
 1691 00b4 13       		.uleb128 0x13
 1692 00b5 00       		.byte	0
 1693 00b6 00       		.byte	0
 1694 00b7 10       		.uleb128 0x10
 1695 00b8 0D       		.uleb128 0xd
 1696 00b9 00       		.byte	0
 1697 00ba 03       		.uleb128 0x3
 1698 00bb 08       		.uleb128 0x8
 1699 00bc 3A       		.uleb128 0x3a
 1700 00bd 0B       		.uleb128 0xb
 1701 00be 3B       		.uleb128 0x3b
 1702 00bf 0B       		.uleb128 0xb
 1703 00c0 49       		.uleb128 0x49
 1704 00c1 13       		.uleb128 0x13
 1705 00c2 38       		.uleb128 0x38
 1706 00c3 0B       		.uleb128 0xb
 1707 00c4 00       		.byte	0
 1708 00c5 00       		.byte	0
 1709 00c6 11       		.uleb128 0x11
 1710 00c7 13       		.uleb128 0x13
 1711 00c8 01       		.byte	0x1
 1712 00c9 0B       		.uleb128 0xb
 1713 00ca 0B       		.uleb128 0xb
ARM GAS  /var/folders/c6/c789hm653lg9vtl73krp73tm0000gn/T//ccYJu1mY.s 			page 46


 1714 00cb 3A       		.uleb128 0x3a
 1715 00cc 0B       		.uleb128 0xb
 1716 00cd 3B       		.uleb128 0x3b
 1717 00ce 0B       		.uleb128 0xb
 1718 00cf 01       		.uleb128 0x1
 1719 00d0 13       		.uleb128 0x13
 1720 00d1 00       		.byte	0
 1721 00d2 00       		.byte	0
 1722 00d3 12       		.uleb128 0x12
 1723 00d4 17       		.uleb128 0x17
 1724 00d5 01       		.byte	0x1
 1725 00d6 0B       		.uleb128 0xb
 1726 00d7 0B       		.uleb128 0xb
 1727 00d8 3A       		.uleb128 0x3a
 1728 00d9 0B       		.uleb128 0xb
 1729 00da 3B       		.uleb128 0x3b
 1730 00db 0B       		.uleb128 0xb
 1731 00dc 01       		.uleb128 0x1
 1732 00dd 13       		.uleb128 0x13
 1733 00de 00       		.byte	0
 1734 00df 00       		.byte	0
 1735 00e0 13       		.uleb128 0x13
 1736 00e1 0D       		.uleb128 0xd
 1737 00e2 00       		.byte	0
 1738 00e3 03       		.uleb128 0x3
 1739 00e4 0E       		.uleb128 0xe
 1740 00e5 3A       		.uleb128 0x3a
 1741 00e6 0B       		.uleb128 0xb
 1742 00e7 3B       		.uleb128 0x3b
 1743 00e8 05       		.uleb128 0x5
 1744 00e9 49       		.uleb128 0x49
 1745 00ea 13       		.uleb128 0x13
 1746 00eb 00       		.byte	0
 1747 00ec 00       		.byte	0
 1748 00ed 14       		.uleb128 0x14
 1749 00ee 26       		.uleb128 0x26
 1750 00ef 00       		.byte	0
 1751 00f0 49       		.uleb128 0x49
 1752 00f1 13       		.uleb128 0x13
 1753 00f2 00       		.byte	0
 1754 00f3 00       		.byte	0
 1755 00f4 15       		.uleb128 0x15
 1756 00f5 01       		.uleb128 0x1
 1757 00f6 01       		.byte	0x1
 1758 00f7 49       		.uleb128 0x49
 1759 00f8 13       		.uleb128 0x13
 1760 00f9 01       		.uleb128 0x1
 1761 00fa 13       		.uleb128 0x13
 1762 00fb 00       		.byte	0
 1763 00fc 00       		.byte	0
 1764 00fd 16       		.uleb128 0x16
 1765 00fe 21       		.uleb128 0x21
 1766 00ff 00       		.byte	0
 1767 0100 49       		.uleb128 0x49
 1768 0101 13       		.uleb128 0x13
 1769 0102 2F       		.uleb128 0x2f
 1770 0103 0B       		.uleb128 0xb
ARM GAS  /var/folders/c6/c789hm653lg9vtl73krp73tm0000gn/T//ccYJu1mY.s 			page 47


 1771 0104 00       		.byte	0
 1772 0105 00       		.byte	0
 1773 0106 17       		.uleb128 0x17
 1774 0107 2E       		.uleb128 0x2e
 1775 0108 01       		.byte	0x1
 1776 0109 03       		.uleb128 0x3
 1777 010a 0E       		.uleb128 0xe
 1778 010b 3A       		.uleb128 0x3a
 1779 010c 0B       		.uleb128 0xb
 1780 010d 3B       		.uleb128 0x3b
 1781 010e 05       		.uleb128 0x5
 1782 010f 27       		.uleb128 0x27
 1783 0110 19       		.uleb128 0x19
 1784 0111 20       		.uleb128 0x20
 1785 0112 0B       		.uleb128 0xb
 1786 0113 01       		.uleb128 0x1
 1787 0114 13       		.uleb128 0x13
 1788 0115 00       		.byte	0
 1789 0116 00       		.byte	0
 1790 0117 18       		.uleb128 0x18
 1791 0118 05       		.uleb128 0x5
 1792 0119 00       		.byte	0
 1793 011a 03       		.uleb128 0x3
 1794 011b 0E       		.uleb128 0xe
 1795 011c 3A       		.uleb128 0x3a
 1796 011d 0B       		.uleb128 0xb
 1797 011e 3B       		.uleb128 0x3b
 1798 011f 05       		.uleb128 0x5
 1799 0120 49       		.uleb128 0x49
 1800 0121 13       		.uleb128 0x13
 1801 0122 00       		.byte	0
 1802 0123 00       		.byte	0
 1803 0124 19       		.uleb128 0x19
 1804 0125 2E       		.uleb128 0x2e
 1805 0126 00       		.byte	0
 1806 0127 03       		.uleb128 0x3
 1807 0128 0E       		.uleb128 0xe
 1808 0129 3A       		.uleb128 0x3a
 1809 012a 0B       		.uleb128 0xb
 1810 012b 3B       		.uleb128 0x3b
 1811 012c 05       		.uleb128 0x5
 1812 012d 27       		.uleb128 0x27
 1813 012e 19       		.uleb128 0x19
 1814 012f 20       		.uleb128 0x20
 1815 0130 0B       		.uleb128 0xb
 1816 0131 00       		.byte	0
 1817 0132 00       		.byte	0
 1818 0133 1A       		.uleb128 0x1a
 1819 0134 2E       		.uleb128 0x2e
 1820 0135 01       		.byte	0x1
 1821 0136 3F       		.uleb128 0x3f
 1822 0137 19       		.uleb128 0x19
 1823 0138 03       		.uleb128 0x3
 1824 0139 0E       		.uleb128 0xe
 1825 013a 3A       		.uleb128 0x3a
 1826 013b 0B       		.uleb128 0xb
 1827 013c 3B       		.uleb128 0x3b
ARM GAS  /var/folders/c6/c789hm653lg9vtl73krp73tm0000gn/T//ccYJu1mY.s 			page 48


 1828 013d 0B       		.uleb128 0xb
 1829 013e 27       		.uleb128 0x27
 1830 013f 19       		.uleb128 0x19
 1831 0140 49       		.uleb128 0x49
 1832 0141 13       		.uleb128 0x13
 1833 0142 20       		.uleb128 0x20
 1834 0143 0B       		.uleb128 0xb
 1835 0144 01       		.uleb128 0x1
 1836 0145 13       		.uleb128 0x13
 1837 0146 00       		.byte	0
 1838 0147 00       		.byte	0
 1839 0148 1B       		.uleb128 0x1b
 1840 0149 05       		.uleb128 0x5
 1841 014a 00       		.byte	0
 1842 014b 03       		.uleb128 0x3
 1843 014c 0E       		.uleb128 0xe
 1844 014d 3A       		.uleb128 0x3a
 1845 014e 0B       		.uleb128 0xb
 1846 014f 3B       		.uleb128 0x3b
 1847 0150 0B       		.uleb128 0xb
 1848 0151 49       		.uleb128 0x49
 1849 0152 13       		.uleb128 0x13
 1850 0153 00       		.byte	0
 1851 0154 00       		.byte	0
 1852 0155 1C       		.uleb128 0x1c
 1853 0156 34       		.uleb128 0x34
 1854 0157 00       		.byte	0
 1855 0158 03       		.uleb128 0x3
 1856 0159 08       		.uleb128 0x8
 1857 015a 3A       		.uleb128 0x3a
 1858 015b 0B       		.uleb128 0xb
 1859 015c 3B       		.uleb128 0x3b
 1860 015d 0B       		.uleb128 0xb
 1861 015e 49       		.uleb128 0x49
 1862 015f 13       		.uleb128 0x13
 1863 0160 00       		.byte	0
 1864 0161 00       		.byte	0
 1865 0162 1D       		.uleb128 0x1d
 1866 0163 34       		.uleb128 0x34
 1867 0164 00       		.byte	0
 1868 0165 03       		.uleb128 0x3
 1869 0166 0E       		.uleb128 0xe
 1870 0167 49       		.uleb128 0x49
 1871 0168 13       		.uleb128 0x13
 1872 0169 34       		.uleb128 0x34
 1873 016a 19       		.uleb128 0x19
 1874 016b 1C       		.uleb128 0x1c
 1875 016c 0E       		.uleb128 0xe
 1876 016d 00       		.byte	0
 1877 016e 00       		.byte	0
 1878 016f 1E       		.uleb128 0x1e
 1879 0170 2E       		.uleb128 0x2e
 1880 0171 01       		.byte	0x1
 1881 0172 3F       		.uleb128 0x3f
 1882 0173 19       		.uleb128 0x19
 1883 0174 03       		.uleb128 0x3
 1884 0175 0E       		.uleb128 0xe
ARM GAS  /var/folders/c6/c789hm653lg9vtl73krp73tm0000gn/T//ccYJu1mY.s 			page 49


 1885 0176 3A       		.uleb128 0x3a
 1886 0177 0B       		.uleb128 0xb
 1887 0178 3B       		.uleb128 0x3b
 1888 0179 0B       		.uleb128 0xb
 1889 017a 27       		.uleb128 0x27
 1890 017b 19       		.uleb128 0x19
 1891 017c 11       		.uleb128 0x11
 1892 017d 01       		.uleb128 0x1
 1893 017e 12       		.uleb128 0x12
 1894 017f 06       		.uleb128 0x6
 1895 0180 40       		.uleb128 0x40
 1896 0181 18       		.uleb128 0x18
 1897 0182 9742     		.uleb128 0x2117
 1898 0184 19       		.uleb128 0x19
 1899 0185 01       		.uleb128 0x1
 1900 0186 13       		.uleb128 0x13
 1901 0187 00       		.byte	0
 1902 0188 00       		.byte	0
 1903 0189 1F       		.uleb128 0x1f
 1904 018a 34       		.uleb128 0x34
 1905 018b 00       		.byte	0
 1906 018c 03       		.uleb128 0x3
 1907 018d 0E       		.uleb128 0xe
 1908 018e 3A       		.uleb128 0x3a
 1909 018f 0B       		.uleb128 0xb
 1910 0190 3B       		.uleb128 0x3b
 1911 0191 0B       		.uleb128 0xb
 1912 0192 49       		.uleb128 0x49
 1913 0193 13       		.uleb128 0x13
 1914 0194 3F       		.uleb128 0x3f
 1915 0195 19       		.uleb128 0x19
 1916 0196 3C       		.uleb128 0x3c
 1917 0197 19       		.uleb128 0x19
 1918 0198 00       		.byte	0
 1919 0199 00       		.byte	0
 1920 019a 20       		.uleb128 0x20
 1921 019b 21       		.uleb128 0x21
 1922 019c 00       		.byte	0
 1923 019d 00       		.byte	0
 1924 019e 00       		.byte	0
 1925 019f 21       		.uleb128 0x21
 1926 01a0 2E       		.uleb128 0x2e
 1927 01a1 01       		.byte	0x1
 1928 01a2 3F       		.uleb128 0x3f
 1929 01a3 19       		.uleb128 0x19
 1930 01a4 03       		.uleb128 0x3
 1931 01a5 0E       		.uleb128 0xe
 1932 01a6 3A       		.uleb128 0x3a
 1933 01a7 0B       		.uleb128 0xb
 1934 01a8 3B       		.uleb128 0x3b
 1935 01a9 0B       		.uleb128 0xb
 1936 01aa 27       		.uleb128 0x27
 1937 01ab 19       		.uleb128 0x19
 1938 01ac 49       		.uleb128 0x49
 1939 01ad 13       		.uleb128 0x13
 1940 01ae 11       		.uleb128 0x11
 1941 01af 01       		.uleb128 0x1
ARM GAS  /var/folders/c6/c789hm653lg9vtl73krp73tm0000gn/T//ccYJu1mY.s 			page 50


 1942 01b0 12       		.uleb128 0x12
 1943 01b1 06       		.uleb128 0x6
 1944 01b2 40       		.uleb128 0x40
 1945 01b3 18       		.uleb128 0x18
 1946 01b4 9742     		.uleb128 0x2117
 1947 01b6 19       		.uleb128 0x19
 1948 01b7 01       		.uleb128 0x1
 1949 01b8 13       		.uleb128 0x13
 1950 01b9 00       		.byte	0
 1951 01ba 00       		.byte	0
 1952 01bb 22       		.uleb128 0x22
 1953 01bc 05       		.uleb128 0x5
 1954 01bd 00       		.byte	0
 1955 01be 03       		.uleb128 0x3
 1956 01bf 0E       		.uleb128 0xe
 1957 01c0 3A       		.uleb128 0x3a
 1958 01c1 0B       		.uleb128 0xb
 1959 01c2 3B       		.uleb128 0x3b
 1960 01c3 0B       		.uleb128 0xb
 1961 01c4 49       		.uleb128 0x49
 1962 01c5 13       		.uleb128 0x13
 1963 01c6 02       		.uleb128 0x2
 1964 01c7 17       		.uleb128 0x17
 1965 01c8 00       		.byte	0
 1966 01c9 00       		.byte	0
 1967 01ca 23       		.uleb128 0x23
 1968 01cb 1D       		.uleb128 0x1d
 1969 01cc 01       		.byte	0x1
 1970 01cd 31       		.uleb128 0x31
 1971 01ce 13       		.uleb128 0x13
 1972 01cf 11       		.uleb128 0x11
 1973 01d0 01       		.uleb128 0x1
 1974 01d1 12       		.uleb128 0x12
 1975 01d2 06       		.uleb128 0x6
 1976 01d3 58       		.uleb128 0x58
 1977 01d4 0B       		.uleb128 0xb
 1978 01d5 59       		.uleb128 0x59
 1979 01d6 0B       		.uleb128 0xb
 1980 01d7 01       		.uleb128 0x1
 1981 01d8 13       		.uleb128 0x13
 1982 01d9 00       		.byte	0
 1983 01da 00       		.byte	0
 1984 01db 24       		.uleb128 0x24
 1985 01dc 1D       		.uleb128 0x1d
 1986 01dd 01       		.byte	0x1
 1987 01de 31       		.uleb128 0x31
 1988 01df 13       		.uleb128 0x13
 1989 01e0 11       		.uleb128 0x11
 1990 01e1 01       		.uleb128 0x1
 1991 01e2 12       		.uleb128 0x12
 1992 01e3 06       		.uleb128 0x6
 1993 01e4 58       		.uleb128 0x58
 1994 01e5 0B       		.uleb128 0xb
 1995 01e6 59       		.uleb128 0x59
 1996 01e7 05       		.uleb128 0x5
 1997 01e8 00       		.byte	0
 1998 01e9 00       		.byte	0
ARM GAS  /var/folders/c6/c789hm653lg9vtl73krp73tm0000gn/T//ccYJu1mY.s 			page 51


 1999 01ea 25       		.uleb128 0x25
 2000 01eb 05       		.uleb128 0x5
 2001 01ec 00       		.byte	0
 2002 01ed 31       		.uleb128 0x31
 2003 01ee 13       		.uleb128 0x13
 2004 01ef 1C       		.uleb128 0x1c
 2005 01f0 0B       		.uleb128 0xb
 2006 01f1 00       		.byte	0
 2007 01f2 00       		.byte	0
 2008 01f3 26       		.uleb128 0x26
 2009 01f4 05       		.uleb128 0x5
 2010 01f5 00       		.byte	0
 2011 01f6 31       		.uleb128 0x31
 2012 01f7 13       		.uleb128 0x13
 2013 01f8 02       		.uleb128 0x2
 2014 01f9 17       		.uleb128 0x17
 2015 01fa 00       		.byte	0
 2016 01fb 00       		.byte	0
 2017 01fc 27       		.uleb128 0x27
 2018 01fd 0B       		.uleb128 0xb
 2019 01fe 01       		.byte	0x1
 2020 01ff 11       		.uleb128 0x11
 2021 0200 01       		.uleb128 0x1
 2022 0201 12       		.uleb128 0x12
 2023 0202 06       		.uleb128 0x6
 2024 0203 00       		.byte	0
 2025 0204 00       		.byte	0
 2026 0205 28       		.uleb128 0x28
 2027 0206 34       		.uleb128 0x34
 2028 0207 00       		.byte	0
 2029 0208 31       		.uleb128 0x31
 2030 0209 13       		.uleb128 0x13
 2031 020a 02       		.uleb128 0x2
 2032 020b 17       		.uleb128 0x17
 2033 020c 00       		.byte	0
 2034 020d 00       		.byte	0
 2035 020e 29       		.uleb128 0x29
 2036 020f 1D       		.uleb128 0x1d
 2037 0210 01       		.byte	0x1
 2038 0211 31       		.uleb128 0x31
 2039 0212 13       		.uleb128 0x13
 2040 0213 11       		.uleb128 0x11
 2041 0214 01       		.uleb128 0x1
 2042 0215 12       		.uleb128 0x12
 2043 0216 06       		.uleb128 0x6
 2044 0217 58       		.uleb128 0x58
 2045 0218 0B       		.uleb128 0xb
 2046 0219 59       		.uleb128 0x59
 2047 021a 0B       		.uleb128 0xb
 2048 021b 00       		.byte	0
 2049 021c 00       		.byte	0
 2050 021d 2A       		.uleb128 0x2a
 2051 021e 34       		.uleb128 0x34
 2052 021f 00       		.byte	0
 2053 0220 31       		.uleb128 0x31
 2054 0221 13       		.uleb128 0x13
 2055 0222 00       		.byte	0
ARM GAS  /var/folders/c6/c789hm653lg9vtl73krp73tm0000gn/T//ccYJu1mY.s 			page 52


 2056 0223 00       		.byte	0
 2057 0224 2B       		.uleb128 0x2b
 2058 0225 2E       		.uleb128 0x2e
 2059 0226 01       		.byte	0x1
 2060 0227 31       		.uleb128 0x31
 2061 0228 13       		.uleb128 0x13
 2062 0229 11       		.uleb128 0x11
 2063 022a 01       		.uleb128 0x1
 2064 022b 12       		.uleb128 0x12
 2065 022c 06       		.uleb128 0x6
 2066 022d 40       		.uleb128 0x40
 2067 022e 18       		.uleb128 0x18
 2068 022f 9742     		.uleb128 0x2117
 2069 0231 19       		.uleb128 0x19
 2070 0232 01       		.uleb128 0x1
 2071 0233 13       		.uleb128 0x13
 2072 0234 00       		.byte	0
 2073 0235 00       		.byte	0
 2074 0236 2C       		.uleb128 0x2c
 2075 0237 34       		.uleb128 0x34
 2076 0238 00       		.byte	0
 2077 0239 31       		.uleb128 0x31
 2078 023a 13       		.uleb128 0x13
 2079 023b 02       		.uleb128 0x2
 2080 023c 18       		.uleb128 0x18
 2081 023d 00       		.byte	0
 2082 023e 00       		.byte	0
 2083 023f 2D       		.uleb128 0x2d
 2084 0240 2E       		.uleb128 0x2e
 2085 0241 00       		.byte	0
 2086 0242 3F       		.uleb128 0x3f
 2087 0243 19       		.uleb128 0x19
 2088 0244 03       		.uleb128 0x3
 2089 0245 0E       		.uleb128 0xe
 2090 0246 3A       		.uleb128 0x3a
 2091 0247 0B       		.uleb128 0xb
 2092 0248 3B       		.uleb128 0x3b
 2093 0249 0B       		.uleb128 0xb
 2094 024a 27       		.uleb128 0x27
 2095 024b 19       		.uleb128 0x19
 2096 024c 49       		.uleb128 0x49
 2097 024d 13       		.uleb128 0x13
 2098 024e 11       		.uleb128 0x11
 2099 024f 01       		.uleb128 0x1
 2100 0250 12       		.uleb128 0x12
 2101 0251 06       		.uleb128 0x6
 2102 0252 40       		.uleb128 0x40
 2103 0253 18       		.uleb128 0x18
 2104 0254 9742     		.uleb128 0x2117
 2105 0256 19       		.uleb128 0x19
 2106 0257 00       		.byte	0
 2107 0258 00       		.byte	0
 2108 0259 2E       		.uleb128 0x2e
 2109 025a 34       		.uleb128 0x34
 2110 025b 00       		.byte	0
 2111 025c 03       		.uleb128 0x3
 2112 025d 0E       		.uleb128 0xe
ARM GAS  /var/folders/c6/c789hm653lg9vtl73krp73tm0000gn/T//ccYJu1mY.s 			page 53


 2113 025e 3A       		.uleb128 0x3a
 2114 025f 0B       		.uleb128 0xb
 2115 0260 3B       		.uleb128 0x3b
 2116 0261 0B       		.uleb128 0xb
 2117 0262 49       		.uleb128 0x49
 2118 0263 13       		.uleb128 0x13
 2119 0264 02       		.uleb128 0x2
 2120 0265 18       		.uleb128 0x18
 2121 0266 00       		.byte	0
 2122 0267 00       		.byte	0
 2123 0268 2F       		.uleb128 0x2f
 2124 0269 34       		.uleb128 0x34
 2125 026a 00       		.byte	0
 2126 026b 03       		.uleb128 0x3
 2127 026c 0E       		.uleb128 0xe
 2128 026d 3A       		.uleb128 0x3a
 2129 026e 0B       		.uleb128 0xb
 2130 026f 3B       		.uleb128 0x3b
 2131 0270 05       		.uleb128 0x5
 2132 0271 49       		.uleb128 0x49
 2133 0272 13       		.uleb128 0x13
 2134 0273 3F       		.uleb128 0x3f
 2135 0274 19       		.uleb128 0x19
 2136 0275 3C       		.uleb128 0x3c
 2137 0276 19       		.uleb128 0x19
 2138 0277 00       		.byte	0
 2139 0278 00       		.byte	0
 2140 0279 30       		.uleb128 0x30
 2141 027a 34       		.uleb128 0x34
 2142 027b 00       		.byte	0
 2143 027c 03       		.uleb128 0x3
 2144 027d 08       		.uleb128 0x8
 2145 027e 3A       		.uleb128 0x3a
 2146 027f 0B       		.uleb128 0xb
 2147 0280 3B       		.uleb128 0x3b
 2148 0281 05       		.uleb128 0x5
 2149 0282 49       		.uleb128 0x49
 2150 0283 13       		.uleb128 0x13
 2151 0284 3F       		.uleb128 0x3f
 2152 0285 19       		.uleb128 0x19
 2153 0286 3C       		.uleb128 0x3c
 2154 0287 19       		.uleb128 0x19
 2155 0288 00       		.byte	0
 2156 0289 00       		.byte	0
 2157 028a 00       		.byte	0
 2158              		.section	.debug_loc,"",%progbits
 2159              	.Ldebug_loc0:
 2160              	.LLST0:
 2161 0000 00000000 		.4byte	.LVL0
 2162 0004 10000000 		.4byte	.LVL2
 2163 0008 0100     		.2byte	0x1
 2164 000a 50       		.byte	0x50
 2165 000b 10000000 		.4byte	.LVL2
 2166 000f 14000000 		.4byte	.LVL3
 2167 0013 0300     		.2byte	0x3
 2168 0015 70       		.byte	0x70
 2169 0016 79       		.sleb128 -7
ARM GAS  /var/folders/c6/c789hm653lg9vtl73krp73tm0000gn/T//ccYJu1mY.s 			page 54


 2170 0017 9F       		.byte	0x9f
 2171 0018 14000000 		.4byte	.LVL3
 2172 001c 34000000 		.4byte	.LFE230
 2173 0020 0400     		.2byte	0x4
 2174 0022 F3       		.byte	0xf3
 2175 0023 01       		.uleb128 0x1
 2176 0024 50       		.byte	0x50
 2177 0025 9F       		.byte	0x9f
 2178 0026 00000000 		.4byte	0
 2179 002a 00000000 		.4byte	0
 2180              	.LLST1:
 2181 002e 06000000 		.4byte	.LVL1
 2182 0032 10000000 		.4byte	.LVL2
 2183 0036 0100     		.2byte	0x1
 2184 0038 50       		.byte	0x50
 2185 0039 10000000 		.4byte	.LVL2
 2186 003d 14000000 		.4byte	.LVL3
 2187 0041 0300     		.2byte	0x3
 2188 0043 70       		.byte	0x70
 2189 0044 79       		.sleb128 -7
 2190 0045 9F       		.byte	0x9f
 2191 0046 14000000 		.4byte	.LVL3
 2192 004a 1C000000 		.4byte	.LVL5
 2193 004e 0100     		.2byte	0x1
 2194 0050 50       		.byte	0x50
 2195 0051 1C000000 		.4byte	.LVL5
 2196 0055 34000000 		.4byte	.LFE230
 2197 0059 0900     		.2byte	0x9
 2198 005b F3       		.byte	0xf3
 2199 005c 01       		.uleb128 0x1
 2200 005d 50       		.byte	0x50
 2201 005e 23       		.byte	0x23
 2202 005f 07       		.uleb128 0x7
 2203 0060 09       		.byte	0x9
 2204 0061 F8       		.byte	0xf8
 2205 0062 1A       		.byte	0x1a
 2206 0063 9F       		.byte	0x9f
 2207 0064 00000000 		.4byte	0
 2208 0068 00000000 		.4byte	0
 2209              	.LLST2:
 2210 006c 18000000 		.4byte	.LVL4
 2211 0070 24000000 		.4byte	.LVL7
 2212 0074 0100     		.2byte	0x1
 2213 0076 53       		.byte	0x53
 2214 0077 24000000 		.4byte	.LVL7
 2215 007b 34000000 		.4byte	.LFE230
 2216 007f 0500     		.2byte	0x5
 2217 0081 03       		.byte	0x3
 2218 0082 00000000 		.4byte	nextmem
 2219 0086 00000000 		.4byte	0
 2220 008a 00000000 		.4byte	0
 2221              	.LLST3:
 2222 008e 00000000 		.4byte	.LVL8
 2223 0092 0A000000 		.4byte	.LVL9
 2224 0096 0100     		.2byte	0x1
 2225 0098 50       		.byte	0x50
 2226 0099 0A000000 		.4byte	.LVL9
ARM GAS  /var/folders/c6/c789hm653lg9vtl73krp73tm0000gn/T//ccYJu1mY.s 			page 55


 2227 009d 0E000000 		.4byte	.LVL10
 2228 00a1 0300     		.2byte	0x3
 2229 00a3 70       		.byte	0x70
 2230 00a4 79       		.sleb128 -7
 2231 00a5 9F       		.byte	0x9f
 2232 00a6 0E000000 		.4byte	.LVL10
 2233 00aa 16000000 		.4byte	.LVL12
 2234 00ae 0100     		.2byte	0x1
 2235 00b0 50       		.byte	0x50
 2236 00b1 16000000 		.4byte	.LVL12
 2237 00b5 28000000 		.4byte	.LFE231
 2238 00b9 0900     		.2byte	0x9
 2239 00bb F3       		.byte	0xf3
 2240 00bc 01       		.uleb128 0x1
 2241 00bd 50       		.byte	0x50
 2242 00be 23       		.byte	0x23
 2243 00bf 07       		.uleb128 0x7
 2244 00c0 09       		.byte	0x9
 2245 00c1 F8       		.byte	0xf8
 2246 00c2 1A       		.byte	0x1a
 2247 00c3 9F       		.byte	0x9f
 2248 00c4 00000000 		.4byte	0
 2249 00c8 00000000 		.4byte	0
 2250              		.section	.debug_aranges,"",%progbits
 2251 0000 34000000 		.4byte	0x34
 2252 0004 0200     		.2byte	0x2
 2253 0006 00000000 		.4byte	.Ldebug_info0
 2254 000a 04       		.byte	0x4
 2255 000b 00       		.byte	0
 2256 000c 0000     		.2byte	0
 2257 000e 0000     		.2byte	0
 2258 0010 00000000 		.4byte	.LFB229
 2259 0014 28000000 		.4byte	.LFE229-.LFB229
 2260 0018 00000000 		.4byte	.LFB230
 2261 001c 34000000 		.4byte	.LFE230-.LFB230
 2262 0020 00000000 		.4byte	.LFB231
 2263 0024 28000000 		.4byte	.LFE231-.LFB231
 2264 0028 00000000 		.4byte	.LFB232
 2265 002c 14000000 		.4byte	.LFE232-.LFB232
 2266 0030 00000000 		.4byte	0
 2267 0034 00000000 		.4byte	0
 2268              		.section	.debug_ranges,"",%progbits
 2269              	.Ldebug_ranges0:
 2270 0000 00000000 		.4byte	.LFB229
 2271 0004 28000000 		.4byte	.LFE229
 2272 0008 00000000 		.4byte	.LFB230
 2273 000c 34000000 		.4byte	.LFE230
 2274 0010 00000000 		.4byte	.LFB231
 2275 0014 28000000 		.4byte	.LFE231
 2276 0018 00000000 		.4byte	.LFB232
 2277 001c 14000000 		.4byte	.LFE232
 2278 0020 00000000 		.4byte	0
 2279 0024 00000000 		.4byte	0
 2280              		.section	.debug_line,"",%progbits
 2281              	.Ldebug_line0:
 2282 0000 BE020000 		.section	.debug_str,"MS",%progbits,1
 2282      02004A02 
ARM GAS  /var/folders/c6/c789hm653lg9vtl73krp73tm0000gn/T//ccYJu1mY.s 			page 56


 2282      00000201 
 2282      FB0E0D00 
 2282      01010101 
 2283              	.LASF115:
 2284 0000 474E5520 		.ascii	"GNU C 4.8.4 20140725 (release) [ARM/embedded-4_8-br"
 2284      4320342E 
 2284      382E3420 
 2284      32303134 
 2284      30373235 
 2285 0033 616E6368 		.ascii	"anch revision 213147] -mcpu=cortex-m4 -mno-thumb-in"
 2285      20726576 
 2285      6973696F 
 2285      6E203231 
 2285      33313437 
 2286 0066 74657277 		.ascii	"terwork -mthumb -ggdb -O2 -fomit-frame-pointer -fal"
 2286      6F726B20 
 2286      2D6D7468 
 2286      756D6220 
 2286      2D676764 
 2287 0099 69676E2D 		.ascii	"ign-functions=16 -ffunction-sections -fdata-section"
 2287      66756E63 
 2287      74696F6E 
 2287      733D3136 
 2287      202D6666 
 2288 00cc 73202D66 		.ascii	"s -fno-common -flto\000"
 2288      6E6F2D63 
 2288      6F6D6D6F 
 2288      6E202D66 
 2288      6C746F00 
 2289              	.LASF113:
 2290 00e0 656E646D 		.ascii	"endmem\000"
 2290      656D00
 2291              	.LASF51:
 2292 00e7 72656164 		.ascii	"ready_list_t\000"
 2292      795F6C69 
 2292      73745F74 
 2292      00
 2293              	.LASF2:
 2294 00f4 73697A65 		.ascii	"size_t\000"
 2294      5F7400
 2295              	.LASF86:
 2296 00fb 7264796D 		.ascii	"rdymsg\000"
 2296      736700
 2297              	.LASF17:
 2298 0102 75696E74 		.ascii	"uint64_t\000"
 2298      36345F74 
 2298      00
 2299              	.LASF120:
 2300 010b 6368436F 		.ascii	"chCoreAlloc\000"
 2300      7265416C 
 2300      6C6F6300 
 2301              	.LASF3:
 2302 0117 5F5F7569 		.ascii	"__uint8_t\000"
 2302      6E74385F 
 2302      7400
 2303              	.LASF83:
 2304 0121 706F7274 		.ascii	"port_intctx\000"
ARM GAS  /var/folders/c6/c789hm653lg9vtl73krp73tm0000gn/T//ccYJu1mY.s 			page 57


 2304      5F696E74 
 2304      63747800 
 2305              	.LASF70:
 2306 012d 73797374 		.ascii	"system_debug_t\000"
 2306      656D5F64 
 2306      65627567 
 2306      5F7400
 2307              	.LASF102:
 2308 013c 706F7274 		.ascii	"port_lock\000"
 2308      5F6C6F63 
 2308      6B00
 2309              	.LASF13:
 2310 0146 6C6F6E67 		.ascii	"long long unsigned int\000"
 2310      206C6F6E 
 2310      6720756E 
 2310      7369676E 
 2310      65642069 
 2311              	.LASF87:
 2312 015d 65786974 		.ascii	"exitcode\000"
 2312      636F6465 
 2312      00
 2313              	.LASF77:
 2314 0166 6D61696E 		.ascii	"mainthread\000"
 2314      74687265 
 2314      616400
 2315              	.LASF67:
 2316 0171 76697274 		.ascii	"virtual_timers_list_t\000"
 2316      75616C5F 
 2316      74696D65 
 2316      72735F6C 
 2316      6973745F 
 2317              	.LASF114:
 2318 0187 49544D5F 		.ascii	"ITM_RxBuffer\000"
 2318      52784275 
 2318      66666572 
 2318      00
 2319              	.LASF50:
 2320 0194 63685F74 		.ascii	"ch_threads_queue\000"
 2320      68726561 
 2320      64735F71 
 2320      75657565 
 2320      00
 2321              	.LASF30:
 2322 01a5 705F7072 		.ascii	"p_prio\000"
 2322      696F00
 2323              	.LASF11:
 2324 01ac 6C6F6E67 		.ascii	"long long int\000"
 2324      206C6F6E 
 2324      6720696E 
 2324      7400
 2325              	.LASF1:
 2326 01ba 7369676E 		.ascii	"signed char\000"
 2326      65642063 
 2326      68617200 
 2327              	.LASF44:
 2328 01c6 705F6D70 		.ascii	"p_mpool\000"
 2328      6F6F6C00 
ARM GAS  /var/folders/c6/c789hm653lg9vtl73krp73tm0000gn/T//ccYJu1mY.s 			page 58


 2329              	.LASF97:
 2330 01ce 6D5F7175 		.ascii	"m_queue\000"
 2330      65756500 
 2331              	.LASF116:
 2332 01d6 2E2E2F2E 		.ascii	"../../../os/rt/src/chmemcore.c\000"
 2332      2E2F2E2E 
 2332      2F6F732F 
 2332      72742F73 
 2332      72632F63 
 2333              	.LASF76:
 2334 01f5 76746C69 		.ascii	"vtlist\000"
 2334      737400
 2335              	.LASF103:
 2336 01fc 706F7274 		.ascii	"port_unlock\000"
 2336      5F756E6C 
 2336      6F636B00 
 2337              	.LASF121:
 2338 0208 6368436F 		.ascii	"chCoreGetStatusX\000"
 2338      72654765 
 2338      74537461 
 2338      74757358 
 2338      00
 2339              	.LASF89:
 2340 0219 77747472 		.ascii	"wttrp\000"
 2340      7000
 2341              	.LASF74:
 2342 021f 63685F73 		.ascii	"ch_system\000"
 2342      79737465 
 2342      6D00
 2343              	.LASF8:
 2344 0229 6C6F6E67 		.ascii	"long int\000"
 2344      20696E74 
 2344      00
 2345              	.LASF20:
 2346 0232 74737461 		.ascii	"tstate_t\000"
 2346      74655F74 
 2346      00
 2347              	.LASF32:
 2348 023b 705F6E65 		.ascii	"p_newer\000"
 2348      77657200 
 2349              	.LASF94:
 2350 0243 735F7175 		.ascii	"s_queue\000"
 2350      65756500 
 2351              	.LASF118:
 2352 024b 6368436F 		.ascii	"chCoreAllocI\000"
 2352      7265416C 
 2352      6C6F6349 
 2352      00
 2353              	.LASF56:
 2354 0258 725F6E65 		.ascii	"r_newer\000"
 2354      77657200 
 2355              	.LASF80:
 2356 0260 72656761 		.ascii	"regarm_t\000"
 2356      726D5F74 
 2356      00
 2357              	.LASF63:
 2358 0269 76745F70 		.ascii	"vt_prev\000"
ARM GAS  /var/folders/c6/c789hm653lg9vtl73krp73tm0000gn/T//ccYJu1mY.s 			page 59


 2358      72657600 
 2359              	.LASF101:
 2360 0271 6D757465 		.ascii	"mutex_t\000"
 2360      785F7400 
 2361              	.LASF105:
 2362 0279 76616C75 		.ascii	"value\000"
 2362      6500
 2363              	.LASF78:
 2364 027f 69646C65 		.ascii	"idle_thread_wa\000"
 2364      5F746872 
 2364      6561645F 
 2364      776100
 2365              	.LASF25:
 2366 028e 636E745F 		.ascii	"cnt_t\000"
 2366      7400
 2367              	.LASF0:
 2368 0294 756E7369 		.ascii	"unsigned int\000"
 2368      676E6564 
 2368      20696E74 
 2368      00
 2369              	.LASF62:
 2370 02a1 76745F6E 		.ascii	"vt_next\000"
 2370      65787400 
 2371              	.LASF109:
 2372 02a9 5F5F6675 		.ascii	"__func__.5798\000"
 2372      6E635F5F 
 2372      2E353739 
 2372      3800
 2373              	.LASF90:
 2374 02b7 77747365 		.ascii	"wtsemp\000"
 2374      6D7000
 2375              	.LASF39:
 2376 02be 705F6D73 		.ascii	"p_msgqueue\000"
 2376      67717565 
 2376      756500
 2377              	.LASF95:
 2378 02c9 735F636E 		.ascii	"s_cnt\000"
 2378      7400
 2379              	.LASF6:
 2380 02cf 73686F72 		.ascii	"short unsigned int\000"
 2380      7420756E 
 2380      7369676E 
 2380      65642069 
 2380      6E7400
 2381              	.LASF47:
 2382 02e2 63685F74 		.ascii	"ch_thread\000"
 2382      68726561 
 2382      6400
 2383              	.LASF23:
 2384 02ec 6D73675F 		.ascii	"msg_t\000"
 2384      7400
 2385              	.LASF73:
 2386 02f2 63685F73 		.ascii	"ch_system_t\000"
 2386      79737465 
 2386      6D5F7400 
 2387              	.LASF19:
 2388 02fe 746D6F64 		.ascii	"tmode_t\000"
ARM GAS  /var/folders/c6/c789hm653lg9vtl73krp73tm0000gn/T//ccYJu1mY.s 			page 60


 2388      655F7400 
 2389              	.LASF52:
 2390 0306 63685F72 		.ascii	"ch_ready_list\000"
 2390      65616479 
 2390      5F6C6973 
 2390      7400
 2391              	.LASF24:
 2392 0314 6576656E 		.ascii	"eventmask_t\000"
 2392      746D6173 
 2392      6B5F7400 
 2393              	.LASF7:
 2394 0320 5F5F696E 		.ascii	"__int32_t\000"
 2394      7433325F 
 2394      7400
 2395              	.LASF81:
 2396 032a 73746B61 		.ascii	"stkalign_t\000"
 2396      6C69676E 
 2396      5F7400
 2397              	.LASF38:
 2398 0335 705F7761 		.ascii	"p_waiting\000"
 2398      6974696E 
 2398      6700
 2399              	.LASF79:
 2400 033f 73697A65 		.ascii	"sizetype\000"
 2400      74797065 
 2400      00
 2401              	.LASF45:
 2402 0348 74687265 		.ascii	"thread_reference_t\000"
 2402      61645F72 
 2402      65666572 
 2402      656E6365 
 2402      5F7400
 2403              	.LASF68:
 2404 035b 63685F76 		.ascii	"ch_virtual_timers_list\000"
 2404      69727475 
 2404      616C5F74 
 2404      696D6572 
 2404      735F6C69 
 2405              	.LASF69:
 2406 0372 76745F6C 		.ascii	"vt_lasttime\000"
 2406      61737474 
 2406      696D6500 
 2407              	.LASF33:
 2408 037e 705F6F6C 		.ascii	"p_older\000"
 2408      64657200 
 2409              	.LASF55:
 2410 0386 725F6374 		.ascii	"r_ctx\000"
 2410      7800
 2411              	.LASF85:
 2412 038c 746D5F63 		.ascii	"tm_calibration_t\000"
 2412      616C6962 
 2412      72617469 
 2412      6F6E5F74 
 2412      00
 2413              	.LASF58:
 2414 039d 725F6375 		.ascii	"r_current\000"
 2414      7272656E 
ARM GAS  /var/folders/c6/c789hm653lg9vtl73krp73tm0000gn/T//ccYJu1mY.s 			page 61


 2414      7400
 2415              	.LASF57:
 2416 03a7 725F6F6C 		.ascii	"r_older\000"
 2416      64657200 
 2417              	.LASF12:
 2418 03af 5F5F7569 		.ascii	"__uint64_t\000"
 2418      6E743634 
 2418      5F7400
 2419              	.LASF21:
 2420 03ba 74726566 		.ascii	"trefs_t\000"
 2420      735F7400 
 2421              	.LASF60:
 2422 03c2 76697274 		.ascii	"virtual_timer_t\000"
 2422      75616C5F 
 2422      74696D65 
 2422      725F7400 
 2423              	.LASF29:
 2424 03d2 705F7072 		.ascii	"p_prev\000"
 2424      657600
 2425              	.LASF22:
 2426 03d9 74707269 		.ascii	"tprio_t\000"
 2426      6F5F7400 
 2427              	.LASF71:
 2428 03e1 63685F73 		.ascii	"ch_system_debug\000"
 2428      79737465 
 2428      6D5F6465 
 2428      62756700 
 2429              	.LASF15:
 2430 03f1 696E7433 		.ascii	"int32_t\000"
 2430      325F7400 
 2431              	.LASF4:
 2432 03f9 756E7369 		.ascii	"unsigned char\000"
 2432      676E6564 
 2432      20636861 
 2432      7200
 2433              	.LASF119:
 2434 0407 5F636F72 		.ascii	"_core_init\000"
 2434      655F696E 
 2434      697400
 2435              	.LASF42:
 2436 0412 705F6D74 		.ascii	"p_mtxlist\000"
 2436      786C6973 
 2436      7400
 2437              	.LASF5:
 2438 041c 73686F72 		.ascii	"short int\000"
 2438      7420696E 
 2438      7400
 2439              	.LASF35:
 2440 0426 705F7374 		.ascii	"p_state\000"
 2440      61746500 
 2441              	.LASF111:
 2442 042e 5F5F6865 		.ascii	"__heap_end__\000"
 2442      61705F65 
 2442      6E645F5F 
 2442      00
 2443              	.LASF54:
 2444 043b 725F7072 		.ascii	"r_prio\000"
ARM GAS  /var/folders/c6/c789hm653lg9vtl73krp73tm0000gn/T//ccYJu1mY.s 			page 62


 2444      696F00
 2445              	.LASF92:
 2446 0442 65776D61 		.ascii	"ewmask\000"
 2446      736B00
 2447              	.LASF28:
 2448 0449 705F6E65 		.ascii	"p_next\000"
 2448      787400
 2449              	.LASF36:
 2450 0450 705F666C 		.ascii	"p_flags\000"
 2450      61677300 
 2451              	.LASF104:
 2452 0458 63685379 		.ascii	"chSysLock\000"
 2452      734C6F63 
 2452      6B00
 2453              	.LASF61:
 2454 0462 63685F76 		.ascii	"ch_virtual_timer\000"
 2454      69727475 
 2454      616C5F74 
 2454      696D6572 
 2454      00
 2455              	.LASF93:
 2456 0473 63685F73 		.ascii	"ch_semaphore\000"
 2456      656D6170 
 2456      686F7265 
 2456      00
 2457              	.LASF41:
 2458 0480 705F6570 		.ascii	"p_epending\000"
 2458      656E6469 
 2458      6E6700
 2459              	.LASF16:
 2460 048b 75696E74 		.ascii	"uint32_t\000"
 2460      33325F74 
 2460      00
 2461              	.LASF91:
 2462 0494 77746D74 		.ascii	"wtmtxp\000"
 2462      787000
 2463              	.LASF53:
 2464 049b 725F7175 		.ascii	"r_queue\000"
 2464      65756500 
 2465              	.LASF64:
 2466 04a3 76745F64 		.ascii	"vt_delta\000"
 2466      656C7461 
 2466      00
 2467              	.LASF48:
 2468 04ac 63685F74 		.ascii	"ch_threads_list\000"
 2468      68726561 
 2468      64735F6C 
 2468      69737400 
 2469              	.LASF10:
 2470 04bc 6C6F6E67 		.ascii	"long unsigned int\000"
 2470      20756E73 
 2470      69676E65 
 2470      6420696E 
 2470      7400
 2471              	.LASF117:
 2472 04ce 2F557365 		.ascii	"/Users/savonetj/Downloads/ChibiOS_3.0.2/demos/STM32"
 2472      72732F73 
ARM GAS  /var/folders/c6/c789hm653lg9vtl73krp73tm0000gn/T//ccYJu1mY.s 			page 63


 2472      61766F6E 
 2472      65746A2F 
 2472      446F776E 
 2473 0501 2F52542D 		.ascii	"/RT-STM32F407-DISCOVERY\000"
 2473      53544D33 
 2473      32463430 
 2473      372D4449 
 2473      53434F56 
 2474              	.LASF100:
 2475 0519 63686172 		.ascii	"char\000"
 2475      00
 2476              	.LASF27:
 2477 051e 74687265 		.ascii	"thread_t\000"
 2477      61645F74 
 2477      00
 2478              	.LASF112:
 2479 0527 6E657874 		.ascii	"nextmem\000"
 2479      6D656D00 
 2480              	.LASF99:
 2481 052f 6D5F6E65 		.ascii	"m_next\000"
 2481      787400
 2482              	.LASF26:
 2483 0536 73797374 		.ascii	"systime_t\000"
 2483      696D655F 
 2483      7400
 2484              	.LASF43:
 2485 0540 705F7265 		.ascii	"p_realprio\000"
 2485      616C7072 
 2485      696F00
 2486              	.LASF59:
 2487 054b 76746675 		.ascii	"vtfunc_t\000"
 2487      6E635F74 
 2487      00
 2488              	.LASF9:
 2489 0554 5F5F7569 		.ascii	"__uint32_t\000"
 2489      6E743332 
 2489      5F7400
 2490              	.LASF107:
 2491 055f 5F5F7365 		.ascii	"__set_BASEPRI\000"
 2491      745F4241 
 2491      53455052 
 2491      4900
 2492              	.LASF72:
 2493 056d 70616E69 		.ascii	"panic_msg\000"
 2493      635F6D73 
 2493      6700
 2494              	.LASF84:
 2495 0577 6F666673 		.ascii	"offset\000"
 2495      657400
 2496              	.LASF82:
 2497 057e 636F6E74 		.ascii	"context\000"
 2497      65787400 
 2498              	.LASF18:
 2499 0586 7274636E 		.ascii	"rtcnt_t\000"
 2499      745F7400 
 2500              	.LASF66:
 2501 058e 76745F70 		.ascii	"vt_par\000"
ARM GAS  /var/folders/c6/c789hm653lg9vtl73krp73tm0000gn/T//ccYJu1mY.s 			page 64


 2501      617200
 2502              	.LASF110:
 2503 0595 5F5F6865 		.ascii	"__heap_base__\000"
 2503      61705F62 
 2503      6173655F 
 2503      5F00
 2504              	.LASF49:
 2505 05a3 74687265 		.ascii	"threads_queue_t\000"
 2505      6164735F 
 2505      71756575 
 2505      655F7400 
 2506              	.LASF96:
 2507 05b3 63685F6D 		.ascii	"ch_mutex\000"
 2507      75746578 
 2507      00
 2508              	.LASF37:
 2509 05bc 705F7265 		.ascii	"p_refs\000"
 2509      667300
 2510              	.LASF75:
 2511 05c3 726C6973 		.ascii	"rlist\000"
 2511      7400
 2512              	.LASF14:
 2513 05c9 75696E74 		.ascii	"uint8_t\000"
 2513      385F7400 
 2514              	.LASF88:
 2515 05d1 77746F62 		.ascii	"wtobjp\000"
 2515      6A7000
 2516              	.LASF34:
 2517 05d8 705F6E61 		.ascii	"p_name\000"
 2517      6D6500
 2518              	.LASF106:
 2519 05df 73697A65 		.ascii	"size\000"
 2519      00
 2520              	.LASF46:
 2521 05e4 74687265 		.ascii	"threads_list_t\000"
 2521      6164735F 
 2521      6C697374 
 2521      5F7400
 2522              	.LASF108:
 2523 05f3 63685379 		.ascii	"chSysUnlock\000"
 2523      73556E6C 
 2523      6F636B00 
 2524              	.LASF40:
 2525 05ff 705F6D73 		.ascii	"p_msg\000"
 2525      6700
 2526              	.LASF98:
 2527 0605 6D5F6F77 		.ascii	"m_owner\000"
 2527      6E657200 
 2528              	.LASF31:
 2529 060d 705F6374 		.ascii	"p_ctx\000"
 2529      7800
 2530              	.LASF65:
 2531 0613 76745F66 		.ascii	"vt_func\000"
 2531      756E6300 
 2532              		.comm	__gnu_lto_v1,1,1
 2533              		.ident	"GCC: (GNU Tools for ARM Embedded Processors) 4.8.4 20140725 (release) [ARM/embedded-4_8-br
ARM GAS  /var/folders/c6/c789hm653lg9vtl73krp73tm0000gn/T//ccYJu1mY.s 			page 65


DEFINED SYMBOLS
                            *ABS*:0000000000000000 chmemcore.c
/var/folders/c6/c789hm653lg9vtl73krp73tm0000gn/T//ccYJu1mY.s:272    .text._core_init:0000000000000000 $t
/var/folders/c6/c789hm653lg9vtl73krp73tm0000gn/T//ccYJu1mY.s:278    .text._core_init:0000000000000000 _core_init
/var/folders/c6/c789hm653lg9vtl73krp73tm0000gn/T//ccYJu1mY.s:306    .text._core_init:0000000000000018 $d
/var/folders/c6/c789hm653lg9vtl73krp73tm0000gn/T//ccYJu1mY.s:314    .text.chCoreAlloc:0000000000000000 $t
/var/folders/c6/c789hm653lg9vtl73krp73tm0000gn/T//ccYJu1mY.s:320    .text.chCoreAlloc:0000000000000000 chCoreAlloc
/var/folders/c6/c789hm653lg9vtl73krp73tm0000gn/T//ccYJu1mY.s:394    .text.chCoreAlloc:000000000000002c $d
/var/folders/c6/c789hm653lg9vtl73krp73tm0000gn/T//ccYJu1mY.s:400    .text.chCoreAllocI:0000000000000000 $t
/var/folders/c6/c789hm653lg9vtl73krp73tm0000gn/T//ccYJu1mY.s:406    .text.chCoreAllocI:0000000000000000 chCoreAllocI
/var/folders/c6/c789hm653lg9vtl73krp73tm0000gn/T//ccYJu1mY.s:442    .text.chCoreAllocI:0000000000000020 $d
/var/folders/c6/c789hm653lg9vtl73krp73tm0000gn/T//ccYJu1mY.s:448    .text.chCoreGetStatusX:0000000000000000 $t
/var/folders/c6/c789hm653lg9vtl73krp73tm0000gn/T//ccYJu1mY.s:454    .text.chCoreGetStatusX:0000000000000000 chCoreGetStatusX
/var/folders/c6/c789hm653lg9vtl73krp73tm0000gn/T//ccYJu1mY.s:472    .text.chCoreGetStatusX:000000000000000c $d
/var/folders/c6/c789hm653lg9vtl73krp73tm0000gn/T//ccYJu1mY.s:478    .bss.endmem:0000000000000000 $d
/var/folders/c6/c789hm653lg9vtl73krp73tm0000gn/T//ccYJu1mY.s:482    .bss.endmem:0000000000000000 endmem
/var/folders/c6/c789hm653lg9vtl73krp73tm0000gn/T//ccYJu1mY.s:485    .bss.nextmem:0000000000000000 $d
/var/folders/c6/c789hm653lg9vtl73krp73tm0000gn/T//ccYJu1mY.s:489    .bss.nextmem:0000000000000000 nextmem
                            *COM*:0000000000000001 __gnu_lto_v1
                     .debug_frame:0000000000000010 $d
/var/folders/c6/c789hm653lg9vtl73krp73tm0000gn/T//ccYJu1mY.s:313    .text._core_init:0000000000000028 $t
/var/folders/c6/c789hm653lg9vtl73krp73tm0000gn/T//ccYJu1mY.s:399    .text.chCoreAlloc:0000000000000034 $t
/var/folders/c6/c789hm653lg9vtl73krp73tm0000gn/T//ccYJu1mY.s:447    .text.chCoreAllocI:0000000000000028 $t
/var/folders/c6/c789hm653lg9vtl73krp73tm0000gn/T//ccYJu1mY.s:477    .text.chCoreGetStatusX:0000000000000014 $t

UNDEFINED SYMBOLS
__heap_base__
__heap_end__
