ARM GAS  /var/folders/c6/c789hm653lg9vtl73krp73tm0000gn/T//ccvFz436.s 			page 1


   1              		.syntax unified
   2              		.cpu cortex-m4
   3              		.fpu softvfp
   4              		.eabi_attribute 20, 1
   5              		.eabi_attribute 21, 1
   6              		.eabi_attribute 23, 3
   7              		.eabi_attribute 24, 1
   8              		.eabi_attribute 25, 1
   9              		.eabi_attribute 26, 1
  10              		.eabi_attribute 30, 2
  11              		.eabi_attribute 34, 1
  12              		.eabi_attribute 18, 4
  13              		.thumb
  14              		.file	"chmempools.c"
  15              		.text
  16              	.Ltext0:
  17              		.section	.gnu.lto_.jmpfuncs.429ad536565160d5,"",%progbits
  18 0000 789C6362 		.ascii	"x\234cb`b\300\006\244\2414\033\003;#;\023##\220y\200"
  18      6062C006 
  18      A4A1341B 
  18      033B233B 
  18      13232390 
  19 0016 818D19C4 		.ascii	"\201\215\031\304\250g``afef\000\000\027\362\001\222"
  19      A8676060 
  19      61666566 
  19      000017F2 
  19      0192
  20              		.text
  21              		.section	.gnu.lto_.inline.429ad536565160d5,"",%progbits
  22 0000 789C6D4F 		.ascii	"x\234mO!\016\302@\020\234\335\273\366\332\006\002-\002"
  22      210EC240 
  22      109CDDBB 
  22      F6DA0602 
  22      2D02
  23 0012 090E4750 		.ascii	"\011\016GP\325}\001\032\215\001~Q\211 )\022C\202E`I"
  23      D57D011A 
  23      8D017E51 
  23      89202912 
  23      43824560 
  24 0027 9F81AC42 		.ascii	"\237\201\254B\203\343\011\354\335\0015\\.\2673;s\231"
  24      83E309EC 
  24      DD01355C 
  24      2EB7333B 
  24      7399
  25 0039 5D06E3DF 		.ascii	"]\006\343\337I\311\327Pn@`U\017\0217\2713\023\272O\020"
  25      49C9D750 
  25      6E406055 
  25      0F1137B9 
  25      3313BA4F 
  26 004e B1B5705A 		.ascii	"\261\265pZ\335\023\304\307\0353\264\345H\0232X/hce\005"
  26      DD13C4C7 
  26      1D33B4E5 
  26      48133258 
  26      2F686365 
  27 0063 AC5AE8BA 		.ascii	"\254Z\350\272\202U\341\273\036\222\323Z<Nl\356i\304"
  27      8255E1BB 
  27      1E92D35A 
ARM GAS  /var/folders/c6/c789hm653lg9vtl73krp73tm0000gn/T//ccvFz436.s 			page 2


  27      3C4E6CEE 
  27      69C4
  28 0075 A0872918 		.ascii	"\240\207)\030\301v\"BC%EB\352H*\350L%\367\205\177\000"
  28      C1762242 
  28      43254542 
  28      EA482AE8 
  28      4C25F785 
  29 008b D425D3A0 		.ascii	"\324%\323\240*\324n\302 \205\364h?W\030td\372\354\272"
  29      2AD46EC2 
  29      2085F468 
  29      3F571874 
  29      64FAECBA 
  30 009f 4472987D 		.ascii	"Dr\230}5\253h\273\027\371p\315\267\036\242\327\324%"
  30      35AB68BB 
  30      17F970CD 
  30      B71EA2D7 
  30      D425
  31 00b1 6AFF3A2B 		.ascii	"j\377:+\"#\277M\223\377v\307\033\257\224\037\255"
  31      2223BF4D 
  31      93FF76C7 
  31      1BAF941F 
  31      AD
  32              		.text
  33              		.section	.gnu.lto_.pureconst.429ad536565160d5,"",%progbits
  34 0000 789C6362 		.ascii	"x\234cb`b\340e\200\0006\006)F+&)f+\026)V+\000\007\246"
  34      6062E065 
  34      80003606 
  34      29462B26 
  34      29662B16 
  35 001a 0123     		.ascii	"\001#"
  36              		.text
  37              		.section	.gnu.lto_chPoolObjectInit.429ad536565160d5,"",%progbits
  38 0000 789C6D8F 		.ascii	"x\234m\2171k\002A\020\205\337\233;E\360\027$\225h)\334"
  38      316B0241 
  38      1085DF9B 
  38      3B45F017 
  38      24956829 
  39 0015 FD190553 		.ascii	"\375\031\005S&GP\301\343\202g\357)bm)Z\245\275\"\351"
  39      264750C1 
  39      E38267EF 
  39      29626D29 
  39      5AA5BD22 
  40 002a 82A5D662 		.ascii	"\202\245\326bB\272\224v\202\225\245\235\231\275\325"
  40      42BA9476 
  40      8295A59D 
  40      99BDD5
  41 0039 461D76DF 		.ascii	"F\035v\337\014;\363\275\335\025\010\256\343A\367#\201"
  41      0C3BF3BD 
  41      DD1508AE 
  41      E341F723 
  41      81
  42 004a B2663AA0 		.ascii	"\262f:\240L\276\201AAHS\200\350\013\373O\314f?e\271"
  42      4CBE8141 
  42      41485380 
  42      E80BFB4F 
  42      CC663F65 
  43 005f 3D9D3EBE 		.ascii	"=\235>\276\306?+\246\025\235\011\011W\205y\025c\235"
ARM GAS  /var/folders/c6/c789hm653lg9vtl73krp73tm0000gn/T//ccvFz436.s 			page 3


  43      C63F2BA6 
  43      159D0909 
  43      57857915 
  43      639D
  44 0071 C3284926 		.ascii	"\303(I&\245P\215\020dLM\325\030\325\265\257\331\331"
  44      A5508D10 
  44      644C4DD5 
  44      18D5B5AF 
  44      D9D9
  45 0083 60B838EE 		.ascii	"`\2708\356\216|\346;s\250\"M4\212mb\216\031\333d\223"
  45      8E7CE63B 
  45      73A8224D 
  45      348A6D62 
  45      8E19DB64 
  46 0098 D2D06CDF 		.ascii	"\322\320l\337\371b\257\2059\311\012\245\327\323\375"
  46      F962AF85 
  46      39C90AA5 
  46      D7D3FD
  47 00a7 41AE69E7 		.ascii	"A\256i\347>m\241&]K.\366\1777\244{\237\2243\231\007"
  47      3E6DA126 
  47      5D4B2EF6 
  47      7F37A47B 
  47      9F943399 
  48 00bc 7E31D8A6 		.ascii	"~1\330\246\025\313]\242\246\326\372\0333U\362<\337\256"
  48      15CB5DA2 
  48      A6D6FA1B 
  48      3355F23C 
  48      DFAE
  49 00ce 28F6BB3D 		.ascii	"(\366\273=?\356\006~\320\012_\303\267(\352\304^\200"
  49      3FEE067E 
  49      D00A5FC3 
  49      B728EAC4 
  49      5E80
  50 00e0 7F46284B 		.ascii	"\177F(K\234"
  50      9C
  51              		.text
  52              		.section	.gnu.lto_chPoolLoadArray.429ad536565160d5,"",%progbits
  53 0000 789CBD54 		.ascii	"x\234\275TMh\023A\024~of7i\223H\365&R\322\340\017\370"
  53      4D681341 
  53      147E6F66 
  53      37699348 
  53      F52652D2 
  54 0017 531A6F9E 		.ascii	"S\032o\236\004\245 x\310\305\266\240'\331\256!\2154"
  54      04A52078 
  54      C8C5B6A0 
  54      27D9AE21 
  54      8D34
  55 0029 26246DA9 		.ascii	"&$m\251^\234\266\241\012\326R\252\210Z\013\376\377!"
  55      5E9CB6A1 
  55      0AD652AA 
  55      885A0BFE 
  55      FF21
  56 003b 8AFF5245 		.ascii	"\212\377RE\243\242m\321\026{\263E$EDD\017zQ\0041\276"
  56      A3A26DD1 
  56      167BB345 
  56      24454444 
  56      0F7A5104 
ARM GAS  /var/folders/c6/c789hm653lg9vtl73krp73tm0000gn/T//ccvFz436.s 			page 4


  57 0051 D9C96E92 		.ascii	"\331\311n\222\372\223\203\340\220\235\235\235\367\315"
  57      FA9383E0 
  57      909D9D9D 
  57      F7CD
  58 005f F7E67DEF 		.ascii	"\367\346}\357\3451`0w\254\245\307t\001|\2447\272\000"
  58      E5316030 
  58      77ACA5C7 
  58      74017CA4 
  58      37BA00
  59 0072 D9C02440 		.ascii	"\331\300$@W\005CM-\270Z<\254\320\030\357\033\005\020"
  59      5705434D 
  59      2DB85A3C 
  59      ACD018EF 
  59      1B0510
  60 0085 1E3DED06 		.ascii	"\036=\355\006\341\323\021\345> \354f\\\323q\367\026"
  60      E1D311E5 
  60      3E20EC66 
  60      5CD371F7 
  60      16
  61 0096 B4F8AEB0 		.ascii	"\264\370\256\260L6\227\273<\270\347\376s\034f\013\020"
  61      4C3697BB 
  61      3CB8E7FE 
  61      731C660B 
  61      10
  62 00a7 62485E63 		.ascii	"bH^c\210\032\322J\247\011\3354\261J\210\"x\244\325+"
  62      881AD24A 
  62      A709DD34 
  62      B14A8822 
  62      78A4D52B 
  63 00bb AD3EFA94 		.ascii	"\255>\372\224\004:\244\205\030\010\304\220\323\265,"
  63      043AA485 
  63      1808C490 
  63      D3B52C
  64 00ca C6469AC9 		.ascii	"\306F\232\311c\0232z\361qxT\001t@#\012\025@\023A\351"
  64      6313327A 
  64      F1717854 
  64      01744023 
  64      0A154013 
  65 00e0 6264E9CE 		.ascii	"bd\351\316N>v\033x\002u\002\350\204\001\030\007\246"
  65      4E3E761B 
  65      78027502 
  65      E8840118 
  65      07A6
  66 00f2 3616C309 		.ascii	"6\026\303\011!\0063\007\366<C1(\272>\345rUQd\014\226"
  66      21063307 
  66      F63C4331 
  66      28BA3EE5 
  66      72555164 
  67 0108 A074B319 		.ascii	"\240t\263\031\243\310\003\326K\323J\365\211\310k\021"
  67      A3C803D6 
  67      4BD34AF5 
  67      89C86B11 
  68 0118 B7E5D545 		.ascii	"\267\345\325E\274\366\227b\314^}{\260\366\210\310\244"
  68      BCF69762 
  68      CC5E7D7B 
  68      B0F688C8 
  68      A4
ARM GAS  /var/folders/c6/c789hm653lg9vtl73krp73tm0000gn/T//ccvFz436.s 			page 5


  69 0129 8F8BEFB9 		.ascii	"\217\213\357\271\034\022\201\316 T\216\224\230Ji\304"
  69      1C1281CE 
  69      20548E94 
  69      984A69C4 
  70 0139 35212A2D 		.ascii	"5!*-\012N\014\006\236\241\350\376\205\202\242>U\226"
  70      0A4E0C06 
  70      9EA1E8FE 
  70      8582A23E 
  70      5596
  71 014b A228B47C 		.ascii	"\242(\264|0/z\177\270J\202q1\330U.\030\271\347\012\320"
  71      302F7A7F 
  71      B84A8271 
  71      31D8552E 
  71      18B9E70A 
  72 0160 6212BA3F 		.ascii	"b\022\272?\357}r\255\217\347\223hg3sj\177n\336r\003"
  72      EF7D72AD 
  72      8FE79368 
  72      6733736A 
  72      7F6EDE72 
  73 0175 CFE36227 		.ascii	"\317\343b'\303\231\257\207\356y\253\235\257\361'\334"
  73      C399AF87 
  73      EE79AB9D 
  73      AFF127DC 
  74 0185 59BF99B9 		.ascii	"Y\277\231\271\260\010\015<Gh\003\317\026\237\331\367"
  74      B0080D3C 
  74      476803CF 
  74      169FD9F7 
  75 0195 6E961B78 		.ascii	"n\226\033x\3322\234\264\014*\271&\312;\312p9=\032=:"
  75      DA329CB4 
  75      0C2AB926 
  75      CA3BCA70 
  75      393D1A3D 
  76 01aa 58A58930 		.ascii	"X\245\2110A[T(\\U\276\037^\343\2608\274.\212\356\222"
  76      415B5428 
  76      5C55BE1F 
  76      5EE3B038 
  76      BC2E8AEE 
  77 01bf 9B17ECB3 		.ascii	"\233\027\354\263y{\205\212\255X\235\314\201\376\342"
  77      797B858A 
  77      AD589DCC 
  77      81FEE2
  78 01ce E2F9DF59 		.ascii	"\342\371\337Y\312\276z\353\315\013\373\033*\242y\217"
  78      CABE7AEB 
  78      CD0BFB1B 
  78      2AA2798F 
  79 01de E532650B 		.ascii	"\3452e\013)\256\037\363\033x\313\322\361f^\307\313\226"
  79      29AE1FF3 
  79      1B78CBD2 
  79      F1665EC7 
  79      CB96
  80 01f0 8E2EB03E 		.ascii	"\216.\260>\356\320\246\345w\002\272g\356\214\314\322"
  80      EED0A6E5 
  80      7702BA67 
  80      EE8CCCD2 
  81 0200 456F933D 		.ascii	"Eo\223=\202\276!8\332%\304|r\030A\267\364Q\231g&\344"
  81      82BE2138 
  81      DA25C47C 
ARM GAS  /var/folders/c6/c789hm653lg9vtl73krp73tm0000gn/T//ccvFz436.s 			page 6


  81      721841B7 
  81      F4519967 
  82 0216 F88047E1 		.ascii	"\370\200G\341V\301EAc\036\241\034\274\207\370$^u\211"
  82      56C14541 
  82      631EA11C 
  82      BC87F824 
  82      5E7589
  83 0229 66B4FC8C 		.ascii	"f\264\374\214\310D\021\253:\376r\344\033*\202?x\371"
  83      C84411AB 
  83      3AFE72E4 
  83      1B2A823F 
  83      78F9
  84 023b B560A77A 		.ascii	"\265`\247z'Fq\260G\214\211t\206*\266\206\362i\340\205"
  84      274671B0 
  84      478C8974 
  84      862AB686 
  84      F269E085 
  85 024f B29A5A89 		.ascii	"\262\232Z\211\207\277\227\354p\025\225\354\203\322\222"
  85      87BF97EC 
  85      701595EC 
  85      83D292
  86 025e FDE0F53B 		.ascii	"\375\340\365;-\252P\273OyA@\253\256L*\237_k\320\300"
  86      2DAA50BB 
  86      4F794140 
  86      ABAE4C2A 
  86      9F5F6BD0 
  87 0273 ABB4705C 		.ascii	"\253\264p\\\3335g\340\015\364;\032\316\034\3762\246"
  87      DB3567E0 
  87      0DF43B1A 
  87      CE1CFE32 
  87      A6
  88 0284 A9AA8E60 		.ascii	"\251\252\216`\345*X\031E\257RC\014\321I_^\017=\257\""
  88      E52A5819 
  88      45AF5243 
  88      0CD1495F 
  88      5E0F3DAF 
  89 0299 3AEAF7EC 		.ascii	":\352\367\354\353\361\333\347\244\326\021\251\231\323"
  89      EBF1DBE7 
  89      A4D611A9 
  89      99D3
  90 02a7 FEA8CDD2 		.ascii	"\376\250\315\322\266\205\333\333\363\241\337e#\275\021"
  90      B685DBDB 
  90      F3A1DF65 
  90      23BD11
  91 02b6 6492CF9B 		.ascii	"d\222\317\233\243Q\005%'\210\302\253\330\233\350?E\315"
  91      A3510525 
  91      2788C2AB 
  91      D89BE83F 
  91      45CD
  92 02c8 9EDB6D90 		.ascii	"\236\333m\220,\254\320\024UZ\306 \375\361\341\320\250"
  92      2CACD014 
  92      555AC620 
  92      FDF1E1D0 
  92      A8
  93 02d9 CF6656B4 		.ascii	"\317fV\264\005\311\247\201Ni\214&\017\357\273[=\015"
  93      05C9A781 
  93      4E698C26 
ARM GAS  /var/folders/c6/c789hm653lg9vtl73krp73tm0000gn/T//ccvFz436.s 			page 7


  93      0FEFBB5B 
  93      3D0D
  94 02eb 2C42AD52 		.ascii	",B\255R\372\340\227\356.\224>t\331\337\247\240+\373"
  94      FAE097EE 
  94      2E943E74 
  94      D9DFA7A0 
  94      2BFB
  95 02fd 6A8922B1 		.ascii	"j\211\"\261G#\361\247\335R\254@]]P\375\342\251`\262"
  95      4723F1A7 
  95      DD52AC40 
  95      5D5D50FD 
  95      E2A960B2 
  96 0311 2D984A9A 		.ascii	"-\230J\232A\263%\026\216%\342\361\326T\235\011Z\274"
  96      41B32516 
  96      8E25E2F1 
  96      D6549D09 
  96      5ABC
  97 0323 797B62E9 		.ascii	"y{b\351\034Tt\207\331\332\276-\\\214l\001\026K\254\230"
  97      1C547487 
  97      D9DABE2D 
  97      5C8C6C01 
  97      164BAC98 
  98 0337 834BC493 		.ascii	"\203K\304\223m\251\340\372M\241\372P'\201\315x2\274"
  98      6DA9E0FA 
  98      4DA1FA50 
  98      2781CD78 
  98      32BC
  99 0349 B5634D8C 		.ascii	"\265cM\214\300z\207\321\332\036\256-\306\207;\333\202"
  99      C07A87D1 
  99      DA1EAE2D 
  99      C6873BDB 
  99      82
 100 035a F5A1868D 		.ascii	"\365\241\206\215\015\005z\2117c\033\332w\230t\244\346"
 100      0D057A89 
 100      37631BDA 
 100      779874A4 
 100      E6
 101 036b 8F9748ED 		.ascii	"\217\227H\355\224\376\347\207\0326\005\232\215T8\221"
 101      94FEE787 
 101      1A36059A 
 101      8D543891 
 102 037b 8CD60696 		.ascii	"\214\326\006\226\255\006\226\0047\335/\236\334\011<"
 102      AD069604 
 102      37DD2F9E 
 102      DC093C
 103 038a D192F809 		.ascii	"\321\222\370\011\204\250\272\012"
 103      84A8BA0A 
 104              		.text
 105              		.section	.gnu.lto_chPoolAllocI.429ad536565160d5,"",%progbits
 106 0000 789C8552 		.ascii	"x\234\205R\275K\034A\024\177\277\371Xo\357\224\210\225"
 106      BD4B1C41 
 106      147FBFF9 
 106      586FEF94 
 106      8895
 107 0012 581D4911 		.ascii	"X\035I\021\210pW\212\205\177A\332\010\332\251\213\350"
 107      8870578A 
 107      857F41DA 
ARM GAS  /var/folders/c6/c789hm653lg9vtl73krp73tm0000gn/T//ccvFz436.s 			page 8


 107      08DAA98B 
 107      E8
 108 0023 851C279E 		.ascii	"\205\034'\236mpN\256\022\013\223\312\017$~`c\243\245"
 108      6D704EAE 
 108      120B93CA 
 108      0F247E60 
 108      63A3A5
 109 0036 85E0A653 		.ascii	"\205\340\246S\310\007v1\325\221\332F$`!Y\337\314\356"
 109      C8077631 
 109      D591DA46 
 109      24602159 
 109      DFCCEE
 110 0049 2C5C0C64 		.ascii	",\\\014d\330\235\267\363v~\037\357\315\010\022\364\367"
 110      D89DB7F3 
 110      767E1FEF 
 110      CD0812F4 
 110      F7
 111 005a 78CDEF31 		.ascii	"x\315\3571\247_rD\017A\254\177#j\025\204\220;cd\212"
 111      A75F7244 
 111      0F41AC7F 
 111      236A1584 
 111      903B6364 
 112 006f EAAE9F4C 		.ascii	"\352\256\237L\257D\220\246\225\320\3336\035\374\266"
 112      AF4490A6 
 112      95D0DB36 
 112      1DFCB6
 113 007e 69EDD301 		.ascii	"i\355\323\001`?\010\264,\244\322\001\226'a\311\361\234"
 113      603F08B4 
 113      2CA4D201 
 113      962761C9 
 113      F19C
 114 0090 F68CF9D8 		.ascii	"\366\214\371\3309\374s\201M\023\267w\315C\222\0005\260"
 114      39FC7381 
 114      4D13B777 
 114      CD439200 
 114      35B0
 115 00a2 9117A008 		.ascii	"\221\027\240\0104\301\013\224]\020\252\333\331\261\210"
 115      34C10B94 
 115      5D10AADB 
 115      D9B188
 116 00b1 3B49B276 		.ascii	";I\262v~\366k\023\003\275\240i\3541\237B\035\244\263"
 116      7EF66B13 
 116      03BDA069 
 116      EC319F42 
 116      1DA4B3
 117 00c4 454035C8 		.ascii	"E@5\310\002O*\344I\227\2624\017Mmc\326\313\351\272\016"
 117      024F2AE4 
 117      4997B234 
 117      0F4D6D63 
 117      D6CBE9BA 
 118 00d9 76133947 		.ascii	"v\0239Gox\266V\307!l\224_i\345\347\217$\3064\016\240"
 118      6F78B656 
 118      C7216C94 
 118      5F69E5E7 
 118      8F24C634 
 119 00ef 690E7A98 		.ascii	"i\016z\230\216\014\217Q&\336\246-\266\025\314AY{=\316"
 119      8E0C8F51 
ARM GAS  /var/folders/c6/c789hm653lg9vtl73krp73tm0000gn/T//ccvFz436.s 			page 9


 119      26DEA62D 
 119      B615CC41 
 119      597B3DCE 
 120 0103 D40CBCBD 		.ascii	"\324\014\274\275KZ\211\007SX\252\302`\242\013j\337|"
 120      4B5A8907 
 120      5358AAC2 
 120      60A20B6A 
 120      DF7C
 121 0115 FEB02A73 		.ascii	"\376\260*s>\013\355*k\034\222v\306\234\360\351\376m"
 121      3E0BED2A 
 121      6B1C9276 
 121      C69CF0E9 
 121      FE6D
 122 0127 BE3118A6 		.ascii	"\2761\030\246W\271f!\003\312L\32330\350\362\244\230"
 122      57B96621 
 122      03CA4CD3 
 122      3330E8F2 
 122      A498
 123 0139 4232A3CF 		.ascii	"B2\243\317\376c\224\231\275\256\242\273~\247{\277\177"
 123      FE639499 
 123      BDAEA2BB 
 123      7EA77BBF 
 123      7F
 124 014a 9B175C70 		.ascii	"\233\027\\p\272\341\277)\374u\261U\265Fr\210\335\022"
 124      BAE1BF29 
 124      FC75B155 
 124      B5467288 
 124      DD12
 125 015c 76D7A4E9 		.ascii	"v\327\244\351S\237\343\3368\270\316k\012\035w\221\271"
 125      539FE3DE 
 125      38B8CE6B 
 125      0A1D7791 
 125      B9
 126 016d 5BECF4FD 		.ascii	"[\354\364\375S~\231\341\277S;\036\362\250\022+X\337"
 126      537E99E1 
 126      BF533B1E 
 126      F2A8122B 
 126      58DF
 127 017f 610D25DB 		.ascii	"a\015%\333f\321\335\344\222\227\014\334\001\3621\360"
 127      66D1DDE4 
 127      92970CDC 
 127      01F231F0 
 128 018f 6EFF938B 		.ascii	"n\377\223\213\276\242Vgc\326\223\271.\\\023\270\241"
 128      BEA25667 
 128      63D693B9 
 128      2E5C13B8 
 128      A1
 129 01a0 F2E67C8A 		.ascii	"\362\346|\212\203\262\034\372\313\325\274\275\014\260"
 129      83B21CFA 
 129      CBD5BCBD 
 129      0CB0
 130 01ae 1CB6CA72 		.ascii	"\034\266\312r\245RM\237F\263\272\270Tm.F\325h\276>["
 130      A5524D9F 
 130      46B3BAB8 
 130      546D2E46 
 130      D568BE3E 
 131 01c3 5F6834DE 		.ascii	"_h4\3365+\021\251\306\314\333\205G\307A\245\033"
ARM GAS  /var/folders/c6/c789hm653lg9vtl73krp73tm0000gn/T//ccvFz436.s 			page 10


 131      352B11A9 
 131      C6CCDB85 
 131      47C741A5 
 131      1B
 132              		.text
 133              		.section	.gnu.lto_chPoolAlloc.429ad536565160d5,"",%progbits
 134 0000 789C8D54 		.ascii	"x\234\215T]H\024Q\024>\347\316\317\376Yn=U\204-E\017"
 134      5D481451 
 134      143EE7CE 
 134      CFFE596E 
 134      3D55842D 
 135 0016 A5ECF6E6 		.ascii	"\245\354\366\346SP\010A\204/\232PO5NK\273\341\266\313"
 135      53500841 
 135      842F9A50 
 135      4F354E4B 
 135      BBE1B6CB 
 136 002a AE8A3E79 		.ascii	"\256\212>yW\214(|0)\350\007\251,_\0222\015\312\300j"
 136      578C287C 
 136      3029E807 
 136      A92C5F12 
 136      320DCAC0 
 137 003f 23A2ECC7 		.ascii	"#\242\354\307\360!\3102X\352!*\241D\202\212j;\367\316"
 137      F021C832 
 137      58EA212A 
 137      A144828A 
 137      6A3BF7CE 
 138 0053 CC36BB51 		.ascii	"\3146\273Q6\2733\367\336\363\367}\347\2349\303\200A"
 138      36BB33F7 
 138      DEF3F77D 
 138      E79C39C3 
 138      8041
 139 0065 F9B583EE 		.ascii	"\371\265\203\356:\015\340.\255\350\001d}S\000Y/c\312"
 139      3A0DE02E 
 139      ADE80164 
 139      7D530059 
 139      2F63CA
 140 0078 C066E07E 		.ascii	"\300f\340~u!\010\274BA\335\022\253L;#\304\372g!\326"
 140      752108BC 
 140      4241DD12 
 140      AB4C3B23 
 140      C4FA6721 
 141 008d 1CB18E28 		.ascii	"\034\261\216(6\200\320\305\024U\323\261k7\212\340\270"
 141      3680D0C5 
 141      1455D3B1 
 141      6B378AE0 
 141      B8
 142 009e 16CE73DE 		.ascii	"\026\316s\336\237\2777<\211\247x\256\347\034\377^( "
 142      9FBF373C 
 142      89A778AE 
 142      E71CFF5E 
 142      2820
 143 00b0 C69188AC 		.ascii	"\306\221\210\254C0\021v\321\001Craj)\263\021\226\313"
 143      43301176 
 143      D1014372 
 143      616A29B3 
 143      1196CB
 144 00c3 170AB3CF 		.ascii	"\027\012\263\317\306_\337\304\345\313\024L \350`\340"
ARM GAS  /var/folders/c6/c789hm653lg9vtl73krp73tm0000gn/T//ccvFz436.s 			page 11


 144      C65FDFC4 
 144      E5CB144C 
 144      20E860E0 
 145 00d3 790AEA81 		.ascii	"y\012\352\2018*^z\250>zh~[\034\260W\2724\350\341\274"
 145      382A5E7A 
 145      A83E7A68 
 145      7E5B1CB0 
 145      57BA34E8 
 146 00e9 2FE49C4D 		.ascii	"/\344\234MIg'=\005\317&dbU&\241\333\013`s\034\235\277"
 146      4967273D 
 146      05CF2664 
 146      625526A1 
 146      DB0B6073 
 147 0100 5E53C251 		.ascii	"^S\302Qg\320\260\030G!\323C\264\231\202\356\371\361"
 147      67D0B018 
 147      4721D343 
 147      B49982EE 
 147      F9F1
 148 0112 BB63BD8A 		.ascii	"\273c\275\212\015\3540\310\275\371\3661\310\014\274"
 148      0DEC30C8 
 148      BDF9F631 
 148      C80CBC
 149 0121 2869D8B2 		.ascii	"(i\330\262\353\307'\002\253\213\247#\263\324\025\003"
 149      EBC72702 
 149      AB8BA723 
 149      B3D41503 
 150 0131 2FA04660 		.ascii	"/\240F`\002\220\321\255\310\362\321o\210\266\244W\254"
 150      0290D1AD 
 150      C8F2D16F 
 150      88B6A457 
 150      AC
 151 0142 D655C135 		.ascii	"\326U\3015\034\340'\267\304\251Un\370\337\372\033\266"
 151      1CE027B7 
 151      C4A9556E 
 151      F8DFFA1B 
 151      B6
 152 0153 DE6B1174 		.ascii	"\336k\021t\247\230{\371\360\021\362~\236\375T(T\306"
 152      A7987BF9 
 152      F011F27E 
 152      9EFD5428 
 152      54C6
 153 0165 D1C7E00E 		.ascii	"\321\307\340\016.\226\340~\301\344\011t\277x^\310\241"
 153      2E96E07E 
 153      C1E40974 
 153      BF785EC8 
 153      A1
 154 0176 9D9B1D6D 		.ascii	"\235\233\035m\341~\357J~\256\273\217\377\244zQK\015"
 154      E17EEF4A 
 154      7EAEBB8F 
 154      FFA47A51 
 154      4B0D
 155 0188 1C94D4FF 		.ascii	"\034\224\324\377\025\316I\232\277=\261\302\300\021Y"
 155      15CE499A 
 155      BF3DB1C2 
 155      C01159
 156 0197 142775D5 		.ascii	"\024'u\325\302\323\253\341\022\347<\367\343\360Rj\362"
 156      C2D3ABE1 
ARM GAS  /var/folders/c6/c789hm653lg9vtl73krp73tm0000gn/T//ccvFz436.s 			page 12


 156      12E73CF7 
 156      E3F0526A 
 156      F2
 157 01a8 19389DE5 		.ascii	"\0318\235\345<\030G?1\021\021}2J3J\307\253\344h%\231"
 157      3C18473F 
 157      3111117D 
 157      324A334A 
 157      C7ABE468 
 158 01be A370A374 		.ascii	"\243p\243t2p\214\202R\024\200\007\3203w\347\330Q\305"
 158      32708C82 
 158      52148007 
 158      D03377E7 
 158      D851C5
 159 01d1 529048B8 		.ascii	"R\220H\270\227pi\242\344\0066+\"\275\361\301\371\242"
 159      977069A2 
 159      E406362B 
 159      22BDF1C1 
 159      F9A2
 160 01e3 A1A71A36 		.ascii	"\241\247\0326\272\241\003\266\257bC\243\013\232|'\257"
 160      BAA103B6 
 160      AF6243A3 
 160      0B9A7C27 
 160      AF
 161 01f4 F82D4F8B 		.ascii	"\370-O\2138\257\374?\332\373\255\026\012\026*,\004%"
 161      38AFFC3F 
 161      DAFBAD16 
 161      0A162A2C 
 161      0425
 162 0206 8B2F83F3 		.ascii	"\213/\203\363\350\260\360J\026\025\177\215\304\\,D\252"
 162      E8B0F04A 
 162      16157F8D 
 162      C45C2C44 
 162      AA
 163 0217 D9DAA2A7 		.ascii	"\331\332\242\2470\253(MT\203\263K$\304\311\0133\305"
 163      30AB284D 
 163      5483B34B 
 163      24C4C90B 
 163      33C5
 164 0229 447D1262 		.ascii	"D}\022b\311_!\024\027\304S\350\311\255r\034\311\320"
 164      C95F2114 
 164      17C453E8 
 164      C9AD721C 
 164      C9D0
 165 023b 2B32F0C5 		.ascii	"+2\360\305q\251(?+-\276\337A\325]c\346(\003\262_\371"
 165      71A9283F 
 165      2B2DBEDF 
 165      41D55D63 
 165      E62803B2 
 166 0251 1B8774AB 		.ascii	"\033\207t\253\361\305\221\205\322q|7Q6\216\006\016-"
 166      F1C59185 
 166      D2717C37 
 166      51368E06 
 166      0E2D
 167 0263 FA7EC981 		.ascii	"\372~\311\201\200\177\316\343\373\257b\036o\225\316"
 167      807FCEE3 
 167      FBAF621E 
 167      6F95CE
ARM GAS  /var/folders/c6/c789hm653lg9vtl73krp73tm0000gn/T//ccvFz436.s 			page 13


 168 0272 E3874055 		.ascii	"\343\207@U\361\233\361{0_\271\006S\026\301\244\340\177"
 168      F19BF17B 
 168      305FB906 
 168      5316C1A4 
 168      E07F
 169 0284 CEA681C3 		.ascii	"\316\246\201\303\264)B;\263h\340e\254\262hMC6?\021\265"
 169      B429423B 
 169      B368E065 
 169      ACB2684D 
 169      43363F11 
 170 0299 42C90A00 		.ascii	"B\311\012\000\314\200x\255\224\271\333{iQE\321\264\307"
 170      CC8078AD 
 170      94B9DB7B 
 170      695145D1 
 170      B4C7
 171 02ab D331F18D 		.ascii	"\3231\361\215BQ4\021!\024\016G\254\1772\023I\267F2i"
 171      42513411 
 171      21140E47 
 171      AC7F3213 
 171      49B74632 
 172 02c0 3362C612 		.ascii	"3b\306\022\321D*\231l\311\204MP\223\315\007R\033\312"
 172      D1442A99 
 172      6CC9844D 
 172      5093CD07 
 172      521BCA
 173 02d3 AC52C974 		.ascii	"\254R\311tk&\262\265\241\276\256\276\203\314\315d:\272"
 173      6B26B2B5 
 173      A1BEAEBE 
 173      83CCCD64 
 173      3ABA
 174 02e5 A7BD3611 		.ascii	"\247\2756\021\216\201\326n\264\264Ek\334\366\321\216"
 174      8E81D66E 
 174      B4B4456B 
 174      DCF6D18E 
 175 02f5 D6485D7D 		.ascii	"\326H]}\343\366\306H\374\240\331\322\266/\032\221\366"
 175      E3F6C648 
 175      FCA0D9D2 
 175      B62F1A91 
 175      F6
 176 0306 66625BDB 		.ascii	"fb[\333A\223\\\326\224\005/Z\3052\235\031\322\007\353"
 176      41935CD6 
 176      94052F5A 
 176      C5329D19 
 176      D207EB
 177 0319 1B1B42CD 		.ascii	"\033\033B\315F&\232J\307kB\3537\001K\203\207\030&\323"
 177      46269A4A 
 177      C76B42EB 
 177      37014B83 
 177      871826D3 
 178 032d 9DC012A9 		.ascii	"\235\300\022\251_\361\017r\360"
 178      5FF10F72 
 178      F0
 179              		.text
 180              		.section	.gnu.lto_chPoolFreeI.429ad536565160d5,"",%progbits
 181 0000 789C8551 		.ascii	"x\234\205Q\261J\003A\020}o\367\016E\361\003\322\205"
 181      B14A0341 
 181      107D6FF7 
ARM GAS  /var/folders/c6/c789hm653lg9vtl73krp73tm0000gn/T//ccvFz436.s 			page 14


 181      0E45F103 
 181      D285
 182 0012 881606EE 		.ascii	"\210\026\006\356~&\202\026\026\361\220\213\340qG\316"
 182      7E268216 
 182      16F1908B 
 182      E07147CE 
 183 0022 3E9BE007 		.ascii	">\233\340\007\0346\2026\306\322\"6\"\032,\322\206\020"
 183      1C368236 
 183      C6D22236 
 183      221A2CD2 
 183      8610
 184 0034 C14EAC62 		.ascii	"\301N\254b\355\027\330x\316\336%Bl\034vgfw\346\315{"
 184      ED17D878 
 184      CEDE2542 
 184      6C1C7667 
 184      6677E6CD 
 185 0049 CB2A28FC 		.ascii	"\313*(\374\265\212\354\003\002\333\022\251A\225\275"
 185      B58AEC03 
 185      02DB12A9 
 185      4195BD
 186 0058 00DD5545 		.ascii	"\000\335UE\332\004DG\261\263\317\242\367N\215fy>x\230"
 186      DA044447 
 186      B1B3CFA2 
 186      F74E8D66 
 186      793E7898 
 187 006c DC3F73A0 		.ascii	"\334?s\240V\310\210\320\342\350\340\270\350pqfLV\255"
 187      56C888D0 
 187      E2E8E0B8 
 187      E8707166 
 187      4C56AD
 188 007f A16FCCF9 		.ascii	"\241o\314\371\350irQ1\327\275\314|\3479\245Aa\223\010"
 188      E8697251 
 188      31D7BDCC 
 188      7CE739A5 
 188      41619308 
 189 0093 883D39B0 		.ascii	"\210=9\260Z\004\345,\253\211(\012\203bVC\274\225\260"
 189      5A04E52C 
 189      AB89280A 
 189      83625643 
 189      BC95B0
 190 00a6 2B5712F5 		.ascii	"+W\022\365\030\252\311>]4y\303\032BJ}\212\336\373\343"
 190      18AAC93E 
 190      5D3479C3 
 190      1A424A7D 
 190      8ADEFBE3 
 191 00ba F0635E08 		.ascii	"\360c^\010\351\324\261#DW\270\224\331:\244\266\034%"
 191      E9D4B123 
 191      4457B894 
 191      D93AA4B6 
 191      1C25
 192 00cc C521171C 		.ascii	"\305!\027\034\002\032gk%\244\216[#\266\361\013re\256"
 192      021A676B 
 192      25A48E5B 
 192      23B6F10B 
 192      7265AE
 193 00df 05610E2A 		.ascii	"\005a\016*\223\320\016\261\270\267\341\027\227\220\353"
 193      93D00EB1 
ARM GAS  /var/folders/c6/c789hm653lg9vtl73krp73tm0000gn/T//ccvFz436.s 			page 15


 193      B8B7E117 
 193      9790EB
 194 00ee FFD01532 		.ascii	"\377\320\0252_\321\235}n\225\270\2055\244 \317\262\037"
 194      5FD19D7D 
 194      6E95B885 
 194      35A420CF 
 194      B21F
 195 0100 52F53CBF 		.ascii	"R\365<\277\\q\352\267O\375\264\035\370A+:\212\2228>"
 195      5C71EAB7 
 195      4FFDB41D 
 195      F8412B3A 
 195      8A92383E 
 196 0114 49BD003A 		.ascii	"I\275\000:i%?\265>YW"
 196      69253FB5 
 196      3E5957
 197              		.text
 198              		.section	.gnu.lto_chPoolFree.429ad536565160d5,"",%progbits
 199 0000 789C8D53 		.ascii	"x\234\215SKh\023Q\024\275\367M\322\244F1[Ab(\210hC\306"
 199      4B681351 
 199      14BDF74D 
 199      D2A44631 
 199      5B416228 
 200 0018 9D5BA520 		.ascii	"\235[\245 \270\310\246\251\240+\231\214\241\031I:\303"
 200      B8C8A6A9 
 200      A02B998C 
 200      A119493A 
 200      C3
 201 0029 4C52DA55 		.ascii	"LR\332U_B\227\022B\024\374CkW~Cc\300R\003\006\374\021"
 201      5F429712 
 201      4214FC43 
 201      6B577E43 
 201      63C05203 
 202 0040 C4823B11 		.ascii	"\304\202;\021\221\270p\341\007l\227\025!\336y\223\304"
 202      91B870E1 
 202      076C9715 
 202      21DE7993 
 202      C4
 203 0051 4914D347 		.ascii	"I\024\323Gf\336\233y\367\234s\337\311\031\006\014\006"
 203      66DE9B79 
 203      F79C73DF 
 203      C919060C 
 203      06
 204 0062 C73EBA3E 		.ascii	"\307>\272>J\000\257hF\011\220\2256\000\362~\206h/\000"
 204      4A00AF68 
 204      46099095 
 204      3600F27E 
 204      86682F00 
 205 0076 6181E1C2 		.ascii	"a\201\341\302Y\024\265\025\326h\265\333\017\313\305"
 205      5914B515 
 205      D668B5DB 
 205      0FCBC5
 206 0085 DA775C63 		.ascii	"\332w\\c\273%\314 x\350\206>\320D\205\027\0269/\205"
 206      BB25CC20 
 206      78E8863E 
 206      D0448517 
 206      16392F85 
 207 0099 0154F138 		.ascii	"\001T\3618Ew\233\34542{\226\232P\360\003\214\3012\347"
ARM GAS  /var/folders/c6/c789hm653lg9vtl73krp73tm0000gn/T//ccvFz436.s 			page 16


 207      45779BE5 
 207      34327B96 
 207      9A50F003 
 207      8CC132E7 
 208 00ad E5D695AD 		.ascii	"\345\326\225\255\307\221k\274\261\270\304\177\265\333"
 208      C7916BBC 
 208      B1B8C47F 
 208      B5DB
 209 00bb 881A5251 		.ascii	"\210\032RQ\014m\344\031z`a1I\236\376n\355wH\374\260"
 209      0C6DE419 
 209      7A606131 
 209      499EFE6E 
 209      ED7748FC 
 210 00d0 0185AD7B 		.ascii	"\001\205\255{\317\252\027\245\236\244\263hT~\376\010"
 210      CFAA17A5 
 210      9EA4B368 
 210      547EFE08 
 211 00e0 32056FE3 		.ascii	"2\005o\343X\257\237\306\312\345z`\177\357\251\371\202"
 211      58AF9FC6 
 211      CAE57A60 
 211      7FEFA9F9 
 211      82
 212 00f1 8EABE032 		.ascii	"\216\253\3402zI\314\026dtI \016\213\260DKrIr\254\012"
 212      7A49CC16 
 212      64744920 
 212      0E8BB044 
 212      4B724972 
 213 0107 C12ADEE2 		.ascii	"\301*\336\342W\217k\350\351\223\377\263_\353\354{\235"
 213      578F6BE8 
 213      E993FFB3 
 213      5FEBEC7B 
 213      9D
 214 0118 06DD476C 		.ascii	"\006\335Gl\\*\276F^\346\371\315v{\257\206#\014\3528"
 214      5C2ABE46 
 214      5EE6F9CD 
 214      767BAF86 
 214      230CEA38 
 215 012c EC80D376 		.ascii	"\354\200\323v'n\022^\345|Tx$i\350c\360t\007\024\036"
 215      276E125E 
 215      E57C5478 
 215      2469E863 
 215      F0740714 
 216 0141 41D1FAF0 		.ascii	"A\321\372\3609\320q\347\037T\324\377\363\241T]\317\370"
 216      39D071E7 
 216      1F54D4FF 
 216      F3A1545D 
 216      CFF8
 217 0153 A39B2105 		.ascii	"\243\233!\005+\344\251\202\017\204\263]\377\004@\301"
 217      2BE4A982 
 217      0F84B35D 
 217      FF0440C1 
 218 0163 2ABD14BA 		.ascii	"*\275\024\272o\240\360~m\375\023\375\003\253\264?\215"
 218      6FA0F07E 
 218      6DFD13FD 
 218      03ABB43F 
 218      8D
 219 0174 BE713842 		.ascii	"\276q8Bb7\340z\236\363\240\206~:\240\2554\"\330\023"
ARM GAS  /var/folders/c6/c789hm653lg9vtl73krp73tm0000gn/T//ccvFz436.s 			page 17


 219      6237E07A 
 219      9EF3A086 
 219      7E3AA0AD 
 219      3422D813 
 220 0188 28D035C7 		.ascii	"(\3205\307=\3026K\273\034\3448\334\3454\366\270\261"
 220      3DC2364B 
 220      BB1CE438 
 220      DCE534F6 
 220      B8B1
 221 019a A3A46063 		.ascii	"\243\244`c\241\203\305\036\226t\034\370\273\365m\354"
 221      A183C51E 
 221      96741CF8 
 221      BBF56DEC 
 222 01aa 2308EC4C 		.ascii	"#\010\354L\274\353\231+\236_\352\003\361TpEDeh>\341"
 222      BCEB992B 
 222      9E5FEA03 
 222      F1547045 
 222      4465683E 
 223 01bf BFF9FCBA 		.ascii	"\277\371\374\272m\347\363I\177>\277\005B\256\257\247"
 223      6DE7F349 
 223      7F3EBF05 
 223      42AEAFA7 
 224 01cf 1BD497AE 		.ascii	"\033\324\227\256\240\012\207Tj\375\357\254*x\207\026"
 224      A00A8754 
 224      6AFDEFAC 
 224      2A788716 
 225 01df 3DE96E36 		.ascii	"=\351n6\025\274\217!\247\255\267\220o\025\0179T\335"
 225      15BC8F21 
 225      A7ADB790 
 225      6F150F39 
 225      54DD
 226 01f1 3145D5F4 		.ascii	"1E\325\364Q\332\245\341hTv~\272%\233Y\3312UYMe\222\031"
 226      51DAA5E1 
 226      6854767E 
 226      BA259B59 
 226      D9325559 
 227 0209 43D7D356 		.ascii	"C\327\323VT\205\303\003\005\206nf-\371\304dl\"6G\225"
 227      5485C303 
 227      05866E66 
 227      2DF9C464 
 227      6C223647 
 228 021e AA6E26CF 		.ascii	"\252n&\317\315\036\313DS\340\235U\322\271d\304]\237"
 228      CD1ECB44 
 228      53E09D55 
 228      D2B964C4 
 228      5D9F
 229 0230 9CCBCA13 		.ascii	"\234\313\312\023\261\370\251\270\254\315\250\351\334"
 229      B1F8A9B8 
 229      ACCDA8E9 
 229      DC
 230 023d F9A42CEA 		.ascii	"\371\244,\352\325\314\311\334\214J\220\003\003\344\275"
 230      D5CCC9DC 
 230      8C4A9003 
 230      03E4BD
 231 024c AA94356F 		.ascii	"\252\2245o\321~0\026\237\014'\024+i\230Z$|\360(0\023"
 231      D17E3016 
 231      9F0C2714 
ARM GAS  /var/folders/c6/c789hm653lg9vtl73krp73tm0000gn/T//ccvFz436.s 			page 18


 231      2B69985A 
 231      247CF028 
 232 0262 7CD49C6E 		.ascii	"|\324\234n\316\003\313\030\036=q\301\220\214\224\361"
 232      CE03CB18 
 232      1E3D71C1 
 232      908C94F1 
 233 0272 1B79981E 		.ascii	"\033y\230\036j"
 233      6A
 234              		.text
 235              		.section	.gnu.lto_.symbol_nodes.429ad536565160d5,"",%progbits
 236 0000 789C4DC7 		.ascii	"x\234M\307\273\015\200@\020\003Q\333\2674K\023N/D\""
 236      BB0D8040 
 236      100351DB 
 236      B7344B13 
 236      4E2F4422 
 237 0014 A71C42BA 		.ascii	"\247\034B\272\340w\"\243\001\010\220\330IFO\020z|i\245"
 237      E07722A3 
 237      010890D8 
 237      49464F10 
 237      7A7C69A5 
 238 0028 816101EC 		.ascii	"\201a\001\354\251R\033\315\304\235V\342A\227\304\223"
 238      A9521BCD 
 238      C49D56E2 
 238      4197C493 
 239 0038 8EC44677 		.ascii	"\216\304Fw?C\030\347KQp\277\303\003Hl#\004"
 239      3F4318E7 
 239      4B5170BF 
 239      C303486C 
 239      2304
 240              		.text
 241              		.section	.gnu.lto_.refs.429ad536565160d5,"",%progbits
 242 0000 789C6362 		.ascii	"x\234cb`b`d\200\002\000\000F\000\006"
 242      60626064 
 242      80020000 
 242      460006
 243              		.text
 244              		.section	.gnu.lto_.decls.429ad536565160d5,"",%progbits
 245 0000 789CAD58 		.ascii	"x\234\255X{\214SU\032?\347\266\364A;\303h\"\031\263"
 245      7B8C5355 
 245      1A3FE7B6 
 245      F4413BC3 
 245      682219B3 
 246 0014 C932ACA0 		.ascii	"\3112\254\240\361\301\224AP\366\037G$\272L\002+\221"
 246      F1C19441 
 246      50F61F47 
 246      24BA4C02 
 246      2B91
 247 0026 906C5CCD 		.ascii	"\220l\\\315\365\322\271\332j\247m\332\016:\373\017\247"
 247      F5D2B9DA 
 247      6AA76DDA 
 247      0E3AFB0F 
 247      A7
 248 0037 33308262 		.ascii	"30\202b(\343\262@\220\265\243\270\212\017f\203<4(VT"
 248      28E3B240 
 248      90B5A3B8 
 248      8A0F6683 
 248      3C342856 
ARM GAS  /var/folders/c6/c789hm653lg9vtl73krp73tm0000gn/T//ccvFz436.s 			page 19


 249 004c 06071F63 		.ascii	"\006\007\037cL0(h1*A\214\031\226]\003\301\320\375\316"
 249      4C302868 
 249      312A418C 
 249      19965D03 
 249      C1D0FDCE 
 250 0060 E3B6F79E 		.ascii	"\343\266\367\236\271\267\323n\366f\276\336s\357\375"
 250      B9B7D36E 
 250      F666BEDE 
 250      73EFFD
 251 006f 1EBFEFF7 		.ascii	"\036\277\357\367\235\373\335sFA\012\032S\020*\3011\347"
 251      9DFBDD73 
 251      46410A1A 
 251      53102AC1 
 251      31E7
 252 0081 2A843A5D 		.ascii	"*\204:]\010y\021B\267\201\300m\324\0162\210\370\341"
 252      08791142 
 252      B781C06D 
 252      D40E3288 
 252      F8E1
 253 0093 01790564 		.ascii	"\001y\005d\004\344\030\310\011\220\"\310\0314\376\240"
 253      04E418C8 
 253      099022C8 
 253      1934FEA0 
 254 00a3 7A9340F6 		.ascii	"z\223@\366\202\014\201\354\002\331!|A\010\264\007\344"
 254      820C81EC 
 254      02D9217C 
 254      4108B407 
 254      E4
 255 00b4 2D908320 		.ascii	"-\220\203 X\350\273A\336\003\371\000d\030\344g\311'"
 255      58E8BB41 
 255      DE03F900 
 255      6418E467 
 255      C927
 256 00c6 8DDB60F2 		.ascii	"\215\333`\362K\2615\202\004\205\377\013 \227\021w\250"
 256      4BB13582 
 256      0485FF0B 
 256      20971177 
 256      A8
 257 00d7 80EC1331 		.ascii	"\200\354\0231\207D.o\212\230~\341\313\2059v\037\234"
 257      87442E6F 
 257      8A987EE1 
 257      CB853976 
 257      1F9C
 258 00e9 83205330 		.ascii	"\203 S0\317\247\031\316\277\301\234\207\317@>\007\031"
 258      CFA719CE 
 258      BFC19C87 
 258      CF403E07 
 258      19
 259 00fa 05F92DDC 		.ascii	"\005\371-\334\273\006d\006\310Ll\305vL\3400c\242\030"
 259      BB066406 
 259      C84C6CC5 
 259      764CE030 
 259      63A218
 260 010d 5F16780D 		.ascii	"_\026x\015\016\366\011\016(\256\347D\316{\004\266\203"
 260      0EF6090E 
 260      28AEE744 
 260      CE7B04B6 
ARM GAS  /var/folders/c6/c789hm653lg9vtl73krp73tm0000gn/T//ccvFz436.s 			page 20


 260      83
 261 011e 021F16FE 		.ascii	"\002\037\026\376(\346/A\256\225bQ\336\247T\211e\346"
 261      28E62F41 
 261      AE956251 
 261      DEA75489 
 261      65E6
 262 0130 6197885D 		.ascii	"a\227\210]K\\\257\360m\346\343\230\211\017\012\343k"
 262      4B5CAFF0 
 262      6DE6E398 
 262      890F0AE3 
 262      6B
 263 0141 A926942F 		.ascii	"\251&\224/\217\210o`1\347\252\230\342`\241O\353\377"
 263      8F886F60 
 263      31E7AA98 
 263      E260A14F 
 263      EBFF
 264 0153 03C8F720 		.ascii	"\003\310\367 7J\271\321zL\026\376.\230|\232\363i7\345"
 264      374AB9D1 
 264      7A4C16FE 
 264      2E987C9A 
 264      F36937E5 
 265 0167 64F6EF45 		.ascii	"d\366\357E\325\353Iu\317\202\374$\345\020@O\020\322"
 265      D5EB4975 
 265      CF82FC24 
 265      E510404F 
 265      10D2
 266 0179 4BF2FD64 		.ascii	"K\362\375d\321\221\306\251h\023\201\003.\010\316h\270"
 266      D191C6A9 
 266      68138103 
 266      2E08CE68 
 266      B8
 267 018a 3D80FE84 		.ascii	"=\200\376\2045\334\350G-l\020\3643\352\020\322\360s"
 267      35DCE847 
 267      2D6C10F4 
 267      33EA10D2 
 267      F073
 268 019c 782A1BB9 		.ascii	"x*\033\271\230c\230Uk+^\220\255\325L\264\203\220\\q"
 268      98639855 
 268      6B2B5E90 
 268      ADD54CB4 
 268      83905C71 
 269 01b0 CDD98B0A 		.ascii	"\315\331\213\012!>\015\357\300~\260\275\037\243\033"
 269      213E0DEF 
 269      C07EB0BD 
 269      1FA31B
 270 01bf D04E8899 		.ascii	"\320N\210\231\003\373\233%>D\254I\376q\327\032~\021"
 270      03FB9B25 
 270      3E44AC49 
 270      FE71D71A 
 270      7E11
 271 01d1 DF807820 		.ascii	"\337\200x \366X\014\350\233<\205\352,w\225\015\252\200"
 271      F6580CE8 
 271      9B3C85EA 
 271      2C77950D 
 271      AA80
 272 01e3 D9FFF8FE 		.ascii	"\331\377\370\376\353\031\230A\034\0000\0330.{\036\307"
 272      EB199841 
ARM GAS  /var/folders/c6/c789hm653lg9vtl73krp73tm0000gn/T//ccvFz436.s 			page 21


 272      1C00301B 
 272      302E7B1E 
 272      C7
 273 01f4 0DCFD989 		.ascii	"\015\317\331\211\217\227\301\201\331\324\214Wz6\015"
 273      8F97C181 
 273      D9D48C57 
 273      7A360D
 274 0203 FD9DE48B 		.ascii	"\375\235\344\213\305\213#\037k[Ia5)\225V!\211\370\333"
 274      C58B231F 
 274      6B5B4961 
 274      35299556 
 274      2189F8DB 
 275 0217 AE720CF4 		.ascii	"\256r\014\364\252\225x\013\304+\321F\352\245\305T\202"
 275      AA95780B 
 275      C42BD146 
 275      EAA5C554 
 275      82
 276 0228 070CFB60 		.ascii	"\007\014\373`%\353KO\016\267\261\254\207\360\225\340"
 276      25EB4B4F 
 276      0EB7B1AC 
 276      87F095E0 
 277 0238 E55B29EB 		.ascii	"\345[)\353\211\274P\024\273\301\222\3330\237\244\260"
 277      89BC5014 
 277      BBC192DB 
 277      309FA4B0 
 278 0248 F17090B8 		.ascii	"\361p\220\270\371}\344@\004\034\323Q\036\320\026\236"
 278      F97DE440 
 278      041CD351 
 278      1ED0169E 
 279 0258 EEDF7E35 		.ascii	"\356\337~5\311\037\302v\340\363\036\247\011\004\275"
 279      C91FC276 
 279      E0F31EA7 
 279      0904BD
 280 0267 9A21DD27 		.ascii	"\232!\335'\307>\247\265\360\273\023G>\177\346CL\006"
 280      C73EA7B5 
 280      F0BB1347 
 280      3E7FE643 
 280      4C06
 281 0279 821ADECB 		.ascii	"\202\032\336\313\012\376k\331\241]@1\264\314\"\371p"
 281      0AFE6BD9 
 281      A15D4031 
 281      B4CC22F9 
 281      70
 282 028a 2A13F52F 		.ascii	"*\023\365/\016\005\255V\260\340\254\3160\002\365\246"
 282      0E05AD56 
 282      B0E0ACCE 
 282      3002F5A6 
 283 029a C3CF30BE 		.ascii	"\303\3170\276\214\227f}\335\376Z,\376\266\034\016\346"
 283      8C97667D 
 283      DDFE5A2C 
 283      FEB61C0E 
 283      E6
 284 02ab 3463D26F 		.ascii	"4c\322o\253\305\231\257\032\007\246\303<34\374:\236"
 284      ABC599AF 
 284      1A07A6C3 
 284      3C3334FC 
 284      3A9E
ARM GAS  /var/folders/c6/c789hm653lg9vtl73krp73tm0000gn/T//ccvFz436.s 			page 22


 285 02bd 09BF7BF0 		.ascii	"\011\277{\360t\370}\213\375\036\204\337\011\271\333"
 285      74F87D8B 
 285      FD1E84DF 
 285      09B9DB
 286 02cc 55E14ECC 		.ascii	"U\341N\314r\236\270\371z\220\353X^t\005\275\250X\247"
 286      729EB8F9 
 286      7A90EB58 
 286      5E7405BD 
 286      A858A7
 287 02df F20CF43C 		.ascii	"\362\014\364<!\003\364U;\205\377\332G\026q\337\012z"
 287      2103F455 
 287      3B85FFDA 
 287      471671DF 
 287      0A7A
 288 02f1 83E9BD82 		.ascii	"\203\351\275\202\247\331b\020\010\2701\371\\_d\360~"
 288      A7D96210 
 288      08B831F9 
 288      5C5F64F0 
 288      7E
 289 0302 60023306 		.ascii	"`\0023\006R\230m\005\216\261\301qa\002C\221\315\265"
 289      52986D05 
 289      8EB1C171 
 289      61024391 
 289      CDB5
 290 0314 E805FA0A 		.ascii	"\350\005\372\012<E\3264a\326\004\220\260\2620|\010+"
 290      3C45D634 
 290      61D60490 
 290      B0B2307C 
 290      082B
 291 0326 E61BBC9D 		.ascii	"\346\033\274\235\024\006\206\203\271l\261T\232V{+9j"
 291      14068683 
 291      B96CB154 
 291      9A567B2B 
 291      396A
 292 0338 6D253CED 		.ascii	"m%<\355\362E{\300\256\000\022\341\037\332\022N\266\351"
 292      F2457BC0 
 292      AE0012E1 
 292      1FDA124E 
 292      B6E9
 293 034a 826A0DBF 		.ascii	"\202j\015\277\017h5<R\023\325\357P\263vJ\330q\346\327"
 293      0F68353C 
 293      5213D5EF 
 293      50B3764A 
 293      D871E6D7 
 294 035e D9AABD62 		.ascii	"\331\252\275bt\276R\237\257&\260\0229\330\322<\"\323"
 294      74BE529F 
 294      AF26B012 
 294      39D8D23C 
 294      22D3
 295 0370 FCE9789A 		.ascii	"\374\351x\232\213c\205s\303G\241\201\220_K\245>\237"
 295      8B638573 
 295      C347A181 
 295      905F4BA5 
 295      3E9F
 296 0382 DCB5AB7C 		.ascii	"\334\265\253|.\277\260\243Z\342\362\244=\227\233e.\217"
 296      2EBFB0A3 
 296      5AE2F2A4 
ARM GAS  /var/folders/c6/c789hm653lg9vtl73krp73tm0000gn/T//ccvFz436.s 			page 23


 296      3D979B65 
 296      2E8F
 297 0394 55E752E4 		.ascii	"U\347R\344\327K\206\372\3274\271E\035\235\255\004\300"
 297      D74B86FA 
 297      D734B945 
 297      1D9DAD04 
 297      C0
 298 03a5 E3B693EA 		.ascii	"\343\266\223\352\313\0211\251x\006\012\372\321\036\343"
 298      CB1131A9 
 298      78060AFA 
 298      D11EE3
 299 03b4 2619E389 		.ascii	"&\031\343\211\377\011\243\223\225\300x\322\266\"\373"
 299      FF09A393 
 299      95C078D2 
 299      B622FB
 300 03c3 9F74AE48 		.ascii	"\237t\256H\225\311\177\252\206\311/\025\350\027\373"
 300      95C97FAA 
 300      86C92F15 
 300      E817FB
 301 03d2 E49F9693 		.ascii	"\344\237\226\223/\3264\331\367\227'{\257\013W\265jw"
 301      2FD634D9 
 301      F797277B 
 301      AF0B57B5 
 301      6A77
 302 03e4 6E0E4579 		.ascii	"n\016Ey\326~g\313\321\300'\274\216\317\336\316\023W"
 302      D67E67CB 
 302      D1C027BC 
 302      8ECFDECE 
 302      1357
 303 03f6 D0E32EDB 		.ascii	"\320\343.\333\\6\312\271\234\251)\227\275\"\027\015"
 303      5C36CAB9 
 303      9CA92997 
 303      BD22170D 
 304 0406 9F9EC0AA 		.ascii	"\237\236\300\252J.g\344\\~\264\346\362;4HFG\013\007"
 304      4A2E67E4 
 304      5C7EB4E6 
 304      F23B3448 
 304      46470B07 
 305 041a 0EAF2398 		.ascii	"\016\257#\230\364\223\354\030,\365\256@9\266V\331\322"
 305      F493EC18 
 305      2CF5AE40 
 305      39B656D9 
 305      D2
 306 042b 2856A0C5 		.ascii	"(V\240\305\027\012\315[*\013\010\237\021\235\256,\371"
 306      170ACD5B 
 306      2A0B089F 
 306      119DAE2C 
 306      F9
 307 043c 72010C94 		.ascii	"r\001\014\224\2622in\266\327\325\3609\366\361\372\027"
 307      B232696E 
 307      B6D7D5F0 
 307      39F6F1FA 
 307      17
 308 044d 6F19EC11 		.ascii	"o\031\354\021\037\033\243\022[T\017\270\354\326\254"
 308      1F1BA312 
 308      5B540FB8 
 308      ECD6AC
ARM GAS  /var/folders/c6/c789hm653lg9vtl73krp73tm0000gn/T//ccvFz436.s 			page 24


 309 045c CC417553 		.ascii	"\314AuS\021t-6\242^\301\224+\011qU\0075\015\377\033"
 309      11742D36 
 309      A25EC194 
 309      2B097155 
 309      07350DFF 
 310 0471 F3114B85 		.ascii	"\363\021K\205\224\327\250A\277\343\214\377\217\011O"
 310      94D7A841 
 310      BFE38CFF 
 310      8F094F
 311 0480 D05F1934 		.ascii	"\320_\0314YP\033Z\220\333f\227\364\325\222Q((/\322\327"
 311      59501B5A 
 311      90DB6697 
 311      F4D59251 
 311      28282FD2 
 312 0495 F0645CCF 		.ascii	"\360d\\\317.\340\355m\037\274\213{\341%\325\360\005"
 312      2EE0ED6D 
 312      1FBC8B7B 
 312      E125D5F0 
 312      05
 313 04a6 D6BA2F49 		.ascii	"\326\272/I\363\261vW[\277-l\306}\314\325%\346\352\224"
 313      F3B17657 
 313      5BBF2D6C 
 313      C67DCCD5 
 313      25E6EA94 
 314 04ba DBEA4AC3 		.ascii	"\333\352J\303^i\003\341\265n \274\376\312@l \352T\027"
 314      5E6903E1 
 314      B56E20BC 
 314      FECA406C 
 314      20EA5417 
 315 04ce 55CBDF2E 		.ascii	"U\313\337.\225\255\311\300\253\010W\227\353\256Z\311"
 315      95ADC9C0 
 315      AB085797 
 315      EBAE5AC9 
 316 04de A16AC6B4 		.ascii	"\241j\306\264s\2300\363\015=\257\360C\224z#g\025\373"
 316      739830F3 
 316      0D3DAFF0 
 316      43947A23 
 316      6715FB
 317 04f1 C81E1159 		.ascii	"\310\036\021Y\332\035\321\025\257\223\253^\245\274\242"
 317      DA1DD115 
 317      AF93AB5E 
 317      A5BCA2
 318 0500 A31DA930 		.ascii	"\243\035\2510Z\274t\364\243Cx\240\217\034!\3645\316"
 318      5ABC74F4 
 318      A34378A0 
 318      8F1C21F4 
 318      35CE
 319 0512 FB8CBEF4 		.ascii	"\373\214\276\364\223\333\266/\035\220\373R\237RK_\372"
 319      93DBB62F 
 319      1D90FB52 
 319      9F524B5F 
 319      FA
 320 0523 46EA4BCE 		.ascii	"F\352K\316V\226\276t\234,m.\267%jc\231\016\253\225q"
 320      5696BE74 
 320      9C2C6D2E 
 320      B7256A63 
 320      990EAB95 
ARM GAS  /var/folders/c6/c789hm653lg9vtl73krp73tm0000gn/T//ccvFz436.s 			page 25


 321 0538 2DB63056 		.ascii	"-\2660V<qz\364\317\306vnz\355\237\241u\312T12>5\012"
 321      3C717AF4 
 321      CFC6766E 
 321      7AED9FA1 
 321      75CA5431 
 322 0550 FADB242B 		.ascii	"\372\333$+\007e\\\344%\342*\343Z+\343z\302\026W\356"
 322      07655CE4 
 322      25E22AE3 
 322      5A2BE37A 
 322      C21657EE 
 323 0564 6C3151C6 		.ascii	"l1Q\306\305\343)h\244\246\010\353\345\010O\331F8\376"
 323      C5E32968 
 323      A4A608EB 
 323      E5084FD9 
 323      4638FE
 324 0577 73613DDE 		.ascii	"sa=\3368\324O\350'f\325\263\205\234\273\366\364s\212"
 324      38D44FE8 
 324      2766D5B3 
 324      859CBBF6 
 324      F4738A
 325 058a F415A6DD 		.ascii	"\364\025\246\335@\372\354f=f\260L\023\266\352\036l\231"
 325      40FAEC66 
 325      3D66B04C 
 325      13B6EA1E 
 325      6C99
 326 059c 209FF1E5 		.ascii	" \237\361\3456o&\333\231\305\006\307b_\260\254\003\317"
 326      366F26DB 
 326      99C506C7 
 326      625FB0AC 
 326      03CF
 327 05ae 674DD5DE 		.ascii	"gM\325\336 \347<`\233\363\311\323c\367\275\272\233\220"
 327      20E73C60 
 327      9BF3C9D3 
 327      63F7BDBA 
 327      9B90
 328 05c0 75E47269 		.ascii	"u\344riUv56\210}\336S\013\261[\344 [\035J7\3323\256"
 328      55763536 
 328      887DDE53 
 328      0BB15BE4 
 328      205B1D4A 
 329 05d8 74433545 		.ascii	"tC5E\330&GxF\261\371\226\302\306\350\373\266l\256\220"
 329      D8264778 
 329      46B1F996 
 329      C2C6E8FB 
 329      B66CAE90 
 330 05ec CDD3E513 		.ascii	"\315\323\345\023\306\346^2V\351%\244\334\366\371\247"
 330      C6E65E32 
 330      56E925A4 
 330      DCF6F9A7 
 331 05fc C2A1E5C8 		.ascii	"\302\241\345\310j\032\316\327\335s\006\035z\216\271"
 331      6A1ACED7 
 331      DD73061D 
 331      7A8EB9
 332 060b 2557B460 		.ascii	"%W\264`\370\213\274\275\220Q\300\256\315c\376F]\207"
 332      F88BBCBD 
 332      9051C0AE 
 332      CD63FE46 
ARM GAS  /var/folders/c6/c789hm653lg9vtl73krp73tm0000gn/T//ccvFz436.s 			page 26


 332      5D87
 333 061d FE41FF67 		.ascii	"\376A\377g\260\375\223#Y\334b\331k\362\203?'\273\363"
 333      B0FD9323 
 333      59DC62D9 
 333      6BF2833F 
 333      27BBF3
 334 0630 4DF53E14 		.ascii	"M\365>\024\353\223\213\303\266\353\023\013\243\021\003"
 334      EB938BC3 
 334      B6EB130B 
 334      A31103
 335 063f 63433542 		.ascii	"cC5B%-\015\277T7\237;\035\370\014Z\370\334)\363i\332"
 335      252D0DBF 
 335      54379F3B 
 335      1DF80C5A 
 335      F8DC29F3 
 336 0655 2C482060 		.ascii	",H `\313g\241S$}\360(\361\375\223\254\2453\325!e\351"
 336      CB67A153 
 336      247DF028 
 336      F1FD93AC 
 336      A533D521 
 337 066b 5F480E29 		.ascii	"_H\016)\217\373G\323ku\247\274\313!es\265*Z\345\224"
 337      8FFB47D3 
 337      6B75A7BC 
 337      CB216573 
 337      B52A5AE5 
 338 0680 4DCB6F09 		.ascii	"M\313o\011\204\202\276\260\244\214\356\015u\247S\241"
 338      8482BEB0 
 338      A48CEE0D 
 338      75A753A1 
 339 0690 5822ACC5 		.ascii	"X\"\254\305B\013\365XLK\205\036\012\207gi\251\256Y\361"
 339      420BF558 
 339      4C4B851E 
 339      0A876769 
 339      A9AE59F1 
 340 06a4 445C9FA5 		.ascii	"D\\\237\245k+\242\2419\263\333\346\316\236?{^(\026]"
 340      6B2BA2A1 
 340      39B3DBE6 
 340      CE9E3F7B 
 340      5E28165D 
 341 06b8 411F87AC 		.ascii	"A\037\207\254\217\347\266\316o\235\033\212\306\303\261"
 341      8FE7B6CE 
 341      6F9D1B8A 
 341      C6C3B1
 342 06c7 EE4E3D94 		.ascii	"\356N=\224\316tv\352\017\266F\220'\035\375\213\256f"
 342      CE7476EA 
 342      0FB64690 
 342      271DFD8B 
 342      AE66
 343 06d9 3C7FF8E3 		.ascii	"<\177\370\343\362\226\205\350\232\326\326\020\377K\244"
 343      F29685E8 
 343      9AD6D610 
 343      FF4BA4
 344 06e8 43A94C59 		.ascii	"C\251LY=\034\351\322\273\302\211\224\016\026A\030>\244"
 344      3D1CE9D2 
 344      BBC28994 
 344      0E164118 
 344      3EA4
ARM GAS  /var/folders/c6/c789hm653lg9vtl73krp73tm0000gn/T//ccvFz436.s 			page 27


 345 06fa 671EEC8E 		.ascii	"g\036\354\216\207\325L\213d\220N\205\271r2\221\210\245"
 345      87D54C8B 
 345      64904E85 
 345      B9723291 
 345      88A5
 346 070c 5BC36846 		.ascii	"[\303hF5\217\\)\202\032`\234H\365\250\364Z\315\004\330"
 346      358F5C29 
 346      821A609C 
 346      48F5A8F4 
 346      5ACD04D8 
 347 0720 29A26B9D 		.ascii	")\242k\235z\312\233\214\250q\375\261\214\267+\311\316"
 347      7ACA9B8C 
 347      A871FDB1 
 347      8CB72BC9 
 347      CE
 348 0731 8D704EAC 		.ascii	"\215pN\254xX\017gT\012<\000\227\311Tbe\024T\233\302"
 348      78580F67 
 348      540A3C00 
 348      97C95462 
 348      6514549B 
 349 0746 91A56078 		.ascii	"\221\245`x7{\332\021\217f\224\256\244\233*\371\014\215"
 349      377BDA11 
 349      8F6694AE 
 349      A49B2AF9 
 349      0C8D
 350 0758 295C6371 		.ascii	")\\cqB\353\\\220Ji=8\211\343A~oA\014\330\355\010\230"
 350      42EB5C90 
 350      4A693D38 
 350      89E3417E 
 350      6F410CD8 
 351 076f 2EC4F8AE 		.ascii	".\304\370\256\224\256w\270!drr\345\206;\034\321R>Ue"
 351      94AE77B8 
 351      21647272 
 351      E5863B1C 
 351      D1523E55 
 352 0784 1CA80DC6 		.ascii	"\034\250\015\306\240\365\226\271\277o[\\W\255\254\267"
 352      A0F596B9 
 352      BF6F5B5C 
 352      57ADACB7 
 353 0794 4DD589C6 		.ascii	"M\325\211\3063@\214\257\033\3167\317Q3\367\375\037\274"
 353      33408CAF 
 353      1BCE37CF 
 353      5133F7FD 
 353      1FBC
 354 07a6 7669E148 		.ascii	"vi\341H4\256\207T\250\274\326\035\313\250\231\236\244"
 354      34AE8754 
 354      A8BCD61D 
 354      CBA8999E 
 354      A4
 355 07b7 4EE99FAC 		.ascii	"N\351\237\254\252F\034\277`\240\263s\232c\341\322=\324"
 355      AA461CBF 
 355      60A0B373 
 355      9A63E1D2 
 355      3DD4
 356 07c9 083497F5 		.ascii	"\0104\227\365\244\027'"
 356      A41727
 357 07d0 C28F5C2F 		.ascii	"\302\217\\/i&\023\251L:\264\340\236%\013\227<\006\352"
ARM GAS  /var/folders/c6/c789hm653lg9vtl73krp73tm0000gn/T//ccvFz436.s 			page 28


 357      692613A9 
 357      4C3AB4E0 
 357      9E250B97 
 357      3C06EA
 358 07e3 74DAA82B 		.ascii	"t\332\250+o\355\2426\364\221\012Y<r\223\331\006\352"
 358      6FEDA236 
 358      F4910A59 
 358      3C7293D9 
 358      06EA
 359 07f5 1A5AB864 		.ascii	"\032Z\270dY\307\262J\020j\023\356\272\013h\245\323C"
 359      59C7B24A 
 359      106A13EE 
 359      BA0B68A5 
 359      D343
 360 0807 55D37A46 		.ascii	"U\323zF\275c\301\262;\227\336\323\321\240\305\036\325"
 360      BD63C1B2 
 360      3B97DED3 
 360      D1A0C51E 
 360      D5
 361 0818 7AD26A34 		.ascii	"z\322j4\036\203l&\255\324b\335z\200\201Y\036\247\256"
 361      1E836C26 
 361      ADD462DD 
 361      7A808159 
 361      1EA7AE
 362 082b 032C4837 		.ascii	"\003,H7\033[Js\253\351j\336\354y\346\253\266y\377\005"
 362      1B5B4A73 
 362      ABE96ADE 
 362      EC79E6AB 
 362      B679FF05 
 363 083f 100D5F1C 		.ascii	"\020\015_\034"
 364              		.text
 365              		.section	.gnu.lto_.symtab.429ad536565160d5,"",%progbits
 366 0000 6368506F 		.ascii	"chPoolObjectInit\000\000\000\000\000\000\000\000\000"
 366      6F6C4F62 
 366      6A656374 
 366      496E6974 
 366      00000000 
 367 0019 000000AB 		.ascii	"\000\000\000\253\000\000\000chPoolLoadArray\000\000"
 367      00000063 
 367      68506F6F 
 367      6C4C6F61 
 367      64417272 
 368 0031 00000000 		.ascii	"\000\000\000\000\000\000\000\000\000\000\312\000\000"
 368      00000000 
 368      0000CA00 
 368      00
 369 003e 00636850 		.ascii	"\000chPoolAllocI\000\000\000\000\000\000\000\000\000"
 369      6F6F6C41 
 369      6C6C6F63 
 369      49000000 
 369      00000000 
 370 0054 000000D6 		.ascii	"\000\000\000\326\000\000\000chPoolAlloc\000\000\000"
 370      00000063 
 370      68506F6F 
 370      6C416C6C 
 370      6F630000 
 371 0069 00000000 		.ascii	"\000\000\000\000\000\000\000\000\000\334\000\000\000"
ARM GAS  /var/folders/c6/c789hm653lg9vtl73krp73tm0000gn/T//ccvFz436.s 			page 29


 371      00000000 
 371      00DC0000 
 371      00
 372 0076 6368506F 		.ascii	"chPoolFreeI\000\000\000\000\000\000\000\000\000\000"
 372      6F6C4672 
 372      65654900 
 372      00000000 
 372      00000000 
 373 008b 0000E000 		.ascii	"\000\000\340\000\000\000chPoolFree\000\000\000\000\000"
 373      00006368 
 373      506F6F6C 
 373      46726565 
 373      00000000 
 374 00a0 00000000 		.ascii	"\000\000\000\000\000\000\000\351\000\000\000"
 374      000000E9 
 374      000000
 375              		.text
 376              		.section	.gnu.lto_.opts,"",%progbits
 377 0000 272D6D63 		.ascii	"'-mcpu=cortex-m4' '-mno-thumb-interwork' '-mthumb' "
 377      70753D63 
 377      6F727465 
 377      782D6D34 
 377      2720272D 
 378 0033 272D6767 		.ascii	"'-ggdb' '-O2' '-fomit-frame-pointer' '-falign-funct"
 378      64622720 
 378      272D4F32 
 378      2720272D 
 378      666F6D69 
 379 0066 696F6E73 		.ascii	"ions=16' '-ffunction-sections' '-fdata-sections' '-"
 379      3D313627 
 379      20272D66 
 379      66756E63 
 379      74696F6E 
 380 0099 666E6F2D 		.ascii	"fno-common' '-flto'\000"
 380      636F6D6D 
 380      6F6E2720 
 380      272D666C 
 380      746F2700 
 381              		.text
 382              		.cfi_sections	.debug_frame
 383              		.section	.text.chPoolObjectInit,"ax",%progbits
 384              		.align	2
 385              		.p2align 4,,15
 386              		.global	chPoolObjectInit
 387              		.thumb
 388              		.thumb_func
 389              		.type	chPoolObjectInit, %function
 390              	chPoolObjectInit:
 391              	.LFB229:
 392              		.file 1 "../../../os/rt/src/chmempools.c"
 393              		.loc 1 75 0
 394              		.cfi_startproc
 395              		@ args = 0, pretend = 0, frame = 0
 396              		@ frame_needed = 0, uses_anonymous_args = 0
 397              		@ link register save eliminated.
 398              	.LVL0:
 399              		.loc 1 79 0
ARM GAS  /var/folders/c6/c789hm653lg9vtl73krp73tm0000gn/T//ccvFz436.s 			page 30


 400 0000 0023     		movs	r3, #0
 401              		.loc 1 80 0
 402 0002 4160     		str	r1, [r0, #4]
 403              		.loc 1 81 0
 404 0004 8260     		str	r2, [r0, #8]
 405              		.loc 1 79 0
 406 0006 0360     		str	r3, [r0]
 407 0008 7047     		bx	lr
 408              		.cfi_endproc
 409              	.LFE229:
 410              		.size	chPoolObjectInit, .-chPoolObjectInit
 411 000a 00BFAFF3 		.section	.text.chPoolLoadArray,"ax",%progbits
 411      0080
 412              		.align	2
 413              		.p2align 4,,15
 414              		.global	chPoolLoadArray
 415              		.thumb
 416              		.thumb_func
 417              		.type	chPoolLoadArray, %function
 418              	chPoolLoadArray:
 419              	.LFB230:
 420              		.loc 1 97 0
 421              		.cfi_startproc
 422              		@ args = 0, pretend = 0, frame = 0
 423              		@ frame_needed = 0, uses_anonymous_args = 0
 424              		@ link register save eliminated.
 425              	.LVL1:
 426 0000 30B4     		push	{r4, r5}
 427              		.cfi_def_cfa_offset 8
 428              		.cfi_offset 4, -8
 429              		.cfi_offset 5, -4
 430              		.loc 1 101 0
 431 0002 62B1     		cbz	r2, .L2
 432              	.LBB77:
 433              	.LBB78:
 434              	.LBB79:
 435              	.LBB80:
 436              	.LBB81:
 437              	.LBB82:
 438              		.file 2 "../../../os/ext/CMSIS/include/core_cmFunc.h"
 439              		.loc 2 546 0
 440 0004 2025     		movs	r5, #32
 441              	.LBE82:
 442              	.LBE81:
 443              	.LBE80:
 444              	.LBE79:
 445              	.LBB86:
 446              	.LBB87:
 447              	.LBB88:
 448              	.LBB89:
 449              	.LBB90:
 450 0006 0024     		movs	r4, #0
 451              	.LVL2:
 452              	.L5:
 453              	.LBE90:
 454              	.LBE89:
 455              	.LBE88:
ARM GAS  /var/folders/c6/c789hm653lg9vtl73krp73tm0000gn/T//ccvFz436.s 			page 31


 456              	.LBE87:
 457              	.LBE86:
 458              	.LBB95:
 459              	.LBB85:
 460              	.LBB84:
 461              	.LBB83:
 462              	@ 546 "../../../os/ext/CMSIS/include/core_cmFunc.h" 1
 463 0008 85F31188 		MSR basepri, r5
 464              	@ 0 "" 2
 465              	.LVL3:
 466              		.thumb
 467              	.LBE83:
 468              	.LBE84:
 469              	.LBE85:
 470              	.LBE95:
 471              	.LBB96:
 472              	.LBB97:
 473              		.loc 1 177 0
 474 000c 0368     		ldr	r3, [r0]
 475 000e 0B60     		str	r3, [r1]
 476              		.loc 1 178 0
 477 0010 0160     		str	r1, [r0]
 478              	.LVL4:
 479              	.LBE97:
 480              	.LBE96:
 481              	.LBB98:
 482              	.LBB94:
 483              	.LBB93:
 484              	.LBB92:
 485              	.LBB91:
 486              		.loc 2 546 0
 487              	@ 546 "../../../os/ext/CMSIS/include/core_cmFunc.h" 1
 488 0012 84F31188 		MSR basepri, r4
 489              	@ 0 "" 2
 490              		.thumb
 491              	.LBE91:
 492              	.LBE92:
 493              	.LBE93:
 494              	.LBE94:
 495              	.LBE98:
 496              	.LBE78:
 497              	.LBE77:
 498              		.loc 1 104 0
 499 0016 4368     		ldr	r3, [r0, #4]
 500              		.loc 1 101 0
 501 0018 013A     		subs	r2, r2, #1
 502              	.LVL5:
 503              		.loc 1 104 0
 504 001a 1944     		add	r1, r1, r3
 505              	.LVL6:
 506              		.loc 1 101 0
 507 001c F4D1     		bne	.L5
 508              	.LVL7:
 509              	.L2:
 510              		.loc 1 108 0
 511 001e 30BC     		pop	{r4, r5}
 512 0020 7047     		bx	lr
ARM GAS  /var/folders/c6/c789hm653lg9vtl73krp73tm0000gn/T//ccvFz436.s 			page 32


 513              		.cfi_endproc
 514              	.LFE230:
 515              		.size	chPoolLoadArray, .-chPoolLoadArray
 516 0022 00BFAFF3 		.section	.text.chPoolAllocI,"ax",%progbits
 516      0080AFF3 
 516      0080AFF3 
 516      0080
 517              		.align	2
 518              		.p2align 4,,15
 519              		.global	chPoolAllocI
 520              		.thumb
 521              		.thumb_func
 522              		.type	chPoolAllocI, %function
 523              	chPoolAllocI:
 524              	.LFB231:
 525              		.loc 1 120 0
 526              		.cfi_startproc
 527              		@ args = 0, pretend = 0, frame = 0
 528              		@ frame_needed = 0, uses_anonymous_args = 0
 529              	.LVL8:
 530 0000 08B5     		push	{r3, lr}
 531              		.cfi_def_cfa_offset 8
 532              		.cfi_offset 3, -8
 533              		.cfi_offset 14, -4
 534              		.loc 1 120 0
 535 0002 0346     		mov	r3, r0
 536              		.loc 1 126 0
 537 0004 0068     		ldr	r0, [r0]
 538              	.LVL9:
 539              		.loc 1 128 0
 540 0006 10B1     		cbz	r0, .L12
 541              		.loc 1 129 0
 542 0008 0268     		ldr	r2, [r0]
 543 000a 1A60     		str	r2, [r3]
 544 000c 08BD     		pop	{r3, pc}
 545              	.LVL10:
 546              	.L12:
 547              		.loc 1 131 0
 548 000e 9A68     		ldr	r2, [r3, #8]
 549 0010 0AB1     		cbz	r2, .L13
 550              		.loc 1 132 0
 551 0012 5868     		ldr	r0, [r3, #4]
 552              	.LVL11:
 553 0014 9047     		blx	r2
 554              	.LVL12:
 555              	.L13:
 556              		.loc 1 137 0
 557 0016 08BD     		pop	{r3, pc}
 558              		.cfi_endproc
 559              	.LFE231:
 560              		.size	chPoolAllocI, .-chPoolAllocI
 561 0018 AFF30080 		.section	.text.chPoolAlloc,"ax",%progbits
 561      AFF30080 
 562              		.align	2
 563              		.p2align 4,,15
 564              		.global	chPoolAlloc
 565              		.thumb
ARM GAS  /var/folders/c6/c789hm653lg9vtl73krp73tm0000gn/T//ccvFz436.s 			page 33


 566              		.thumb_func
 567              		.type	chPoolAlloc, %function
 568              	chPoolAlloc:
 569              	.LFB232:
 570              		.loc 1 149 0
 571              		.cfi_startproc
 572              		@ args = 0, pretend = 0, frame = 0
 573              		@ frame_needed = 0, uses_anonymous_args = 0
 574              	.LVL13:
 575 0000 08B5     		push	{r3, lr}
 576              		.cfi_def_cfa_offset 8
 577              		.cfi_offset 3, -8
 578              		.cfi_offset 14, -4
 579              	.LBB99:
 580              	.LBB100:
 581              	.LBB101:
 582              	.LBB102:
 583              		.loc 2 546 0
 584 0002 2022     		movs	r2, #32
 585              	.LBE102:
 586              	.LBE101:
 587              	.LBE100:
 588              	.LBE99:
 589              		.loc 1 149 0
 590 0004 0346     		mov	r3, r0
 591              	.LBB106:
 592              	.LBB105:
 593              	.LBB104:
 594              	.LBB103:
 595              		.loc 2 546 0
 596              	@ 546 "../../../os/ext/CMSIS/include/core_cmFunc.h" 1
 597 0006 82F31188 		MSR basepri, r2
 598              	@ 0 "" 2
 599              	.LVL14:
 600              		.thumb
 601              	.LBE103:
 602              	.LBE104:
 603              	.LBE105:
 604              	.LBE106:
 605              	.LBB107:
 606              	.LBB108:
 607              		.loc 1 126 0
 608 000a 0068     		ldr	r0, [r0]
 609              	.LVL15:
 610              		.loc 1 128 0
 611 000c 28B1     		cbz	r0, .L18
 612              		.loc 1 129 0
 613 000e 0268     		ldr	r2, [r0]
 614 0010 1A60     		str	r2, [r3]
 615              	.L19:
 616              	.LVL16:
 617              	.LBE108:
 618              	.LBE107:
 619              	.LBB110:
 620              	.LBB111:
 621              	.LBB112:
 622              	.LBB113:
ARM GAS  /var/folders/c6/c789hm653lg9vtl73krp73tm0000gn/T//ccvFz436.s 			page 34


 623              	.LBB114:
 624              		.loc 2 546 0
 625 0012 0023     		movs	r3, #0
 626              	.LVL17:
 627              	@ 546 "../../../os/ext/CMSIS/include/core_cmFunc.h" 1
 628 0014 83F31188 		MSR basepri, r3
 629              	@ 0 "" 2
 630              		.thumb
 631              	.LBE114:
 632              	.LBE113:
 633              	.LBE112:
 634              	.LBE111:
 635              	.LBE110:
 636              		.loc 1 157 0
 637 0018 08BD     		pop	{r3, pc}
 638              	.LVL18:
 639              	.L18:
 640              	.LBB119:
 641              	.LBB109:
 642              		.loc 1 131 0
 643 001a 9A68     		ldr	r2, [r3, #8]
 644 001c 002A     		cmp	r2, #0
 645 001e F8D0     		beq	.L19
 646              		.loc 1 132 0
 647 0020 5868     		ldr	r0, [r3, #4]
 648              	.LVL19:
 649 0022 9047     		blx	r2
 650              	.LVL20:
 651              	.LBE109:
 652              	.LBE119:
 653              	.LBB120:
 654              	.LBB118:
 655              	.LBB117:
 656              	.LBB116:
 657              	.LBB115:
 658              		.loc 2 546 0
 659 0024 0023     		movs	r3, #0
 660              	@ 546 "../../../os/ext/CMSIS/include/core_cmFunc.h" 1
 661 0026 83F31188 		MSR basepri, r3
 662              	@ 0 "" 2
 663              		.thumb
 664              	.LBE115:
 665              	.LBE116:
 666              	.LBE117:
 667              	.LBE118:
 668              	.LBE120:
 669              		.loc 1 157 0
 670 002a 08BD     		pop	{r3, pc}
 671              		.cfi_endproc
 672              	.LFE232:
 673              		.size	chPoolAlloc, .-chPoolAlloc
 674 002c AFF30080 		.section	.text.chPoolFreeI,"ax",%progbits
 675              		.align	2
 676              		.p2align 4,,15
 677              		.global	chPoolFreeI
 678              		.thumb
 679              		.thumb_func
ARM GAS  /var/folders/c6/c789hm653lg9vtl73krp73tm0000gn/T//ccvFz436.s 			page 35


 680              		.type	chPoolFreeI, %function
 681              	chPoolFreeI:
 682              	.LFB233:
 683              		.loc 1 171 0
 684              		.cfi_startproc
 685              		@ args = 0, pretend = 0, frame = 0
 686              		@ frame_needed = 0, uses_anonymous_args = 0
 687              		@ link register save eliminated.
 688              	.LVL21:
 689              		.loc 1 177 0
 690 0000 0368     		ldr	r3, [r0]
 691 0002 0B60     		str	r3, [r1]
 692              		.loc 1 178 0
 693 0004 0160     		str	r1, [r0]
 694 0006 7047     		bx	lr
 695              		.cfi_endproc
 696              	.LFE233:
 697              		.size	chPoolFreeI, .-chPoolFreeI
 698 0008 AFF30080 		.section	.text.chPoolFree,"ax",%progbits
 698      AFF30080 
 699              		.align	2
 700              		.p2align 4,,15
 701              		.global	chPoolFree
 702              		.thumb
 703              		.thumb_func
 704              		.type	chPoolFree, %function
 705              	chPoolFree:
 706              	.LFB234:
 707              		.loc 1 193 0
 708              		.cfi_startproc
 709              		@ args = 0, pretend = 0, frame = 0
 710              		@ frame_needed = 0, uses_anonymous_args = 0
 711              		@ link register save eliminated.
 712              	.LVL22:
 713              	.LBB121:
 714              	.LBB122:
 715              	.LBB123:
 716              	.LBB124:
 717              		.loc 2 546 0
 718 0000 2023     		movs	r3, #32
 719              	@ 546 "../../../os/ext/CMSIS/include/core_cmFunc.h" 1
 720 0002 83F31188 		MSR basepri, r3
 721              	@ 0 "" 2
 722              	.LVL23:
 723              		.thumb
 724              	.LBE124:
 725              	.LBE123:
 726              	.LBE122:
 727              	.LBE121:
 728              	.LBB125:
 729              	.LBB126:
 730              		.loc 1 177 0
 731 0006 0368     		ldr	r3, [r0]
 732 0008 0B60     		str	r3, [r1]
 733              	.LBE126:
 734              	.LBE125:
 735              	.LBB128:
ARM GAS  /var/folders/c6/c789hm653lg9vtl73krp73tm0000gn/T//ccvFz436.s 			page 36


 736              	.LBB129:
 737              	.LBB130:
 738              	.LBB131:
 739              	.LBB132:
 740              		.loc 2 546 0
 741 000a 0023     		movs	r3, #0
 742              	.LBE132:
 743              	.LBE131:
 744              	.LBE130:
 745              	.LBE129:
 746              	.LBE128:
 747              	.LBB137:
 748              	.LBB127:
 749              		.loc 1 178 0
 750 000c 0160     		str	r1, [r0]
 751              	.LVL24:
 752              	.LBE127:
 753              	.LBE137:
 754              	.LBB138:
 755              	.LBB136:
 756              	.LBB135:
 757              	.LBB134:
 758              	.LBB133:
 759              		.loc 2 546 0
 760              	@ 546 "../../../os/ext/CMSIS/include/core_cmFunc.h" 1
 761 000e 83F31188 		MSR basepri, r3
 762              	@ 0 "" 2
 763              		.thumb
 764 0012 7047     		bx	lr
 765              	.LBE133:
 766              	.LBE134:
 767              	.LBE135:
 768              	.LBE136:
 769              	.LBE138:
 770              		.cfi_endproc
 771              	.LFE234:
 772              		.size	chPoolFree, .-chPoolFree
 773 0014 AFF30080 		.text
 773      AFF30080 
 773      AFF30080 
 774              	.Letext0:
 775              		.file 3 "/usr/local/Cellar/gcc-arm-none-eabi/20140805/lib/gcc/arm-none-eabi/4.8.4/include/stddef.h
 776              		.file 4 "/usr/local/Cellar/gcc-arm-none-eabi/20140805/arm-none-eabi/include/machine/_default_types
 777              		.file 5 "/usr/local/Cellar/gcc-arm-none-eabi/20140805/arm-none-eabi/include/stdint.h"
 778              		.file 6 "../../../os/rt/ports/ARMCMx/compilers/GCC/chtypes.h"
 779              		.file 7 "../../../os/rt/include/chsystypes.h"
 780              		.file 8 "../../../os/rt/include/chschd.h"
 781              		.file 9 "../../../os/rt/ports/ARMCMx/chcore.h"
 782              		.file 10 "../../../os/rt/ports/ARMCMx/chcore_v7m.h"
 783              		.file 11 "../../../os/rt/include/chtm.h"
 784              		.file 12 "../../../os/rt/include/chsem.h"
 785              		.file 13 "../../../os/rt/include/chmtx.h"
 786              		.file 14 "../../../os/rt/include/chmemcore.h"
 787              		.file 15 "../../../os/rt/include/chmempools.h"
 788              		.file 16 "../../../os/rt/include/chsys.h"
 789              		.file 17 "../../../os/ext/CMSIS/include/core_cm4.h"
 790              		.section	.debug_info,"",%progbits
ARM GAS  /var/folders/c6/c789hm653lg9vtl73krp73tm0000gn/T//ccvFz436.s 			page 37


 791              	.Ldebug_info0:
 792 0000 B80B0000 		.4byte	0xbb8
 793 0004 0400     		.2byte	0x4
 794 0006 00000000 		.4byte	.Ldebug_abbrev0
 795 000a 04       		.byte	0x4
 796 000b 01       		.uleb128 0x1
 797 000c 00000000 		.4byte	.LASF130
 798 0010 01       		.byte	0x1
 799 0011 82060000 		.4byte	.LASF131
 800 0015 1E050000 		.4byte	.LASF132
 801 0019 A8000000 		.4byte	.Ldebug_ranges0+0xa8
 802 001d 00000000 		.4byte	0
 803 0021 00000000 		.4byte	.Ldebug_line0
 804 0025 02       		.uleb128 0x2
 805 0026 04       		.byte	0x4
 806 0027 05       		.byte	0x5
 807 0028 696E7400 		.ascii	"int\000"
 808 002c 03       		.uleb128 0x3
 809 002d ED000000 		.4byte	.LASF2
 810 0031 03       		.byte	0x3
 811 0032 D4       		.byte	0xd4
 812 0033 37000000 		.4byte	0x37
 813 0037 04       		.uleb128 0x4
 814 0038 04       		.byte	0x4
 815 0039 07       		.byte	0x7
 816 003a 8A020000 		.4byte	.LASF0
 817 003e 04       		.uleb128 0x4
 818 003f 01       		.byte	0x1
 819 0040 06       		.byte	0x6
 820 0041 CB010000 		.4byte	.LASF1
 821 0045 03       		.uleb128 0x3
 822 0046 04010000 		.4byte	.LASF3
 823 004a 04       		.byte	0x4
 824 004b 1C       		.byte	0x1c
 825 004c 50000000 		.4byte	0x50
 826 0050 04       		.uleb128 0x4
 827 0051 01       		.byte	0x1
 828 0052 08       		.byte	0x8
 829 0053 64040000 		.4byte	.LASF4
 830 0057 04       		.uleb128 0x4
 831 0058 02       		.byte	0x2
 832 0059 05       		.byte	0x5
 833 005a 7C040000 		.4byte	.LASF5
 834 005e 04       		.uleb128 0x4
 835 005f 02       		.byte	0x2
 836 0060 07       		.byte	0x7
 837 0061 E1020000 		.4byte	.LASF6
 838 0065 03       		.uleb128 0x3
 839 0066 4D030000 		.4byte	.LASF7
 840 006a 04       		.byte	0x4
 841 006b 37       		.byte	0x37
 842 006c 70000000 		.4byte	0x70
 843 0070 04       		.uleb128 0x4
 844 0071 04       		.byte	0x4
 845 0072 05       		.byte	0x5
 846 0073 0A020000 		.4byte	.LASF8
 847 0077 03       		.uleb128 0x3
ARM GAS  /var/folders/c6/c789hm653lg9vtl73krp73tm0000gn/T//ccvFz436.s 			page 38


 848 0078 9C050000 		.4byte	.LASF9
 849 007c 04       		.byte	0x4
 850 007d 38       		.byte	0x38
 851 007e 82000000 		.4byte	0x82
 852 0082 04       		.uleb128 0x4
 853 0083 04       		.byte	0x4
 854 0084 07       		.byte	0x7
 855 0085 0C050000 		.4byte	.LASF10
 856 0089 04       		.uleb128 0x4
 857 008a 08       		.byte	0x8
 858 008b 05       		.byte	0x5
 859 008c BD010000 		.4byte	.LASF11
 860 0090 03       		.uleb128 0x3
 861 0091 12040000 		.4byte	.LASF12
 862 0095 04       		.byte	0x4
 863 0096 4E       		.byte	0x4e
 864 0097 9B000000 		.4byte	0x9b
 865 009b 04       		.uleb128 0x4
 866 009c 08       		.byte	0x8
 867 009d 07       		.byte	0x7
 868 009e 57010000 		.4byte	.LASF13
 869 00a2 03       		.uleb128 0x3
 870 00a3 15060000 		.4byte	.LASF14
 871 00a7 05       		.byte	0x5
 872 00a8 2A       		.byte	0x2a
 873 00a9 45000000 		.4byte	0x45
 874 00ad 03       		.uleb128 0x3
 875 00ae 5C040000 		.4byte	.LASF15
 876 00b2 05       		.byte	0x5
 877 00b3 41       		.byte	0x41
 878 00b4 65000000 		.4byte	0x65
 879 00b8 03       		.uleb128 0x3
 880 00b9 DB040000 		.4byte	.LASF16
 881 00bd 05       		.byte	0x5
 882 00be 42       		.byte	0x42
 883 00bf 77000000 		.4byte	0x77
 884 00c3 03       		.uleb128 0x3
 885 00c4 FB000000 		.4byte	.LASF17
 886 00c8 05       		.byte	0x5
 887 00c9 4E       		.byte	0x4e
 888 00ca 90000000 		.4byte	0x90
 889 00ce 05       		.uleb128 0x5
 890 00cf AD000000 		.4byte	0xad
 891 00d3 03       		.uleb128 0x3
 892 00d4 DD050000 		.4byte	.LASF18
 893 00d8 06       		.byte	0x6
 894 00d9 45       		.byte	0x45
 895 00da B8000000 		.4byte	0xb8
 896 00de 03       		.uleb128 0x3
 897 00df 1A030000 		.4byte	.LASF19
 898 00e3 06       		.byte	0x6
 899 00e4 48       		.byte	0x48
 900 00e5 A2000000 		.4byte	0xa2
 901 00e9 03       		.uleb128 0x3
 902 00ea 13020000 		.4byte	.LASF20
 903 00ee 06       		.byte	0x6
 904 00ef 49       		.byte	0x49
ARM GAS  /var/folders/c6/c789hm653lg9vtl73krp73tm0000gn/T//ccvFz436.s 			page 39


 905 00f0 A2000000 		.4byte	0xa2
 906 00f4 03       		.uleb128 0x3
 907 00f5 25040000 		.4byte	.LASF21
 908 00f9 06       		.byte	0x6
 909 00fa 4A       		.byte	0x4a
 910 00fb A2000000 		.4byte	0xa2
 911 00ff 03       		.uleb128 0x3
 912 0100 44040000 		.4byte	.LASF22
 913 0104 06       		.byte	0x6
 914 0105 4C       		.byte	0x4c
 915 0106 B8000000 		.4byte	0xb8
 916 010a 03       		.uleb128 0x3
 917 010b FE020000 		.4byte	.LASF23
 918 010f 06       		.byte	0x6
 919 0110 4D       		.byte	0x4d
 920 0111 AD000000 		.4byte	0xad
 921 0115 03       		.uleb128 0x3
 922 0116 41030000 		.4byte	.LASF24
 923 011a 06       		.byte	0x6
 924 011b 4F       		.byte	0x4f
 925 011c B8000000 		.4byte	0xb8
 926 0120 03       		.uleb128 0x3
 927 0121 84020000 		.4byte	.LASF25
 928 0125 06       		.byte	0x6
 929 0126 51       		.byte	0x51
 930 0127 AD000000 		.4byte	0xad
 931 012b 03       		.uleb128 0x3
 932 012c 7E050000 		.4byte	.LASF26
 933 0130 07       		.byte	0x7
 934 0131 33       		.byte	0x33
 935 0132 B8000000 		.4byte	0xb8
 936 0136 03       		.uleb128 0x3
 937 0137 6E050000 		.4byte	.LASF27
 938 013b 07       		.byte	0x7
 939 013c 3F       		.byte	0x3f
 940 013d 41010000 		.4byte	0x141
 941 0141 06       		.uleb128 0x6
 942 0142 F4020000 		.4byte	.LASF47
 943 0146 44       		.byte	0x44
 944 0147 08       		.byte	0x8
 945 0148 C2       		.byte	0xc2
 946 0149 2E020000 		.4byte	0x22e
 947 014d 07       		.uleb128 0x7
 948 014e 9C040000 		.4byte	.LASF28
 949 0152 08       		.byte	0x8
 950 0153 C3       		.byte	0xc3
 951 0154 39020000 		.4byte	0x239
 952 0158 00       		.byte	0
 953 0159 07       		.uleb128 0x7
 954 015a 3D040000 		.4byte	.LASF29
 955 015e 08       		.byte	0x8
 956 015f C5       		.byte	0xc5
 957 0160 39020000 		.4byte	0x239
 958 0164 04       		.byte	0x4
 959 0165 07       		.uleb128 0x7
 960 0166 B6010000 		.4byte	.LASF30
 961 016a 08       		.byte	0x8
ARM GAS  /var/folders/c6/c789hm653lg9vtl73krp73tm0000gn/T//ccvFz436.s 			page 40


 962 016b C7       		.byte	0xc7
 963 016c FF000000 		.4byte	0xff
 964 0170 08       		.byte	0x8
 965 0171 07       		.uleb128 0x7
 966 0172 A2060000 		.4byte	.LASF31
 967 0176 08       		.byte	0x8
 968 0177 C8       		.byte	0xc8
 969 0178 69040000 		.4byte	0x469
 970 017c 0C       		.byte	0xc
 971 017d 07       		.uleb128 0x7
 972 017e 32020000 		.4byte	.LASF32
 973 0182 08       		.byte	0x8
 974 0183 CA       		.byte	0xca
 975 0184 39020000 		.4byte	0x239
 976 0188 10       		.byte	0x10
 977 0189 07       		.uleb128 0x7
 978 018a D2030000 		.4byte	.LASF33
 979 018e 08       		.byte	0x8
 980 018f CB       		.byte	0xcb
 981 0190 39020000 		.4byte	0x239
 982 0194 14       		.byte	0x14
 983 0195 07       		.uleb128 0x7
 984 0196 3B060000 		.4byte	.LASF34
 985 019a 08       		.byte	0x8
 986 019b D2       		.byte	0xd2
 987 019c E8050000 		.4byte	0x5e8
 988 01a0 18       		.byte	0x18
 989 01a1 07       		.uleb128 0x7
 990 01a2 86040000 		.4byte	.LASF35
 991 01a6 08       		.byte	0x8
 992 01a7 DD       		.byte	0xdd
 993 01a8 E9000000 		.4byte	0xe9
 994 01ac 1C       		.byte	0x1c
 995 01ad 07       		.uleb128 0x7
 996 01ae 56060000 		.4byte	.LASF36
 997 01b2 08       		.byte	0x8
 998 01b3 E1       		.byte	0xe1
 999 01b4 DE000000 		.4byte	0xde
 1000 01b8 1D       		.byte	0x1d
 1001 01b9 07       		.uleb128 0x7
 1002 01ba 08060000 		.4byte	.LASF37
 1003 01be 08       		.byte	0x8
 1004 01bf E6       		.byte	0xe6
 1005 01c0 F4000000 		.4byte	0xf4
 1006 01c4 1E       		.byte	0x1e
 1007 01c5 08       		.uleb128 0x8
 1008 01c6 705F7500 		.ascii	"p_u\000"
 1009 01ca 08       		.byte	0x8
 1010 01cb 3101     		.2byte	0x131
 1011 01cd 23050000 		.4byte	0x523
 1012 01d1 20       		.byte	0x20
 1013 01d2 09       		.uleb128 0x9
 1014 01d3 70030000 		.4byte	.LASF38
 1015 01d7 08       		.byte	0x8
 1016 01d8 3601     		.2byte	0x136
 1017 01da 3F020000 		.4byte	0x23f
 1018 01de 24       		.byte	0x24
ARM GAS  /var/folders/c6/c789hm653lg9vtl73krp73tm0000gn/T//ccvFz436.s 			page 41


 1019 01df 09       		.uleb128 0x9
 1020 01e0 C2020000 		.4byte	.LASF39
 1021 01e4 08       		.byte	0x8
 1022 01e5 3C01     		.2byte	0x13c
 1023 01e7 63020000 		.4byte	0x263
 1024 01eb 28       		.byte	0x28
 1025 01ec 09       		.uleb128 0x9
 1026 01ed D7050000 		.4byte	.LASF40
 1027 01f1 08       		.byte	0x8
 1028 01f2 4001     		.2byte	0x140
 1029 01f4 0A010000 		.4byte	0x10a
 1030 01f8 30       		.byte	0x30
 1031 01f9 09       		.uleb128 0x9
 1032 01fa D0040000 		.4byte	.LASF41
 1033 01fe 08       		.byte	0x8
 1034 01ff 4601     		.2byte	0x146
 1035 0201 15010000 		.4byte	0x115
 1036 0205 34       		.byte	0x34
 1037 0206 09       		.uleb128 0x9
 1038 0207 72040000 		.4byte	.LASF42
 1039 020b 08       		.byte	0x8
 1040 020c 4D01     		.2byte	0x14d
 1041 020e E2050000 		.4byte	0x5e2
 1042 0212 38       		.byte	0x38
 1043 0213 09       		.uleb128 0x9
 1044 0214 88050000 		.4byte	.LASF43
 1045 0218 08       		.byte	0x8
 1046 0219 5101     		.2byte	0x151
 1047 021b FF000000 		.4byte	0xff
 1048 021f 3C       		.byte	0x3c
 1049 0220 09       		.uleb128 0x9
 1050 0221 D7010000 		.4byte	.LASF44
 1051 0225 08       		.byte	0x8
 1052 0226 5801     		.2byte	0x158
 1053 0228 16030000 		.4byte	0x316
 1054 022c 40       		.byte	0x40
 1055 022d 00       		.byte	0
 1056 022e 03       		.uleb128 0x3
 1057 022f 83030000 		.4byte	.LASF45
 1058 0233 07       		.byte	0x7
 1059 0234 44       		.byte	0x44
 1060 0235 39020000 		.4byte	0x239
 1061 0239 0A       		.uleb128 0xa
 1062 023a 04       		.byte	0x4
 1063 023b 36010000 		.4byte	0x136
 1064 023f 03       		.uleb128 0x3
 1065 0240 47060000 		.4byte	.LASF46
 1066 0244 07       		.byte	0x7
 1067 0245 49       		.byte	0x49
 1068 0246 4A020000 		.4byte	0x24a
 1069 024a 06       		.uleb128 0x6
 1070 024b FC040000 		.4byte	.LASF48
 1071 024f 04       		.byte	0x4
 1072 0250 08       		.byte	0x8
 1073 0251 B0       		.byte	0xb0
 1074 0252 63020000 		.4byte	0x263
 1075 0256 07       		.uleb128 0x7
ARM GAS  /var/folders/c6/c789hm653lg9vtl73krp73tm0000gn/T//ccvFz436.s 			page 42


 1076 0257 9C040000 		.4byte	.LASF28
 1077 025b 08       		.byte	0x8
 1078 025c B1       		.byte	0xb1
 1079 025d 39020000 		.4byte	0x239
 1080 0261 00       		.byte	0
 1081 0262 00       		.byte	0
 1082 0263 03       		.uleb128 0x3
 1083 0264 EC050000 		.4byte	.LASF49
 1084 0268 07       		.byte	0x7
 1085 0269 50       		.byte	0x50
 1086 026a 6E020000 		.4byte	0x26e
 1087 026e 06       		.uleb128 0x6
 1088 026f A5010000 		.4byte	.LASF50
 1089 0273 08       		.byte	0x8
 1090 0274 08       		.byte	0x8
 1091 0275 B7       		.byte	0xb7
 1092 0276 93020000 		.4byte	0x293
 1093 027a 07       		.uleb128 0x7
 1094 027b 9C040000 		.4byte	.LASF28
 1095 027f 08       		.byte	0x8
 1096 0280 B8       		.byte	0xb8
 1097 0281 39020000 		.4byte	0x239
 1098 0285 00       		.byte	0
 1099 0286 07       		.uleb128 0x7
 1100 0287 3D040000 		.4byte	.LASF29
 1101 028b 08       		.byte	0x8
 1102 028c B9       		.byte	0xb9
 1103 028d 39020000 		.4byte	0x239
 1104 0291 04       		.byte	0x4
 1105 0292 00       		.byte	0
 1106 0293 03       		.uleb128 0x3
 1107 0294 E0000000 		.4byte	.LASF51
 1108 0298 07       		.byte	0x7
 1109 0299 57       		.byte	0x57
 1110 029a 9E020000 		.4byte	0x29e
 1111 029e 0B       		.uleb128 0xb
 1112 029f 33030000 		.4byte	.LASF52
 1113 02a3 1C       		.byte	0x1c
 1114 02a4 08       		.byte	0x8
 1115 02a5 9001     		.2byte	0x190
 1116 02a7 FA020000 		.4byte	0x2fa
 1117 02ab 09       		.uleb128 0x9
 1118 02ac EB040000 		.4byte	.LASF53
 1119 02b0 08       		.byte	0x8
 1120 02b1 9101     		.2byte	0x191
 1121 02b3 63020000 		.4byte	0x263
 1122 02b7 00       		.byte	0
 1123 02b8 09       		.uleb128 0x9
 1124 02b9 8E040000 		.4byte	.LASF54
 1125 02bd 08       		.byte	0x8
 1126 02be 9201     		.2byte	0x192
 1127 02c0 FF000000 		.4byte	0xff
 1128 02c4 08       		.byte	0x8
 1129 02c5 09       		.uleb128 0x9
 1130 02c6 DA030000 		.4byte	.LASF55
 1131 02ca 08       		.byte	0x8
 1132 02cb 9401     		.2byte	0x194
ARM GAS  /var/folders/c6/c789hm653lg9vtl73krp73tm0000gn/T//ccvFz436.s 			page 43


 1133 02cd 69040000 		.4byte	0x469
 1134 02d1 0C       		.byte	0xc
 1135 02d2 09       		.uleb128 0x9
 1136 02d3 42020000 		.4byte	.LASF56
 1137 02d7 08       		.byte	0x8
 1138 02d8 9701     		.2byte	0x197
 1139 02da 39020000 		.4byte	0x239
 1140 02de 10       		.byte	0x10
 1141 02df 09       		.uleb128 0x9
 1142 02e0 0A040000 		.4byte	.LASF57
 1143 02e4 08       		.byte	0x8
 1144 02e5 9801     		.2byte	0x198
 1145 02e7 39020000 		.4byte	0x239
 1146 02eb 14       		.byte	0x14
 1147 02ec 09       		.uleb128 0x9
 1148 02ed 00040000 		.4byte	.LASF58
 1149 02f1 08       		.byte	0x8
 1150 02f2 9B01     		.2byte	0x19b
 1151 02f4 39020000 		.4byte	0x239
 1152 02f8 18       		.byte	0x18
 1153 02f9 00       		.byte	0
 1154 02fa 03       		.uleb128 0x3
 1155 02fb 93050000 		.4byte	.LASF59
 1156 02ff 07       		.byte	0x7
 1157 0300 5C       		.byte	0x5c
 1158 0301 05030000 		.4byte	0x305
 1159 0305 0A       		.uleb128 0xa
 1160 0306 04       		.byte	0x4
 1161 0307 0B030000 		.4byte	0x30b
 1162 030b 0C       		.uleb128 0xc
 1163 030c 16030000 		.4byte	0x316
 1164 0310 0D       		.uleb128 0xd
 1165 0311 16030000 		.4byte	0x316
 1166 0315 00       		.byte	0
 1167 0316 0E       		.uleb128 0xe
 1168 0317 04       		.byte	0x4
 1169 0318 03       		.uleb128 0x3
 1170 0319 2D040000 		.4byte	.LASF60
 1171 031d 07       		.byte	0x7
 1172 031e 61       		.byte	0x61
 1173 031f 23030000 		.4byte	0x323
 1174 0323 0B       		.uleb128 0xb
 1175 0324 B2040000 		.4byte	.LASF61
 1176 0328 14       		.byte	0x14
 1177 0329 08       		.byte	0x8
 1178 032a 6B01     		.2byte	0x16b
 1179 032c 72030000 		.4byte	0x372
 1180 0330 09       		.uleb128 0x9
 1181 0331 97020000 		.4byte	.LASF62
 1182 0335 08       		.byte	0x8
 1183 0336 6C01     		.2byte	0x16c
 1184 0338 FA050000 		.4byte	0x5fa
 1185 033c 00       		.byte	0
 1186 033d 09       		.uleb128 0x9
 1187 033e 5F020000 		.4byte	.LASF63
 1188 0342 08       		.byte	0x8
 1189 0343 6D01     		.2byte	0x16d
ARM GAS  /var/folders/c6/c789hm653lg9vtl73krp73tm0000gn/T//ccvFz436.s 			page 44


 1190 0345 FA050000 		.4byte	0x5fa
 1191 0349 04       		.byte	0x4
 1192 034a 09       		.uleb128 0x9
 1193 034b F3040000 		.4byte	.LASF64
 1194 034f 08       		.byte	0x8
 1195 0350 6E01     		.2byte	0x16e
 1196 0352 2B010000 		.4byte	0x12b
 1197 0356 08       		.byte	0x8
 1198 0357 09       		.uleb128 0x9
 1199 0358 A8060000 		.4byte	.LASF65
 1200 035c 08       		.byte	0x8
 1201 035d 6F01     		.2byte	0x16f
 1202 035f FA020000 		.4byte	0x2fa
 1203 0363 0C       		.byte	0xc
 1204 0364 09       		.uleb128 0x9
 1205 0365 E5050000 		.4byte	.LASF66
 1206 0369 08       		.byte	0x8
 1207 036a 7101     		.2byte	0x171
 1208 036c 16030000 		.4byte	0x316
 1209 0370 10       		.byte	0x10
 1210 0371 00       		.byte	0
 1211 0372 03       		.uleb128 0x3
 1212 0373 82010000 		.4byte	.LASF67
 1213 0377 07       		.byte	0x7
 1214 0378 66       		.byte	0x66
 1215 0379 7D030000 		.4byte	0x37d
 1216 037d 0B       		.uleb128 0xb
 1217 037e 96030000 		.4byte	.LASF68
 1218 0382 10       		.byte	0x10
 1219 0383 08       		.byte	0x8
 1220 0384 7B01     		.2byte	0x17b
 1221 0386 BF030000 		.4byte	0x3bf
 1222 038a 09       		.uleb128 0x9
 1223 038b 97020000 		.4byte	.LASF62
 1224 038f 08       		.byte	0x8
 1225 0390 7C01     		.2byte	0x17c
 1226 0392 FA050000 		.4byte	0x5fa
 1227 0396 00       		.byte	0
 1228 0397 09       		.uleb128 0x9
 1229 0398 5F020000 		.4byte	.LASF63
 1230 039c 08       		.byte	0x8
 1231 039d 7E01     		.2byte	0x17e
 1232 039f FA050000 		.4byte	0x5fa
 1233 03a3 04       		.byte	0x4
 1234 03a4 09       		.uleb128 0x9
 1235 03a5 F3040000 		.4byte	.LASF64
 1236 03a9 08       		.byte	0x8
 1237 03aa 8001     		.2byte	0x180
 1238 03ac 2B010000 		.4byte	0x12b
 1239 03b0 08       		.byte	0x8
 1240 03b1 09       		.uleb128 0x9
 1241 03b2 C6030000 		.4byte	.LASF69
 1242 03b6 08       		.byte	0x8
 1243 03b7 8801     		.2byte	0x188
 1244 03b9 2B010000 		.4byte	0x12b
 1245 03bd 0C       		.byte	0xc
 1246 03be 00       		.byte	0
ARM GAS  /var/folders/c6/c789hm653lg9vtl73krp73tm0000gn/T//ccvFz436.s 			page 45


 1247 03bf 03       		.uleb128 0x3
 1248 03c0 1A010000 		.4byte	.LASF70
 1249 03c4 07       		.byte	0x7
 1250 03c5 6B       		.byte	0x6b
 1251 03c6 CA030000 		.4byte	0x3ca
 1252 03ca 0B       		.uleb128 0xb
 1253 03cb 4C040000 		.4byte	.LASF71
 1254 03cf 04       		.byte	0x4
 1255 03d0 08       		.byte	0x8
 1256 03d1 A201     		.2byte	0x1a2
 1257 03d3 E5030000 		.4byte	0x3e5
 1258 03d7 09       		.uleb128 0x9
 1259 03d8 B5050000 		.4byte	.LASF72
 1260 03dc 08       		.byte	0x8
 1261 03dd AA01     		.2byte	0x1aa
 1262 03df 00060000 		.4byte	0x600
 1263 03e3 00       		.byte	0
 1264 03e4 00       		.byte	0
 1265 03e5 03       		.uleb128 0x3
 1266 03e6 04030000 		.4byte	.LASF73
 1267 03ea 07       		.byte	0x7
 1268 03eb 70       		.byte	0x70
 1269 03ec F0030000 		.4byte	0x3f0
 1270 03f0 0F       		.uleb128 0xf
 1271 03f1 00020000 		.4byte	.LASF74
 1272 03f5 5001     		.2byte	0x150
 1273 03f7 08       		.byte	0x8
 1274 03f8 C201     		.2byte	0x1c2
 1275 03fa 4C040000 		.4byte	0x44c
 1276 03fe 09       		.uleb128 0x9
 1277 03ff 0F060000 		.4byte	.LASF75
 1278 0403 08       		.byte	0x8
 1279 0404 C601     		.2byte	0x1c6
 1280 0406 93020000 		.4byte	0x293
 1281 040a 00       		.byte	0
 1282 040b 09       		.uleb128 0x9
 1283 040c E7010000 		.4byte	.LASF76
 1284 0410 08       		.byte	0x8
 1285 0411 CA01     		.2byte	0x1ca
 1286 0413 72030000 		.4byte	0x372
 1287 0417 1C       		.byte	0x1c
 1288 0418 08       		.uleb128 0x8
 1289 0419 64626700 		.ascii	"dbg\000"
 1290 041d 08       		.byte	0x8
 1291 041e CE01     		.2byte	0x1ce
 1292 0420 BF030000 		.4byte	0x3bf
 1293 0424 2C       		.byte	0x2c
 1294 0425 09       		.uleb128 0x9
 1295 0426 77010000 		.4byte	.LASF77
 1296 042a 08       		.byte	0x8
 1297 042b D201     		.2byte	0x1d2
 1298 042d 36010000 		.4byte	0x136
 1299 0431 30       		.byte	0x30
 1300 0432 08       		.uleb128 0x8
 1301 0433 746D00   		.ascii	"tm\000"
 1302 0436 08       		.byte	0x8
 1303 0437 D701     		.2byte	0x1d7
ARM GAS  /var/folders/c6/c789hm653lg9vtl73krp73tm0000gn/T//ccvFz436.s 			page 46


 1304 0439 18050000 		.4byte	0x518
 1305 043d 74       		.byte	0x74
 1306 043e 09       		.uleb128 0x9
 1307 043f 75020000 		.4byte	.LASF78
 1308 0443 08       		.byte	0x8
 1309 0444 E301     		.2byte	0x1e3
 1310 0446 05060000 		.4byte	0x605
 1311 044a 78       		.byte	0x78
 1312 044b 00       		.byte	0
 1313 044c 04       		.uleb128 0x4
 1314 044d 04       		.byte	0x4
 1315 044e 07       		.byte	0x7
 1316 044f 7A030000 		.4byte	.LASF79
 1317 0453 03       		.uleb128 0x3
 1318 0454 56020000 		.4byte	.LASF80
 1319 0458 09       		.byte	0x9
 1320 0459 65       		.byte	0x65
 1321 045a 16030000 		.4byte	0x316
 1322 045e 03       		.uleb128 0x3
 1323 045f 65030000 		.4byte	.LASF81
 1324 0463 09       		.byte	0x9
 1325 0464 6D       		.byte	0x6d
 1326 0465 C3000000 		.4byte	0xc3
 1327 0469 06       		.uleb128 0x6
 1328 046a CF050000 		.4byte	.LASF82
 1329 046e 04       		.byte	0x4
 1330 046f 09       		.byte	0x9
 1331 0470 89       		.byte	0x89
 1332 0471 82040000 		.4byte	0x482
 1333 0475 10       		.uleb128 0x10
 1334 0476 72313300 		.ascii	"r13\000"
 1335 047a 09       		.byte	0x9
 1336 047b 8A       		.byte	0x8a
 1337 047c FD040000 		.4byte	0x4fd
 1338 0480 00       		.byte	0
 1339 0481 00       		.byte	0
 1340 0482 06       		.uleb128 0x6
 1341 0483 0E010000 		.4byte	.LASF83
 1342 0487 24       		.byte	0x24
 1343 0488 0A       		.byte	0xa
 1344 0489 F4       		.byte	0xf4
 1345 048a FD040000 		.4byte	0x4fd
 1346 048e 08       		.uleb128 0x8
 1347 048f 723400   		.ascii	"r4\000"
 1348 0492 0A       		.byte	0xa
 1349 0493 0701     		.2byte	0x107
 1350 0495 53040000 		.4byte	0x453
 1351 0499 00       		.byte	0
 1352 049a 08       		.uleb128 0x8
 1353 049b 723500   		.ascii	"r5\000"
 1354 049e 0A       		.byte	0xa
 1355 049f 0801     		.2byte	0x108
 1356 04a1 53040000 		.4byte	0x453
 1357 04a5 04       		.byte	0x4
 1358 04a6 08       		.uleb128 0x8
 1359 04a7 723600   		.ascii	"r6\000"
 1360 04aa 0A       		.byte	0xa
ARM GAS  /var/folders/c6/c789hm653lg9vtl73krp73tm0000gn/T//ccvFz436.s 			page 47


 1361 04ab 0901     		.2byte	0x109
 1362 04ad 53040000 		.4byte	0x453
 1363 04b1 08       		.byte	0x8
 1364 04b2 08       		.uleb128 0x8
 1365 04b3 723700   		.ascii	"r7\000"
 1366 04b6 0A       		.byte	0xa
 1367 04b7 0A01     		.2byte	0x10a
 1368 04b9 53040000 		.4byte	0x453
 1369 04bd 0C       		.byte	0xc
 1370 04be 08       		.uleb128 0x8
 1371 04bf 723800   		.ascii	"r8\000"
 1372 04c2 0A       		.byte	0xa
 1373 04c3 0B01     		.2byte	0x10b
 1374 04c5 53040000 		.4byte	0x453
 1375 04c9 10       		.byte	0x10
 1376 04ca 08       		.uleb128 0x8
 1377 04cb 723900   		.ascii	"r9\000"
 1378 04ce 0A       		.byte	0xa
 1379 04cf 0C01     		.2byte	0x10c
 1380 04d1 53040000 		.4byte	0x453
 1381 04d5 14       		.byte	0x14
 1382 04d6 08       		.uleb128 0x8
 1383 04d7 72313000 		.ascii	"r10\000"
 1384 04db 0A       		.byte	0xa
 1385 04dc 0D01     		.2byte	0x10d
 1386 04de 53040000 		.4byte	0x453
 1387 04e2 18       		.byte	0x18
 1388 04e3 08       		.uleb128 0x8
 1389 04e4 72313100 		.ascii	"r11\000"
 1390 04e8 0A       		.byte	0xa
 1391 04e9 0E01     		.2byte	0x10e
 1392 04eb 53040000 		.4byte	0x453
 1393 04ef 1C       		.byte	0x1c
 1394 04f0 08       		.uleb128 0x8
 1395 04f1 6C7200   		.ascii	"lr\000"
 1396 04f4 0A       		.byte	0xa
 1397 04f5 0F01     		.2byte	0x10f
 1398 04f7 53040000 		.4byte	0x453
 1399 04fb 20       		.byte	0x20
 1400 04fc 00       		.byte	0
 1401 04fd 0A       		.uleb128 0xa
 1402 04fe 04       		.byte	0x4
 1403 04ff 82040000 		.4byte	0x482
 1404 0503 11       		.uleb128 0x11
 1405 0504 04       		.byte	0x4
 1406 0505 0B       		.byte	0xb
 1407 0506 38       		.byte	0x38
 1408 0507 18050000 		.4byte	0x518
 1409 050b 07       		.uleb128 0x7
 1410 050c BF050000 		.4byte	.LASF84
 1411 0510 0B       		.byte	0xb
 1412 0511 3C       		.byte	0x3c
 1413 0512 D3000000 		.4byte	0xd3
 1414 0516 00       		.byte	0
 1415 0517 00       		.byte	0
 1416 0518 03       		.uleb128 0x3
 1417 0519 EF030000 		.4byte	.LASF85
ARM GAS  /var/folders/c6/c789hm653lg9vtl73krp73tm0000gn/T//ccvFz436.s 			page 48


 1418 051d 0B       		.byte	0xb
 1419 051e 3D       		.byte	0x3d
 1420 051f 03050000 		.4byte	0x503
 1421 0523 12       		.uleb128 0x12
 1422 0524 04       		.byte	0x4
 1423 0525 08       		.byte	0x8
 1424 0526 FA       		.byte	0xfa
 1425 0527 80050000 		.4byte	0x580
 1426 052b 13       		.uleb128 0x13
 1427 052c F4000000 		.4byte	.LASF86
 1428 0530 08       		.byte	0x8
 1429 0531 0101     		.2byte	0x101
 1430 0533 0A010000 		.4byte	0x10a
 1431 0537 13       		.uleb128 0x13
 1432 0538 6E010000 		.4byte	.LASF87
 1433 053c 08       		.byte	0x8
 1434 053d 0801     		.2byte	0x108
 1435 053f 0A010000 		.4byte	0x10a
 1436 0543 13       		.uleb128 0x13
 1437 0544 34060000 		.4byte	.LASF88
 1438 0548 08       		.byte	0x8
 1439 0549 0F01     		.2byte	0x10f
 1440 054b 16030000 		.4byte	0x316
 1441 054f 13       		.uleb128 0x13
 1442 0550 FA010000 		.4byte	.LASF89
 1443 0554 08       		.byte	0x8
 1444 0555 1601     		.2byte	0x116
 1445 0557 80050000 		.4byte	0x580
 1446 055b 13       		.uleb128 0x13
 1447 055c AD020000 		.4byte	.LASF90
 1448 0560 08       		.byte	0x8
 1449 0561 1E01     		.2byte	0x11e
 1450 0563 AB050000 		.4byte	0x5ab
 1451 0567 13       		.uleb128 0x13
 1452 0568 E4040000 		.4byte	.LASF91
 1453 056c 08       		.byte	0x8
 1454 056d 2701     		.2byte	0x127
 1455 056f E2050000 		.4byte	0x5e2
 1456 0573 13       		.uleb128 0x13
 1457 0574 95040000 		.4byte	.LASF92
 1458 0578 08       		.byte	0x8
 1459 0579 2F01     		.2byte	0x12f
 1460 057b 15010000 		.4byte	0x115
 1461 057f 00       		.byte	0
 1462 0580 0A       		.uleb128 0xa
 1463 0581 04       		.byte	0x4
 1464 0582 2E020000 		.4byte	0x22e
 1465 0586 06       		.uleb128 0x6
 1466 0587 C3040000 		.4byte	.LASF93
 1467 058b 0C       		.byte	0xc
 1468 058c 0C       		.byte	0xc
 1469 058d 34       		.byte	0x34
 1470 058e AB050000 		.4byte	0x5ab
 1471 0592 07       		.uleb128 0x7
 1472 0593 3A020000 		.4byte	.LASF94
 1473 0597 0C       		.byte	0xc
 1474 0598 35       		.byte	0x35
ARM GAS  /var/folders/c6/c789hm653lg9vtl73krp73tm0000gn/T//ccvFz436.s 			page 49


 1475 0599 63020000 		.4byte	0x263
 1476 059d 00       		.byte	0
 1477 059e 07       		.uleb128 0x7
 1478 059f DB020000 		.4byte	.LASF95
 1479 05a3 0C       		.byte	0xc
 1480 05a4 37       		.byte	0x37
 1481 05a5 20010000 		.4byte	0x120
 1482 05a9 08       		.byte	0x8
 1483 05aa 00       		.byte	0
 1484 05ab 0A       		.uleb128 0xa
 1485 05ac 04       		.byte	0x4
 1486 05ad 86050000 		.4byte	0x586
 1487 05b1 06       		.uleb128 0x6
 1488 05b2 C6050000 		.4byte	.LASF96
 1489 05b6 10       		.byte	0x10
 1490 05b7 0D       		.byte	0xd
 1491 05b8 39       		.byte	0x39
 1492 05b9 E2050000 		.4byte	0x5e2
 1493 05bd 07       		.uleb128 0x7
 1494 05be DF010000 		.4byte	.LASF97
 1495 05c2 0D       		.byte	0xd
 1496 05c3 3A       		.byte	0x3a
 1497 05c4 63020000 		.4byte	0x263
 1498 05c8 00       		.byte	0
 1499 05c9 07       		.uleb128 0x7
 1500 05ca 7A060000 		.4byte	.LASF98
 1501 05ce 0D       		.byte	0xd
 1502 05cf 3C       		.byte	0x3c
 1503 05d0 39020000 		.4byte	0x239
 1504 05d4 08       		.byte	0x8
 1505 05d5 07       		.uleb128 0x7
 1506 05d6 77050000 		.4byte	.LASF99
 1507 05da 0D       		.byte	0xd
 1508 05db 3E       		.byte	0x3e
 1509 05dc 20060000 		.4byte	0x620
 1510 05e0 0C       		.byte	0xc
 1511 05e1 00       		.byte	0
 1512 05e2 0A       		.uleb128 0xa
 1513 05e3 04       		.byte	0x4
 1514 05e4 B1050000 		.4byte	0x5b1
 1515 05e8 0A       		.uleb128 0xa
 1516 05e9 04       		.byte	0x4
 1517 05ea EE050000 		.4byte	0x5ee
 1518 05ee 14       		.uleb128 0x14
 1519 05ef F3050000 		.4byte	0x5f3
 1520 05f3 04       		.uleb128 0x4
 1521 05f4 01       		.byte	0x1
 1522 05f5 08       		.byte	0x8
 1523 05f6 69050000 		.4byte	.LASF100
 1524 05fa 0A       		.uleb128 0xa
 1525 05fb 04       		.byte	0x4
 1526 05fc 18030000 		.4byte	0x318
 1527 0600 05       		.uleb128 0x5
 1528 0601 E8050000 		.4byte	0x5e8
 1529 0605 15       		.uleb128 0x15
 1530 0606 5E040000 		.4byte	0x45e
 1531 060a 15060000 		.4byte	0x615
ARM GAS  /var/folders/c6/c789hm653lg9vtl73krp73tm0000gn/T//ccvFz436.s 			page 50


 1532 060e 16       		.uleb128 0x16
 1533 060f 4C040000 		.4byte	0x44c
 1534 0613 1A       		.byte	0x1a
 1535 0614 00       		.byte	0
 1536 0615 03       		.uleb128 0x3
 1537 0616 67020000 		.4byte	.LASF101
 1538 061a 0D       		.byte	0xd
 1539 061b 34       		.byte	0x34
 1540 061c B1050000 		.4byte	0x5b1
 1541 0620 0A       		.uleb128 0xa
 1542 0621 04       		.byte	0x4
 1543 0622 15060000 		.4byte	0x615
 1544 0626 03       		.uleb128 0x3
 1545 0627 3C010000 		.4byte	.LASF102
 1546 062b 0E       		.byte	0xe
 1547 062c 36       		.byte	0x36
 1548 062d 31060000 		.4byte	0x631
 1549 0631 0A       		.uleb128 0xa
 1550 0632 04       		.byte	0x4
 1551 0633 37060000 		.4byte	0x637
 1552 0637 17       		.uleb128 0x17
 1553 0638 16030000 		.4byte	0x316
 1554 063c 46060000 		.4byte	0x646
 1555 0640 0D       		.uleb128 0xd
 1556 0641 2C000000 		.4byte	0x2c
 1557 0645 00       		.byte	0
 1558 0646 06       		.uleb128 0x6
 1559 0647 FC050000 		.4byte	.LASF103
 1560 064b 04       		.byte	0x4
 1561 064c 0F       		.byte	0xf
 1562 064d 38       		.byte	0x38
 1563 064e 5F060000 		.4byte	0x65f
 1564 0652 07       		.uleb128 0x7
 1565 0653 1D040000 		.4byte	.LASF104
 1566 0657 0F       		.byte	0xf
 1567 0658 39       		.byte	0x39
 1568 0659 5F060000 		.4byte	0x65f
 1569 065d 00       		.byte	0
 1570 065e 00       		.byte	0
 1571 065f 0A       		.uleb128 0xa
 1572 0660 04       		.byte	0x4
 1573 0661 46060000 		.4byte	0x646
 1574 0665 11       		.uleb128 0x11
 1575 0666 0C       		.byte	0xc
 1576 0667 0F       		.byte	0xf
 1577 0668 40       		.byte	0x40
 1578 0669 92060000 		.4byte	0x692
 1579 066d 07       		.uleb128 0x7
 1580 066e 2A020000 		.4byte	.LASF105
 1581 0672 0F       		.byte	0xf
 1582 0673 41       		.byte	0x41
 1583 0674 5F060000 		.4byte	0x65f
 1584 0678 00       		.byte	0
 1585 0679 07       		.uleb128 0x7
 1586 067a E0030000 		.4byte	.LASF106
 1587 067e 0F       		.byte	0xf
 1588 067f 42       		.byte	0x42
ARM GAS  /var/folders/c6/c789hm653lg9vtl73krp73tm0000gn/T//ccvFz436.s 			page 51


 1589 0680 2C000000 		.4byte	0x2c
 1590 0684 04       		.byte	0x4
 1591 0685 07       		.uleb128 0x7
 1592 0686 4A020000 		.4byte	.LASF107
 1593 068a 0F       		.byte	0xf
 1594 068b 44       		.byte	0x44
 1595 068c 26060000 		.4byte	0x626
 1596 0690 08       		.byte	0x8
 1597 0691 00       		.byte	0
 1598 0692 03       		.uleb128 0x3
 1599 0693 CD020000 		.4byte	.LASF108
 1600 0697 0F       		.byte	0xf
 1601 0698 46       		.byte	0x46
 1602 0699 65060000 		.4byte	0x665
 1603 069d 18       		.uleb128 0x18
 1604 069e A7050000 		.4byte	.LASF115
 1605 06a2 02       		.byte	0x2
 1606 06a3 2002     		.2byte	0x220
 1607 06a5 03       		.byte	0x3
 1608 06a6 B7060000 		.4byte	0x6b7
 1609 06aa 19       		.uleb128 0x19
 1610 06ab 6F020000 		.4byte	.LASF112
 1611 06af 02       		.byte	0x2
 1612 06b0 2002     		.2byte	0x220
 1613 06b2 B8000000 		.4byte	0xb8
 1614 06b6 00       		.byte	0
 1615 06b7 1A       		.uleb128 0x1a
 1616 06b8 32010000 		.4byte	.LASF109
 1617 06bc 0A       		.byte	0xa
 1618 06bd BC01     		.2byte	0x1bc
 1619 06bf 03       		.byte	0x3
 1620 06c0 1A       		.uleb128 0x1a
 1621 06c1 EE010000 		.4byte	.LASF110
 1622 06c5 0A       		.byte	0xa
 1623 06c6 CA01     		.2byte	0x1ca
 1624 06c8 03       		.byte	0x3
 1625 06c9 1A       		.uleb128 0x1a
 1626 06ca A3040000 		.4byte	.LASF111
 1627 06ce 10       		.byte	0x10
 1628 06cf 5A01     		.2byte	0x15a
 1629 06d1 03       		.byte	0x3
 1630 06d2 1B       		.uleb128 0x1b
 1631 06d3 AD030000 		.4byte	.LASF118
 1632 06d7 01       		.byte	0x1
 1633 06d8 78       		.byte	0x78
 1634 06d9 16030000 		.4byte	0x316
 1635 06dd 01       		.byte	0x1
 1636 06de 05070000 		.4byte	0x705
 1637 06e2 1C       		.uleb128 0x1c
 1638 06e3 6D7000   		.ascii	"mp\000"
 1639 06e6 01       		.byte	0x1
 1640 06e7 78       		.byte	0x78
 1641 06e8 05070000 		.4byte	0x705
 1642 06ec 1D       		.uleb128 0x1d
 1643 06ed AD040000 		.4byte	.LASF113
 1644 06f1 01       		.byte	0x1
 1645 06f2 79       		.byte	0x79
ARM GAS  /var/folders/c6/c789hm653lg9vtl73krp73tm0000gn/T//ccvFz436.s 			page 52


 1646 06f3 16030000 		.4byte	0x316
 1647 06f7 1E       		.uleb128 0x1e
 1648 06f8 49010000 		.4byte	.LASF114
 1649 06fc 1B070000 		.4byte	0x71b
 1650 0700 AD030000 		.4byte	.LASF118
 1651 0704 00       		.byte	0
 1652 0705 0A       		.uleb128 0xa
 1653 0706 04       		.byte	0x4
 1654 0707 92060000 		.4byte	0x692
 1655 070b 15       		.uleb128 0x15
 1656 070c F3050000 		.4byte	0x5f3
 1657 0710 1B070000 		.4byte	0x71b
 1658 0714 16       		.uleb128 0x16
 1659 0715 4C040000 		.4byte	0x44c
 1660 0719 0C       		.byte	0xc
 1661 071a 00       		.byte	0
 1662 071b 14       		.uleb128 0x14
 1663 071c 0B070000 		.4byte	0x70b
 1664 0720 18       		.uleb128 0x18
 1665 0721 5E060000 		.4byte	.LASF116
 1666 0725 10       		.byte	0x10
 1667 0726 6601     		.2byte	0x166
 1668 0728 03       		.byte	0x3
 1669 0729 3B070000 		.4byte	0x73b
 1670 072d 1E       		.uleb128 0x1e
 1671 072e 9F020000 		.4byte	.LASF117
 1672 0732 4B070000 		.4byte	0x74b
 1673 0736 5E060000 		.4byte	.LASF116
 1674 073a 00       		.byte	0
 1675 073b 15       		.uleb128 0x15
 1676 073c F3050000 		.4byte	0x5f3
 1677 0740 4B070000 		.4byte	0x74b
 1678 0744 16       		.uleb128 0x16
 1679 0745 4C040000 		.4byte	0x44c
 1680 0749 0B       		.byte	0xb
 1681 074a 00       		.byte	0
 1682 074b 14       		.uleb128 0x14
 1683 074c 3B070000 		.4byte	0x73b
 1684 0750 1F       		.uleb128 0x1f
 1685 0751 BA030000 		.4byte	.LASF120
 1686 0755 01       		.byte	0x1
 1687 0756 AB       		.byte	0xab
 1688 0757 01       		.byte	0x1
 1689 0758 8A070000 		.4byte	0x78a
 1690 075c 1C       		.uleb128 0x1c
 1691 075d 6D7000   		.ascii	"mp\000"
 1692 0760 01       		.byte	0x1
 1693 0761 AB       		.byte	0xab
 1694 0762 05070000 		.4byte	0x705
 1695 0766 20       		.uleb128 0x20
 1696 0767 AD040000 		.4byte	.LASF113
 1697 076b 01       		.byte	0x1
 1698 076c AB       		.byte	0xab
 1699 076d 16030000 		.4byte	0x316
 1700 0771 21       		.uleb128 0x21
 1701 0772 70687000 		.ascii	"php\000"
 1702 0776 01       		.byte	0x1
ARM GAS  /var/folders/c6/c789hm653lg9vtl73krp73tm0000gn/T//ccvFz436.s 			page 53


 1703 0777 AC       		.byte	0xac
 1704 0778 5F060000 		.4byte	0x65f
 1705 077c 1E       		.uleb128 0x1e
 1706 077d 1C020000 		.4byte	.LASF119
 1707 0781 8A070000 		.4byte	0x78a
 1708 0785 BA030000 		.4byte	.LASF120
 1709 0789 00       		.byte	0
 1710 078a 14       		.uleb128 0x14
 1711 078b 3B070000 		.4byte	0x73b
 1712 078f 1F       		.uleb128 0x1f
 1713 0790 29060000 		.4byte	.LASF121
 1714 0794 01       		.byte	0x1
 1715 0795 C1       		.byte	0xc1
 1716 0796 01       		.byte	0x1
 1717 0797 B1070000 		.4byte	0x7b1
 1718 079b 1C       		.uleb128 0x1c
 1719 079c 6D7000   		.ascii	"mp\000"
 1720 079f 01       		.byte	0x1
 1721 07a0 C1       		.byte	0xc1
 1722 07a1 05070000 		.4byte	0x705
 1723 07a5 20       		.uleb128 0x20
 1724 07a6 AD040000 		.4byte	.LASF113
 1725 07aa 01       		.byte	0x1
 1726 07ab C1       		.byte	0xc1
 1727 07ac 16030000 		.4byte	0x316
 1728 07b0 00       		.byte	0
 1729 07b1 22       		.uleb128 0x22
 1730 07b2 10030000 		.4byte	.LASF122
 1731 07b6 0F       		.byte	0xf
 1732 07b7 89       		.byte	0x89
 1733 07b8 03       		.byte	0x3
 1734 07b9 D3070000 		.4byte	0x7d3
 1735 07bd 1C       		.uleb128 0x1c
 1736 07be 6D7000   		.ascii	"mp\000"
 1737 07c1 0F       		.byte	0xf
 1738 07c2 89       		.byte	0x89
 1739 07c3 05070000 		.4byte	0x705
 1740 07c7 20       		.uleb128 0x20
 1741 07c8 AD040000 		.4byte	.LASF113
 1742 07cc 0F       		.byte	0xf
 1743 07cd 89       		.byte	0x89
 1744 07ce 16030000 		.4byte	0x316
 1745 07d2 00       		.byte	0
 1746 07d3 23       		.uleb128 0x23
 1747 07d4 22030000 		.4byte	.LASF125
 1748 07d8 01       		.byte	0x1
 1749 07d9 4B       		.byte	0x4b
 1750 07da 00000000 		.4byte	.LFB229
 1751 07de 0A000000 		.4byte	.LFE229-.LFB229
 1752 07e2 01       		.uleb128 0x1
 1753 07e3 9C       		.byte	0x9c
 1754 07e4 18080000 		.4byte	0x818
 1755 07e8 24       		.uleb128 0x24
 1756 07e9 6D7000   		.ascii	"mp\000"
 1757 07ec 01       		.byte	0x1
 1758 07ed 4B       		.byte	0x4b
 1759 07ee 05070000 		.4byte	0x705
ARM GAS  /var/folders/c6/c789hm653lg9vtl73krp73tm0000gn/T//ccvFz436.s 			page 54


 1760 07f2 01       		.uleb128 0x1
 1761 07f3 50       		.byte	0x50
 1762 07f4 25       		.uleb128 0x25
 1763 07f5 42060000 		.4byte	.LASF123
 1764 07f9 01       		.byte	0x1
 1765 07fa 4B       		.byte	0x4b
 1766 07fb 2C000000 		.4byte	0x2c
 1767 07ff 01       		.uleb128 0x1
 1768 0800 51       		.byte	0x51
 1769 0801 25       		.uleb128 0x25
 1770 0802 29010000 		.4byte	.LASF124
 1771 0806 01       		.byte	0x1
 1772 0807 4B       		.byte	0x4b
 1773 0808 26060000 		.4byte	0x626
 1774 080c 01       		.uleb128 0x1
 1775 080d 52       		.byte	0x52
 1776 080e 26       		.uleb128 0x26
 1777 080f B4020000 		.4byte	.LASF127
 1778 0813 28080000 		.4byte	0x828
 1779 0817 00       		.byte	0
 1780 0818 15       		.uleb128 0x15
 1781 0819 F3050000 		.4byte	0x5f3
 1782 081d 28080000 		.4byte	0x828
 1783 0821 16       		.uleb128 0x16
 1784 0822 4C040000 		.4byte	0x44c
 1785 0826 10       		.byte	0x10
 1786 0827 00       		.byte	0
 1787 0828 14       		.uleb128 0x14
 1788 0829 18080000 		.4byte	0x818
 1789 082d 23       		.uleb128 0x23
 1790 082e 6A060000 		.4byte	.LASF126
 1791 0832 01       		.byte	0x1
 1792 0833 61       		.byte	0x61
 1793 0834 00000000 		.4byte	.LFB230
 1794 0838 22000000 		.4byte	.LFE230-.LFB230
 1795 083c 01       		.uleb128 0x1
 1796 083d 9C       		.byte	0x9c
 1797 083e 79090000 		.4byte	0x979
 1798 0842 24       		.uleb128 0x24
 1799 0843 6D7000   		.ascii	"mp\000"
 1800 0846 01       		.byte	0x1
 1801 0847 61       		.byte	0x61
 1802 0848 05070000 		.4byte	0x705
 1803 084c 01       		.uleb128 0x1
 1804 084d 50       		.byte	0x50
 1805 084e 27       		.uleb128 0x27
 1806 084f 7000     		.ascii	"p\000"
 1807 0851 01       		.byte	0x1
 1808 0852 61       		.byte	0x61
 1809 0853 16030000 		.4byte	0x316
 1810 0857 00000000 		.4byte	.LLST0
 1811 085b 27       		.uleb128 0x27
 1812 085c 6E00     		.ascii	"n\000"
 1813 085e 01       		.byte	0x1
 1814 085f 61       		.byte	0x61
 1815 0860 2C000000 		.4byte	0x2c
 1816 0864 1E000000 		.4byte	.LLST1
ARM GAS  /var/folders/c6/c789hm653lg9vtl73krp73tm0000gn/T//ccvFz436.s 			page 55


 1817 0868 26       		.uleb128 0x26
 1818 0869 57030000 		.4byte	.LASF128
 1819 086d 89090000 		.4byte	0x989
 1820 0871 28       		.uleb128 0x28
 1821 0872 B1070000 		.4byte	0x7b1
 1822 0876 04000000 		.4byte	.LBB77
 1823 087a 12000000 		.4byte	.LBE77-.LBB77
 1824 087e 01       		.byte	0x1
 1825 087f 66       		.byte	0x66
 1826 0880 29       		.uleb128 0x29
 1827 0881 BD070000 		.4byte	0x7bd
 1828 0885 49000000 		.4byte	.LLST2
 1829 0889 29       		.uleb128 0x29
 1830 088a C7070000 		.4byte	0x7c7
 1831 088e 5C000000 		.4byte	.LLST3
 1832 0892 28       		.uleb128 0x28
 1833 0893 8F070000 		.4byte	0x78f
 1834 0897 04000000 		.4byte	.LBB78
 1835 089b 12000000 		.4byte	.LBE78-.LBB78
 1836 089f 0F       		.byte	0xf
 1837 08a0 8B       		.byte	0x8b
 1838 08a1 29       		.uleb128 0x29
 1839 08a2 A5070000 		.4byte	0x7a5
 1840 08a6 5C000000 		.4byte	.LLST3
 1841 08aa 29       		.uleb128 0x29
 1842 08ab 9B070000 		.4byte	0x79b
 1843 08af 49000000 		.4byte	.LLST2
 1844 08b3 2A       		.uleb128 0x2a
 1845 08b4 C9060000 		.4byte	0x6c9
 1846 08b8 04000000 		.4byte	.LBB79
 1847 08bc 00000000 		.4byte	.Ldebug_ranges0+0
 1848 08c0 01       		.byte	0x1
 1849 08c1 C3       		.byte	0xc3
 1850 08c2 F2080000 		.4byte	0x8f2
 1851 08c6 2B       		.uleb128 0x2b
 1852 08c7 B7060000 		.4byte	0x6b7
 1853 08cb 04000000 		.4byte	.LBB80
 1854 08cf 00000000 		.4byte	.Ldebug_ranges0+0
 1855 08d3 10       		.byte	0x10
 1856 08d4 5C01     		.2byte	0x15c
 1857 08d6 2B       		.uleb128 0x2b
 1858 08d7 9D060000 		.4byte	0x69d
 1859 08db 04000000 		.4byte	.LBB81
 1860 08df 00000000 		.4byte	.Ldebug_ranges0+0
 1861 08e3 0A       		.byte	0xa
 1862 08e4 BF01     		.2byte	0x1bf
 1863 08e6 29       		.uleb128 0x29
 1864 08e7 AA060000 		.4byte	0x6aa
 1865 08eb 7B000000 		.4byte	.LLST6
 1866 08ef 00       		.byte	0
 1867 08f0 00       		.byte	0
 1868 08f1 00       		.byte	0
 1869 08f2 2A       		.uleb128 0x2a
 1870 08f3 20070000 		.4byte	0x720
 1871 08f7 06000000 		.4byte	.LBB86
 1872 08fb 18000000 		.4byte	.Ldebug_ranges0+0x18
 1873 08ff 01       		.byte	0x1
ARM GAS  /var/folders/c6/c789hm653lg9vtl73krp73tm0000gn/T//ccvFz436.s 			page 56


 1874 0900 C5       		.byte	0xc5
 1875 0901 3C090000 		.4byte	0x93c
 1876 0905 2C       		.uleb128 0x2c
 1877 0906 18000000 		.4byte	.Ldebug_ranges0+0x18
 1878 090a 2D       		.uleb128 0x2d
 1879 090b 2D070000 		.4byte	0x72d
 1880 090f 2B       		.uleb128 0x2b
 1881 0910 C0060000 		.4byte	0x6c0
 1882 0914 06000000 		.4byte	.LBB88
 1883 0918 18000000 		.4byte	.Ldebug_ranges0+0x18
 1884 091c 10       		.byte	0x10
 1885 091d 7301     		.2byte	0x173
 1886 091f 2B       		.uleb128 0x2b
 1887 0920 9D060000 		.4byte	0x69d
 1888 0924 06000000 		.4byte	.LBB89
 1889 0928 18000000 		.4byte	.Ldebug_ranges0+0x18
 1890 092c 0A       		.byte	0xa
 1891 092d CD01     		.2byte	0x1cd
 1892 092f 29       		.uleb128 0x29
 1893 0930 AA060000 		.4byte	0x6aa
 1894 0934 90000000 		.4byte	.LLST7
 1895 0938 00       		.byte	0
 1896 0939 00       		.byte	0
 1897 093a 00       		.byte	0
 1898 093b 00       		.byte	0
 1899 093c 28       		.uleb128 0x28
 1900 093d 50070000 		.4byte	0x750
 1901 0941 0C000000 		.4byte	.LBB96
 1902 0945 06000000 		.4byte	.LBE96-.LBB96
 1903 0949 01       		.byte	0x1
 1904 094a C4       		.byte	0xc4
 1905 094b 29       		.uleb128 0x29
 1906 094c 66070000 		.4byte	0x766
 1907 0950 A4000000 		.4byte	.LLST8
 1908 0954 29       		.uleb128 0x29
 1909 0955 5C070000 		.4byte	0x75c
 1910 0959 C3000000 		.4byte	.LLST9
 1911 095d 2E       		.uleb128 0x2e
 1912 095e 0C000000 		.4byte	.LBB97
 1913 0962 06000000 		.4byte	.LBE97-.LBB97
 1914 0966 2F       		.uleb128 0x2f
 1915 0967 71070000 		.4byte	0x771
 1916 096b A4000000 		.4byte	.LLST8
 1917 096f 2D       		.uleb128 0x2d
 1918 0970 7C070000 		.4byte	0x77c
 1919 0974 00       		.byte	0
 1920 0975 00       		.byte	0
 1921 0976 00       		.byte	0
 1922 0977 00       		.byte	0
 1923 0978 00       		.byte	0
 1924 0979 15       		.uleb128 0x15
 1925 097a F3050000 		.4byte	0x5f3
 1926 097e 89090000 		.4byte	0x989
 1927 0982 16       		.uleb128 0x16
 1928 0983 4C040000 		.4byte	0x44c
 1929 0987 0F       		.byte	0xf
 1930 0988 00       		.byte	0
ARM GAS  /var/folders/c6/c789hm653lg9vtl73krp73tm0000gn/T//ccvFz436.s 			page 57


 1931 0989 14       		.uleb128 0x14
 1932 098a 79090000 		.4byte	0x979
 1933 098e 30       		.uleb128 0x30
 1934 098f D2060000 		.4byte	0x6d2
 1935 0993 00000000 		.4byte	.LFB231
 1936 0997 18000000 		.4byte	.LFE231-.LFB231
 1937 099b 01       		.uleb128 0x1
 1938 099c 9C       		.byte	0x9c
 1939 099d B9090000 		.4byte	0x9b9
 1940 09a1 29       		.uleb128 0x29
 1941 09a2 E2060000 		.4byte	0x6e2
 1942 09a6 D6000000 		.4byte	.LLST11
 1943 09aa 2F       		.uleb128 0x2f
 1944 09ab EC060000 		.4byte	0x6ec
 1945 09af 02010000 		.4byte	.LLST12
 1946 09b3 2D       		.uleb128 0x2d
 1947 09b4 F7060000 		.4byte	0x6f7
 1948 09b8 00       		.byte	0
 1949 09b9 31       		.uleb128 0x31
 1950 09ba 1D060000 		.4byte	.LASF133
 1951 09be 01       		.byte	0x1
 1952 09bf 95       		.byte	0x95
 1953 09c0 16030000 		.4byte	0x316
 1954 09c4 00000000 		.4byte	.LFB232
 1955 09c8 2C000000 		.4byte	.LFE232-.LFB232
 1956 09cc 01       		.uleb128 0x1
 1957 09cd 9C       		.byte	0x9c
 1958 09ce A10A0000 		.4byte	0xaa1
 1959 09d2 27       		.uleb128 0x27
 1960 09d3 6D7000   		.ascii	"mp\000"
 1961 09d6 01       		.byte	0x1
 1962 09d7 95       		.byte	0x95
 1963 09d8 05070000 		.4byte	0x705
 1964 09dc 2C010000 		.4byte	.LLST13
 1965 09e0 32       		.uleb128 0x32
 1966 09e1 AD040000 		.4byte	.LASF113
 1967 09e5 01       		.byte	0x1
 1968 09e6 96       		.byte	0x96
 1969 09e7 16030000 		.4byte	0x316
 1970 09eb 01       		.uleb128 0x1
 1971 09ec 50       		.byte	0x50
 1972 09ed 2A       		.uleb128 0x2a
 1973 09ee C9060000 		.4byte	0x6c9
 1974 09f2 02000000 		.4byte	.LBB99
 1975 09f6 30000000 		.4byte	.Ldebug_ranges0+0x30
 1976 09fa 01       		.byte	0x1
 1977 09fb 98       		.byte	0x98
 1978 09fc 290A0000 		.4byte	0xa29
 1979 0a00 2B       		.uleb128 0x2b
 1980 0a01 B7060000 		.4byte	0x6b7
 1981 0a05 02000000 		.4byte	.LBB100
 1982 0a09 30000000 		.4byte	.Ldebug_ranges0+0x30
 1983 0a0d 10       		.byte	0x10
 1984 0a0e 5C01     		.2byte	0x15c
 1985 0a10 2B       		.uleb128 0x2b
 1986 0a11 9D060000 		.4byte	0x69d
 1987 0a15 02000000 		.4byte	.LBB101
ARM GAS  /var/folders/c6/c789hm653lg9vtl73krp73tm0000gn/T//ccvFz436.s 			page 58


 1988 0a19 30000000 		.4byte	.Ldebug_ranges0+0x30
 1989 0a1d 0A       		.byte	0xa
 1990 0a1e BF01     		.2byte	0x1bf
 1991 0a20 33       		.uleb128 0x33
 1992 0a21 AA060000 		.4byte	0x6aa
 1993 0a25 20       		.byte	0x20
 1994 0a26 00       		.byte	0
 1995 0a27 00       		.byte	0
 1996 0a28 00       		.byte	0
 1997 0a29 2A       		.uleb128 0x2a
 1998 0a2a D2060000 		.4byte	0x6d2
 1999 0a2e 0A000000 		.4byte	.LBB107
 2000 0a32 48000000 		.4byte	.Ldebug_ranges0+0x48
 2001 0a36 01       		.byte	0x1
 2002 0a37 99       		.byte	0x99
 2003 0a38 5A0A0000 		.4byte	0xa5a
 2004 0a3c 29       		.uleb128 0x29
 2005 0a3d E2060000 		.4byte	0x6e2
 2006 0a41 71010000 		.4byte	.LLST14
 2007 0a45 2C       		.uleb128 0x2c
 2008 0a46 48000000 		.4byte	.Ldebug_ranges0+0x48
 2009 0a4a 2F       		.uleb128 0x2f
 2010 0a4b EC060000 		.4byte	0x6ec
 2011 0a4f B6010000 		.4byte	.LLST15
 2012 0a53 2D       		.uleb128 0x2d
 2013 0a54 F7060000 		.4byte	0x6f7
 2014 0a58 00       		.byte	0
 2015 0a59 00       		.byte	0
 2016 0a5a 34       		.uleb128 0x34
 2017 0a5b 20070000 		.4byte	0x720
 2018 0a5f 12000000 		.4byte	.LBB110
 2019 0a63 60000000 		.4byte	.Ldebug_ranges0+0x60
 2020 0a67 01       		.byte	0x1
 2021 0a68 9A       		.byte	0x9a
 2022 0a69 2C       		.uleb128 0x2c
 2023 0a6a 60000000 		.4byte	.Ldebug_ranges0+0x60
 2024 0a6e 2D       		.uleb128 0x2d
 2025 0a6f 2D070000 		.4byte	0x72d
 2026 0a73 2B       		.uleb128 0x2b
 2027 0a74 C0060000 		.4byte	0x6c0
 2028 0a78 12000000 		.4byte	.LBB112
 2029 0a7c 60000000 		.4byte	.Ldebug_ranges0+0x60
 2030 0a80 10       		.byte	0x10
 2031 0a81 7301     		.2byte	0x173
 2032 0a83 2B       		.uleb128 0x2b
 2033 0a84 9D060000 		.4byte	0x69d
 2034 0a88 12000000 		.4byte	.LBB113
 2035 0a8c 60000000 		.4byte	.Ldebug_ranges0+0x60
 2036 0a90 0A       		.byte	0xa
 2037 0a91 CD01     		.2byte	0x1cd
 2038 0a93 29       		.uleb128 0x29
 2039 0a94 AA060000 		.4byte	0x6aa
 2040 0a98 E0010000 		.4byte	.LLST16
 2041 0a9c 00       		.byte	0
 2042 0a9d 00       		.byte	0
 2043 0a9e 00       		.byte	0
 2044 0a9f 00       		.byte	0
ARM GAS  /var/folders/c6/c789hm653lg9vtl73krp73tm0000gn/T//ccvFz436.s 			page 59


 2045 0aa0 00       		.byte	0
 2046 0aa1 35       		.uleb128 0x35
 2047 0aa2 50070000 		.4byte	0x750
 2048 0aa6 00000000 		.4byte	.LFB233
 2049 0aaa 08000000 		.4byte	.LFE233-.LFB233
 2050 0aae 01       		.uleb128 0x1
 2051 0aaf 9C       		.byte	0x9c
 2052 0ab0 CF0A0000 		.4byte	0xacf
 2053 0ab4 36       		.uleb128 0x36
 2054 0ab5 5C070000 		.4byte	0x75c
 2055 0ab9 01       		.uleb128 0x1
 2056 0aba 50       		.byte	0x50
 2057 0abb 36       		.uleb128 0x36
 2058 0abc 66070000 		.4byte	0x766
 2059 0ac0 01       		.uleb128 0x1
 2060 0ac1 51       		.byte	0x51
 2061 0ac2 37       		.uleb128 0x37
 2062 0ac3 71070000 		.4byte	0x771
 2063 0ac7 01       		.uleb128 0x1
 2064 0ac8 51       		.byte	0x51
 2065 0ac9 2D       		.uleb128 0x2d
 2066 0aca 7C070000 		.4byte	0x77c
 2067 0ace 00       		.byte	0
 2068 0acf 35       		.uleb128 0x35
 2069 0ad0 8F070000 		.4byte	0x78f
 2070 0ad4 00000000 		.4byte	.LFB234
 2071 0ad8 14000000 		.4byte	.LFE234-.LFB234
 2072 0adc 01       		.uleb128 0x1
 2073 0add 9C       		.byte	0x9c
 2074 0ade A40B0000 		.4byte	0xba4
 2075 0ae2 36       		.uleb128 0x36
 2076 0ae3 9B070000 		.4byte	0x79b
 2077 0ae7 01       		.uleb128 0x1
 2078 0ae8 50       		.byte	0x50
 2079 0ae9 36       		.uleb128 0x36
 2080 0aea A5070000 		.4byte	0x7a5
 2081 0aee 01       		.uleb128 0x1
 2082 0aef 51       		.byte	0x51
 2083 0af0 38       		.uleb128 0x38
 2084 0af1 C9060000 		.4byte	0x6c9
 2085 0af5 00000000 		.4byte	.LBB121
 2086 0af9 06000000 		.4byte	.LBE121-.LBB121
 2087 0afd 01       		.byte	0x1
 2088 0afe C3       		.byte	0xc3
 2089 0aff 2C0B0000 		.4byte	0xb2c
 2090 0b03 39       		.uleb128 0x39
 2091 0b04 B7060000 		.4byte	0x6b7
 2092 0b08 00000000 		.4byte	.LBB122
 2093 0b0c 06000000 		.4byte	.LBE122-.LBB122
 2094 0b10 10       		.byte	0x10
 2095 0b11 5C01     		.2byte	0x15c
 2096 0b13 39       		.uleb128 0x39
 2097 0b14 9D060000 		.4byte	0x69d
 2098 0b18 00000000 		.4byte	.LBB123
 2099 0b1c 06000000 		.4byte	.LBE123-.LBB123
 2100 0b20 0A       		.byte	0xa
 2101 0b21 BF01     		.2byte	0x1bf
ARM GAS  /var/folders/c6/c789hm653lg9vtl73krp73tm0000gn/T//ccvFz436.s 			page 60


 2102 0b23 33       		.uleb128 0x33
 2103 0b24 AA060000 		.4byte	0x6aa
 2104 0b28 20       		.byte	0x20
 2105 0b29 00       		.byte	0
 2106 0b2a 00       		.byte	0
 2107 0b2b 00       		.byte	0
 2108 0b2c 2A       		.uleb128 0x2a
 2109 0b2d 50070000 		.4byte	0x750
 2110 0b31 06000000 		.4byte	.LBB125
 2111 0b35 78000000 		.4byte	.Ldebug_ranges0+0x78
 2112 0b39 01       		.byte	0x1
 2113 0b3a C4       		.byte	0xc4
 2114 0b3b 600B0000 		.4byte	0xb60
 2115 0b3f 36       		.uleb128 0x36
 2116 0b40 66070000 		.4byte	0x766
 2117 0b44 01       		.uleb128 0x1
 2118 0b45 51       		.byte	0x51
 2119 0b46 36       		.uleb128 0x36
 2120 0b47 5C070000 		.4byte	0x75c
 2121 0b4b 01       		.uleb128 0x1
 2122 0b4c 50       		.byte	0x50
 2123 0b4d 2C       		.uleb128 0x2c
 2124 0b4e 78000000 		.4byte	.Ldebug_ranges0+0x78
 2125 0b52 37       		.uleb128 0x37
 2126 0b53 71070000 		.4byte	0x771
 2127 0b57 01       		.uleb128 0x1
 2128 0b58 51       		.byte	0x51
 2129 0b59 2D       		.uleb128 0x2d
 2130 0b5a 7C070000 		.4byte	0x77c
 2131 0b5e 00       		.byte	0
 2132 0b5f 00       		.byte	0
 2133 0b60 34       		.uleb128 0x34
 2134 0b61 20070000 		.4byte	0x720
 2135 0b65 0A000000 		.4byte	.LBB128
 2136 0b69 90000000 		.4byte	.Ldebug_ranges0+0x90
 2137 0b6d 01       		.byte	0x1
 2138 0b6e C5       		.byte	0xc5
 2139 0b6f 2C       		.uleb128 0x2c
 2140 0b70 90000000 		.4byte	.Ldebug_ranges0+0x90
 2141 0b74 2D       		.uleb128 0x2d
 2142 0b75 2D070000 		.4byte	0x72d
 2143 0b79 2B       		.uleb128 0x2b
 2144 0b7a C0060000 		.4byte	0x6c0
 2145 0b7e 0A000000 		.4byte	.LBB130
 2146 0b82 90000000 		.4byte	.Ldebug_ranges0+0x90
 2147 0b86 10       		.byte	0x10
 2148 0b87 7301     		.2byte	0x173
 2149 0b89 2B       		.uleb128 0x2b
 2150 0b8a 9D060000 		.4byte	0x69d
 2151 0b8e 0A000000 		.4byte	.LBB131
 2152 0b92 90000000 		.4byte	.Ldebug_ranges0+0x90
 2153 0b96 0A       		.byte	0xa
 2154 0b97 CD01     		.2byte	0x1cd
 2155 0b99 33       		.uleb128 0x33
 2156 0b9a AA060000 		.4byte	0x6aa
 2157 0b9e 00       		.byte	0
 2158 0b9f 00       		.byte	0
ARM GAS  /var/folders/c6/c789hm653lg9vtl73krp73tm0000gn/T//ccvFz436.s 			page 61


 2159 0ba0 00       		.byte	0
 2160 0ba1 00       		.byte	0
 2161 0ba2 00       		.byte	0
 2162 0ba3 00       		.byte	0
 2163 0ba4 3A       		.uleb128 0x3a
 2164 0ba5 98010000 		.4byte	.LASF129
 2165 0ba9 11       		.byte	0x11
 2166 0baa A706     		.2byte	0x6a7
 2167 0bac CE000000 		.4byte	0xce
 2168 0bb0 3B       		.uleb128 0x3b
 2169 0bb1 636800   		.ascii	"ch\000"
 2170 0bb4 08       		.byte	0x8
 2171 0bb5 0902     		.2byte	0x209
 2172 0bb7 E5030000 		.4byte	0x3e5
 2173 0bbb 00       		.byte	0
 2174              		.section	.debug_abbrev,"",%progbits
 2175              	.Ldebug_abbrev0:
 2176 0000 01       		.uleb128 0x1
 2177 0001 11       		.uleb128 0x11
 2178 0002 01       		.byte	0x1
 2179 0003 25       		.uleb128 0x25
 2180 0004 0E       		.uleb128 0xe
 2181 0005 13       		.uleb128 0x13
 2182 0006 0B       		.uleb128 0xb
 2183 0007 03       		.uleb128 0x3
 2184 0008 0E       		.uleb128 0xe
 2185 0009 1B       		.uleb128 0x1b
 2186 000a 0E       		.uleb128 0xe
 2187 000b 55       		.uleb128 0x55
 2188 000c 17       		.uleb128 0x17
 2189 000d 11       		.uleb128 0x11
 2190 000e 01       		.uleb128 0x1
 2191 000f 10       		.uleb128 0x10
 2192 0010 17       		.uleb128 0x17
 2193 0011 00       		.byte	0
 2194 0012 00       		.byte	0
 2195 0013 02       		.uleb128 0x2
 2196 0014 24       		.uleb128 0x24
 2197 0015 00       		.byte	0
 2198 0016 0B       		.uleb128 0xb
 2199 0017 0B       		.uleb128 0xb
 2200 0018 3E       		.uleb128 0x3e
 2201 0019 0B       		.uleb128 0xb
 2202 001a 03       		.uleb128 0x3
 2203 001b 08       		.uleb128 0x8
 2204 001c 00       		.byte	0
 2205 001d 00       		.byte	0
 2206 001e 03       		.uleb128 0x3
 2207 001f 16       		.uleb128 0x16
 2208 0020 00       		.byte	0
 2209 0021 03       		.uleb128 0x3
 2210 0022 0E       		.uleb128 0xe
 2211 0023 3A       		.uleb128 0x3a
 2212 0024 0B       		.uleb128 0xb
 2213 0025 3B       		.uleb128 0x3b
 2214 0026 0B       		.uleb128 0xb
 2215 0027 49       		.uleb128 0x49
ARM GAS  /var/folders/c6/c789hm653lg9vtl73krp73tm0000gn/T//ccvFz436.s 			page 62


 2216 0028 13       		.uleb128 0x13
 2217 0029 00       		.byte	0
 2218 002a 00       		.byte	0
 2219 002b 04       		.uleb128 0x4
 2220 002c 24       		.uleb128 0x24
 2221 002d 00       		.byte	0
 2222 002e 0B       		.uleb128 0xb
 2223 002f 0B       		.uleb128 0xb
 2224 0030 3E       		.uleb128 0x3e
 2225 0031 0B       		.uleb128 0xb
 2226 0032 03       		.uleb128 0x3
 2227 0033 0E       		.uleb128 0xe
 2228 0034 00       		.byte	0
 2229 0035 00       		.byte	0
 2230 0036 05       		.uleb128 0x5
 2231 0037 35       		.uleb128 0x35
 2232 0038 00       		.byte	0
 2233 0039 49       		.uleb128 0x49
 2234 003a 13       		.uleb128 0x13
 2235 003b 00       		.byte	0
 2236 003c 00       		.byte	0
 2237 003d 06       		.uleb128 0x6
 2238 003e 13       		.uleb128 0x13
 2239 003f 01       		.byte	0x1
 2240 0040 03       		.uleb128 0x3
 2241 0041 0E       		.uleb128 0xe
 2242 0042 0B       		.uleb128 0xb
 2243 0043 0B       		.uleb128 0xb
 2244 0044 3A       		.uleb128 0x3a
 2245 0045 0B       		.uleb128 0xb
 2246 0046 3B       		.uleb128 0x3b
 2247 0047 0B       		.uleb128 0xb
 2248 0048 01       		.uleb128 0x1
 2249 0049 13       		.uleb128 0x13
 2250 004a 00       		.byte	0
 2251 004b 00       		.byte	0
 2252 004c 07       		.uleb128 0x7
 2253 004d 0D       		.uleb128 0xd
 2254 004e 00       		.byte	0
 2255 004f 03       		.uleb128 0x3
 2256 0050 0E       		.uleb128 0xe
 2257 0051 3A       		.uleb128 0x3a
 2258 0052 0B       		.uleb128 0xb
 2259 0053 3B       		.uleb128 0x3b
 2260 0054 0B       		.uleb128 0xb
 2261 0055 49       		.uleb128 0x49
 2262 0056 13       		.uleb128 0x13
 2263 0057 38       		.uleb128 0x38
 2264 0058 0B       		.uleb128 0xb
 2265 0059 00       		.byte	0
 2266 005a 00       		.byte	0
 2267 005b 08       		.uleb128 0x8
 2268 005c 0D       		.uleb128 0xd
 2269 005d 00       		.byte	0
 2270 005e 03       		.uleb128 0x3
 2271 005f 08       		.uleb128 0x8
 2272 0060 3A       		.uleb128 0x3a
ARM GAS  /var/folders/c6/c789hm653lg9vtl73krp73tm0000gn/T//ccvFz436.s 			page 63


 2273 0061 0B       		.uleb128 0xb
 2274 0062 3B       		.uleb128 0x3b
 2275 0063 05       		.uleb128 0x5
 2276 0064 49       		.uleb128 0x49
 2277 0065 13       		.uleb128 0x13
 2278 0066 38       		.uleb128 0x38
 2279 0067 0B       		.uleb128 0xb
 2280 0068 00       		.byte	0
 2281 0069 00       		.byte	0
 2282 006a 09       		.uleb128 0x9
 2283 006b 0D       		.uleb128 0xd
 2284 006c 00       		.byte	0
 2285 006d 03       		.uleb128 0x3
 2286 006e 0E       		.uleb128 0xe
 2287 006f 3A       		.uleb128 0x3a
 2288 0070 0B       		.uleb128 0xb
 2289 0071 3B       		.uleb128 0x3b
 2290 0072 05       		.uleb128 0x5
 2291 0073 49       		.uleb128 0x49
 2292 0074 13       		.uleb128 0x13
 2293 0075 38       		.uleb128 0x38
 2294 0076 0B       		.uleb128 0xb
 2295 0077 00       		.byte	0
 2296 0078 00       		.byte	0
 2297 0079 0A       		.uleb128 0xa
 2298 007a 0F       		.uleb128 0xf
 2299 007b 00       		.byte	0
 2300 007c 0B       		.uleb128 0xb
 2301 007d 0B       		.uleb128 0xb
 2302 007e 49       		.uleb128 0x49
 2303 007f 13       		.uleb128 0x13
 2304 0080 00       		.byte	0
 2305 0081 00       		.byte	0
 2306 0082 0B       		.uleb128 0xb
 2307 0083 13       		.uleb128 0x13
 2308 0084 01       		.byte	0x1
 2309 0085 03       		.uleb128 0x3
 2310 0086 0E       		.uleb128 0xe
 2311 0087 0B       		.uleb128 0xb
 2312 0088 0B       		.uleb128 0xb
 2313 0089 3A       		.uleb128 0x3a
 2314 008a 0B       		.uleb128 0xb
 2315 008b 3B       		.uleb128 0x3b
 2316 008c 05       		.uleb128 0x5
 2317 008d 01       		.uleb128 0x1
 2318 008e 13       		.uleb128 0x13
 2319 008f 00       		.byte	0
 2320 0090 00       		.byte	0
 2321 0091 0C       		.uleb128 0xc
 2322 0092 15       		.uleb128 0x15
 2323 0093 01       		.byte	0x1
 2324 0094 27       		.uleb128 0x27
 2325 0095 19       		.uleb128 0x19
 2326 0096 01       		.uleb128 0x1
 2327 0097 13       		.uleb128 0x13
 2328 0098 00       		.byte	0
 2329 0099 00       		.byte	0
ARM GAS  /var/folders/c6/c789hm653lg9vtl73krp73tm0000gn/T//ccvFz436.s 			page 64


 2330 009a 0D       		.uleb128 0xd
 2331 009b 05       		.uleb128 0x5
 2332 009c 00       		.byte	0
 2333 009d 49       		.uleb128 0x49
 2334 009e 13       		.uleb128 0x13
 2335 009f 00       		.byte	0
 2336 00a0 00       		.byte	0
 2337 00a1 0E       		.uleb128 0xe
 2338 00a2 0F       		.uleb128 0xf
 2339 00a3 00       		.byte	0
 2340 00a4 0B       		.uleb128 0xb
 2341 00a5 0B       		.uleb128 0xb
 2342 00a6 00       		.byte	0
 2343 00a7 00       		.byte	0
 2344 00a8 0F       		.uleb128 0xf
 2345 00a9 13       		.uleb128 0x13
 2346 00aa 01       		.byte	0x1
 2347 00ab 03       		.uleb128 0x3
 2348 00ac 0E       		.uleb128 0xe
 2349 00ad 0B       		.uleb128 0xb
 2350 00ae 05       		.uleb128 0x5
 2351 00af 3A       		.uleb128 0x3a
 2352 00b0 0B       		.uleb128 0xb
 2353 00b1 3B       		.uleb128 0x3b
 2354 00b2 05       		.uleb128 0x5
 2355 00b3 01       		.uleb128 0x1
 2356 00b4 13       		.uleb128 0x13
 2357 00b5 00       		.byte	0
 2358 00b6 00       		.byte	0
 2359 00b7 10       		.uleb128 0x10
 2360 00b8 0D       		.uleb128 0xd
 2361 00b9 00       		.byte	0
 2362 00ba 03       		.uleb128 0x3
 2363 00bb 08       		.uleb128 0x8
 2364 00bc 3A       		.uleb128 0x3a
 2365 00bd 0B       		.uleb128 0xb
 2366 00be 3B       		.uleb128 0x3b
 2367 00bf 0B       		.uleb128 0xb
 2368 00c0 49       		.uleb128 0x49
 2369 00c1 13       		.uleb128 0x13
 2370 00c2 38       		.uleb128 0x38
 2371 00c3 0B       		.uleb128 0xb
 2372 00c4 00       		.byte	0
 2373 00c5 00       		.byte	0
 2374 00c6 11       		.uleb128 0x11
 2375 00c7 13       		.uleb128 0x13
 2376 00c8 01       		.byte	0x1
 2377 00c9 0B       		.uleb128 0xb
 2378 00ca 0B       		.uleb128 0xb
 2379 00cb 3A       		.uleb128 0x3a
 2380 00cc 0B       		.uleb128 0xb
 2381 00cd 3B       		.uleb128 0x3b
 2382 00ce 0B       		.uleb128 0xb
 2383 00cf 01       		.uleb128 0x1
 2384 00d0 13       		.uleb128 0x13
 2385 00d1 00       		.byte	0
 2386 00d2 00       		.byte	0
ARM GAS  /var/folders/c6/c789hm653lg9vtl73krp73tm0000gn/T//ccvFz436.s 			page 65


 2387 00d3 12       		.uleb128 0x12
 2388 00d4 17       		.uleb128 0x17
 2389 00d5 01       		.byte	0x1
 2390 00d6 0B       		.uleb128 0xb
 2391 00d7 0B       		.uleb128 0xb
 2392 00d8 3A       		.uleb128 0x3a
 2393 00d9 0B       		.uleb128 0xb
 2394 00da 3B       		.uleb128 0x3b
 2395 00db 0B       		.uleb128 0xb
 2396 00dc 01       		.uleb128 0x1
 2397 00dd 13       		.uleb128 0x13
 2398 00de 00       		.byte	0
 2399 00df 00       		.byte	0
 2400 00e0 13       		.uleb128 0x13
 2401 00e1 0D       		.uleb128 0xd
 2402 00e2 00       		.byte	0
 2403 00e3 03       		.uleb128 0x3
 2404 00e4 0E       		.uleb128 0xe
 2405 00e5 3A       		.uleb128 0x3a
 2406 00e6 0B       		.uleb128 0xb
 2407 00e7 3B       		.uleb128 0x3b
 2408 00e8 05       		.uleb128 0x5
 2409 00e9 49       		.uleb128 0x49
 2410 00ea 13       		.uleb128 0x13
 2411 00eb 00       		.byte	0
 2412 00ec 00       		.byte	0
 2413 00ed 14       		.uleb128 0x14
 2414 00ee 26       		.uleb128 0x26
 2415 00ef 00       		.byte	0
 2416 00f0 49       		.uleb128 0x49
 2417 00f1 13       		.uleb128 0x13
 2418 00f2 00       		.byte	0
 2419 00f3 00       		.byte	0
 2420 00f4 15       		.uleb128 0x15
 2421 00f5 01       		.uleb128 0x1
 2422 00f6 01       		.byte	0x1
 2423 00f7 49       		.uleb128 0x49
 2424 00f8 13       		.uleb128 0x13
 2425 00f9 01       		.uleb128 0x1
 2426 00fa 13       		.uleb128 0x13
 2427 00fb 00       		.byte	0
 2428 00fc 00       		.byte	0
 2429 00fd 16       		.uleb128 0x16
 2430 00fe 21       		.uleb128 0x21
 2431 00ff 00       		.byte	0
 2432 0100 49       		.uleb128 0x49
 2433 0101 13       		.uleb128 0x13
 2434 0102 2F       		.uleb128 0x2f
 2435 0103 0B       		.uleb128 0xb
 2436 0104 00       		.byte	0
 2437 0105 00       		.byte	0
 2438 0106 17       		.uleb128 0x17
 2439 0107 15       		.uleb128 0x15
 2440 0108 01       		.byte	0x1
 2441 0109 27       		.uleb128 0x27
 2442 010a 19       		.uleb128 0x19
 2443 010b 49       		.uleb128 0x49
ARM GAS  /var/folders/c6/c789hm653lg9vtl73krp73tm0000gn/T//ccvFz436.s 			page 66


 2444 010c 13       		.uleb128 0x13
 2445 010d 01       		.uleb128 0x1
 2446 010e 13       		.uleb128 0x13
 2447 010f 00       		.byte	0
 2448 0110 00       		.byte	0
 2449 0111 18       		.uleb128 0x18
 2450 0112 2E       		.uleb128 0x2e
 2451 0113 01       		.byte	0x1
 2452 0114 03       		.uleb128 0x3
 2453 0115 0E       		.uleb128 0xe
 2454 0116 3A       		.uleb128 0x3a
 2455 0117 0B       		.uleb128 0xb
 2456 0118 3B       		.uleb128 0x3b
 2457 0119 05       		.uleb128 0x5
 2458 011a 27       		.uleb128 0x27
 2459 011b 19       		.uleb128 0x19
 2460 011c 20       		.uleb128 0x20
 2461 011d 0B       		.uleb128 0xb
 2462 011e 01       		.uleb128 0x1
 2463 011f 13       		.uleb128 0x13
 2464 0120 00       		.byte	0
 2465 0121 00       		.byte	0
 2466 0122 19       		.uleb128 0x19
 2467 0123 05       		.uleb128 0x5
 2468 0124 00       		.byte	0
 2469 0125 03       		.uleb128 0x3
 2470 0126 0E       		.uleb128 0xe
 2471 0127 3A       		.uleb128 0x3a
 2472 0128 0B       		.uleb128 0xb
 2473 0129 3B       		.uleb128 0x3b
 2474 012a 05       		.uleb128 0x5
 2475 012b 49       		.uleb128 0x49
 2476 012c 13       		.uleb128 0x13
 2477 012d 00       		.byte	0
 2478 012e 00       		.byte	0
 2479 012f 1A       		.uleb128 0x1a
 2480 0130 2E       		.uleb128 0x2e
 2481 0131 00       		.byte	0
 2482 0132 03       		.uleb128 0x3
 2483 0133 0E       		.uleb128 0xe
 2484 0134 3A       		.uleb128 0x3a
 2485 0135 0B       		.uleb128 0xb
 2486 0136 3B       		.uleb128 0x3b
 2487 0137 05       		.uleb128 0x5
 2488 0138 27       		.uleb128 0x27
 2489 0139 19       		.uleb128 0x19
 2490 013a 20       		.uleb128 0x20
 2491 013b 0B       		.uleb128 0xb
 2492 013c 00       		.byte	0
 2493 013d 00       		.byte	0
 2494 013e 1B       		.uleb128 0x1b
 2495 013f 2E       		.uleb128 0x2e
 2496 0140 01       		.byte	0x1
 2497 0141 3F       		.uleb128 0x3f
 2498 0142 19       		.uleb128 0x19
 2499 0143 03       		.uleb128 0x3
 2500 0144 0E       		.uleb128 0xe
ARM GAS  /var/folders/c6/c789hm653lg9vtl73krp73tm0000gn/T//ccvFz436.s 			page 67


 2501 0145 3A       		.uleb128 0x3a
 2502 0146 0B       		.uleb128 0xb
 2503 0147 3B       		.uleb128 0x3b
 2504 0148 0B       		.uleb128 0xb
 2505 0149 27       		.uleb128 0x27
 2506 014a 19       		.uleb128 0x19
 2507 014b 49       		.uleb128 0x49
 2508 014c 13       		.uleb128 0x13
 2509 014d 20       		.uleb128 0x20
 2510 014e 0B       		.uleb128 0xb
 2511 014f 01       		.uleb128 0x1
 2512 0150 13       		.uleb128 0x13
 2513 0151 00       		.byte	0
 2514 0152 00       		.byte	0
 2515 0153 1C       		.uleb128 0x1c
 2516 0154 05       		.uleb128 0x5
 2517 0155 00       		.byte	0
 2518 0156 03       		.uleb128 0x3
 2519 0157 08       		.uleb128 0x8
 2520 0158 3A       		.uleb128 0x3a
 2521 0159 0B       		.uleb128 0xb
 2522 015a 3B       		.uleb128 0x3b
 2523 015b 0B       		.uleb128 0xb
 2524 015c 49       		.uleb128 0x49
 2525 015d 13       		.uleb128 0x13
 2526 015e 00       		.byte	0
 2527 015f 00       		.byte	0
 2528 0160 1D       		.uleb128 0x1d
 2529 0161 34       		.uleb128 0x34
 2530 0162 00       		.byte	0
 2531 0163 03       		.uleb128 0x3
 2532 0164 0E       		.uleb128 0xe
 2533 0165 3A       		.uleb128 0x3a
 2534 0166 0B       		.uleb128 0xb
 2535 0167 3B       		.uleb128 0x3b
 2536 0168 0B       		.uleb128 0xb
 2537 0169 49       		.uleb128 0x49
 2538 016a 13       		.uleb128 0x13
 2539 016b 00       		.byte	0
 2540 016c 00       		.byte	0
 2541 016d 1E       		.uleb128 0x1e
 2542 016e 34       		.uleb128 0x34
 2543 016f 00       		.byte	0
 2544 0170 03       		.uleb128 0x3
 2545 0171 0E       		.uleb128 0xe
 2546 0172 49       		.uleb128 0x49
 2547 0173 13       		.uleb128 0x13
 2548 0174 34       		.uleb128 0x34
 2549 0175 19       		.uleb128 0x19
 2550 0176 1C       		.uleb128 0x1c
 2551 0177 0E       		.uleb128 0xe
 2552 0178 00       		.byte	0
 2553 0179 00       		.byte	0
 2554 017a 1F       		.uleb128 0x1f
 2555 017b 2E       		.uleb128 0x2e
 2556 017c 01       		.byte	0x1
 2557 017d 3F       		.uleb128 0x3f
ARM GAS  /var/folders/c6/c789hm653lg9vtl73krp73tm0000gn/T//ccvFz436.s 			page 68


 2558 017e 19       		.uleb128 0x19
 2559 017f 03       		.uleb128 0x3
 2560 0180 0E       		.uleb128 0xe
 2561 0181 3A       		.uleb128 0x3a
 2562 0182 0B       		.uleb128 0xb
 2563 0183 3B       		.uleb128 0x3b
 2564 0184 0B       		.uleb128 0xb
 2565 0185 27       		.uleb128 0x27
 2566 0186 19       		.uleb128 0x19
 2567 0187 20       		.uleb128 0x20
 2568 0188 0B       		.uleb128 0xb
 2569 0189 01       		.uleb128 0x1
 2570 018a 13       		.uleb128 0x13
 2571 018b 00       		.byte	0
 2572 018c 00       		.byte	0
 2573 018d 20       		.uleb128 0x20
 2574 018e 05       		.uleb128 0x5
 2575 018f 00       		.byte	0
 2576 0190 03       		.uleb128 0x3
 2577 0191 0E       		.uleb128 0xe
 2578 0192 3A       		.uleb128 0x3a
 2579 0193 0B       		.uleb128 0xb
 2580 0194 3B       		.uleb128 0x3b
 2581 0195 0B       		.uleb128 0xb
 2582 0196 49       		.uleb128 0x49
 2583 0197 13       		.uleb128 0x13
 2584 0198 00       		.byte	0
 2585 0199 00       		.byte	0
 2586 019a 21       		.uleb128 0x21
 2587 019b 34       		.uleb128 0x34
 2588 019c 00       		.byte	0
 2589 019d 03       		.uleb128 0x3
 2590 019e 08       		.uleb128 0x8
 2591 019f 3A       		.uleb128 0x3a
 2592 01a0 0B       		.uleb128 0xb
 2593 01a1 3B       		.uleb128 0x3b
 2594 01a2 0B       		.uleb128 0xb
 2595 01a3 49       		.uleb128 0x49
 2596 01a4 13       		.uleb128 0x13
 2597 01a5 00       		.byte	0
 2598 01a6 00       		.byte	0
 2599 01a7 22       		.uleb128 0x22
 2600 01a8 2E       		.uleb128 0x2e
 2601 01a9 01       		.byte	0x1
 2602 01aa 03       		.uleb128 0x3
 2603 01ab 0E       		.uleb128 0xe
 2604 01ac 3A       		.uleb128 0x3a
 2605 01ad 0B       		.uleb128 0xb
 2606 01ae 3B       		.uleb128 0x3b
 2607 01af 0B       		.uleb128 0xb
 2608 01b0 27       		.uleb128 0x27
 2609 01b1 19       		.uleb128 0x19
 2610 01b2 20       		.uleb128 0x20
 2611 01b3 0B       		.uleb128 0xb
 2612 01b4 01       		.uleb128 0x1
 2613 01b5 13       		.uleb128 0x13
 2614 01b6 00       		.byte	0
ARM GAS  /var/folders/c6/c789hm653lg9vtl73krp73tm0000gn/T//ccvFz436.s 			page 69


 2615 01b7 00       		.byte	0
 2616 01b8 23       		.uleb128 0x23
 2617 01b9 2E       		.uleb128 0x2e
 2618 01ba 01       		.byte	0x1
 2619 01bb 3F       		.uleb128 0x3f
 2620 01bc 19       		.uleb128 0x19
 2621 01bd 03       		.uleb128 0x3
 2622 01be 0E       		.uleb128 0xe
 2623 01bf 3A       		.uleb128 0x3a
 2624 01c0 0B       		.uleb128 0xb
 2625 01c1 3B       		.uleb128 0x3b
 2626 01c2 0B       		.uleb128 0xb
 2627 01c3 27       		.uleb128 0x27
 2628 01c4 19       		.uleb128 0x19
 2629 01c5 11       		.uleb128 0x11
 2630 01c6 01       		.uleb128 0x1
 2631 01c7 12       		.uleb128 0x12
 2632 01c8 06       		.uleb128 0x6
 2633 01c9 40       		.uleb128 0x40
 2634 01ca 18       		.uleb128 0x18
 2635 01cb 9742     		.uleb128 0x2117
 2636 01cd 19       		.uleb128 0x19
 2637 01ce 01       		.uleb128 0x1
 2638 01cf 13       		.uleb128 0x13
 2639 01d0 00       		.byte	0
 2640 01d1 00       		.byte	0
 2641 01d2 24       		.uleb128 0x24
 2642 01d3 05       		.uleb128 0x5
 2643 01d4 00       		.byte	0
 2644 01d5 03       		.uleb128 0x3
 2645 01d6 08       		.uleb128 0x8
 2646 01d7 3A       		.uleb128 0x3a
 2647 01d8 0B       		.uleb128 0xb
 2648 01d9 3B       		.uleb128 0x3b
 2649 01da 0B       		.uleb128 0xb
 2650 01db 49       		.uleb128 0x49
 2651 01dc 13       		.uleb128 0x13
 2652 01dd 02       		.uleb128 0x2
 2653 01de 18       		.uleb128 0x18
 2654 01df 00       		.byte	0
 2655 01e0 00       		.byte	0
 2656 01e1 25       		.uleb128 0x25
 2657 01e2 05       		.uleb128 0x5
 2658 01e3 00       		.byte	0
 2659 01e4 03       		.uleb128 0x3
 2660 01e5 0E       		.uleb128 0xe
 2661 01e6 3A       		.uleb128 0x3a
 2662 01e7 0B       		.uleb128 0xb
 2663 01e8 3B       		.uleb128 0x3b
 2664 01e9 0B       		.uleb128 0xb
 2665 01ea 49       		.uleb128 0x49
 2666 01eb 13       		.uleb128 0x13
 2667 01ec 02       		.uleb128 0x2
 2668 01ed 18       		.uleb128 0x18
 2669 01ee 00       		.byte	0
 2670 01ef 00       		.byte	0
 2671 01f0 26       		.uleb128 0x26
ARM GAS  /var/folders/c6/c789hm653lg9vtl73krp73tm0000gn/T//ccvFz436.s 			page 70


 2672 01f1 34       		.uleb128 0x34
 2673 01f2 00       		.byte	0
 2674 01f3 03       		.uleb128 0x3
 2675 01f4 0E       		.uleb128 0xe
 2676 01f5 49       		.uleb128 0x49
 2677 01f6 13       		.uleb128 0x13
 2678 01f7 34       		.uleb128 0x34
 2679 01f8 19       		.uleb128 0x19
 2680 01f9 00       		.byte	0
 2681 01fa 00       		.byte	0
 2682 01fb 27       		.uleb128 0x27
 2683 01fc 05       		.uleb128 0x5
 2684 01fd 00       		.byte	0
 2685 01fe 03       		.uleb128 0x3
 2686 01ff 08       		.uleb128 0x8
 2687 0200 3A       		.uleb128 0x3a
 2688 0201 0B       		.uleb128 0xb
 2689 0202 3B       		.uleb128 0x3b
 2690 0203 0B       		.uleb128 0xb
 2691 0204 49       		.uleb128 0x49
 2692 0205 13       		.uleb128 0x13
 2693 0206 02       		.uleb128 0x2
 2694 0207 17       		.uleb128 0x17
 2695 0208 00       		.byte	0
 2696 0209 00       		.byte	0
 2697 020a 28       		.uleb128 0x28
 2698 020b 1D       		.uleb128 0x1d
 2699 020c 01       		.byte	0x1
 2700 020d 31       		.uleb128 0x31
 2701 020e 13       		.uleb128 0x13
 2702 020f 11       		.uleb128 0x11
 2703 0210 01       		.uleb128 0x1
 2704 0211 12       		.uleb128 0x12
 2705 0212 06       		.uleb128 0x6
 2706 0213 58       		.uleb128 0x58
 2707 0214 0B       		.uleb128 0xb
 2708 0215 59       		.uleb128 0x59
 2709 0216 0B       		.uleb128 0xb
 2710 0217 00       		.byte	0
 2711 0218 00       		.byte	0
 2712 0219 29       		.uleb128 0x29
 2713 021a 05       		.uleb128 0x5
 2714 021b 00       		.byte	0
 2715 021c 31       		.uleb128 0x31
 2716 021d 13       		.uleb128 0x13
 2717 021e 02       		.uleb128 0x2
 2718 021f 17       		.uleb128 0x17
 2719 0220 00       		.byte	0
 2720 0221 00       		.byte	0
 2721 0222 2A       		.uleb128 0x2a
 2722 0223 1D       		.uleb128 0x1d
 2723 0224 01       		.byte	0x1
 2724 0225 31       		.uleb128 0x31
 2725 0226 13       		.uleb128 0x13
 2726 0227 52       		.uleb128 0x52
 2727 0228 01       		.uleb128 0x1
 2728 0229 55       		.uleb128 0x55
ARM GAS  /var/folders/c6/c789hm653lg9vtl73krp73tm0000gn/T//ccvFz436.s 			page 71


 2729 022a 17       		.uleb128 0x17
 2730 022b 58       		.uleb128 0x58
 2731 022c 0B       		.uleb128 0xb
 2732 022d 59       		.uleb128 0x59
 2733 022e 0B       		.uleb128 0xb
 2734 022f 01       		.uleb128 0x1
 2735 0230 13       		.uleb128 0x13
 2736 0231 00       		.byte	0
 2737 0232 00       		.byte	0
 2738 0233 2B       		.uleb128 0x2b
 2739 0234 1D       		.uleb128 0x1d
 2740 0235 01       		.byte	0x1
 2741 0236 31       		.uleb128 0x31
 2742 0237 13       		.uleb128 0x13
 2743 0238 52       		.uleb128 0x52
 2744 0239 01       		.uleb128 0x1
 2745 023a 55       		.uleb128 0x55
 2746 023b 17       		.uleb128 0x17
 2747 023c 58       		.uleb128 0x58
 2748 023d 0B       		.uleb128 0xb
 2749 023e 59       		.uleb128 0x59
 2750 023f 05       		.uleb128 0x5
 2751 0240 00       		.byte	0
 2752 0241 00       		.byte	0
 2753 0242 2C       		.uleb128 0x2c
 2754 0243 0B       		.uleb128 0xb
 2755 0244 01       		.byte	0x1
 2756 0245 55       		.uleb128 0x55
 2757 0246 17       		.uleb128 0x17
 2758 0247 00       		.byte	0
 2759 0248 00       		.byte	0
 2760 0249 2D       		.uleb128 0x2d
 2761 024a 34       		.uleb128 0x34
 2762 024b 00       		.byte	0
 2763 024c 31       		.uleb128 0x31
 2764 024d 13       		.uleb128 0x13
 2765 024e 00       		.byte	0
 2766 024f 00       		.byte	0
 2767 0250 2E       		.uleb128 0x2e
 2768 0251 0B       		.uleb128 0xb
 2769 0252 01       		.byte	0x1
 2770 0253 11       		.uleb128 0x11
 2771 0254 01       		.uleb128 0x1
 2772 0255 12       		.uleb128 0x12
 2773 0256 06       		.uleb128 0x6
 2774 0257 00       		.byte	0
 2775 0258 00       		.byte	0
 2776 0259 2F       		.uleb128 0x2f
 2777 025a 34       		.uleb128 0x34
 2778 025b 00       		.byte	0
 2779 025c 31       		.uleb128 0x31
 2780 025d 13       		.uleb128 0x13
 2781 025e 02       		.uleb128 0x2
 2782 025f 17       		.uleb128 0x17
 2783 0260 00       		.byte	0
 2784 0261 00       		.byte	0
 2785 0262 30       		.uleb128 0x30
ARM GAS  /var/folders/c6/c789hm653lg9vtl73krp73tm0000gn/T//ccvFz436.s 			page 72


 2786 0263 2E       		.uleb128 0x2e
 2787 0264 01       		.byte	0x1
 2788 0265 31       		.uleb128 0x31
 2789 0266 13       		.uleb128 0x13
 2790 0267 11       		.uleb128 0x11
 2791 0268 01       		.uleb128 0x1
 2792 0269 12       		.uleb128 0x12
 2793 026a 06       		.uleb128 0x6
 2794 026b 40       		.uleb128 0x40
 2795 026c 18       		.uleb128 0x18
 2796 026d 9642     		.uleb128 0x2116
 2797 026f 19       		.uleb128 0x19
 2798 0270 01       		.uleb128 0x1
 2799 0271 13       		.uleb128 0x13
 2800 0272 00       		.byte	0
 2801 0273 00       		.byte	0
 2802 0274 31       		.uleb128 0x31
 2803 0275 2E       		.uleb128 0x2e
 2804 0276 01       		.byte	0x1
 2805 0277 3F       		.uleb128 0x3f
 2806 0278 19       		.uleb128 0x19
 2807 0279 03       		.uleb128 0x3
 2808 027a 0E       		.uleb128 0xe
 2809 027b 3A       		.uleb128 0x3a
 2810 027c 0B       		.uleb128 0xb
 2811 027d 3B       		.uleb128 0x3b
 2812 027e 0B       		.uleb128 0xb
 2813 027f 27       		.uleb128 0x27
 2814 0280 19       		.uleb128 0x19
 2815 0281 49       		.uleb128 0x49
 2816 0282 13       		.uleb128 0x13
 2817 0283 11       		.uleb128 0x11
 2818 0284 01       		.uleb128 0x1
 2819 0285 12       		.uleb128 0x12
 2820 0286 06       		.uleb128 0x6
 2821 0287 40       		.uleb128 0x40
 2822 0288 18       		.uleb128 0x18
 2823 0289 9642     		.uleb128 0x2116
 2824 028b 19       		.uleb128 0x19
 2825 028c 01       		.uleb128 0x1
 2826 028d 13       		.uleb128 0x13
 2827 028e 00       		.byte	0
 2828 028f 00       		.byte	0
 2829 0290 32       		.uleb128 0x32
 2830 0291 34       		.uleb128 0x34
 2831 0292 00       		.byte	0
 2832 0293 03       		.uleb128 0x3
 2833 0294 0E       		.uleb128 0xe
 2834 0295 3A       		.uleb128 0x3a
 2835 0296 0B       		.uleb128 0xb
 2836 0297 3B       		.uleb128 0x3b
 2837 0298 0B       		.uleb128 0xb
 2838 0299 49       		.uleb128 0x49
 2839 029a 13       		.uleb128 0x13
 2840 029b 02       		.uleb128 0x2
 2841 029c 18       		.uleb128 0x18
 2842 029d 00       		.byte	0
ARM GAS  /var/folders/c6/c789hm653lg9vtl73krp73tm0000gn/T//ccvFz436.s 			page 73


 2843 029e 00       		.byte	0
 2844 029f 33       		.uleb128 0x33
 2845 02a0 05       		.uleb128 0x5
 2846 02a1 00       		.byte	0
 2847 02a2 31       		.uleb128 0x31
 2848 02a3 13       		.uleb128 0x13
 2849 02a4 1C       		.uleb128 0x1c
 2850 02a5 0B       		.uleb128 0xb
 2851 02a6 00       		.byte	0
 2852 02a7 00       		.byte	0
 2853 02a8 34       		.uleb128 0x34
 2854 02a9 1D       		.uleb128 0x1d
 2855 02aa 01       		.byte	0x1
 2856 02ab 31       		.uleb128 0x31
 2857 02ac 13       		.uleb128 0x13
 2858 02ad 52       		.uleb128 0x52
 2859 02ae 01       		.uleb128 0x1
 2860 02af 55       		.uleb128 0x55
 2861 02b0 17       		.uleb128 0x17
 2862 02b1 58       		.uleb128 0x58
 2863 02b2 0B       		.uleb128 0xb
 2864 02b3 59       		.uleb128 0x59
 2865 02b4 0B       		.uleb128 0xb
 2866 02b5 00       		.byte	0
 2867 02b6 00       		.byte	0
 2868 02b7 35       		.uleb128 0x35
 2869 02b8 2E       		.uleb128 0x2e
 2870 02b9 01       		.byte	0x1
 2871 02ba 31       		.uleb128 0x31
 2872 02bb 13       		.uleb128 0x13
 2873 02bc 11       		.uleb128 0x11
 2874 02bd 01       		.uleb128 0x1
 2875 02be 12       		.uleb128 0x12
 2876 02bf 06       		.uleb128 0x6
 2877 02c0 40       		.uleb128 0x40
 2878 02c1 18       		.uleb128 0x18
 2879 02c2 9742     		.uleb128 0x2117
 2880 02c4 19       		.uleb128 0x19
 2881 02c5 01       		.uleb128 0x1
 2882 02c6 13       		.uleb128 0x13
 2883 02c7 00       		.byte	0
 2884 02c8 00       		.byte	0
 2885 02c9 36       		.uleb128 0x36
 2886 02ca 05       		.uleb128 0x5
 2887 02cb 00       		.byte	0
 2888 02cc 31       		.uleb128 0x31
 2889 02cd 13       		.uleb128 0x13
 2890 02ce 02       		.uleb128 0x2
 2891 02cf 18       		.uleb128 0x18
 2892 02d0 00       		.byte	0
 2893 02d1 00       		.byte	0
 2894 02d2 37       		.uleb128 0x37
 2895 02d3 34       		.uleb128 0x34
 2896 02d4 00       		.byte	0
 2897 02d5 31       		.uleb128 0x31
 2898 02d6 13       		.uleb128 0x13
 2899 02d7 02       		.uleb128 0x2
ARM GAS  /var/folders/c6/c789hm653lg9vtl73krp73tm0000gn/T//ccvFz436.s 			page 74


 2900 02d8 18       		.uleb128 0x18
 2901 02d9 00       		.byte	0
 2902 02da 00       		.byte	0
 2903 02db 38       		.uleb128 0x38
 2904 02dc 1D       		.uleb128 0x1d
 2905 02dd 01       		.byte	0x1
 2906 02de 31       		.uleb128 0x31
 2907 02df 13       		.uleb128 0x13
 2908 02e0 11       		.uleb128 0x11
 2909 02e1 01       		.uleb128 0x1
 2910 02e2 12       		.uleb128 0x12
 2911 02e3 06       		.uleb128 0x6
 2912 02e4 58       		.uleb128 0x58
 2913 02e5 0B       		.uleb128 0xb
 2914 02e6 59       		.uleb128 0x59
 2915 02e7 0B       		.uleb128 0xb
 2916 02e8 01       		.uleb128 0x1
 2917 02e9 13       		.uleb128 0x13
 2918 02ea 00       		.byte	0
 2919 02eb 00       		.byte	0
 2920 02ec 39       		.uleb128 0x39
 2921 02ed 1D       		.uleb128 0x1d
 2922 02ee 01       		.byte	0x1
 2923 02ef 31       		.uleb128 0x31
 2924 02f0 13       		.uleb128 0x13
 2925 02f1 11       		.uleb128 0x11
 2926 02f2 01       		.uleb128 0x1
 2927 02f3 12       		.uleb128 0x12
 2928 02f4 06       		.uleb128 0x6
 2929 02f5 58       		.uleb128 0x58
 2930 02f6 0B       		.uleb128 0xb
 2931 02f7 59       		.uleb128 0x59
 2932 02f8 05       		.uleb128 0x5
 2933 02f9 00       		.byte	0
 2934 02fa 00       		.byte	0
 2935 02fb 3A       		.uleb128 0x3a
 2936 02fc 34       		.uleb128 0x34
 2937 02fd 00       		.byte	0
 2938 02fe 03       		.uleb128 0x3
 2939 02ff 0E       		.uleb128 0xe
 2940 0300 3A       		.uleb128 0x3a
 2941 0301 0B       		.uleb128 0xb
 2942 0302 3B       		.uleb128 0x3b
 2943 0303 05       		.uleb128 0x5
 2944 0304 49       		.uleb128 0x49
 2945 0305 13       		.uleb128 0x13
 2946 0306 3F       		.uleb128 0x3f
 2947 0307 19       		.uleb128 0x19
 2948 0308 3C       		.uleb128 0x3c
 2949 0309 19       		.uleb128 0x19
 2950 030a 00       		.byte	0
 2951 030b 00       		.byte	0
 2952 030c 3B       		.uleb128 0x3b
 2953 030d 34       		.uleb128 0x34
 2954 030e 00       		.byte	0
 2955 030f 03       		.uleb128 0x3
 2956 0310 08       		.uleb128 0x8
ARM GAS  /var/folders/c6/c789hm653lg9vtl73krp73tm0000gn/T//ccvFz436.s 			page 75


 2957 0311 3A       		.uleb128 0x3a
 2958 0312 0B       		.uleb128 0xb
 2959 0313 3B       		.uleb128 0x3b
 2960 0314 05       		.uleb128 0x5
 2961 0315 49       		.uleb128 0x49
 2962 0316 13       		.uleb128 0x13
 2963 0317 3F       		.uleb128 0x3f
 2964 0318 19       		.uleb128 0x19
 2965 0319 3C       		.uleb128 0x3c
 2966 031a 19       		.uleb128 0x19
 2967 031b 00       		.byte	0
 2968 031c 00       		.byte	0
 2969 031d 00       		.byte	0
 2970              		.section	.debug_loc,"",%progbits
 2971              	.Ldebug_loc0:
 2972              	.LLST0:
 2973 0000 00000000 		.4byte	.LVL1
 2974 0004 1C000000 		.4byte	.LVL6
 2975 0008 0100     		.2byte	0x1
 2976 000a 51       		.byte	0x51
 2977 000b 1C000000 		.4byte	.LVL6
 2978 000f 22000000 		.4byte	.LFE230
 2979 0013 0100     		.2byte	0x1
 2980 0015 51       		.byte	0x51
 2981 0016 00000000 		.4byte	0
 2982 001a 00000000 		.4byte	0
 2983              	.LLST1:
 2984 001e 00000000 		.4byte	.LVL1
 2985 0022 08000000 		.4byte	.LVL2
 2986 0026 0100     		.2byte	0x1
 2987 0028 52       		.byte	0x52
 2988 0029 08000000 		.4byte	.LVL2
 2989 002d 1A000000 		.4byte	.LVL5
 2990 0031 0100     		.2byte	0x1
 2991 0033 52       		.byte	0x52
 2992 0034 1A000000 		.4byte	.LVL5
 2993 0038 1C000000 		.4byte	.LVL6
 2994 003c 0300     		.2byte	0x3
 2995 003e 72       		.byte	0x72
 2996 003f 01       		.sleb128 1
 2997 0040 9F       		.byte	0x9f
 2998 0041 00000000 		.4byte	0
 2999 0045 00000000 		.4byte	0
 3000              	.LLST2:
 3001 0049 08000000 		.4byte	.LVL2
 3002 004d 1E000000 		.4byte	.LVL7
 3003 0051 0100     		.2byte	0x1
 3004 0053 50       		.byte	0x50
 3005 0054 00000000 		.4byte	0
 3006 0058 00000000 		.4byte	0
 3007              	.LLST3:
 3008 005c 08000000 		.4byte	.LVL2
 3009 0060 1C000000 		.4byte	.LVL6
 3010 0064 0100     		.2byte	0x1
 3011 0066 51       		.byte	0x51
 3012 0067 1C000000 		.4byte	.LVL6
 3013 006b 1E000000 		.4byte	.LVL7
ARM GAS  /var/folders/c6/c789hm653lg9vtl73krp73tm0000gn/T//ccvFz436.s 			page 76


 3014 006f 0200     		.2byte	0x2
 3015 0071 70       		.byte	0x70
 3016 0072 00       		.sleb128 0
 3017 0073 00000000 		.4byte	0
 3018 0077 00000000 		.4byte	0
 3019              	.LLST6:
 3020 007b 08000000 		.4byte	.LVL2
 3021 007f 1E000000 		.4byte	.LVL7
 3022 0083 0300     		.2byte	0x3
 3023 0085 08       		.byte	0x8
 3024 0086 20       		.byte	0x20
 3025 0087 9F       		.byte	0x9f
 3026 0088 00000000 		.4byte	0
 3027 008c 00000000 		.4byte	0
 3028              	.LLST7:
 3029 0090 12000000 		.4byte	.LVL4
 3030 0094 1E000000 		.4byte	.LVL7
 3031 0098 0200     		.2byte	0x2
 3032 009a 30       		.byte	0x30
 3033 009b 9F       		.byte	0x9f
 3034 009c 00000000 		.4byte	0
 3035 00a0 00000000 		.4byte	0
 3036              	.LLST8:
 3037 00a4 0C000000 		.4byte	.LVL3
 3038 00a8 1C000000 		.4byte	.LVL6
 3039 00ac 0100     		.2byte	0x1
 3040 00ae 51       		.byte	0x51
 3041 00af 1C000000 		.4byte	.LVL6
 3042 00b3 1E000000 		.4byte	.LVL7
 3043 00b7 0200     		.2byte	0x2
 3044 00b9 70       		.byte	0x70
 3045 00ba 00       		.sleb128 0
 3046 00bb 00000000 		.4byte	0
 3047 00bf 00000000 		.4byte	0
 3048              	.LLST9:
 3049 00c3 0C000000 		.4byte	.LVL3
 3050 00c7 1E000000 		.4byte	.LVL7
 3051 00cb 0100     		.2byte	0x1
 3052 00cd 50       		.byte	0x50
 3053 00ce 00000000 		.4byte	0
 3054 00d2 00000000 		.4byte	0
 3055              	.LLST11:
 3056 00d6 00000000 		.4byte	.LVL8
 3057 00da 06000000 		.4byte	.LVL9
 3058 00de 0100     		.2byte	0x1
 3059 00e0 50       		.byte	0x50
 3060 00e1 06000000 		.4byte	.LVL9
 3061 00e5 15000000 		.4byte	.LVL12-1
 3062 00e9 0100     		.2byte	0x1
 3063 00eb 53       		.byte	0x53
 3064 00ec 15000000 		.4byte	.LVL12-1
 3065 00f0 18000000 		.4byte	.LFE231
 3066 00f4 0400     		.2byte	0x4
 3067 00f6 F3       		.byte	0xf3
 3068 00f7 01       		.uleb128 0x1
 3069 00f8 50       		.byte	0x50
 3070 00f9 9F       		.byte	0x9f
ARM GAS  /var/folders/c6/c789hm653lg9vtl73krp73tm0000gn/T//ccvFz436.s 			page 77


 3071 00fa 00000000 		.4byte	0
 3072 00fe 00000000 		.4byte	0
 3073              	.LLST12:
 3074 0102 06000000 		.4byte	.LVL9
 3075 0106 14000000 		.4byte	.LVL11
 3076 010a 0100     		.2byte	0x1
 3077 010c 50       		.byte	0x50
 3078 010d 14000000 		.4byte	.LVL11
 3079 0111 15000000 		.4byte	.LVL12-1
 3080 0115 0200     		.2byte	0x2
 3081 0117 73       		.byte	0x73
 3082 0118 00       		.sleb128 0
 3083 0119 16000000 		.4byte	.LVL12
 3084 011d 18000000 		.4byte	.LFE231
 3085 0121 0100     		.2byte	0x1
 3086 0123 50       		.byte	0x50
 3087 0124 00000000 		.4byte	0
 3088 0128 00000000 		.4byte	0
 3089              	.LLST13:
 3090 012c 00000000 		.4byte	.LVL13
 3091 0130 0C000000 		.4byte	.LVL15
 3092 0134 0100     		.2byte	0x1
 3093 0136 50       		.byte	0x50
 3094 0137 0C000000 		.4byte	.LVL15
 3095 013b 14000000 		.4byte	.LVL17
 3096 013f 0100     		.2byte	0x1
 3097 0141 53       		.byte	0x53
 3098 0142 14000000 		.4byte	.LVL17
 3099 0146 1A000000 		.4byte	.LVL18
 3100 014a 0400     		.2byte	0x4
 3101 014c F3       		.byte	0xf3
 3102 014d 01       		.uleb128 0x1
 3103 014e 50       		.byte	0x50
 3104 014f 9F       		.byte	0x9f
 3105 0150 1A000000 		.4byte	.LVL18
 3106 0154 23000000 		.4byte	.LVL20-1
 3107 0158 0100     		.2byte	0x1
 3108 015a 53       		.byte	0x53
 3109 015b 23000000 		.4byte	.LVL20-1
 3110 015f 2C000000 		.4byte	.LFE232
 3111 0163 0400     		.2byte	0x4
 3112 0165 F3       		.byte	0xf3
 3113 0166 01       		.uleb128 0x1
 3114 0167 50       		.byte	0x50
 3115 0168 9F       		.byte	0x9f
 3116 0169 00000000 		.4byte	0
 3117 016d 00000000 		.4byte	0
 3118              	.LLST14:
 3119 0171 0A000000 		.4byte	.LVL14
 3120 0175 0C000000 		.4byte	.LVL15
 3121 0179 0100     		.2byte	0x1
 3122 017b 50       		.byte	0x50
 3123 017c 0C000000 		.4byte	.LVL15
 3124 0180 14000000 		.4byte	.LVL17
 3125 0184 0100     		.2byte	0x1
 3126 0186 53       		.byte	0x53
 3127 0187 14000000 		.4byte	.LVL17
ARM GAS  /var/folders/c6/c789hm653lg9vtl73krp73tm0000gn/T//ccvFz436.s 			page 78


 3128 018b 1A000000 		.4byte	.LVL18
 3129 018f 0400     		.2byte	0x4
 3130 0191 F3       		.byte	0xf3
 3131 0192 01       		.uleb128 0x1
 3132 0193 50       		.byte	0x50
 3133 0194 9F       		.byte	0x9f
 3134 0195 1A000000 		.4byte	.LVL18
 3135 0199 23000000 		.4byte	.LVL20-1
 3136 019d 0100     		.2byte	0x1
 3137 019f 53       		.byte	0x53
 3138 01a0 23000000 		.4byte	.LVL20-1
 3139 01a4 2C000000 		.4byte	.LFE232
 3140 01a8 0400     		.2byte	0x4
 3141 01aa F3       		.byte	0xf3
 3142 01ab 01       		.uleb128 0x1
 3143 01ac 50       		.byte	0x50
 3144 01ad 9F       		.byte	0x9f
 3145 01ae 00000000 		.4byte	0
 3146 01b2 00000000 		.4byte	0
 3147              	.LLST15:
 3148 01b6 0C000000 		.4byte	.LVL15
 3149 01ba 22000000 		.4byte	.LVL19
 3150 01be 0100     		.2byte	0x1
 3151 01c0 50       		.byte	0x50
 3152 01c1 22000000 		.4byte	.LVL19
 3153 01c5 23000000 		.4byte	.LVL20-1
 3154 01c9 0200     		.2byte	0x2
 3155 01cb 73       		.byte	0x73
 3156 01cc 00       		.sleb128 0
 3157 01cd 24000000 		.4byte	.LVL20
 3158 01d1 2C000000 		.4byte	.LFE232
 3159 01d5 0100     		.2byte	0x1
 3160 01d7 50       		.byte	0x50
 3161 01d8 00000000 		.4byte	0
 3162 01dc 00000000 		.4byte	0
 3163              	.LLST16:
 3164 01e0 12000000 		.4byte	.LVL16
 3165 01e4 1A000000 		.4byte	.LVL18
 3166 01e8 0200     		.2byte	0x2
 3167 01ea 30       		.byte	0x30
 3168 01eb 9F       		.byte	0x9f
 3169 01ec 24000000 		.4byte	.LVL20
 3170 01f0 2C000000 		.4byte	.LFE232
 3171 01f4 0200     		.2byte	0x2
 3172 01f6 30       		.byte	0x30
 3173 01f7 9F       		.byte	0x9f
 3174 01f8 00000000 		.4byte	0
 3175 01fc 00000000 		.4byte	0
 3176              		.section	.debug_aranges,"",%progbits
 3177 0000 44000000 		.4byte	0x44
 3178 0004 0200     		.2byte	0x2
 3179 0006 00000000 		.4byte	.Ldebug_info0
 3180 000a 04       		.byte	0x4
 3181 000b 00       		.byte	0
 3182 000c 0000     		.2byte	0
 3183 000e 0000     		.2byte	0
 3184 0010 00000000 		.4byte	.LFB229
ARM GAS  /var/folders/c6/c789hm653lg9vtl73krp73tm0000gn/T//ccvFz436.s 			page 79


 3185 0014 0A000000 		.4byte	.LFE229-.LFB229
 3186 0018 00000000 		.4byte	.LFB230
 3187 001c 22000000 		.4byte	.LFE230-.LFB230
 3188 0020 00000000 		.4byte	.LFB231
 3189 0024 18000000 		.4byte	.LFE231-.LFB231
 3190 0028 00000000 		.4byte	.LFB232
 3191 002c 2C000000 		.4byte	.LFE232-.LFB232
 3192 0030 00000000 		.4byte	.LFB233
 3193 0034 08000000 		.4byte	.LFE233-.LFB233
 3194 0038 00000000 		.4byte	.LFB234
 3195 003c 14000000 		.4byte	.LFE234-.LFB234
 3196 0040 00000000 		.4byte	0
 3197 0044 00000000 		.4byte	0
 3198              		.section	.debug_ranges,"",%progbits
 3199              	.Ldebug_ranges0:
 3200 0000 04000000 		.4byte	.LBB79
 3201 0004 06000000 		.4byte	.LBE79
 3202 0008 08000000 		.4byte	.LBB95
 3203 000c 0C000000 		.4byte	.LBE95
 3204 0010 00000000 		.4byte	0
 3205 0014 00000000 		.4byte	0
 3206 0018 06000000 		.4byte	.LBB86
 3207 001c 08000000 		.4byte	.LBE86
 3208 0020 12000000 		.4byte	.LBB98
 3209 0024 16000000 		.4byte	.LBE98
 3210 0028 00000000 		.4byte	0
 3211 002c 00000000 		.4byte	0
 3212 0030 02000000 		.4byte	.LBB99
 3213 0034 04000000 		.4byte	.LBE99
 3214 0038 06000000 		.4byte	.LBB106
 3215 003c 0A000000 		.4byte	.LBE106
 3216 0040 00000000 		.4byte	0
 3217 0044 00000000 		.4byte	0
 3218 0048 0A000000 		.4byte	.LBB107
 3219 004c 12000000 		.4byte	.LBE107
 3220 0050 1A000000 		.4byte	.LBB119
 3221 0054 24000000 		.4byte	.LBE119
 3222 0058 00000000 		.4byte	0
 3223 005c 00000000 		.4byte	0
 3224 0060 12000000 		.4byte	.LBB110
 3225 0064 18000000 		.4byte	.LBE110
 3226 0068 24000000 		.4byte	.LBB120
 3227 006c 2A000000 		.4byte	.LBE120
 3228 0070 00000000 		.4byte	0
 3229 0074 00000000 		.4byte	0
 3230 0078 06000000 		.4byte	.LBB125
 3231 007c 0A000000 		.4byte	.LBE125
 3232 0080 0C000000 		.4byte	.LBB137
 3233 0084 0E000000 		.4byte	.LBE137
 3234 0088 00000000 		.4byte	0
 3235 008c 00000000 		.4byte	0
 3236 0090 0A000000 		.4byte	.LBB128
 3237 0094 0C000000 		.4byte	.LBE128
 3238 0098 0E000000 		.4byte	.LBB138
 3239 009c 14000000 		.4byte	.LBE138
 3240 00a0 00000000 		.4byte	0
 3241 00a4 00000000 		.4byte	0
ARM GAS  /var/folders/c6/c789hm653lg9vtl73krp73tm0000gn/T//ccvFz436.s 			page 80


 3242 00a8 00000000 		.4byte	.LFB229
 3243 00ac 0A000000 		.4byte	.LFE229
 3244 00b0 00000000 		.4byte	.LFB230
 3245 00b4 22000000 		.4byte	.LFE230
 3246 00b8 00000000 		.4byte	.LFB231
 3247 00bc 18000000 		.4byte	.LFE231
 3248 00c0 00000000 		.4byte	.LFB232
 3249 00c4 2C000000 		.4byte	.LFE232
 3250 00c8 00000000 		.4byte	.LFB233
 3251 00cc 08000000 		.4byte	.LFE233
 3252 00d0 00000000 		.4byte	.LFB234
 3253 00d4 14000000 		.4byte	.LFE234
 3254 00d8 00000000 		.4byte	0
 3255 00dc 00000000 		.4byte	0
 3256              		.section	.debug_line,"",%progbits
 3257              	.Ldebug_line0:
 3258 0000 4F030000 		.section	.debug_str,"MS",%progbits,1
 3258      02006A02 
 3258      00000201 
 3258      FB0E0D00 
 3258      01010101 
 3259              	.LASF130:
 3260 0000 474E5520 		.ascii	"GNU C 4.8.4 20140725 (release) [ARM/embedded-4_8-br"
 3260      4320342E 
 3260      382E3420 
 3260      32303134 
 3260      30373235 
 3261 0033 616E6368 		.ascii	"anch revision 213147] -mcpu=cortex-m4 -mno-thumb-in"
 3261      20726576 
 3261      6973696F 
 3261      6E203231 
 3261      33313437 
 3262 0066 74657277 		.ascii	"terwork -mthumb -ggdb -O2 -fomit-frame-pointer -fal"
 3262      6F726B20 
 3262      2D6D7468 
 3262      756D6220 
 3262      2D676764 
 3263 0099 69676E2D 		.ascii	"ign-functions=16 -ffunction-sections -fdata-section"
 3263      66756E63 
 3263      74696F6E 
 3263      733D3136 
 3263      202D6666 
 3264 00cc 73202D66 		.ascii	"s -fno-common -flto\000"
 3264      6E6F2D63 
 3264      6F6D6D6F 
 3264      6E202D66 
 3264      6C746F00 
 3265              	.LASF51:
 3266 00e0 72656164 		.ascii	"ready_list_t\000"
 3266      795F6C69 
 3266      73745F74 
 3266      00
 3267              	.LASF2:
 3268 00ed 73697A65 		.ascii	"size_t\000"
 3268      5F7400
 3269              	.LASF86:
 3270 00f4 7264796D 		.ascii	"rdymsg\000"
ARM GAS  /var/folders/c6/c789hm653lg9vtl73krp73tm0000gn/T//ccvFz436.s 			page 81


 3270      736700
 3271              	.LASF17:
 3272 00fb 75696E74 		.ascii	"uint64_t\000"
 3272      36345F74 
 3272      00
 3273              	.LASF3:
 3274 0104 5F5F7569 		.ascii	"__uint8_t\000"
 3274      6E74385F 
 3274      7400
 3275              	.LASF83:
 3276 010e 706F7274 		.ascii	"port_intctx\000"
 3276      5F696E74 
 3276      63747800 
 3277              	.LASF70:
 3278 011a 73797374 		.ascii	"system_debug_t\000"
 3278      656D5F64 
 3278      65627567 
 3278      5F7400
 3279              	.LASF124:
 3280 0129 70726F76 		.ascii	"provider\000"
 3280      69646572 
 3280      00
 3281              	.LASF109:
 3282 0132 706F7274 		.ascii	"port_lock\000"
 3282      5F6C6F63 
 3282      6B00
 3283              	.LASF102:
 3284 013c 6D656D67 		.ascii	"memgetfunc_t\000"
 3284      65746675 
 3284      6E635F74 
 3284      00
 3285              	.LASF114:
 3286 0149 5F5F6675 		.ascii	"__func__.6505\000"
 3286      6E635F5F 
 3286      2E363530 
 3286      3500
 3287              	.LASF13:
 3288 0157 6C6F6E67 		.ascii	"long long unsigned int\000"
 3288      206C6F6E 
 3288      6720756E 
 3288      7369676E 
 3288      65642069 
 3289              	.LASF87:
 3290 016e 65786974 		.ascii	"exitcode\000"
 3290      636F6465 
 3290      00
 3291              	.LASF77:
 3292 0177 6D61696E 		.ascii	"mainthread\000"
 3292      74687265 
 3292      616400
 3293              	.LASF67:
 3294 0182 76697274 		.ascii	"virtual_timers_list_t\000"
 3294      75616C5F 
 3294      74696D65 
 3294      72735F6C 
 3294      6973745F 
 3295              	.LASF129:
ARM GAS  /var/folders/c6/c789hm653lg9vtl73krp73tm0000gn/T//ccvFz436.s 			page 82


 3296 0198 49544D5F 		.ascii	"ITM_RxBuffer\000"
 3296      52784275 
 3296      66666572 
 3296      00
 3297              	.LASF50:
 3298 01a5 63685F74 		.ascii	"ch_threads_queue\000"
 3298      68726561 
 3298      64735F71 
 3298      75657565 
 3298      00
 3299              	.LASF30:
 3300 01b6 705F7072 		.ascii	"p_prio\000"
 3300      696F00
 3301              	.LASF11:
 3302 01bd 6C6F6E67 		.ascii	"long long int\000"
 3302      206C6F6E 
 3302      6720696E 
 3302      7400
 3303              	.LASF1:
 3304 01cb 7369676E 		.ascii	"signed char\000"
 3304      65642063 
 3304      68617200 
 3305              	.LASF44:
 3306 01d7 705F6D70 		.ascii	"p_mpool\000"
 3306      6F6F6C00 
 3307              	.LASF97:
 3308 01df 6D5F7175 		.ascii	"m_queue\000"
 3308      65756500 
 3309              	.LASF76:
 3310 01e7 76746C69 		.ascii	"vtlist\000"
 3310      737400
 3311              	.LASF110:
 3312 01ee 706F7274 		.ascii	"port_unlock\000"
 3312      5F756E6C 
 3312      6F636B00 
 3313              	.LASF89:
 3314 01fa 77747472 		.ascii	"wttrp\000"
 3314      7000
 3315              	.LASF74:
 3316 0200 63685F73 		.ascii	"ch_system\000"
 3316      79737465 
 3316      6D00
 3317              	.LASF8:
 3318 020a 6C6F6E67 		.ascii	"long int\000"
 3318      20696E74 
 3318      00
 3319              	.LASF20:
 3320 0213 74737461 		.ascii	"tstate_t\000"
 3320      74655F74 
 3320      00
 3321              	.LASF119:
 3322 021c 5F5F6675 		.ascii	"__func__.6515\000"
 3322      6E635F5F 
 3322      2E363531 
 3322      3500
 3323              	.LASF105:
 3324 022a 6D705F6E 		.ascii	"mp_next\000"
ARM GAS  /var/folders/c6/c789hm653lg9vtl73krp73tm0000gn/T//ccvFz436.s 			page 83


 3324      65787400 
 3325              	.LASF32:
 3326 0232 705F6E65 		.ascii	"p_newer\000"
 3326      77657200 
 3327              	.LASF94:
 3328 023a 735F7175 		.ascii	"s_queue\000"
 3328      65756500 
 3329              	.LASF56:
 3330 0242 725F6E65 		.ascii	"r_newer\000"
 3330      77657200 
 3331              	.LASF107:
 3332 024a 6D705F70 		.ascii	"mp_provider\000"
 3332      726F7669 
 3332      64657200 
 3333              	.LASF80:
 3334 0256 72656761 		.ascii	"regarm_t\000"
 3334      726D5F74 
 3334      00
 3335              	.LASF63:
 3336 025f 76745F70 		.ascii	"vt_prev\000"
 3336      72657600 
 3337              	.LASF101:
 3338 0267 6D757465 		.ascii	"mutex_t\000"
 3338      785F7400 
 3339              	.LASF112:
 3340 026f 76616C75 		.ascii	"value\000"
 3340      6500
 3341              	.LASF78:
 3342 0275 69646C65 		.ascii	"idle_thread_wa\000"
 3342      5F746872 
 3342      6561645F 
 3342      776100
 3343              	.LASF25:
 3344 0284 636E745F 		.ascii	"cnt_t\000"
 3344      7400
 3345              	.LASF0:
 3346 028a 756E7369 		.ascii	"unsigned int\000"
 3346      676E6564 
 3346      20696E74 
 3346      00
 3347              	.LASF62:
 3348 0297 76745F6E 		.ascii	"vt_next\000"
 3348      65787400 
 3349              	.LASF117:
 3350 029f 5F5F6675 		.ascii	"__func__.5798\000"
 3350      6E635F5F 
 3350      2E353739 
 3350      3800
 3351              	.LASF90:
 3352 02ad 77747365 		.ascii	"wtsemp\000"
 3352      6D7000
 3353              	.LASF127:
 3354 02b4 5F5F6675 		.ascii	"__func__.6491\000"
 3354      6E635F5F 
 3354      2E363439 
 3354      3100
 3355              	.LASF39:
ARM GAS  /var/folders/c6/c789hm653lg9vtl73krp73tm0000gn/T//ccvFz436.s 			page 84


 3356 02c2 705F6D73 		.ascii	"p_msgqueue\000"
 3356      67717565 
 3356      756500
 3357              	.LASF108:
 3358 02cd 6D656D6F 		.ascii	"memory_pool_t\000"
 3358      72795F70 
 3358      6F6F6C5F 
 3358      7400
 3359              	.LASF95:
 3360 02db 735F636E 		.ascii	"s_cnt\000"
 3360      7400
 3361              	.LASF6:
 3362 02e1 73686F72 		.ascii	"short unsigned int\000"
 3362      7420756E 
 3362      7369676E 
 3362      65642069 
 3362      6E7400
 3363              	.LASF47:
 3364 02f4 63685F74 		.ascii	"ch_thread\000"
 3364      68726561 
 3364      6400
 3365              	.LASF23:
 3366 02fe 6D73675F 		.ascii	"msg_t\000"
 3366      7400
 3367              	.LASF73:
 3368 0304 63685F73 		.ascii	"ch_system_t\000"
 3368      79737465 
 3368      6D5F7400 
 3369              	.LASF122:
 3370 0310 6368506F 		.ascii	"chPoolAdd\000"
 3370      6F6C4164 
 3370      6400
 3371              	.LASF19:
 3372 031a 746D6F64 		.ascii	"tmode_t\000"
 3372      655F7400 
 3373              	.LASF125:
 3374 0322 6368506F 		.ascii	"chPoolObjectInit\000"
 3374      6F6C4F62 
 3374      6A656374 
 3374      496E6974 
 3374      00
 3375              	.LASF52:
 3376 0333 63685F72 		.ascii	"ch_ready_list\000"
 3376      65616479 
 3376      5F6C6973 
 3376      7400
 3377              	.LASF24:
 3378 0341 6576656E 		.ascii	"eventmask_t\000"
 3378      746D6173 
 3378      6B5F7400 
 3379              	.LASF7:
 3380 034d 5F5F696E 		.ascii	"__int32_t\000"
 3380      7433325F 
 3380      7400
 3381              	.LASF128:
 3382 0357 5F5F6675 		.ascii	"__func__.6497\000"
 3382      6E635F5F 
ARM GAS  /var/folders/c6/c789hm653lg9vtl73krp73tm0000gn/T//ccvFz436.s 			page 85


 3382      2E363439 
 3382      3700
 3383              	.LASF81:
 3384 0365 73746B61 		.ascii	"stkalign_t\000"
 3384      6C69676E 
 3384      5F7400
 3385              	.LASF38:
 3386 0370 705F7761 		.ascii	"p_waiting\000"
 3386      6974696E 
 3386      6700
 3387              	.LASF79:
 3388 037a 73697A65 		.ascii	"sizetype\000"
 3388      74797065 
 3388      00
 3389              	.LASF45:
 3390 0383 74687265 		.ascii	"thread_reference_t\000"
 3390      61645F72 
 3390      65666572 
 3390      656E6365 
 3390      5F7400
 3391              	.LASF68:
 3392 0396 63685F76 		.ascii	"ch_virtual_timers_list\000"
 3392      69727475 
 3392      616C5F74 
 3392      696D6572 
 3392      735F6C69 
 3393              	.LASF118:
 3394 03ad 6368506F 		.ascii	"chPoolAllocI\000"
 3394      6F6C416C 
 3394      6C6F6349 
 3394      00
 3395              	.LASF120:
 3396 03ba 6368506F 		.ascii	"chPoolFreeI\000"
 3396      6F6C4672 
 3396      65654900 
 3397              	.LASF69:
 3398 03c6 76745F6C 		.ascii	"vt_lasttime\000"
 3398      61737474 
 3398      696D6500 
 3399              	.LASF33:
 3400 03d2 705F6F6C 		.ascii	"p_older\000"
 3400      64657200 
 3401              	.LASF55:
 3402 03da 725F6374 		.ascii	"r_ctx\000"
 3402      7800
 3403              	.LASF106:
 3404 03e0 6D705F6F 		.ascii	"mp_object_size\000"
 3404      626A6563 
 3404      745F7369 
 3404      7A6500
 3405              	.LASF85:
 3406 03ef 746D5F63 		.ascii	"tm_calibration_t\000"
 3406      616C6962 
 3406      72617469 
 3406      6F6E5F74 
 3406      00
 3407              	.LASF58:
ARM GAS  /var/folders/c6/c789hm653lg9vtl73krp73tm0000gn/T//ccvFz436.s 			page 86


 3408 0400 725F6375 		.ascii	"r_current\000"
 3408      7272656E 
 3408      7400
 3409              	.LASF57:
 3410 040a 725F6F6C 		.ascii	"r_older\000"
 3410      64657200 
 3411              	.LASF12:
 3412 0412 5F5F7569 		.ascii	"__uint64_t\000"
 3412      6E743634 
 3412      5F7400
 3413              	.LASF104:
 3414 041d 70685F6E 		.ascii	"ph_next\000"
 3414      65787400 
 3415              	.LASF21:
 3416 0425 74726566 		.ascii	"trefs_t\000"
 3416      735F7400 
 3417              	.LASF60:
 3418 042d 76697274 		.ascii	"virtual_timer_t\000"
 3418      75616C5F 
 3418      74696D65 
 3418      725F7400 
 3419              	.LASF29:
 3420 043d 705F7072 		.ascii	"p_prev\000"
 3420      657600
 3421              	.LASF22:
 3422 0444 74707269 		.ascii	"tprio_t\000"
 3422      6F5F7400 
 3423              	.LASF71:
 3424 044c 63685F73 		.ascii	"ch_system_debug\000"
 3424      79737465 
 3424      6D5F6465 
 3424      62756700 
 3425              	.LASF15:
 3426 045c 696E7433 		.ascii	"int32_t\000"
 3426      325F7400 
 3427              	.LASF4:
 3428 0464 756E7369 		.ascii	"unsigned char\000"
 3428      676E6564 
 3428      20636861 
 3428      7200
 3429              	.LASF42:
 3430 0472 705F6D74 		.ascii	"p_mtxlist\000"
 3430      786C6973 
 3430      7400
 3431              	.LASF5:
 3432 047c 73686F72 		.ascii	"short int\000"
 3432      7420696E 
 3432      7400
 3433              	.LASF35:
 3434 0486 705F7374 		.ascii	"p_state\000"
 3434      61746500 
 3435              	.LASF54:
 3436 048e 725F7072 		.ascii	"r_prio\000"
 3436      696F00
 3437              	.LASF92:
 3438 0495 65776D61 		.ascii	"ewmask\000"
 3438      736B00
ARM GAS  /var/folders/c6/c789hm653lg9vtl73krp73tm0000gn/T//ccvFz436.s 			page 87


 3439              	.LASF28:
 3440 049c 705F6E65 		.ascii	"p_next\000"
 3440      787400
 3441              	.LASF111:
 3442 04a3 63685379 		.ascii	"chSysLock\000"
 3442      734C6F63 
 3442      6B00
 3443              	.LASF113:
 3444 04ad 6F626A70 		.ascii	"objp\000"
 3444      00
 3445              	.LASF61:
 3446 04b2 63685F76 		.ascii	"ch_virtual_timer\000"
 3446      69727475 
 3446      616C5F74 
 3446      696D6572 
 3446      00
 3447              	.LASF93:
 3448 04c3 63685F73 		.ascii	"ch_semaphore\000"
 3448      656D6170 
 3448      686F7265 
 3448      00
 3449              	.LASF41:
 3450 04d0 705F6570 		.ascii	"p_epending\000"
 3450      656E6469 
 3450      6E6700
 3451              	.LASF16:
 3452 04db 75696E74 		.ascii	"uint32_t\000"
 3452      33325F74 
 3452      00
 3453              	.LASF91:
 3454 04e4 77746D74 		.ascii	"wtmtxp\000"
 3454      787000
 3455              	.LASF53:
 3456 04eb 725F7175 		.ascii	"r_queue\000"
 3456      65756500 
 3457              	.LASF64:
 3458 04f3 76745F64 		.ascii	"vt_delta\000"
 3458      656C7461 
 3458      00
 3459              	.LASF48:
 3460 04fc 63685F74 		.ascii	"ch_threads_list\000"
 3460      68726561 
 3460      64735F6C 
 3460      69737400 
 3461              	.LASF10:
 3462 050c 6C6F6E67 		.ascii	"long unsigned int\000"
 3462      20756E73 
 3462      69676E65 
 3462      6420696E 
 3462      7400
 3463              	.LASF132:
 3464 051e 2F557365 		.ascii	"/Users/savonetj/Downloads/ChibiOS_3.0.2/demos/STM32"
 3464      72732F73 
 3464      61766F6E 
 3464      65746A2F 
 3464      446F776E 
 3465 0551 2F52542D 		.ascii	"/RT-STM32F407-DISCOVERY\000"
ARM GAS  /var/folders/c6/c789hm653lg9vtl73krp73tm0000gn/T//ccvFz436.s 			page 88


 3465      53544D33 
 3465      32463430 
 3465      372D4449 
 3465      53434F56 
 3466              	.LASF100:
 3467 0569 63686172 		.ascii	"char\000"
 3467      00
 3468              	.LASF27:
 3469 056e 74687265 		.ascii	"thread_t\000"
 3469      61645F74 
 3469      00
 3470              	.LASF99:
 3471 0577 6D5F6E65 		.ascii	"m_next\000"
 3471      787400
 3472              	.LASF26:
 3473 057e 73797374 		.ascii	"systime_t\000"
 3473      696D655F 
 3473      7400
 3474              	.LASF43:
 3475 0588 705F7265 		.ascii	"p_realprio\000"
 3475      616C7072 
 3475      696F00
 3476              	.LASF59:
 3477 0593 76746675 		.ascii	"vtfunc_t\000"
 3477      6E635F74 
 3477      00
 3478              	.LASF9:
 3479 059c 5F5F7569 		.ascii	"__uint32_t\000"
 3479      6E743332 
 3479      5F7400
 3480              	.LASF115:
 3481 05a7 5F5F7365 		.ascii	"__set_BASEPRI\000"
 3481      745F4241 
 3481      53455052 
 3481      4900
 3482              	.LASF72:
 3483 05b5 70616E69 		.ascii	"panic_msg\000"
 3483      635F6D73 
 3483      6700
 3484              	.LASF84:
 3485 05bf 6F666673 		.ascii	"offset\000"
 3485      657400
 3486              	.LASF96:
 3487 05c6 63685F6D 		.ascii	"ch_mutex\000"
 3487      75746578 
 3487      00
 3488              	.LASF82:
 3489 05cf 636F6E74 		.ascii	"context\000"
 3489      65787400 
 3490              	.LASF40:
 3491 05d7 705F6D73 		.ascii	"p_msg\000"
 3491      6700
 3492              	.LASF18:
 3493 05dd 7274636E 		.ascii	"rtcnt_t\000"
 3493      745F7400 
 3494              	.LASF66:
 3495 05e5 76745F70 		.ascii	"vt_par\000"
ARM GAS  /var/folders/c6/c789hm653lg9vtl73krp73tm0000gn/T//ccvFz436.s 			page 89


 3495      617200
 3496              	.LASF49:
 3497 05ec 74687265 		.ascii	"threads_queue_t\000"
 3497      6164735F 
 3497      71756575 
 3497      655F7400 
 3498              	.LASF103:
 3499 05fc 706F6F6C 		.ascii	"pool_header\000"
 3499      5F686561 
 3499      64657200 
 3500              	.LASF37:
 3501 0608 705F7265 		.ascii	"p_refs\000"
 3501      667300
 3502              	.LASF75:
 3503 060f 726C6973 		.ascii	"rlist\000"
 3503      7400
 3504              	.LASF14:
 3505 0615 75696E74 		.ascii	"uint8_t\000"
 3505      385F7400 
 3506              	.LASF133:
 3507 061d 6368506F 		.ascii	"chPoolAlloc\000"
 3507      6F6C416C 
 3507      6C6F6300 
 3508              	.LASF121:
 3509 0629 6368506F 		.ascii	"chPoolFree\000"
 3509      6F6C4672 
 3509      656500
 3510              	.LASF88:
 3511 0634 77746F62 		.ascii	"wtobjp\000"
 3511      6A7000
 3512              	.LASF34:
 3513 063b 705F6E61 		.ascii	"p_name\000"
 3513      6D6500
 3514              	.LASF123:
 3515 0642 73697A65 		.ascii	"size\000"
 3515      00
 3516              	.LASF46:
 3517 0647 74687265 		.ascii	"threads_list_t\000"
 3517      6164735F 
 3517      6C697374 
 3517      5F7400
 3518              	.LASF36:
 3519 0656 705F666C 		.ascii	"p_flags\000"
 3519      61677300 
 3520              	.LASF116:
 3521 065e 63685379 		.ascii	"chSysUnlock\000"
 3521      73556E6C 
 3521      6F636B00 
 3522              	.LASF126:
 3523 066a 6368506F 		.ascii	"chPoolLoadArray\000"
 3523      6F6C4C6F 
 3523      61644172 
 3523      72617900 
 3524              	.LASF98:
 3525 067a 6D5F6F77 		.ascii	"m_owner\000"
 3525      6E657200 
 3526              	.LASF131:
ARM GAS  /var/folders/c6/c789hm653lg9vtl73krp73tm0000gn/T//ccvFz436.s 			page 90


 3527 0682 2E2E2F2E 		.ascii	"../../../os/rt/src/chmempools.c\000"
 3527      2E2F2E2E 
 3527      2F6F732F 
 3527      72742F73 
 3527      72632F63 
 3528              	.LASF31:
 3529 06a2 705F6374 		.ascii	"p_ctx\000"
 3529      7800
 3530              	.LASF65:
 3531 06a8 76745F66 		.ascii	"vt_func\000"
 3531      756E6300 
 3532              		.comm	__gnu_lto_v1,1,1
 3533              		.ident	"GCC: (GNU Tools for ARM Embedded Processors) 4.8.4 20140725 (release) [ARM/embedded-4_8-br
ARM GAS  /var/folders/c6/c789hm653lg9vtl73krp73tm0000gn/T//ccvFz436.s 			page 91


DEFINED SYMBOLS
                            *ABS*:0000000000000000 chmempools.c
/var/folders/c6/c789hm653lg9vtl73krp73tm0000gn/T//ccvFz436.s:384    .text.chPoolObjectInit:0000000000000000 $t
/var/folders/c6/c789hm653lg9vtl73krp73tm0000gn/T//ccvFz436.s:390    .text.chPoolObjectInit:0000000000000000 chPoolObjectInit
/var/folders/c6/c789hm653lg9vtl73krp73tm0000gn/T//ccvFz436.s:412    .text.chPoolLoadArray:0000000000000000 $t
/var/folders/c6/c789hm653lg9vtl73krp73tm0000gn/T//ccvFz436.s:418    .text.chPoolLoadArray:0000000000000000 chPoolLoadArray
/var/folders/c6/c789hm653lg9vtl73krp73tm0000gn/T//ccvFz436.s:517    .text.chPoolAllocI:0000000000000000 $t
/var/folders/c6/c789hm653lg9vtl73krp73tm0000gn/T//ccvFz436.s:523    .text.chPoolAllocI:0000000000000000 chPoolAllocI
/var/folders/c6/c789hm653lg9vtl73krp73tm0000gn/T//ccvFz436.s:562    .text.chPoolAlloc:0000000000000000 $t
/var/folders/c6/c789hm653lg9vtl73krp73tm0000gn/T//ccvFz436.s:568    .text.chPoolAlloc:0000000000000000 chPoolAlloc
/var/folders/c6/c789hm653lg9vtl73krp73tm0000gn/T//ccvFz436.s:675    .text.chPoolFreeI:0000000000000000 $t
/var/folders/c6/c789hm653lg9vtl73krp73tm0000gn/T//ccvFz436.s:681    .text.chPoolFreeI:0000000000000000 chPoolFreeI
/var/folders/c6/c789hm653lg9vtl73krp73tm0000gn/T//ccvFz436.s:699    .text.chPoolFree:0000000000000000 $t
/var/folders/c6/c789hm653lg9vtl73krp73tm0000gn/T//ccvFz436.s:705    .text.chPoolFree:0000000000000000 chPoolFree
                            *COM*:0000000000000001 __gnu_lto_v1
                     .debug_frame:0000000000000010 $d

NO UNDEFINED SYMBOLS
