ARM GAS  /var/folders/c6/c789hm653lg9vtl73krp73tm0000gn/T//ccYJu1mY.s 			page 1


   1              		.syntax unified
   2              		.cpu cortex-m4
   3              		.fpu softvfp
   4              		.eabi_attribute 20, 1
   5              		.eabi_attribute 21, 1
   6              		.eabi_attribute 23, 3
   7              		.eabi_attribute 24, 1
   8              		.eabi_attribute 25, 1
   9              		.eabi_attribute 26, 1
  10              		.eabi_attribute 30, 2
  11              		.eabi_attribute 34, 1
  12              		.eabi_attribute 18, 4
  13              		.thumb
  14              		.file	"chmemcore.c"
  15              		.text
  16              	.Ltext0:
  17              		.section	.gnu.lto_.jmpfuncs.4ed60bb222296535,"",%progbits
  18 0000 789C6362 		.ascii	"x\234cb`b\300\006\270\2404\013\003\003+#\033#;\003\003"
  18      6062C006 
  18      B8A0340B 
  18      03032B23 
  18      1B233B03 
  19 0015 00020A00 		.ascii	"\000\002\012\000'"
  19      27
  20              		.text
  21              		.section	.gnu.lto_.inline.4ed60bb222296535,"",%progbits
  22 0000 789C6362 		.ascii	"x\234cb`b\300\006\222\2414\013\003\003+\013#\003\023"
  22      6062C006 
  22      92A1340B 
  22      03032B0B 
  22      230313
  23 0013 CB027906 		.ascii	"\313\002y\006\266\005\362`\305\254\014|\274\214\214"
  23      B605F260 
  23      C5AC0C7C 
  23      BC8C8C
  24 0022 0C8C4026 		.ascii	"\014\214@&\263\320\201NF\210\004P\005\013H\226\215\201"
  24      B3D0814E 
  24      46880450 
  24      050B4896 
  24      8D81
  25 0034 871B26CB 		.ascii	"\207\033&\313\267 \013U\222\235\201\215\025h\032\333"
  25      B7200B55 
  25      929D818D 
  25      15681ADB 
  26 0044 073DB869 		.ascii	"\007=\270i\014\000\350g\011\333"
  26      0C00E867 
  26      09DB
  27              		.text
  28              		.section	.gnu.lto_.pureconst.4ed60bb222296535,"",%progbits
  29 0000 789C6362 		.ascii	"x\234cb`b\340d\200\000\026\006\011V+6\011v\026\000\003"
  29      6062E064 
  29      80001606 
  29      09562B36 
  29      09761600 
  30 0015 7C0092   		.ascii	"|\000\222"
  31              		.text
  32              		.section	.gnu.lto__core_init.4ed60bb222296535,"",%progbits
ARM GAS  /var/folders/c6/c789hm653lg9vtl73krp73tm0000gn/T//ccYJu1mY.s 			page 2


  33 0000 789C8D51 		.ascii	"x\234\215Q\277K\034A\024~ov\357\334#?\324\322J\271\364"
  33      BF4B1C41 
  33      147E6F76 
  33      EFDC233F 
  33      D4D24AB9 
  34 0015 BB511B8B 		.ascii	"\273Q\033\213\200\177\200\255\202V\313\272.\361\212"
  34      807F80AD 
  34      8256CBBA 
  34      2EF18A
  35 0024 3BC39D88 		.ascii	";\303\235\210\220\342\346~D\016A8E\021\265QD$\004I\300"
  35      90E2E67E 
  35      440E4138 
  35      4511B551 
  35      44240449 
  36 0039 2288825B 		.ascii	"\"\210\202[IR\030\324\326\346\004;ER\006I2y3{\233;7"
  36      495218D4 
  36      D6E6043B 
  36      45520649 
  36      3279337B 
  37 0050 511C76F7 		.ascii	"Q\034v\367\315\274\357}\357\373\366\015\003\006\321"
  37      CDBCEF7D 
  37      EFFBF60D 
  37      0306D1
  38 005f D541EF2F 		.ascii	"\325A\357/Jg(\242\006\310\252\337\000\012\006C\224\033"
  38      4A6728A2 
  38      06C8AADF 
  38      000A0643 
  38      941B
  39 0071 40C833CC 		.ascii	"@\3103\314\217\240,\325\223\260\301\371B\355\335\225"
  39      8FA02CD5 
  39      93B0C1F9 
  39      42EDDD95 
  40 0081 AFAD2CFA 		.ascii	"\257\255,\372\345u\376S\010\304\024R\333$\202\2130L"
  40      E575FE53 
  40      08C41452 
  40      DB24828B 
  40      304C
  41 0093 07EC5281 		.ascii	"\007\354R\201\351wu\002.\337\277<\321\277\360\262/D"
  41      E9777502 
  41      2EDFBF3C 
  41      D1BFF0B2 
  41      2F44
  42 00a5 7F0A3506 		.ascii	"\177\0125\006=\377\345\2451J\364\317\217\226;f\327\213"
  42      3DFFE5A5 
  42      314AF4CF 
  42      8F963B66 
  42      D78B
  43 00b7 55FE9B34 		.ascii	"U\376\2334\225\344\253GJ\356E$\007\356\221lh~d~M\210"
  43      95E4AB47 
  43      4AEE4524 
  43      07EE916C 
  43      687E647E 
  44 00cd EBDD838B 		.ascii	"\353\335\203\213Cl\177\202\340\340\006&I\221d5\371\321"
  44      436C7F82 
  44      E0E00626 
  44      49916435 
  44      F9D1
ARM GAS  /var/folders/c6/c789hm653lg9vtl73krp73tm0000gn/T//ccYJu1mY.s 			page 3


  45 00df 29B34999 		.ascii	")\263I\231\026\212[\024\015\231L\320a\233\016\264bP"
  45      168A5B14 
  45      0D994CD0 
  45      619B0EB4 
  45      6250
  46 00f1 E6BCDA25 		.ascii	"\346\274\332%\365kU\377tf\011\371\005\237\257;\327\031"
  46      F56B55FF 
  46      746609F9 
  46      059FAF3B 
  46      D719
  47 0103 0C2A07E1 		.ascii	"\014*\007\341r\360\003\262f\317\3049;\342\034?\371\025"
  47      72F003B2 
  47      66CFC439 
  47      3BE21C3F 
  47      F915
  48 0115 2E445E51 		.ascii	".D^QF#\224\035l\272\312\000\241\256 \357l\210 \212\332"
  48      4623941D 
  48      6CBACA00 
  48      A1AE20EF 
  48      6C88208A 
  49 012a 31146F4A 		.ascii	"1\024oJ\273s}\016\276\307\030\274F|\013\267\334Ha,]"
  49      BB737D0E 
  49      BEC718BC 
  49      467C0BB7 
  49      DC48612C 
  50 013f E71E43A9 		.ascii	"\347\036C\251\242\205(\243\0029\014\372)\205\354\377"
  50      A28528A3 
  50      02390CFA 
  50      2985ECFF 
  51 014f 45340215 		.ascii	"E4\002\025\362C\010\321\252\320\342Ui*\204u\252P\271"
  51      F24308D1 
  51      AAD0E255 
  51      692A8475 
  51      AA50B9
  52 0162 AFDFE341 		.ascii	"\257\337\343An\015V\013\234\267\321\260\245bE\356\342"
  52      6E0D560B 
  52      9CB7D1B0 
  52      A56245EE 
  52      E2
  53 0173 C18DCA36 		.ascii	"\301\215\3126q\245M<E\272)}\236\263\302V-\015\207Z\350"
  53      71A54D3C 
  53      45BA297D 
  53      9EB3C256 
  53      2D0D875A 
  54 0188 B0E1C3A0 		.ascii	"\260\341\303\240\202\177}dC8A\025\201\217\223\007}`"
  54      827F7D64 
  54      43384115 
  54      818F9307 
  54      7D60
  55 019a C44702E0 		.ascii	"\304G\002\340\024\012\265\303\027\001)\\\203THS\224"
  55      140AB5C3 
  55      1701295C 
  55      83544853 
  55      94
  56 01ab 93EA344D 		.ascii	"\223\3524M+x&rVv\322\312e]\313\035O{iw\"\353\231.\264"
  56      2B782672 
  56      5676D2CA 
ARM GAS  /var/folders/c6/c789hm653lg9vtl73krp73tm0000gn/T//ccYJu1mY.s 			page 4


  56      655DCB1D 
  56      4F7B6977 
  57 01c4 DAF6B8E7 		.ascii	"\332\366\270\347\274\261G\235\234g\333\346\313D\306"
  57      BCB1479D 
  57      9C67DBE6 
  57      CB44C6
  58 01d3 9B9E24D8 		.ascii	"\233\236$\330\354~^G\274\314\030\001=\006E\231\357}"
  58      EC7E5E47 
  58      BCCC1801 
  58      3D064599 
  58      EF7D
  59 01e5 7687F1B4 		.ascii	"v\207\361\264\271\352\0177\367\340\325"
  59      B9EA0F37 
  59      F7E0D5
  60              		.text
  61              		.section	.gnu.lto_chCoreAlloc.4ed60bb222296535,"",%progbits
  62 0000 789C9D54 		.ascii	"x\234\235T[HTa\020\236\371\317\331\273\253\005>d\305"
  62      5B485461 
  62      109EF9CF 
  62      D9BBAB05 
  62      3E64C5
  63 0013 BA086141 		.ascii	"\272\010aA\354\026]\014z)\244\300\007{\310\242z\212"
  63      EC165D0C 
  63      7A29A4C0 
  63      077BC8A2 
  63      7A8A
  64 0025 D3715917 		.ascii	"\323qY\027\334UvU\254\036:\272\022ZI\213\010f7\224\260"
  64      DC557655 
  64      AC1E3ABA 
  64      125A498B 
  64      08663794 
  65 003a 0B519610 		.ascii	"\013Q\226\020E\032\355\203eJ\006\021EA\017KA\367\202"
  65      451AED83 
  65      654A0611 
  65      45410F4B 
  65      41F782
  66 004d A8E84278 		.ascii	"\250\350Bx\232\377\234=g\335ETZvw\346\314\374\337|3"
  66      9AFF9C3D 
  66      67DD4554 
  66      5A7677E6 
  66      CCFCDF7C 
  67 0062 F3CF1C06 		.ascii	"\363\317\034\006\014r?k\350Wj\005\370J\022-\200,\361"
  67      0C723F6B 
  67      E8576A05 
  67      F84A122D 
  67      802CF1
  68 0075 08A0C5CE 		.ascii	"\010\240\305\316\230\370\316\006\212S\270x\037@\311"
  68      98F8CE06 
  68      8A53B878 
  68      1F40C9
  69 0084 1350D4ED 		.ascii	"\023P\324\355\"\"W\000\341\020\023D<\264\007y\020k\011"
  69      22225700 
  69      E1101344 
  69      3CB40779 
  69      106B09
  70 0097 F42B4A57 		.ascii	"\364+JWj\340\347\255\"\245\2575\241L\251*\206\220\350"
  70      6AE0E7AD 
ARM GAS  /var/folders/c6/c789hm653lg9vtl73krp73tm0000gn/T//ccYJu1mY.s 			page 5


  70      22A5AF35 
  70      A14CA92A 
  70      8690E8
  71 00aa 4A106484 		.ascii	"J\020d\204\335\364\200^M01\233_G&\357Nt\026Md\220\002"
  71      DDF4805E 
  71      4D30319B 
  71      5F4726EF 
  71      4E74164D 
  72 00c1 83D21991 		.ascii	"\203\322\031\221a\314\201&\2227&z\212\216d\240\"\203"
  72      61CC8126 
  72      9237267A 
  72      8A8E64A0 
  72      2283
  73 00d3 D5F32355 		.ascii	"\325\363#U\206.*\216>\345\257\252\012\032\343\306y\301"
  73      862E2A8E 
  73      3EE5AFAA 
  73      0A1AE3C6 
  73      79C1
  74 00e5 12593062 		.ascii	"\022Y0b\333\362\177l\333\346\202\015\262dJU_\016\367"
  74      DBF27F6C 
  74      DBE6820D 
  74      B2644A55 
  74      5F0EF7
  75 00f8 BDFA8C0B 		.ascii	"\275\372\214\013\013\005\014#Z!\204\026\033H\330\217"
  75      0B050C23 
  75      5A218416 
  75      1B48D88F 
  76 0108 25602779 		.ascii	"%`'y\231\244\203\344%\222N\222\027H\272H\016\220\314"
  76      99A483E4 
  76      25924E92 
  76      1748BA48 
  76      0E90CC
  77 011b A3C3A29B 		.ascii	"\243\303\242\233#\362\311r\216,\005\364@W\015\026h\243"
  77      23F2C972 
  77      8E2C05F4 
  77      40570D16 
  77      68A3
  78 012d 3ABCE9D6 		.ascii	":\274\351\326\337\031;6\375\322\254\014v\315\225\032"
  78      DF193B36 
  78      FDD2AC0C 
  78      76CD951A 
  79 013d 703F7D76 		.ascii	"p?}v\320?\037\207\235\310\270\024\306\241\325n\324\233"
  79      D03F1F87 
  79      9DC8B814 
  79      C6A1D56E 
  79      D49B
  80 014f FA7678EA 		.ascii	"\372vx\352>v\305\225\007J[\222\"\027\207\320\306 \216"
  80      3E76C595 
  80      074A5B92 
  80      221787D0 
  80      C6208E
  81 0162 73C5E636 		.ascii	"s\305\3466\233\227\224G\320\372\265\367\336\3201!\235"
  81      9B979447 
  81      D0FAB5F7 
  81      DED03121 
  81      9D
  82 0173 AE9177F2 		.ascii	"\256\221w\362m\247\352^.\3415\252\310\264\015\367\214"
ARM GAS  /var/folders/c6/c789hm653lg9vtl73krp73tm0000gn/T//ccYJu1mY.s 			page 6


  82      6DA7EA5E 
  82      2EE135AA 
  82      C8B40DF7 
  82      8C
  83 0184 B8969A4F 		.ascii	"\270\226\232O\035\337)1\011\257\320@\313\032!\243\237"
  83      1DDF2931 
  83      09AFD040 
  83      CB1A21A3 
  83      9F
  84 0195 00DADC22 		.ascii	"\000\332\334\"<#\225\026A\320\267\301\003o\361\214r"
  84      3C239516 
  84      41D0B7C1 
  84      036FF18C 
  84      72
  85 01a6 625308ED 		.ascii	"bS\010\355Y\364\031\377\207\264\337\241'\250\027\251"
  85      59F419FF 
  85      87B4DFA1 
  85      27A817A9 
  86 01b6 DF419047 		.ascii	"\337A\220G\235\204x{\374u\367\342\354\266\366Nd\267"
  86      9D84787B 
  86      FC75F7E2 
  86      ECB6F64E 
  86      64B7
  87 01c8 55C2412D 		.ascii	"U\302A-\215\331\373\252\307P.\034\267\350\004\2312\264"
  87      8DD9FBAA 
  87      C7502E1C 
  87      B7E80499 
  87      32B4
  88 01da A341B412 		.ascii	"\243A\264\022%\207\202\0154\346ab^$\3410\235\011\242"
  88      2587820D 
  88      34E66162 
  88      5E24E130 
  88      9D09A2
  89 01ed 8DFC9AF3 		.ascii	"\215\374\232\363\227\252\252\005Z\256L\367\031\351\332"
  89      97AAAA05 
  89      5AAE4CF7 
  89      19E9DA
  90 01fc 38A875FC 		.ascii	"8\250u\374\371\371\337\314\000\331O\301\311\026EY@S"
  90      F9F9DFCC 
  90      00D94FC1 
  90      C9164559 
  90      4053
  91 020e 7910FE28 		.ascii	"y\020\376(\355\\s\206\221\245\233\341LgF\260\217\202"
  91      ED5C7386 
  91      91A59BE1 
  91      4C6746B0 
  91      8F82
  92 0220 81710479 		.ascii	"\201q\004y\267\310TaX\2343G\201\331\242\270\202\334"
  92      B7C85461 
  92      589C3347 
  92      81D9A2B8 
  92      82DC
  93 0232 4E457498 		.ascii	"NEt\230\246<-\266K;\370%\3561\314n\362\000<\200\321"
  93      A63C2DB6 
  93      4B3BF825 
  93      EE31CC6E 
  93      F2003C80 
ARM GAS  /var/folders/c6/c789hm653lg9vtl73krp73tm0000gn/T//ccYJu1mY.s 			page 7


  94 0247 372DEE69 		.ascii	"7-\356i\305\2723\215\333I7A\357*>\202\251\263\003hT"
  94      C5BA338D 
  94      DB493741 
  94      EF2A3E82 
  94      A9B30368 
  95 025c 3DA255AD 		.ascii	"=\242U\255\263\034\215\253\335K\014t>Y\215v\244\213"
  95      B31C8DAB 
  95      DD4B0C74 
  95      3E598D76 
  95      A48B
  96 026e 984F0504 		.ascii	"\230O\005\0044\370Dc\344S\357\317\241~K\022^\325\356"
  96      34F84463 
  96      E453EFCF 
  96      A17E4B12 
  96      5ED5EE
  97 0281 CC181273 		.ascii	"\314\030\022s\023&\307r6A\302\353sN\2036\2120\373&\234"
  97      1326C772 
  97      3641C2EB 
  97      734E8336 
  97      8A30FB26 
  98 0296 29A04D18 		.ascii	")\240M\030\315\336\204\217.\217\271\343\231\225\370"
  98      CDDE848F 
  98      2E8FB9E3 
  98      9995F8
  99 02a5 316D252C 		.ascii	"1m%,\372\012[g\330\012\011o\222bR\033[ \341m\364\350"
  99      FA0A5B67 
  99      D80A096F 
  99      9262521B 
  99      5B20E16D 
 100 02bb 693D8696 		.ascii	"i=\206\226\324'Y\017\025D>e\360\002\0128\202\336-\354"
 100      D427590F 
 100      15443E65 
 100      F0020A38 
 100      82DE2DEC 
 101 02cf E19342EA 		.ascii	"\341\223B\352\254p\372i\036\177= \357\021\017P\354\363"
 101      AC70FA69 
 101      1E7F3D20 
 101      EF110F50 
 101      ECF3
 102 02e1 F9F56F5D 		.ascii	"\371\365o]\314\037m\360\307\242\262_\256\011\007\302"
 102      CC1F6DF0 
 102      C7A2B25F 
 102      AE0907C2 
 103 02f1 725D34E0 		.ascii	"r]4\340\223A\214\205\016\004\034\221@s\003\331|\033"
 103      93418C85 
 103      0E041C91 
 103      407303D9 
 103      7C1B
 104 0303 4CADCCD4 		.ascii	"L\255\314\324\326\333\003\221j\256\2543\224\265X\277"
 104      D6DB0391 
 104      6AAEAC33 
 104      94B558BF 
 105 0313 22276C7D 		.ascii	"\"'l}]\264!\346\337\274\275\262\274\262\231\342\363"
 105      5DB421E6 
 105      DFBCBDB2 
 105      BCB299E2 
 105      F3
ARM GAS  /var/folders/c6/c789hm653lg9vtl73krp73tm0000gn/T//ccYJu1mY.s 			page 8


 106 0324 E07B9BCA 		.ascii	"\340{\233\312\302\276\032\2604I\265\215\201\225\323"
 106      C2BE1AB0 
 106      3449B58D 
 106      8195D3
 107 0333 CF53607F 		.ascii	"\317S`\177yeUE\225?\024\221k\033\253\003~\355\274\034"
 107      79655545 
 107      953F1491 
 107      6B1BAB03 
 107      7EEDBC1C 
 108 0347 DEDA1891 		.ascii	"\336\332\030\221\011\222\233\263y\252&\266?F\376\005"
 108      09929BB3 
 108      79AA26B6 
 108      3F46FE05 
 109 0357 9555DBBD 		.ascii	"\225U\333\275\373\244X\240>\032Z\351]\266\012X\024l"
 109      FBA458A0 
 109      3E1A5AE9 
 109      5DB60A58 
 109      146C
 110 0369 94585D74 		.ascii	"\224X]t?\374\003\3549\272$"
 110      3FFC03EC 
 110      39BA24
 111              		.text
 112              		.section	.gnu.lto_chCoreAllocI.4ed60bb222296535,"",%progbits
 113 0000 789C9D53 		.ascii	"x\234\235SMh\023A\024~of\326M\322\204\212x\251\202\226"
 113      4D681341 
 113      147E6F66 
 113      D64DD284 
 113      8A78A982 
 114 0015 5C85E460 		.ascii	"\\\205\344`\3759y\326\253Z\320c\\C\314!\255\244=\010"
 114      FD3979D6 
 114      AB5AD063 
 114      5C43CC21 
 114      ADA43D08 
 115 0029 1E3AC9F6 		.ascii	"\036:\311\366PQ!\224\\\252EZ\264Z\177@\360\252`\016"
 115      50512194 
 115      5CAA455A 
 115      B45A7F40 
 115      F0AA600E 
 116 003d 2A26A850 		.ascii	"*&\250PJAoA\021\004\301\263\212\270~3\311$V\212\006"
 116      4A416F41 
 116      1104C1B3 
 116      8AB87E33 
 116      C924568A 
 117 0052 97DD7D6F 		.ascii	"\227\335}o\277\367\276\367;+H\320\237\327~<\213\222"
 117      BFF7BEF7 
 117      3B2B48D0 
 117      9FD77E3C 
 117      8B92
 118 0064 E804247B 		.ascii	"\350\004${\304\242\366\206\250\022\023B}\362I'\344\352"
 118      C4A2F686 
 118      A8121342 
 118      7DF24927 
 118      E4EA
 119 0076 0B229D94 		.ascii	"\013\"\235\224\254:\270b6\0121\315\010\251x\3464\233"
 119      AC3AB862 
 119      360A31CD 
 119      08A978E6 
ARM GAS  /var/folders/c6/c789hm653lg9vtl73krp73tm0000gn/T//ccYJu1mY.s 			page 9


 119      349B
 120 0088 205E9A96 		.ascii	" ^\232\226\265\236o?\277\375M,\324\033\263K\372G\024"
 120      B59E6F3F 
 120      BFFD4D2C 
 120      D41BB34B 
 120      FA4714
 121 009b 31171909 		.ascii	"1\027\031\011\323L\001\323)|\360\250\025Bm\256\300r"
 121      D34C01D3 
 121      297CF0A8 
 121      15426DAE 
 121      C072
 122 00ad 6BFAD1AA 		.ascii	"k\372\321\252\216[\236,\262\024\264o \332\374&\032\262"
 122      8E5B9E2C 
 122      B214B46F 
 122      20DAFC26 
 122      1AB2
 123 00bf 8DFD5FB6 		.ascii	"\215\375_\266#\203ek<m]\035i-Uk\372'\372\263\011\217"
 123      2383656B 
 123      3C6D5D1D 
 123      692D556B 
 123      FA27FAB3 
 124 00d5 6EC92C71 		.ascii	"n\311,q\237\372P4\332Q\364d\355\326\373{\274c\230\251"
 124      9FFA5034 
 124      DA51F464 
 124      EDD6FB7B 
 124      BC6398A9 
 125 00e9 C84A7289 		.ascii	"\310Jr\211YA\363<\270\262O9^\3464\305 oB\306!W \023"
 125      5941F33C 
 125      B8B24F39 
 125      5EE634C5 
 125      206F42C6 
 126 0101 90772087 		.ascii	"\220w \207\340)\223\306=\005\344.\0203s\232E#\243\335"
 126      E02993C6 
 126      3D05E42E 
 126      1033739A 
 126      4523A3DD 
 127 0115 C2165A57 		.ascii	"\302\026ZWFt\2770%\350\370\277Z\"c\307u\022o\263\323"
 127      4674BF30 
 127      25E8F8BF 
 127      5A2263C7 
 127      75126FB3 
 128 012a 711646CA 		.ascii	"q\026F\312\327\024\316\205\037\352\273r|\037\007\242"
 128      D714CE85 
 128      1FEABB72 
 128      7C1F07A2 
 129 013a C0AAC0D2 		.ascii	"\300\252\300\322\360\267\371p\206\361qx\306\231<X\255"
 129      F0B7F970 
 129      86F17178 
 129      C6993C58 
 129      AD
 130 014b E96B1445 		.ascii	"\351k\024E\30307Itl\350\012f\343_m\276\305\251p\014"
 130      C3303749 
 130      746CE80A 
 130      66E35F6D 
 130      BEC5A970 
 131 0160 FF3A5DAB 		.ascii	"\377:]\253h\275\035\263\273H\337\365\234\321\374\022"
 131      68BD1DB3 
ARM GAS  /var/folders/c6/c789hm653lg9vtl73krp73tm0000gn/T//ccYJu1mY.s 			page 10


 131      BB48DFF5 
 131      9CD1FC12 
 132 0170 9B736902 		.ascii	"\233si\002\371\335\312@\373,\035'V08\240c\016\211o\035"
 132      F9DDCA40 
 132      FB2C1D27 
 132      563038A0 
 132      630E896F 
 133 0185 85FE1625 		.ascii	"\205\376\026%\001\232\255\377R\017\032\262\261\023\326"
 133      019AADFF 
 133      520F1AB2 
 133      B113D6
 134 0194 F14BB8C7 		.ascii	"\361K\270\307\301IX\210^\322\263\217\225\324o\230\327"
 134      C1495888 
 134      5ED2B38F 
 134      95D46F98 
 134      D7
 135 01a5 1FDC384B 		.ascii	"\037\3348K\302\217!\233Tm\337X\341\216S\216\037`3.\313"
 135      C28F219B 
 135      546DDF58 
 135      E18E538E 
 135      1F60332E 
 136 01ba E530AAEF 		.ascii	"\3450\252\357v\354\024P7\216n\023\203t\000\242\313\247"
 136      76EC1450 
 136      378E6E13 
 136      837400A2 
 136      CBA7
 137 01cc EC6AD6F0 		.ascii	"\354j\326\360\007\032\330\372\275#6\256\330\252x\265"
 137      071AD8FA 
 137      BD2336AE 
 137      D8AA78B5 
 138 01dc BE1319E4 		.ascii	"\276\023\031\344\342F\322\254\223\215\257\231\350\336"
 138      E246D2AC 
 138      938DAF99 
 138      E8DE
 139 01ea 4C26DBB9 		.ascii	"L&\333\271'\247\262\345\351\354T9\310\006\347J\371R"
 139      27A7B2E5 
 139      E9EC5439 
 139      C806E74A 
 139      F952
 140 01fc 3059CE67 		.ascii	"0Y\316g\002\212\345'\316\342+3\346\224\003\361\211\374"
 140      028AE527 
 140      CEE22B33 
 140      E69403F1 
 140      89FC
 141 020e 8569A31D 		.ascii	"\205i\243\035\354i\207z\332a>\377\013O\223\360'"
 141      EC69877A 
 141      DA613EFF 
 141      0B4F93F0 
 141      27
 142              		.text
 143              		.section	.gnu.lto_chCoreGetStatusX.4ed60bb222296535,"",%progbits
 144 0000 789C9D52 		.ascii	"x\234\235R1K\303@\030\375\276\273\\\233:\2108\351d\311"
 144      314BC340 
 144      18FDBEBB 
 144      5C9B3A88 
 144      38E964C9 
 145 0014 2A245670 		.ascii	"*$Vpps\325\271\202\216%\206\332!-\244\035\004\207^m"
ARM GAS  /var/folders/c6/c789hm653lg9vtl73krp73tm0000gn/T//ccYJu1mY.s 			page 11


 145      7073D5B9 
 145      828E2586 
 145      DA212DA4 
 145      1D04875E 
 146 0029 07DD4A71 		.ascii	"\007\335JqQ\227\026\021u*8;t\021t\250\320I\307:\013"
 146      51971611 
 146      752A383B 
 146      741174A8 
 146      D049C73A 
 147 003e FE0029C4 		.ascii	"\376\000)\304\357\256m\244\"*\036\311\275\357^\356\275"
 147      EFAE6DA4 
 147      222A1EC9 
 147      BDEF5EEE 
 147      BD
 148 004f F7DD1106 		.ascii	"\367\335\021\006\014\276\216yz\347\210\336 D\016\310"
 148      0CBE8E79 
 148      7AE788DE 
 148      20440EC8 
 149 005f EA8F0015 		.ascii	"\352\217\000\025\223!\252\002\020\312\014\313\333\250"
 149      9321AA02 
 149      10CA0CCB 
 149      DBA8
 150 006d B61A16B4 		.ascii	"\266\032\026\264\244l\364\357\332=~r\334\2515\345 \014"
 150      A46CF4EF 
 150      DA3D7E72 
 150      DCA935E5 
 150      200C
 151 007f 117348B6 		.ascii	"\021sH\266\026\202\213\260E\013Lj`\306d\216\326\326"
 151      16828BB0 
 151      450B4C6A 
 151      60C6648E 
 151      D6D6
 152 0091 E5CD954C 		.ascii	"\345\315\225Lh\035\317!g\260\370'YcBFi+\377K[\373M\326"
 152      681DCF21 
 152      67B0F827 
 152      59634246 
 152      692BFF4B 
 153 00a9 669D7E18 		.ascii	"f\235~\030\336>\015^\356q\326d\220\301\026Z\300\011"
 153      DE3E0D5E 
 153      EE71D664 
 153      90C1165A 
 153      C009
 154 00bb CF090DC2 		.ascii	"\317\011\015\302\013BAxI\030\003r\215\323\244\\\004"
 154      0B424178 
 154      49180372 
 154      8DD3A45C 
 154      04
 155 00cc D4283109 		.ascii	"\324(1\011*\201F\232fu\201\233\310\024\362.\034<<\323"
 155      2A81469A 
 155      6675819B 
 155      C814F22E 
 155      1C3C3CD3 
 156 00e0 BD65F01A 		.ascii	"\275e\360\032\005d\221\235\301iE\312\031:\316>\274\313"
 156      0564919D 
 156      C16945CA 
 156      193ACE3E 
 156      BCCB
ARM GAS  /var/folders/c6/c789hm653lg9vtl73krp73tm0000gn/T//ccYJu1mY.s 			page 12


 157 00f2 4355095F 		.ascii	"CU\011_KUcb\324\020\311^#\015'\231\246\326\307\214\361"
 157      4B556362 
 157      D410C95E 
 157      230D2799 
 157      A6D6C78C 
 158 0107 BD0BFEE4 		.ascii	"\275\013\376\344\"\262\252\337.T\217\"*\246\275\205"
 158      22B2AADF 
 158      2E548F22 
 158      2AA6BD85 
 159 0117 DEF8569D 		.ascii	"\336\370V\235\036\323q\372\002\320\003\214\210\241]"
 159      1ED371FA 
 159      02D0038C 
 159      88A15D
 160 0126 9A02E84C 		.ascii	"\232\002\350L\352_Z\260mg\370\024\212NPr\212\201\353"
 160      EA5F5AB0 
 160      6D67F814 
 160      8A4E5072 
 160      8A81EB
 161 0139 B8BBBEE7 		.ascii	"\270\273\276\347\273\205\300\263]0\275\374\016\255\354"
 161      BB85C0B3 
 161      5D30BDFC 
 161      0EADEC
 162 0148 D5C4A848 		.ascii	"\325\304\250H-M\345\275\275\222.S\237\345\362\007\364"
 162      2D4DE5BD 
 162      BD922E53 
 162      9FE5F207 
 162      F4
 163 0159 F38F8A   		.ascii	"\363\217\212"
 164              		.text
 165              		.section	.gnu.lto_.symbol_nodes.4ed60bb222296535,"",%progbits
 166 0000 789C4DCA 		.ascii	"x\234M\312\311\015\2000\020CQ\333\3034I3\276\346H\005"
 166      C90D8030 
 166      104351DB 
 166      C3344933 
 166      BEE64805 
 167 0014 944417EC 		.ascii	"\224D\027\354)\202 !\005\237\376\223,\010#\276i\247"
 167      29822021 
 167      059FFE93 
 167      2C0823BE 
 167      69A7
 168 0026 816901EC 		.ascii	"\201i\001\354\2710o\266B\256\344\340\310J\275\332\030"
 168      B9306FB6 
 168      42AEE4E0 
 168      C84ABDDA 
 168      18
 169 0037 4D3A68F6 		.ascii	"M:h\366\253NZ?^tt\342\001v?\031\345"
 169      AB4E5A3F 
 169      5E7474E2 
 169      01763F19 
 169      E5
 170              		.text
 171              		.section	.gnu.lto_.refs.4ed60bb222296535,"",%progbits
 172 0000 789C6362 		.ascii	"x\234cb`bPd\200\000\026\006&FF&&fF\026fV0\207\211\231"
 172      60625064 
 172      80001606 
 172      26464626 
 172      26664616 
ARM GAS  /var/folders/c6/c789hm653lg9vtl73krp73tm0000gn/T//ccYJu1mY.s 			page 13


 173 001a 0D4233B1 		.ascii	"\015B3\261\203h\006\000\012\332\000l"
 173      83680600 
 173      0ADA006C 
 174              		.text
 175              		.section	.gnu.lto_.decls.4ed60bb222296535,"",%progbits
 176 0000 789CAD56 		.ascii	"x\234\255V]l\024U\024\276wv\333\355\262\013\342\203"
 176      5D6C1455 
 176      14BE7776 
 176      DBEDB20B 
 176      E283
 177 0012 884F2051 		.ascii	"\210O Q\023\321v*b\254/\024l\024\232\200!4M\2101\231"
 177      13D1762A 
 177      62AC2F14 
 177      6C149A80 
 177      21344D88 
 178 0028 0CD3D1DD 		.ascii	"\014\323\321\335\260\3356;\263H}\341R\265!\204@m,B\320"
 178      B0DD363B 
 178      B3487DE1 
 178      52B52184 
 178      406D2C42 
 179 003d B694969F 		.ascii	"\266\224\226\237(RH5\242\030\027\244\245\255!\266*\""
 179      28524835 
 179      A21817A4 
 179      A5AD21B6 
 179      2A22
 180 004f 98EA1A0D 		.ascii	"\230\352\032\015\004}\301\030\322\027e<\367\316\235"
 180      047DC118 
 180      D217653C 
 180      F7CE9D
 181 005e CECCED2C 		.ascii	"\316\314\355,n\211\223\236\366v\346\234\357\373\316"
 181      6E89939E 
 181      F676E69C 
 181      EFFBCE
 182 006d B9E7CC1D 		.ascii	"\271\347\314\035\011I\350]\214\220\005\327\2259\010"
 182      0949E85D 
 182      8C9005D7 
 182      953908
 183 007c ED90102A 		.ascii	"\355\220\020*A\010\255@\356\025\006;\010v\030l\000l"
 183      4108AD40 
 183      EE15063B 
 183      0876186C 
 183      006C
 184 008e 90DFFB04 		.ascii	"\220\337\373\004\354,\330y\260a\344\277\250\177\004"
 184      EC2CD879 
 184      B061E4BF 
 184      A87F04
 185 009d D958F3C0 		.ascii	"\331X\363\300\342`\347\300N\203\215\200\215r?\314}\303"
 185      E260E7C0 
 185      4E838D80 
 185      8D723FCC 
 185      7DC3
 186 00af 1C6B98E3 		.ascii	"\034k\230\343\236\027\360(w\014\354\230\200\027\346"
 186      9E17F028 
 186      770CEC98 
 186      8017E6
 187 00be 1CD56063 		.ascii	"\034\325`c`\343`\227<\370\021\036{\031\354*\330$\317"
 187      60E36097 
ARM GAS  /var/folders/c6/c789hm653lg9vtl73krp73tm0000gn/T//ccYJu1mY.s 			page 14


 187      3CF8111E 
 187      7B19EC2A 
 187      D824CF
 188 00d1 E11AD80D 		.ascii	"\341\032\330\015\260\020\347=\036\220\003\365+\343<"
 188      B010E73D 
 188      1E9003F5 
 188      2BE33C
 189 00e0 0E679873 		.ascii	"\016g\230s\225p-\336<\006<x\247\002\360h\335J\003\360"
 189      95702DDE 
 189      3C063C78 
 189      A702F068 
 189      DD4A03F0 
 190 00f4 441CEA27 		.ascii	"D\034\352'\361\370\263\002\306\"\324Ez\362\371\241\353"
 190      F1F8B302 
 190      C622D445 
 190      7AF2F9A1 
 190      EB
 191 0105 030F909E 		.ascii	"\003\017\220\236\326\234eU\243\005\250\223\300\325\323"
 191      D69C6555 
 191      A305A893 
 191      C0D5D3
 192 0114 46083655 		.ascii	"F\0106U\274\342>\264\021\253x^\024-f\213x\224\221 \244"
 192      BCE23EB4 
 192      11AB785E 
 192      142D668B 
 192      78949120 
 193 0129 E25EBC80 		.ascii	"\342^\274\200\257\352C6\234\204\226`\264\024\035\203"
 193      AFEA4336 
 193      9C849660 
 193      B4141D83 
 194 0139 F876427A 		.ascii	"\370vBz\357GA\327#\250\237\022\220\243$\304\340)\300"
 194      EF4741D7 
 194      23A89F12 
 194      90A324C4 
 194      E029C0
 195 014c 41BCC8EB 		.ascii	"A\274\310\353\242\342CX\232\2513\367\331\205\2570\351"
 195      A2E24358 
 195      9AA933F7 
 195      D985AF30 
 195      E9
 196 015d 207F5B56 		.ascii	" \177[VH\324Y\035+\250\363\010\327\031be@Q\264\203\220"
 196      48D4591D 
 196      2BA8F308 
 196      D7196265 
 196      4051B483 
 197 0172 561AB866 		.ascii	"V\032\270f\004\352\026\024\3650\352\203\014\362WN\276"
 197      04EA1614 
 197      F530EA83 
 197      0CF2574E 
 197      BE
 198 0183 271352A6 		.ascii	"'\023R\246\342c8\012\261{0\006\264>\274tZeI\324\257"
 198      E263380A 
 198      B17B3006 
 198      B43EBC74 
 198      5A6549D4 
 199 0198 1AFE771C 		.ascii	"\032\376w\034(\032{\314\027t\"\356\361\326\212\225k"
 199      281A7BCC 
ARM GAS  /var/folders/c6/c789hm653lg9vtl73krp73tm0000gn/T//ccYJu1mY.s 			page 15


 199      177422EE 
 199      F1D68A95 
 199      6B
 200 01a9 AF00F910 		.ascii	"\257\000\371\020:DHG\276\177j<\264\237\344\302\016s"
 200      3A444847 
 200      BE7F6A3C 
 200      B49FE4C2 
 200      0E73
 201 01bb 2F733B0C 		.ascii	"/s;\014E\012Rk{9\225m%'\332\336\234\037f\025Aw\210\342"
 201      450A526B 
 201      7B39956D 
 201      2527DADE 
 201      9C1F6615 
 202 01d3 923F9859 		.ascii	"\222?\230Y\350\374\315\334\336\261x\373\366\274eu\257"
 202      E8FCCDDC 
 202      DEB178FB 
 202      F6BC6575 
 202      AF
 203 01e4 B4CB27A1 		.ascii	"\264\313'\241#\201J\311T\303\032\233^\305\037\002\222"
 203      23814AC9 
 203      54C31A9B 
 203      5EC51F02 
 203      92
 204 01f5 8A07EE4A 		.ascii	"\212\007\356Jd\241(.\362d`7L\355\334\345tm\231\320\015"
 204      64A1282E 
 204      F2646037 
 204      4CEDDCE5 
 204      746D99D0 
 205 020a 94AB503B 		.ascii	"\224\253P;|\024\320\266\203Bv\3232O\035%QG\272\212\007"
 205      7C14D0B6 
 205      834276D3 
 205      324F1D25 
 205      5147BA8A 
 206 021f EF2CF363 		.ascii	"\357,\363c\277\314%\350 \311\267\347&\332:1\371\005"
 206      BFCC25E8 
 206      20C9B7E7 
 206      26DA3A31 
 206      F905
 207 0231 C4DDB62C 		.ascii	"\304\335\266,|/j\247:\027\357\233\307\3330\337O\026"
 207      7C2F6AA7 
 207      3A17EF9B 
 207      C7DB30DF 
 207      4F16
 208 0243 EE73DBB0 		.ascii	"\356s\333\260\314\201\305n\033\036\330}\3741\326\206"
 208      CC81C56E 
 208      1B1ED87D 
 208      FC31D686 
 209 0253 9FB266E8 		.ascii	"\237\262f\350\220\374Z\213\007\272\325\321U\305\200"
 209      90FC5A8B 
 209      07BAD5D1 
 209      55C580
 210 0262 3E674053 		.ascii	">g@S\222\330\317X\350g\354\357g\034u\027\026Fw\345\253"
 210      92D8CF58 
 210      E867ECEF 
 210      671C7517 
 210      164677E5 
 211 0277 E2D35004 		.ascii	"\342\323P\004\317%\241\355!\354C\312\271e\244%$\337"
ARM GAS  /var/folders/c6/c789hm653lg9vtl73krp73tm0000gn/T//ccYJu1mY.s 			page 16


 211      CF25A1ED 
 211      21EC43CA 
 211      B965A425 
 211      24DF
 212 0289 E4877E7E 		.ascii	"\344\207~~\233\356\264]\302\030\332\351\316\257]\224"
 212      9BEEB45D 
 212      C218DAE9 
 212      CEAF5D94 
 213 0299 425B7D0E 		.ascii	"B[}\016\307\\\232=!'\335B\356_\372\211a\357\276\365"
 213      C75C9A3D 
 213      2127DD42 
 213      EE5FFA89 
 213      61EFBEF5 
 214 02ad EE9D2D5D 		.ascii	"\356\235-]B\357\010z\207D\2759\253\177\224\276\247\310"
 214      42EF087A 
 214      8744BD39 
 214      AB7F94BE 
 214      A7C8
 215 02bf 4D98795B 		.ascii	"M\230y[\205\204\372\376\223\376\202\213#\344Hy\013E"
 215      8584FAFE 
 215      93FE828B 
 215      23E44879 
 215      0B45
 216 02d1 8DB8390A 		.ascii	"\215\2709\012Q\224\267P\324\250\033U\374\373\360\300"
 216      5194B750 
 216      D4A81B55 
 216      FCFBF0C0 
 217 02e1 EEA1B318 		.ascii	"\356\241\263\030v\001\036\214\261\016z?\024\330\212"
 217      76011E8C 
 217      B10E7A3F 
 217      14D88A
 218 02f0 4540DDEA 		.ascii	"E@\335\3528\363\014k\305\213\014h0$\266bDh\305\210\277"
 218      38F30C6B 
 218      C58B0C68 
 218      3024B662 
 218      4468C588 
 219 0305 BD225177 		.ascii	"\275\"Qw\301_\255\263t\347\223\330\263\3227\212\013"
 219      C15FADB3 
 219      74E793D8 
 219      B3D2378A 
 219      0B
 220 0316 EF3040F4 		.ascii	"\3570@\364L\223T<\301\024\177\021\362\017\200\207{\202"
 220      4C93543C 
 220      C1147F11 
 220      F20F8087 
 220      7B82
 221 0328 8F118D9F 		.ascii	"\217\021\215\237\230\236\203\011>\010\034~\276\003/"
 221      989E8309 
 221      3E081C7E 
 221      BE032F
 222 0337 F1A8713E 		.ascii	"\361\250q>\026L\014\231\336\304x\341\356\376\316\303"
 222      164C0C99 
 222      DEC478E1 
 222      EEFECEC3 
 223 0347 138FBA0B 		.ascii	"\023\217\272\013G\230\373\256\261\3319N\225\343\027"
 223      4798FBAE 
 223      B1D9394E 
ARM GAS  /var/folders/c6/c789hm653lg9vtl73krp73tm0000gn/T//ccYJu1mY.s 			page 17


 223      95E317
 224 0356 E1389766 		.ascii	"\3418\227f\315\374}\001\346R\316L_\320\271\233\371\375"
 224      CDFC7D01 
 224      E652CE4C 
 224      5FD0B99B 
 224      F9FD
 225 0368 5D9343B8 		.ascii	"]\223C\270\343u2\302\006\241\247\314\376d\220\320o\241"
 225      E37532C2 
 225      06A1A7CC 
 225      FE6490D0 
 225      6FA1
 226 037a C0B7ADF0 		.ascii	"\300\267\255\360MpY\374&\370a\346)\000$g\272o\227\302"
 226      4D7059FC 
 226      26F861E6 
 226      29002467 
 226      BA6F97C2 
 227 038e 59F906B1 		.ascii	"Y\371\006\261\254m\017:\014\373\302\3050\\\025\031~"
 227      AC6D0F3A 
 227      0CFBC2C5 
 227      305C1519 
 227      7E
 228 039f 0C64E8FC 		.ascii	"\014d\350\3745\267\013\277u\242\215\320#q[w\256=\\\374"
 228      35B70BBF 
 228      75A28DD0 
 228      23715B77 
 228      AE3D5CFC 
 229 03b3 37D24FFE 		.ascii	"7\322O\376o\017{p\204\217\200\257}b\231\247\204&\303"
 229      6F0F7B70 
 229      848F80AF 
 229      7D6299A7 
 229      8426C3
 230 03c6 7C1BF941 		.ascii	"|\033\371A;1\034o\237\236\273?X\304d\301\243v\314s\324"
 230      3B311C6F 
 230      9F9EBB3F 
 230      58C464C1 
 230      A376CC73 
 231 03db 12F2D7F6 		.ascii	"\022\362\327\366\365\013\247s\236\024s\316\007\346\274"
 231      F50BA773 
 231      9E1473CE 
 231      07E6BC
 232 03ea BFEB7AE0 		.ascii	"\277\353z\340\326\375YTa\257\211$\327\013l\335\305\310"
 232      D6FD5954 
 232      61AF8924 
 232      D70B6CDD 
 232      C5C8
 233 03fc 8CADFBA7 		.ascii	"\214\255\373\247(\206\033\"\303\357~\006\264\250\242"
 233      28861B22 
 233      C3EF7E06 
 233      B4A8A2
 234 040b 42B67F9A 		.ascii	"B\266\177\232\0149c\312FF\223\265D\243\336\2505e\364"
 234      0C3963CA 
 234      464693B5 
 234      44A3DEA8 
 234      3565F4
 235 041e 0A0DCD51 		.ascii	"\012\015\315Q\350BI\246\223f\351\352\027\352\027\327"
 235      E84249A6 
 235      9366E9EA 
ARM GAS  /var/folders/c6/c789hm653lg9vtl73krp73tm0000gn/T//ccYJu1mY.s 			page 18


 235      17EA17D7 
 236 042e A017E5AC 		.ascii	"\240\027\345\254\221\221SM\232\232\222k\364TJ\315\310"
 236      9191534D 
 236      9A9A926B 
 236      F4544ACD 
 236      C8
 237 043f AF685AB9 		.ascii	"\257hZ\271\232i,O7\245\365r]\335\224\224\227U>\261\274"
 237      9A692C4F 
 237      37A5F572 
 237      5DDD9494 
 237      97553EB1 
 238 0454 B2AAF229 		.ascii	"\262\252\362)9\225\334D\037\313\376\307\313+\252*\226"
 238      3995DC44 
 238      1FCBFEC7 
 238      CB2BAA2A 
 238      96
 239 0465 CBC9B496 		.ascii	"\313\311\264\226\3126\350\262a64\350/W$P\251\221|MW"
 239      CA36E8B2 
 239      613634E8 
 239      2F572450 
 239      A9917C4D 
 240 047a CC9896A8 		.ascii	"\314\230\226\250\001\322U) \011\323[q\317\215\332\371"
 240      01D25529 
 240      2009D35B 
 240      71CF8DDA 
 240      F9
 241 048b F63FAB75 		.ascii	"\366?\253u\263\316T\315\254\261q\355\254\004\371o{$"
 241      B3CE54CD 
 241      ACB171ED 
 241      AC04F96F 
 241      7B24
 242 049d 24D32648 		.ascii	"$\323&H\210d\341o\225b\276\364?\2006\252Z\"\231\326"
 242      8864E16F 
 242      9562BEF4 
 242      3F8036AA 
 242      5A2299D6 
 243 04b1 6505B253 		.ascii	"e\005\262S\263)S1[\232u\003H\242\212\302i\346*JBW\233"
 243      B3295331 
 243      5B9A7503 
 243      48A28AC2 
 243      69E62A4A 
 244 04c8 954DAAA1 		.ascii	"\225M\252\241+J$\255o5\241\366q~WO7(J)\374\206{e4\342"
 244      2B4A24AD 
 244      6F35A1F6 
 244      717E574F 
 244      37284A29 
 245 04e2 C9658A39 		.ascii	"\311e\2129\307\016\246\313\260\226P3\342\016:\354Z\302"
 245      C70EA6CB 
 245      B0965033 
 245      E20E3AEC 
 245      5AC2
 246 04f4 6861645A 		.ascii	"hadZ\242\256\305X\333\244m~T\360ln\312\230\206\274j"
 246      A2AEC558 
 246      DBA46D7E 
 246      54F06C6E 
 246      CA9886BC 
 247 0509 C3BA9A75 		.ascii	"\303\272\232u[\301\235m\364\226\247\033i\014}\244@\366"
ARM GAS  /var/folders/c6/c789hm653lg9vtl73krp73tm0000gn/T//ccYJu1mY.s 			page 19


 247      5BC19D6D 
 247      F496A71B 
 247      690C7DA4 
 247      40F6
 248 051b 9B1FF7C6 		.ascii	"\233\037\367\306\200:\271f]]m\235KBc\264\306\347\263"
 248      803AB966 
 248      5D5D6D9D 
 248      4B4263B4 
 248      C6E7B3
 249 052e 690DC220 		.ascii	"i\015\302 \033C7\225gW\325=\267~C\355\\5\365\252\332"
 249      1B433795 
 249      6757D53D 
 249      B77E43ED 
 249      5C35F5AA 
 250 0543 6240EFA4 		.ascii	"b@\357\244\240\012%[\324TV\21711\365i\012\035c$Y\266"
 250      A00A255B 
 250      D454568F 
 250      3131F569 
 250      0A1D6324 
 251 0559 FE17B636 		.ascii	"\376\027\2666)a"
 251      2961
 252              		.text
 253              		.section	.gnu.lto_.symtab.4ed60bb222296535,"",%progbits
 254 0000 5F636F72 		.ascii	"_core_init\000\000\000\000\000\000\000\000\000\000\000"
 254      655F696E 
 254      69740000 
 254      00000000 
 254      00000000 
 255 0015 00A10000 		.ascii	"\000\241\000\000\000chCoreAlloc\000\000\000\000\000"
 255      00636843 
 255      6F726541 
 255      6C6C6F63 
 255      00000000 
 256 002a 00000000 		.ascii	"\000\000\000\000\000\000\000\246\000\000\000chCoreA"
 256      000000A6 
 256      00000063 
 256      68436F72 
 256      6541
 257 003c 6C6C6F63 		.ascii	"llocI\000\000\000\000\000\000\000\000\000\000\000\000"
 257      49000000 
 257      00000000 
 257      00000000 
 257      00
 258 004d B0000000 		.ascii	"\260\000\000\000chCoreGetStatusX\000\000\000\000\000"
 258      6368436F 
 258      72654765 
 258      74537461 
 258      74757358 
 259 0066 00000000 		.ascii	"\000\000\000\000\000\000\000\264\000\000\000__heap_"
 259      000000B4 
 259      0000005F 
 259      5F686561 
 259      705F
 260 0078 62617365 		.ascii	"base__\000\000\002\000\000\000\000\000\000\000\000\000"
 260      5F5F0000 
 260      02000000 
 260      00000000 
ARM GAS  /var/folders/c6/c789hm653lg9vtl73krp73tm0000gn/T//ccYJu1mY.s 			page 20


 260      0000
 261 008a B8000000 		.ascii	"\270\000\000\000__heap_end__\000\000\002\000\000\000"
 261      5F5F6865 
 261      61705F65 
 261      6E645F5F 
 261      00000200 
 262 00a0 00000000 		.ascii	"\000\000\000\000\000\000\304\000\000\000"
 262      0000C400 
 262      0000
 263              		.text
 264              		.section	.gnu.lto_.opts,"",%progbits
 265 0000 272D6D63 		.ascii	"'-mcpu=cortex-m4' '-mno-thumb-interwork' '-mthumb' "
 265      70753D63 
 265      6F727465 
 265      782D6D34 
 265      2720272D 
 266 0033 272D6767 		.ascii	"'-ggdb' '-O2' '-fomit-frame-pointer' '-falign-funct"
 266      64622720 
 266      272D4F32 
 266      2720272D 
 266      666F6D69 
 267 0066 696F6E73 		.ascii	"ions=16' '-ffunction-sections' '-fdata-sections' '-"
 267      3D313627 
 267      20272D66 
 267      66756E63 
 267      74696F6E 
 268 0099 666E6F2D 		.ascii	"fno-common' '-flto'\000"
 268      636F6D6D 
 268      6F6E2720 
 268      272D666C 
 268      746F2700 
 269              		.text
 270              		.cfi_sections	.debug_frame
 271              		.section	.text._core_init,"ax",%progbits
 272              		.align	2
 273              		.p2align 4,,15
 274              		.global	_core_init
 275              		.thumb
 276              		.thumb_func
 277              		.type	_core_init, %function
 278              	_core_init:
 279              	.LFB229:
 280              		.file 1 "../../../os/rt/src/chmemcore.c"
 281              		.loc 1 78 0
 282              		.cfi_startproc
 283              		@ args = 0, pretend = 0, frame = 0
 284              		@ frame_needed = 0, uses_anonymous_args = 0
 285              		@ link register save eliminated.
 286              		.loc 1 84 0
 287 0000 0548     		ldr	r0, .L2
 288              		.loc 1 85 0
 289 0002 064A     		ldr	r2, .L2+4
 290              		.loc 1 84 0
 291 0004 0649     		ldr	r1, .L2+8
 292              		.loc 1 85 0
 293 0006 074B     		ldr	r3, .L2+12
 294              		.loc 1 84 0
ARM GAS  /var/folders/c6/c789hm653lg9vtl73krp73tm0000gn/T//ccYJu1mY.s 			page 21


 295 0008 20F00700 		bic	r0, r0, #7
 296              		.loc 1 85 0
 297 000c 22F00702 		bic	r2, r2, #7
 298              		.loc 1 84 0
 299 0010 0860     		str	r0, [r1]
 300              		.loc 1 85 0
 301 0012 1A60     		str	r2, [r3]
 302 0014 7047     		bx	lr
 303              	.L3:
 304 0016 00BF     		.align	2
 305              	.L2:
 306 0018 07000000 		.word	__heap_base__+7
 307 001c 00000000 		.word	__heap_end__
 308 0020 00000000 		.word	.LANCHOR0
 309 0024 00000000 		.word	.LANCHOR1
 310              		.cfi_endproc
 311              	.LFE229:
 312              		.size	_core_init, .-_core_init
 313 0028 AFF30080 		.section	.text.chCoreAlloc,"ax",%progbits
 313      AFF30080 
 314              		.align	2
 315              		.p2align 4,,15
 316              		.global	chCoreAlloc
 317              		.thumb
 318              		.thumb_func
 319              		.type	chCoreAlloc, %function
 320              	chCoreAlloc:
 321              	.LFB230:
 322              		.loc 1 109 0
 323              		.cfi_startproc
 324              		@ args = 0, pretend = 0, frame = 0
 325              		@ frame_needed = 0, uses_anonymous_args = 0
 326              		@ link register save eliminated.
 327              	.LVL0:
 328              	.LBB26:
 329              	.LBB27:
 330              	.LBB28:
 331              	.LBB29:
 332              		.file 2 "../../../os/ext/CMSIS/include/core_cmFunc.h"
 333              		.loc 2 546 0
 334 0000 2023     		movs	r3, #32
 335              	@ 546 "../../../os/ext/CMSIS/include/core_cmFunc.h" 1
 336 0002 83F31188 		MSR basepri, r3
 337              	@ 0 "" 2
 338              	.LVL1:
 339              		.thumb
 340              	.LBE29:
 341              	.LBE28:
 342              	.LBE27:
 343              	.LBE26:
 344              	.LBB30:
 345              	.LBB31:
 346              		.loc 1 138 0
 347 0006 094A     		ldr	r2, .L7
 348 0008 0949     		ldr	r1, .L7+4
 349 000a 1368     		ldr	r3, [r2]
 350 000c 0968     		ldr	r1, [r1]
ARM GAS  /var/folders/c6/c789hm653lg9vtl73krp73tm0000gn/T//ccYJu1mY.s 			page 22


 351              		.loc 1 136 0
 352 000e 0730     		adds	r0, r0, #7
 353              	.LVL2:
 354 0010 20F00700 		bic	r0, r0, #7
 355              	.LVL3:
 356              		.loc 1 138 0
 357 0014 C91A     		subs	r1, r1, r3
 358 0016 8842     		cmp	r0, r1
 359              	.LVL4:
 360              		.loc 1 143 0
 361 0018 9BBF     		ittet	ls
 362 001a C018     		addls	r0, r0, r3
 363              	.LVL5:
 364 001c 1060     		strls	r0, [r2]
 365              		.loc 1 140 0
 366 001e 0020     		movhi	r0, #0
 367              	.LVL6:
 368              		.loc 1 145 0
 369 0020 1846     		movls	r0, r3
 370              	.LBE31:
 371              	.LBE30:
 372              	.LBB32:
 373              	.LBB33:
 374              	.LBB34:
 375              	.LBB35:
 376              	.LBB36:
 377              		.loc 2 546 0
 378 0022 0023     		movs	r3, #0
 379              	.LVL7:
 380              	@ 546 "../../../os/ext/CMSIS/include/core_cmFunc.h" 1
 381 0024 83F31188 		MSR basepri, r3
 382              	@ 0 "" 2
 383              		.thumb
 384              	.LBE36:
 385              	.LBE35:
 386              	.LBE34:
 387              	.LBE33:
 388              	.LBE32:
 389              		.loc 1 117 0
 390 0028 7047     		bx	lr
 391              	.L8:
 392 002a 00BF     		.align	2
 393              	.L7:
 394 002c 00000000 		.word	.LANCHOR0
 395 0030 00000000 		.word	.LANCHOR1
 396              		.cfi_endproc
 397              	.LFE230:
 398              		.size	chCoreAlloc, .-chCoreAlloc
 399 0034 AFF30080 		.section	.text.chCoreAllocI,"ax",%progbits
 399      AFF30080 
 399      AFF30080 
 400              		.align	2
 401              		.p2align 4,,15
 402              		.global	chCoreAllocI
 403              		.thumb
 404              		.thumb_func
 405              		.type	chCoreAllocI, %function
ARM GAS  /var/folders/c6/c789hm653lg9vtl73krp73tm0000gn/T//ccYJu1mY.s 			page 23


 406              	chCoreAllocI:
 407              	.LFB231:
 408              		.loc 1 131 0
 409              		.cfi_startproc
 410              		@ args = 0, pretend = 0, frame = 0
 411              		@ frame_needed = 0, uses_anonymous_args = 0
 412              		@ link register save eliminated.
 413              	.LVL8:
 414              		.loc 1 138 0
 415 0000 074A     		ldr	r2, .L12
 416 0002 0849     		ldr	r1, .L12+4
 417 0004 1368     		ldr	r3, [r2]
 418 0006 0968     		ldr	r1, [r1]
 419              		.loc 1 136 0
 420 0008 0730     		adds	r0, r0, #7
 421              	.LVL9:
 422 000a 20F00700 		bic	r0, r0, #7
 423              	.LVL10:
 424              		.loc 1 138 0
 425 000e C91A     		subs	r1, r1, r3
 426 0010 8842     		cmp	r0, r1
 427              	.LVL11:
 428              		.loc 1 143 0
 429 0012 9DBF     		ittte	ls
 430 0014 C018     		addls	r0, r0, r3
 431              	.LVL12:
 432 0016 1060     		strls	r0, [r2]
 433              		.loc 1 145 0
 434 0018 1846     		movls	r0, r3
 435              		.loc 1 140 0
 436 001a 0020     		movhi	r0, #0
 437              		.loc 1 146 0
 438 001c 7047     		bx	lr
 439              	.L13:
 440 001e 00BF     		.align	2
 441              	.L12:
 442 0020 00000000 		.word	.LANCHOR0
 443 0024 00000000 		.word	.LANCHOR1
 444              		.cfi_endproc
 445              	.LFE231:
 446              		.size	chCoreAllocI, .-chCoreAllocI
 447 0028 AFF30080 		.section	.text.chCoreGetStatusX,"ax",%progbits
 447      AFF30080 
 448              		.align	2
 449              		.p2align 4,,15
 450              		.global	chCoreGetStatusX
 451              		.thumb
 452              		.thumb_func
 453              		.type	chCoreGetStatusX, %function
 454              	chCoreGetStatusX:
 455              	.LFB232:
 456              		.loc 1 155 0
 457              		.cfi_startproc
 458              		@ args = 0, pretend = 0, frame = 0
 459              		@ frame_needed = 0, uses_anonymous_args = 0
 460              		@ link register save eliminated.
 461              		.loc 1 158 0
ARM GAS  /var/folders/c6/c789hm653lg9vtl73krp73tm0000gn/T//ccYJu1mY.s 			page 24


 462 0000 024A     		ldr	r2, .L15
 463 0002 034B     		ldr	r3, .L15+4
 464 0004 1068     		ldr	r0, [r2]
 465 0006 1B68     		ldr	r3, [r3]
 466              		.loc 1 160 0
 467 0008 C01A     		subs	r0, r0, r3
 468 000a 7047     		bx	lr
 469              	.L16:
 470              		.align	2
 471              	.L15:
 472 000c 00000000 		.word	.LANCHOR1
 473 0010 00000000 		.word	.LANCHOR0
 474              		.cfi_endproc
 475              	.LFE232:
 476              		.size	chCoreGetStatusX, .-chCoreGetStatusX
 477 0014 AFF30080 		.section	.bss.endmem,"aw",%nobits
 477      AFF30080 
 477      AFF30080 
 478              		.align	2
 479              		.set	.LANCHOR1,. + 0
 480              		.type	endmem, %object
 481              		.size	endmem, 4
 482              	endmem:
 483 0000 00000000 		.space	4
 484              		.section	.bss.nextmem,"aw",%nobits
 485              		.align	2
 486              		.set	.LANCHOR0,. + 0
 487              		.type	nextmem, %object
 488              		.size	nextmem, 4
 489              	nextmem:
 490 0000 00000000 		.space	4
 491              		.text
 492              	.Letext0:
 493              		.file 3 "/usr/local/Cellar/gcc-arm-none-eabi/20140805/lib/gcc/arm-none-eabi/4.8.4/include/stddef.h
 494              		.file 4 "/usr/local/Cellar/gcc-arm-none-eabi/20140805/arm-none-eabi/include/machine/_default_types
 495              		.file 5 "/usr/local/Cellar/gcc-arm-none-eabi/20140805/arm-none-eabi/include/stdint.h"
 496              		.file 6 "../../../os/rt/ports/ARMCMx/compilers/GCC/chtypes.h"
 497              		.file 7 "../../../os/rt/include/chsystypes.h"
 498              		.file 8 "../../../os/rt/include/chschd.h"
 499              		.file 9 "../../../os/rt/ports/ARMCMx/chcore.h"
 500              		.file 10 "../../../os/rt/ports/ARMCMx/chcore_v7m.h"
 501              		.file 11 "../../../os/rt/include/chtm.h"
 502              		.file 12 "../../../os/rt/include/chsem.h"
 503              		.file 13 "../../../os/rt/include/chmtx.h"
 504              		.file 14 "../../../os/rt/include/chsys.h"
 505              		.file 15 "../../../os/ext/CMSIS/include/core_cm4.h"