ARM GAS  /var/folders/c6/c789hm653lg9vtl73krp73tm0000gn/T//cciZXqwa.s 			page 1


   1              		.syntax unified
   2              		.cpu cortex-m4
   3              		.fpu softvfp
   4              		.eabi_attribute 20, 1
   5              		.eabi_attribute 21, 1
   6              		.eabi_attribute 23, 3
   7              		.eabi_attribute 24, 1
   8              		.eabi_attribute 25, 1
   9              		.eabi_attribute 26, 1
  10              		.eabi_attribute 30, 2
  11              		.eabi_attribute 34, 1
  12              		.eabi_attribute 18, 4
  13              		.thumb
  14              		.file	"chmsg.c"
  15              		.text
  16              	.Ltext0:
  17              		.section	.gnu.lto_.jmpfuncs.ca6c227b430c66ec,"",%progbits
  18 0000 789C6362 		.ascii	"x\234cb`b\300\0064\24143\0033#S\004c&#\003\017\003\003"
  18      6062C006 
  18      34A13433 
  18      03332353 
  18      04632623 
  19 0018 23035035 		.ascii	"#\003P5\224\313\007\224cf\002)``,\003*\004\0009\234"
  19      94CB0794 
  19      63660229 
  19      60602C03 
  19      2A040039 
  20 002d 025F     		.ascii	"\002_"
  21              		.text
  22              		.section	.gnu.lto_.inline.ca6c227b430c66ec,"",%progbits
  23 0000 789C6362 		.ascii	"x\234cb`b\300\006\342\24043\003\203\250,##\003#\220"
  23      6062C006 
  23      E2A03433 
  23      0383A82C 
  23      23230323 
  24 0015 CD24B9E2 		.ascii	"\315$\271\3420#\003\347\0153\260\026&n\006\240(\230"
  24      302303E7 
  24      0D33B016 
  24      266E06A0 
  24      2898
  25 0027 9CE0C7C4 		.ascii	"\234\340\307\304 \310\017\344H\034\330\315\310\300\266"
  25      20C80FE4 
  25      481CD8CD 
  25      C8C0B6
  26 0036 401E4901 		.ascii	"@\036I\0013\003\207\000P\206e\201<\\\202\231\007(9\301"
  26      33038700 
  26      50866581 
  26      3C5C8299 
  26      072839C1 
  27 004a 6F821F03 		.ascii	"o\202\037\003\000\332\004\0128"
  27      00DA040A 
  27      38
  28              		.text
  29              		.section	.gnu.lto_.pureconst.ca6c227b430c66ec,"",%progbits
  30 0000 789C6362 		.ascii	"x\234cb`b`g\200\000f\006+&+f+\000\002\361\000\302"
  30      60626067 
  30      80006606 
ARM GAS  /var/folders/c6/c789hm653lg9vtl73krp73tm0000gn/T//cciZXqwa.s 			page 2


  30      2B262B66 
  30      2B0002F1 
  31              		.text
  32              		.section	.gnu.lto_chMsgSend.ca6c227b430c66ec,"",%progbits
  33 0000 789C8D54 		.ascii	"x\234\215T]h\024W\024>g\356lf\222\315\232\325\026\212"
  33      5D681457 
  33      143E67EE 
  33      6C6692CD 
  33      9AD5168A 
  34 0014 7F711104 		.ascii	"\177q\021\004k\342n\333\027[\004Q\004A0/\306P}\222\361"
  34      6BE26EDB 
  34      175B0451 
  34      0441302F 
  34      C6507D92 
  35 0029 6649065C 		.ascii	"fI\006\\\263\331\335\210\326\207\314\306\024Z0\255\010"
  35      B3D9DD88 
  35      D687CCC6 
  35      145A30AD 
  35      08
  36 003a 425444C5 		.ascii	"BTD\305\027\177\300H\244(\370\223\005%t\033L\252\276"
  36      177FC048 
  36      A428F893 
  36      0525741B 
  36      4CAABE
  37 004d 4808BAE4 		.ascii	"H\010\272\344\301\277B\023\361ESa{\356\2753\263\331"
  37      C1BF4213 
  37      F1455361 
  37      7BEEBD33 
  37      B3D9
  38 005f D5186777 		.ascii	"\325\030gw\346\2369s\317w\276{\316\275\237\006\032T"
  38      E69E3973 
  38      CF77BE7B 
  38      CEBD9F06 
  38      1A54
  39 0071 5EDFD1FD 		.ascii	"^\337\321\375\250\012`\222F\014\000jGG\001\262\246\246"
  39      A80A6092 
  39      460C006A 
  39      474701B2 
  39      A6A6
  40 0083 B1E13A70 		.ascii	"\261\341:pj\364\2776\200S\313PWn\035Q\030\200\320\255"
  40      6AF4BF36 
  40      8053CB50 
  40      576E1D51 
  40      1880D0AD 
  41 0097 311DBB77 		.ascii	"1\035\273w\241\300\300\225p\316q\216\025~\376\367\005"
  41      A1C0C095 
  41      70CE718E 
  41      157EFEF7 
  41      05
  42 00a8 9E7072BD 		.ascii	"\236pr\275g\235\367\305\"\242\215\224\257\036\201#\354"
  42      679DF7C5 
  42      22A28D94 
  42      AF1E8123 
  42      EC
  43 00b9 A4178CC8 		.ascii	"\244\027\214\310A\323\313\011\014h\271B\261\370\376"
  43      41D3CB09 
  43      0C68B942 
ARM GAS  /var/folders/c6/c789hm653lg9vtl73krp73tm0000gn/T//cciZXqwa.s 			page 3


  43      B1F8FE
  44 00c8 8F17938F 		.ascii	"\217\027\223\217q\341W\014,<Gx\001L \030\364@\023ld"
  44      71E1570C 
  44      2C3C4778 
  44      014C2018 
  44      F440136C 
  45 00dd 417AE80B 		.ascii	"Az\350\013\200|a\262DX\000z\035\347hD\315N -\214K\377"
  45      807C61B2 
  45      4458007A 
  45      1DE76844 
  45      CD4E202D 
  46 00f4 0E7A0A8A 		.ascii	"\016z\012\212-\344\242\221\335\207\236\361~\342e\341"
  46      2DE4A291 
  46      DD879EF1 
  46      7EE265E1 
  47 0104 795A5E1B 		.ascii	"yZ^\033\262\006\270\344\320\365#\3014\300\032\033\003"
  47      B206B8E4 
  47      D0F523C1 
  47      34C01A1B 
  47      03
  48 0115 A7E064D6 		.ascii	"\247\340d\326q\3026V\035\202\031\347\027a\031\011d\204"
  48      71C23656 
  48      1D8219E7 
  48      17611909 
  48      6484
  49 0127 25E81A92 		.ascii	"%\350\032\222\344\036\004wt\015\310COn\271\002U\034"
  49      E41E0477 
  49      740DC843 
  49      4F6EB902 
  49      551C
  50 0139 DA440879 		.ascii	"\332D\010yM\000\267\034\307__o,+\207\251\301\266\371"
  50      4D00B71C 
  50      C75F5F6F 
  50      2C2B87A9 
  50      C1B6F9
  51 014c CA217C66 		.ascii	"\312!|f\204\214Q\350y}\351\356\340\021\346\256\324["
  51      848C51E8 
  51      797DE9EE 
  51      E011E6AE 
  51      D45B
  52 015e 72EEF2CC 		.ascii	"r\356\362\314TX\263\360\002\345\364}\305\337o\005\227"
  52      5458B3F0 
  52      02E5F47D 
  52      C5DF6F05 
  52      97
  53 016f F96FBF3E 		.ascii	"\371o\277>!\226\212\033G\221P\243\233\311N\321\357\014"
  53      21968A1B 
  53      479150A3 
  53      9BC94ED1 
  53      EF0C
  54 0181 99542EA6 		.ascii	"\231T.\2466C=\\\305\323N\377F\033\253\313\322\227\276"
  54      36433D5C 
  54      C5D34EFF 
  54      461BABCB 
  54      D297BE
  55 0194 5F73BFD7 		.ascii	"_s\277\327(\202T\320\221\033S\323nA\335j\206l\014R\035"
  55      288254D0 
ARM GAS  /var/folders/c6/c789hm653lg9vtl73krp73tm0000gn/T//cciZXqwa.s 			page 4


  55      911B53D3 
  55      6E41DD6A 
  55      866C0C52 
  56 01a9 29B896EA 		.ascii	")\270\226\352 @\274z\251\035\327FSE\344\314\341\377"
  56      2040BC7A 
  56      A91DD746 
  56      5345E4CC 
  56      E1FF
  57 01bb FAD67AAD 		.ascii	"\372\326z\2550\017\301O\266\337\220N\033C>\2041\033"
  57      300FC14F 
  57      B6DF904E 
  57      1B433E84 
  57      311B
  58 01cd 8295AA43 		.ascii	"\202\225\252C\020\371\351\232\262\324\353l\\PbQ\367"
  58      10F9E99A 
  58      B2D4EB6C 
  58      5C506251 
  58      F7
  59 01de 7116BA3B 		.ascii	"q\026\272;\006\\6\246lUa\210+(\325\260\334\323\341\021"
  59      065C36A6 
  59      6C556188 
  59      2B28D5B0 
  59      DCD3E111 
  60 01f2 748E39D9 		.ascii	"t\2169\331\351b\261Nn\336\2338_\273\274\256\177\032"
  60      E962B14E 
  60      6EDE9B38 
  60      5FBBBCAE 
  60      7F1A
  61 0204 8A6970E7 		.ascii	"\212ip\3473\240LU\335\211\311\374\345\273Fe\333G\236"
  61      33A04C55 
  61      DD89C9FC 
  61      E5BB4665 
  61      DB479E
  62 0217 7E6BE16D 		.ascii	"~k\341mj\272\2057e\353\275\006K\030U\201\302\361\321"
  62      6ABA8537 
  62      65EBBD06 
  62      4B185581 
  62      C2F1D1
  63 022a 892501A2 		.ascii	"\211%\001\242\356\357\351\312BT\211\270\234\250\203"
  63      EEEFE9CA 
  63      425489B8 
  63      9CA883
  64 0239 976EFCF1 		.ascii	"\227n\374\361\225\276\006\013\207dK\302\362H\224\302"
  64      95BE060B 
  64      87644BC2 
  64      F24894C2 
  65 0249 436E2BD8 		.ascii	"Cn+\330j\025n\370\341\252\027\177\033*\322m@\360S\251"
  65      6A156EF8 
  65      E1AA177F 
  65      1B2AD26D 
  65      40F053A9 
  66 025d CD59A9C3 		.ascii	"\315Y\251\303j\245o\257\364E\313\000\326W\000\204\347"
  66      6AA56FAF 
  66      F445CB00 
  66      D6570084 
  66      E7
  67 026e E2CE1440 		.ascii	"\342\316\024@\377@\337\2122\200\320\347\261\367\000"
ARM GAS  /var/folders/c6/c789hm653lg9vtl73krp73tm0000gn/T//cciZXqwa.s 			page 5


  67      FF40DF8A 
  67      3280D0E7 
  67      B1F700
  68 027d C627CEFE 		.ascii	"\306'\316\376\266\330\333\217A\271\370\360\3077a\265"
  68      B6D8DB8F 
  68      41B9F8F0 
  68      C73761B5 
  69 028d DBA53FE1 		.ascii	"\333\245?\341\336\363l\310\017\021SH\230JW\013!\017"
  69      DEF36CC8 
  69      0F115348 
  69      984A570B 
  69      210F
  70 029f D7B131E8 		.ascii	"\327\2611\350-\344\317\273\207\004\300W\226\205\334"
  70      2DE4CFBB 
  70      8704C057 
  70      9685DC
  71 02ae DF83868D 		.ascii	"\337\203\206\215\213\274\030]j\225\010\0329\\\363A\320"
  71      8BBC185D 
  71      6A95081A 
  71      395CF341 
  71      D0
  72 02bf 175CACDD 		.ascii	"\027\\\254\335=\235z-)\340\227\212}\377\233\357=&\336"
  72      3D9D7A2D 
  72      29E0978A 
  72      7DFF9BEF 
  72      3D26DE
  73 02d2 1968B6C5 		.ascii	"\031h\266\305:\244\371\303\274\307\301=\322R\314\014"
  73      3AA4F9C3 
  73      BCC7C13D 
  73      D252CC0C 
  74 02e2 8544124B 		.ascii	"\205D\022K`\225J\366\362V\205\222YxQ\252\312\274R&\214"
  74      60954AF6 
  74      F2568592 
  74      597851AA 
  74      CABC5226 
  75 02f7 B9A5ECD5 		.ascii	"\271\245\354\325;!e\017\313\245\354\237`\275\257\357"
  75      3B21650F 
  75      CBA5EC9F 
  75      60BDAFEF 
  76 0307 BE3BFF6C 		.ascii	"\276;\377l\226\246IQ\346\004\376\241\254Y8@\206\237"
  76      96A64951 
  76      E604FEA1 
  76      AC593840 
  76      869F
  77 0319 DA93310B 		.ascii	"\332\2231\013\007\261^\321z\000\331\302\030\367\353"
  77      07B15ED1 
  77      7A00D9C2 
  77      18F7EB
  78 0328 A69C3BE8 		.ascii	"\246\234;\350xR\013\304\334\245\321hL\375;\322\261T"
  78      78520BC4 
  78      DCA5D168 
  78      4CFD3BD2 
  78      B154
  79 033a 26964EF1 		.ascii	"&\226N\361\030oO\244\333\242\034\030\317$\277\256\370"
  79      186F4FA4 
  79      DBA21C18 
  79      CF24BFAE 
ARM GAS  /var/folders/c6/c789hm653lg9vtl73krp73tm0000gn/T//cciZXqwa.s 			page 6


  79      F8
  80 034b 9EEC4865 		.ascii	"\236\354He\322\261M\333\23367\035\240\211\274#\025\337"
  80      D2B14DDB 
  80      9B36371D 
  80      A089BC23 
  80      15DF
  81 035d BD7F5D22 		.ascii	"\275\177]\"\332\016\201\375\326\336\256x\343\354\371"
  81      DA0E81FD 
  81      D6DEAE78 
  81      E3ECF9
  82 036c F10399D8 		.ascii	"\361\003\231\330\346\246\346\255\3151{\037\337\333\325"
  82      E6A6E6AD 
  82      CD317B1F 
  82      DFDBD5
  83 037b 1A8FC9F9 		.ascii	"\032\217\311\371<\261\245k\037\247\220\025\025\340\376"
  83      3CB1A56B 
  83      1FA79015 
  83      15E0FE
  84 038a ACF6F4C1 		.ascii	"\254\366\364\3014}\01775o\217\354\261\322\361d\312n"
  84      347D0F37 
  84      356F8FEC 
  84      B1D2F164 
  84      CA6E
  85 039c 8CACFA06 		.ascii	"\214\254\372\006\264\024\030\211x\242#u\020\264L\222"
  85      B4141889 
  85      78A22375 
  85      10B44C92 
  86 03ac 653A9391 		.ascii	"e:\223\221\271!x{+a\374\017t\247\326\025"
  86      B921787B 
  86      2B61FC0F 
  86      74A7D615 
  87              		.text
  88              		.section	.gnu.lto_chMsgWait.ca6c227b430c66ec,"",%progbits
  89 0000 789C9D55 		.ascii	"x\234\235U]h\023Y\024>\347\316$\3236I-\356\213?k\015"
  89      5D681359 
  89      143EE7CE 
  89      24D33649 
  89      2DEE8B3F 
  90 0016 82A0B6DB 		.ascii	"\202\240\266\333\021|\220}\020\024A\220\245/Vq}Z\246"
  90      117C907D 
  90      10144190 
  90      A52F5671 
  90      7D5AA6
  91 0029 636802C6 		.ascii	"ch\002\306\326$\025\177@ok\005\301V\253\276Te\027\177"
  91      D624157F 
  91      406F6B05 
  91      C156ABBE 
  91      5465177F 
  92 003d 91555921 		.ascii	"\221UY!*\212\210\215X\324R\326eY\004\225}\210\260\254"
  92      2A8A888D 
  92      58D452D6 
  92      65590495 
  92      7D88B0AC 
  93 0051 7F0B1AB5 		.ascii	"\177\013\032\265P\253m\366\334{g&?h[\274If\316\334{"
  93      50AB6DF6 
  93      DC7B6726 
  93      3F685BBC 
ARM GAS  /var/folders/c6/c789hm653lg9vtl73krp73tm0000gn/T//cciZXqwa.s 			page 7


  93      4966CEDC 
  94 0066 CF77CEF9 		.ascii	"\317w\316\371\3567'\014\030\224\217%\364{\357\007\030"
  94      EE37270C 
  94      18948F25 
  94      F47BEF07 
  94      18
  95 0077 A73BFA00 		.ascii	"\247;\372\000Y\357\003\200\216\012\306\264a\003x\225"
  95      59EF0380 
  95      8E0AC6B4 
  95      61037895 
  96 0087 7EFC2E00 		.ascii	"~\374.\000\017j\250\253y\035Q\030\200\260\233i:\356"
  96      0F6AA8AB 
  96      791D5118 
  96      80B09B69 
  96      3AEE
  97 0099 DE800204 		.ascii	"\336\200\002\004\347\301I\316\017g\317\216?\307\243"
  97      E7C149CE 
  97      0F67CF8E 
  97      3FC7A3
  98 00a8 3CD37582 		.ascii	"<\323u\202\177\312\347\021cH\001k\021l\204\037\351\001"
  98      7FCAE711 
  98      6348016B 
  98      116C841F 
  98      E901
  99 00ba C3F2C6F4 		.ascii	"\303\362\306\364\322\014.\261L6\237\357\356\377\357"
  99      D20C2EB1 
  99      4C369FEF 
  99      EEFFEF
 100 00c9 69374EFF 		.ascii	"i7N\377F\007\362\362\213\213A\027- \254\240\260B`\341"
 100      4607F2F2 
 100      8B8B4117 
 100      2D20ACA0 
 100      B04260E1 
 101 00dd 490A542D 		.ascii	"I\012T-fh\370\240\213\363\336\260\232\004\021\203\306"
 101      6668F8A0 
 101      8BF3DEB0 
 101      9A041183 
 101      C6
 102 00ee 5ABA8AFC 		.ascii	"Z\272\212\374\326!\023wm\020:+\000\234\354\216\344\256"
 102      D6211377 
 102      6D103A2B 
 102      009CEC8E 
 102      E4AE
 103 0100 D59764A7 		.ascii	"\325\227d\2473\370a\262\354\304\234\036&\343\001t\346"
 103      33F861B2 
 103      ECC49C1E 
 103      26E30174 
 103      E6
 104 0111 7EBD93EE 		.ascii	"~\275\223\356\326\234\300n\006\231s\243\257k\230\205"
 104      D69CC06E 
 104      069973A3 
 104      AF6B9885 
 105 0121 67641ACE 		.ascii	"gd\032\316\334\307\2037\003\337zO\203c\224\226\205\247"
 105      DCC78337 
 105      03DF7A4F 
 105      83639496 
 105      85A7
ARM GAS  /var/folders/c6/c789hm653lg9vtl73krp73tm0000gn/T//cciZXqwa.s 			page 8


 106 0133 895F1B45 		.ascii	"\211_\033E@F?M\022G\237_\310\244s\321\324\341\324\302"
 106      40463F4D 
 106      12479F5F 
 106      C8A473D1 
 106      D4E1D4C2 
 107 0147 25FC99F7 		.ascii	"%\374\231\367-\217\321\346\342\360\205\365\264\263\356"
 107      2D8FD1E6 
 107      E2F085F5 
 107      B4B3EE
 108 0156 5709FE0E 		.ascii	"W\011\376\016\235O\372\362#L\341\267\240^\007\213\210"
 108      9D4FFAF2 
 108      234CE1B7 
 108      A05E078B 
 108      88
 109 0167 A13A38CF 		.ascii	"\241:8\317il\211\241q\034\216up^\023\303\212\2350\312"
 109      696C89A1 
 109      711C8E75 
 109      705E13C3 
 109      8A9D30CA 
 110 017b F709AB32 		.ascii	"\367\011\2532\216.z\245DiFp\356\216\001D]\306T\240\212"
 110      8E2E7AA5 
 110      44694670 
 110      EE8E0144 
 110      5DC654A0 
 111 0190 BF4CEE5E 		.ascii	"\277L\356^\317L~\242\263\227\217\023}\024\302\302S\262"
 111      CF4C7EA2 
 111      B3978F13 
 111      7D14C2C2 
 111      53B2
 112 01a2 9289E8A3 		.ascii	"\222\211\350\243|T\212\177\337z|lW9u\373\307s>\013/"
 112      7C548A7F 
 112      DF7A7C6C 
 112      573975FB 
 112      C7733E0B 
 113 01b7 4BE65C7E 		.ascii	"K\346\\~t\345\026P\005d\207\207\036\346P+\024\264>\206"
 113      74E51650 
 113      05648787 
 113      1EE6502B 
 113      14B43E86 
 114 01cb 555E4101 		.ascii	"U^A\001\202\027Q\335\334\231\200\271*\230k\026\374:"
 114      821751DD 
 114      DC9980B9 
 114      2A986B16 
 114      FC3A
 115 01dd B64C6074 		.ascii	"\266L`t\317\015\315\302+\222\242\340N\330A\212r\020"
 115      CF0DCDC2 
 115      2B92A2E0 
 115      4ED8418A 
 115      7210
 116 01ef DFE1D420 		.ascii	"\337\341\324 =\264\3730\360\354\351\336\374b\227qr\011"
 116      3DB4FB30 
 116      F0ECE9DE 
 116      FC629771 
 116      7209
 117 0201 162A5E47 		.ascii	"\026*^G\221\207\015\355\017\350\312\216\335\251R{\000"
 117      91870DED 
 117      0FE8CA8E 
ARM GAS  /var/folders/c6/c789hm653lg9vtl73krp73tm0000gn/T//cciZXqwa.s 			page 9


 117      DDA9527B 
 117      00
 118 0212 3CE683B6 		.ascii	"<\346\203\266\002\221l\205\204\230\253]?]JV\2205\222"
 118      02916C85 
 118      8498AB5D 
 118      3F5D4A56 
 118      903592
 119 0225 7FA4B9E8 		.ascii	"\177\244\271\350~\367<\027}\365Q\312\362\377E\027\321"
 119      7EF73C17 
 119      7DF551CA 
 119      F2FF4517 
 119      D1
 120 0236 2829FF90 		.ascii	"()\377\220S>\312\332\375e\265\273C\250\341\373\211\324"
 120      533ECADA 
 120      FD65B5BB 
 120      43A8E1FB 
 120      89D4
 121 0248 A0317882 		.ascii	"\2401x\202\223\275L\024\333Q\303\353\333\027O\033\216"
 121      93BD4C14 
 121      DB51C3EB 
 121      DB174F1B 
 121      8E
 122 0259 1C14204F 		.ascii	"\034\024 Os^)_Mm\212\332\362d4\224\267,\034(Q\221_\205"
 122      735E295F 
 122      4D6D8ADA 
 122      F2643494 
 122      B72C1C28 
 123 0271 0B392A1A 		.ascii	"\0139*\032;\360\317\254\357\010\326\343\257\312)U[\240"
 123      3BF0CFAC 
 123      EF08D6E3 
 123      AFCA2955 
 123      5BA0
 124 0283 4A956AB9 		.ascii	"J\225j\271\257\216F\324:\307\302\273\364d\341=\202%"
 124      AF8E46D4 
 124      3AC7C2BB 
 124      F464E13D 
 124      8225
 125 0295 1C95F6A3 		.ascii	"\034\225\366\243tO\235Zh\301ju.\305\302\011\025\223"
 125      744F9D5A 
 125      68C16A75 
 125      2EC5C209 
 125      1593
 126 02a7 A7172192 		.ascii	"\247\027!\222\357\340\033Cy:\264\207\246\226M\213\220"
 126      EFE01B43 
 126      793AB487 
 126      A6964D8B 
 126      90
 127 02b8 07B90F8D 		.ascii	"\007\271\017\215\244{\314\022\200ee\301\253\213\203"
 127      A47BCC12 
 127      806565C1 
 127      AB8B83
 128 02c7 FB8A000C 		.ascii	"\373\212\000\014Y\321\233\267\3753\0249n\307\224\270"
 128      59D19BB7 
 128      FD331439 
 128      6EC794B8 
 129 02d7 D7FB4E7D 		.ascii	"\327\373N}p\204\341\340\006b8\315\223CIE\376\202nC\212"
 129      7084E1E0 
ARM GAS  /var/folders/c6/c789hm653lg9vtl73krp73tm0000gn/T//cciZXqwa.s 			page 10


 129      066238CD 
 129      93434945 
 129      FE826E43 
 130 02ec A6A2DEFA 		.ascii	"\246\242\336\372\342fYo\265\360\354\244'(\273\2330\276"
 130      E266596F 
 130      B5F0ECA4 
 130      2728BB9B 
 130      30BE
 131 02fe DC5C5F7E 		.ascii	"\334\\_~\020\315\365\257\322\346\372*P\353\375\001\024"
 131      10CDF5AF 
 131      D2E6FA2A 
 131      50EBFD01 
 131      14
 132 030f BAEC002B 		.ascii	"\272\354\000+\234\277!Pm\254\370L\243\265\360\002\031"
 132      9CBF2150 
 132      6DACF84C 
 132      A3B5F002 
 132      19
 133 0320 5E68B7B1 		.ascii	"^h\267\261Z\370\033\326\252\264\376\204\216\354\376"
 133      5AF81BD6 
 133      AAB4FE84 
 133      8EECFE
 134 032f 88FBBA84 		.ascii	"\210\373\272\204\324\344ZR7\275\237b\357\354\206\006"
 134      D4E45A52 
 134      37BD9F62 
 134      EFEC8606 
 135 033f 537D5B93 		.ascii	"S}[\223f\"e&\023\266iG\343\311\226\006\033X\252ma\331"
 135      66226526 
 135      13B66947 
 135      E3C99606 
 135      1B58AA6D 
 136 0355 725B6B22 		.ascii	"r[k\"\2254W\254i\\\331\270\215\366\331\255\211\310O"
 136      953457AC 
 136      695CD9B8 
 136      8DF6D9AD 
 136      89C84F
 137 0368 5B97C61B 		.ascii	"[\227\306\033\242\340\333jmj\217\324\027\357\217lK\231"
 137      A2E0DB6A 
 137      6D6A8FD4 
 137      17EF8F6C 
 137      4B99
 138 037a 2B1B9B56 		.ascii	"+\033\233V7\231\261\315\366\246\366\215\021S\356\267"
 138      3799B1CD 
 138      F6A6F68D 
 138      1153EEB7 
 139 038a E3ABDA37 		.ascii	"\343\253\3327\333\3442\267\014\334\333\025MnO\322zM"
 139      DBE432B7 
 139      0CDCDB15 
 139      4D6E4FD2 
 139      7A4D
 140 039c 63D39A70 		.ascii	"c\323\232p\263\225\214\264%b\365\341\371\213\201%\300"
 140      B3958CB4 
 140      2562F5E1 
 140      F98B8125 
 140      C0
 141 03ad 8847E2AD 		.ascii	"\210G\342\255\211\355\023\370\212\334\243\240\245\266"
 141      89ED13F8 
ARM GAS  /var/folders/c6/c789hm653lg9vtl73krp73tm0000gn/T//cciZXqwa.s 			page 11


 141      8ADCA3A0 
 141      A5B6
 142 03bb B485BF8C 		.ascii	"\264\205\277\214oG7\322\246\377\001\333\232\360\354"
 142      6F4737D2 
 142      A6FF01DB 
 142      9AF0EC
 143              		.text
 144              		.section	.gnu.lto_chMsgRelease.ca6c227b430c66ec,"",%progbits
 145 0000 789C8D52 		.ascii	"x\234\215RAh\023A\024\375\177\246i\242=\230\253(q)\364"
 145      41681341 
 145      14FD7FA6 
 145      69A23D98 
 145      AB287129 
 146 0015 2084AC37 		.ascii	" \204\2547\257J\241\330C.M\005=\311\272.\315B\267\011"
 146      AF4AA1D8 
 146      432E4D05 
 146      3DC9BA2E 
 146      CD42B709 
 147 0029 BB4969F1 		.ascii	"\273Ii\361\320I\250P\253`\350I\021\305\352I\251\011"
 147      D049A850 
 147      AB60E849 
 147      11C5EA49 
 147      A909
 148 003b 04A1203D 		.ascii	"\004\241 =,x*B\265\007{\023r\021\024\205\306\233\255"
 148      2C782A42 
 148      B5077B13 
 148      72111485 
 148      C69BAD
 149 004e D6F5CF6E 		.ascii	"\326\365\317n\262&\213Z\207\335\231?\377\277y\357\317"
 149      B2268B5A 
 149      87DD993F 
 149      FFBF79EF 
 149      CF
 150 005f FFC38041 		.ascii	"\377\303\200At\034\247\237s\200\367\264\"\007d\265-"
 150      741CA79F 
 150      7380F7B4 
 150      220764B5 
 150      2D
 151 0070 804A8221 		.ascii	"\200J\202!J\003\020\026\030.\\F\037\333`n\313\363\352"
 151      4A031016 
 151      182E5C46 
 151      1FDB606E 
 151      CBF3EA
 152 0083 6F97EB5F 		.ascii	"o\227\353_\360\031;\312\321B\030\240IFc\260(DM\261\220"
 152      F0193BCA 
 152      D14218A0 
 152      494663B0 
 152      28444DB1 
 153 0098 24741F3E 		.ascii	"$t\037>I\263\344\270H.Z\371&T\023\000\303\260*\304J"
 153      49B3E4B8 
 153      482E5AF9 
 153      26541300 
 153      C3B02AC4 
 154 00ad EBA0BD9E 		.ascii	"\353\240\275\236\276'\334\305G\342\207\347!\232H\251"
 154      BE27DCC5 
 154      47E287E7 
 154      219A48A9 
ARM GAS  /var/folders/c6/c789hm653lg9vtl73krp73tm0000gn/T//cciZXqwa.s 			page 12


 155 00bd 5D4079F2 		.ascii	"]@y\362\022mP\361\0276\320\237\253\364\201B\306\026"
 155      126D50F1 
 155      1736D09F 
 155      ABF48142 
 155      C616
 156 00cf 54BF3E7C 		.ascii	"T\277>|\325\274\315;\252]y\367\373\336n\222i\370\030"
 156      D5BCCD3B 
 156      AA5D79F7 
 156      FBDE6E92 
 156      69F818
 157 00e2 87C394DC 		.ascii	"\207\303\224\334\335;\033C'\303\335\315w\224\240\206"
 157      DD3B1B43 
 157      27C3DDCD 
 157      7794A086 
 158 00f2 AB182331 		.ascii	"\253\030#1)\310\350\347\340_\025\341>\231\024\347A\241"
 158      29C8E8E7 
 158      E05F15E1 
 158      3E9914E7 
 158      41A1
 159 0104 52B0860F 		.ascii	"R\260\206\017\304\335sf\000\010\345\177\307\033\235"
 159      C4DD7366 
 159      0008E57F 
 159      C71B9D
 160 0113 7827D1DE 		.ascii	"x'\321\336+\272\333\313\257Q\254\210J\333\363\216\231"
 160      2BBADBCB 
 160      AF51AC88 
 160      4ADBF38E 
 160      99
 161 0124 1863B08E 		.ascii	"\030c\260\216\207]pJ\012\365\220\324DS\210#~\215\270"
 161      875D704A 
 161      0AF590D4 
 161      44538823 
 161      7E8DB8
 162 0137 89830C5E 		.ascii	"\211\203\014^\376\007\0059\336\300\215\366\317\017\373"
 162      FE070539 
 162      DEC08DF6 
 162      CF0FFB
 163 0146 DF305A9F 		.ascii	"\3370Z\237[;\325\230\206\015*\217\206\317\375\"uK\321"
 163      5B3BD598 
 163      860D2A8F 
 163      86CFFD22 
 163      754BD1
 164 0159 A1B90EFB 		.ascii	"\241\271\016\373bI$M\214\353H\310&\305\202\274\210\327"
 164      6249244D 
 164      8CEB48C8 
 164      26C582BC 
 164      88D7
 165 016b C444FF15 		.ascii	"\304D\377\025[\007\0377\"]\324\360\211_\321C\333\010"
 165      5B071F37 
 165      225DD4F0 
 165      895FD143 
 165      DB08
 166 017d FF6CE3A7 		.ascii	"\377l\343\247=\331\306\027\375m\374<\224\012\337Y\350"
 166      3DD9C617 
 166      FD6DFC3C 
 166      940ADF59 
 166      E8
ARM GAS  /var/folders/c6/c789hm653lg9vtl73krp73tm0000gn/T//cciZXqwa.s 			page 13


 167 018e DEDCE9E9 		.ascii	"\336\334\351\351\347\240d\3251\376\207\226j\370\224"
 167      E7A064D5 
 167      31FE8796 
 167      6AF894
 168 019d 8C50BADB 		.ascii	"\214P\272\333B\015\3270\025x\266\241\322\252\217\004"
 168      420DD730 
 168      1578B6A1 
 168      D2AA8F04 
 169 01ad 54DD3149 		.ascii	"T\3351I\365\246\267+\241'2\0315\370\012\216j\227T\307"
 169      F5A6B72B 
 169      A1273219 
 169      35F80A8E 
 169      6A9754C7 
 170 01c1 D6553D6F 		.ascii	"\326U=o9S\031\035NGb\305\202]r\324\363\023\331\321\354"
 170      3953191D 
 170      4E4762C5 
 170      825D72D4 
 170      F313D9D1 
 171 01d6 1C81F482 		.ascii	"\034\201\364\202m\\\231=ke\362\020\233\325\246\313F"
 171      6D5C993D 
 171      6B65F210 
 171      9BD5A6CB 
 171      46
 172 01e7 BA176FCC 		.ascii	"\272\027o\314\225\324\321ln<\247\2323\372t\371\232\241"
 172      95D4D16C 
 172      6E3CA79A 
 172      33FA74F9 
 172      9AA1
 173 01f9 FA78DD1A 		.ascii	"\372x\335\032+\317\350t\344T\204<D\345\235y\207\342"
 173      2BCFE874 
 173      E454843C 
 173      44E59D79 
 173      87E2
 174 020b C96C6E42 		.ascii	"\311lnB\271\2529F\3216\323\312\310\031`6\304-\303*\330"
 174      B9AA3946 
 174      D136D3CA 
 174      C8196036 
 174      C42DC32A 
 175 0220 F3C04A45 		.ascii	"\363\300JEN)\376\235B\346\237\207_C\365\367l"
 175      4E29FE9D 
 175      42E69F87 
 175      5F43F5F7 
 175      6C
 176              		.text
 177              		.section	.gnu.lto_.symbol_nodes.ca6c227b430c66ec,"",%progbits
 178 0000 789C45C8 		.ascii	"x\234E\310\273\011\200@\020\204\341\231\335;C[\260\324"
 178      BB098040 
 178      1084E199 
 178      DD3B435B 
 178      B0D4
 179 0012 154CC4C8 		.ascii	"\025L\304\310\012L\254\301\032\004\003{\020\361\211"
 179      0A4CACC1 
 179      1A04037B 
 179      10F189
 180 0021 58822828 		.ascii	"X\202((\336D\3777\002\201\341\233L|\272\354\001\263"
 180      DE44FF37 
 180      0281E19B 
ARM GAS  /var/folders/c6/c789hm653lg9vtl73krp73tm0000gn/T//cciZXqwa.s 			page 14


 180      4C7CBAEC 
 180      01B3
 181 0033 2AA75FF9 		.ascii	"*\247_\371\024d\2461\274\262\320$\220;M_\246)\271\321"
 181      1464A631 
 181      BCB2D024 
 181      903B4D5F 
 181      A629B9D1 
 182 0047 5CD049F3 		.ascii	"\\\320I\363\277\024\036Y\327\252\302\241.\216D\305a"
 182      BF141E59 
 182      D7AAC2A1 
 182      2E8E44C5 
 182      61
 183 0058 6C62D508 		.ascii	"lb\325\010\331p\0217\311\011&\033"
 183      D9701137 
 183      C909261B 
 184              		.text
 185              		.section	.gnu.lto_.refs.ca6c227b430c66ec,"",%progbits
 186 0000 789C6362 		.ascii	"x\234cb`b\340f\200\000F bb\002R\214\014\000\001s\000"
 186      6062E066 
 186      80004620 
 186      62620252 
 186      8C0C0001 
 187 0016 18       		.ascii	"\030"
 188              		.text
 189              		.section	.gnu.lto_.decls.ca6c227b430c66ec,"",%progbits
 190 0000 789CBD5B 		.ascii	"x\234\275[{t\024U\232\257\252\356\244\323y\000:\003"
 190      7B741455 
 190      9AAFAAEE 
 190      A4D37900 
 190      3A03
 191 0012 8B8F5DE2 		.ascii	"\213\217]\342\034\3353\353\216$:\250\270gw\320aw\225"
 191      1CDD33EB 
 191      8E243AA8 
 191      B86777D0 
 191      617795
 192 0025 73C6391C 		.ascii	"s\3069\034s<\316\231\2353\275E\247\222\364\320/\253"
 192      733CCE99 
 192      9D33BD45 
 192      A792F4D0 
 192      2FAB
 193 0037 2B04FEB2 		.ascii	"+\004\376\262\022\302CAM\002\004\320@\202\200#\354@"
 193      12C24341 
 193      4D0204D0 
 193      40828023 
 193      EC40
 194 0049 14058431 		.ascii	"\024\005\2041C\213D\021P\3441\201$\030Z$\002\303*\204"
 194      438B4411 
 194      50E43181 
 194      24185A24 
 194      02C32A84 
 195 005d 871201B3 		.ascii	"\207\022\001\263\337\375\352VwUuUwU\320\255\303\275"
 195      DFFDEA56 
 195      77557555 
 195      7755D0AD 
 195      C3BD
 196 006f 75537DBF 		.ascii	"uS}\277\337\375\336\367Q\005\307p\314\3178\206\031\202"
 196      DFFDDEF7 
ARM GAS  /var/folders/c6/c789hm653lg9vtl73krp73tm0000gn/T//cciZXqwa.s 			page 15


 196      5105C770 
 196      CCCF3886 
 196      1982
 197 0081 EBBE7F65 		.ascii	"\353\276\177e\230\333<\014\343f\030\346\027PXZ\310\225"
 197      98DB3C0C 
 197      E36618E6 
 197      1750585A 
 197      C895
 198 0093 0B651594 		.ascii	"\013e\025\224\337\302\203\337C\251\200\362\007(aV\351"
 198      DFC283DF 
 198      43A980F2 
 198      07286156 
 198      E9
 199 00a4 13553BD2 		.ascii	"\023U;\322\213\364\035\015e#\224\021P\012\241t\323\276"
 199      8BF41D0D 
 199      65239411 
 199      500AA174 
 199      D3BE
 200 00b6 33A17A1A 		.ascii	"3\241z\032J\017\224\016\370\273\027\356\237BY\015\355"
 200      4A0F940E 
 200      F8BB17EE 
 200      9F42590D 
 200      ED
 201 00c7 7628B740 		.ascii	"v(\267@{\022\334s\340~\036\356\307\341>\035J\002J%\224"
 201      7B12DC73 
 201      E07E1EEE 
 201      C7E13E1D 
 201      4A024A25 
 202 00dc 02785603 		.ascii	"\002xV\003\367\371P\246@y\024\212\233<\207\262\031~"
 202      F7F950A6 
 202      4079148A 
 202      9B3C87B2 
 202      197E
 203 00ee 2B86FB56 		.ascii	"+\206\373V\270\237\203\342\201\266\227\362\363\031\264"
 203      B89F83E2 
 203      81B697F2 
 203      F319B4
 204 00fd FBA19C86 		.ascii	"\373\241\234\2062@\371'r|\013\345:\253\310\375\024\334"
 204      3240F927 
 204      727C0BE5 
 204      3AABC8FD 
 204      14DC
 205 010f 9F244C72 		.ascii	"\237$Lr\3512\021\331G\231\310\244\225A+\033\221\203"
 205      E93211D9 
 205      4799C8A4 
 205      95412B1B 
 205      9183
 206 0121 C893A072 		.ascii	"\310\223\240rWRy<\032\376\011\357\343(\337*\317^:\226"
 206      5752793C 
 206      1AFE09EF 
 206      E328DF2A 
 206      CF5E3A96 
 207 0135 96DF5C4E 		.ascii	"\226\337\\N\341u$\227\342\327L\357\277\247\362vhxTy"
 207      E1752497 
 207      E2D74CEF 
 207      BFA7F276 
 207      68785479 
ARM GAS  /var/folders/c6/c789hm653lg9vtl73krp73tm0000gn/T//cciZXqwa.s 			page 16


 208 0149 237C131D 		.ascii	"#|\023\035\217\006\014\037\245\313\2434\332\261\306"
 208      8F060C1F 
 208      A5CBA334 
 208      DAB1C6
 209 0158 708A5DD5 		.ascii	"p\212]\325q\\\320\307\017\367r(\267q\372\361\3061+\345"
 209      715CD0C7 
 209      0FF77228 
 209      B771FAF1 
 209      C6312BE5 
 210 016c B644A2FF 		.ascii	"\266D\242\377\354\333\267\310mu\361\241\241I\314\030"
 210      ECDBB7C8 
 210      6D75F1A1 
 210      A149CC18 
 211 017c 66890C57 		.ascii	"f\211\014W\333\\Yf%/3\237\376\361\330n\340\3477,\317"
 211      DB5C5966 
 211      252F339F 
 211      FEF1D86E 
 211      E0E7372C 
 212 0191 8EF032C5 		.ascii	"\216\3602\305\330(\364\242\312\357b\326\310rC\342\372"
 212      D828F4A2 
 212      CAEF62D6 
 212      C87243E2 
 212      FA
 213 01a2 A585FF26 		.ascii	"\245\205\377&\313y<\273\232\365\202\366\313X\346nf\035"
 213      CB793CBB 
 213      9AF582F6 
 213      CB58E66E 
 213      661D
 214 01b4 9036C8F2 		.ascii	"\2206\310\362+\343\015R\342e\037\272\361\203]o\260u"
 214      2BE30D52 
 214      E2651FBA 
 214      F1835D6F 
 214      B075
 215 01c6 C00ECFFE 		.ascii	"\300\016\317\376\021\3017\260,\303\263\257\262w;\206"
 215      11C137B0 
 215      2CC3B3AF 
 215      B2773B86 
 216 01d6 EADDBB75 		.ascii	"\352\335\273u\"r\271\036\201\2328=\020\317\346z\265"
 216      2272B91E 
 216      819A383D 
 216      10CFE67A 
 216      B5
 217 01e7 3CE2DF6A 		.ascii	"<\342\337j\007\202\006\177\222\221\256\220xc\237\241"
 217      0782067F 
 217      9291AE90 
 217      78639FA1 
 218 01f7 4FC81F1E 		.ascii	"O\310\037\036\346\377\235\316LL\002\361\012;\006[.\006"
 218      E6FF9DCE 
 218      4C4C02F1 
 218      0A3B065B 
 218      2E06
 219 0209 8D5DC03C 		.ascii	"\215]\300<'\313uT973\215\004\257X\243\2466\267\012\360"
 219      27CB7554 
 219      3937338D 
 219      04AF58A3 
 219      A636B70A 
 220 021e EF293D0D 		.ascii	"\357)=\015\036\334\361/\250\247v\366f\200y\327\240\247"
ARM GAS  /var/folders/c6/c789hm653lg9vtl73krp73tm0000gn/T//cciZXqwa.s 			page 17


 220      1EDCF12F 
 220      A8A776F6 
 220      668079D7 
 220      A0A7
 221 0230 AC301CB3 		.ascii	"\2540\034\263\007I6\001\271B\210\300r\242\273\271s6"
 221      07493601 
 221      B94288C0 
 221      72A2BBB9 
 221      7336
 222 0242 5B8BB624 		.ascii	"[\213\266$\2771:X\335u\007\323\006|\307\227\276\260"
 222      BF313A58 
 222      DD7507D3 
 222      067CC797 
 222      BEB0
 223 0254 025C7327 		.ascii	"\002\\s'\364\337\310\026\000\356\345$\256\231\374\264"
 223      F4DFC816 
 223      00EEE524 
 223      AE99FCB4 
 224 0264 A95CB483 		.ascii	"\251\\\264\203\036\357\245\217\013\033x\025\354\232"
 224      1EEFA58F 
 224      0B1B7815 
 224      EC9A
 225 0272 63B0621D 		.ascii	"c\260b\035X\353\307-\310\034:`\235\25509O\303d;:\340"
 225      58EBC72D 
 225      C81C3A60 
 225      9DAD3039 
 225      4FC3643B 
 226 0288 6C978927 		.ascii	"l\227\211'\333\002j\234\327\371.\015\212\016\204Z0l"
 226      DB026A9C 
 226      D7F92E0D 
 226      8A0E845A 
 226      306C
 227 029a A8DE05EF 		.ascii	"\250\336\005\357<\204<\305\021h\261\313\030\024\036"
 227      3C843CC5 
 227      1168B1CB 
 227      18141E
 228 02a9 435078F4 		.ascii	"CPx\364N\212?\323\006\361\315\221\314\017\334\235cZ"
 228      4E8A3FD3 
 228      06F1CD91 
 228      CC0FDC9D 
 228      635A
 229 02bb 5D360C97 		.ascii	"]6\014\227g\345\005r\342h\363>\327r9^\357\242\236\334"
 229      67E50572 
 229      E268F33E 
 229      D772395E 
 229      EFA29EDC 
 230 02cf 966BA523 		.ascii	"\226k\245#\216y\025\307\3524zrG\357\276:\352\311\235"
 230      8E7915C7 
 230      EA347A72 
 230      47EFBE3A 
 230      EAC99D
 231 02e2 B63C79F3 		.ascii	"\266<y\363\236\245\350,Y\003\222S\307\277\023\307?\214"
 231      9EA5E82C 
 231      59039253 
 231      C7BF13C7 
 231      3F8C
 232 02f4 E3EF318E 		.ascii	"\343\3571\216\337\330\372\265\032I{l\215\337zpq\372"
ARM GAS  /var/folders/c6/c789hm653lg9vtl73krp73tm0000gn/T//cciZXqwa.s 			page 18


 232      DFD8FAB5 
 232      1A497B6C 
 232      8DDF7A70 
 232      71FA
 233 0306 F83CFB8B 		.ascii	"\370<\373\213\321\231|\243\243\367\213\001:\312\307"
 233      D1997CA3 
 233      A3F78B01 
 233      3ACAC7
 234 0315 1832CFB9 		.ascii	"\0302\317\271\215\3361\251@o?\370[\323\201c\026\271"
 234      8DDE31A9 
 234      406F3FF8 
 234      5BD38163 
 234      16B9
 235 0327 55FE8715 		.ascii	"U\376\207\025\261 \350\276\305l\323lyw\251\312C\263"
 235      B120E8BE 
 235      C56CD36C 
 235      7977A9CA 
 235      43B3
 236 0339 63C4629D 		.ascii	"c\304b\235&6\035\304\034\240\200-\267\003f\351Ju\361"
 236      26361DC4 
 236      1CA0802D 
 236      B70366E9 
 236      4A75F1
 237 034c B7B4602D 		.ascii	"\267\264`-\216\301\364\234m\321\202\265\332\001\033"
 237      8EC1F49C 
 237      6DD182B5 
 237      DA011B
 238 035b 65CDD9DB 		.ascii	"e\315\331\333Z\260W\034\203\3519\333\256\005[k\007l"
 238      5AB0571C 
 238      83E939DB 
 238      AE055B6B 
 238      076C
 239 036d AC3567EF 		.ascii	"\2545g\357h\301\3269\006\323s\366\027-\330\006;`\305"
 239      68C1D639 
 239      06D373F6 
 239      172DD806 
 239      3B60C5
 240 0380 269C252F 		.ascii	"&\234%/\253i\365C6\351\347\034\363\272[\315\011\016"
 240      AB69F543 
 240      36E9E71C 
 240      F3BA5BCD 
 240      090E
 241 0392 7D9A4961 		.ascii	"}\232Ia\274\345v\232\303tr\303T\372\321jv\221\022\027"
 241      BCE5769A 
 241      C37472C3 
 241      54FAD16A 
 241      76911217 
 242 03a6 CA74B6DD 		.ascii	"\312t\266\335\016b\006\207\331\242\235\033w:\006\323"
 242      0E620687 
 242      D9A29D1B 
 242      773A06D3 
 243 03b6 9BE53001 		.ascii	"\233\3450\001\323\345\032:#%\326\306\307.K\245\273<"
 243      D3E51A3A 
 243      2325D6C6 
 243      C72E4BA5 
 243      BB3C
 244 03c8 158B2C12 		.ascii	"\025\213,\022\225\334\006kF.\331Y\036;\326\274/\317"
ARM GAS  /var/folders/c6/c789hm653lg9vtl73krp73tm0000gn/T//cciZXqwa.s 			page 19


 244      95DC066B 
 244      462ED959 
 244      1E3BD6BC 
 244      2FCF
 245 03da 9E65EF82 		.ascii	"\236e\357\202\372\177Yo\222\013\245\255\266\206X\\\211"
 245      FA7F596F 
 245      920BA5AD 
 245      B686585C 
 245      89
 246 03eb B8CD969F 		.ascii	"\270\315\226\237\010\220\231\324\312\023\316h=a\277"
 246      089099D4 
 246      CA13CE68 
 246      3D61BF
 247 03fa 1D356508 		.ascii	"\0355e\010\205\253\037\267\374\235\234\210\263\032y"
 247      85AB1FB7 
 247      FC9D9C88 
 247      B31A79
 248 0409 332A0796 		.ascii	"3*\007\226\020'\351\022\342<N\327]n\323y\337\006P\343"
 248      1027E912 
 248      E23C4ED7 
 248      5D6ED379 
 248      DF0650E3 
 249 041d BC0DFF8C 		.ascii	"\274\015\377\214@\027\021\350\370\260\201z\027\254T"
 249      401711E8 
 249      F8B0817A 
 249      17AC54
 250 042c 56D55F23 		.ascii	"V\325_#\320\251\264)\2025, X\375\024\237\324<U\374\017"
 250      D0A9B429 
 250      82352C20 
 250      58FD149F 
 250      D43C55FC 
 251 0441 D5976306 		.ascii	"\325\227c\006\214\326\322\211\2235\327$\272\273N.b/"
 251      8CD6D289 
 251      9335D724 
 251      BABB4E2E 
 251      622F
 252 0453 D6C9CB4A 		.ascii	"\326\311\313J\035\330+A\355u\025\2653\230\246\235\213"
 252      1DD82B41 
 252      ED7515B5 
 252      3398A69D 
 252      8B
 253 0464 0ED5C331 		.ascii	"\016\325\3031\2659N\305\370\251^\214\346S\316\3058M"
 253      B5394EC5 
 253      F8A95E8C 
 253      E653CEC5 
 253      384D
 254 0476 C520B1C9 		.ascii	"\305 \261\3111\317\346\334\270\030\215\216\305(\325"
 254      31CFE6DC 
 254      B8188D8E 
 254      C528D5
 255 0485 88019B89 		.ascii	"\210\001\233\211\256K\213\225\014\370#\246)\3632\216"
 255      AE4B8B95 
 255      0CF823A6 
 255      29F3328E 
 256 0495 F03387FB 		.ascii	"\3603\207\373\221n\011\025\277\274\237-V\036g[=\311"
 256      916E0915 
 256      BFBC9F2D 
ARM GAS  /var/folders/c6/c789hm653lg9vtl73krp73tm0000gn/T//cciZXqwa.s 			page 20


 256      561E675B 
 256      3DC9
 257 04a7 F145075B 		.ascii	"\361E\007[\350>D\331\340.C\336\011\355pV5r\374ue\326"
 257      E83E44D9 
 257      E02E43DE 
 257      09ED7056 
 257      3572FC75 
 258 04bd 52C05A6F 		.ascii	"R\300Zo\010\254.\276\243I\335$M\"\251\373\265\033\204"
 258      08AC2EBE 
 258      A349DD24 
 258      4D22A9FB 
 258      B51B84
 259 04d0 3B76D098 		.ascii	";v\320\230\272\015k\306v\213t\247\356\036\233\336W\367"
 259      BA0D6BC6 
 259      768B74A7 
 259      EE1E9BDE 
 259      57F7
 260 04e2 262F7284 		.ascii	"&/r\204\241\3664g\331\310\032V\215\344\201\246\213\225"
 260      A1F63467 
 260      D9C81A56 
 260      8DE481A6 
 260      8B95
 261 04f4 0D5FE034 		.ascii	"\015_\3404\271w\347\215\311\011ap|\215\342?\331\326"
 261      B977E78D 
 261      C9096170 
 261      7C8DE23F 
 261      D9D6
 262 0506 E4FFADA2 		.ascii	"\344\377\255\242\025\342\300\273q\340%\234aI\336\373"
 262      15E2C0BB 
 262      71E0259C 
 262      6149DEFB 
 263 0516 55622E95 		.ascii	"Ub.\225\233\374\226\335\251z\373\275rS\241\311x\017"
 263      9BFC96DD 
 263      A97AFBBD 
 263      7253A1C9 
 263      780F
 264 0528 6BE7FFA4 		.ascii	"k\347\377\244V\0177\262\365\210\276\234#\273\362\313"
 264      560F37B2 
 264      F588BE9C 
 264      23BBF2CB 
 265 0538 06ADAA7B 		.ascii	"\006\255\252{\231\207\255\2008fN.!i12\336\335\365\215"
 265      9987AD80 
 265      38664E2E 
 265      21693132 
 265      DEDDF58D 
 266 054c BA9769B1 		.ascii	"\272\227i\261\301x]|`\201vW\316\263[X\216\342\016\317"
 266      C1785D7C 
 266      60817657 
 266      CEB35B58 
 266      8EE20ECF 
 267 0560 E32EEC4D 		.ascii	"\343.\354M\256<x\366m\307`\305f\254\252\236\225\222"
 267      AE3C78F6 
 267      6DC760C5 
 267      66ACAA9E 
 267      9592
 268 0572 96675772 		.ascii	"\226gWrd\305\320\312\335\001u\033\324\311\0136\025\271"
 268      64C5D0CA 
ARM GAS  /var/folders/c6/c789hm653lg9vtl73krp73tm0000gn/T//cciZXqwa.s 			page 21


 268      DD01751B 
 268      D4C90B36 
 268      15B9
 269 0584 AA4DCD54 		.ascii	"\252M\315T\2275\240\301\370W\232\025grph\266\346yzh"
 269      9735A0C1 
 269      F8579A15 
 269      67727068 
 269      B6E6797A 
 270 0599 86397565 		.ascii	"\2069ue\2561L\376h\314\251\016\316\2078f\215Q$\273["
 270      AE314CFE 
 270      68CCA90E 
 270      CE873866 
 270      8D5124BB 
 271 05ae 9BE46515 		.ascii	"\233\344e\025\206\213\265a\270>\367\006\303\260\353"
 271      868BB561 
 271      B83EF706 
 271      C3B0EB
 272 05bd 94CD3094 		.ascii	"\224\3150\224Y\355\302\223c\336\300\221\327\033\335"
 272      59EDC293 
 272      63DEC091 
 272      D71BDD
 273 05cc F9F2C5DD 		.ascii	"\371\362\305\335\363\250;\257\267\025\207\2271\016\325"
 273      F3A83BAF 
 273      B7158797 
 273      310ED5
 274 05db B8EA49A2 		.ascii	"\270\352I\242\016\307\023\352\342\203g>d\021NYH\237"
 274      0EC713EA 
 274      E283673E 
 274      64114E59 
 274      489F
 275 05ed 30C239DC 		.ascii	"0\3029\334`^\023\234*F\361\256xw?\231\336\336D\231\376"
 275      605E139C 
 275      2A46F1AE 
 275      78773F99 
 275      DEDE4499 
 276 0602 96E65A8A 		.ascii	"\226\346Z\212f4\256\265^\023'\177\3028\331\200q\322"
 276      6634AEB5 
 276      5E13277F 
 276      C238D980 
 276      71D2
 277 0614 8EF51BDA 		.ascii	"\216\365\033\332h\261r\213MZ\267\270\340X\356b\233\336"
 277      68B1728B 
 277      4D5AB7B8 
 277      E058EE62 
 277      9BDE
 278 0626 B74E3BCC 		.ascii	"\267N;\314\340\015z\337\321\256sn<\012rp\210w\215.\205"
 278      E00D7ADF 
 278      D1AE736E 
 278      3C0A7270 
 278      88778D2E 
 279 063b B661D8CA 		.ascii	"\266a\330\312\036\243n;\214ak\347Lk\241g\230\202$/\216"
 279      1EA36E3B 
 279      8C616BE7 
 279      4C6BA167 
 279      9882242F 
 280 0650 59E4B1B1 		.ascii	"Y\344\261\261\033)\266R\0069\236\375\206\256\250\262"
 280      1B29B652 
ARM GAS  /var/folders/c6/c789hm653lg9vtl73krp73tm0000gn/T//cciZXqwa.s 			page 22


 280      06399EFD 
 280      86AEA8B2 
 281 0660 1E8C254F 		.ascii	"\036\214%O\212\367\325\322Yi\007z\332R\217\371\254\224"
 281      8AF7D5D2 
 281      5969077A 
 281      DA528FF9 
 281      AC94
 282 0672 E9840D49 		.ascii	"\351\204\015Iv\246\315J\315\227\324Yi\247\255Y\351\220"
 282      76A6CD4A 
 282      CD97D459 
 282      69A7AD59 
 282      E990
 283 0684 E9ACB4D3 		.ascii	"\351\254\264\323\371\254dvi\031\344\331]\030 \235\372"
 283      F9AC6476 
 283      6919E4D9 
 283      5D18209D 
 283      FA
 284 0695 29648B63 		.ascii	")d\213c\355\027k\265\037\037<\324\302*\374+\211(n\304"
 284      ED176BB5 
 284      1F1F3CD4 
 284      C22AFC2B 
 284      89286EC4 
 285 06a9 334B443F 		.ascii	"3KD?\265\264f\274\241K\263\306\334k\207\271R+\260\272"
 285      B5B466BC 
 285      A14BB3C6 
 285      DC6B87B9 
 285      522BB0BA 
 286 06bd 788B02A6 		.ascii	"x\213\002\246\270\374\001\307`\305:\260?7\253\226Z\207"
 286      B8FC01C7 
 286      60C53AB0 
 286      3F37AB96 
 286      5A87
 287 06cf 0BC46376 		.ascii	"\013\304cv\360&Z3w\250K]\235+\347\352_8\306\323\363"
 287      F0265A33 
 287      77A84B5D 
 287      9D2BE7EA 
 287      5F38C6D3 
 288 06e4 37D0AC5B 		.ascii	"7\320\254[P\017\330\201{\330\266#\245\336\212\360\354"
 288      500FD881 
 288      7BD8B623 
 288      A5DE8AF0 
 288      EC
 289 06f5 5B7886B1 		.ascii	"[x\206\261\231%9v+\326\333\260\336\205\365I\254\277"
 289      99253976 
 289      2BD6DBB0 
 289      DE85F549 
 289      ACBF
 290 0707 C0FA34D6 		.ascii	"\300\3724\326\347\260\376\026\353!\254\3531?\377\005"
 290      E7B0FE16 
 290      EB21ACEB 
 290      313FFF05 
 291 0717 EB0FB0FE 		.ascii	"\353\017\260\376\020\353\275X\177\204\365~\254\017\330"
 291      10EBBD58 
 291      7F84F57E 
 291      AC0FD8
 292 0726 C9E18685 		.ascii	"\311\341\206\2058}\213\244x\0216\236ti\\~\320\020\355"
 292      387D8BA4 
ARM GAS  /var/folders/c6/c789hm653lg9vtl73krp73tm0000gn/T//cciZXqwa.s 			page 23


 292      7811369E 
 292      74695C7E 
 292      D010ED
 293 0739 7732AB65 		.ascii	"w2\253e\271)\321\177\366(9_w\253s\340\354<\322m\025"
 293      B929D17F 
 293      F628395F 
 293      77AB73E0 
 293      EC3CD26D 
 294 074e 3BCE7458 		.ascii	";\316tX\272\035@\332\006\371e\3411\325g\347f!\243<\375"
 294      BA1D40DA 
 294      06F965E1 
 294      31D567E7 
 294      6621A33C 
 295 0763 23B396A4 		.ascii	"#\263\226\244\230\366\271sF\271\325\207\326dT\316\303"
 295      98F6B973 
 295      46B9D587 
 295      D66454CE 
 295      C3
 296 0774 9CEE5DA8 		.ascii	"\234\356]\250\362&4>\360\301\363\346oB\025\036\255\224"
 296      F226343E 
 296      F0C1F3E6 
 296      6F42151E 
 296      AD94
 297 0786 D6CB8D61 		.ascii	"\326\313\215a\364\332\341\230\347\362\364\252\241|\326"
 297      F4DAE198 
 297      E7F2F4AA 
 297      A17CD6
 298 0795 C99B5E93 		.ascii	"\311\233^\223\275\352\016\210g{\270\214l\0363e\363\300"
 298      BDEA0E88 
 298      677BB88C 
 298      6C1E3365 
 298      F3C0
 299 07a7 737B6189 		.ascii	"s{a\211!_\033\032r\031\331\2648\317'X\3079\335\233A"
 299      215F1B1A 
 299      7219D9B4 
 299      38CF2758 
 299      C739DD9B 
 300 07bc 85872C06 		.ascii	"\205\207,\006^\234gf`\371j\371c\252\253tq$\313\366"
 300      5E9C6766 
 300      60F96AF9 
 300      63AAAB74 
 300      7124CBF6 
 301 07d0 5988A1B7 		.ascii	"Y\210\241\267m\253j[\236=\232\205Lo\333\347\3459\243"
 301      6DAB6A5B 
 301      9E3D9A85 
 301      4C6FDBE7 
 301      E539A3
 302 07e3 58148EA1 		.ascii	"X\024\216\241T\272\210:\221\256\245D\003L ]c\227m\222"
 302      54BA883A 
 302      91AEA544 
 302      034C205D 
 302      63976D92 
 303 07f7 EB9F95BF 		.ascii	"\353\237\225\277\033z\206\265\257\247SF=\235G\216uz"
 303      1B7A86B5 
 303      AFA75346 
 303      3D9D478E 
 303      757A
ARM GAS  /var/folders/c6/c789hm653lg9vtl73krp73tm0000gn/T//cciZXqwa.s 			page 24


 304 0809 5995665D 		.ascii	"Y\225f]\245\353\0313N\342GN\234f\227\313;\353\345\241"
 304      A5EB1933 
 304      4EE2474E 
 304      9C6697CB 
 304      3BEBE5A1 
 305 081d A1679CF8 		.ascii	"\241g\234\370\325Y3\213\0318i\267\340\344KSN>=\021O"
 305      D559338B 
 305      193869B7 
 305      E0E44B53 
 305      4E3E3D11 
 306 0832 71A2B804 		.ascii	"q\242\270\004\307\374\331\002\342\234\036\342'\314*"
 306      C7FCD902 
 306      E29C1EE2 
 306      27CC2A
 307 0841 02F1E689 		.ascii	"\002\361\346\211\004W+\357\\\0063\014\354:\306\251\313"
 307      04572BEF 
 307      5C06330C 
 307      EC3AC6A9 
 307      CB
 308 0852 D1F99FA7 		.ascii	"\321\371\237\247\316L\345\321\252$\237\020\204\344\016"
 308      CE4CE5D1 
 308      AA249F10 
 308      84E40E
 309 0861 F6D22A76 		.ascii	"\366\322*v6N\350\0038\301\3556\214k\003\212c\016#\321"
 309      364EE803 
 309      38C1ED36 
 309      8C6B038A 
 309      630E23D1 
 310 0875 A5F4D542 		.ascii	"\245\364\325B\247\272\350\277dk\321\277\242O\231mM\226"
 310      A7BAE8BF 
 310      646BD1BF 
 310      A24F996D 
 310      4D96
 311 0887 D389E472 		.ascii	"\323\211\344r\372v\015\367\007\217|F\271\277\202\334"
 311      FA760DF7 
 311      078F7C46 
 311      B9BF82DC 
 312 0897 F759706F 		.ascii	"\367Ypo\011\3041g\221\344j:\357\207\347R\336\257\332"
 312      09C43167 
 312      91E46A3A 
 312      EF87E752 
 312      DEAFDA
 313 08aa E2FD508F 		.ascii	"\342\375P\217~\2450\230\304\035\336\226\345p\017N\356"
 313      7EA53098 
 313      C41DDE96 
 313      E5700F4E 
 313      EE
 314 08bb CAE459EB 		.ascii	"\312\344Y\3535\2009\332\260\310\361\243\012X'~:0\337"
 314      358039DA 
 314      B0C8F1A3 
 314      0A58277E 
 314      3A30DF
 315 08ce 3158B18E 		.ascii	"1X\261\216\263\343/\351\337\377\277`\007/\303;\216\363"
 315      B3E32FE9 
 315      DFFFBF60 
 315      072FC33B 
 315      8EF3
ARM GAS  /var/folders/c6/c789hm653lg9vtl73krp73tm0000gn/T//cciZXqwa.s 			page 25


 316 08e0 3D9A771C 		.ascii	"=\232w\034\315\216\301\364\314}\255\005[i\007\314\354"
 316      CD8EC1F4 
 316      CC7DAD05 
 316      5B6907CC 
 316      EC
 317 08f1 4D80D9A5 		.ascii	"M\200\331\245u\022\236\275\216\253\315\357p\022\227"
 317      75129EBD 
 317      8EABCDEF 
 317      701297
 318 0900 5DA4AEC3 		.ascii	"]\244\256\303\272\036\353\271X\317w\351\326\242\257"
 318      BA1EEBB9 
 318      58CF77E9 
 318      D6A2AF
 319 090f 79D52831 		.ascii	"y\325(1u\305l.!\3077[\207\207\331n\023\202\373T-;\007"
 319      75C56C2E 
 319      21C7375B 
 319      8787D96E 
 319      1382FB54 
 320 0926 7D78A18B 		.ascii	"}x\241\213X~\2437kx\030\367\363\273\220\344EW\332\361"
 320      587EA337 
 320      6B7818F7 
 320      F3BB90E4 
 320      4557DAF1 
 321 093a D4F53934 		.ascii	"\324\36594<\310o\3317\002\203KW\330{\325\236\034\377"
 321      3CC86FD9 
 321      3702834B 
 321      57D87BD5 
 321      9E1CFF
 322 094d C71A410E 		.ascii	"\307\032A\016\236T\317\331\026\243 \275\331\005\321"
 322      9E54CFD9 
 322      16A320BD 
 322      D905D1
 323 095c 03419C23 		.ascii	"\003A\234#\311\322tA\276T\005YjK\220mKU\357_\344\302"
 323      C9D27441 
 323      BE540559 
 323      6A4B906D 
 323      4B55EF5F 
 324 0972 0F5692B8 		.ascii	"\017V\222\270\303\332\354\306\267\037A\207U\300\352"
 324      C3DAECC6 
 324      B71F4187 
 324      55C0EA
 325 0981 F39D82E9 		.ascii	"\363\235\202\351\275\277\343\210\323\257_\006\017n\276"
 325      BDBFE388 
 325      D3AF5F06 
 325      0F6EBE
 326 0990 1B37CEAD 		.ascii	"\0337\316\255.\222h\026\346\177/\033\347f;rX\037\260"
 326      2E926816 
 326      E67F2F1B 
 326      E7663B72 
 326      581FB0
 327 09a3 8055CE2D 		.ascii	"\200U\316-19\177\262\277^X\3532\314\322\223\014\223"
 327      31397FB2 
 327      BF5E58EB 
 327      32CCD293 
 327      0C93
 328 09b5 74269534 		.ascii	"t&\2254\365\325\3223\3435h\225V\203R\014G\357d,+>\326"
 328      F5D5D233 
ARM GAS  /var/folders/c6/c789hm653lg9vtl73krp73tm0000gn/T//cciZXqwa.s 			page 26


 328      E3356895 
 328      5683520C 
 328      47EF642C 
 329 09cc B90A2C3C 		.ascii	"\271\012,<*\3557H\020\216\265\246\263>y\371\262V}\375"
 329      2AED3748 
 329      108EB5A6 
 329      B33E79F9 
 329      B2567DFD 
 330 09e0 8C9BA4D7 		.ascii	"\214\233\244\327\355\000\232ef\263K\033<0\311\271H\376"
 330      ED009A65 
 330      66B34B1B 
 330      3C30C9B9 
 330      48FE
 331 09f2 7B09F35C 		.ascii	"{\011\363\\\013\326+\261^\215\365\377h3\237\225n\210"
 331      0BD62BB1 
 331      5E8DF5FF 
 331      68339F95 
 331      6E88
 332 0a04 CB27B15F 		.ascii	"\313'\261_vq4\317\014/\214\256\245\302\210gW8\006\323"
 332      767134CF 
 332      0C2F8CAE 
 332      A5C28867 
 332      573806D3 
 333 0a18 2932DED8 		.ascii	")2\336\330\243\356]IT\360\354+v\3602\234\027\276\256"
 333      A3EE5D49 
 333      54F0EC2B 
 333      76F0329C 
 333      17BEAE
 334 0a2b 4C4A4A88 		.ascii	"LJJ\210m\315g\035\202\025g2\312\213\032\2434\242Q\232"
 334      6DCD671D 
 334      82156732 
 334      CA8B1AA3 
 334      34A2519A 
 335 0a3f D0041BB0 		.ascii	"\320\004\033\260\336\210u\273~\"z/\3370\021\351\223"
 335      DE8875BB 
 335      7E227A2F 
 335      DF3011E9 
 335      93
 336 0a50 BED9BCA8 		.ascii	"\276\331\274\250\325\217\034\177\247\017\344\261\177"
 336      D58F1C7F 
 336      A70FE4B1 
 336      7F
 337 0a5d 1CF5A57A 		.ascii	"\034\365\245z\034\365&&\357=\371\246\311;\323qT7\222"
 337      1CF52626 
 337      EF3DF9A6 
 337      C93BD371 
 337      543792
 338 0a70 6C494BDE 		.ascii	"lIK\336\315\375\352\"mK\366\344]?;\276\371\345WS\263"
 338      CDFDEA22 
 338      6D4BF6E4 
 338      5D3F3BBE 
 338      F9E55753 
 339 0a85 D0EC6404 		.ascii	"\320\354d\004\377\015r\234\225\227\352>-8\223\344\303"
 339      FF0D729C 
 339      9597EA3E 
 339      2D3893E4 
 339      C3
ARM GAS  /var/folders/c6/c789hm653lg9vtl73krp73tm0000gn/T//cciZXqwa.s 			page 27


 340 0a96 A1979ADB 		.ascii	"\241\227\232\333n\213\306vo\243\355\266\351-u\321h)"
 340      6E8BC676 
 340      6FA3EDB6 
 340      E92D75D1 
 340      6829
 341 0aa8 B3F174C7 		.ascii	"\263\361t\307MzC\375\265O]\224*_\215~c\304k\323}#J\233"
 341      4D7A43FD 
 341      B54F5D94 
 341      2A5F8D7E 
 341      63C46BD3 
 342 0ac0 96474E72 		.ascii	"\226GNr\274\317\211\345\227l?\363\240\362\025#\332}"
 342      BCCF89E5 
 342      976C3FF3 
 342      A0F21523 
 342      DA7D
 343 0ad2 558143BB 		.ascii	"U\201C\273\023\025\275g\260y|@(V\236\332Xs\364\343\251"
 343      1315BD67 
 343      B0797C40 
 343      28569EDA 
 343      5873F4E3 
 344 0ae7 BF8353E4 		.ascii	"\277\203S\344\267\350)\362\373\030\251\233\012\276\227"
 344      B7E829F2 
 344      FB18A99B 
 344      0ABE97
 345 0af6 C9703BC2 		.ascii	"\311p;\302\274\367}9\315{\032\247\331\205N\323\251w"
 345      BCF77D39 
 345      CD7B1AA7 
 345      D9854ED3 
 345      A977
 346 0b08 9A770B6C 		.ascii	"\232w\013l8M\324\322i`\032\351\177\260V\216/+\275\211"
 346      384DD4D2 
 346      69601AE9 
 346      7FB0568E 
 346      2F2BBD89 
 347 0b1c 6950F77E 		.ascii	"iP\367~T\207\361\271\362|\266\366\215\333\223\224\272"
 347      5487F1B9 
 347      F27CB6F6 
 347      8DDB9394 
 347      BA
 348 0b2d 4D4DF203 		.ascii	"MM\362\003\305\257V\321\371\363#\324\343.\203\036\235"
 348      C5AF56D1 
 348      F9F323D4 
 348      E32E831E 
 348      9D
 349 0b3e 8035CEDB 		.ascii	"\2005\316\333\257\276\270\376\004\301\366\017\037\254"
 349      AFBEB8FE 
 349      04C1F60F 
 349      1FAC
 350 0b4c AD77EFED 		.ascii	"\255w\357\355\262\233g\017!\320\3214\353z\015\306\365"
 350      B29B670F 
 350      21D0D134 
 350      EB7A0DC6 
 350      F5
 351 0b5d EA8DEBF5 		.ascii	"\352\215\353\365\246\032C\352e\374\336\345\007\244\241"
 351      A61A43EA 
 351      65FCDEE5 
 351      07A4A1
ARM GAS  /var/folders/c6/c789hm653lg9vtl73krp73tm0000gn/T//cciZXqwa.s 			page 28


 352 0b6c 82C58B54 		.ascii	"\202\305\213T\311\216\262\024`\237\353\246\224.\344"
 352      C98EB214 
 352      609FEBA6 
 352      942EE4
 353 0b7b 645A2BB4 		.ascii	"dZ+\264\316j]\256\324gV\205\336T\343\326\244\027}n\364"
 353      CE6A5DAE 
 353      D4675685 
 353      DE54E3D6 
 353      A4177D6E 
 354 0b90 22C3B8B4 		.ascii	"\"\303\270\264=\323\266\337^\322\354\236\276\306\335"
 354      3DD3B6DF 
 354      5ED2EC9E 
 354      BEC6DD
 355 0b9f D337B87B 		.ascii	"\3237\270{Z\200S\324&\254;\260\336\201\365^\275W_H\232"
 355      5A8053D4 
 355      26AC3BB0 
 355      DE81F55E 
 355      BD575F48 
 356 0bb4 4B9DB4F4 		.ascii	"K\235\264\364\247\020d\210\243\256\344\341\210a\215"
 356      A7106488 
 356      A3AEE4E1 
 356      88618D
 357 0bc3 B6DC221A 		.ascii	"\266\334\"\032\010Uwj\035b\240\032\310@\325\223\242"
 357      0855776A 
 357      1D62A01A 
 357      C840D593 
 357      A2
 358 0bd4 A271D2F6 		.ascii	"\242q\322\366\360\262\021\312\247j\224f\224J\243\362"
 358      F0B211CA 
 358      A76A9466 
 358      944AA3F2 
 359 0be4 D7EBD84E 		.ascii	"\327\353\330N\307,\354\304\352\207.6\214<Q\355\347\241"
 359      C72CECC4 
 359      EA872E36 
 359      8C3C51ED 
 359      E7A1
 360 0bf6 389F3A1E 		.ascii	"8\237:\036\271\317b\344\\sU\221c1+\250\343\226\012>"
 360      B9CF62E4 
 360      5C735591 
 360      63312BA8 
 360      E3960A3E 
 361 0c0a 95812A91 		.ascii	"\225\201*\221\242\"\007e\361\363\211\336\035\007\376"
 361      A2220765 
 361      F1F389DE 
 361      1D07FE
 362 0c19 EB4F9B64 		.ascii	"\353O\233d\031\017\017k\353\035\034\037\236p\245\037"
 362      190F0F6B 
 362      EB1D1C1F 
 362      9E70A51F 
 363 0c29 062F2934 		.ascii	"\006/)4=\014\206\3535\331\225<\327\374\314e8\327\374"
 363      3D0C86EB 
 363      35D9953C 
 363      D7FCCC65 
 363      38D7FC
 364 0c3c DC957686 		.ascii	"\334\225v\206\007\2545\264~\227K^Y\2223\274;\224\361"
 364      07AC35B4 
 364      7E974B5E 
ARM GAS  /var/folders/c6/c789hm653lg9vtl73krp73tm0000gn/T//cciZXqwa.s 			page 29


 364      599233BC 
 364      3B94F1
 365 0c4f 60DF606B 		.ascii	"`\337`k\204~\343\010_\230\216\360\346\347\357.d\033"
 365      847EE308 
 365      5F988EF0 
 365      E6E7EF2E 
 365      641B
 366 0c61 DBE7CA0D 		.ascii	"\333\347\312\015\265\211\241gZ\343\015n\373\342\237"
 366      B589A167 
 366      5AE30D6E 
 366      FBE29F
 367 0c70 31EE863A 		.ascii	"1\356\206:\322OO\273t\314bO\2169YH\035\215\2361\037"
 367      D24F4FBB 
 367      74CC624F 
 367      8E395948 
 367      1D8D9E31 
 368 0c85 78BFB081 		.ascii	"x\277\260\201U\377{\303\005\2448\355\262:.\356\320\035"
 368      55FF7BC3 
 368      05A438ED 
 368      B23A2EEE 
 368      D01D
 369 0c97 175FAC9D 		.ascii	"\027_\254\235:6)\363i\243\314gMe\356\356:r\353\360\014"
 369      3A3629F3 
 369      69A3CC67 
 369      4D65EEEE 
 369      3A72EBF0 
 370 0cac 7EC128B1 		.ascii	"~\301(\261\356\\\235F\274A\003W\014\346\2422o\025\014"
 370      EE5C9D46 
 370      BC410357 
 370      0CE6A232 
 370      6F150C
 371 0cbf E7EA0396 		.ascii	"\347\352\003\226\022\247\316\325\233\344FEU\335\270"
 371      12A7CED5 
 371      9BE44645 
 371      55DDB8
 372 0cce 839C53C4 		.ascii	"\203\234S\304f$\244\014QUu\313\032U\015\030Uu\331TU"
 372      6624A40C 
 372      515575CB 
 372      1A550D18 
 372      5575D954 
 373 0ce3 3D3B067E 		.ascii	"=;\006~\227\346\200\317\026\331q\300o\215#\\\265p\361"
 373      97E680CF 
 373      16D971C0 
 373      6F8D235C 
 373      B570F1
 374 0cf6 8F3C6923 		.ascii	"\217<i#,\2615\302u\343\010\337\271\322N\261?\371$\321"
 374      2CB135C2 
 374      75E308DF 
 374      B9D24EB1 
 374      3FF924D1 
 375 0d0a F9D53276 		.ascii	"\371\3252v~Bn\000k\017\261\332\314\246Y\237OU\025\227"
 375      7E426E00 
 375      6B0FB1DA 
 375      CCA6599F 
 375      4F551597 
 376 0d1e 8F9416F9 		.ascii	"\217\224\026\371\317\320\213g\353\334N\363\337l\267"
 376      CFD08B67 
ARM GAS  /var/folders/c6/c789hm653lg9vtl73krp73tm0000gn/T//cciZXqwa.s 			page 30


 376      EBDC4EF3 
 376      DF6CB7
 377 0d2d 79FED3CE 		.ascii	"y\376\323\316r\251^dy[dx3f`\202c\326\027\251\0236,\303"
 377      72A95E64 
 377      795B6478 
 377      33666082 
 377      63D617A9 
 378 0d45 55B50E9C 		.ascii	"U\265\016\234\035\274E\343\343\217\350|<\217\231\207"
 378      1DBC45E3 
 378      E38FE87C 
 378      3C8F9987 
 379 0d55 DF82CE91 		.ascii	"\337\202\316\221k\331\247\223\323\254\305\367\331<;"
 379      6BD9A793 
 379      D3ACC5F7 
 379      D93C3B
 380 0d64 DF9D4716 		.ascii	"\337\235G\0266E\372\005\206\206]\322A\025Ji\253\255"
 380      3645FA05 
 380      86865DD2 
 380      41154A69 
 380      ABAD
 381 0d76 D4FA224D 		.ascii	"\324\372\"M\023\363\334\331\337x\364\025\231\306N\207"
 381      13F3DCD9 
 381      DF78F415 
 381      99C64E87 
 382 0d86 3176E6BA 		.ascii	"1v\346\2723\306N\362\205\\\3671\022\002\012\213:*\235"
 382      33C64EF2 
 382      855CF731 
 382      12020A8B 
 382      3A2A9D
 383 0d99 EC94C185 		.ascii	"\354\224\301\205n\363\344q\374\326m\326\311#\323;\236"
 383      6EF3E471 
 383      FCD66DD6 
 383      C923D33B 
 383      9E
 384 0daa 06A3C4DD 		.ascii	"\006\243\304\335\2564\211\2772\227x\220H\254t\277\242"
 384      AE3489BF 
 384      32977890 
 384      48AC74BF 
 384      A2
 385 0dbb 9C1A584A 		.ascii	"\234\032XJ\254\015\372:\371\342\311\251\217\245^AZQ"
 385      AC0DFA3A 
 385      F9E2C9A9 
 385      8FA55E41 
 385      5A51
 386 0dcd 51069BF4 		.ascii	"Q\006\233\364\022\033f\325\343\031f\325%n\343\254\012"
 386      121B66D5 
 386      E31966D5 
 386      256EE3AC 
 386      0A
 387 0dde 0EF8F7DA 		.ascii	"\016\370\367\332$\253\276\201\222G\230\012\270\315h"
 387      24ABBE81 
 387      9247980A 
 387      B8CD68
 388 0ded D2E6CC26 		.ascii	"\322\346\314&\245\257\031?5\276f\264&\323\277f\324%"
 388      A5AF193F 
 388      35BE66B4 
 388      26D3BF66 
ARM GAS  /var/folders/c6/c789hm653lg9vtl73krp73tm0000gn/T//cciZXqwa.s 			page 31


 388      D425
 389 0dff 4342A473 		.ascii	"CB\244s\350\245n\263D\322\277~y\326DR\245\016Z\204\224"
 389      E8A56EB3 
 389      44D2BF7E 
 389      79D64452 
 389      A50E5A84 
 390 0e14 1689C4D0 		.ascii	"\026\211\304\320\213gW8N$+-\022I\241N\020\265\0274\353"
 390      8B675738 
 390      4E242B2D 
 390      1249A14E 
 390      10B51734 
 391 0e29 DD86D7B0 		.ascii	"\335\206\327\260\006&8\346\205\021\332D\302\3346~|\211"
 391      062638E6 
 391      8511DA44 
 391      C2DC367E 
 391      7C89
 392 0e3b F22F122B 		.ascii	"\362/\022+\021\245\222\230\350/\361W\205b\225\343\375"
 392      11A59298 
 392      E82FF157 
 392      856295E3 
 392      FD
 393 0e4c CC04C36F 		.ascii	"\314\004\303o\321\210(\305J\036y\342\361\311\217\317"
 393      D18828C5 
 393      4A1E79E2 
 393      F1C98FCF 
 394 0e5c 2CF14742 		.ascii	",\361GB\321@P\020c%\217N\236\014$\322\254\250\020\033"
 394      D1405010 
 394      63258F4E 
 394      9E0C24D2 
 394      ACA8101B 
 395 0e70 5FC5E400 		.ascii	"_\305\344\000\255O\312}\364\327O\026Of~UR\035\023K\202"
 395      AD4FCA7D 
 395      F4D74F16 
 395      4F667E55 
 395      521D134B 
 396 0e85 113F1F2C 		.ascii	"\021?\037,\231,\004\203\274XR\351\367\337\303\213\241"
 396      992C0483 
 396      BC5852E9 
 396      F7DFC38B 
 396      A1
 397 0e96 7BC291B0 		.ascii	"{\302\221\260p\217\300O\013\224\334Wz\357\204\322\211"
 397      708FC04F 
 397      0B94DC57 
 397      7AEF84D2 
 397      89
 398 0ea7 A5F797E8 		.ascii	"\245\367\227\350\037\007\302\376`u\271P\022\223\312"
 398      1F07C2FE 
 398      6075B950 
 398      1293CA
 399 0eb6 03610990 		.ascii	"\003a\011\220=p\373\371}>\351w\337\003h\210\367W\005"
 399      3D70FBF9 
 399      7D3EE977 
 399      DF036888 
 399      F75705
 400 0ec9 C24289AF 		.ascii	"\302B\211\257\\\250\340\253\203\222Oe\337\353\363\321"
 400      5CA8E0AB 
 400      83924F65 
ARM GAS  /var/folders/c6/c789hm653lg9vtl73krp73tm0000gn/T//cciZXqwa.s 			page 32


 400      DFEBF3D1 
 401 0ed9 61EE3448 		.ascii	"a\3564H\257\222\372\253b\263bj\367<\251J\024\370r\237"
 401      AF92FAAB 
 401      62B3626A 
 401      F73CA94A 
 401      14F8729F 
 402 0eed E4F557F9 		.ascii	"\344\365W\371\224v\2615\235\277\252\034hr\243\276\260"
 402      9476B135 
 402      9DBFAA1C 
 402      6872A3BE 
 402      B0
 403 0efe 3053825B 		.ascii	"0S\202[T\024fx\244\250\030\210\370\244\274j:n\276\317"
 403      54146678 
 403      A4A81888 
 403      F8A4BC6A 
 403      3A6EBECF 
 404 0f12 A736B14B 		.ascii	"\2476\261K \342\361G\302\022P\334\225\321\036U\376\210"
 404      20E2F147 
 404      C21250DC 
 404      95D11E55 
 404      FE88
 405 0f24 28007C01 		.ascii	"(\000|\001yL\204\360K3\377);\205o\306\203!\"\210(T\202"
 405      794C84F0 
 405      4B33FF29 
 405      3B856FC6 
 405      83212288 
 406 0f3b AA7C1227 		.ascii	"\252|\022'N\340\304\3739\361\001N|\220\023'r\342C.\361"
 406      4EE0C4FB 
 406      39F1014E 
 406      7C901327 
 406      72E2432E 
 407 0f50 DE5228F7 		.ascii	"\336R(\367rA\021n?\317\211\372\000\331C\204\250\021"
 407      7241116E 
 407      3FCF89FA 
 407      00D94384 
 407      A811
 408 0f62 44B84782 		.ascii	"D\270G\202\345\202\350\366W\361\"\221\214\017\011yR"
 408      E582E8F6 
 408      57F12291 
 408      8C0F0979 
 408      52
 409 0f73 4CE225C1 		.ascii	"L\342%\301'y\210 \023A9\212H\320\202\356\370\233G\012"
 409      27798820 
 409      1341398A 
 409      48D082EE 
 409      F89B470A 
 410 0f87 45CA05FC 		.ascii	"E\312\005\374\273\"\310W\306<\222(T\304Pb\322\310\025"
 410      BB22C857 
 410      C63C9228 
 410      54C45062 
 410      D2C815
 411 0f9a CB67811F 		.ascii	"\313g\201\037\345\011"
 411      E509
 412 0fa0 3303921F 		.ascii	"3\003\222\037:\346\326H\221i\177\210\336L\265\015]\004"
 412      3AE6D648 
 412      91697F88 
 412      DE4CB50D 
ARM GAS  /var/folders/c6/c789hm653lg9vtl73krp73tm0000gn/T//cciZXqwa.s 			page 33


 412      5D04
 413 0fb2 5108FB01 		.ascii	"Q\010\373\001 \247F\222\304h!h?&\204\370h\025H4\316"
 413      20A74692 
 413      C4682168 
 413      3F2684F8 
 413      68154834 
 414 0fc7 DA000211 		.ascii	"\332\000\002\021u\244\202\022\363=]-T\003\304\250\244"
 414      75A48212 
 414      F33D5D2D 
 414      5403C4A8 
 414      A4
 415 0fd8 E9E8230F 		.ascii	"\351\350#\017\275\347\370\303\340\03091\037\334\201"
 415      BDE7F8C3 
 415      E0183931 
 415      1FDC81
 416 0fe7 03A08EE6 		.ascii	"\003\240\216\346A\337P5\030\303z\220\2204\2238k\210"
 416      41DF5035 
 416      18C37A90 
 416      90349338 
 416      6B88
 417 0ff9 62857C91 		.ascii	"b\205|\221\2320\350"
 417      9A30E8
 418 1000 09A940C0 		.ascii	"\011\251@\300\220b\374\032\011\372E\013\204\031BX\012"
 418      9062FC1A 
 418      09FA450B 
 418      84194258 
 418      0A
 419 1011 F1B1E9F0 		.ascii	"\361\261\351\360\213PC\032\256\250\257z\204\312N0\020"
 419      8B50431A 
 419      AEA8AF7A 
 419      84CA4E30 
 419      10
 420 1022 030E466A 		.ascii	"\003\016Fj\030$O\274Q_\015\037\220\002\341\312\374\250"
 420      18244FBC 
 420      515F0D1F 
 420      9002E1CA 
 420      FCA8
 421 1034 0FD4A430 		.ascii	"\017\324\2440\213Mx D\2050DL%\364\202!H\377|\242T>\210"
 421      8B4D7820 
 421      44853044 
 421      4C25F482 
 421      2148FF7C 
 422 104c AE040FA3 		.ascii	"\256\004\017\243\221H\020\334\365\361Xe\031\364\344"
 422      914810DC 
 422      F5F15865 
 422      19F4E4
 423 105b A4A80B08 		.ascii	"\244\250\013\010\225\007O\001l!\266\236\020\202\002"
 423      95074F01 
 423      6C21B69E 
 423      108202
 424 106a 1F138AFC 		.ascii	"\037\023\212\374Ue\376\252G#eAA\210\226\025\340_O\000"
 424      5565FEAA 
 424      47236541 
 424      41889615 
 424      E05F4F00 
 425 107e 23B3A614 		.ascii	"#\263\246\024b\373)~\272P\215?\370HT\010!%\022\224v"
 425      62FB297E 
ARM GAS  /var/folders/c6/c789hm653lg9vtl73krp73tm0000gn/T//cciZXqwa.s 			page 34


 425      BA508D3F 
 425      F8485408 
 425      21251294 
 426 1093 21617916 		.ascii	"!ay\026\025\002\220|\251\277=\242\242\236\\\021=<GD"
 426      1502907C 
 426      A9BF3DA2 
 426      A29E5C11 
 426      3D3C4744 
 427 10a7 9F12A94F 		.ascii	"\237\022\251O\211\212Oy\341i\265\010\206\226rDB4zF@"
 427      898A4F79 
 427      E169B508 
 427      86967244 
 427      42347A46 
 428 10bc 94AAF9A0 		.ascii	"\224\252\371\240O\012\204 \361P\3401\000l\362\303H\335"
 428      4F0A8420 
 428      F150E031 
 428      006CF2C3 
 428      48DD
 429 10ce 33C5CABA 		.ascii	"3\305\312\272G\236\031\022\232\202\334I z\011\323\360"
 429      479E1912 
 429      9A82DC49 
 429      207A09D3 
 429      F0
 430 10df 0384223C 		.ascii	"\003\204\"<)\027\202\022\017\215\212\352\260\337\207"
 430      29178212 
 430      0F8D8AEA 
 430      B0DF87
 431 10ee 7D482B97 		.ascii	"}H+\227\364\345\305\002\270\005\371\230D\272\303#2\334"
 431      F4E5C502 
 431      B805F998 
 431      44BAC323 
 431      32DC
 432 1100 082A7EB9 		.ascii	"\010*~\2710\255\272R1\231\366\2117\312\207\003~b!W\371"
 432      30ADBA52 
 432      3199F689 
 432      37CA8703 
 432      7E622157 
 433 1115 B4CAFC10 		.ascii	"\264\312\374\020\017\341\200\026\375\007K?\222\210\257"
 433      0FE18016 
 433      FD074B3F 
 433      9288AF
 434 1124 8E92423E 		.ascii	"\216\222B>\310s\201i\"/\005\"a\340D\224\320+s#\025\025"
 434      C8738169 
 434      222F0522 
 434      61E04494 
 434      D02B7323 
 435 113a 3141E2A4 		.ascii	"1A\342\244P~L\232\016=*\3034\207<0!\231CHsD\240<(P\367"
 435      507E4C9A 
 435      0E3D2AC3 
 435      34873C30 
 435      21994348 
 436 1155 01B7E1FC 		.ascii	"\001\267\341\374U\031\342c\026\246@\260\354\254\330"
 436      5519E263 
 436      16A640B0 
 436      ECACD8
 437 1164 AF22FEE9 		.ascii	"\257\"\376\351^L%\220i\247\377LK\003J+\231\374x\331"
 437      5E4C2590 
ARM GAS  /var/folders/c6/c789hm653lg9vtl73krp73tm0000gn/T//cciZXqwa.s 			page 35


 437      69A7FF4C 
 437      4B034A2B 
 437      99FC78D9 
 438 1178 94B21429 		.ascii	"\224\262\024)I$\376\320\177\202\212\000\240\310\007"
 438      4924FED0 
 438      7F828A00 
 438      A0C807
 439 1187 C128F97E 		.ascii	"\301(\371~\371H\331\177L}bJ\021\037\254\341g\305 #\005"
 439      F948D97F 
 439      4C7D624A 
 439      111FACE1 
 439      67C52023 
 440 119c 21E3E6CC 		.ascii	"!\343\346\314\340\203\325B\241\022z\201pL\020%\227\364"
 440      E083D542 
 440      A1127A81 
 440      704C1025 
 440      97F4
 441 11ae 74B400C7 		.ascii	"t\264\000\307|2L\306R\022X5\266\363|\250w\237\257Hm"
 441      7C324CC6 
 441      52125835 
 441      B6F37CA8 
 441      779FAF48 
 442 11c3 8C7F60C2 		.ascii	"\214\177`\302C\367f\210>\230\271`\022\362\375\022\234"
 442      43F76688 
 442      3E98B960 
 442      12F2FD12 
 442      9C
 443 11d4 7C247AF2 		.ascii	"|$z\362\224\330T% \246\334\244\214Z\021\250\210\200"
 443      94D85425 
 443      20A6DCA4 
 443      8C5A11A8 
 443      8880
 444 11e6 2B862233 		.ascii	"+\206\"3\210{\247|\275L3\306\375\245\245\377\007$\250"
 444      887BA77C 
 444      BD4C33C6 
 444      FDA5A5FF 
 444      0724A8
 445 11f9 D4EF     		.ascii	"\324\357"
 446              		.text
 447              		.section	.gnu.lto_.symtab.ca6c227b430c66ec,"",%progbits
 448 0000 63684D73 		.ascii	"chMsgSend\000\000\000\000\000\000\000\000\000\000\000"
 448      6753656E 
 448      64000000 
 448      00000000 
 448      00000000 
 449 0014 00A10000 		.ascii	"\000\241\000\000\000chMsgWait\000\000\000\000\000\000"
 449      0063684D 
 449      73675761 
 449      69740000 
 449      00000000 
 450 0028 00000000 		.ascii	"\000\000\000\000\000\000Z\001\000\000chMsgRelease\000"
 450      00005A01 
 450      00006368 
 450      4D736752 
 450      656C6561 
 451 003f 00000000 		.ascii	"\000\000\000\000\000\000\000\000\000\000\000^\001\000"
 451      00000000 
ARM GAS  /var/folders/c6/c789hm653lg9vtl73krp73tm0000gn/T//cciZXqwa.s 			page 36


 451      0000005E 
 451      0100
 452 004d 00636800 		.ascii	"\000ch\000\000\002\000\000\000\000\000\000\000\000\000"
 452      00020000 
 452      00000000 
 452      000000
 453 005c 70010000 		.ascii	"p\001\000\000chSchGoSleepS\000\000\002\000\000\000\000"
 453      63685363 
 453      68476F53 
 453      6C656570 
 453      53000002 
 454 0074 00000000 		.ascii	"\000\000\000\000\000f\001\000\000chSchReadyI\000\000"
 454      00660100 
 454      00636853 
 454      63685265 
 454      61647949 
 455 008a 02000000 		.ascii	"\002\000\000\000\000\000\000\000\000\000j\001\000\000"
 455      00000000 
 455      00006A01 
 455      0000
 456 0098 63685363 		.ascii	"chSchWakeupS\000\000\002\000\000\000\000\000\000\000"
 456      6857616B 
 456      65757053 
 456      00000200 
 456      00000000 
 457 00ae 00006E01 		.ascii	"\000\000n\001\000\000"
 457      0000
 458              		.text
 459              		.section	.gnu.lto_.opts,"",%progbits
 460 0000 272D6D63 		.ascii	"'-mcpu=cortex-m4' '-mno-thumb-interwork' '-mthumb' "
 460      70753D63 
 460      6F727465 
 460      782D6D34 
 460      2720272D 
 461 0033 272D6767 		.ascii	"'-ggdb' '-O2' '-fomit-frame-pointer' '-falign-funct"
 461      64622720 
 461      272D4F32 
 461      2720272D 
 461      666F6D69 
 462 0066 696F6E73 		.ascii	"ions=16' '-ffunction-sections' '-fdata-sections' '-"
 462      3D313627 
 462      20272D66 
 462      66756E63 
 462      74696F6E 
 463 0099 666E6F2D 		.ascii	"fno-common' '-flto'\000"
 463      636F6D6D 
 463      6F6E2720 
 463      272D666C 
 463      746F2700 
 464              		.text
 465              		.cfi_sections	.debug_frame
 466              		.section	.text.chMsgSend,"ax",%progbits
 467              		.align	2
 468              		.p2align 4,,15
 469              		.global	chMsgSend
 470              		.thumb
 471              		.thumb_func
ARM GAS  /var/folders/c6/c789hm653lg9vtl73krp73tm0000gn/T//cciZXqwa.s 			page 37


 472              		.type	chMsgSend, %function
 473              	chMsgSend:
 474              	.LFB229:
 475              		.file 1 "../../../os/rt/src/chmsg.c"
 476              		.loc 1 87 0
 477              		.cfi_startproc
 478              		@ args = 0, pretend = 0, frame = 0
 479              		@ frame_needed = 0, uses_anonymous_args = 0
 480              	.LVL0:
 481              		.loc 1 88 0
 482 0000 0E4B     		ldr	r3, .L5
 483              		.loc 1 87 0
 484 0002 70B5     		push	{r4, r5, r6, lr}
 485              		.cfi_def_cfa_offset 16
 486              		.cfi_offset 4, -16
 487              		.cfi_offset 5, -12
 488              		.cfi_offset 6, -8
 489              		.cfi_offset 14, -4
 490              	.LBB52:
 491              	.LBB53:
 492              	.LBB54:
 493              	.LBB55:
 494              		.file 2 "../../../os/ext/CMSIS/include/core_cmFunc.h"
 495              		.loc 2 546 0
 496 0004 2022     		movs	r2, #32
 497              	.LBE55:
 498              	.LBE54:
 499              	.LBE53:
 500              	.LBE52:
 501              		.loc 1 88 0
 502 0006 9C69     		ldr	r4, [r3, #24]
 503              	.LVL1:
 504              	.LBB59:
 505              	.LBB58:
 506              	.LBB57:
 507              	.LBB56:
 508              		.loc 2 546 0
 509              	@ 546 "../../../os/ext/CMSIS/include/core_cmFunc.h" 1
 510 0008 82F31188 		MSR basepri, r2
 511              	@ 0 "" 2
 512              		.thumb
 513              	.LBE56:
 514              	.LBE57:
 515              	.LBE58:
 516              	.LBE59:
 517              		.loc 1 94 0
 518 000c 00F12805 		add	r5, r0, #40
 519              		.loc 1 96 0
 520 0010 067F     		ldrb	r6, [r0, #28]	@ zero_extendqisi2
 521              		.loc 1 94 0
 522 0012 2562     		str	r5, [r4, #32]
 523              	.LVL2:
 524              	.LBB60:
 525              	.LBB61:
 526              		.file 3 "../../../os/rt/include/chschd.h"
 527              		.loc 3 666 0
 528 0014 C26A     		ldr	r2, [r0, #44]
ARM GAS  /var/folders/c6/c789hm653lg9vtl73krp73tm0000gn/T//cciZXqwa.s 			page 38


 529 0016 6260     		str	r2, [r4, #4]
 530              	.LBE61:
 531              	.LBE60:
 532              		.loc 1 96 0
 533 0018 0E2E     		cmp	r6, #14
 534              		.loc 1 93 0
 535 001a 2163     		str	r1, [r4, #48]
 536              	.LBB63:
 537              	.LBB62:
 538              		.loc 3 665 0
 539 001c 2560     		str	r5, [r4]
 540              		.loc 3 667 0
 541 001e 1460     		str	r4, [r2]
 542              		.loc 3 668 0
 543 0020 C462     		str	r4, [r0, #44]
 544              	.LBE62:
 545              	.LBE63:
 546              		.loc 1 96 0
 547 0022 07D0     		beq	.L4
 548              	.LVL3:
 549              	.L2:
 550              		.loc 1 99 0
 551 0024 0C20     		movs	r0, #12
 552 0026 FFF7FEFF 		bl	chSchGoSleepS
 553              	.LVL4:
 554              		.loc 1 100 0
 555 002a 206A     		ldr	r0, [r4, #32]
 556              	.LVL5:
 557              	.LBB64:
 558              	.LBB65:
 559              	.LBB66:
 560              	.LBB67:
 561              	.LBB68:
 562              		.loc 2 546 0
 563 002c 0023     		movs	r3, #0
 564              	@ 546 "../../../os/ext/CMSIS/include/core_cmFunc.h" 1
 565 002e 83F31188 		MSR basepri, r3
 566              	@ 0 "" 2
 567              		.thumb
 568              	.LBE68:
 569              	.LBE67:
 570              	.LBE66:
 571              	.LBE65:
 572              	.LBE64:
 573              		.loc 1 104 0
 574 0032 70BD     		pop	{r4, r5, r6, pc}
 575              	.LVL6:
 576              	.L4:
 577              		.loc 1 97 0
 578 0034 FFF7FEFF 		bl	chSchReadyI
 579              	.LVL7:
 580 0038 F4E7     		b	.L2
 581              	.L6:
 582 003a 00BF     		.align	2
 583              	.L5:
 584 003c 00000000 		.word	ch
 585              		.cfi_endproc
ARM GAS  /var/folders/c6/c789hm653lg9vtl73krp73tm0000gn/T//cciZXqwa.s 			page 39


 586              	.LFE229:
 587              		.size	chMsgSend, .-chMsgSend
 588              		.section	.text.chMsgWait,"ax",%progbits
 589              		.align	2
 590              		.p2align 4,,15
 591              		.global	chMsgWait
 592              		.thumb
 593              		.thumb_func
 594              		.type	chMsgWait, %function
 595              	chMsgWait:
 596              	.LFB230:
 597              		.loc 1 120 0
 598              		.cfi_startproc
 599              		@ args = 0, pretend = 0, frame = 0
 600              		@ frame_needed = 0, uses_anonymous_args = 0
 601              	.LVL8:
 602 0000 10B5     		push	{r4, lr}
 603              		.cfi_def_cfa_offset 8
 604              		.cfi_offset 4, -8
 605              		.cfi_offset 14, -4
 606              	.LBB69:
 607              	.LBB70:
 608              	.LBB71:
 609              	.LBB72:
 610              		.loc 2 546 0
 611 0002 2023     		movs	r3, #32
 612              	@ 546 "../../../os/ext/CMSIS/include/core_cmFunc.h" 1
 613 0004 83F31188 		MSR basepri, r3
 614              	@ 0 "" 2
 615              		.thumb
 616              	.LBE72:
 617              	.LBE71:
 618              	.LBE70:
 619              	.LBE69:
 620              		.loc 1 124 0
 621 0008 0B4C     		ldr	r4, .L10
 622 000a A269     		ldr	r2, [r4, #24]
 623              	.LVL9:
 624              	.LBB73:
 625              	.LBB74:
 626              		.file 4 "../../../os/rt/include/chmsg.h"
 627              		.loc 4 83 0
 628 000c 1346     		mov	r3, r2
 629 000e 53F8280F 		ldr	r0, [r3, #40]!
 630              	.LBE74:
 631              	.LBE73:
 632              		.loc 1 124 0
 633 0012 9842     		cmp	r0, r3
 634 0014 08D0     		beq	.L9
 635              	.LVL10:
 636              	.L8:
 637              	.LBB75:
 638              	.LBB76:
 639              		.loc 3 674 0
 640 0016 0168     		ldr	r1, [r0]
 641 0018 9162     		str	r1, [r2, #40]
 642              	.LBE76:
ARM GAS  /var/folders/c6/c789hm653lg9vtl73krp73tm0000gn/T//cciZXqwa.s 			page 40


 643              	.LBE75:
 644              		.loc 1 128 0
 645 001a 0D22     		movs	r2, #13
 646              	.LBB78:
 647              	.LBB77:
 648              		.loc 3 675 0
 649 001c 4B60     		str	r3, [r1, #4]
 650              	.LBE77:
 651              	.LBE78:
 652              	.LBB79:
 653              	.LBB80:
 654              	.LBB81:
 655              	.LBB82:
 656              	.LBB83:
 657              		.loc 2 546 0
 658 001e 0023     		movs	r3, #0
 659              	.LVL11:
 660              	.LBE83:
 661              	.LBE82:
 662              	.LBE81:
 663              	.LBE80:
 664              	.LBE79:
 665              		.loc 1 128 0
 666 0020 0277     		strb	r2, [r0, #28]
 667              	.LVL12:
 668              	.LBB88:
 669              	.LBB87:
 670              	.LBB86:
 671              	.LBB85:
 672              	.LBB84:
 673              		.loc 2 546 0
 674              	@ 546 "../../../os/ext/CMSIS/include/core_cmFunc.h" 1
 675 0022 83F31188 		MSR basepri, r3
 676              	@ 0 "" 2
 677              		.thumb
 678              	.LBE84:
 679              	.LBE85:
 680              	.LBE86:
 681              	.LBE87:
 682              	.LBE88:
 683              		.loc 1 132 0
 684 0026 10BD     		pop	{r4, pc}
 685              	.LVL13:
 686              	.L9:
 687              		.loc 1 125 0
 688 0028 0E20     		movs	r0, #14
 689 002a FFF7FEFF 		bl	chSchGoSleepS
 690              	.LVL14:
 691 002e A269     		ldr	r2, [r4, #24]
 692 0030 906A     		ldr	r0, [r2, #40]
 693 0032 02F12803 		add	r3, r2, #40
 694 0036 EEE7     		b	.L8
 695              	.L11:
 696              		.align	2
 697              	.L10:
 698 0038 00000000 		.word	ch
 699              		.cfi_endproc
ARM GAS  /var/folders/c6/c789hm653lg9vtl73krp73tm0000gn/T//cciZXqwa.s 			page 41


 700              	.LFE230:
 701              		.size	chMsgWait, .-chMsgWait
 702 003c AFF30080 		.section	.text.chMsgRelease,"ax",%progbits
 703              		.align	2
 704              		.p2align 4,,15
 705              		.global	chMsgRelease
 706              		.thumb
 707              		.thumb_func
 708              		.type	chMsgRelease, %function
 709              	chMsgRelease:
 710              	.LFB231:
 711              		.loc 1 144 0
 712              		.cfi_startproc
 713              		@ args = 0, pretend = 0, frame = 0
 714              		@ frame_needed = 0, uses_anonymous_args = 0
 715              	.LVL15:
 716 0000 08B5     		push	{r3, lr}
 717              		.cfi_def_cfa_offset 8
 718              		.cfi_offset 3, -8
 719              		.cfi_offset 14, -4
 720              	.LBB89:
 721              	.LBB90:
 722              	.LBB91:
 723              	.LBB92:
 724              		.loc 2 546 0
 725 0002 2023     		movs	r3, #32
 726              	@ 546 "../../../os/ext/CMSIS/include/core_cmFunc.h" 1
 727 0004 83F31188 		MSR basepri, r3
 728              	@ 0 "" 2
 729              	.LVL16:
 730              		.thumb
 731              	.LBE92:
 732              	.LBE91:
 733              	.LBE90:
 734              	.LBE89:
 735              	.LBB93:
 736              	.LBB94:
 737              		.loc 4 115 0
 738 0008 FFF7FEFF 		bl	chSchWakeupS
 739              	.LVL17:
 740              	.LBE94:
 741              	.LBE93:
 742              	.LBB95:
 743              	.LBB96:
 744              	.LBB97:
 745              	.LBB98:
 746              	.LBB99:
 747              		.loc 2 546 0
 748 000c 0023     		movs	r3, #0
 749              	@ 546 "../../../os/ext/CMSIS/include/core_cmFunc.h" 1
 750 000e 83F31188 		MSR basepri, r3
 751              	@ 0 "" 2
 752              		.thumb
 753 0012 08BD     		pop	{r3, pc}
 754              	.LBE99:
 755              	.LBE98:
 756              	.LBE97:
ARM GAS  /var/folders/c6/c789hm653lg9vtl73krp73tm0000gn/T//cciZXqwa.s 			page 42


 757              	.LBE96:
 758              	.LBE95:
 759              		.cfi_endproc
 760              	.LFE231:
 761              		.size	chMsgRelease, .-chMsgRelease
 762 0014 AFF30080 		.text
 762      AFF30080 
 762      AFF30080 
 763              	.Letext0:
 764              		.file 5 "/usr/local/Cellar/gcc-arm-none-eabi/20140805/arm-none-eabi/include/machine/_default_types
 765              		.file 6 "/usr/local/Cellar/gcc-arm-none-eabi/20140805/arm-none-eabi/include/stdint.h"
 766              		.file 7 "../../../os/rt/ports/ARMCMx/compilers/GCC/chtypes.h"
 767              		.file 8 "../../../os/rt/include/chsystypes.h"
 768              		.file 9 "../../../os/rt/ports/ARMCMx/chcore.h"
 769              		.file 10 "../../../os/rt/ports/ARMCMx/chcore_v7m.h"
 770              		.file 11 "../../../os/rt/include/chtm.h"
 771              		.file 12 "../../../os/rt/include/chsem.h"
 772              		.file 13 "../../../os/rt/include/chmtx.h"
 773              		.file 14 "../../../os/rt/include/chsys.h"
 774              		.file 15 "../../../os/ext/CMSIS/include/core_cm4.h"