ARM GAS  /var/folders/c6/c789hm653lg9vtl73krp73tm0000gn/T//cciZXqwa.s 			page 1


   1              		.syntax unified
   2              		.cpu cortex-m4
   3              		.fpu softvfp
   4              		.eabi_attribute 20, 1
   5              		.eabi_attribute 21, 1
   6              		.eabi_attribute 23, 3
   7              		.eabi_attribute 24, 1
   8              		.eabi_attribute 25, 1
   9              		.eabi_attribute 26, 1
  10              		.eabi_attribute 30, 2
  11              		.eabi_attribute 34, 1
  12              		.eabi_attribute 18, 4
  13              		.thumb
  14              		.file	"chmsg.c"
  15              		.text
  16              	.Ltext0:
  17              		.section	.gnu.lto_.jmpfuncs.ca6c227b430c66ec,"",%progbits
  18 0000 789C6362 		.ascii	"x\234cb`b\300\0064\24143\0033#S\004c&#\003\017\003\003"
  18      6062C006 
  18      34A13433 
  18      03332353 
  18      04632623 
  19 0018 23035035 		.ascii	"#\003P5\224\313\007\224cf\002)``,\003*\004\0009\234"
  19      94CB0794 
  19      63660229 
  19      60602C03 
  19      2A040039 
  20 002d 025F     		.ascii	"\002_"
  21              		.text
  22              		.section	.gnu.lto_.inline.ca6c227b430c66ec,"",%progbits
  23 0000 789C6362 		.ascii	"x\234cb`b\300\006\342\24043\003\203\250,##\003#\220"
  23      6062C006 
  23      E2A03433 
  23      0383A82C 
  23      23230323 
  24 0015 CD24B9E2 		.ascii	"\315$\271\3420#\003\347\0153\260\026&n\006\240(\230"
  24      302303E7 
  24      0D33B016 
  24      266E06A0 
  24      2898
  25 0027 9CE0C7C4 		.ascii	"\234\340\307\304 \310\017\344H\034\330\315\310\300\266"
  25      20C80FE4 
  25      481CD8CD 
  25      C8C0B6
  26 0036 401E4901 		.ascii	"@\036I\0013\003\207\000P\206e\201<\\\202\231\007(9\301"
  26      33038700 
  26      50866581 
  26      3C5C8299 
  26      072839C1 
  27 004a 6F821F03 		.ascii	"o\202\037\003\000\332\004\0128"
  27      00DA040A 
  27      38
  28              		.text
  29              		.section	.gnu.lto_.pureconst.ca6c227b430c66ec,"",%progbits
  30 0000 789C6362 		.ascii	"x\234cb`b`g\200\000f\006+&+f+\000\002\361\000\302"
  30      60626067 
  30      80006606 
ARM GAS  /var/folders/c6/c789hm653lg9vtl73krp73tm0000gn/T//cciZXqwa.s 			page 2


  30      2B262B66 
  30      2B0002F1 
  31              		.text
  32              		.section	.gnu.lto_chMsgSend.ca6c227b430c66ec,"",%progbits
  33 0000 789C8D54 		.ascii	"x\234\215T]h\024W\024>g\356lf\222\315\232\325\026\212"
  33      5D681457 
  33      143E67EE 
  33      6C6692CD 
  33      9AD5168A 
  34 0014 7F711104 		.ascii	"\177q\021\004k\342n\333\027[\004Q\004A0/\306P}\222\361"
  34      6BE26EDB 
  34      175B0451 
  34      0441302F 
  34      C6507D92 
  35 0029 6649065C 		.ascii	"fI\006\\\263\331\335\210\326\207\314\306\024Z0\255\010"
  35      B3D9DD88 
  35      D687CCC6 
  35      145A30AD 
  35      08
  36 003a 425444C5 		.ascii	"BTD\305\027\177\300H\244(\370\223\005%t\033L\252\276"
  36      177FC048 
  36      A428F893 
  36      0525741B 
  36      4CAABE
  37 004d 4808BAE4 		.ascii	"H\010\272\344\301\277B\023\361ESa{\356\2753\263\331"
  37      C1BF4213 
  37      F1455361 
  37      7BEEBD33 
  37      B3D9
  38 005f D5186777 		.ascii	"\325\030gw\346\2369s\317w\276{\316\275\237\006\032T"
  38      E69E3973 
  38      CF77BE7B 
  38      CEBD9F06 
  38      1A54
  39 0071 5EDFD1FD 		.ascii	"^\337\321\375\250\012`\222F\014\000jGG\001\262\246\246"
  39      A80A6092 
  39      460C006A 
  39      474701B2 
  39      A6A6
  40 0083 B1E13A70 		.ascii	"\261\341:pj\364\2776\200S\313PWn\035Q\030\200\320\255"
  40      6AF4BF36 
  40      8053CB50 
  40      576E1D51 
  40      1880D0AD 
  41 0097 311DBB77 		.ascii	"1\035\273w\241\300\300\225p\316q\216\025~\376\367\005"
  41      A1C0C095 
  41      70CE718E 
  41      157EFEF7 
  41      05
  42 00a8 9E7072BD 		.ascii	"\236pr\275g\235\367\305\"\242\215\224\257\036\201#\354"
  42      679DF7C5 
  42      22A28D94 
  42      AF1E8123 
  42      EC
  43 00b9 A4178CC8 		.ascii	"\244\027\214\310A\323\313\011\014h\271B\261\370\376"
  43      41D3CB09 
  43      0C68B942 
ARM GAS  /var/folders/c6/c789hm653lg9vtl73krp73tm0000gn/T//cciZXqwa.s 			page 3


  43      B1F8FE
  44 00c8 8F17938F 		.ascii	"\217\027\223\217q\341W\014,<Gx\001L \030\364@\023ld"
  44      71E1570C 
  44      2C3C4778 
  44      014C2018 
  44      F440136C 
  45 00dd 417AE80B 		.ascii	"Az\350\013\200|a\262DX\000z\035\347hD\315N -\214K\377"
  45      807C61B2 
  45      4458007A 
  45      1DE76844 
  45      CD4E202D 
  46 00f4 0E7A0A8A 		.ascii	"\016z\012\212-\344\242\221\335\207\236\361~\342e\341"
  46      2DE4A291 
  46      DD879EF1 
  46      7EE265E1 
  47 0104 795A5E1B 		.ascii	"yZ^\033\262\006\270\344\320\365#\3014\300\032\033\003"
  47      B206B8E4 
  47      D0F523C1 
  47      34C01A1B 
  47      03
  48 0115 A7E064D6 		.ascii	"\247\340d\326q\3026V\035\202\031\347\027a\031\011d\204"
  48      71C23656 
  48      1D8219E7 
  48      17611909 
  48      6484
  49 0127 25E81A92 		.ascii	"%\350\032\222\344\036\004wt\015\310COn\271\002U\034"
  49      E41E0477 
  49      740DC843 
  49      4F6EB902 
  49      551C
  50 0139 DA440879 		.ascii	"\332D\010yM\000\267\034\307__o,+\207\251\301\266\371"
  50      4D00B71C 
  50      C75F5F6F 
  50      2C2B87A9 
  50      C1B6F9
  51 014c CA217C66 		.ascii	"\312!|f\204\214Q\350y}\351\356\340\021\346\256\324["
  51      848C51E8 
  51      797DE9EE 
  51      E011E6AE 
  51      D45B
  52 015e 72EEF2CC 		.ascii	"r\356\362\314TX\263\360\002\345\364}\305\337o\005\227"
  52      5458B3F0 
  52      02E5F47D 
  52      C5DF6F05 
  52      97
  53 016f F96FBF3E 		.ascii	"\371o\277>!\226\212\033G\221P\243\233\311N\321\357\014"
  53      21968A1B 
  53      479150A3 
  53      9BC94ED1 
  53      EF0C
  54 0181 99542EA6 		.ascii	"\231T.\2466C=\\\305\323N\377F\033\253\313\322\227\276"
  54      36433D5C 
  54      C5D34EFF 
  54      461BABCB 
  54      D297BE
  55 0194 5F73BFD7 		.ascii	"_s\277\327(\202T\320\221\033S\323nA\335j\206l\014R\035"
  55      288254D0 
ARM GAS  /var/folders/c6/c789hm653lg9vtl73krp73tm0000gn/T//cciZXqwa.s 			page 4


  55      911B53D3 
  55      6E41DD6A 
  55      866C0C52 
  56 01a9 29B896EA 		.ascii	")\270\226\352 @\274z\251\035\327FSE\344\314\341\377"
  56      2040BC7A 
  56      A91DD746 
  56      5345E4CC 
  56      E1FF
  57 01bb FAD67AAD 		.ascii	"\372\326z\2550\017\301O\266\337\220N\033C>\2041\033"
  57      300FC14F 
  57      B6DF904E 
  57      1B433E84 
  57      311B
  58 01cd 8295AA43 		.ascii	"\202\225\252C\020\371\351\232\262\324\353l\\PbQ\367"
  58      10F9E99A 
  58      B2D4EB6C 
  58      5C506251 
  58      F7
  59 01de 7116BA3B 		.ascii	"q\026\272;\006\\6\246lUa\210+(\325\260\334\323\341\021"
  59      065C36A6 
  59      6C556188 
  59      2B28D5B0 
  59      DCD3E111 
  60 01f2 748E39D9 		.ascii	"t\2169\331\351b\261Nn\336\2338_\273\274\256\177\032"
  60      E962B14E 
  60      6EDE9B38 
  60      5FBBBCAE 
  60      7F1A
  61 0204 8A6970E7 		.ascii	"\212ip\3473\240LU\335\211\311\374\345\273Fe\333G\236"
  61      33A04C55 
  61      DD89C9FC 
  61      E5BB4665 
  61      DB479E
  62 0217 7E6BE16D 		.ascii	"~k\341mj\272\2057e\353\275\006K\030U\201\302\361\321"
  62      6ABA8537 
  62      65EBBD06 
  62      4B185581 
  62      C2F1D1
  63 022a 892501A2 		.ascii	"\211%\001\242\356\357\351\312BT\211\270\234\250\203"
  63      EEEFE9CA 
  63      425489B8 
  63      9CA883
  64 0239 976EFCF1 		.ascii	"\227n\374\361\225\276\006\013\207dK\302\362H\224\302"
  64      95BE060B 
  64      87644BC2 
  64      F24894C2 
  65 0249 436E2BD8 		.ascii	"Cn+\330j\025n\370\341\252\027\177\033*\322m@\360S\251"
  65      6A156EF8 
  65      E1AA177F 
  65      1B2AD26D 
  65      40F053A9 
  66 025d CD59A9C3 		.ascii	"\315Y\251\303j\245o\257\364E\313\000\326W\000\204\347"
  66      6AA56FAF 
  66      F445CB00 
  66      D6570084 
  66      E7
  67 026e E2CE1440 		.ascii	"\342\316\024@\377@\337\2122\200\320\347\261\367\000"
ARM GAS  /var/folders/c6/c789hm653lg9vtl73krp73tm0000gn/T//cciZXqwa.s 			page 5


  67      FF40DF8A 
  67      3280D0E7 
  67      B1F700
  68 027d C627CEFE 		.ascii	"\306'\316\376\266\330\333\217A\271\370\360\3077a\265"
  68      B6D8DB8F 
  68      41B9F8F0 
  68      C73761B5 
  69 028d DBA53FE1 		.ascii	"\333\245?\341\336\363l\310\017\021SH\230JW\013!\017"
  69      DEF36CC8 
  69      0F115348 
  69      984A570B 
  69      210F
  70 029f D7B131E8 		.ascii	"\327\2611\350-\344\317\273\207\004\300W\226\205\334"
  70      2DE4CFBB 
  70      8704C057 
  70      9685DC
  71 02ae DF83868D 		.ascii	"\337\203\206\215\213\274\030]j\225\010\0329\\\363A\320"
  71      8BBC185D 
  71      6A95081A 
  71      395CF341 
  71      D0
  72 02bf 175CACDD 		.ascii	"\027\\\254\335=\235z-)\340\227\212}\377\233\357=&\336"
  72      3D9D7A2D 
  72      29E0978A 
  72      7DFF9BEF 
  72      3D26DE
  73 02d2 1968B6C5 		.ascii	"\031h\266\305:\244\371\303\274\307\301=\322R\314\014"
  73      3AA4F9C3 
  73      BCC7C13D 
  73      D252CC0C 
  74 02e2 8544124B 		.ascii	"\205D\022K`\225J\366\362V\205\222YxQ\252\312\274R&\214"
  74      60954AF6 
  74      F2568592 
  74      597851AA 
  74      CABC5226 
  75 02f7 B9A5ECD5 		.ascii	"\271\245\354\325;!e\017\313\245\354\237`\275\257\357"
  75      3B21650F 
  75      CBA5EC9F 
  75      60BDAFEF 
  76 0307 BE3BFF6C 		.ascii	"\276;\377l\226\246IQ\346\004\376\241\254Y8@\206\237"
  76      96A64951 
  76      E604FEA1 
  76      AC593840 
  76      869F
  77 0319 DA93310B 		.ascii	"\332\2231\013\007\261^\321z\000\331\302\030\367\353"
  77      07B15ED1 
  77      7A00D9C2 
  77      18F7EB
  78 0328 A69C3BE8 		.ascii	"\246\234;\350xR\013\304\334\245\321hL\375;\322\261T"
  78      78520BC4 
  78      DCA5D168 
  78      4CFD3BD2 
  78      B154
  79 033a 26964EF1 		.ascii	"&\226N\361\030oO\244\333\242\034\030\317$\277\256\370"
  79      186F4FA4 
  79      DBA21C18 
  79      CF24BFAE 
ARM GAS  /var/folders/c6/c789hm653lg9vtl73krp73tm0000gn/T//cciZXqwa.s 			page 6


  79      F8
  80 034b 9EEC4865 		.ascii	"\236\354He\322\261M\333\23367\035\240\211\274#\025\337"
  80      D2B14DDB 
  80      9B36371D 
  80      A089BC23 
  80      15DF
  81 035d BD7F5D22 		.ascii	"\275\177]\"\332\016\201\375\326\336\256x\343\354\371"
  81      DA0E81FD 
  81      D6DEAE78 
  81      E3ECF9
  82 036c F10399D8 		.ascii	"\361\003\231\330\346\246\346\255\3151{\037\337\333\325"
  82      E6A6E6AD 
  82      CD317B1F 
  82      DFDBD5
  83 037b 1A8FC9F9 		.ascii	"\032\217\311\371<\261\245k\037\247\220\025\025\340\376"
  83      3CB1A56B 
  83      1FA79015 
  83      15E0FE
  84 038a ACF6F4C1 		.ascii	"\254\366\364\3014}\01775o\217\354\261\322\361d\312n"
  84      347D0F37 
  84      356F8FEC 
  84      B1D2F164 
  84      CA6E
  85 039c 8CACFA06 		.ascii	"\214\254\372\006\264\024\030\211x\242#u\020\264L\222"
  85      B4141889 
  85      78A22375 
  85      10B44C92 
  86 03ac 653A9391 		.ascii	"e:\223\221\271!x{+a\374\017t\247\326\025"
  86      B921787B 
  86      2B61FC0F 
  86      74A7D615 
  87              		.text
  88              		.section	.gnu.lto_chMsgWait.ca6c227b430c66ec,"",%progbits
  89 0000 789C9D55 		.ascii	"x\234\235U]h\023Y\024>\347\316$\3236I-\356\213?k\015"
  89      5D681359 
  89      143EE7CE 
  89      24D33649 
  89      2DEE8B3F 
  90 0016 82A0B6DB 		.ascii	"\202\240\266\333\021|\220}\020\024A\220\245/Vq}Z\246"
  90      117C907D 
  90      10144190 
  90      A52F5671 
  90      7D5AA6
  91 0029 636802C6 		.ascii	"ch\002\306\326$\025\177@ok\005\301V\253\276Te\027\177"
  91      D624157F 
  91      406F6B05 
  91      C156ABBE 
  91      5465177F 
  92 003d 91555921 		.ascii	"\221UY!*\212\210\215X\324R\326eY\004\225}\210\260\254"
  92      2A8A888D 
  92      58D452D6 
  92      65590495 
  92      7D88B0AC 
  93 0051 7F0B1AB5 		.ascii	"\177\013\032\265P\253m\366\334{g&?h[\274If\316\334{"
  93      50AB6DF6 
  93      DC7B6726 
  93      3F685BBC 
ARM GAS  /var/folders/c6/c789hm653lg9vtl73krp73tm0000gn/T//cciZXqwa.s 			page 7


  93      4966CEDC 
  94 0066 CF77CEF9 		.ascii	"\317w\316\371\3567'\014\030\224\217%\364{\357\007\030"
  94      EE37270C 
  94      18948F25 
  94      F47BEF07 
  94      18
  95 0077 A73BFA00 		.ascii	"\247;\372\000Y\357\003\200\216\012\306\264a\003x\225"
  95      59EF0380 
  95      8E0AC6B4 
  95      61037895 
  96 0087 7EFC2E00 		.ascii	"~\374.\000\017j\250\253y\035Q\030\200\260\233i:\356"
  96      0F6AA8AB 
  96      791D5118 
  96      80B09B69 
  96      3AEE
  97 0099 DE800204 		.ascii	"\336\200\002\004\347\301I\316\017g\317\216?\307\243"
  97      E7C149CE 
  97      0F67CF8E 
  97      3FC7A3
  98 00a8 3CD37582 		.ascii	"<\323u\202\177\312\347\021cH\001k\021l\204\037\351\001"
  98      7FCAE711 
  98      6348016B 
  98      116C841F 
  98      E901
  99 00ba C3F2C6F4 		.ascii	"\303\362\306\364\322\014.\261L6\237\357\356\377\357"
  99      D20C2EB1 
  99      4C369FEF 
  99      EEFFEF
 100 00c9 69374EFF 		.ascii	"i7N\377F\007\362\362\213\213A\027- \254\240\260B`\341"
 100      4607F2F2 
 100      8B8B4117 
 100      2D20ACA0 
 100      B04260E1 
 101 00dd 490A542D 		.ascii	"I\012T-fh\370\240\213\363\336\260\232\004\021\203\306"
 101      6668F8A0 
 101      8BF3DEB0 
 101      9A041183 
 101      C6
 102 00ee 5ABA8AFC 		.ascii	"Z\272\212\374\326!\023wm\020:+\000\234\354\216\344\256"
 102      D6211377 
 102      6D103A2B 
 102      009CEC8E 
 102      E4AE
 103 0100 D59764A7 		.ascii	"\325\227d\2473\370a\262\354\304\234\036&\343\001t\346"
 103      33F861B2 
 103      ECC49C1E 
 103      26E30174 
 103      E6
 104 0111 7EBD93EE 		.ascii	"~\275\223\356\326\234\300n\006\231s\243\257k\230\205"
 104      D69CC06E 
 104      069973A3 
 104      AF6B9885 
 105 0121 67641ACE 		.ascii	"gd\032\316\334\307\2037\003\337zO\203c\224\226\205\247"
 105      DCC78337 
 105      03DF7A4F 
 105      83639496 
 105      85A7
ARM GAS  /var/folders/c6/c789hm653lg9vtl73krp73tm0000gn/T//cciZXqwa.s 			page 8


 106 0133 895F1B45 		.ascii	"\211_\033E@F?M\022G\237_\310\244s\321\324\341\324\302"
 106      40463F4D 
 106      12479F5F 
 106      C8A473D1 
 106      D4E1D4C2 
 107 0147 25FC99F7 		.ascii	"%\374\231\367-\217\321\346\342\360\205\365\264\263\356"
 107      2D8FD1E6 
 107      E2F085F5 
 107      B4B3EE
 108 0156 5709FE0E 		.ascii	"W\011\376\016\235O\372\362#L\341\267\240^\007\213\210"
 108      9D4FFAF2 
 108      234CE1B7 
 108      A05E078B 
 108      88
 109 0167 A13A38CF 		.ascii	"\241:8\317il\211\241q\034\216up^\023\303\212\2350\312"
 109      696C89A1 
 109      711C8E75 
 109      705E13C3 
 109      8A9D30CA 
 110 017b F709AB32 		.ascii	"\367\011\2532\216.z\245DiFp\356\216\001D]\306T\240\212"
 110      8E2E7AA5 
 110      44694670 
 110      EE8E0144 
 110      5DC654A0 
 111 0190 BF4CEE5E 		.ascii	"\277L\356^\317L~\242\263\227\217\023}\024\302\302S\262"
 111      CF4C7EA2 
 111      B3978F13 
 111      7D14C2C2 
 111      53B2
 112 01a2 9289E8A3 		.ascii	"\222\211\350\243|T\212\177\337z|lW9u\373\307s>\013/"
 112      7C548A7F 
 112      DF7A7C6C 
 112      573975FB 
 112      C7733E0B 
 113 01b7 4BE65C7E 		.ascii	"K\346\\~t\345\026P\005d\207\207\036\346P+\024\264>\206"
 113      74E51650 
 113      05648787 
 113      1EE6502B 
 113      14B43E86 
 114 01cb 555E4101 		.ascii	"U^A\001\202\027Q\335\334\231\200\271*\230k\026\374:"
 114      821751DD 
 114      DC9980B9 
 114      2A986B16 
 114      FC3A
 115 01dd B64C6074 		.ascii	"\266L`t\317\015\315\302+\222\242\340N\330A\212r\020"
 115      CF0DCDC2 
 115      2B92A2E0 
 115      4ED8418A 
 115      7210
 116 01ef DFE1D420 		.ascii	"\337\341\324 =\264\3730\360\354\351\336\374b\227qr\011"
 116      3DB4FB30 
 116      F0ECE9DE 
 116      FC629771 
 116      7209
 117 0201 162A5E47 		.ascii	"\026*^G\221\207\015\355\017\350\312\216\335\251R{\000"
 117      91870DED 
 117      0FE8CA8E 
ARM GAS  /var/folders/c6/c789hm653lg9vtl73krp73tm0000gn/T//cciZXqwa.s 			page 9


 117      DDA9527B 
 117      00
 118 0212 3CE683B6 		.ascii	"<\346\203\266\002\221l\205\204\230\253]?]JV\2205\222"
 118      02916C85 
 118      8498AB5D 
 118      3F5D4A56 
 118      903592
 119 0225 7FA4B9E8 		.ascii	"\177\244\271\350~\367<\027}\365Q\312\362\377E\027\321"
 119      7EF73C17 
 119      7DF551CA 
 119      F2FF4517 
 119      D1
 120 0236 2829FF90 		.ascii	"()\377\220S>\312\332\375e\265\273C\250\341\373\211\324"
 120      533ECADA 
 120      FD65B5BB 
 120      43A8E1FB 
 120      89D4
 121 0248 A0317882 		.ascii	"\2401x\202\223\275L\024\333Q\303\353\333\027O\033\216"
 121      93BD4C14 
 121      DB51C3EB 
 121      DB174F1B 
 121      8E
 122 0259 1C14204F 		.ascii	"\034\024 Os^)_Mm\212\332\362d4\224\267,\034(Q\221_\205"
 122      735E295F 
 122      4D6D8ADA 
 122      F2643494 
 122      B72C1C28 
 123 0271 0B392A1A 		.ascii	"\0139*\032;\360\317\254\357\010\326\343\257\312)U[\240"
 123      3BF0CFAC 
 123      EF08D6E3 
 123      AFCA2955 
 123      5BA0
 124 0283 4A956AB9 		.ascii	"J\225j\271\257\216F\324:\307\302\273\364d\341=\202%"
 124      AF8E46D4 
 124      3AC7C2BB 
 124      F464E13D 
 124      8225
 125 0295 1C95F6A3 		.ascii	"\034\225\366\243tO\235Zh\301ju.\305\302\011\025\223"
 125      744F9D5A 
 125      68C16A75 
 125      2EC5C209 
 125      1593
 126 02a7 A7172192 		.ascii	"\247\027!\222\357\340\033Cy:\264\207\246\226M\213\220"
 126      EFE01B43 
 126      793AB487 
 126      A6964D8B 
 126      90
 127 02b8 07B90F8D 		.ascii	"\007\271\017\215\244{\314\022\200ee\301\253\213\203"
 127      A47BCC12 
 127      806565C1 
 127      AB8B83
 128 02c7 FB8A000C 		.ascii	"\373\212\000\014Y\321\233\267\3753\0249n\307\224\270"
 128      59D19BB7 
 128      FD331439 
 128      6EC794B8 
 129 02d7 D7FB4E7D 		.ascii	"\327\373N}p\204\341\340\006b8\315\223CIE\376\202nC\212"
 129      7084E1E0 
ARM GAS  /var/folders/c6/c789hm653lg9vtl73krp73tm0000gn/T//cciZXqwa.s 			page 10


 129      066238CD 
 129      93434945 
 129      FE826E43 
 130 02ec A6A2DEFA 		.ascii	"\246\242\336\372\342fYo\265\360\354\244'(\273\2330\276"
 130      E266596F 
 130      B5F0ECA4 
 130      2728BB9B 
 130      30BE
 131 02fe DC5C5F7E 		.ascii	"\334\\_~\020\315\365\257\322\346\372*P\353\375\001\024"
 131      10CDF5AF 
 131      D2E6FA2A 
 131      50EBFD01 
 131      14
 132 030f BAEC002B 		.ascii	"\272\354\000+\234\277!Pm\254\370L\243\265\360\002\031"
 132      9CBF2150 
 132      6DACF84C 
 132      A3B5F002 
 132      19
 133 0320 5E68B7B1 		.ascii	"^h\267\261Z\370\033\326\252\264\376\204\216\354\376"
 133      5AF81BD6 
 133      AAB4FE84 
 133      8EECFE
 134 032f 88FBBA84 		.ascii	"\210\373\272\204\324\344ZR7\275\237b\357\354\206\006"
 134      D4E45A52 
 134      37BD9F62 
 134      EFEC8606 
 135 033f 537D5B93 		.ascii	"S}[\223f\"e&\023\266iG\343\311\226\006\033X\252ma\331"
 135      66226526 
 135      13B66947 
 135      E3C99606 
 135      1B58AA6D 
 136 0355 725B6B22 		.ascii	"r[k\"\2254W\254i\\\331\270\215\366\331\255\211\310O"
 136      953457AC 
 136      695CD9B8 
 136      8DF6D9AD 
 136      89C84F
 137 0368 5B97C61B 		.ascii	"[\227\306\033\242\340\333jmj\217\324\027\357\217lK\231"
 137      A2E0DB6A 
 137      6D6A8FD4 
 137      17EF8F6C 
 137      4B99
 138 037a 2B1B9B56 		.ascii	"+\033\233V7\231\261\315\366\246\366\215\021S\356\267"
 138      3799B1CD 
 138      F6A6F68D 
 138      1153EEB7 
 139 038a E3ABDA37 		.ascii	"\343\253\3327\333\3442\267\014\334\333\025MnO\322zM"
 139      DBE432B7 
 139      0CDCDB15 
 139      4D6E4FD2 
 139      7A4D
 140 039c 63D39A70 		.ascii	"c\323\232p\263\225\214\264%b\365\341\371\213\201%\300"
 140      B3958CB4 
 140      2562F5E1 
 140      F98B8125 
 140      C0
 141 03ad 8847E2AD 		.ascii	"\210G\342\255\211\355\023\370\212\334\243\240\245\266"
 141      89ED13F8 
ARM GAS  /var/folders/c6/c789hm653lg9vtl73krp73tm0000gn/T//cciZXqwa.s 			page 11


 141      8ADCA3A0 
 141      A5B6
 142 03bb B485BF8C 		.ascii	"\264\205\277\214oG7\322\246\377\001\333\232\360\354"
 142      6F4737D2 
 142      A6FF01DB 
 142      9AF0EC
 143              		.text
 144              		.section	.gnu.lto_chMsgRelease.ca6c227b430c66ec,"",%progbits
 145 0000 789C8D52 		.ascii	"x\234\215RAh\023A\024\375\177\246i\242=\230\253(q)\364"
 145      41681341 
 145      14FD7FA6 
 145      69A23D98 
 145      AB287129 
 146 0015 2084AC37 		.ascii	" \204\2547\257J\241\330C.M\005=\311\272.\315B\267\011"
 146      AF4AA1D8 
 146      432E4D05 
 146      3DC9BA2E 
 146      CD42B709 
 147 0029 BB4969F1 		.ascii	"\273Ii\361\320I\250P\253`\350I\021\305\352I\251\011"
 147      D049A850 
 147      AB60E849 
 147      11C5EA49 
 147      A909
 148 003b 04A1203D 		.ascii	"\004\241 =,x*B\265\007{\023r\021\024\205\306\233\255"
 148      2C782A42 
 148      B5077B13 
 148      72111485 
 148      C69BAD
 149 004e D6F5CF6E 		.ascii	"\326\365\317n\262&\213Z\207\335\231?\377\277y\357\317"
 149      B2268B5A 
 149      87DD993F 
 149      FFBF79EF 
 149      CF
 150 005f FFC38041 		.ascii	"\377\303\200At\034\247\237s\200\367\264\"\007d\265-"
 150      741CA79F 
 150      7380F7B4 
 150      220764B5 
 150      2D
 151 0070 804A8221 		.ascii	"\200J\202!J\003\020\026\030.\\F\037\333`n\313\363\352"
 151      4A031016 
 151      182E5C46 
 151      1FDB606E 
 151      CBF3EA
 152 0083 6F97EB5F 		.ascii	"o\227\353_\360\031;\312\321B\030\240IFc\260(DM\261\220"
 152      F0193BCA 
 152      D14218A0 
 152      494663B0 
 152      28444DB1 
 153 0098 24741F3E 		.ascii	"$t\037>I\263\344\270H.Z\371&T\023\000\303\260*\304J"
 153      49B3E4B8 
 153      482E5AF9 
 153      26541300 
 153      C3B02AC4 
 154 00ad EBA0BD9E 		.ascii	"\353\240\275\236\276'\334\305G\342\207\347!\232H\251"
 154      BE27DCC5 
 154      47E287E7 
 154      219A48A9 
ARM GAS  /var/folders/c6/c789hm653lg9vtl73krp73tm0000gn/T//cciZXqwa.s 			page 12


 155 00bd 5D4079F2 		.ascii	"]@y\362\022mP\361\0276\320\237\253\364\201B\306\026"
 155      126D50F1 
 155      1736D09F 
 155      ABF48142 
 155      C616
 156 00cf 54BF3E7C 		.ascii	"T\277>|\325\274\315;\252]y\367\373\336n\222i\370\030"
 156      D5BCCD3B 
 156      AA5D79F7 
 156      FBDE6E92 
 156      69F818
 157 00e2 87C394DC 		.ascii	"\207\303\224\334\335;\033C'\303\335\315w\224\240\206"
 157      DD3B1B43 
 157      27C3DDCD 
 157      7794A086 
 158 00f2 AB182331 		.ascii	"\253\030#1)\310\350\347\340_\025\341>\231\024\347A\241"
 158      29C8E8E7 
 158      E05F15E1 
 158      3E9914E7 
 158      41A1
 159 0104 52B0860F 		.ascii	"R\260\206\017\304\335sf\000\010\345\177\307\033\235"
 159      C4DD7366 
 159      0008E57F 
 159      C71B9D
 160 0113 7827D1DE 		.ascii	"x'\321\336+\272\333\313\257Q\254\210J\333\363\216\231"
 160      2BBADBCB 
 160      AF51AC88 
 160      4ADBF38E 
 160      99
 161 0124 1863B08E 		.ascii	"\030c\260\216\207]pJ\012\365\220\324DS\210#~\215\270"
 161      875D704A 
 161      0AF590D4 
 161      44538823 
 161      7E8DB8
 162 0137 89830C5E 		.ascii	"\211\203\014^\376\007\0059\336\300\215\366\317\017\373"
 162      FE070539 
 162      DEC08DF6 
 162      CF0FFB
 163 0146 DF305A9F 		.ascii	"\3370Z\237[;\325\230\206\015*\217\206\317\375\"uK\321"
 163      5B3BD598 
 163      860D2A8F 
 163      86CFFD22 
 163      754BD1
 164 0159 A1B90EFB 		.ascii	"\241\271\016\373bI$M\214\353H\310&\305\202\274\210\327"
 164      6249244D 
 164      8CEB48C8 
 164      26C582BC 
 164      88D7
 165 016b C444FF15 		.ascii	"\304D\377\025[\007\0377\"]\324\360\211_\321C\333\010"
 165      5B071F37 
 165      225DD4F0 
 165      895FD143 
 165      DB08
 166 017d FF6CE3A7 		.ascii	"\377l\343\247=\331\306\027\375m\374<\224\012\337Y\350"
 166      3DD9C617 
 166      FD6DFC3C 
 166      940ADF59 
 166      E8
ARM GAS  /var/folders/c6/c789hm653lg9vtl73krp73tm0000gn/T//cciZXqwa.s 			page 13


 167 018e DEDCE9E9 		.ascii	"\336\334\351\351\347\240d\3251\376\207\226j\370\224"
 167      E7A064D5 
 167      31FE8796 
 167      6AF894
 168 019d 8C50BADB 		.ascii	"\214P\272\333B\015\3270\025x\266\241\322\252\217\004"
 168      420DD730 
 168      1578B6A1 
 168      D2AA8F04 
 169 01ad 54DD3149 		.ascii	"T\3351I\365\246\267+\241'2\0315\370\012\216j\227T\307"
 169      F5A6B72B 
 169      A1273219 
 169      35F80A8E 
 169      6A9754C7 
 170 01c1 D6553D6F 		.ascii	"\326U=o9S\031\035NGb\305\202]r\324\363\023\331\321\354"
 170      3953191D 
 170      4E4762C5 
 170      825D72D4 
 170      F313D9D1 
 171 01d6 1C81F482 		.ascii	"\034\201\364\202m\\\231=ke\362\020\233\325\246\313F"
 171      6D5C993D 
 171      6B65F210 
 171      9BD5A6CB 
 171      46
 172 01e7 BA176FCC 		.ascii	"\272\027o\314\225\324\321ln<\247\2323\372t\371\232\241"
 172      95D4D16C 
 172      6E3CA79A 
 172      33FA74F9 
 172      9AA1
 173 01f9 FA78DD1A 		.ascii	"\372x\335\032+\317\350t\344T\204<D\345\235y\207\342"
 173      2BCFE874 
 173      E454843C 
 173      44E59D79 
 173      87E2
 174 020b C96C6E42 		.ascii	"\311lnB\271\2529F\3216\323\312\310\031`6\304-\303*\330"
 174      B9AA3946 
 174      D136D3CA 
 174      C8196036 
 174      C42DC32A 
 175 0220 F3C04A45 		.ascii	"\363\300JEN)\376\235B\346\237\207_C\365\367l"
 175      4E29FE9D 
 175      42E69F87 
 175      5F43F5F7 
 175      6C
 176              		.text
 177              		.section	.gnu.lto_.symbol_nodes.ca6c227b430c66ec,"",%progbits
 178 0000 789C45C8 		.ascii	"x\234E\310\273\011\200@\020\204\341\231\335;C[\260\324"
 178      BB098040 
 178      1084E199 
 178      DD3B435B 
 178      B0D4
 179 0012 154CC4C8 		.ascii	"\025L\304\310\012L\254\301\032\004\003{\020\361\211"
 179      0A4CACC1 
 179      1A04037B 
 179      10F189
 180 0021 58822828 		.ascii	"X\202((\336D\3777\002\201\341\233L|\272\354\001\263"
 180      DE44FF37 
 180      0281E19B 
ARM GAS  /var/folders/c6/c789hm653lg9vtl73krp73tm0000gn/T//cciZXqwa.s 			page 14


 180      4C7CBAEC 
 180      01B3
 181 0033 2AA75FF9 		.ascii	"*\247_\371\024d\2461\274\262\320$\220;M_\246)\271\321"
 181      1464A631 
 181      BCB2D024 
 181      903B4D5F 
 181      A629B9D1 
 182 0047 5CD049F3 		.ascii	"\\\320I\363\277\024\036Y\327\252\302\241.\216D\305a"
 182      BF141E59 
 182      D7AAC2A1 
 182      2E8E44C5 
 182      61
 183 0058 6C62D508 		.ascii	"lb\325\010\331p\0217\311\011&\033"
 183      D9701137 
 183      C909261B 
 184              		.text
 185              		.section	.gnu.lto_.refs.ca6c227b430c66ec,"",%progbits
 186 0000 789C6362 		.ascii	"x\234cb`b\340f\200\000F bb\002R\214\014\000\001s\000"
 186      6062E066 
 186      80004620 
 186      62620252 
 186      8C0C0001 
 187 0016 18       		.ascii	"\030"
 188              		.text
 189              		.section	.gnu.lto_.decls.ca6c227b430c66ec,"",%progbits
 190 0000 789CBD5B 		.ascii	"x\234\275[{t\024U\232\257\252\356\244\323y\000:\003"
 190      7B741455 
 190      9AAFAAEE 
 190      A4D37900 
 190      3A03
 191 0012 8B8F5DE2 		.ascii	"\213\217]\342\034\3353\353\216$:\250\270gw\320aw\225"
 191      1CDD33EB 
 191      8E243AA8 
 191      B86777D0 
 191      617795
 192 0025 73C6391C 		.ascii	"s\3069\034s<\316\231\2353\275E\247\222\364\320/\253"
 192      733CCE99 
 192      9D33BD45 
 192      A792F4D0 
 192      2FAB
 193 0037 2B04FEB2 		.ascii	"+\004\376\262\022\302CAM\002\004\320@\202\200#\354@"
 193      12C24341 
 193      4D0204D0 
 193      40828023 
 193      EC40
 194 0049 14058431 		.ascii	"\024\005\2041C\213D\021P\3441\201$\030Z$\002\303*\204"
 194      438B4411 
 194      50E43181 
 194      24185A24 
 194      02C32A84 
 195 005d 871201B3 		.ascii	"\207\022\001\263\337\375\352VwUuUwU\320\255\303\275"
 195      DFFDEA56 
 195      77557555 
 195      7755D0AD 
 195      C3BD
 196 006f 75537DBF 		.ascii	"uS}\277\337\375\336\367Q\005\307p\314\3178\206\031\202"
 196      DFFDDEF7 
ARM GAS  /var/folders/c6/c789hm653lg9vtl73krp73tm0000gn/T//cciZXqwa.s 			page 15


 196      5105C770 
 196      CCCF3886 
 196      1982
 197 0081 EBBE7F65 		.ascii	"\353\276\177e\230\333<\014\343f\030\346\027PXZ\310\225"
 197      98DB3C0C 
 197      E36618E6 
 197      1750585A 
 197      C895
 198 0093 0B651594 		.ascii	"\013e\025\224\337\302\203\337C\251\200\362\007(aV\351"
 198      DFC283DF 
 198      43A980F2 
 198      07286156 
 198      E9
 199 00a4 13553BD2 		.ascii	"\023U;\322\213\364\035\015e#\224\021P\012\241t\323\276"
 199      8BF41D0D 
 199      65239411 
 199      500AA174 
 199      D3BE
 200 00b6 33A17A1A 		.ascii	"3\241z\032J\017\224\016\370\273\027\356\237BY\015\355"
 200      4A0F940E 
 200      F8BB17EE 
 200      9F42590D 
 200      ED
 201 00c7 7628B740 		.ascii	"v(\267@{\022\334s\340~\036\356\307\341>\035J\002J%\224"
 201      7B12DC73 
 201      E07E1EEE 
 201      C7E13E1D 
 201      4A024A25 
 202 00dc 02785603 		.ascii	"\002xV\003\367\371P\246@y\024\212\233<\207\262\031~"
 202      F7F950A6 
 202      4079148A 
 202      9B3C87B2 
 202      197E
 203 00ee 2B86FB56 		.ascii	"+\206\373V\270\237\203\342\201\266\227\362\363\031\264"
 203      B89F83E2 
 203      81B697F2 
 203      F319B4
 204 00fd FBA19C86 		.ascii	"\373\241\234\2062@\371'r|\013\345:\253\310\375\024\334"
 204      3240F927 
 204      727C0BE5 
 204      3AABC8FD 
 204      14DC
 205 010f 9F244C72 		.ascii	"\237$Lr\3512\021\331G\231\310\244\225A+\033\221\203"
 205      E93211D9 
 205      4799C8A4 
 205      95412B1B 
 205      9183
 206 0121 C893A072 		.ascii	"\310\223\240rWRy<\032\376\011\357\343(\337*\317^:\226"
 206      5752793C 
 206      1AFE09EF 
 206      E328DF2A 
 206      CF5E3A96 
 207 0135 96DF5C4E 		.ascii	"\226\337\\N\341u$\227\342\327L\357\277\247\362vhxTy"
 207      E1752497 
 207      E2D74CEF 
 207      BFA7F276 
 207      68785479 
ARM GAS  /var/folders/c6/c789hm653lg9vtl73krp73tm0000gn/T//cciZXqwa.s 			page 16


 208 0149 237C131D 		.ascii	"#|\023\035\217\006\014\037\245\313\2434\332\261\306"
 208      8F060C1F 
 208      A5CBA334 
 208      DAB1C6
 209 0158 708A5DD5 		.ascii	"p\212]\325q\\\320\307\017\367r(\267q\372\361\3061+\345"
 209      715CD0C7 
 209      0FF77228 
 209      B771FAF1 
 209      C6312BE5 
 210 016c B644A2FF 		.ascii	"\266D\242\377\354\333\267\310mu\361\241\241I\314\030"
 210      ECDBB7C8 
 210      6D75F1A1 
 210      A149CC18 
 211 017c 66890C57 		.ascii	"f\211\014W\333\\Yf%/3\237\376\361\330n\340\3477,\317"
 211      DB5C5966 
 211      252F339F 
 211      FEF1D86E 
 211      E0E7372C 
 212 0191 8EF032C5 		.ascii	"\216\3602\305\330(\364\242\312\357b\326\310rC\342\372"
 212      D828F4A2 
 212      CAEF62D6 
 212      C87243E2 
 212      FA
 213 01a2 A585FF26 		.ascii	"\245\205\377&\313y<\273\232\365\202\366\313X\346nf\035"
 213      CB793CBB 
 213      9AF582F6 
 213      CB58E66E 
 213      661D
 214 01b4 9036C8F2 		.ascii	"\2206\310\362+\343\015R\342e\037\272\361\203]o\260u"
 214      2BE30D52 
 214      E2651FBA 
 214      F1835D6F 
 214      B075
 215 01c6 C00ECFFE 		.ascii	"\300\016\317\376\021\3017\260,\303\263\257\262w;\206"
 215      11C137B0 
 215      2CC3B3AF 
 215      B2773B86 
 216 01d6 EADDBB75 		.ascii	"\352\335\273u\"r\271\036\201\2328=\020\317\346z\265"
 216      2272B91E 
 216      819A383D 
 216      10CFE67A 
 216      B5
 217 01e7 3CE2DF6A 		.ascii	"<\342\337j\007\202\006\177\222\221\256\220xc\237\241"
 217      0782067F 
 217      9291AE90 
 217      78639FA1 
 218 01f7 4FC81F1E 		.ascii	"O\310\037\036\346\377\235\316LL\002\361\012;\006[.\006"
 218      E6FF9DCE 
 218      4C4C02F1 
 218      0A3B065B 
 218      2E06
 219 0209 8D5DC03C 		.ascii	"\215]\300<'\313uT973\215\004\257X\243\2466\267\012\360"
 219      27CB7554 
 219      3937338D 
 219      04AF58A3 
 219      A636B70A 
 220 021e EF293D0D 		.ascii	"\357)=\015\036\334\361/\250\247v\366f\200y\327\240\247"
ARM GAS  /var/folders/c6/c789hm653lg9vtl73krp73tm0000gn/T//cciZXqwa.s 			page 17


 220      1EDCF12F 
 220      A8A776F6 
 220      668079D7 
 220      A0A7
 221 0230 AC301CB3 		.ascii	"\2540\034\263\007I6\001\271B\210\300r\242\273\271s6"
 221      07493601 
 221      B94288C0 
 221      72A2BBB9 
 221      7336
 222 0242 5B8BB624 		.ascii	"[\213\266$\2771:X\335u\007\323\006|\307\227\276\260"
 222      BF313A58 
 222      DD7507D3 
 222      067CC797 
 222      BEB0
 223 0254 025C7327 		.ascii	"\002\\s'\364\337\310\026\000\356\345$\256\231\374\264"
 223      F4DFC816 
 223      00EEE524 
 223      AE99FCB4 
 224 0264 A95CB483 		.ascii	"\251\\\264\203\036\357\245\217\013\033x\025\354\232"
 224      1EEFA58F 
 224      0B1B7815 
 224      EC9A
 225 0272 63B0621D 		.ascii	"c\260b\035X\353\307-\310\034:`\235\25509O\303d;:\340"
 225      58EBC72D 
 225      C81C3A60 
 225      9DAD3039 
 225      4FC3643B 
 226 0288 6C978927 		.ascii	"l\227\211'\333\002j\234\327\371.\015\212\016\204Z0l"
 226      DB026A9C 
 226      D7F92E0D 
 226      8A0E845A 
 226      306C
 227 029a A8DE05EF 		.ascii	"\250\336\005\357<\204<\305\021h\261\313\030\024\036"
 227      3C843CC5 
 227      1168B1CB 
 227      18141E
 228 02a9 435078F4 		.ascii	"CPx\364N\212?\323\006\361\315\221\314\017\334\235cZ"
 228      4E8A3FD3 
 228      06F1CD91 
 228      CC0FDC9D 
 228      635A
 229 02bb 5D360C97 		.ascii	"]6\014\227g\345\005r\342h\363>\327r9^\357\242\236\334"
 229      67E50572 
 229      E268F33E 
 229      D772395E 
 229      EFA29EDC 
 230 02cf 966BA523 		.ascii	"\226k\245#\216y\025\307\3524zrG\357\276:\352\311\235"
 230      8E7915C7 
 230      EA347A72 
 230      47EFBE3A 
 230      EAC99D
 231 02e2 B63C79F3 		.ascii	"\266<y\363\236\245\350,Y\003\222S\307\277\023\307?\214"
 231      9EA5E82C 
 231      59039253 
 231      C7BF13C7 
 231      3F8C
 232 02f4 E3EF318E 		.ascii	"\343\3571\216\337\330\372\265\032I{l\215\337zpq\372"
ARM GAS  /var/folders/c6/c789hm653lg9vtl73krp73tm0000gn/T//cciZXqwa.s 			page 18


 232      DFD8FAB5 
 232      1A497B6C 
 232      8DDF7A70 
 232      71FA
 233 0306 F83CFB8B 		.ascii	"\370<\373\213\321\231|\243\243\367\213\001:\312\307"
 233      D1997CA3 
 233      A3F78B01 
 233      3ACAC7
 234 0315 1832CFB9 		.ascii	"\0302\317\271\215\3361\251@o?\370[\323\201c\026\271"
 234      8DDE31A9 
 234      406F3FF8 
 234      5BD38163 
 234      16B9
 235 0327 55FE8715 		.ascii	"U\376\207\025\261 \350\276\305l\323lyw\251\312C\263"
 235      B120E8BE 
 235      C56CD36C 
 235      7977A9CA 
 235      43B3
 236 0339 63C4629D 		.ascii	"c\304b\235&6\035\304\034\240\200-\267\003f\351Ju\361"
 236      26361DC4 
 236      1CA0802D 
 236      B70366E9 
 236      4A75F1
 237 034c B7B4602D 		.ascii	"\267\264`-\216\301\364\234m\321\202\265\332\001\033"
 237      8EC1F49C 
 237      6DD182B5 
 237      DA011B
 238 035b 65CDD9DB 		.ascii	"e\315\331\333Z\260W\034\203\3519\333\256\005[k\007l"
 238      5AB0571C 
 238      83E939DB 
 238      AE055B6B 
 238      076C
 239 036d AC3567EF 		.ascii	"\2545g\357h\301\3269\006\323s\366\027-\330\006;`\305"
 239      68C1D639 
 239      06D373F6 
 239      172DD806 
 239      3B60C5
 240 0380 269C252F 		.ascii	"&\234%/\253i\365C6\351\347\034\363\272[\315\011\016"
 240      AB69F543 
 240      36E9E71C 
 240      F3BA5BCD 
 240      090E
 241 0392 7D9A4961 		.ascii	"}\232Ia\274\345v\232\303tr\303T\372\321jv\221\022\027"
 241      BCE5769A 
 241      C37472C3 
 241      54FAD16A 
 241      76911217 
 242 03a6 CA74B6DD 		.ascii	"\312t\266\335\016b\006\207\331\242\235\033w:\006\323"
 242      0E620687 
 242      D9A29D1B 
 242      773A06D3 
 243 03b6 9BE53001 		.ascii	"\233\3450\001\323\345\032:#%\326\306\307.K\245\273<"
 243      D3E51A3A 
 243      2325D6C6 
 243      C72E4BA5 
 243      BB3C
 244 03c8 158B2C12 		.ascii	"\025\213,\022\225\334\006kF.\331Y\036;\326\274/\317"
ARM GAS  /var/folders/c6/c789hm653lg9vtl73krp73tm0000gn/T//cciZXqwa.s 			page 19


 244      95DC066B 
 244      462ED959 
 244      1E3BD6BC 
 244      2FCF
 245 03da 9E65EF82 		.ascii	"\236e\357\202\372\177Yo\222\013\245\255\266\206X\\\211"
 245      FA7F596F 
 245      920BA5AD 
 245      B686585C 
 245      89
 246 03eb B8CD969F 		.ascii	"\270\315\226\237\010\220\231\324\312\023\316h=a\277"
 246      089099D4 
 246      CA13CE68 
 246      3D61BF
 247 03fa 1D356508 		.ascii	"\0355e\010\205\253\037\267\374\235\234\210\263\032y"
 247      85AB1FB7 
 247      FC9D9C88 
 247      B31A79
 248 0409 332A0796 		.ascii	"3*\007\226\020'\351\022\342<N\327]n\323y\337\006P\343"
 248      1027E912 
 248      E23C4ED7 
 248      5D6ED379 
 248      DF0650E3 
 249 041d BC0DFF8C 		.ascii	"\274\015\377\214@\027\021\350\370\260\201z\027\254T"
 249      401711E8 
 249      F8B0817A 
 249      17AC54
 250 042c 56D55F23 		.ascii	"V\325_#\320\251\264)\2025, X\375\024\237\324<U\374\017"
 250      D0A9B429 
 250      82352C20 
 250      58FD149F 
 250      D43C55FC 
 251 0441 D5976306 		.ascii	"\325\227c\006\214\326\322\211\2235\327$\272\273N.b/"
 251      8CD6D289 
 251      9335D724 
 251      BABB4E2E 
 251      622F
 252 0453 D6C9CB4A 		.ascii	"\326\311\313J\035\330+A\355u\025\2653\230\246\235\213"
 252      1DD82B41 
 252      ED7515B5 
 252      3398A69D 
 252      8B
 253 0464 0ED5C331 		.ascii	"\016\325\3031\2659N\305\370\251^\214\346S\316\3058M"
 253      B5394EC5 
 253      F8A95E8C 
 253      E653CEC5 
 253      384D
 254 0476 C520B1C9 		.ascii	"\305 \261\3111\317\346\334\270\030\215\216\305(\325"
 254      31CFE6DC 
 254      B8188D8E 
 254      C528D5
 255 0485 88019B89 		.ascii	"\210\001\233\211\256K\213\225\014\370#\246)\3632\216"
 255      AE4B8B95 
 255      0CF823A6 
 255      29F3328E 
 256 0495 F03387FB 		.ascii	"\3603\207\373\221n\011\025\277\274\237-V\036g[=\311"
 256      916E0915 
 256      BFBC9F2D 
ARM GAS  /var/folders/c6/c789hm653lg9vtl73krp73tm0000gn/T//cciZXqwa.s 			page 20


 256      561E675B 
 256      3DC9
 257 04a7 F145075B 		.ascii	"\361E\007[\350>D\331\340.C\336\011\355pV5r\374ue\326"
 257      E83E44D9 
 257      E02E43DE 
 257      09ED7056 
 257      3572FC75 
 258 04bd 52C05A6F 		.ascii	"R\300Zo\010\254.\276\243I\335$M\"\251\373\265\033\204"
 258      08AC2EBE 
 258      A349DD24 
 258      4D22A9FB 
 258      B51B84
 259 04d0 3B76D098 		.ascii	";v\320\230\272\015k\306v\213t\247\356\036\233\336W\367"
 259      BA0D6BC6 
 259      768B74A7 
 259      EE1E9BDE 
 259      57F7
 260 04e2 262F7284 		.ascii	"&/r\204\241\3664g\331\310\032V\215\344\201\246\213\225"
 260      A1F63467 
 260      D9C81A56 
 260      8DE481A6 
 260      8B95
 261 04f4 0D5FE034 		.ascii	"\015_\3404\271w\347\215\311\011ap|\215\342?\331\326"
 261      B977E78D 
 261      C9096170 
 261      7C8DE23F 
 261      D9D6
 262 0506 E4FFADA2 		.ascii	"\344\377\255\242\025\342\300\273q\340%\234aI\336\373"
 262      15E2C0BB 
 262      71E0259C 
 262      6149DEFB 
 263 0516 55622E95 		.ascii	"Ub.\225\233\374\226\335\251z\373\275rS\241\311x\017"
 263      9BFC96DD 
 263      A97AFBBD 
 263      7253A1C9 
 263      780F
 264 0528 6BE7FFA4 		.ascii	"k\347\377\244V\0177\262\365\210\276\234#\273\362\313"
 264      560F37B2 
 264      F588BE9C 
 264      23BBF2CB 
 265 0538 06ADAA7B 		.ascii	"\006\255\252{\231\207\255\2008fN.!i12\336\335\365\215"
 265      9987AD80 
 265      38664E2E 
 265      21693132 
 265      DEDDF58D 
 266 054c BA9769B1 		.ascii	"\272\227i\261\301x]|`\201vW\316\263[X\216\342\016\317"
 266      C1785D7C 
 266      60817657 
 266      CEB35B58 
 266      8EE20ECF 
 267 0560 E32EEC4D 		.ascii	"\343.\354M\256<x\366m\307`\305f\254\252\236\225\222"
 267      AE3C78F6 
 267      6DC760C5 
 267      66ACAA9E 
 267      9592
 268 0572 96675772 		.ascii	"\226gWrd\305\320\312\335\001u\033\324\311\0136\025\271"
 268      64C5D0CA 
ARM GAS  /var/folders/c6/c789hm653lg9vtl73krp73tm0000gn/T//cciZXqwa.s 			page 21


 268      DD01751B 
 268      D4C90B36 
 268      15B9
 269 0584 AA4DCD54 		.ascii	"\252M\315T\2275\240\301\370W\232\025grph\266\346yzh"
 269      9735A0C1 
 269      F8579A15 
 269      67727068 
 269      B6E6797A 
 270 0599 86397565 		.ascii	"\2069ue\2561L\376h\314\251\016\316\2078f\215Q$\273["
 270      AE314CFE 
 270      68CCA90E 
 270      CE873866 
 270      8D5124BB 
 271 05ae 9BE46515 		.ascii	"\233\344e\025\206\213\265a\270>\367\006\303\260\353"
 271      868BB561 
 271      B83EF706 
 271      C3B0EB
 272 05bd 94CD3094 		.ascii	"\224\3150\224Y\355\302\223c\336\300\221\327\033\335"
 272      59EDC293 
 272      63DEC091 
 272      D71BDD
 273 05cc F9F2C5DD 		.ascii	"\371\362\305\335\363\250;\257\267\025\207\2271\016\325"
 273      F3A83BAF 
 273      B7158797 
 273      310ED5
 274 05db B8EA49A2 		.ascii	"\270\352I\242\016\307\023\352\342\203g>d\021NYH\237"
 274      0EC713EA 
 274      E283673E 
 274      64114E59 
 274      489F
 275 05ed 30C239DC 		.ascii	"0\3029\334`^\023\234*F\361\256xw?\231\336\336D\231\376"
 275      605E139C 
 275      2A46F1AE 
 275      78773F99 
 275      DEDE4499 
 276 0602 96E65A8A 		.ascii	"\226\346Z\212f4\256\265^\023'\177\3028\331\200q\322"
 276      6634AEB5 
 276      5E13277F 
 276      C238D980 
 276      71D2
 277 0614 8EF51BDA 		.ascii	"\216\365\033\332h\261r\213MZ\267\270\340X\356b\233\336"
 277      68B1728B 
 277      4D5AB7B8 
 277      E058EE62 
 277      9BDE
 278 0626 B74E3BCC 		.ascii	"\267N;\314\340\015z\337\321\256sn<\012rp\210w\215.\205"
 278      E00D7ADF 
 278      D1AE736E 
 278      3C0A7270 
 278      88778D2E 
 279 063b B661D8CA 		.ascii	"\266a\330\312\036\243n;\214ak\347Lk\241g\230\202$/\216"
 279      1EA36E3B 
 279      8C616BE7 
 279      4C6BA167 
 279      9882242F 
 280 0650 59E4B1B1 		.ascii	"Y\344\261\261\033)\266R\0069\236\375\206\256\250\262"
 280      1B29B652 
ARM GAS  /var/folders/c6/c789hm653lg9vtl73krp73tm0000gn/T//cciZXqwa.s 			page 22


 280      06399EFD 
 280      86AEA8B2 
 281 0660 1E8C254F 		.ascii	"\036\214%O\212\367\325\322Yi\007z\332R\217\371\254\224"
 281      8AF7D5D2 
 281      5969077A 
 281      DA528FF9 
 281      AC94
 282 0672 E9840D49 		.ascii	"\351\204\015Iv\246\315J\315\227\324Yi\247\255Y\351\220"
 282      76A6CD4A 
 282      CD97D459 
 282      69A7AD59 
 282      E990
 283 0684 E9ACB4D3 		.ascii	"\351\254\264\323\371\254dvi\031\344\331]\030 \235\372"
 283      F9AC6476 
 283      6919E4D9 
 283      5D18209D 
 283      FA
 284 0695 29648B63 		.ascii	")d\213c\355\027k\265\037\037<\324\302*\374+\211(n\304"
 284      ED176BB5 
 284      1F1F3CD4 
 284      C22AFC2B 
 284      89286EC4 
 285 06a9 334B443F 		.ascii	"3KD?\265\264f\274\241K\263\306\334k\207\271R+\260\272"
 285      B5B466BC 
 285      A14BB3C6 
 285      DC6B87B9 
 285      522BB0BA 
 286 06bd 788B02A6 		.ascii	"x\213\002\246\270\374\001\307`\305:\260?7\253\226Z\207"
 286      B8FC01C7 
 286      60C53AB0 
 286      3F37AB96 
 286      5A87
 287 06cf 0BC46376 		.ascii	"\013\304cv\360&Z3w\250K]\235+\347\352_8\306\323\363"
 287      F0265A33 
 287      77A84B5D 
 287      9D2BE7EA 
 287      5F38C6D3 
 288 06e4 37D0AC5B 		.ascii	"7\320\254[P\017\330\201{\330\266#\245\336\212\360\354"
 288      500FD881 
 288      7BD8B623 
 288      A5DE8AF0 
 288      EC
 289 06f5 5B7886B1 		.ascii	"[x\206\261\231%9v+\326\333\260\336\205\365I\254\277"
 289      99253976 
 289      2BD6DBB0 
 289      DE85F549 
 289      ACBF
 290 0707 C0FA34D6 		.ascii	"\300\3724\326\347\260\376\026\353!\254\3531?\377\005"
 290      E7B0FE16 
 290      EB21ACEB 
 290      313FFF05 
 291 0717 EB0FB0FE 		.ascii	"\353\017\260\376\020\353\275X\177\204\365~\254\017\330"
 291      10EBBD58 
 291      7F84F57E 
 291      AC0FD8
 292 0726 C9E18685 		.ascii	"\311\341\206\2058}\213\244x\0216\236ti\\~\320\020\355"
 292      387D8BA4 
ARM GAS  /var/folders/c6/c789hm653lg9vtl73krp73tm0000gn/T//cciZXqwa.s 			page 23


 292      7811369E 
 292      74695C7E 
 292      D010ED
 293 0739 7732AB65 		.ascii	"w2\253e\271)\321\177\366(9_w\253s\340\354<\322m\025"
 293      B929D17F 
 293      F628395F 
 293      77AB73E0 
 293      EC3CD26D 
 294 074e 3BCE7458 		.ascii	";\316tX\272\035@\332\006\371e\3411\325g\347f!\243<\375"
 294      BA1D40DA 
 294      06F965E1 
 294      31D567E7 
 294      6621A33C 
 295 0763 23B396A4 		.ascii	"#\263\226\244\230\366\271sF\271\325\207\326dT\316\303"
 295      98F6B973 
 295      46B9D587 
 295      D66454CE 
 295      C3
 296 0774 9CEE5DA8 		.ascii	"\234\356]\250\362&4>\360\301\363\346oB\025\036\255\224"
 296      F226343E 
 296      F0C1F3E6 
 296      6F42151E 
 296      AD94
 297 0786 D6CB8D61 		.ascii	"\326\313\215a\364\332\341\230\347\362\364\252\241|\326"
 297      F4DAE198 
 297      E7F2F4AA 
 297      A17CD6
 298 0795 C99B5E93 		.ascii	"\311\233^\223\275\352\016\210g{\270\214l\0363e\363\300"
 298      BDEA0E88 
 298      677BB88C 
 298      6C1E3365 
 298      F3C0
 299 07a7 737B6189 		.ascii	"s{a\211!_\033\032r\031\331\2648\317'X\3079\335\233A"
 299      215F1B1A 
 299      7219D9B4 
 299      38CF2758 
 299      C739DD9B 
 300 07bc 85872C06 		.ascii	"\205\207,\006^\234gf`\371j\371c\252\253tq$\313\366"
 300      5E9C6766 
 300      60F96AF9 
 300      63AAAB74 
 300      7124CBF6 
 301 07d0 5988A1B7 		.ascii	"Y\210\241\267m\253j[\236=\232\205Lo\333\347\3459\243"
 301      6DAB6A5B 
 301      9E3D9A85 
 301      4C6FDBE7 
 301      E539A3
 302 07e3 58148EA1 		.ascii	"X\024\216\241T\272\210:\221\256\245D\003L ]c\227m\222"
 302      54BA883A 
 302      91AEA544 
 302      034C205D 
 302      63976D92 
 303 07f7 EB9F95BF 		.ascii	"\353\237\225\277\033z\206\265\257\247SF=\235G\216uz"
 303      1B7A86B5 
 303      AFA75346 
 303      3D9D478E 
 303      757A
ARM GAS  /var/folders/c6/c789hm653lg9vtl73krp73tm0000gn/T//cciZXqwa.s 			page 24


 304 0809 5995665D 		.ascii	"Y\225f]\245\353\0313N\342GN\234f\227\313;\353\345\241"
 304      A5EB1933 
 304      4EE2474E 
 304      9C6697CB 
 304      3BEBE5A1 
 305 081d A1679CF8 		.ascii	"\241g\234\370\325Y3\213\0318i\267\340\344KSN>=\021O"
 305      D559338B 
 305      193869B7 
 305      E0E44B53 
 305      4E3E3D11 
 306 0832 71A2B804 		.ascii	"q\242\270\004\307\374\331\002\342\234\036\342'\314*"
 306      C7FCD902 
 306      E29C1EE2 
 306      27CC2A
 307 0841 02F1E689 		.ascii	"\002\361\346\211\004W+\357\\\0063\014\354:\306\251\313"
 307      04572BEF 
 307      5C06330C 
 307      EC3AC6A9 
 307      CB
 308 0852 D1F99FA7 		.ascii	"\321\371\237\247\316L\345\321\252$\237\020\204\344\016"
 308      CE4CE5D1 
 308      AA249F10 
 308      84E40E
 309 0861 F6D22A76 		.ascii	"\366\322*v6N\350\0038\301\3556\214k\003\212c\016#\321"
 309      364EE803 
 309      38C1ED36 
 309      8C6B038A 
 309      630E23D1 
 310 0875 A5F4D542 		.ascii	"\245\364\325B\247\272\350\277dk\321\277\242O\231mM\226"
 310      A7BAE8BF 
 310      646BD1BF 
 310      A24F996D 
 310      4D96
 311 0887 D389E472 		.ascii	"\323\211\344r\372v\015\367\007\217|F\271\277\202\334"
 311      FA760DF7 
 311      078F7C46 
 311      B9BF82DC 
 312 0897 F759706F 		.ascii	"\367Ypo\011\3041g\221\344j:\357\207\347R\336\257\332"
 312      09C43167 
 312      91E46A3A 
 312      EF87E752 
 312      DEAFDA
 313 08aa E2FD508F 		.ascii	"\342\375P\217~\2450\230\304\035\336\226\345p\017N\356"
 313      7EA53098 
 313      C41DDE96 
 313      E5700F4E 
 313      EE
 314 08bb CAE459EB 		.ascii	"\312\344Y\3535\2009\332\260\310\361\243\012X'~:0\337"
 314      358039DA 
 314      B0C8F1A3 
 314      0A58277E 
 314      3A30DF
 315 08ce 3158B18E 		.ascii	"1X\261\216\263\343/\351\337\377\277`\007/\303;\216\363"
 315      B3E32FE9 
 315      DFFFBF60 
 315      072FC33B 
 315      8EF3
ARM GAS  /var/folders/c6/c789hm653lg9vtl73krp73tm0000gn/T//cciZXqwa.s 			page 25


 316 08e0 3D9A771C 		.ascii	"=\232w\034\315\216\301\364\314}\255\005[i\007\314\354"
 316      CD8EC1F4 
 316      CC7DAD05 
 316      5B6907CC 
 316      EC
 317 08f1 4D80D9A5 		.ascii	"M\200\331\245u\022\236\275\216\253\315\357p\022\227"
 317      75129EBD 
 317      8EABCDEF 
 317      701297
 318 0900 5DA4AEC3 		.ascii	"]\244\256\303\272\036\353\271X\317w\351\326\242\257"
 318      BA1EEBB9 
 318      58CF77E9 
 318      D6A2AF
 319 090f 79D52831 		.ascii	"y\325(1u\305l.!\3077[\207\207\331n\023\202\373T-;\007"
 319      75C56C2E 
 319      21C7375B 
 319      8787D96E 
 319      1382FB54 
 320 0926 7D78A18B 		.ascii	"}x\241\213X~\2437kx\030\367\363\273\220\344EW\332\361"
 320      587EA337 
 320      6B7818F7 
 320      F3BB90E4 
 320      4557DAF1 
 321 093a D4F53934 		.ascii	"\324\36594<\310o\3317\002\203KW\330{\325\236\034\377"
 321      3CC86FD9 
 321      3702834B 
 321      57D87BD5 
 321      9E1CFF
 322 094d C71A410E 		.ascii	"\307\032A\016\236T\317\331\026\243 \275\331\005\321"
 322      9E54CFD9 
 322      16A320BD 
 322      D905D1
 323 095c 03419C23 		.ascii	"\003A\234#\311\322tA\276T\005YjK\220mKU\357_\344\302"
 323      C9D27441 
 323      BE540559 
 323      6A4B906D 
 323      4B55EF5F 
 324 0972 0F5692B8 		.ascii	"\017V\222\270\303\332\354\306\267\037A\207U\300\352"
 324      C3DAECC6 
 324      B71F4187 
 324      55C0EA
 325 0981 F39D82E9 		.ascii	"\363\235\202\351\275\277\343\210\323\257_\006\017n\276"
 325      BDBFE388 
 325      D3AF5F06 
 325      0F6EBE
 326 0990 1B37CEAD 		.ascii	"\0337\316\255.\222h\026\346\177/\033\347f;rX\037\260"
 326      2E926816 
 326      E67F2F1B 
 326      E7663B72 
 326      581FB0
 327 09a3 8055CE2D 		.ascii	"\200U\316-19\177\262\277^X\3532\314\322\223\014\223"
 327      31397FB2 
 327      BF5E58EB 
 327      32CCD293 
 327      0C93
 328 09b5 74269534 		.ascii	"t&\2254\365\325\3223\3435h\225V\203R\014G\357d,+>\326"
 328      F5D5D233 
ARM GAS  /var/folders/c6/c789hm653lg9vtl73krp73tm0000gn/T//cciZXqwa.s 			page 26


 328      E3356895 
 328      5683520C 
 328      47EF642C 
 329 09cc B90A2C3C 		.ascii	"\271\012,<*\3557H\020\216\265\246\263>y\371\262V}\375"
 329      2AED3748 
 329      108EB5A6 
 329      B33E79F9 
 329      B2567DFD 
 330 09e0 8C9BA4D7 		.ascii	"\214\233\244\327\355\000\232ef\263K\033<0\311\271H\376"
 330      ED009A65 
 330      66B34B1B 
 330      3C30C9B9 
 330      48FE
 331 09f2 7B09F35C 		.ascii	"{\011\363\\\013\326+\261^\215\365\377h3\237\225n\210"
 331      0BD62BB1 
 331      5E8DF5FF 
 331      68339F95 
 331      6E88
 332 0a04 CB27B15F 		.ascii	"\313'\261_vq4\317\014/\214\256\245\302\210gW8\006\323"
 332      767134CF 
 332      0C2F8CAE 
 332      A5C28867 
 332      573806D3 
 333 0a18 2932DED8 		.ascii	")2\336\330\243\356]IT\360\354+v\3602\234\027\276\256"
 333      A3EE5D49 
 333      54F0EC2B 
 333      76F0329C 
 333      17BEAE
 334 0a2b 4C4A4A88 		.ascii	"LJJ\210m\315g\035\202\025g2\312\213\032\2434\242Q\232"
 334      6DCD671D 
 334      82156732 
 334      CA8B1AA3 
 334      34A2519A 
 335 0a3f D0041BB0 		.ascii	"\320\004\033\260\336\210u\273~\"z/\3370\021\351\223"
 335      DE8875BB 
 335      7E227A2F 
 335      DF3011E9 
 335      93
 336 0a50 BED9BCA8 		.ascii	"\276\331\274\250\325\217\034\177\247\017\344\261\177"
 336      D58F1C7F 
 336      A70FE4B1 
 336      7F
 337 0a5d 1CF5A57A 		.ascii	"\034\365\245z\034\365&&\357=\371\246\311;\323qT7\222"
 337      1CF52626 
 337      EF3DF9A6 
 337      C93BD371 
 337      543792
 338 0a70 6C494BDE 		.ascii	"lIK\336\315\375\352\"mK\366\344]?;\276\371\345WS\263"
 338      CDFDEA22 
 338      6D4BF6E4 
 338      5D3F3BBE 
 338      F9E55753 
 339 0a85 D0EC6404 		.ascii	"\320\354d\004\377\015r\234\225\227\352>-8\223\344\303"
 339      FF0D729C 
 339      9597EA3E 
 339      2D3893E4 
 339      C3
ARM GAS  /var/folders/c6/c789hm653lg9vtl73krp73tm0000gn/T//cciZXqwa.s 			page 27


 340 0a96 A1979ADB 		.ascii	"\241\227\232\333n\213\306vo\243\355\266\351-u\321h)"
 340      6E8BC676 
 340      6FA3EDB6 
 340      E92D75D1 
 340      6829
 341 0aa8 B3F174C7 		.ascii	"\263\361t\307MzC\375\265O]\224*_\215~c\304k\323}#J\233"
 341      4D7A43FD 
 341      B54F5D94 
 341      2A5F8D7E 
 341      63C46BD3 
 342 0ac0 96474E72 		.ascii	"\226GNr\274\317\211\345\227l?\363\240\362\025#\332}"
 342      BCCF89E5 
 342      976C3FF3 
 342      A0F21523 
 342      DA7D
 343 0ad2 558143BB 		.ascii	"U\201C\273\023\025\275g\260y|@(V\236\332Xs\364\343\251"
 343      1315BD67 
 343      B0797C40 
 343      28569EDA 
 343      5873F4E3 
 344 0ae7 BF8353E4 		.ascii	"\277\203S\344\267\350)\362\373\030\251\233\012\276\227"
 344      B7E829F2 
 344      FB18A99B 
 344      0ABE97
 345 0af6 C9703BC2 		.ascii	"\311p;\302\274\367}9\315{\032\247\331\205N\323\251w"
 345      BCF77D39 
 345      CD7B1AA7 
 345      D9854ED3 
 345      A977
 346 0b08 9A770B6C 		.ascii	"\232w\013l8M\324\322i`\032\351\177\260V\216/+\275\211"
 346      384DD4D2 
 346      69601AE9 
 346      7FB0568E 
 346      2F2BBD89 
 347 0b1c 6950F77E 		.ascii	"iP\367~T\207\361\271\362|\266\366\215\333\223\224\272"
 347      5487F1B9 
 347      F27CB6F6 
 347      8DDB9394 
 347      BA
 348 0b2d 4D4DF203 		.ascii	"MM\362\003\305\257V\321\371\363#\324\343.\203\036\235"
 348      C5AF56D1 
 348      F9F323D4 
 348      E32E831E 
 348      9D
 349 0b3e 8035CEDB 		.ascii	"\2005\316\333\257\276\270\376\004\301\366\017\037\254"
 349      AFBEB8FE 
 349      04C1F60F 
 349      1FAC
 350 0b4c AD77EFED 		.ascii	"\255w\357\355\262\233g\017!\320\3214\353z\015\306\365"
 350      B29B670F 
 350      21D0D134 
 350      EB7A0DC6 
 350      F5
 351 0b5d EA8DEBF5 		.ascii	"\352\215\353\365\246\032C\352e\374\336\345\007\244\241"
 351      A61A43EA 
 351      65FCDEE5 
 351      07A4A1
ARM GAS  /var/folders/c6/c789hm653lg9vtl73krp73tm0000gn/T//cciZXqwa.s 			page 28


 352 0b6c 82C58B54 		.ascii	"\202\305\213T\311\216\262\024`\237\353\246\224.\344"
 352      C98EB214 
 352      609FEBA6 
 352      942EE4
 353 0b7b 645A2BB4 		.ascii	"dZ+\264\316j]\256\324gV\205\336T\343\326\244\027}n\364"
 353      CE6A5DAE 
 353      D4675685 
 353      DE54E3D6 
 353      A4177D6E 
 354 0b90 22C3B8B4 		.ascii	"\"\303\270\264=\323\266\337^\322\354\236\276\306\335"
 354      3DD3B6DF 
 354      5ED2EC9E 
 354      BEC6DD
 355 0b9f D337B87B 		.ascii	"\3237\270{Z\200S\324&\254;\260\336\201\365^\275W_H\232"
 355      5A8053D4 
 355      26AC3BB0 
 355      DE81F55E 
 355      BD575F48 
 356 0bb4 4B9DB4F4 		.ascii	"K\235\264\364\247\020d\210\243\256\344\341\210a\215"
 356      A7106488 
 356      A3AEE4E1 
 356      88618D
 357 0bc3 B6DC221A 		.ascii	"\266\334\"\032\010Uwj\035b\240\032\310@\325\223\242"
 357      0855776A 
 357      1D62A01A 
 357      C840D593 
 357      A2
 358 0bd4 A271D2F6 		.ascii	"\242q\322\366\360\262\021\312\247j\224f\224J\243\362"
 358      F0B211CA 
 358      A76A9466 
 358      944AA3F2 
 359 0be4 D7EBD84E 		.ascii	"\327\353\330N\307,\354\304\352\207.6\214<Q\355\347\241"
 359      C72CECC4 
 359      EA872E36 
 359      8C3C51ED 
 359      E7A1
 360 0bf6 389F3A1E 		.ascii	"8\237:\036\271\317b\344\\sU\221c1+\250\343\226\012>"
 360      B9CF62E4 
 360      5C735591 
 360      63312BA8 
 360      E3960A3E 
 361 0c0a 95812A91 		.ascii	"\225\201*\221\242\"\007e\361\363\211\336\035\007\376"
 361      A2220765 
 361      F1F389DE 
 361      1D07FE
 362 0c19 EB4F9B64 		.ascii	"\353O\233d\031\017\017k\353\035\034\037\236p\245\037"
 362      190F0F6B 
 362      EB1D1C1F 
 362      9E70A51F 
 363 0c29 062F2934 		.ascii	"\006/)4=\014\206\3535\331\225<\327\374\314e8\327\374"
 363      3D0C86EB 
 363      35D9953C 
 363      D7FCCC65 
 363      38D7FC
 364 0c3c DC957686 		.ascii	"\334\225v\206\007\2545\264~\227K^Y\2223\274;\224\361"
 364      07AC35B4 
 364      7E974B5E 
ARM GAS  /var/folders/c6/c789hm653lg9vtl73krp73tm0000gn/T//cciZXqwa.s 			page 29


 364      599233BC 
 364      3B94F1
 365 0c4f 60DF606B 		.ascii	"`\337`k\204~\343\010_\230\216\360\346\347\357.d\033"
 365      847EE308 
 365      5F988EF0 
 365      E6E7EF2E 
 365      641B
 366 0c61 DBE7CA0D 		.ascii	"\333\347\312\015\265\211\241gZ\343\015n\373\342\237"
 366      B589A167 
 366      5AE30D6E 
 366      FBE29F
 367 0c70 31EE863A 		.ascii	"1\356\206:\322OO\273t\314bO\2169YH\035\215\2361\037"
 367      D24F4FBB 
 367      74CC624F 
 367      8E395948 
 367      1D8D9E31 
 368 0c85 78BFB081 		.ascii	"x\277\260\201U\377{\303\005\2448\355\262:.\356\320\035"
 368      55FF7BC3 
 368      05A438ED 
 368      B23A2EEE 
 368      D01D
 369 0c97 175FAC9D 		.ascii	"\027_\254\235:6)\363i\243\314gMe\356\356:r\353\360\014"
 369      3A3629F3 
 369      69A3CC67 
 369      4D65EEEE 
 369      3A72EBF0 
 370 0cac 7EC128B1 		.ascii	"~\301(\261\356\\\235F\274A\003W\014\346\2422o\025\014"
 370      EE5C9D46 
 370      BC410357 
 370      0CE6A232 
 370      6F150C
 371 0cbf E7EA0396 		.ascii	"\347\352\003\226\022\247\316\325\233\344FEU\335\270"
 371      12A7CED5 
 371      9BE44645 
 371      55DDB8
 372 0cce 839C53C4 		.ascii	"\203\234S\304f$\244\014QUu\313\032U\015\030Uu\331TU"
 372      6624A40C 
 372      515575CB 
 372      1A550D18 
 372      5575D954 
 373 0ce3 3D3B067E 		.ascii	"=;\006~\227\346\200\317\026\331q\300o\215#\\\265p\361"
 373      97E680CF 
 373      16D971C0 
 373      6F8D235C 
 373      B570F1
 374 0cf6 8F3C6923 		.ascii	"\217<i#,\2615\302u\343\010\337\271\322N\261?\371$\321"
 374      2CB135C2 
 374      75E308DF 
 374      B9D24EB1 
 374      3FF924D1 
 375 0d0a F9D53276 		.ascii	"\371\3252v~Bn\000k\017\261\332\314\246Y\237OU\025\227"
 375      7E426E00 
 375      6B0FB1DA 
 375      CCA6599F 
 375      4F551597 
 376 0d1e 8F9416F9 		.ascii	"\217\224\026\371\317\320\213g\353\334N\363\337l\267"
 376      CFD08B67 
ARM GAS  /var/folders/c6/c789hm653lg9vtl73krp73tm0000gn/T//cciZXqwa.s 			page 30


 376      EBDC4EF3 
 376      DF6CB7
 377 0d2d 79FED3CE 		.ascii	"y\376\323\316r\251^dy[dx3f`\202c\326\027\251\0236,\303"
 377      72A95E64 
 377      795B6478 
 377      33666082 
 377      63D617A9 
 378 0d45 55B50E9C 		.ascii	"U\265\016\234\035\274E\343\343\217\350|<\217\231\207"
 378      1DBC45E3 
 378      E38FE87C 
 378      3C8F9987 
 379 0d55 DF82CE91 		.ascii	"\337\202\316\221k\331\247\223\323\254\305\367\331<;"
 379      6BD9A793 
 379      D3ACC5F7 
 379      D93C3B
 380 0d64 DF9D4716 		.ascii	"\337\235G\0266E\372\005\206\206]\322A\025Ji\253\255"
 380      3645FA05 
 380      86865DD2 
 380      41154A69 
 380      ABAD
 381 0d76 D4FA224D 		.ascii	"\324\372\"M\023\363\334\331\337x\364\025\231\306N\207"
 381      13F3DCD9 
 381      DF78F415 
 381      99C64E87 
 382 0d86 3176E6BA 		.ascii	"1v\346\2723\306N\362\205\\\3671\022\002\012\213:*\235"
 382      33C64EF2 
 382      855CF731 
 382      12020A8B 
 382      3A2A9D
 383 0d99 EC94C185 		.ascii	"\354\224\301\205n\363\344q\374\326m\326\311#\323;\236"
 383      6EF3E471 
 383      FCD66DD6 
 383      C923D33B 
 383      9E
 384 0daa 06A3C4DD 		.ascii	"\006\243\304\335\2564\211\2772\227x\220H\254t\277\242"
 384      AE3489BF 
 384      32977890 
 384      48AC74BF 
 384      A2
 385 0dbb 9C1A584A 		.ascii	"\234\032XJ\254\015\372:\371\342\311\251\217\245^AZQ"
 385      AC0DFA3A 
 385      F9E2C9A9 
 385      8FA55E41 
 385      5A51
 386 0dcd 51069BF4 		.ascii	"Q\006\233\364\022\033f\325\343\031f\325%n\343\254\012"
 386      121B66D5 
 386      E31966D5 
 386      256EE3AC 
 386      0A
 387 0dde 0EF8F7DA 		.ascii	"\016\370\367\332$\253\276\201\222G\230\012\270\315h"
 387      24ABBE81 
 387      9247980A 
 387      B8CD68
 388 0ded D2E6CC26 		.ascii	"\322\346\314&\245\257\031?5\276f\264&\323\277f\324%"
 388      A5AF193F 
 388      35BE66B4 
 388      26D3BF66 
ARM GAS  /var/folders/c6/c789hm653lg9vtl73krp73tm0000gn/T//cciZXqwa.s 			page 31


 388      D425
 389 0dff 4342A473 		.ascii	"CB\244s\350\245n\263D\322\277~y\326DR\245\016Z\204\224"
 389      E8A56EB3 
 389      44D2BF7E 
 389      79D64452 
 389      A50E5A84 
 390 0e14 1689C4D0 		.ascii	"\026\211\304\320\213gW8N$+-\022I\241N\020\265\0274\353"
 390      8B675738 
 390      4E242B2D 
 390      1249A14E 
 390      10B51734 
 391 0e29 DD86D7B0 		.ascii	"\335\206\327\260\006&8\346\205\021\332D\302\3346~|\211"
 391      062638E6 
 391      8511DA44 
 391      C2DC367E 
 391      7C89
 392 0e3b F22F122B 		.ascii	"\362/\022+\021\245\222\230\350/\361W\205b\225\343\375"
 392      11A59298 
 392      E82FF157 
 392      856295E3 
 392      FD
 393 0e4c CC04C36F 		.ascii	"\314\004\303o\321\210(\305J\036y\342\361\311\217\317"
 393      D18828C5 
 393      4A1E79E2 
 393      F1C98FCF 
 394 0e5c 2CF14742 		.ascii	",\361GB\321@P\020c%\217N\236\014$\322\254\250\020\033"
 394      D1405010 
 394      63258F4E 
 394      9E0C24D2 
 394      ACA8101B 
 395 0e70 5FC5E400 		.ascii	"_\305\344\000\255O\312}\364\327O\026Of~UR\035\023K\202"
 395      AD4FCA7D 
 395      F4D74F16 
 395      4F667E55 
 395      521D134B 
 396 0e85 113F1F2C 		.ascii	"\021?\037,\231,\004\203\274XR\351\367\337\303\213\241"
 396      992C0483 
 396      BC5852E9 
 396      F7DFC38B 
 396      A1
 397 0e96 7BC291B0 		.ascii	"{\302\221\260p\217\300O\013\224\334Wz\357\204\322\211"
 397      708FC04F 
 397      0B94DC57 
 397      7AEF84D2 
 397      89
 398 0ea7 A5F797E8 		.ascii	"\245\367\227\350\037\007\302\376`u\271P\022\223\312"
 398      1F07C2FE 
 398      6075B950 
 398      1293CA
 399 0eb6 03610990 		.ascii	"\003a\011\220=p\373\371}>\351w\337\003h\210\367W\005"
 399      3D70FBF9 
 399      7D3EE977 
 399      DF036888 
 399      F75705
 400 0ec9 C24289AF 		.ascii	"\302B\211\257\\\250\340\253\203\222Oe\337\353\363\321"
 400      5CA8E0AB 
 400      83924F65 
ARM GAS  /var/folders/c6/c789hm653lg9vtl73krp73tm0000gn/T//cciZXqwa.s 			page 32


 400      DFEBF3D1 
 401 0ed9 61EE3448 		.ascii	"a\3564H\257\222\372\253b\263bj\367<\251J\024\370r\237"
 401      AF92FAAB 
 401      62B3626A 
 401      F73CA94A 
 401      14F8729F 
 402 0eed E4F557F9 		.ascii	"\344\365W\371\224v\2615\235\277\252\034hr\243\276\260"
 402      9476B135 
 402      9DBFAA1C 
 402      6872A3BE 
 402      B0
 403 0efe 3053825B 		.ascii	"0S\202[T\024fx\244\250\030\210\370\244\274j:n\276\317"
 403      54146678 
 403      A4A81888 
 403      F8A4BC6A 
 403      3A6EBECF 
 404 0f12 A736B14B 		.ascii	"\2476\261K \342\361G\302\022P\334\225\321\036U\376\210"
 404      20E2F147 
 404      C21250DC 
 404      95D11E55 
 404      FE88
 405 0f24 28007C01 		.ascii	"(\000|\001yL\204\360K3\377);\205o\306\203!\"\210(T\202"
 405      794C84F0 
 405      4B33FF29 
 405      3B856FC6 
 405      83212288 
 406 0f3b AA7C1227 		.ascii	"\252|\022'N\340\304\3739\361\001N|\220\023'r\342C.\361"
 406      4EE0C4FB 
 406      39F1014E 
 406      7C901327 
 406      72E2432E 
 407 0f50 DE5228F7 		.ascii	"\336R(\367rA\021n?\317\211\372\000\331C\204\250\021"
 407      7241116E 
 407      3FCF89FA 
 407      00D94384 
 407      A811
 408 0f62 44B84782 		.ascii	"D\270G\202\345\202\350\366W\361\"\221\214\017\011yR"
 408      E582E8F6 
 408      57F12291 
 408      8C0F0979 
 408      52
 409 0f73 4CE225C1 		.ascii	"L\342%\301'y\210 \023A9\212H\320\202\356\370\233G\012"
 409      27798820 
 409      1341398A 
 409      48D082EE 
 409      F89B470A 
 410 0f87 45CA05FC 		.ascii	"E\312\005\374\273\"\310W\306<\222(T\304Pb\322\310\025"
 410      BB22C857 
 410      C63C9228 
 410      54C45062 
 410      D2C815
 411 0f9a CB67811F 		.ascii	"\313g\201\037\345\011"
 411      E509
 412 0fa0 3303921F 		.ascii	"3\003\222\037:\346\326H\221i\177\210\336L\265\015]\004"
 412      3AE6D648 
 412      91697F88 
 412      DE4CB50D 
ARM GAS  /var/folders/c6/c789hm653lg9vtl73krp73tm0000gn/T//cciZXqwa.s 			page 33


 412      5D04
 413 0fb2 5108FB01 		.ascii	"Q\010\373\001 \247F\222\304h!h?&\204\370h\025H4\316"
 413      20A74692 
 413      C4682168 
 413      3F2684F8 
 413      68154834 
 414 0fc7 DA000211 		.ascii	"\332\000\002\021u\244\202\022\363=]-T\003\304\250\244"
 414      75A48212 
 414      F33D5D2D 
 414      5403C4A8 
 414      A4
 415 0fd8 E9E8230F 		.ascii	"\351\350#\017\275\347\370\303\340\03091\037\334\201"
 415      BDE7F8C3 
 415      E0183931 
 415      1FDC81
 416 0fe7 03A08EE6 		.ascii	"\003\240\216\346A\337P5\030\303z\220\2204\2238k\210"
 416      41DF5035 
 416      18C37A90 
 416      90349338 
 416      6B88
 417 0ff9 62857C91 		.ascii	"b\205|\221\2320\350"
 417      9A30E8
 418 1000 09A940C0 		.ascii	"\011\251@\300\220b\374\032\011\372E\013\204\031BX\012"
 418      9062FC1A 
 418      09FA450B 
 418      84194258 
 418      0A
 419 1011 F1B1E9F0 		.ascii	"\361\261\351\360\213PC\032\256\250\257z\204\312N0\020"
 419      8B50431A 
 419      AEA8AF7A 
 419      84CA4E30 
 419      10
 420 1022 030E466A 		.ascii	"\003\016Fj\030$O\274Q_\015\037\220\002\341\312\374\250"
 420      18244FBC 
 420      515F0D1F 
 420      9002E1CA 
 420      FCA8
 421 1034 0FD4A430 		.ascii	"\017\324\2440\213Mx D\2050DL%\364\202!H\377|\242T>\210"
 421      8B4D7820 
 421      44853044 
 421      4C25F482 
 421      2148FF7C 
 422 104c AE040FA3 		.ascii	"\256\004\017\243\221H\020\334\365\361Xe\031\364\344"
 422      914810DC 
 422      F5F15865 
 422      19F4E4
 423 105b A4A80B08 		.ascii	"\244\250\013\010\225\007O\001l!\266\236\020\202\002"
 423      95074F01 
 423      6C21B69E 
 423      108202
 424 106a 1F138AFC 		.ascii	"\037\023\212\374Ue\376\252G#eAA\210\226\025\340_O\000"
 424      5565FEAA 
 424      47236541 
 424      41889615 
 424      E05F4F00 
 425 107e 23B3A614 		.ascii	"#\263\246\024b\373)~\272P\215?\370HT\010!%\022\224v"
 425      62FB297E 
ARM GAS  /var/folders/c6/c789hm653lg9vtl73krp73tm0000gn/T//cciZXqwa.s 			page 34


 425      BA508D3F 
 425      F8485408 
 425      21251294 
 426 1093 21617916 		.ascii	"!ay\026\025\002\220|\251\277=\242\242\236\\\021=<GD"
 426      1502907C 
 426      A9BF3DA2 
 426      A29E5C11 
 426      3D3C4744 
 427 10a7 9F12A94F 		.ascii	"\237\022\251O\211\212Oy\341i\265\010\206\226rDB4zF@"
 427      898A4F79 
 427      E169B508 
 427      86967244 
 427      42347A46 
 428 10bc 94AAF9A0 		.ascii	"\224\252\371\240O\012\204 \361P\3401\000l\362\303H\335"
 428      4F0A8420 
 428      F150E031 
 428      006CF2C3 
 428      48DD
 429 10ce 33C5CABA 		.ascii	"3\305\312\272G\236\031\022\232\202\334I z\011\323\360"
 429      479E1912 
 429      9A82DC49 
 429      207A09D3 
 429      F0
 430 10df 0384223C 		.ascii	"\003\204\"<)\027\202\022\017\215\212\352\260\337\207"
 430      29178212 
 430      0F8D8AEA 
 430      B0DF87
 431 10ee 7D482B97 		.ascii	"}H+\227\364\345\305\002\270\005\371\230D\272\303#2\334"
 431      F4E5C502 
 431      B805F998 
 431      44BAC323 
 431      32DC
 432 1100 082A7EB9 		.ascii	"\010*~\2710\255\272R1\231\366\2117\312\207\003~b!W\371"
 432      30ADBA52 
 432      3199F689 
 432      37CA8703 
 432      7E622157 
 433 1115 B4CAFC10 		.ascii	"\264\312\374\020\017\341\200\026\375\007K?\222\210\257"
 433      0FE18016 
 433      FD074B3F 
 433      9288AF
 434 1124 8E92423E 		.ascii	"\216\222B>\310s\201i\"/\005\"a\340D\224\320+s#\025\025"
 434      C8738169 
 434      222F0522 
 434      61E04494 
 434      D02B7323 
 435 113a 3141E2A4 		.ascii	"1A\342\244P~L\232\016=*\3034\207<0!\231CHsD\240<(P\367"
 435      507E4C9A 
 435      0E3D2AC3 
 435      34873C30 
 435      21994348 
 436 1155 01B7E1FC 		.ascii	"\001\267\341\374U\031\342c\026\246@\260\354\254\330"
 436      5519E263 
 436      16A640B0 
 436      ECACD8
 437 1164 AF22FEE9 		.ascii	"\257\"\376\351^L%\220i\247\377LK\003J+\231\374x\331"
 437      5E4C2590 
ARM GAS  /var/folders/c6/c789hm653lg9vtl73krp73tm0000gn/T//cciZXqwa.s 			page 35


 437      69A7FF4C 
 437      4B034A2B 
 437      99FC78D9 
 438 1178 94B21429 		.ascii	"\224\262\024)I$\376\320\177\202\212\000\240\310\007"
 438      4924FED0 
 438      7F828A00 
 438      A0C807
 439 1187 C128F97E 		.ascii	"\301(\371~\371H\331\177L}bJ\021\037\254\341g\305 #\005"
 439      F948D97F 
 439      4C7D624A 
 439      111FACE1 
 439      67C52023 
 440 119c 21E3E6CC 		.ascii	"!\343\346\314\340\203\325B\241\022z\201pL\020%\227\364"
 440      E083D542 
 440      A1127A81 
 440      704C1025 
 440      97F4
 441 11ae 74B400C7 		.ascii	"t\264\000\307|2L\306R\022X5\266\363|\250w\237\257Hm"
 441      7C324CC6 
 441      52125835 
 441      B6F37CA8 
 441      779FAF48 
 442 11c3 8C7F60C2 		.ascii	"\214\177`\302C\367f\210>\230\271`\022\362\375\022\234"
 442      43F76688 
 442      3E98B960 
 442      12F2FD12 
 442      9C
 443 11d4 7C247AF2 		.ascii	"|$z\362\224\330T% \246\334\244\214Z\021\250\210\200"
 443      94D85425 
 443      20A6DCA4 
 443      8C5A11A8 
 443      8880
 444 11e6 2B862233 		.ascii	"+\206\"3\210{\247|\275L3\306\375\245\245\377\007$\250"
 444      887BA77C 
 444      BD4C33C6 
 444      FDA5A5FF 
 444      0724A8
 445 11f9 D4EF     		.ascii	"\324\357"
 446              		.text
 447              		.section	.gnu.lto_.symtab.ca6c227b430c66ec,"",%progbits
 448 0000 63684D73 		.ascii	"chMsgSend\000\000\000\000\000\000\000\000\000\000\000"
 448      6753656E 
 448      64000000 
 448      00000000 
 448      00000000 
 449 0014 00A10000 		.ascii	"\000\241\000\000\000chMsgWait\000\000\000\000\000\000"
 449      0063684D 
 449      73675761 
 449      69740000 
 449      00000000 
 450 0028 00000000 		.ascii	"\000\000\000\000\000\000Z\001\000\000chMsgRelease\000"
 450      00005A01 
 450      00006368 
 450      4D736752 
 450      656C6561 
 451 003f 00000000 		.ascii	"\000\000\000\000\000\000\000\000\000\000\000^\001\000"
 451      00000000 
ARM GAS  /var/folders/c6/c789hm653lg9vtl73krp73tm0000gn/T//cciZXqwa.s 			page 36


 451      0000005E 
 451      0100
 452 004d 00636800 		.ascii	"\000ch\000\000\002\000\000\000\000\000\000\000\000\000"
 452      00020000 
 452      00000000 
 452      000000
 453 005c 70010000 		.ascii	"p\001\000\000chSchGoSleepS\000\000\002\000\000\000\000"
 453      63685363 
 453      68476F53 
 453      6C656570 
 453      53000002 
 454 0074 00000000 		.ascii	"\000\000\000\000\000f\001\000\000chSchReadyI\000\000"
 454      00660100 
 454      00636853 
 454      63685265 
 454      61647949 
 455 008a 02000000 		.ascii	"\002\000\000\000\000\000\000\000\000\000j\001\000\000"
 455      00000000 
 455      00006A01 
 455      0000
 456 0098 63685363 		.ascii	"chSchWakeupS\000\000\002\000\000\000\000\000\000\000"
 456      6857616B 
 456      65757053 
 456      00000200 
 456      00000000 
 457 00ae 00006E01 		.ascii	"\000\000n\001\000\000"
 457      0000
 458              		.text
 459              		.section	.gnu.lto_.opts,"",%progbits
 460 0000 272D6D63 		.ascii	"'-mcpu=cortex-m4' '-mno-thumb-interwork' '-mthumb' "
 460      70753D63 
 460      6F727465 
 460      782D6D34 
 460      2720272D 
 461 0033 272D6767 		.ascii	"'-ggdb' '-O2' '-fomit-frame-pointer' '-falign-funct"
 461      64622720 
 461      272D4F32 
 461      2720272D 
 461      666F6D69 
 462 0066 696F6E73 		.ascii	"ions=16' '-ffunction-sections' '-fdata-sections' '-"
 462      3D313627 
 462      20272D66 
 462      66756E63 
 462      74696F6E 
 463 0099 666E6F2D 		.ascii	"fno-common' '-flto'\000"
 463      636F6D6D 
 463      6F6E2720 
 463      272D666C 
 463      746F2700 
 464              		.text
 465              		.cfi_sections	.debug_frame
 466              		.section	.text.chMsgSend,"ax",%progbits
 467              		.align	2
 468              		.p2align 4,,15
 469              		.global	chMsgSend
 470              		.thumb
 471              		.thumb_func
ARM GAS  /var/folders/c6/c789hm653lg9vtl73krp73tm0000gn/T//cciZXqwa.s 			page 37


 472              		.type	chMsgSend, %function
 473              	chMsgSend:
 474              	.LFB229:
 475              		.file 1 "../../../os/rt/src/chmsg.c"
 476              		.loc 1 87 0
 477              		.cfi_startproc
 478              		@ args = 0, pretend = 0, frame = 0
 479              		@ frame_needed = 0, uses_anonymous_args = 0
 480              	.LVL0:
 481              		.loc 1 88 0
 482 0000 0E4B     		ldr	r3, .L5
 483              		.loc 1 87 0
 484 0002 70B5     		push	{r4, r5, r6, lr}
 485              		.cfi_def_cfa_offset 16
 486              		.cfi_offset 4, -16
 487              		.cfi_offset 5, -12
 488              		.cfi_offset 6, -8
 489              		.cfi_offset 14, -4
 490              	.LBB52:
 491              	.LBB53:
 492              	.LBB54:
 493              	.LBB55:
 494              		.file 2 "../../../os/ext/CMSIS/include/core_cmFunc.h"
 495              		.loc 2 546 0
 496 0004 2022     		movs	r2, #32
 497              	.LBE55:
 498              	.LBE54:
 499              	.LBE53:
 500              	.LBE52:
 501              		.loc 1 88 0
 502 0006 9C69     		ldr	r4, [r3, #24]
 503              	.LVL1:
 504              	.LBB59:
 505              	.LBB58:
 506              	.LBB57:
 507              	.LBB56:
 508              		.loc 2 546 0
 509              	@ 546 "../../../os/ext/CMSIS/include/core_cmFunc.h" 1
 510 0008 82F31188 		MSR basepri, r2
 511              	@ 0 "" 2
 512              		.thumb
 513              	.LBE56:
 514              	.LBE57:
 515              	.LBE58:
 516              	.LBE59:
 517              		.loc 1 94 0
 518 000c 00F12805 		add	r5, r0, #40
 519              		.loc 1 96 0
 520 0010 067F     		ldrb	r6, [r0, #28]	@ zero_extendqisi2
 521              		.loc 1 94 0
 522 0012 2562     		str	r5, [r4, #32]
 523              	.LVL2:
 524              	.LBB60:
 525              	.LBB61:
 526              		.file 3 "../../../os/rt/include/chschd.h"
 527              		.loc 3 666 0
 528 0014 C26A     		ldr	r2, [r0, #44]
ARM GAS  /var/folders/c6/c789hm653lg9vtl73krp73tm0000gn/T//cciZXqwa.s 			page 38


 529 0016 6260     		str	r2, [r4, #4]
 530              	.LBE61:
 531              	.LBE60:
 532              		.loc 1 96 0
 533 0018 0E2E     		cmp	r6, #14
 534              		.loc 1 93 0
 535 001a 2163     		str	r1, [r4, #48]
 536              	.LBB63:
 537              	.LBB62:
 538              		.loc 3 665 0
 539 001c 2560     		str	r5, [r4]
 540              		.loc 3 667 0
 541 001e 1460     		str	r4, [r2]
 542              		.loc 3 668 0
 543 0020 C462     		str	r4, [r0, #44]
 544              	.LBE62:
 545              	.LBE63:
 546              		.loc 1 96 0
 547 0022 07D0     		beq	.L4
 548              	.LVL3:
 549              	.L2:
 550              		.loc 1 99 0
 551 0024 0C20     		movs	r0, #12
 552 0026 FFF7FEFF 		bl	chSchGoSleepS
 553              	.LVL4:
 554              		.loc 1 100 0
 555 002a 206A     		ldr	r0, [r4, #32]
 556              	.LVL5:
 557              	.LBB64:
 558              	.LBB65:
 559              	.LBB66:
 560              	.LBB67:
 561              	.LBB68:
 562              		.loc 2 546 0
 563 002c 0023     		movs	r3, #0
 564              	@ 546 "../../../os/ext/CMSIS/include/core_cmFunc.h" 1
 565 002e 83F31188 		MSR basepri, r3
 566              	@ 0 "" 2
 567              		.thumb
 568              	.LBE68:
 569              	.LBE67:
 570              	.LBE66:
 571              	.LBE65:
 572              	.LBE64:
 573              		.loc 1 104 0
 574 0032 70BD     		pop	{r4, r5, r6, pc}
 575              	.LVL6:
 576              	.L4:
 577              		.loc 1 97 0
 578 0034 FFF7FEFF 		bl	chSchReadyI
 579              	.LVL7:
 580 0038 F4E7     		b	.L2
 581              	.L6:
 582 003a 00BF     		.align	2
 583              	.L5:
 584 003c 00000000 		.word	ch
 585              		.cfi_endproc
ARM GAS  /var/folders/c6/c789hm653lg9vtl73krp73tm0000gn/T//cciZXqwa.s 			page 39


 586              	.LFE229:
 587              		.size	chMsgSend, .-chMsgSend
 588              		.section	.text.chMsgWait,"ax",%progbits
 589              		.align	2
 590              		.p2align 4,,15
 591              		.global	chMsgWait
 592              		.thumb
 593              		.thumb_func
 594              		.type	chMsgWait, %function
 595              	chMsgWait:
 596              	.LFB230:
 597              		.loc 1 120 0
 598              		.cfi_startproc
 599              		@ args = 0, pretend = 0, frame = 0
 600              		@ frame_needed = 0, uses_anonymous_args = 0
 601              	.LVL8:
 602 0000 10B5     		push	{r4, lr}
 603              		.cfi_def_cfa_offset 8
 604              		.cfi_offset 4, -8
 605              		.cfi_offset 14, -4
 606              	.LBB69:
 607              	.LBB70:
 608              	.LBB71:
 609              	.LBB72:
 610              		.loc 2 546 0
 611 0002 2023     		movs	r3, #32
 612              	@ 546 "../../../os/ext/CMSIS/include/core_cmFunc.h" 1
 613 0004 83F31188 		MSR basepri, r3
 614              	@ 0 "" 2
 615              		.thumb
 616              	.LBE72:
 617              	.LBE71:
 618              	.LBE70:
 619              	.LBE69:
 620              		.loc 1 124 0
 621 0008 0B4C     		ldr	r4, .L10
 622 000a A269     		ldr	r2, [r4, #24]
 623              	.LVL9:
 624              	.LBB73:
 625              	.LBB74:
 626              		.file 4 "../../../os/rt/include/chmsg.h"
 627              		.loc 4 83 0
 628 000c 1346     		mov	r3, r2
 629 000e 53F8280F 		ldr	r0, [r3, #40]!
 630              	.LBE74:
 631              	.LBE73:
 632              		.loc 1 124 0
 633 0012 9842     		cmp	r0, r3
 634 0014 08D0     		beq	.L9
 635              	.LVL10:
 636              	.L8:
 637              	.LBB75:
 638              	.LBB76:
 639              		.loc 3 674 0
 640 0016 0168     		ldr	r1, [r0]
 641 0018 9162     		str	r1, [r2, #40]
 642              	.LBE76:
ARM GAS  /var/folders/c6/c789hm653lg9vtl73krp73tm0000gn/T//cciZXqwa.s 			page 40


 643              	.LBE75:
 644              		.loc 1 128 0
 645 001a 0D22     		movs	r2, #13
 646              	.LBB78:
 647              	.LBB77:
 648              		.loc 3 675 0
 649 001c 4B60     		str	r3, [r1, #4]
 650              	.LBE77:
 651              	.LBE78:
 652              	.LBB79:
 653              	.LBB80:
 654              	.LBB81:
 655              	.LBB82:
 656              	.LBB83:
 657              		.loc 2 546 0
 658 001e 0023     		movs	r3, #0
 659              	.LVL11:
 660              	.LBE83:
 661              	.LBE82:
 662              	.LBE81:
 663              	.LBE80:
 664              	.LBE79:
 665              		.loc 1 128 0
 666 0020 0277     		strb	r2, [r0, #28]
 667              	.LVL12:
 668              	.LBB88:
 669              	.LBB87:
 670              	.LBB86:
 671              	.LBB85:
 672              	.LBB84:
 673              		.loc 2 546 0
 674              	@ 546 "../../../os/ext/CMSIS/include/core_cmFunc.h" 1
 675 0022 83F31188 		MSR basepri, r3
 676              	@ 0 "" 2
 677              		.thumb
 678              	.LBE84:
 679              	.LBE85:
 680              	.LBE86:
 681              	.LBE87:
 682              	.LBE88:
 683              		.loc 1 132 0
 684 0026 10BD     		pop	{r4, pc}
 685              	.LVL13:
 686              	.L9:
 687              		.loc 1 125 0
 688 0028 0E20     		movs	r0, #14
 689 002a FFF7FEFF 		bl	chSchGoSleepS
 690              	.LVL14:
 691 002e A269     		ldr	r2, [r4, #24]
 692 0030 906A     		ldr	r0, [r2, #40]
 693 0032 02F12803 		add	r3, r2, #40
 694 0036 EEE7     		b	.L8
 695              	.L11:
 696              		.align	2
 697              	.L10:
 698 0038 00000000 		.word	ch
 699              		.cfi_endproc
ARM GAS  /var/folders/c6/c789hm653lg9vtl73krp73tm0000gn/T//cciZXqwa.s 			page 41


 700              	.LFE230:
 701              		.size	chMsgWait, .-chMsgWait
 702 003c AFF30080 		.section	.text.chMsgRelease,"ax",%progbits
 703              		.align	2
 704              		.p2align 4,,15
 705              		.global	chMsgRelease
 706              		.thumb
 707              		.thumb_func
 708              		.type	chMsgRelease, %function
 709              	chMsgRelease:
 710              	.LFB231:
 711              		.loc 1 144 0
 712              		.cfi_startproc
 713              		@ args = 0, pretend = 0, frame = 0
 714              		@ frame_needed = 0, uses_anonymous_args = 0
 715              	.LVL15:
 716 0000 08B5     		push	{r3, lr}
 717              		.cfi_def_cfa_offset 8
 718              		.cfi_offset 3, -8
 719              		.cfi_offset 14, -4
 720              	.LBB89:
 721              	.LBB90:
 722              	.LBB91:
 723              	.LBB92:
 724              		.loc 2 546 0
 725 0002 2023     		movs	r3, #32
 726              	@ 546 "../../../os/ext/CMSIS/include/core_cmFunc.h" 1
 727 0004 83F31188 		MSR basepri, r3
 728              	@ 0 "" 2
 729              	.LVL16:
 730              		.thumb
 731              	.LBE92:
 732              	.LBE91:
 733              	.LBE90:
 734              	.LBE89:
 735              	.LBB93:
 736              	.LBB94:
 737              		.loc 4 115 0
 738 0008 FFF7FEFF 		bl	chSchWakeupS
 739              	.LVL17:
 740              	.LBE94:
 741              	.LBE93:
 742              	.LBB95:
 743              	.LBB96:
 744              	.LBB97:
 745              	.LBB98:
 746              	.LBB99:
 747              		.loc 2 546 0
 748 000c 0023     		movs	r3, #0
 749              	@ 546 "../../../os/ext/CMSIS/include/core_cmFunc.h" 1
 750 000e 83F31188 		MSR basepri, r3
 751              	@ 0 "" 2
 752              		.thumb
 753 0012 08BD     		pop	{r3, pc}
 754              	.LBE99:
 755              	.LBE98:
 756              	.LBE97:
ARM GAS  /var/folders/c6/c789hm653lg9vtl73krp73tm0000gn/T//cciZXqwa.s 			page 42


 757              	.LBE96:
 758              	.LBE95:
 759              		.cfi_endproc
 760              	.LFE231:
 761              		.size	chMsgRelease, .-chMsgRelease
 762 0014 AFF30080 		.text
 762      AFF30080 
 762      AFF30080 
 763              	.Letext0:
 764              		.file 5 "/usr/local/Cellar/gcc-arm-none-eabi/20140805/arm-none-eabi/include/machine/_default_types
 765              		.file 6 "/usr/local/Cellar/gcc-arm-none-eabi/20140805/arm-none-eabi/include/stdint.h"
 766              		.file 7 "../../../os/rt/ports/ARMCMx/compilers/GCC/chtypes.h"
 767              		.file 8 "../../../os/rt/include/chsystypes.h"
 768              		.file 9 "../../../os/rt/ports/ARMCMx/chcore.h"
 769              		.file 10 "../../../os/rt/ports/ARMCMx/chcore_v7m.h"
 770              		.file 11 "../../../os/rt/include/chtm.h"
 771              		.file 12 "../../../os/rt/include/chsem.h"
 772              		.file 13 "../../../os/rt/include/chmtx.h"
 773              		.file 14 "../../../os/rt/include/chsys.h"
 774              		.file 15 "../../../os/ext/CMSIS/include/core_cm4.h"
 775              		.section	.debug_info,"",%progbits
 776              	.Ldebug_info0:
 777 0000 A50A0000 		.4byte	0xaa5
 778 0004 0400     		.2byte	0x4
 779 0006 00000000 		.4byte	.Ldebug_abbrev0
 780 000a 04       		.byte	0x4
 781 000b 01       		.uleb128 0x1
 782 000c 00000000 		.4byte	.LASF118
 783 0010 01       		.byte	0x1
 784 0011 14060000 		.4byte	.LASF119
 785 0015 E3040000 		.4byte	.LASF120
 786 0019 60000000 		.4byte	.Ldebug_ranges0+0x60
 787 001d 00000000 		.4byte	0
 788 0021 00000000 		.4byte	.Ldebug_line0
 789 0025 02       		.uleb128 0x2
 790 0026 04       		.byte	0x4
 791 0027 05       		.byte	0x5
 792 0028 696E7400 		.ascii	"int\000"
 793 002c 03       		.uleb128 0x3
 794 002d 04       		.byte	0x4
 795 002e 07       		.byte	0x7
 796 002f 72020000 		.4byte	.LASF0
 797 0033 03       		.uleb128 0x3
 798 0034 01       		.byte	0x1
 799 0035 06       		.byte	0x6
 800 0036 C1010000 		.4byte	.LASF1
 801 003a 04       		.uleb128 0x4
 802 003b 10010000 		.4byte	.LASF5
 803 003f 05       		.byte	0x5
 804 0040 1C       		.byte	0x1c
 805 0041 45000000 		.4byte	0x45
 806 0045 03       		.uleb128 0x3
 807 0046 01       		.byte	0x1
 808 0047 08       		.byte	0x8
 809 0048 08040000 		.4byte	.LASF2
 810 004c 03       		.uleb128 0x3
 811 004d 02       		.byte	0x2
ARM GAS  /var/folders/c6/c789hm653lg9vtl73krp73tm0000gn/T//cciZXqwa.s 			page 43


 812 004e 05       		.byte	0x5
 813 004f 20040000 		.4byte	.LASF3
 814 0053 03       		.uleb128 0x3
 815 0054 02       		.byte	0x2
 816 0055 07       		.byte	0x7
 817 0056 C4020000 		.4byte	.LASF4
 818 005a 04       		.uleb128 0x4
 819 005b 22030000 		.4byte	.LASF6
 820 005f 05       		.byte	0x5
 821 0060 37       		.byte	0x37
 822 0061 65000000 		.4byte	0x65
 823 0065 03       		.uleb128 0x3
 824 0066 04       		.byte	0x4
 825 0067 05       		.byte	0x5
 826 0068 FA010000 		.4byte	.LASF7
 827 006c 04       		.uleb128 0x4
 828 006d 6C050000 		.4byte	.LASF8
 829 0071 05       		.byte	0x5
 830 0072 38       		.byte	0x38
 831 0073 77000000 		.4byte	0x77
 832 0077 03       		.uleb128 0x3
 833 0078 04       		.byte	0x4
 834 0079 07       		.byte	0x7
 835 007a D1040000 		.4byte	.LASF9
 836 007e 03       		.uleb128 0x3
 837 007f 08       		.byte	0x8
 838 0080 05       		.byte	0x5
 839 0081 B3010000 		.4byte	.LASF10
 840 0085 04       		.uleb128 0x4
 841 0086 B8030000 		.4byte	.LASF11
 842 008a 05       		.byte	0x5
 843 008b 4E       		.byte	0x4e
 844 008c 90000000 		.4byte	0x90
 845 0090 03       		.uleb128 0x3
 846 0091 08       		.byte	0x8
 847 0092 07       		.byte	0x7
 848 0093 4D010000 		.4byte	.LASF12
 849 0097 04       		.uleb128 0x4
 850 0098 DD050000 		.4byte	.LASF13
 851 009c 06       		.byte	0x6
 852 009d 2A       		.byte	0x2a
 853 009e 3A000000 		.4byte	0x3a
 854 00a2 04       		.uleb128 0x4
 855 00a3 00040000 		.4byte	.LASF14
 856 00a7 06       		.byte	0x6
 857 00a8 41       		.byte	0x41
 858 00a9 5A000000 		.4byte	0x5a
 859 00ad 04       		.uleb128 0x4
 860 00ae 9D040000 		.4byte	.LASF15
 861 00b2 06       		.byte	0x6
 862 00b3 42       		.byte	0x42
 863 00b4 6C000000 		.4byte	0x6c
 864 00b8 04       		.uleb128 0x4
 865 00b9 07010000 		.4byte	.LASF16
 866 00bd 06       		.byte	0x6
 867 00be 4E       		.byte	0x4e
 868 00bf 85000000 		.4byte	0x85
ARM GAS  /var/folders/c6/c789hm653lg9vtl73krp73tm0000gn/T//cciZXqwa.s 			page 44


 869 00c3 05       		.uleb128 0x5
 870 00c4 A2000000 		.4byte	0xa2
 871 00c8 04       		.uleb128 0x4
 872 00c9 9E050000 		.4byte	.LASF17
 873 00cd 07       		.byte	0x7
 874 00ce 45       		.byte	0x45
 875 00cf AD000000 		.4byte	0xad
 876 00d3 04       		.uleb128 0x4
 877 00d4 00030000 		.4byte	.LASF18
 878 00d8 07       		.byte	0x7
 879 00d9 48       		.byte	0x48
 880 00da 97000000 		.4byte	0x97
 881 00de 04       		.uleb128 0x4
 882 00df 0D020000 		.4byte	.LASF19
 883 00e3 07       		.byte	0x7
 884 00e4 49       		.byte	0x49
 885 00e5 97000000 		.4byte	0x97
 886 00e9 04       		.uleb128 0x4
 887 00ea C3030000 		.4byte	.LASF20
 888 00ee 07       		.byte	0x7
 889 00ef 4A       		.byte	0x4a
 890 00f0 97000000 		.4byte	0x97
 891 00f4 04       		.uleb128 0x4
 892 00f5 E2030000 		.4byte	.LASF21
 893 00f9 07       		.byte	0x7
 894 00fa 4C       		.byte	0x4c
 895 00fb AD000000 		.4byte	0xad
 896 00ff 04       		.uleb128 0x4
 897 0100 EE020000 		.4byte	.LASF22
 898 0104 07       		.byte	0x7
 899 0105 4D       		.byte	0x4d
 900 0106 A2000000 		.4byte	0xa2
 901 010a 04       		.uleb128 0x4
 902 010b 16030000 		.4byte	.LASF23
 903 010f 07       		.byte	0x7
 904 0110 4F       		.byte	0x4f
 905 0111 AD000000 		.4byte	0xad
 906 0115 04       		.uleb128 0x4
 907 0116 6C020000 		.4byte	.LASF24
 908 011a 07       		.byte	0x7
 909 011b 51       		.byte	0x51
 910 011c A2000000 		.4byte	0xa2
 911 0120 04       		.uleb128 0x4
 912 0121 4E050000 		.4byte	.LASF25
 913 0125 08       		.byte	0x8
 914 0126 33       		.byte	0x33
 915 0127 AD000000 		.4byte	0xad
 916 012b 04       		.uleb128 0x4
 917 012c 33050000 		.4byte	.LASF26
 918 0130 08       		.byte	0x8
 919 0131 3F       		.byte	0x3f
 920 0132 36010000 		.4byte	0x136
 921 0136 06       		.uleb128 0x6
 922 0137 D7020000 		.4byte	.LASF46
 923 013b 44       		.byte	0x44
 924 013c 03       		.byte	0x3
 925 013d C2       		.byte	0xc2
ARM GAS  /var/folders/c6/c789hm653lg9vtl73krp73tm0000gn/T//cciZXqwa.s 			page 45


 926 013e 23020000 		.4byte	0x223
 927 0142 07       		.uleb128 0x7
 928 0143 40040000 		.4byte	.LASF27
 929 0147 03       		.byte	0x3
 930 0148 C3       		.byte	0xc3
 931 0149 2E020000 		.4byte	0x22e
 932 014d 00       		.byte	0
 933 014e 07       		.uleb128 0x7
 934 014f DB030000 		.4byte	.LASF28
 935 0153 03       		.byte	0x3
 936 0154 C5       		.byte	0xc5
 937 0155 2E020000 		.4byte	0x22e
 938 0159 04       		.byte	0x4
 939 015a 07       		.uleb128 0x7
 940 015b AC010000 		.4byte	.LASF29
 941 015f 03       		.byte	0x3
 942 0160 C7       		.byte	0xc7
 943 0161 F4000000 		.4byte	0xf4
 944 0165 08       		.byte	0x8
 945 0166 07       		.uleb128 0x7
 946 0167 45060000 		.4byte	.LASF30
 947 016b 03       		.byte	0x3
 948 016c C8       		.byte	0xc8
 949 016d 5E040000 		.4byte	0x45e
 950 0171 0C       		.byte	0xc
 951 0172 07       		.uleb128 0x7
 952 0173 26020000 		.4byte	.LASF31
 953 0177 03       		.byte	0x3
 954 0178 CA       		.byte	0xca
 955 0179 2E020000 		.4byte	0x22e
 956 017d 10       		.byte	0x10
 957 017e 07       		.uleb128 0x7
 958 017f 80030000 		.4byte	.LASF32
 959 0183 03       		.byte	0x3
 960 0184 CB       		.byte	0xcb
 961 0185 2E020000 		.4byte	0x22e
 962 0189 14       		.byte	0x14
 963 018a 07       		.uleb128 0x7
 964 018b EC050000 		.4byte	.LASF33
 965 018f 03       		.byte	0x3
 966 0190 D2       		.byte	0xd2
 967 0191 DD050000 		.4byte	0x5dd
 968 0195 18       		.byte	0x18
 969 0196 07       		.uleb128 0x7
 970 0197 2A040000 		.4byte	.LASF34
 971 019b 03       		.byte	0x3
 972 019c DD       		.byte	0xdd
 973 019d DE000000 		.4byte	0xde
 974 01a1 1C       		.byte	0x1c
 975 01a2 07       		.uleb128 0x7
 976 01a3 47040000 		.4byte	.LASF35
 977 01a7 03       		.byte	0x3
 978 01a8 E1       		.byte	0xe1
 979 01a9 D3000000 		.4byte	0xd3
 980 01ad 1D       		.byte	0x1d
 981 01ae 07       		.uleb128 0x7
 982 01af D0050000 		.4byte	.LASF36
ARM GAS  /var/folders/c6/c789hm653lg9vtl73krp73tm0000gn/T//cciZXqwa.s 			page 46


 983 01b3 03       		.byte	0x3
 984 01b4 E6       		.byte	0xe6
 985 01b5 E9000000 		.4byte	0xe9
 986 01b9 1E       		.byte	0x1e
 987 01ba 08       		.uleb128 0x8
 988 01bb 705F7500 		.ascii	"p_u\000"
 989 01bf 03       		.byte	0x3
 990 01c0 3101     		.2byte	0x131
 991 01c2 18050000 		.4byte	0x518
 992 01c6 20       		.byte	0x20
 993 01c7 09       		.uleb128 0x9
 994 01c8 37030000 		.4byte	.LASF37
 995 01cc 03       		.byte	0x3
 996 01cd 3601     		.2byte	0x136
 997 01cf 34020000 		.4byte	0x234
 998 01d3 24       		.byte	0x24
 999 01d4 09       		.uleb128 0x9
 1000 01d5 B3020000 		.4byte	.LASF38
 1001 01d9 03       		.byte	0x3
 1002 01da 3C01     		.2byte	0x13c
 1003 01dc 58020000 		.4byte	0x258
 1004 01e0 28       		.byte	0x28
 1005 01e1 09       		.uleb128 0x9
 1006 01e2 0E060000 		.4byte	.LASF39
 1007 01e6 03       		.byte	0x3
 1008 01e7 4001     		.2byte	0x140
 1009 01e9 FF000000 		.4byte	0xff
 1010 01ed 30       		.byte	0x30
 1011 01ee 09       		.uleb128 0x9
 1012 01ef 92040000 		.4byte	.LASF40
 1013 01f3 03       		.byte	0x3
 1014 01f4 4601     		.2byte	0x146
 1015 01f6 0A010000 		.4byte	0x10a
 1016 01fa 34       		.byte	0x34
 1017 01fb 09       		.uleb128 0x9
 1018 01fc 16040000 		.4byte	.LASF41
 1019 0200 03       		.byte	0x3
 1020 0201 4D01     		.2byte	0x14d
 1021 0203 D7050000 		.4byte	0x5d7
 1022 0207 38       		.byte	0x38
 1023 0208 09       		.uleb128 0x9
 1024 0209 58050000 		.4byte	.LASF42
 1025 020d 03       		.byte	0x3
 1026 020e 5101     		.2byte	0x151
 1027 0210 F4000000 		.4byte	0xf4
 1028 0214 3C       		.byte	0x3c
 1029 0215 09       		.uleb128 0x9
 1030 0216 CD010000 		.4byte	.LASF43
 1031 021a 03       		.byte	0x3
 1032 021b 5801     		.2byte	0x158
 1033 021d 0B030000 		.4byte	0x30b
 1034 0221 40       		.byte	0x40
 1035 0222 00       		.byte	0
 1036 0223 04       		.uleb128 0x4
 1037 0224 4A030000 		.4byte	.LASF44
 1038 0228 08       		.byte	0x8
 1039 0229 44       		.byte	0x44
ARM GAS  /var/folders/c6/c789hm653lg9vtl73krp73tm0000gn/T//cciZXqwa.s 			page 47


 1040 022a 2E020000 		.4byte	0x22e
 1041 022e 0A       		.uleb128 0xa
 1042 022f 04       		.byte	0x4
 1043 0230 2B010000 		.4byte	0x12b
 1044 0234 04       		.uleb128 0x4
 1045 0235 F3050000 		.4byte	.LASF45
 1046 0239 08       		.byte	0x8
 1047 023a 49       		.byte	0x49
 1048 023b 3F020000 		.4byte	0x23f
 1049 023f 06       		.uleb128 0x6
 1050 0240 C1040000 		.4byte	.LASF47
 1051 0244 04       		.byte	0x4
 1052 0245 03       		.byte	0x3
 1053 0246 B0       		.byte	0xb0
 1054 0247 58020000 		.4byte	0x258
 1055 024b 07       		.uleb128 0x7
 1056 024c 40040000 		.4byte	.LASF27
 1057 0250 03       		.byte	0x3
 1058 0251 B1       		.byte	0xb1
 1059 0252 2E020000 		.4byte	0x22e
 1060 0256 00       		.byte	0
 1061 0257 00       		.byte	0
 1062 0258 04       		.uleb128 0x4
 1063 0259 B7050000 		.4byte	.LASF48
 1064 025d 08       		.byte	0x8
 1065 025e 50       		.byte	0x50
 1066 025f 63020000 		.4byte	0x263
 1067 0263 06       		.uleb128 0x6
 1068 0264 9B010000 		.4byte	.LASF49
 1069 0268 08       		.byte	0x8
 1070 0269 03       		.byte	0x3
 1071 026a B7       		.byte	0xb7
 1072 026b 88020000 		.4byte	0x288
 1073 026f 07       		.uleb128 0x7
 1074 0270 40040000 		.4byte	.LASF27
 1075 0274 03       		.byte	0x3
 1076 0275 B8       		.byte	0xb8
 1077 0276 2E020000 		.4byte	0x22e
 1078 027a 00       		.byte	0
 1079 027b 07       		.uleb128 0x7
 1080 027c DB030000 		.4byte	.LASF28
 1081 0280 03       		.byte	0x3
 1082 0281 B9       		.byte	0xb9
 1083 0282 2E020000 		.4byte	0x22e
 1084 0286 04       		.byte	0x4
 1085 0287 00       		.byte	0
 1086 0288 04       		.uleb128 0x4
 1087 0289 E0000000 		.4byte	.LASF50
 1088 028d 08       		.byte	0x8
 1089 028e 57       		.byte	0x57
 1090 028f 93020000 		.4byte	0x293
 1091 0293 0B       		.uleb128 0xb
 1092 0294 08030000 		.4byte	.LASF51
 1093 0298 1C       		.byte	0x1c
 1094 0299 03       		.byte	0x3
 1095 029a 9001     		.2byte	0x190
 1096 029c EF020000 		.4byte	0x2ef
ARM GAS  /var/folders/c6/c789hm653lg9vtl73krp73tm0000gn/T//cciZXqwa.s 			page 48


 1097 02a0 09       		.uleb128 0x9
 1098 02a1 AD040000 		.4byte	.LASF52
 1099 02a5 03       		.byte	0x3
 1100 02a6 9101     		.2byte	0x191
 1101 02a8 58020000 		.4byte	0x258
 1102 02ac 00       		.byte	0
 1103 02ad 09       		.uleb128 0x9
 1104 02ae 32040000 		.4byte	.LASF53
 1105 02b2 03       		.byte	0x3
 1106 02b3 9201     		.2byte	0x192
 1107 02b5 F4000000 		.4byte	0xf4
 1108 02b9 08       		.byte	0x8
 1109 02ba 09       		.uleb128 0x9
 1110 02bb 88030000 		.4byte	.LASF54
 1111 02bf 03       		.byte	0x3
 1112 02c0 9401     		.2byte	0x194
 1113 02c2 5E040000 		.4byte	0x45e
 1114 02c6 0C       		.byte	0xc
 1115 02c7 09       		.uleb128 0x9
 1116 02c8 36020000 		.4byte	.LASF55
 1117 02cc 03       		.byte	0x3
 1118 02cd 9701     		.2byte	0x197
 1119 02cf 2E020000 		.4byte	0x22e
 1120 02d3 10       		.byte	0x10
 1121 02d4 09       		.uleb128 0x9
 1122 02d5 B0030000 		.4byte	.LASF56
 1123 02d9 03       		.byte	0x3
 1124 02da 9801     		.2byte	0x198
 1125 02dc 2E020000 		.4byte	0x22e
 1126 02e0 14       		.byte	0x14
 1127 02e1 09       		.uleb128 0x9
 1128 02e2 A6030000 		.4byte	.LASF57
 1129 02e6 03       		.byte	0x3
 1130 02e7 9B01     		.2byte	0x19b
 1131 02e9 2E020000 		.4byte	0x22e
 1132 02ed 18       		.byte	0x18
 1133 02ee 00       		.byte	0
 1134 02ef 04       		.uleb128 0x4
 1135 02f0 63050000 		.4byte	.LASF58
 1136 02f4 08       		.byte	0x8
 1137 02f5 5C       		.byte	0x5c
 1138 02f6 FA020000 		.4byte	0x2fa
 1139 02fa 0A       		.uleb128 0xa
 1140 02fb 04       		.byte	0x4
 1141 02fc 00030000 		.4byte	0x300
 1142 0300 0C       		.uleb128 0xc
 1143 0301 0B030000 		.4byte	0x30b
 1144 0305 0D       		.uleb128 0xd
 1145 0306 0B030000 		.4byte	0x30b
 1146 030a 00       		.byte	0
 1147 030b 0E       		.uleb128 0xe
 1148 030c 04       		.byte	0x4
 1149 030d 04       		.uleb128 0x4
 1150 030e CB030000 		.4byte	.LASF59
 1151 0312 08       		.byte	0x8
 1152 0313 61       		.byte	0x61
 1153 0314 18030000 		.4byte	0x318
ARM GAS  /var/folders/c6/c789hm653lg9vtl73krp73tm0000gn/T//cciZXqwa.s 			page 49


 1154 0318 0B       		.uleb128 0xb
 1155 0319 59040000 		.4byte	.LASF60
 1156 031d 14       		.byte	0x14
 1157 031e 03       		.byte	0x3
 1158 031f 6B01     		.2byte	0x16b
 1159 0321 67030000 		.4byte	0x367
 1160 0325 09       		.uleb128 0x9
 1161 0326 7F020000 		.4byte	.LASF61
 1162 032a 03       		.byte	0x3
 1163 032b 6C01     		.2byte	0x16c
 1164 032d EF050000 		.4byte	0x5ef
 1165 0331 00       		.byte	0
 1166 0332 09       		.uleb128 0x9
 1167 0333 47020000 		.4byte	.LASF62
 1168 0337 03       		.byte	0x3
 1169 0338 6D01     		.2byte	0x16d
 1170 033a EF050000 		.4byte	0x5ef
 1171 033e 04       		.byte	0x4
 1172 033f 09       		.uleb128 0x9
 1173 0340 AA020000 		.4byte	.LASF63
 1174 0344 03       		.byte	0x3
 1175 0345 6E01     		.2byte	0x16e
 1176 0347 20010000 		.4byte	0x120
 1177 034b 08       		.byte	0x8
 1178 034c 09       		.uleb128 0x9
 1179 034d 4B060000 		.4byte	.LASF64
 1180 0351 03       		.byte	0x3
 1181 0352 6F01     		.2byte	0x16f
 1182 0354 EF020000 		.4byte	0x2ef
 1183 0358 0C       		.byte	0xc
 1184 0359 09       		.uleb128 0x9
 1185 035a A6050000 		.4byte	.LASF65
 1186 035e 03       		.byte	0x3
 1187 035f 7101     		.2byte	0x171
 1188 0361 0B030000 		.4byte	0x30b
 1189 0365 10       		.byte	0x10
 1190 0366 00       		.byte	0
 1191 0367 04       		.uleb128 0x4
 1192 0368 78010000 		.4byte	.LASF66
 1193 036c 08       		.byte	0x8
 1194 036d 66       		.byte	0x66
 1195 036e 72030000 		.4byte	0x372
 1196 0372 0B       		.uleb128 0xb
 1197 0373 5D030000 		.4byte	.LASF67
 1198 0377 10       		.byte	0x10
 1199 0378 03       		.byte	0x3
 1200 0379 7B01     		.2byte	0x17b
 1201 037b B4030000 		.4byte	0x3b4
 1202 037f 09       		.uleb128 0x9
 1203 0380 7F020000 		.4byte	.LASF61
 1204 0384 03       		.byte	0x3
 1205 0385 7C01     		.2byte	0x17c
 1206 0387 EF050000 		.4byte	0x5ef
 1207 038b 00       		.byte	0
 1208 038c 09       		.uleb128 0x9
 1209 038d 47020000 		.4byte	.LASF62
 1210 0391 03       		.byte	0x3
ARM GAS  /var/folders/c6/c789hm653lg9vtl73krp73tm0000gn/T//cciZXqwa.s 			page 50


 1211 0392 7E01     		.2byte	0x17e
 1212 0394 EF050000 		.4byte	0x5ef
 1213 0398 04       		.byte	0x4
 1214 0399 09       		.uleb128 0x9
 1215 039a AA020000 		.4byte	.LASF63
 1216 039e 03       		.byte	0x3
 1217 039f 8001     		.2byte	0x180
 1218 03a1 20010000 		.4byte	0x120
 1219 03a5 08       		.byte	0x8
 1220 03a6 09       		.uleb128 0x9
 1221 03a7 74030000 		.4byte	.LASF68
 1222 03ab 03       		.byte	0x3
 1223 03ac 8801     		.2byte	0x188
 1224 03ae 20010000 		.4byte	0x120
 1225 03b2 0C       		.byte	0xc
 1226 03b3 00       		.byte	0
 1227 03b4 04       		.uleb128 0x4
 1228 03b5 26010000 		.4byte	.LASF69
 1229 03b9 08       		.byte	0x8
 1230 03ba 6B       		.byte	0x6b
 1231 03bb BF030000 		.4byte	0x3bf
 1232 03bf 0B       		.uleb128 0xb
 1233 03c0 EA030000 		.4byte	.LASF70
 1234 03c4 04       		.byte	0x4
 1235 03c5 03       		.byte	0x3
 1236 03c6 A201     		.2byte	0x1a2
 1237 03c8 DA030000 		.4byte	0x3da
 1238 03cc 09       		.uleb128 0x9
 1239 03cd 85050000 		.4byte	.LASF71
 1240 03d1 03       		.byte	0x3
 1241 03d2 AA01     		.2byte	0x1aa
 1242 03d4 F5050000 		.4byte	0x5f5
 1243 03d8 00       		.byte	0
 1244 03d9 00       		.byte	0
 1245 03da 04       		.uleb128 0x4
 1246 03db F4020000 		.4byte	.LASF72
 1247 03df 08       		.byte	0x8
 1248 03e0 70       		.byte	0x70
 1249 03e1 E5030000 		.4byte	0x3e5
 1250 03e5 0F       		.uleb128 0xf
 1251 03e6 F0010000 		.4byte	.LASF73
 1252 03ea 5001     		.2byte	0x150
 1253 03ec 03       		.byte	0x3
 1254 03ed C201     		.2byte	0x1c2
 1255 03ef 41040000 		.4byte	0x441
 1256 03f3 09       		.uleb128 0x9
 1257 03f4 D7050000 		.4byte	.LASF74
 1258 03f8 03       		.byte	0x3
 1259 03f9 C601     		.2byte	0x1c6
 1260 03fb 88020000 		.4byte	0x288
 1261 03ff 00       		.byte	0
 1262 0400 09       		.uleb128 0x9
 1263 0401 DD010000 		.4byte	.LASF75
 1264 0405 03       		.byte	0x3
 1265 0406 CA01     		.2byte	0x1ca
 1266 0408 67030000 		.4byte	0x367
 1267 040c 1C       		.byte	0x1c
ARM GAS  /var/folders/c6/c789hm653lg9vtl73krp73tm0000gn/T//cciZXqwa.s 			page 51


 1268 040d 08       		.uleb128 0x8
 1269 040e 64626700 		.ascii	"dbg\000"
 1270 0412 03       		.byte	0x3
 1271 0413 CE01     		.2byte	0x1ce
 1272 0415 B4030000 		.4byte	0x3b4
 1273 0419 2C       		.byte	0x2c
 1274 041a 09       		.uleb128 0x9
 1275 041b 6D010000 		.4byte	.LASF76
 1276 041f 03       		.byte	0x3
 1277 0420 D201     		.2byte	0x1d2
 1278 0422 2B010000 		.4byte	0x12b
 1279 0426 30       		.byte	0x30
 1280 0427 08       		.uleb128 0x8
 1281 0428 746D00   		.ascii	"tm\000"
 1282 042b 03       		.byte	0x3
 1283 042c D701     		.2byte	0x1d7
 1284 042e 0D050000 		.4byte	0x50d
 1285 0432 74       		.byte	0x74
 1286 0433 09       		.uleb128 0x9
 1287 0434 5D020000 		.4byte	.LASF77
 1288 0438 03       		.byte	0x3
 1289 0439 E301     		.2byte	0x1e3
 1290 043b FA050000 		.4byte	0x5fa
 1291 043f 78       		.byte	0x78
 1292 0440 00       		.byte	0
 1293 0441 03       		.uleb128 0x3
 1294 0442 04       		.byte	0x4
 1295 0443 07       		.byte	0x7
 1296 0444 41030000 		.4byte	.LASF78
 1297 0448 04       		.uleb128 0x4
 1298 0449 3E020000 		.4byte	.LASF79
 1299 044d 09       		.byte	0x9
 1300 044e 65       		.byte	0x65
 1301 044f 0B030000 		.4byte	0x30b
 1302 0453 04       		.uleb128 0x4
 1303 0454 2C030000 		.4byte	.LASF80
 1304 0458 09       		.byte	0x9
 1305 0459 6D       		.byte	0x6d
 1306 045a B8000000 		.4byte	0xb8
 1307 045e 06       		.uleb128 0x6
 1308 045f 96050000 		.4byte	.LASF81
 1309 0463 04       		.byte	0x4
 1310 0464 09       		.byte	0x9
 1311 0465 89       		.byte	0x89
 1312 0466 77040000 		.4byte	0x477
 1313 046a 10       		.uleb128 0x10
 1314 046b 72313300 		.ascii	"r13\000"
 1315 046f 09       		.byte	0x9
 1316 0470 8A       		.byte	0x8a
 1317 0471 F2040000 		.4byte	0x4f2
 1318 0475 00       		.byte	0
 1319 0476 00       		.byte	0
 1320 0477 06       		.uleb128 0x6
 1321 0478 1A010000 		.4byte	.LASF82
 1322 047c 24       		.byte	0x24
 1323 047d 0A       		.byte	0xa
 1324 047e F4       		.byte	0xf4
ARM GAS  /var/folders/c6/c789hm653lg9vtl73krp73tm0000gn/T//cciZXqwa.s 			page 52


 1325 047f F2040000 		.4byte	0x4f2
 1326 0483 08       		.uleb128 0x8
 1327 0484 723400   		.ascii	"r4\000"
 1328 0487 0A       		.byte	0xa
 1329 0488 0701     		.2byte	0x107
 1330 048a 48040000 		.4byte	0x448
 1331 048e 00       		.byte	0
 1332 048f 08       		.uleb128 0x8
 1333 0490 723500   		.ascii	"r5\000"
 1334 0493 0A       		.byte	0xa
 1335 0494 0801     		.2byte	0x108
 1336 0496 48040000 		.4byte	0x448
 1337 049a 04       		.byte	0x4
 1338 049b 08       		.uleb128 0x8
 1339 049c 723600   		.ascii	"r6\000"
 1340 049f 0A       		.byte	0xa
 1341 04a0 0901     		.2byte	0x109
 1342 04a2 48040000 		.4byte	0x448
 1343 04a6 08       		.byte	0x8
 1344 04a7 08       		.uleb128 0x8
 1345 04a8 723700   		.ascii	"r7\000"
 1346 04ab 0A       		.byte	0xa
 1347 04ac 0A01     		.2byte	0x10a
 1348 04ae 48040000 		.4byte	0x448
 1349 04b2 0C       		.byte	0xc
 1350 04b3 08       		.uleb128 0x8
 1351 04b4 723800   		.ascii	"r8\000"
 1352 04b7 0A       		.byte	0xa
 1353 04b8 0B01     		.2byte	0x10b
 1354 04ba 48040000 		.4byte	0x448
 1355 04be 10       		.byte	0x10
 1356 04bf 08       		.uleb128 0x8
 1357 04c0 723900   		.ascii	"r9\000"
 1358 04c3 0A       		.byte	0xa
 1359 04c4 0C01     		.2byte	0x10c
 1360 04c6 48040000 		.4byte	0x448
 1361 04ca 14       		.byte	0x14
 1362 04cb 08       		.uleb128 0x8
 1363 04cc 72313000 		.ascii	"r10\000"
 1364 04d0 0A       		.byte	0xa
 1365 04d1 0D01     		.2byte	0x10d
 1366 04d3 48040000 		.4byte	0x448
 1367 04d7 18       		.byte	0x18
 1368 04d8 08       		.uleb128 0x8
 1369 04d9 72313100 		.ascii	"r11\000"
 1370 04dd 0A       		.byte	0xa
 1371 04de 0E01     		.2byte	0x10e
 1372 04e0 48040000 		.4byte	0x448
 1373 04e4 1C       		.byte	0x1c
 1374 04e5 08       		.uleb128 0x8
 1375 04e6 6C7200   		.ascii	"lr\000"
 1376 04e9 0A       		.byte	0xa
 1377 04ea 0F01     		.2byte	0x10f
 1378 04ec 48040000 		.4byte	0x448
 1379 04f0 20       		.byte	0x20
 1380 04f1 00       		.byte	0
 1381 04f2 0A       		.uleb128 0xa
ARM GAS  /var/folders/c6/c789hm653lg9vtl73krp73tm0000gn/T//cciZXqwa.s 			page 53


 1382 04f3 04       		.byte	0x4
 1383 04f4 77040000 		.4byte	0x477
 1384 04f8 11       		.uleb128 0x11
 1385 04f9 04       		.byte	0x4
 1386 04fa 0B       		.byte	0xb
 1387 04fb 38       		.byte	0x38
 1388 04fc 0D050000 		.4byte	0x50d
 1389 0500 07       		.uleb128 0x7
 1390 0501 8F050000 		.4byte	.LASF83
 1391 0505 0B       		.byte	0xb
 1392 0506 3C       		.byte	0x3c
 1393 0507 C8000000 		.4byte	0xc8
 1394 050b 00       		.byte	0
 1395 050c 00       		.byte	0
 1396 050d 04       		.uleb128 0x4
 1397 050e 8E030000 		.4byte	.LASF84
 1398 0512 0B       		.byte	0xb
 1399 0513 3D       		.byte	0x3d
 1400 0514 F8040000 		.4byte	0x4f8
 1401 0518 12       		.uleb128 0x12
 1402 0519 04       		.byte	0x4
 1403 051a 03       		.byte	0x3
 1404 051b FA       		.byte	0xfa
 1405 051c 75050000 		.4byte	0x575
 1406 0520 13       		.uleb128 0x13
 1407 0521 00010000 		.4byte	.LASF85
 1408 0525 03       		.byte	0x3
 1409 0526 0101     		.2byte	0x101
 1410 0528 FF000000 		.4byte	0xff
 1411 052c 13       		.uleb128 0x13
 1412 052d 64010000 		.4byte	.LASF86
 1413 0531 03       		.byte	0x3
 1414 0532 0801     		.2byte	0x108
 1415 0534 FF000000 		.4byte	0xff
 1416 0538 13       		.uleb128 0x13
 1417 0539 E5050000 		.4byte	.LASF87
 1418 053d 03       		.byte	0x3
 1419 053e 0F01     		.2byte	0x10f
 1420 0540 0B030000 		.4byte	0x30b
 1421 0544 13       		.uleb128 0x13
 1422 0545 FA000000 		.4byte	.LASF88
 1423 0549 03       		.byte	0x3
 1424 054a 1601     		.2byte	0x116
 1425 054c 75050000 		.4byte	0x575
 1426 0550 13       		.uleb128 0x13
 1427 0551 95020000 		.4byte	.LASF89
 1428 0555 03       		.byte	0x3
 1429 0556 1E01     		.2byte	0x11e
 1430 0558 A0050000 		.4byte	0x5a0
 1431 055c 13       		.uleb128 0x13
 1432 055d A6040000 		.4byte	.LASF90
 1433 0561 03       		.byte	0x3
 1434 0562 2701     		.2byte	0x127
 1435 0564 D7050000 		.4byte	0x5d7
 1436 0568 13       		.uleb128 0x13
 1437 0569 39040000 		.4byte	.LASF91
 1438 056d 03       		.byte	0x3
ARM GAS  /var/folders/c6/c789hm653lg9vtl73krp73tm0000gn/T//cciZXqwa.s 			page 54


 1439 056e 2F01     		.2byte	0x12f
 1440 0570 0A010000 		.4byte	0x10a
 1441 0574 00       		.byte	0
 1442 0575 0A       		.uleb128 0xa
 1443 0576 04       		.byte	0x4
 1444 0577 23020000 		.4byte	0x223
 1445 057b 06       		.uleb128 0x6
 1446 057c 77040000 		.4byte	.LASF92
 1447 0580 0C       		.byte	0xc
 1448 0581 0C       		.byte	0xc
 1449 0582 34       		.byte	0x34
 1450 0583 A0050000 		.4byte	0x5a0
 1451 0587 07       		.uleb128 0x7
 1452 0588 2E020000 		.4byte	.LASF93
 1453 058c 0C       		.byte	0xc
 1454 058d 35       		.byte	0x35
 1455 058e 58020000 		.4byte	0x258
 1456 0592 00       		.byte	0
 1457 0593 07       		.uleb128 0x7
 1458 0594 BE020000 		.4byte	.LASF94
 1459 0598 0C       		.byte	0xc
 1460 0599 37       		.byte	0x37
 1461 059a 15010000 		.4byte	0x115
 1462 059e 08       		.byte	0x8
 1463 059f 00       		.byte	0
 1464 05a0 0A       		.uleb128 0xa
 1465 05a1 04       		.byte	0x4
 1466 05a2 7B050000 		.4byte	0x57b
 1467 05a6 06       		.uleb128 0x6
 1468 05a7 C7050000 		.4byte	.LASF95
 1469 05ab 10       		.byte	0x10
 1470 05ac 0D       		.byte	0xd
 1471 05ad 39       		.byte	0x39
 1472 05ae D7050000 		.4byte	0x5d7
 1473 05b2 07       		.uleb128 0x7
 1474 05b3 D5010000 		.4byte	.LASF96
 1475 05b7 0D       		.byte	0xd
 1476 05b8 3A       		.byte	0x3a
 1477 05b9 58020000 		.4byte	0x258
 1478 05bd 00       		.byte	0
 1479 05be 07       		.uleb128 0x7
 1480 05bf 3D060000 		.4byte	.LASF97
 1481 05c3 0D       		.byte	0xd
 1482 05c4 3C       		.byte	0x3c
 1483 05c5 2E020000 		.4byte	0x22e
 1484 05c9 08       		.byte	0x8
 1485 05ca 07       		.uleb128 0x7
 1486 05cb 9F030000 		.4byte	.LASF98
 1487 05cf 0D       		.byte	0xd
 1488 05d0 3E       		.byte	0x3e
 1489 05d1 15060000 		.4byte	0x615
 1490 05d5 0C       		.byte	0xc
 1491 05d6 00       		.byte	0
 1492 05d7 0A       		.uleb128 0xa
 1493 05d8 04       		.byte	0x4
 1494 05d9 A6050000 		.4byte	0x5a6
 1495 05dd 0A       		.uleb128 0xa
ARM GAS  /var/folders/c6/c789hm653lg9vtl73krp73tm0000gn/T//cciZXqwa.s 			page 55


 1496 05de 04       		.byte	0x4
 1497 05df E3050000 		.4byte	0x5e3
 1498 05e3 14       		.uleb128 0x14
 1499 05e4 E8050000 		.4byte	0x5e8
 1500 05e8 03       		.uleb128 0x3
 1501 05e9 01       		.byte	0x1
 1502 05ea 08       		.byte	0x8
 1503 05eb 2E050000 		.4byte	.LASF99
 1504 05ef 0A       		.uleb128 0xa
 1505 05f0 04       		.byte	0x4
 1506 05f1 0D030000 		.4byte	0x30d
 1507 05f5 05       		.uleb128 0x5
 1508 05f6 DD050000 		.4byte	0x5dd
 1509 05fa 15       		.uleb128 0x15
 1510 05fb 53040000 		.4byte	0x453
 1511 05ff 0A060000 		.4byte	0x60a
 1512 0603 16       		.uleb128 0x16
 1513 0604 41040000 		.4byte	0x441
 1514 0608 1A       		.byte	0x1a
 1515 0609 00       		.byte	0
 1516 060a 04       		.uleb128 0x4
 1517 060b 4F020000 		.4byte	.LASF100
 1518 060f 0D       		.byte	0xd
 1519 0610 34       		.byte	0x34
 1520 0611 A6050000 		.4byte	0x5a6
 1521 0615 0A       		.uleb128 0xa
 1522 0616 04       		.byte	0x4
 1523 0617 0A060000 		.4byte	0x60a
 1524 061b 17       		.uleb128 0x17
 1525 061c 77050000 		.4byte	.LASF104
 1526 0620 02       		.byte	0x2
 1527 0621 2002     		.2byte	0x220
 1528 0623 03       		.byte	0x3
 1529 0624 35060000 		.4byte	0x635
 1530 0628 18       		.uleb128 0x18
 1531 0629 57020000 		.4byte	.LASF106
 1532 062d 02       		.byte	0x2
 1533 062e 2002     		.2byte	0x220
 1534 0630 AD000000 		.4byte	0xad
 1535 0634 00       		.byte	0
 1536 0635 19       		.uleb128 0x19
 1537 0636 43010000 		.4byte	.LASF101
 1538 063a 0A       		.byte	0xa
 1539 063b BC01     		.2byte	0x1bc
 1540 063d 03       		.byte	0x3
 1541 063e 19       		.uleb128 0x19
 1542 063f E4010000 		.4byte	.LASF102
 1543 0643 0A       		.byte	0xa
 1544 0644 CA01     		.2byte	0x1ca
 1545 0646 03       		.byte	0x3
 1546 0647 19       		.uleb128 0x19
 1547 0648 4F040000 		.4byte	.LASF103
 1548 064c 0E       		.byte	0xe
 1549 064d 5A01     		.2byte	0x15a
 1550 064f 03       		.byte	0x3
 1551 0650 17       		.uleb128 0x17
 1552 0651 ED000000 		.4byte	.LASF105
ARM GAS  /var/folders/c6/c789hm653lg9vtl73krp73tm0000gn/T//cciZXqwa.s 			page 56


 1553 0655 03       		.byte	0x3
 1554 0656 9702     		.2byte	0x297
 1555 0658 03       		.byte	0x3
 1556 0659 75060000 		.4byte	0x675
 1557 065d 1A       		.uleb128 0x1a
 1558 065e 747000   		.ascii	"tp\000"
 1559 0661 03       		.byte	0x3
 1560 0662 9702     		.2byte	0x297
 1561 0664 2E020000 		.4byte	0x22e
 1562 0668 1A       		.uleb128 0x1a
 1563 0669 74717000 		.ascii	"tqp\000"
 1564 066d 03       		.byte	0x3
 1565 066e 9702     		.2byte	0x297
 1566 0670 75060000 		.4byte	0x675
 1567 0674 00       		.byte	0
 1568 0675 0A       		.uleb128 0xa
 1569 0676 04       		.byte	0x4
 1570 0677 58020000 		.4byte	0x258
 1571 067b 17       		.uleb128 0x17
 1572 067c 02060000 		.4byte	.LASF107
 1573 0680 0E       		.byte	0xe
 1574 0681 6601     		.2byte	0x166
 1575 0683 03       		.byte	0x3
 1576 0684 96060000 		.4byte	0x696
 1577 0688 1B       		.uleb128 0x1b
 1578 0689 87020000 		.4byte	.LASF111
 1579 068d A6060000 		.4byte	0x6a6
 1580 0691 02060000 		.4byte	.LASF107
 1581 0695 00       		.byte	0
 1582 0696 15       		.uleb128 0x15
 1583 0697 E8050000 		.4byte	0x5e8
 1584 069b A6060000 		.4byte	0x6a6
 1585 069f 16       		.uleb128 0x16
 1586 06a0 41040000 		.4byte	0x441
 1587 06a4 0B       		.byte	0xb
 1588 06a5 00       		.byte	0
 1589 06a6 14       		.uleb128 0x14
 1590 06a7 96060000 		.4byte	0x696
 1591 06ab 1C       		.uleb128 0x1c
 1592 06ac 16020000 		.4byte	.LASF109
 1593 06b0 04       		.byte	0x4
 1594 06b1 4F       		.byte	0x4f
 1595 06b2 C6060000 		.4byte	0x6c6
 1596 06b6 03       		.byte	0x3
 1597 06b7 C6060000 		.4byte	0x6c6
 1598 06bb 1D       		.uleb128 0x1d
 1599 06bc 747000   		.ascii	"tp\000"
 1600 06bf 04       		.byte	0x4
 1601 06c0 4F       		.byte	0x4f
 1602 06c1 2E020000 		.4byte	0x22e
 1603 06c5 00       		.byte	0
 1604 06c6 03       		.uleb128 0x3
 1605 06c7 01       		.byte	0x1
 1606 06c8 02       		.byte	0x2
 1607 06c9 FA030000 		.4byte	.LASF108
 1608 06cd 1E       		.uleb128 0x1e
 1609 06ce 3C050000 		.4byte	.LASF110
ARM GAS  /var/folders/c6/c789hm653lg9vtl73krp73tm0000gn/T//cciZXqwa.s 			page 57


 1610 06d2 03       		.byte	0x3
 1611 06d3 9F02     		.2byte	0x29f
 1612 06d5 2E020000 		.4byte	0x22e
 1613 06d9 03       		.byte	0x3
 1614 06da F6060000 		.4byte	0x6f6
 1615 06de 1A       		.uleb128 0x1a
 1616 06df 74717000 		.ascii	"tqp\000"
 1617 06e3 03       		.byte	0x3
 1618 06e4 9F02     		.2byte	0x29f
 1619 06e6 75060000 		.4byte	0x675
 1620 06ea 1F       		.uleb128 0x1f
 1621 06eb 747000   		.ascii	"tp\000"
 1622 06ee 03       		.byte	0x3
 1623 06ef A002     		.2byte	0x2a0
 1624 06f1 2E020000 		.4byte	0x22e
 1625 06f5 00       		.byte	0
 1626 06f6 20       		.uleb128 0x20
 1627 06f7 2F060000 		.4byte	.LASF112
 1628 06fb 04       		.byte	0x4
 1629 06fc 6F       		.byte	0x6f
 1630 06fd 03       		.byte	0x3
 1631 06fe 18070000 		.4byte	0x718
 1632 0702 1D       		.uleb128 0x1d
 1633 0703 747000   		.ascii	"tp\000"
 1634 0706 04       		.byte	0x4
 1635 0707 6F       		.byte	0x6f
 1636 0708 2E020000 		.4byte	0x22e
 1637 070c 1D       		.uleb128 0x1d
 1638 070d 6D736700 		.ascii	"msg\000"
 1639 0711 04       		.byte	0x4
 1640 0712 6F       		.byte	0x6f
 1641 0713 FF000000 		.4byte	0xff
 1642 0717 00       		.byte	0
 1643 0718 21       		.uleb128 0x21
 1644 0719 03020000 		.4byte	.LASF113
 1645 071d 01       		.byte	0x1
 1646 071e 57       		.byte	0x57
 1647 071f FF000000 		.4byte	0xff
 1648 0723 00000000 		.4byte	.LFB229
 1649 0727 40000000 		.4byte	.LFE229-.LFB229
 1650 072b 01       		.uleb128 0x1
 1651 072c 9C       		.byte	0x9c
 1652 072d 2D080000 		.4byte	0x82d
 1653 0731 22       		.uleb128 0x22
 1654 0732 747000   		.ascii	"tp\000"
 1655 0735 01       		.byte	0x1
 1656 0736 57       		.byte	0x57
 1657 0737 2E020000 		.4byte	0x22e
 1658 073b 00000000 		.4byte	.LLST0
 1659 073f 22       		.uleb128 0x22
 1660 0740 6D736700 		.ascii	"msg\000"
 1661 0744 01       		.byte	0x1
 1662 0745 57       		.byte	0x57
 1663 0746 FF000000 		.4byte	0xff
 1664 074a 38000000 		.4byte	.LLST1
 1665 074e 23       		.uleb128 0x23
 1666 074f 63747000 		.ascii	"ctp\000"
ARM GAS  /var/folders/c6/c789hm653lg9vtl73krp73tm0000gn/T//cciZXqwa.s 			page 58


 1667 0753 01       		.byte	0x1
 1668 0754 58       		.byte	0x58
 1669 0755 2E020000 		.4byte	0x22e
 1670 0759 01       		.uleb128 0x1
 1671 075a 54       		.byte	0x54
 1672 075b 24       		.uleb128 0x24
 1673 075c 9C020000 		.4byte	.LASF115
 1674 0760 3D080000 		.4byte	0x83d
 1675 0764 25       		.uleb128 0x25
 1676 0765 47060000 		.4byte	0x647
 1677 0769 04000000 		.4byte	.LBB52
 1678 076d 00000000 		.4byte	.Ldebug_ranges0+0
 1679 0771 01       		.byte	0x1
 1680 0772 5C       		.byte	0x5c
 1681 0773 A0070000 		.4byte	0x7a0
 1682 0777 26       		.uleb128 0x26
 1683 0778 35060000 		.4byte	0x635
 1684 077c 04000000 		.4byte	.LBB53
 1685 0780 00000000 		.4byte	.Ldebug_ranges0+0
 1686 0784 0E       		.byte	0xe
 1687 0785 5C01     		.2byte	0x15c
 1688 0787 26       		.uleb128 0x26
 1689 0788 1B060000 		.4byte	0x61b
 1690 078c 04000000 		.4byte	.LBB54
 1691 0790 00000000 		.4byte	.Ldebug_ranges0+0
 1692 0794 0A       		.byte	0xa
 1693 0795 BF01     		.2byte	0x1bf
 1694 0797 27       		.uleb128 0x27
 1695 0798 28060000 		.4byte	0x628
 1696 079c 20       		.byte	0x20
 1697 079d 00       		.byte	0
 1698 079e 00       		.byte	0
 1699 079f 00       		.byte	0
 1700 07a0 25       		.uleb128 0x25
 1701 07a1 50060000 		.4byte	0x650
 1702 07a5 14000000 		.4byte	.LBB60
 1703 07a9 18000000 		.4byte	.Ldebug_ranges0+0x18
 1704 07ad 01       		.byte	0x1
 1705 07ae 5F       		.byte	0x5f
 1706 07af C2070000 		.4byte	0x7c2
 1707 07b3 28       		.uleb128 0x28
 1708 07b4 68060000 		.4byte	0x668
 1709 07b8 01       		.uleb128 0x1
 1710 07b9 55       		.byte	0x55
 1711 07ba 28       		.uleb128 0x28
 1712 07bb 5D060000 		.4byte	0x65d
 1713 07bf 01       		.uleb128 0x1
 1714 07c0 54       		.byte	0x54
 1715 07c1 00       		.byte	0
 1716 07c2 29       		.uleb128 0x29
 1717 07c3 7B060000 		.4byte	0x67b
 1718 07c7 2C000000 		.4byte	.LBB64
 1719 07cb 06000000 		.4byte	.LBE64-.LBB64
 1720 07cf 01       		.byte	0x1
 1721 07d0 65       		.byte	0x65
 1722 07d1 10080000 		.4byte	0x810
 1723 07d5 2A       		.uleb128 0x2a
ARM GAS  /var/folders/c6/c789hm653lg9vtl73krp73tm0000gn/T//cciZXqwa.s 			page 59


 1724 07d6 2C000000 		.4byte	.LBB65
 1725 07da 06000000 		.4byte	.LBE65-.LBB65
 1726 07de 2B       		.uleb128 0x2b
 1727 07df 88060000 		.4byte	0x688
 1728 07e3 2C       		.uleb128 0x2c
 1729 07e4 3E060000 		.4byte	0x63e
 1730 07e8 2C000000 		.4byte	.LBB66
 1731 07ec 06000000 		.4byte	.LBE66-.LBB66
 1732 07f0 0E       		.byte	0xe
 1733 07f1 7301     		.2byte	0x173
 1734 07f3 2C       		.uleb128 0x2c
 1735 07f4 1B060000 		.4byte	0x61b
 1736 07f8 2C000000 		.4byte	.LBB67
 1737 07fc 06000000 		.4byte	.LBE67-.LBB67
 1738 0800 0A       		.byte	0xa
 1739 0801 CD01     		.2byte	0x1cd
 1740 0803 2D       		.uleb128 0x2d
 1741 0804 28060000 		.4byte	0x628
 1742 0808 7D000000 		.4byte	.LLST2
 1743 080c 00       		.byte	0
 1744 080d 00       		.byte	0
 1745 080e 00       		.byte	0
 1746 080f 00       		.byte	0
 1747 0810 2E       		.uleb128 0x2e
 1748 0811 2A000000 		.4byte	.LVL4
 1749 0815 6D0A0000 		.4byte	0xa6d
 1750 0819 23080000 		.4byte	0x823
 1751 081d 2F       		.uleb128 0x2f
 1752 081e 01       		.uleb128 0x1
 1753 081f 50       		.byte	0x50
 1754 0820 01       		.uleb128 0x1
 1755 0821 3C       		.byte	0x3c
 1756 0822 00       		.byte	0
 1757 0823 30       		.uleb128 0x30
 1758 0824 38000000 		.4byte	.LVL7
 1759 0828 7F0A0000 		.4byte	0xa7f
 1760 082c 00       		.byte	0
 1761 082d 15       		.uleb128 0x15
 1762 082e E8050000 		.4byte	0x5e8
 1763 0832 3D080000 		.4byte	0x83d
 1764 0836 16       		.uleb128 0x16
 1765 0837 41040000 		.4byte	0x441
 1766 083b 09       		.byte	0x9
 1767 083c 00       		.byte	0
 1768 083d 14       		.uleb128 0x14
 1769 083e 2D080000 		.4byte	0x82d
 1770 0842 21       		.uleb128 0x21
 1771 0843 AD050000 		.4byte	.LASF114
 1772 0847 01       		.byte	0x1
 1773 0848 78       		.byte	0x78
 1774 0849 2E020000 		.4byte	0x22e
 1775 084d 00000000 		.4byte	.LFB230
 1776 0851 3C000000 		.4byte	.LFE230-.LFB230
 1777 0855 01       		.uleb128 0x1
 1778 0856 9C       		.byte	0x9c
 1779 0857 44090000 		.4byte	0x944
 1780 085b 31       		.uleb128 0x31
ARM GAS  /var/folders/c6/c789hm653lg9vtl73krp73tm0000gn/T//cciZXqwa.s 			page 60


 1781 085c 747000   		.ascii	"tp\000"
 1782 085f 01       		.byte	0x1
 1783 0860 79       		.byte	0x79
 1784 0861 2E020000 		.4byte	0x22e
 1785 0865 29       		.uleb128 0x29
 1786 0866 47060000 		.4byte	0x647
 1787 086a 02000000 		.4byte	.LBB69
 1788 086e 06000000 		.4byte	.LBE69-.LBB69
 1789 0872 01       		.byte	0x1
 1790 0873 7B       		.byte	0x7b
 1791 0874 A1080000 		.4byte	0x8a1
 1792 0878 2C       		.uleb128 0x2c
 1793 0879 35060000 		.4byte	0x635
 1794 087d 02000000 		.4byte	.LBB70
 1795 0881 06000000 		.4byte	.LBE70-.LBB70
 1796 0885 0E       		.byte	0xe
 1797 0886 5C01     		.2byte	0x15c
 1798 0888 2C       		.uleb128 0x2c
 1799 0889 1B060000 		.4byte	0x61b
 1800 088d 02000000 		.4byte	.LBB71
 1801 0891 06000000 		.4byte	.LBE71-.LBB71
 1802 0895 0A       		.byte	0xa
 1803 0896 BF01     		.2byte	0x1bf
 1804 0898 27       		.uleb128 0x27
 1805 0899 28060000 		.4byte	0x628
 1806 089d 20       		.byte	0x20
 1807 089e 00       		.byte	0
 1808 089f 00       		.byte	0
 1809 08a0 00       		.byte	0
 1810 08a1 29       		.uleb128 0x29
 1811 08a2 AB060000 		.4byte	0x6ab
 1812 08a6 0C000000 		.4byte	.LBB73
 1813 08aa 06000000 		.4byte	.LBE73-.LBB73
 1814 08ae 01       		.byte	0x1
 1815 08af 7C       		.byte	0x7c
 1816 08b0 BE080000 		.4byte	0x8be
 1817 08b4 2D       		.uleb128 0x2d
 1818 08b5 BB060000 		.4byte	0x6bb
 1819 08b9 91000000 		.4byte	.LLST3
 1820 08bd 00       		.byte	0
 1821 08be 25       		.uleb128 0x25
 1822 08bf CD060000 		.4byte	0x6cd
 1823 08c3 16000000 		.4byte	.LBB75
 1824 08c7 30000000 		.4byte	.Ldebug_ranges0+0x30
 1825 08cb 01       		.byte	0x1
 1826 08cc 7F       		.byte	0x7f
 1827 08cd EA080000 		.4byte	0x8ea
 1828 08d1 2D       		.uleb128 0x2d
 1829 08d2 DE060000 		.4byte	0x6de
 1830 08d6 AF000000 		.4byte	.LLST4
 1831 08da 32       		.uleb128 0x32
 1832 08db 30000000 		.4byte	.Ldebug_ranges0+0x30
 1833 08df 33       		.uleb128 0x33
 1834 08e0 EA060000 		.4byte	0x6ea
 1835 08e4 CE000000 		.4byte	.LLST5
 1836 08e8 00       		.byte	0
 1837 08e9 00       		.byte	0
ARM GAS  /var/folders/c6/c789hm653lg9vtl73krp73tm0000gn/T//cciZXqwa.s 			page 61


 1838 08ea 25       		.uleb128 0x25
 1839 08eb 7B060000 		.4byte	0x67b
 1840 08ef 1E000000 		.4byte	.LBB79
 1841 08f3 48000000 		.4byte	.Ldebug_ranges0+0x48
 1842 08f7 01       		.byte	0x1
 1843 08f8 81       		.byte	0x81
 1844 08f9 34090000 		.4byte	0x934
 1845 08fd 32       		.uleb128 0x32
 1846 08fe 48000000 		.4byte	.Ldebug_ranges0+0x48
 1847 0902 2B       		.uleb128 0x2b
 1848 0903 88060000 		.4byte	0x688
 1849 0907 26       		.uleb128 0x26
 1850 0908 3E060000 		.4byte	0x63e
 1851 090c 1E000000 		.4byte	.LBB81
 1852 0910 48000000 		.4byte	.Ldebug_ranges0+0x48
 1853 0914 0E       		.byte	0xe
 1854 0915 7301     		.2byte	0x173
 1855 0917 26       		.uleb128 0x26
 1856 0918 1B060000 		.4byte	0x61b
 1857 091c 1E000000 		.4byte	.LBB82
 1858 0920 48000000 		.4byte	.Ldebug_ranges0+0x48
 1859 0924 0A       		.byte	0xa
 1860 0925 CD01     		.2byte	0x1cd
 1861 0927 2D       		.uleb128 0x2d
 1862 0928 28060000 		.4byte	0x628
 1863 092c E1000000 		.4byte	.LLST6
 1864 0930 00       		.byte	0
 1865 0931 00       		.byte	0
 1866 0932 00       		.byte	0
 1867 0933 00       		.byte	0
 1868 0934 34       		.uleb128 0x34
 1869 0935 2E000000 		.4byte	.LVL14
 1870 0939 6D0A0000 		.4byte	0xa6d
 1871 093d 2F       		.uleb128 0x2f
 1872 093e 01       		.uleb128 0x1
 1873 093f 50       		.byte	0x50
 1874 0940 01       		.uleb128 0x1
 1875 0941 3E       		.byte	0x3e
 1876 0942 00       		.byte	0
 1877 0943 00       		.byte	0
 1878 0944 35       		.uleb128 0x35
 1879 0945 6A040000 		.4byte	.LASF121
 1880 0949 01       		.byte	0x1
 1881 094a 90       		.byte	0x90
 1882 094b 00000000 		.4byte	.LFB231
 1883 094f 14000000 		.4byte	.LFE231-.LFB231
 1884 0953 01       		.uleb128 0x1
 1885 0954 9C       		.byte	0x9c
 1886 0955 410A0000 		.4byte	0xa41
 1887 0959 22       		.uleb128 0x22
 1888 095a 747000   		.ascii	"tp\000"
 1889 095d 01       		.byte	0x1
 1890 095e 90       		.byte	0x90
 1891 095f 2E020000 		.4byte	0x22e
 1892 0963 F5000000 		.4byte	.LLST7
 1893 0967 22       		.uleb128 0x22
 1894 0968 6D736700 		.ascii	"msg\000"
ARM GAS  /var/folders/c6/c789hm653lg9vtl73krp73tm0000gn/T//cciZXqwa.s 			page 62


 1895 096c 01       		.byte	0x1
 1896 096d 90       		.byte	0x90
 1897 096e FF000000 		.4byte	0xff
 1898 0972 16010000 		.4byte	.LLST8
 1899 0976 24       		.uleb128 0x24
 1900 0977 35010000 		.4byte	.LASF116
 1901 097b 510A0000 		.4byte	0xa51
 1902 097f 29       		.uleb128 0x29
 1903 0980 47060000 		.4byte	0x647
 1904 0984 02000000 		.4byte	.LBB89
 1905 0988 06000000 		.4byte	.LBE89-.LBB89
 1906 098c 01       		.byte	0x1
 1907 098d 92       		.byte	0x92
 1908 098e BB090000 		.4byte	0x9bb
 1909 0992 2C       		.uleb128 0x2c
 1910 0993 35060000 		.4byte	0x635
 1911 0997 02000000 		.4byte	.LBB90
 1912 099b 06000000 		.4byte	.LBE90-.LBB90
 1913 099f 0E       		.byte	0xe
 1914 09a0 5C01     		.2byte	0x15c
 1915 09a2 2C       		.uleb128 0x2c
 1916 09a3 1B060000 		.4byte	0x61b
 1917 09a7 02000000 		.4byte	.LBB91
 1918 09ab 06000000 		.4byte	.LBE91-.LBB91
 1919 09af 0A       		.byte	0xa
 1920 09b0 BF01     		.2byte	0x1bf
 1921 09b2 27       		.uleb128 0x27
 1922 09b3 28060000 		.4byte	0x628
 1923 09b7 20       		.byte	0x20
 1924 09b8 00       		.byte	0
 1925 09b9 00       		.byte	0
 1926 09ba 00       		.byte	0
 1927 09bb 29       		.uleb128 0x29
 1928 09bc F6060000 		.4byte	0x6f6
 1929 09c0 08000000 		.4byte	.LBB93
 1930 09c4 04000000 		.4byte	.LBE93-.LBB93
 1931 09c8 01       		.byte	0x1
 1932 09c9 94       		.byte	0x94
 1933 09ca F9090000 		.4byte	0x9f9
 1934 09ce 2D       		.uleb128 0x2d
 1935 09cf 0C070000 		.4byte	0x70c
 1936 09d3 37010000 		.4byte	.LLST9
 1937 09d7 2D       		.uleb128 0x2d
 1938 09d8 02070000 		.4byte	0x702
 1939 09dc 58010000 		.4byte	.LLST10
 1940 09e0 34       		.uleb128 0x34
 1941 09e1 0C000000 		.4byte	.LVL17
 1942 09e5 950A0000 		.4byte	0xa95
 1943 09e9 2F       		.uleb128 0x2f
 1944 09ea 01       		.uleb128 0x1
 1945 09eb 51       		.byte	0x51
 1946 09ec 03       		.uleb128 0x3
 1947 09ed F3       		.byte	0xf3
 1948 09ee 01       		.uleb128 0x1
 1949 09ef 51       		.byte	0x51
 1950 09f0 2F       		.uleb128 0x2f
 1951 09f1 01       		.uleb128 0x1
ARM GAS  /var/folders/c6/c789hm653lg9vtl73krp73tm0000gn/T//cciZXqwa.s 			page 63


 1952 09f2 50       		.byte	0x50
 1953 09f3 03       		.uleb128 0x3
 1954 09f4 F3       		.byte	0xf3
 1955 09f5 01       		.uleb128 0x1
 1956 09f6 50       		.byte	0x50
 1957 09f7 00       		.byte	0
 1958 09f8 00       		.byte	0
 1959 09f9 36       		.uleb128 0x36
 1960 09fa 7B060000 		.4byte	0x67b
 1961 09fe 0C000000 		.4byte	.LBB95
 1962 0a02 08000000 		.4byte	.LBE95-.LBB95
 1963 0a06 01       		.byte	0x1
 1964 0a07 95       		.byte	0x95
 1965 0a08 2A       		.uleb128 0x2a
 1966 0a09 0C000000 		.4byte	.LBB96
 1967 0a0d 08000000 		.4byte	.LBE96-.LBB96
 1968 0a11 2B       		.uleb128 0x2b
 1969 0a12 88060000 		.4byte	0x688
 1970 0a16 2C       		.uleb128 0x2c
 1971 0a17 3E060000 		.4byte	0x63e
 1972 0a1b 0C000000 		.4byte	.LBB97
 1973 0a1f 08000000 		.4byte	.LBE97-.LBB97
 1974 0a23 0E       		.byte	0xe
 1975 0a24 7301     		.2byte	0x173
 1976 0a26 2C       		.uleb128 0x2c
 1977 0a27 1B060000 		.4byte	0x61b
 1978 0a2b 0C000000 		.4byte	.LBB98
 1979 0a2f 08000000 		.4byte	.LBE98-.LBB98
 1980 0a33 0A       		.byte	0xa
 1981 0a34 CD01     		.2byte	0x1cd
 1982 0a36 27       		.uleb128 0x27
 1983 0a37 28060000 		.4byte	0x628
 1984 0a3b 00       		.byte	0
 1985 0a3c 00       		.byte	0
 1986 0a3d 00       		.byte	0
 1987 0a3e 00       		.byte	0
 1988 0a3f 00       		.byte	0
 1989 0a40 00       		.byte	0
 1990 0a41 15       		.uleb128 0x15
 1991 0a42 E8050000 		.4byte	0x5e8
 1992 0a46 510A0000 		.4byte	0xa51
 1993 0a4a 16       		.uleb128 0x16
 1994 0a4b 41040000 		.4byte	0x441
 1995 0a4f 0C       		.byte	0xc
 1996 0a50 00       		.byte	0
 1997 0a51 14       		.uleb128 0x14
 1998 0a52 410A0000 		.4byte	0xa41
 1999 0a56 37       		.uleb128 0x37
 2000 0a57 8E010000 		.4byte	.LASF117
 2001 0a5b 0F       		.byte	0xf
 2002 0a5c A706     		.2byte	0x6a7
 2003 0a5e C3000000 		.4byte	0xc3
 2004 0a62 38       		.uleb128 0x38
 2005 0a63 636800   		.ascii	"ch\000"
 2006 0a66 03       		.byte	0x3
 2007 0a67 0902     		.2byte	0x209
 2008 0a69 DA030000 		.4byte	0x3da
ARM GAS  /var/folders/c6/c789hm653lg9vtl73krp73tm0000gn/T//cciZXqwa.s 			page 64


 2009 0a6d 39       		.uleb128 0x39
 2010 0a6e 84040000 		.4byte	.LASF122
 2011 0a72 03       		.byte	0x3
 2012 0a73 1402     		.2byte	0x214
 2013 0a75 7F0A0000 		.4byte	0xa7f
 2014 0a79 0D       		.uleb128 0xd
 2015 0a7a DE000000 		.4byte	0xde
 2016 0a7e 00       		.byte	0
 2017 0a7f 3A       		.uleb128 0x3a
 2018 0a80 B5040000 		.4byte	.LASF123
 2019 0a84 03       		.byte	0x3
 2020 0a85 1302     		.2byte	0x213
 2021 0a87 2E020000 		.4byte	0x22e
 2022 0a8b 950A0000 		.4byte	0xa95
 2023 0a8f 0D       		.uleb128 0xd
 2024 0a90 2E020000 		.4byte	0x22e
 2025 0a94 00       		.byte	0
 2026 0a95 3B       		.uleb128 0x3b
 2027 0a96 E1020000 		.4byte	.LASF124
 2028 0a9a 03       		.byte	0x3
 2029 0a9b 1602     		.2byte	0x216
 2030 0a9d 0D       		.uleb128 0xd
 2031 0a9e 2E020000 		.4byte	0x22e
 2032 0aa2 0D       		.uleb128 0xd
 2033 0aa3 FF000000 		.4byte	0xff
 2034 0aa7 00       		.byte	0
 2035 0aa8 00       		.byte	0
 2036              		.section	.debug_abbrev,"",%progbits
 2037              	.Ldebug_abbrev0:
 2038 0000 01       		.uleb128 0x1
 2039 0001 11       		.uleb128 0x11
 2040 0002 01       		.byte	0x1
 2041 0003 25       		.uleb128 0x25
 2042 0004 0E       		.uleb128 0xe
 2043 0005 13       		.uleb128 0x13
 2044 0006 0B       		.uleb128 0xb
 2045 0007 03       		.uleb128 0x3
 2046 0008 0E       		.uleb128 0xe
 2047 0009 1B       		.uleb128 0x1b
 2048 000a 0E       		.uleb128 0xe
 2049 000b 55       		.uleb128 0x55
 2050 000c 17       		.uleb128 0x17
 2051 000d 11       		.uleb128 0x11
 2052 000e 01       		.uleb128 0x1
 2053 000f 10       		.uleb128 0x10
 2054 0010 17       		.uleb128 0x17
 2055 0011 00       		.byte	0
 2056 0012 00       		.byte	0
 2057 0013 02       		.uleb128 0x2
 2058 0014 24       		.uleb128 0x24
 2059 0015 00       		.byte	0
 2060 0016 0B       		.uleb128 0xb
 2061 0017 0B       		.uleb128 0xb
 2062 0018 3E       		.uleb128 0x3e
 2063 0019 0B       		.uleb128 0xb
 2064 001a 03       		.uleb128 0x3
 2065 001b 08       		.uleb128 0x8
ARM GAS  /var/folders/c6/c789hm653lg9vtl73krp73tm0000gn/T//cciZXqwa.s 			page 65


 2066 001c 00       		.byte	0
 2067 001d 00       		.byte	0
 2068 001e 03       		.uleb128 0x3
 2069 001f 24       		.uleb128 0x24
 2070 0020 00       		.byte	0
 2071 0021 0B       		.uleb128 0xb
 2072 0022 0B       		.uleb128 0xb
 2073 0023 3E       		.uleb128 0x3e
 2074 0024 0B       		.uleb128 0xb
 2075 0025 03       		.uleb128 0x3
 2076 0026 0E       		.uleb128 0xe
 2077 0027 00       		.byte	0
 2078 0028 00       		.byte	0
 2079 0029 04       		.uleb128 0x4
 2080 002a 16       		.uleb128 0x16
 2081 002b 00       		.byte	0
 2082 002c 03       		.uleb128 0x3
 2083 002d 0E       		.uleb128 0xe
 2084 002e 3A       		.uleb128 0x3a
 2085 002f 0B       		.uleb128 0xb
 2086 0030 3B       		.uleb128 0x3b
 2087 0031 0B       		.uleb128 0xb
 2088 0032 49       		.uleb128 0x49
 2089 0033 13       		.uleb128 0x13
 2090 0034 00       		.byte	0
 2091 0035 00       		.byte	0
 2092 0036 05       		.uleb128 0x5
 2093 0037 35       		.uleb128 0x35
 2094 0038 00       		.byte	0
 2095 0039 49       		.uleb128 0x49
 2096 003a 13       		.uleb128 0x13
 2097 003b 00       		.byte	0
 2098 003c 00       		.byte	0
 2099 003d 06       		.uleb128 0x6
 2100 003e 13       		.uleb128 0x13
 2101 003f 01       		.byte	0x1
 2102 0040 03       		.uleb128 0x3
 2103 0041 0E       		.uleb128 0xe
 2104 0042 0B       		.uleb128 0xb
 2105 0043 0B       		.uleb128 0xb
 2106 0044 3A       		.uleb128 0x3a
 2107 0045 0B       		.uleb128 0xb
 2108 0046 3B       		.uleb128 0x3b
 2109 0047 0B       		.uleb128 0xb
 2110 0048 01       		.uleb128 0x1
 2111 0049 13       		.uleb128 0x13
 2112 004a 00       		.byte	0
 2113 004b 00       		.byte	0
 2114 004c 07       		.uleb128 0x7
 2115 004d 0D       		.uleb128 0xd
 2116 004e 00       		.byte	0
 2117 004f 03       		.uleb128 0x3
 2118 0050 0E       		.uleb128 0xe
 2119 0051 3A       		.uleb128 0x3a
 2120 0052 0B       		.uleb128 0xb
 2121 0053 3B       		.uleb128 0x3b
 2122 0054 0B       		.uleb128 0xb
ARM GAS  /var/folders/c6/c789hm653lg9vtl73krp73tm0000gn/T//cciZXqwa.s 			page 66


 2123 0055 49       		.uleb128 0x49
 2124 0056 13       		.uleb128 0x13
 2125 0057 38       		.uleb128 0x38
 2126 0058 0B       		.uleb128 0xb
 2127 0059 00       		.byte	0
 2128 005a 00       		.byte	0
 2129 005b 08       		.uleb128 0x8
 2130 005c 0D       		.uleb128 0xd
 2131 005d 00       		.byte	0
 2132 005e 03       		.uleb128 0x3
 2133 005f 08       		.uleb128 0x8
 2134 0060 3A       		.uleb128 0x3a
 2135 0061 0B       		.uleb128 0xb
 2136 0062 3B       		.uleb128 0x3b
 2137 0063 05       		.uleb128 0x5
 2138 0064 49       		.uleb128 0x49
 2139 0065 13       		.uleb128 0x13
 2140 0066 38       		.uleb128 0x38
 2141 0067 0B       		.uleb128 0xb
 2142 0068 00       		.byte	0
 2143 0069 00       		.byte	0
 2144 006a 09       		.uleb128 0x9
 2145 006b 0D       		.uleb128 0xd
 2146 006c 00       		.byte	0
 2147 006d 03       		.uleb128 0x3
 2148 006e 0E       		.uleb128 0xe
 2149 006f 3A       		.uleb128 0x3a
 2150 0070 0B       		.uleb128 0xb
 2151 0071 3B       		.uleb128 0x3b
 2152 0072 05       		.uleb128 0x5
 2153 0073 49       		.uleb128 0x49
 2154 0074 13       		.uleb128 0x13
 2155 0075 38       		.uleb128 0x38
 2156 0076 0B       		.uleb128 0xb
 2157 0077 00       		.byte	0
 2158 0078 00       		.byte	0
 2159 0079 0A       		.uleb128 0xa
 2160 007a 0F       		.uleb128 0xf
 2161 007b 00       		.byte	0
 2162 007c 0B       		.uleb128 0xb
 2163 007d 0B       		.uleb128 0xb
 2164 007e 49       		.uleb128 0x49
 2165 007f 13       		.uleb128 0x13
 2166 0080 00       		.byte	0
 2167 0081 00       		.byte	0
 2168 0082 0B       		.uleb128 0xb
 2169 0083 13       		.uleb128 0x13
 2170 0084 01       		.byte	0x1
 2171 0085 03       		.uleb128 0x3
 2172 0086 0E       		.uleb128 0xe
 2173 0087 0B       		.uleb128 0xb
 2174 0088 0B       		.uleb128 0xb
 2175 0089 3A       		.uleb128 0x3a
 2176 008a 0B       		.uleb128 0xb
 2177 008b 3B       		.uleb128 0x3b
 2178 008c 05       		.uleb128 0x5
 2179 008d 01       		.uleb128 0x1
ARM GAS  /var/folders/c6/c789hm653lg9vtl73krp73tm0000gn/T//cciZXqwa.s 			page 67


 2180 008e 13       		.uleb128 0x13
 2181 008f 00       		.byte	0
 2182 0090 00       		.byte	0
 2183 0091 0C       		.uleb128 0xc
 2184 0092 15       		.uleb128 0x15
 2185 0093 01       		.byte	0x1
 2186 0094 27       		.uleb128 0x27
 2187 0095 19       		.uleb128 0x19
 2188 0096 01       		.uleb128 0x1
 2189 0097 13       		.uleb128 0x13
 2190 0098 00       		.byte	0
 2191 0099 00       		.byte	0
 2192 009a 0D       		.uleb128 0xd
 2193 009b 05       		.uleb128 0x5
 2194 009c 00       		.byte	0
 2195 009d 49       		.uleb128 0x49
 2196 009e 13       		.uleb128 0x13
 2197 009f 00       		.byte	0
 2198 00a0 00       		.byte	0
 2199 00a1 0E       		.uleb128 0xe
 2200 00a2 0F       		.uleb128 0xf
 2201 00a3 00       		.byte	0
 2202 00a4 0B       		.uleb128 0xb
 2203 00a5 0B       		.uleb128 0xb
 2204 00a6 00       		.byte	0
 2205 00a7 00       		.byte	0
 2206 00a8 0F       		.uleb128 0xf
 2207 00a9 13       		.uleb128 0x13
 2208 00aa 01       		.byte	0x1
 2209 00ab 03       		.uleb128 0x3
 2210 00ac 0E       		.uleb128 0xe
 2211 00ad 0B       		.uleb128 0xb
 2212 00ae 05       		.uleb128 0x5
 2213 00af 3A       		.uleb128 0x3a
 2214 00b0 0B       		.uleb128 0xb
 2215 00b1 3B       		.uleb128 0x3b
 2216 00b2 05       		.uleb128 0x5
 2217 00b3 01       		.uleb128 0x1
 2218 00b4 13       		.uleb128 0x13
 2219 00b5 00       		.byte	0
 2220 00b6 00       		.byte	0
 2221 00b7 10       		.uleb128 0x10
 2222 00b8 0D       		.uleb128 0xd
 2223 00b9 00       		.byte	0
 2224 00ba 03       		.uleb128 0x3
 2225 00bb 08       		.uleb128 0x8
 2226 00bc 3A       		.uleb128 0x3a
 2227 00bd 0B       		.uleb128 0xb
 2228 00be 3B       		.uleb128 0x3b
 2229 00bf 0B       		.uleb128 0xb
 2230 00c0 49       		.uleb128 0x49
 2231 00c1 13       		.uleb128 0x13
 2232 00c2 38       		.uleb128 0x38
 2233 00c3 0B       		.uleb128 0xb
 2234 00c4 00       		.byte	0
 2235 00c5 00       		.byte	0
 2236 00c6 11       		.uleb128 0x11
ARM GAS  /var/folders/c6/c789hm653lg9vtl73krp73tm0000gn/T//cciZXqwa.s 			page 68


 2237 00c7 13       		.uleb128 0x13
 2238 00c8 01       		.byte	0x1
 2239 00c9 0B       		.uleb128 0xb
 2240 00ca 0B       		.uleb128 0xb
 2241 00cb 3A       		.uleb128 0x3a
 2242 00cc 0B       		.uleb128 0xb
 2243 00cd 3B       		.uleb128 0x3b
 2244 00ce 0B       		.uleb128 0xb
 2245 00cf 01       		.uleb128 0x1
 2246 00d0 13       		.uleb128 0x13
 2247 00d1 00       		.byte	0
 2248 00d2 00       		.byte	0
 2249 00d3 12       		.uleb128 0x12
 2250 00d4 17       		.uleb128 0x17
 2251 00d5 01       		.byte	0x1
 2252 00d6 0B       		.uleb128 0xb
 2253 00d7 0B       		.uleb128 0xb
 2254 00d8 3A       		.uleb128 0x3a
 2255 00d9 0B       		.uleb128 0xb
 2256 00da 3B       		.uleb128 0x3b
 2257 00db 0B       		.uleb128 0xb
 2258 00dc 01       		.uleb128 0x1
 2259 00dd 13       		.uleb128 0x13
 2260 00de 00       		.byte	0
 2261 00df 00       		.byte	0
 2262 00e0 13       		.uleb128 0x13
 2263 00e1 0D       		.uleb128 0xd
 2264 00e2 00       		.byte	0
 2265 00e3 03       		.uleb128 0x3
 2266 00e4 0E       		.uleb128 0xe
 2267 00e5 3A       		.uleb128 0x3a
 2268 00e6 0B       		.uleb128 0xb
 2269 00e7 3B       		.uleb128 0x3b
 2270 00e8 05       		.uleb128 0x5
 2271 00e9 49       		.uleb128 0x49
 2272 00ea 13       		.uleb128 0x13
 2273 00eb 00       		.byte	0
 2274 00ec 00       		.byte	0
 2275 00ed 14       		.uleb128 0x14
 2276 00ee 26       		.uleb128 0x26
 2277 00ef 00       		.byte	0
 2278 00f0 49       		.uleb128 0x49
 2279 00f1 13       		.uleb128 0x13
 2280 00f2 00       		.byte	0
 2281 00f3 00       		.byte	0
 2282 00f4 15       		.uleb128 0x15
 2283 00f5 01       		.uleb128 0x1
 2284 00f6 01       		.byte	0x1
 2285 00f7 49       		.uleb128 0x49
 2286 00f8 13       		.uleb128 0x13
 2287 00f9 01       		.uleb128 0x1
 2288 00fa 13       		.uleb128 0x13
 2289 00fb 00       		.byte	0
 2290 00fc 00       		.byte	0
 2291 00fd 16       		.uleb128 0x16
 2292 00fe 21       		.uleb128 0x21
 2293 00ff 00       		.byte	0
ARM GAS  /var/folders/c6/c789hm653lg9vtl73krp73tm0000gn/T//cciZXqwa.s 			page 69


 2294 0100 49       		.uleb128 0x49
 2295 0101 13       		.uleb128 0x13
 2296 0102 2F       		.uleb128 0x2f
 2297 0103 0B       		.uleb128 0xb
 2298 0104 00       		.byte	0
 2299 0105 00       		.byte	0
 2300 0106 17       		.uleb128 0x17
 2301 0107 2E       		.uleb128 0x2e
 2302 0108 01       		.byte	0x1
 2303 0109 03       		.uleb128 0x3
 2304 010a 0E       		.uleb128 0xe
 2305 010b 3A       		.uleb128 0x3a
 2306 010c 0B       		.uleb128 0xb
 2307 010d 3B       		.uleb128 0x3b
 2308 010e 05       		.uleb128 0x5
 2309 010f 27       		.uleb128 0x27
 2310 0110 19       		.uleb128 0x19
 2311 0111 20       		.uleb128 0x20
 2312 0112 0B       		.uleb128 0xb
 2313 0113 01       		.uleb128 0x1
 2314 0114 13       		.uleb128 0x13
 2315 0115 00       		.byte	0
 2316 0116 00       		.byte	0
 2317 0117 18       		.uleb128 0x18
 2318 0118 05       		.uleb128 0x5
 2319 0119 00       		.byte	0
 2320 011a 03       		.uleb128 0x3
 2321 011b 0E       		.uleb128 0xe
 2322 011c 3A       		.uleb128 0x3a
 2323 011d 0B       		.uleb128 0xb
 2324 011e 3B       		.uleb128 0x3b
 2325 011f 05       		.uleb128 0x5
 2326 0120 49       		.uleb128 0x49
 2327 0121 13       		.uleb128 0x13
 2328 0122 00       		.byte	0
 2329 0123 00       		.byte	0
 2330 0124 19       		.uleb128 0x19
 2331 0125 2E       		.uleb128 0x2e
 2332 0126 00       		.byte	0
 2333 0127 03       		.uleb128 0x3
 2334 0128 0E       		.uleb128 0xe
 2335 0129 3A       		.uleb128 0x3a
 2336 012a 0B       		.uleb128 0xb
 2337 012b 3B       		.uleb128 0x3b
 2338 012c 05       		.uleb128 0x5
 2339 012d 27       		.uleb128 0x27
 2340 012e 19       		.uleb128 0x19
 2341 012f 20       		.uleb128 0x20
 2342 0130 0B       		.uleb128 0xb
 2343 0131 00       		.byte	0
 2344 0132 00       		.byte	0
 2345 0133 1A       		.uleb128 0x1a
 2346 0134 05       		.uleb128 0x5
 2347 0135 00       		.byte	0
 2348 0136 03       		.uleb128 0x3
 2349 0137 08       		.uleb128 0x8
 2350 0138 3A       		.uleb128 0x3a
ARM GAS  /var/folders/c6/c789hm653lg9vtl73krp73tm0000gn/T//cciZXqwa.s 			page 70


 2351 0139 0B       		.uleb128 0xb
 2352 013a 3B       		.uleb128 0x3b
 2353 013b 05       		.uleb128 0x5
 2354 013c 49       		.uleb128 0x49
 2355 013d 13       		.uleb128 0x13
 2356 013e 00       		.byte	0
 2357 013f 00       		.byte	0
 2358 0140 1B       		.uleb128 0x1b
 2359 0141 34       		.uleb128 0x34
 2360 0142 00       		.byte	0
 2361 0143 03       		.uleb128 0x3
 2362 0144 0E       		.uleb128 0xe
 2363 0145 49       		.uleb128 0x49
 2364 0146 13       		.uleb128 0x13
 2365 0147 34       		.uleb128 0x34
 2366 0148 19       		.uleb128 0x19
 2367 0149 1C       		.uleb128 0x1c
 2368 014a 0E       		.uleb128 0xe
 2369 014b 00       		.byte	0
 2370 014c 00       		.byte	0
 2371 014d 1C       		.uleb128 0x1c
 2372 014e 2E       		.uleb128 0x2e
 2373 014f 01       		.byte	0x1
 2374 0150 03       		.uleb128 0x3
 2375 0151 0E       		.uleb128 0xe
 2376 0152 3A       		.uleb128 0x3a
 2377 0153 0B       		.uleb128 0xb
 2378 0154 3B       		.uleb128 0x3b
 2379 0155 0B       		.uleb128 0xb
 2380 0156 27       		.uleb128 0x27
 2381 0157 19       		.uleb128 0x19
 2382 0158 49       		.uleb128 0x49
 2383 0159 13       		.uleb128 0x13
 2384 015a 20       		.uleb128 0x20
 2385 015b 0B       		.uleb128 0xb
 2386 015c 01       		.uleb128 0x1
 2387 015d 13       		.uleb128 0x13
 2388 015e 00       		.byte	0
 2389 015f 00       		.byte	0
 2390 0160 1D       		.uleb128 0x1d
 2391 0161 05       		.uleb128 0x5
 2392 0162 00       		.byte	0
 2393 0163 03       		.uleb128 0x3
 2394 0164 08       		.uleb128 0x8
 2395 0165 3A       		.uleb128 0x3a
 2396 0166 0B       		.uleb128 0xb
 2397 0167 3B       		.uleb128 0x3b
 2398 0168 0B       		.uleb128 0xb
 2399 0169 49       		.uleb128 0x49
 2400 016a 13       		.uleb128 0x13
 2401 016b 00       		.byte	0
 2402 016c 00       		.byte	0
 2403 016d 1E       		.uleb128 0x1e
 2404 016e 2E       		.uleb128 0x2e
 2405 016f 01       		.byte	0x1
 2406 0170 03       		.uleb128 0x3
 2407 0171 0E       		.uleb128 0xe
ARM GAS  /var/folders/c6/c789hm653lg9vtl73krp73tm0000gn/T//cciZXqwa.s 			page 71


 2408 0172 3A       		.uleb128 0x3a
 2409 0173 0B       		.uleb128 0xb
 2410 0174 3B       		.uleb128 0x3b
 2411 0175 05       		.uleb128 0x5
 2412 0176 27       		.uleb128 0x27
 2413 0177 19       		.uleb128 0x19
 2414 0178 49       		.uleb128 0x49
 2415 0179 13       		.uleb128 0x13
 2416 017a 20       		.uleb128 0x20
 2417 017b 0B       		.uleb128 0xb
 2418 017c 01       		.uleb128 0x1
 2419 017d 13       		.uleb128 0x13
 2420 017e 00       		.byte	0
 2421 017f 00       		.byte	0
 2422 0180 1F       		.uleb128 0x1f
 2423 0181 34       		.uleb128 0x34
 2424 0182 00       		.byte	0
 2425 0183 03       		.uleb128 0x3
 2426 0184 08       		.uleb128 0x8
 2427 0185 3A       		.uleb128 0x3a
 2428 0186 0B       		.uleb128 0xb
 2429 0187 3B       		.uleb128 0x3b
 2430 0188 05       		.uleb128 0x5
 2431 0189 49       		.uleb128 0x49
 2432 018a 13       		.uleb128 0x13
 2433 018b 00       		.byte	0
 2434 018c 00       		.byte	0
 2435 018d 20       		.uleb128 0x20
 2436 018e 2E       		.uleb128 0x2e
 2437 018f 01       		.byte	0x1
 2438 0190 03       		.uleb128 0x3
 2439 0191 0E       		.uleb128 0xe
 2440 0192 3A       		.uleb128 0x3a
 2441 0193 0B       		.uleb128 0xb
 2442 0194 3B       		.uleb128 0x3b
 2443 0195 0B       		.uleb128 0xb
 2444 0196 27       		.uleb128 0x27
 2445 0197 19       		.uleb128 0x19
 2446 0198 20       		.uleb128 0x20
 2447 0199 0B       		.uleb128 0xb
 2448 019a 01       		.uleb128 0x1
 2449 019b 13       		.uleb128 0x13
 2450 019c 00       		.byte	0
 2451 019d 00       		.byte	0
 2452 019e 21       		.uleb128 0x21
 2453 019f 2E       		.uleb128 0x2e
 2454 01a0 01       		.byte	0x1
 2455 01a1 3F       		.uleb128 0x3f
 2456 01a2 19       		.uleb128 0x19
 2457 01a3 03       		.uleb128 0x3
 2458 01a4 0E       		.uleb128 0xe
 2459 01a5 3A       		.uleb128 0x3a
 2460 01a6 0B       		.uleb128 0xb
 2461 01a7 3B       		.uleb128 0x3b
 2462 01a8 0B       		.uleb128 0xb
 2463 01a9 27       		.uleb128 0x27
 2464 01aa 19       		.uleb128 0x19
ARM GAS  /var/folders/c6/c789hm653lg9vtl73krp73tm0000gn/T//cciZXqwa.s 			page 72


 2465 01ab 49       		.uleb128 0x49
 2466 01ac 13       		.uleb128 0x13
 2467 01ad 11       		.uleb128 0x11
 2468 01ae 01       		.uleb128 0x1
 2469 01af 12       		.uleb128 0x12
 2470 01b0 06       		.uleb128 0x6
 2471 01b1 40       		.uleb128 0x40
 2472 01b2 18       		.uleb128 0x18
 2473 01b3 9742     		.uleb128 0x2117
 2474 01b5 19       		.uleb128 0x19
 2475 01b6 01       		.uleb128 0x1
 2476 01b7 13       		.uleb128 0x13
 2477 01b8 00       		.byte	0
 2478 01b9 00       		.byte	0
 2479 01ba 22       		.uleb128 0x22
 2480 01bb 05       		.uleb128 0x5
 2481 01bc 00       		.byte	0
 2482 01bd 03       		.uleb128 0x3
 2483 01be 08       		.uleb128 0x8
 2484 01bf 3A       		.uleb128 0x3a
 2485 01c0 0B       		.uleb128 0xb
 2486 01c1 3B       		.uleb128 0x3b
 2487 01c2 0B       		.uleb128 0xb
 2488 01c3 49       		.uleb128 0x49
 2489 01c4 13       		.uleb128 0x13
 2490 01c5 02       		.uleb128 0x2
 2491 01c6 17       		.uleb128 0x17
 2492 01c7 00       		.byte	0
 2493 01c8 00       		.byte	0
 2494 01c9 23       		.uleb128 0x23
 2495 01ca 34       		.uleb128 0x34
 2496 01cb 00       		.byte	0
 2497 01cc 03       		.uleb128 0x3
 2498 01cd 08       		.uleb128 0x8
 2499 01ce 3A       		.uleb128 0x3a
 2500 01cf 0B       		.uleb128 0xb
 2501 01d0 3B       		.uleb128 0x3b
 2502 01d1 0B       		.uleb128 0xb
 2503 01d2 49       		.uleb128 0x49
 2504 01d3 13       		.uleb128 0x13
 2505 01d4 02       		.uleb128 0x2
 2506 01d5 18       		.uleb128 0x18
 2507 01d6 00       		.byte	0
 2508 01d7 00       		.byte	0
 2509 01d8 24       		.uleb128 0x24
 2510 01d9 34       		.uleb128 0x34
 2511 01da 00       		.byte	0
 2512 01db 03       		.uleb128 0x3
 2513 01dc 0E       		.uleb128 0xe
 2514 01dd 49       		.uleb128 0x49
 2515 01de 13       		.uleb128 0x13
 2516 01df 34       		.uleb128 0x34
 2517 01e0 19       		.uleb128 0x19
 2518 01e1 00       		.byte	0
 2519 01e2 00       		.byte	0
 2520 01e3 25       		.uleb128 0x25
 2521 01e4 1D       		.uleb128 0x1d
ARM GAS  /var/folders/c6/c789hm653lg9vtl73krp73tm0000gn/T//cciZXqwa.s 			page 73


 2522 01e5 01       		.byte	0x1
 2523 01e6 31       		.uleb128 0x31
 2524 01e7 13       		.uleb128 0x13
 2525 01e8 52       		.uleb128 0x52
 2526 01e9 01       		.uleb128 0x1
 2527 01ea 55       		.uleb128 0x55
 2528 01eb 17       		.uleb128 0x17
 2529 01ec 58       		.uleb128 0x58
 2530 01ed 0B       		.uleb128 0xb
 2531 01ee 59       		.uleb128 0x59
 2532 01ef 0B       		.uleb128 0xb
 2533 01f0 01       		.uleb128 0x1
 2534 01f1 13       		.uleb128 0x13
 2535 01f2 00       		.byte	0
 2536 01f3 00       		.byte	0
 2537 01f4 26       		.uleb128 0x26
 2538 01f5 1D       		.uleb128 0x1d
 2539 01f6 01       		.byte	0x1
 2540 01f7 31       		.uleb128 0x31
 2541 01f8 13       		.uleb128 0x13
 2542 01f9 52       		.uleb128 0x52
 2543 01fa 01       		.uleb128 0x1
 2544 01fb 55       		.uleb128 0x55
 2545 01fc 17       		.uleb128 0x17
 2546 01fd 58       		.uleb128 0x58
 2547 01fe 0B       		.uleb128 0xb
 2548 01ff 59       		.uleb128 0x59
 2549 0200 05       		.uleb128 0x5
 2550 0201 00       		.byte	0
 2551 0202 00       		.byte	0
 2552 0203 27       		.uleb128 0x27
 2553 0204 05       		.uleb128 0x5
 2554 0205 00       		.byte	0
 2555 0206 31       		.uleb128 0x31
 2556 0207 13       		.uleb128 0x13
 2557 0208 1C       		.uleb128 0x1c
 2558 0209 0B       		.uleb128 0xb
 2559 020a 00       		.byte	0
 2560 020b 00       		.byte	0
 2561 020c 28       		.uleb128 0x28
 2562 020d 05       		.uleb128 0x5
 2563 020e 00       		.byte	0
 2564 020f 31       		.uleb128 0x31
 2565 0210 13       		.uleb128 0x13
 2566 0211 02       		.uleb128 0x2
 2567 0212 18       		.uleb128 0x18
 2568 0213 00       		.byte	0
 2569 0214 00       		.byte	0
 2570 0215 29       		.uleb128 0x29
 2571 0216 1D       		.uleb128 0x1d
 2572 0217 01       		.byte	0x1
 2573 0218 31       		.uleb128 0x31
 2574 0219 13       		.uleb128 0x13
 2575 021a 11       		.uleb128 0x11
 2576 021b 01       		.uleb128 0x1
 2577 021c 12       		.uleb128 0x12
 2578 021d 06       		.uleb128 0x6
ARM GAS  /var/folders/c6/c789hm653lg9vtl73krp73tm0000gn/T//cciZXqwa.s 			page 74


 2579 021e 58       		.uleb128 0x58
 2580 021f 0B       		.uleb128 0xb
 2581 0220 59       		.uleb128 0x59
 2582 0221 0B       		.uleb128 0xb
 2583 0222 01       		.uleb128 0x1
 2584 0223 13       		.uleb128 0x13
 2585 0224 00       		.byte	0
 2586 0225 00       		.byte	0
 2587 0226 2A       		.uleb128 0x2a
 2588 0227 0B       		.uleb128 0xb
 2589 0228 01       		.byte	0x1
 2590 0229 11       		.uleb128 0x11
 2591 022a 01       		.uleb128 0x1
 2592 022b 12       		.uleb128 0x12
 2593 022c 06       		.uleb128 0x6
 2594 022d 00       		.byte	0
 2595 022e 00       		.byte	0
 2596 022f 2B       		.uleb128 0x2b
 2597 0230 34       		.uleb128 0x34
 2598 0231 00       		.byte	0
 2599 0232 31       		.uleb128 0x31
 2600 0233 13       		.uleb128 0x13
 2601 0234 00       		.byte	0
 2602 0235 00       		.byte	0
 2603 0236 2C       		.uleb128 0x2c
 2604 0237 1D       		.uleb128 0x1d
 2605 0238 01       		.byte	0x1
 2606 0239 31       		.uleb128 0x31
 2607 023a 13       		.uleb128 0x13
 2608 023b 11       		.uleb128 0x11
 2609 023c 01       		.uleb128 0x1
 2610 023d 12       		.uleb128 0x12
 2611 023e 06       		.uleb128 0x6
 2612 023f 58       		.uleb128 0x58
 2613 0240 0B       		.uleb128 0xb
 2614 0241 59       		.uleb128 0x59
 2615 0242 05       		.uleb128 0x5
 2616 0243 00       		.byte	0
 2617 0244 00       		.byte	0
 2618 0245 2D       		.uleb128 0x2d
 2619 0246 05       		.uleb128 0x5
 2620 0247 00       		.byte	0
 2621 0248 31       		.uleb128 0x31
 2622 0249 13       		.uleb128 0x13
 2623 024a 02       		.uleb128 0x2
 2624 024b 17       		.uleb128 0x17
 2625 024c 00       		.byte	0
 2626 024d 00       		.byte	0
 2627 024e 2E       		.uleb128 0x2e
 2628 024f 898201   		.uleb128 0x4109
 2629 0252 01       		.byte	0x1
 2630 0253 11       		.uleb128 0x11
 2631 0254 01       		.uleb128 0x1
 2632 0255 31       		.uleb128 0x31
 2633 0256 13       		.uleb128 0x13
 2634 0257 01       		.uleb128 0x1
 2635 0258 13       		.uleb128 0x13
ARM GAS  /var/folders/c6/c789hm653lg9vtl73krp73tm0000gn/T//cciZXqwa.s 			page 75


 2636 0259 00       		.byte	0
 2637 025a 00       		.byte	0
 2638 025b 2F       		.uleb128 0x2f
 2639 025c 8A8201   		.uleb128 0x410a
 2640 025f 00       		.byte	0
 2641 0260 02       		.uleb128 0x2
 2642 0261 18       		.uleb128 0x18
 2643 0262 9142     		.uleb128 0x2111
 2644 0264 18       		.uleb128 0x18
 2645 0265 00       		.byte	0
 2646 0266 00       		.byte	0
 2647 0267 30       		.uleb128 0x30
 2648 0268 898201   		.uleb128 0x4109
 2649 026b 00       		.byte	0
 2650 026c 11       		.uleb128 0x11
 2651 026d 01       		.uleb128 0x1
 2652 026e 31       		.uleb128 0x31
 2653 026f 13       		.uleb128 0x13
 2654 0270 00       		.byte	0
 2655 0271 00       		.byte	0
 2656 0272 31       		.uleb128 0x31
 2657 0273 34       		.uleb128 0x34
 2658 0274 00       		.byte	0
 2659 0275 03       		.uleb128 0x3
 2660 0276 08       		.uleb128 0x8
 2661 0277 3A       		.uleb128 0x3a
 2662 0278 0B       		.uleb128 0xb
 2663 0279 3B       		.uleb128 0x3b
 2664 027a 0B       		.uleb128 0xb
 2665 027b 49       		.uleb128 0x49
 2666 027c 13       		.uleb128 0x13
 2667 027d 00       		.byte	0
 2668 027e 00       		.byte	0
 2669 027f 32       		.uleb128 0x32
 2670 0280 0B       		.uleb128 0xb
 2671 0281 01       		.byte	0x1
 2672 0282 55       		.uleb128 0x55
 2673 0283 17       		.uleb128 0x17
 2674 0284 00       		.byte	0
 2675 0285 00       		.byte	0
 2676 0286 33       		.uleb128 0x33
 2677 0287 34       		.uleb128 0x34
 2678 0288 00       		.byte	0
 2679 0289 31       		.uleb128 0x31
 2680 028a 13       		.uleb128 0x13
 2681 028b 02       		.uleb128 0x2
 2682 028c 17       		.uleb128 0x17
 2683 028d 00       		.byte	0
 2684 028e 00       		.byte	0
 2685 028f 34       		.uleb128 0x34
 2686 0290 898201   		.uleb128 0x4109
 2687 0293 01       		.byte	0x1
 2688 0294 11       		.uleb128 0x11
 2689 0295 01       		.uleb128 0x1
 2690 0296 31       		.uleb128 0x31
 2691 0297 13       		.uleb128 0x13
 2692 0298 00       		.byte	0
ARM GAS  /var/folders/c6/c789hm653lg9vtl73krp73tm0000gn/T//cciZXqwa.s 			page 76


 2693 0299 00       		.byte	0
 2694 029a 35       		.uleb128 0x35
 2695 029b 2E       		.uleb128 0x2e
 2696 029c 01       		.byte	0x1
 2697 029d 3F       		.uleb128 0x3f
 2698 029e 19       		.uleb128 0x19
 2699 029f 03       		.uleb128 0x3
 2700 02a0 0E       		.uleb128 0xe
 2701 02a1 3A       		.uleb128 0x3a
 2702 02a2 0B       		.uleb128 0xb
 2703 02a3 3B       		.uleb128 0x3b
 2704 02a4 0B       		.uleb128 0xb
 2705 02a5 27       		.uleb128 0x27
 2706 02a6 19       		.uleb128 0x19
 2707 02a7 11       		.uleb128 0x11
 2708 02a8 01       		.uleb128 0x1
 2709 02a9 12       		.uleb128 0x12
 2710 02aa 06       		.uleb128 0x6
 2711 02ab 40       		.uleb128 0x40
 2712 02ac 18       		.uleb128 0x18
 2713 02ad 9742     		.uleb128 0x2117
 2714 02af 19       		.uleb128 0x19
 2715 02b0 01       		.uleb128 0x1
 2716 02b1 13       		.uleb128 0x13
 2717 02b2 00       		.byte	0
 2718 02b3 00       		.byte	0
 2719 02b4 36       		.uleb128 0x36
 2720 02b5 1D       		.uleb128 0x1d
 2721 02b6 01       		.byte	0x1
 2722 02b7 31       		.uleb128 0x31
 2723 02b8 13       		.uleb128 0x13
 2724 02b9 11       		.uleb128 0x11
 2725 02ba 01       		.uleb128 0x1
 2726 02bb 12       		.uleb128 0x12
 2727 02bc 06       		.uleb128 0x6
 2728 02bd 58       		.uleb128 0x58
 2729 02be 0B       		.uleb128 0xb
 2730 02bf 59       		.uleb128 0x59
 2731 02c0 0B       		.uleb128 0xb
 2732 02c1 00       		.byte	0
 2733 02c2 00       		.byte	0
 2734 02c3 37       		.uleb128 0x37
 2735 02c4 34       		.uleb128 0x34
 2736 02c5 00       		.byte	0
 2737 02c6 03       		.uleb128 0x3
 2738 02c7 0E       		.uleb128 0xe
 2739 02c8 3A       		.uleb128 0x3a
 2740 02c9 0B       		.uleb128 0xb
 2741 02ca 3B       		.uleb128 0x3b
 2742 02cb 05       		.uleb128 0x5
 2743 02cc 49       		.uleb128 0x49
 2744 02cd 13       		.uleb128 0x13
 2745 02ce 3F       		.uleb128 0x3f
 2746 02cf 19       		.uleb128 0x19
 2747 02d0 3C       		.uleb128 0x3c
 2748 02d1 19       		.uleb128 0x19
 2749 02d2 00       		.byte	0
ARM GAS  /var/folders/c6/c789hm653lg9vtl73krp73tm0000gn/T//cciZXqwa.s 			page 77


 2750 02d3 00       		.byte	0
 2751 02d4 38       		.uleb128 0x38
 2752 02d5 34       		.uleb128 0x34
 2753 02d6 00       		.byte	0
 2754 02d7 03       		.uleb128 0x3
 2755 02d8 08       		.uleb128 0x8
 2756 02d9 3A       		.uleb128 0x3a
 2757 02da 0B       		.uleb128 0xb
 2758 02db 3B       		.uleb128 0x3b
 2759 02dc 05       		.uleb128 0x5
 2760 02dd 49       		.uleb128 0x49
 2761 02de 13       		.uleb128 0x13
 2762 02df 3F       		.uleb128 0x3f
 2763 02e0 19       		.uleb128 0x19
 2764 02e1 3C       		.uleb128 0x3c
 2765 02e2 19       		.uleb128 0x19
 2766 02e3 00       		.byte	0
 2767 02e4 00       		.byte	0
 2768 02e5 39       		.uleb128 0x39
 2769 02e6 2E       		.uleb128 0x2e
 2770 02e7 01       		.byte	0x1
 2771 02e8 3F       		.uleb128 0x3f
 2772 02e9 19       		.uleb128 0x19
 2773 02ea 03       		.uleb128 0x3
 2774 02eb 0E       		.uleb128 0xe
 2775 02ec 3A       		.uleb128 0x3a
 2776 02ed 0B       		.uleb128 0xb
 2777 02ee 3B       		.uleb128 0x3b
 2778 02ef 05       		.uleb128 0x5
 2779 02f0 27       		.uleb128 0x27
 2780 02f1 19       		.uleb128 0x19
 2781 02f2 3C       		.uleb128 0x3c
 2782 02f3 19       		.uleb128 0x19
 2783 02f4 01       		.uleb128 0x1
 2784 02f5 13       		.uleb128 0x13
 2785 02f6 00       		.byte	0
 2786 02f7 00       		.byte	0
 2787 02f8 3A       		.uleb128 0x3a
 2788 02f9 2E       		.uleb128 0x2e
 2789 02fa 01       		.byte	0x1
 2790 02fb 3F       		.uleb128 0x3f
 2791 02fc 19       		.uleb128 0x19
 2792 02fd 03       		.uleb128 0x3
 2793 02fe 0E       		.uleb128 0xe
 2794 02ff 3A       		.uleb128 0x3a
 2795 0300 0B       		.uleb128 0xb
 2796 0301 3B       		.uleb128 0x3b
 2797 0302 05       		.uleb128 0x5
 2798 0303 27       		.uleb128 0x27
 2799 0304 19       		.uleb128 0x19
 2800 0305 49       		.uleb128 0x49
 2801 0306 13       		.uleb128 0x13
 2802 0307 3C       		.uleb128 0x3c
 2803 0308 19       		.uleb128 0x19
 2804 0309 01       		.uleb128 0x1
 2805 030a 13       		.uleb128 0x13
 2806 030b 00       		.byte	0
ARM GAS  /var/folders/c6/c789hm653lg9vtl73krp73tm0000gn/T//cciZXqwa.s 			page 78


 2807 030c 00       		.byte	0
 2808 030d 3B       		.uleb128 0x3b
 2809 030e 2E       		.uleb128 0x2e
 2810 030f 01       		.byte	0x1
 2811 0310 3F       		.uleb128 0x3f
 2812 0311 19       		.uleb128 0x19
 2813 0312 03       		.uleb128 0x3
 2814 0313 0E       		.uleb128 0xe
 2815 0314 3A       		.uleb128 0x3a
 2816 0315 0B       		.uleb128 0xb
 2817 0316 3B       		.uleb128 0x3b
 2818 0317 05       		.uleb128 0x5
 2819 0318 27       		.uleb128 0x27
 2820 0319 19       		.uleb128 0x19
 2821 031a 3C       		.uleb128 0x3c
 2822 031b 19       		.uleb128 0x19
 2823 031c 00       		.byte	0
 2824 031d 00       		.byte	0
 2825 031e 00       		.byte	0
 2826              		.section	.debug_loc,"",%progbits
 2827              	.Ldebug_loc0:
 2828              	.LLST0:
 2829 0000 00000000 		.4byte	.LVL0
 2830 0004 24000000 		.4byte	.LVL3
 2831 0008 0100     		.2byte	0x1
 2832 000a 50       		.byte	0x50
 2833 000b 24000000 		.4byte	.LVL3
 2834 000f 34000000 		.4byte	.LVL6
 2835 0013 0300     		.2byte	0x3
 2836 0015 75       		.byte	0x75
 2837 0016 58       		.sleb128 -40
 2838 0017 9F       		.byte	0x9f
 2839 0018 34000000 		.4byte	.LVL6
 2840 001c 37000000 		.4byte	.LVL7-1
 2841 0020 0100     		.2byte	0x1
 2842 0022 50       		.byte	0x50
 2843 0023 37000000 		.4byte	.LVL7-1
 2844 0027 40000000 		.4byte	.LFE229
 2845 002b 0300     		.2byte	0x3
 2846 002d 75       		.byte	0x75
 2847 002e 58       		.sleb128 -40
 2848 002f 9F       		.byte	0x9f
 2849 0030 00000000 		.4byte	0
 2850 0034 00000000 		.4byte	0
 2851              	.LLST1:
 2852 0038 00000000 		.4byte	.LVL0
 2853 003c 24000000 		.4byte	.LVL3
 2854 0040 0100     		.2byte	0x1
 2855 0042 51       		.byte	0x51
 2856 0043 24000000 		.4byte	.LVL3
 2857 0047 2C000000 		.4byte	.LVL5
 2858 004b 0400     		.2byte	0x4
 2859 004d F3       		.byte	0xf3
 2860 004e 01       		.uleb128 0x1
 2861 004f 51       		.byte	0x51
 2862 0050 9F       		.byte	0x9f
 2863 0051 2C000000 		.4byte	.LVL5
ARM GAS  /var/folders/c6/c789hm653lg9vtl73krp73tm0000gn/T//cciZXqwa.s 			page 79


 2864 0055 34000000 		.4byte	.LVL6
 2865 0059 0100     		.2byte	0x1
 2866 005b 50       		.byte	0x50
 2867 005c 34000000 		.4byte	.LVL6
 2868 0060 37000000 		.4byte	.LVL7-1
 2869 0064 0100     		.2byte	0x1
 2870 0066 51       		.byte	0x51
 2871 0067 37000000 		.4byte	.LVL7-1
 2872 006b 40000000 		.4byte	.LFE229
 2873 006f 0400     		.2byte	0x4
 2874 0071 F3       		.byte	0xf3
 2875 0072 01       		.uleb128 0x1
 2876 0073 51       		.byte	0x51
 2877 0074 9F       		.byte	0x9f
 2878 0075 00000000 		.4byte	0
 2879 0079 00000000 		.4byte	0
 2880              	.LLST2:
 2881 007d 2C000000 		.4byte	.LVL5
 2882 0081 34000000 		.4byte	.LVL6
 2883 0085 0200     		.2byte	0x2
 2884 0087 30       		.byte	0x30
 2885 0088 9F       		.byte	0x9f
 2886 0089 00000000 		.4byte	0
 2887 008d 00000000 		.4byte	0
 2888              	.LLST3:
 2889 0091 0C000000 		.4byte	.LVL9
 2890 0095 16000000 		.4byte	.LVL10
 2891 0099 0100     		.2byte	0x1
 2892 009b 52       		.byte	0x52
 2893 009c 28000000 		.4byte	.LVL13
 2894 00a0 2D000000 		.4byte	.LVL14-1
 2895 00a4 0100     		.2byte	0x1
 2896 00a6 52       		.byte	0x52
 2897 00a7 00000000 		.4byte	0
 2898 00ab 00000000 		.4byte	0
 2899              	.LLST4:
 2900 00af 16000000 		.4byte	.LVL10
 2901 00b3 20000000 		.4byte	.LVL11
 2902 00b7 0100     		.2byte	0x1
 2903 00b9 53       		.byte	0x53
 2904 00ba 20000000 		.4byte	.LVL11
 2905 00be 28000000 		.4byte	.LVL13
 2906 00c2 0200     		.2byte	0x2
 2907 00c4 71       		.byte	0x71
 2908 00c5 04       		.sleb128 4
 2909 00c6 00000000 		.4byte	0
 2910 00ca 00000000 		.4byte	0
 2911              	.LLST5:
 2912 00ce 16000000 		.4byte	.LVL10
 2913 00d2 28000000 		.4byte	.LVL13
 2914 00d6 0100     		.2byte	0x1
 2915 00d8 50       		.byte	0x50
 2916 00d9 00000000 		.4byte	0
 2917 00dd 00000000 		.4byte	0
 2918              	.LLST6:
 2919 00e1 22000000 		.4byte	.LVL12
 2920 00e5 28000000 		.4byte	.LVL13
ARM GAS  /var/folders/c6/c789hm653lg9vtl73krp73tm0000gn/T//cciZXqwa.s 			page 80


 2921 00e9 0200     		.2byte	0x2
 2922 00eb 30       		.byte	0x30
 2923 00ec 9F       		.byte	0x9f
 2924 00ed 00000000 		.4byte	0
 2925 00f1 00000000 		.4byte	0
 2926              	.LLST7:
 2927 00f5 00000000 		.4byte	.LVL15
 2928 00f9 0B000000 		.4byte	.LVL17-1
 2929 00fd 0100     		.2byte	0x1
 2930 00ff 50       		.byte	0x50
 2931 0100 0B000000 		.4byte	.LVL17-1
 2932 0104 14000000 		.4byte	.LFE231
 2933 0108 0400     		.2byte	0x4
 2934 010a F3       		.byte	0xf3
 2935 010b 01       		.uleb128 0x1
 2936 010c 50       		.byte	0x50
 2937 010d 9F       		.byte	0x9f
 2938 010e 00000000 		.4byte	0
 2939 0112 00000000 		.4byte	0
 2940              	.LLST8:
 2941 0116 00000000 		.4byte	.LVL15
 2942 011a 0B000000 		.4byte	.LVL17-1
 2943 011e 0100     		.2byte	0x1
 2944 0120 51       		.byte	0x51
 2945 0121 0B000000 		.4byte	.LVL17-1
 2946 0125 14000000 		.4byte	.LFE231
 2947 0129 0400     		.2byte	0x4
 2948 012b F3       		.byte	0xf3
 2949 012c 01       		.uleb128 0x1
 2950 012d 51       		.byte	0x51
 2951 012e 9F       		.byte	0x9f
 2952 012f 00000000 		.4byte	0
 2953 0133 00000000 		.4byte	0
 2954              	.LLST9:
 2955 0137 08000000 		.4byte	.LVL16
 2956 013b 0B000000 		.4byte	.LVL17-1
 2957 013f 0100     		.2byte	0x1
 2958 0141 51       		.byte	0x51
 2959 0142 0B000000 		.4byte	.LVL17-1
 2960 0146 14000000 		.4byte	.LFE231
 2961 014a 0400     		.2byte	0x4
 2962 014c F3       		.byte	0xf3
 2963 014d 01       		.uleb128 0x1
 2964 014e 51       		.byte	0x51
 2965 014f 9F       		.byte	0x9f
 2966 0150 00000000 		.4byte	0
 2967 0154 00000000 		.4byte	0
 2968              	.LLST10:
 2969 0158 08000000 		.4byte	.LVL16
 2970 015c 0B000000 		.4byte	.LVL17-1
 2971 0160 0100     		.2byte	0x1
 2972 0162 50       		.byte	0x50
 2973 0163 0B000000 		.4byte	.LVL17-1
 2974 0167 14000000 		.4byte	.LFE231
 2975 016b 0400     		.2byte	0x4
 2976 016d F3       		.byte	0xf3
 2977 016e 01       		.uleb128 0x1
ARM GAS  /var/folders/c6/c789hm653lg9vtl73krp73tm0000gn/T//cciZXqwa.s 			page 81


 2978 016f 50       		.byte	0x50
 2979 0170 9F       		.byte	0x9f
 2980 0171 00000000 		.4byte	0
 2981 0175 00000000 		.4byte	0
 2982              		.section	.debug_aranges,"",%progbits
 2983 0000 2C000000 		.4byte	0x2c
 2984 0004 0200     		.2byte	0x2
 2985 0006 00000000 		.4byte	.Ldebug_info0
 2986 000a 04       		.byte	0x4
 2987 000b 00       		.byte	0
 2988 000c 0000     		.2byte	0
 2989 000e 0000     		.2byte	0
 2990 0010 00000000 		.4byte	.LFB229
 2991 0014 40000000 		.4byte	.LFE229-.LFB229
 2992 0018 00000000 		.4byte	.LFB230
 2993 001c 3C000000 		.4byte	.LFE230-.LFB230
 2994 0020 00000000 		.4byte	.LFB231
 2995 0024 14000000 		.4byte	.LFE231-.LFB231
 2996 0028 00000000 		.4byte	0
 2997 002c 00000000 		.4byte	0
 2998              		.section	.debug_ranges,"",%progbits
 2999              	.Ldebug_ranges0:
 3000 0000 04000000 		.4byte	.LBB52
 3001 0004 06000000 		.4byte	.LBE52
 3002 0008 08000000 		.4byte	.LBB59
 3003 000c 0C000000 		.4byte	.LBE59
 3004 0010 00000000 		.4byte	0
 3005 0014 00000000 		.4byte	0
 3006 0018 14000000 		.4byte	.LBB60
 3007 001c 18000000 		.4byte	.LBE60
 3008 0020 1C000000 		.4byte	.LBB63
 3009 0024 22000000 		.4byte	.LBE63
 3010 0028 00000000 		.4byte	0
 3011 002c 00000000 		.4byte	0
 3012 0030 16000000 		.4byte	.LBB75
 3013 0034 1A000000 		.4byte	.LBE75
 3014 0038 1C000000 		.4byte	.LBB78
 3015 003c 1E000000 		.4byte	.LBE78
 3016 0040 00000000 		.4byte	0
 3017 0044 00000000 		.4byte	0
 3018 0048 1E000000 		.4byte	.LBB79
 3019 004c 20000000 		.4byte	.LBE79
 3020 0050 22000000 		.4byte	.LBB88
 3021 0054 26000000 		.4byte	.LBE88
 3022 0058 00000000 		.4byte	0
 3023 005c 00000000 		.4byte	0
 3024 0060 00000000 		.4byte	.LFB229
 3025 0064 40000000 		.4byte	.LFE229
 3026 0068 00000000 		.4byte	.LFB230
 3027 006c 3C000000 		.4byte	.LFE230
 3028 0070 00000000 		.4byte	.LFB231
 3029 0074 14000000 		.4byte	.LFE231
 3030 0078 00000000 		.4byte	0
 3031 007c 00000000 		.4byte	0
 3032              		.section	.debug_line,"",%progbits
 3033              	.Ldebug_line0:
 3034 0000 C7020000 		.section	.debug_str,"MS",%progbits,1
ARM GAS  /var/folders/c6/c789hm653lg9vtl73krp73tm0000gn/T//cciZXqwa.s 			page 82


 3034      0200F401 
 3034      00000201 
 3034      FB0E0D00 
 3034      01010101 
 3035              	.LASF118:
 3036 0000 474E5520 		.ascii	"GNU C 4.8.4 20140725 (release) [ARM/embedded-4_8-br"
 3036      4320342E 
 3036      382E3420 
 3036      32303134 
 3036      30373235 
 3037 0033 616E6368 		.ascii	"anch revision 213147] -mcpu=cortex-m4 -mno-thumb-in"
 3037      20726576 
 3037      6973696F 
 3037      6E203231 
 3037      33313437 
 3038 0066 74657277 		.ascii	"terwork -mthumb -ggdb -O2 -fomit-frame-pointer -fal"
 3038      6F726B20 
 3038      2D6D7468 
 3038      756D6220 
 3038      2D676764 
 3039 0099 69676E2D 		.ascii	"ign-functions=16 -ffunction-sections -fdata-section"
 3039      66756E63 
 3039      74696F6E 
 3039      733D3136 
 3039      202D6666 
 3040 00cc 73202D66 		.ascii	"s -fno-common -flto\000"
 3040      6E6F2D63 
 3040      6F6D6D6F 
 3040      6E202D66 
 3040      6C746F00 
 3041              	.LASF50:
 3042 00e0 72656164 		.ascii	"ready_list_t\000"
 3042      795F6C69 
 3042      73745F74 
 3042      00
 3043              	.LASF105:
 3044 00ed 71756575 		.ascii	"queue_insert\000"
 3044      655F696E 
 3044      73657274 
 3044      00
 3045              	.LASF88:
 3046 00fa 77747472 		.ascii	"wttrp\000"
 3046      7000
 3047              	.LASF85:
 3048 0100 7264796D 		.ascii	"rdymsg\000"
 3048      736700
 3049              	.LASF16:
 3050 0107 75696E74 		.ascii	"uint64_t\000"
 3050      36345F74 
 3050      00
 3051              	.LASF5:
 3052 0110 5F5F7569 		.ascii	"__uint8_t\000"
 3052      6E74385F 
 3052      7400
 3053              	.LASF82:
 3054 011a 706F7274 		.ascii	"port_intctx\000"
 3054      5F696E74 
ARM GAS  /var/folders/c6/c789hm653lg9vtl73krp73tm0000gn/T//cciZXqwa.s 			page 83


 3054      63747800 
 3055              	.LASF69:
 3056 0126 73797374 		.ascii	"system_debug_t\000"
 3056      656D5F64 
 3056      65627567 
 3056      5F7400
 3057              	.LASF116:
 3058 0135 5F5F6675 		.ascii	"__func__.6500\000"
 3058      6E635F5F 
 3058      2E363530 
 3058      3000
 3059              	.LASF101:
 3060 0143 706F7274 		.ascii	"port_lock\000"
 3060      5F6C6F63 
 3060      6B00
 3061              	.LASF12:
 3062 014d 6C6F6E67 		.ascii	"long long unsigned int\000"
 3062      206C6F6E 
 3062      6720756E 
 3062      7369676E 
 3062      65642069 
 3063              	.LASF86:
 3064 0164 65786974 		.ascii	"exitcode\000"
 3064      636F6465 
 3064      00
 3065              	.LASF76:
 3066 016d 6D61696E 		.ascii	"mainthread\000"
 3066      74687265 
 3066      616400
 3067              	.LASF66:
 3068 0178 76697274 		.ascii	"virtual_timers_list_t\000"
 3068      75616C5F 
 3068      74696D65 
 3068      72735F6C 
 3068      6973745F 
 3069              	.LASF117:
 3070 018e 49544D5F 		.ascii	"ITM_RxBuffer\000"
 3070      52784275 
 3070      66666572 
 3070      00
 3071              	.LASF49:
 3072 019b 63685F74 		.ascii	"ch_threads_queue\000"
 3072      68726561 
 3072      64735F71 
 3072      75657565 
 3072      00
 3073              	.LASF29:
 3074 01ac 705F7072 		.ascii	"p_prio\000"
 3074      696F00
 3075              	.LASF10:
 3076 01b3 6C6F6E67 		.ascii	"long long int\000"
 3076      206C6F6E 
 3076      6720696E 
 3076      7400
 3077              	.LASF1:
 3078 01c1 7369676E 		.ascii	"signed char\000"
 3078      65642063 
ARM GAS  /var/folders/c6/c789hm653lg9vtl73krp73tm0000gn/T//cciZXqwa.s 			page 84


 3078      68617200 
 3079              	.LASF43:
 3080 01cd 705F6D70 		.ascii	"p_mpool\000"
 3080      6F6F6C00 
 3081              	.LASF96:
 3082 01d5 6D5F7175 		.ascii	"m_queue\000"
 3082      65756500 
 3083              	.LASF75:
 3084 01dd 76746C69 		.ascii	"vtlist\000"
 3084      737400
 3085              	.LASF102:
 3086 01e4 706F7274 		.ascii	"port_unlock\000"
 3086      5F756E6C 
 3086      6F636B00 
 3087              	.LASF73:
 3088 01f0 63685F73 		.ascii	"ch_system\000"
 3088      79737465 
 3088      6D00
 3089              	.LASF7:
 3090 01fa 6C6F6E67 		.ascii	"long int\000"
 3090      20696E74 
 3090      00
 3091              	.LASF113:
 3092 0203 63684D73 		.ascii	"chMsgSend\000"
 3092      6753656E 
 3092      6400
 3093              	.LASF19:
 3094 020d 74737461 		.ascii	"tstate_t\000"
 3094      74655F74 
 3094      00
 3095              	.LASF109:
 3096 0216 63684D73 		.ascii	"chMsgIsPendingI\000"
 3096      67497350 
 3096      656E6469 
 3096      6E674900 
 3097              	.LASF31:
 3098 0226 705F6E65 		.ascii	"p_newer\000"
 3098      77657200 
 3099              	.LASF93:
 3100 022e 735F7175 		.ascii	"s_queue\000"
 3100      65756500 
 3101              	.LASF55:
 3102 0236 725F6E65 		.ascii	"r_newer\000"
 3102      77657200 
 3103              	.LASF79:
 3104 023e 72656761 		.ascii	"regarm_t\000"
 3104      726D5F74 
 3104      00
 3105              	.LASF62:
 3106 0247 76745F70 		.ascii	"vt_prev\000"
 3106      72657600 
 3107              	.LASF100:
 3108 024f 6D757465 		.ascii	"mutex_t\000"
 3108      785F7400 
 3109              	.LASF106:
 3110 0257 76616C75 		.ascii	"value\000"
 3110      6500
ARM GAS  /var/folders/c6/c789hm653lg9vtl73krp73tm0000gn/T//cciZXqwa.s 			page 85


 3111              	.LASF77:
 3112 025d 69646C65 		.ascii	"idle_thread_wa\000"
 3112      5F746872 
 3112      6561645F 
 3112      776100
 3113              	.LASF24:
 3114 026c 636E745F 		.ascii	"cnt_t\000"
 3114      7400
 3115              	.LASF0:
 3116 0272 756E7369 		.ascii	"unsigned int\000"
 3116      676E6564 
 3116      20696E74 
 3116      00
 3117              	.LASF61:
 3118 027f 76745F6E 		.ascii	"vt_next\000"
 3118      65787400 
 3119              	.LASF111:
 3120 0287 5F5F6675 		.ascii	"__func__.5798\000"
 3120      6E635F5F 
 3120      2E353739 
 3120      3800
 3121              	.LASF89:
 3122 0295 77747365 		.ascii	"wtsemp\000"
 3122      6D7000
 3123              	.LASF115:
 3124 029c 5F5F6675 		.ascii	"__func__.6491\000"
 3124      6E635F5F 
 3124      2E363439 
 3124      3100
 3125              	.LASF63:
 3126 02aa 76745F64 		.ascii	"vt_delta\000"
 3126      656C7461 
 3126      00
 3127              	.LASF38:
 3128 02b3 705F6D73 		.ascii	"p_msgqueue\000"
 3128      67717565 
 3128      756500
 3129              	.LASF94:
 3130 02be 735F636E 		.ascii	"s_cnt\000"
 3130      7400
 3131              	.LASF4:
 3132 02c4 73686F72 		.ascii	"short unsigned int\000"
 3132      7420756E 
 3132      7369676E 
 3132      65642069 
 3132      6E7400
 3133              	.LASF46:
 3134 02d7 63685F74 		.ascii	"ch_thread\000"
 3134      68726561 
 3134      6400
 3135              	.LASF124:
 3136 02e1 63685363 		.ascii	"chSchWakeupS\000"
 3136      6857616B 
 3136      65757053 
 3136      00
 3137              	.LASF22:
 3138 02ee 6D73675F 		.ascii	"msg_t\000"
ARM GAS  /var/folders/c6/c789hm653lg9vtl73krp73tm0000gn/T//cciZXqwa.s 			page 86


 3138      7400
 3139              	.LASF72:
 3140 02f4 63685F73 		.ascii	"ch_system_t\000"
 3140      79737465 
 3140      6D5F7400 
 3141              	.LASF18:
 3142 0300 746D6F64 		.ascii	"tmode_t\000"
 3142      655F7400 
 3143              	.LASF51:
 3144 0308 63685F72 		.ascii	"ch_ready_list\000"
 3144      65616479 
 3144      5F6C6973 
 3144      7400
 3145              	.LASF23:
 3146 0316 6576656E 		.ascii	"eventmask_t\000"
 3146      746D6173 
 3146      6B5F7400 
 3147              	.LASF6:
 3148 0322 5F5F696E 		.ascii	"__int32_t\000"
 3148      7433325F 
 3148      7400
 3149              	.LASF80:
 3150 032c 73746B61 		.ascii	"stkalign_t\000"
 3150      6C69676E 
 3150      5F7400
 3151              	.LASF37:
 3152 0337 705F7761 		.ascii	"p_waiting\000"
 3152      6974696E 
 3152      6700
 3153              	.LASF78:
 3154 0341 73697A65 		.ascii	"sizetype\000"
 3154      74797065 
 3154      00
 3155              	.LASF44:
 3156 034a 74687265 		.ascii	"thread_reference_t\000"
 3156      61645F72 
 3156      65666572 
 3156      656E6365 
 3156      5F7400
 3157              	.LASF67:
 3158 035d 63685F76 		.ascii	"ch_virtual_timers_list\000"
 3158      69727475 
 3158      616C5F74 
 3158      696D6572 
 3158      735F6C69 
 3159              	.LASF68:
 3160 0374 76745F6C 		.ascii	"vt_lasttime\000"
 3160      61737474 
 3160      696D6500 
 3161              	.LASF32:
 3162 0380 705F6F6C 		.ascii	"p_older\000"
 3162      64657200 
 3163              	.LASF54:
 3164 0388 725F6374 		.ascii	"r_ctx\000"
 3164      7800
 3165              	.LASF84:
 3166 038e 746D5F63 		.ascii	"tm_calibration_t\000"
ARM GAS  /var/folders/c6/c789hm653lg9vtl73krp73tm0000gn/T//cciZXqwa.s 			page 87


 3166      616C6962 
 3166      72617469 
 3166      6F6E5F74 
 3166      00
 3167              	.LASF98:
 3168 039f 6D5F6E65 		.ascii	"m_next\000"
 3168      787400
 3169              	.LASF57:
 3170 03a6 725F6375 		.ascii	"r_current\000"
 3170      7272656E 
 3170      7400
 3171              	.LASF56:
 3172 03b0 725F6F6C 		.ascii	"r_older\000"
 3172      64657200 
 3173              	.LASF11:
 3174 03b8 5F5F7569 		.ascii	"__uint64_t\000"
 3174      6E743634 
 3174      5F7400
 3175              	.LASF20:
 3176 03c3 74726566 		.ascii	"trefs_t\000"
 3176      735F7400 
 3177              	.LASF59:
 3178 03cb 76697274 		.ascii	"virtual_timer_t\000"
 3178      75616C5F 
 3178      74696D65 
 3178      725F7400 
 3179              	.LASF28:
 3180 03db 705F7072 		.ascii	"p_prev\000"
 3180      657600
 3181              	.LASF21:
 3182 03e2 74707269 		.ascii	"tprio_t\000"
 3182      6F5F7400 
 3183              	.LASF70:
 3184 03ea 63685F73 		.ascii	"ch_system_debug\000"
 3184      79737465 
 3184      6D5F6465 
 3184      62756700 
 3185              	.LASF108:
 3186 03fa 5F426F6F 		.ascii	"_Bool\000"
 3186      6C00
 3187              	.LASF14:
 3188 0400 696E7433 		.ascii	"int32_t\000"
 3188      325F7400 
 3189              	.LASF2:
 3190 0408 756E7369 		.ascii	"unsigned char\000"
 3190      676E6564 
 3190      20636861 
 3190      7200
 3191              	.LASF41:
 3192 0416 705F6D74 		.ascii	"p_mtxlist\000"
 3192      786C6973 
 3192      7400
 3193              	.LASF3:
 3194 0420 73686F72 		.ascii	"short int\000"
 3194      7420696E 
 3194      7400
 3195              	.LASF34:
ARM GAS  /var/folders/c6/c789hm653lg9vtl73krp73tm0000gn/T//cciZXqwa.s 			page 88


 3196 042a 705F7374 		.ascii	"p_state\000"
 3196      61746500 
 3197              	.LASF53:
 3198 0432 725F7072 		.ascii	"r_prio\000"
 3198      696F00
 3199              	.LASF91:
 3200 0439 65776D61 		.ascii	"ewmask\000"
 3200      736B00
 3201              	.LASF27:
 3202 0440 705F6E65 		.ascii	"p_next\000"
 3202      787400
 3203              	.LASF35:
 3204 0447 705F666C 		.ascii	"p_flags\000"
 3204      61677300 
 3205              	.LASF103:
 3206 044f 63685379 		.ascii	"chSysLock\000"
 3206      734C6F63 
 3206      6B00
 3207              	.LASF60:
 3208 0459 63685F76 		.ascii	"ch_virtual_timer\000"
 3208      69727475 
 3208      616C5F74 
 3208      696D6572 
 3208      00
 3209              	.LASF121:
 3210 046a 63684D73 		.ascii	"chMsgRelease\000"
 3210      6752656C 
 3210      65617365 
 3210      00
 3211              	.LASF92:
 3212 0477 63685F73 		.ascii	"ch_semaphore\000"
 3212      656D6170 
 3212      686F7265 
 3212      00
 3213              	.LASF122:
 3214 0484 63685363 		.ascii	"chSchGoSleepS\000"
 3214      68476F53 
 3214      6C656570 
 3214      5300
 3215              	.LASF40:
 3216 0492 705F6570 		.ascii	"p_epending\000"
 3216      656E6469 
 3216      6E6700
 3217              	.LASF15:
 3218 049d 75696E74 		.ascii	"uint32_t\000"
 3218      33325F74 
 3218      00
 3219              	.LASF90:
 3220 04a6 77746D74 		.ascii	"wtmtxp\000"
 3220      787000
 3221              	.LASF52:
 3222 04ad 725F7175 		.ascii	"r_queue\000"
 3222      65756500 
 3223              	.LASF123:
 3224 04b5 63685363 		.ascii	"chSchReadyI\000"
 3224      68526561 
 3224      64794900 
ARM GAS  /var/folders/c6/c789hm653lg9vtl73krp73tm0000gn/T//cciZXqwa.s 			page 89


 3225              	.LASF47:
 3226 04c1 63685F74 		.ascii	"ch_threads_list\000"
 3226      68726561 
 3226      64735F6C 
 3226      69737400 
 3227              	.LASF9:
 3228 04d1 6C6F6E67 		.ascii	"long unsigned int\000"
 3228      20756E73 
 3228      69676E65 
 3228      6420696E 
 3228      7400
 3229              	.LASF120:
 3230 04e3 2F557365 		.ascii	"/Users/savonetj/Downloads/ChibiOS_3.0.2/demos/STM32"
 3230      72732F73 
 3230      61766F6E 
 3230      65746A2F 
 3230      446F776E 
 3231 0516 2F52542D 		.ascii	"/RT-STM32F407-DISCOVERY\000"
 3231      53544D33 
 3231      32463430 
 3231      372D4449 
 3231      53434F56 
 3232              	.LASF99:
 3233 052e 63686172 		.ascii	"char\000"
 3233      00
 3234              	.LASF26:
 3235 0533 74687265 		.ascii	"thread_t\000"
 3235      61645F74 
 3235      00
 3236              	.LASF110:
 3237 053c 71756575 		.ascii	"queue_fifo_remove\000"
 3237      655F6669 
 3237      666F5F72 
 3237      656D6F76 
 3237      6500
 3238              	.LASF25:
 3239 054e 73797374 		.ascii	"systime_t\000"
 3239      696D655F 
 3239      7400
 3240              	.LASF42:
 3241 0558 705F7265 		.ascii	"p_realprio\000"
 3241      616C7072 
 3241      696F00
 3242              	.LASF58:
 3243 0563 76746675 		.ascii	"vtfunc_t\000"
 3243      6E635F74 
 3243      00
 3244              	.LASF8:
 3245 056c 5F5F7569 		.ascii	"__uint32_t\000"
 3245      6E743332 
 3245      5F7400
 3246              	.LASF104:
 3247 0577 5F5F7365 		.ascii	"__set_BASEPRI\000"
 3247      745F4241 
 3247      53455052 
 3247      4900
 3248              	.LASF71:
ARM GAS  /var/folders/c6/c789hm653lg9vtl73krp73tm0000gn/T//cciZXqwa.s 			page 90


 3249 0585 70616E69 		.ascii	"panic_msg\000"
 3249      635F6D73 
 3249      6700
 3250              	.LASF83:
 3251 058f 6F666673 		.ascii	"offset\000"
 3251      657400
 3252              	.LASF81:
 3253 0596 636F6E74 		.ascii	"context\000"
 3253      65787400 
 3254              	.LASF17:
 3255 059e 7274636E 		.ascii	"rtcnt_t\000"
 3255      745F7400 
 3256              	.LASF65:
 3257 05a6 76745F70 		.ascii	"vt_par\000"
 3257      617200
 3258              	.LASF114:
 3259 05ad 63684D73 		.ascii	"chMsgWait\000"
 3259      67576169 
 3259      7400
 3260              	.LASF48:
 3261 05b7 74687265 		.ascii	"threads_queue_t\000"
 3261      6164735F 
 3261      71756575 
 3261      655F7400 
 3262              	.LASF95:
 3263 05c7 63685F6D 		.ascii	"ch_mutex\000"
 3263      75746578 
 3263      00
 3264              	.LASF36:
 3265 05d0 705F7265 		.ascii	"p_refs\000"
 3265      667300
 3266              	.LASF74:
 3267 05d7 726C6973 		.ascii	"rlist\000"
 3267      7400
 3268              	.LASF13:
 3269 05dd 75696E74 		.ascii	"uint8_t\000"
 3269      385F7400 
 3270              	.LASF87:
 3271 05e5 77746F62 		.ascii	"wtobjp\000"
 3271      6A7000
 3272              	.LASF33:
 3273 05ec 705F6E61 		.ascii	"p_name\000"
 3273      6D6500
 3274              	.LASF45:
 3275 05f3 74687265 		.ascii	"threads_list_t\000"
 3275      6164735F 
 3275      6C697374 
 3275      5F7400
 3276              	.LASF107:
 3277 0602 63685379 		.ascii	"chSysUnlock\000"
 3277      73556E6C 
 3277      6F636B00 
 3278              	.LASF39:
 3279 060e 705F6D73 		.ascii	"p_msg\000"
 3279      6700
 3280              	.LASF119:
 3281 0614 2E2E2F2E 		.ascii	"../../../os/rt/src/chmsg.c\000"
ARM GAS  /var/folders/c6/c789hm653lg9vtl73krp73tm0000gn/T//cciZXqwa.s 			page 91


 3281      2E2F2E2E 
 3281      2F6F732F 
 3281      72742F73 
 3281      72632F63 
 3282              	.LASF112:
 3283 062f 63684D73 		.ascii	"chMsgReleaseS\000"
 3283      6752656C 
 3283      65617365 
 3283      5300
 3284              	.LASF97:
 3285 063d 6D5F6F77 		.ascii	"m_owner\000"
 3285      6E657200 
 3286              	.LASF30:
 3287 0645 705F6374 		.ascii	"p_ctx\000"
 3287      7800
 3288              	.LASF64:
 3289 064b 76745F66 		.ascii	"vt_func\000"
 3289      756E6300 
 3290              		.comm	__gnu_lto_v1,1,1
 3291              		.ident	"GCC: (GNU Tools for ARM Embedded Processors) 4.8.4 20140725 (release) [ARM/embedded-4_8-br
ARM GAS  /var/folders/c6/c789hm653lg9vtl73krp73tm0000gn/T//cciZXqwa.s 			page 92


DEFINED SYMBOLS
                            *ABS*:0000000000000000 chmsg.c
/var/folders/c6/c789hm653lg9vtl73krp73tm0000gn/T//cciZXqwa.s:467    .text.chMsgSend:0000000000000000 $t
/var/folders/c6/c789hm653lg9vtl73krp73tm0000gn/T//cciZXqwa.s:473    .text.chMsgSend:0000000000000000 chMsgSend
/var/folders/c6/c789hm653lg9vtl73krp73tm0000gn/T//cciZXqwa.s:584    .text.chMsgSend:000000000000003c $d
/var/folders/c6/c789hm653lg9vtl73krp73tm0000gn/T//cciZXqwa.s:589    .text.chMsgWait:0000000000000000 $t
/var/folders/c6/c789hm653lg9vtl73krp73tm0000gn/T//cciZXqwa.s:595    .text.chMsgWait:0000000000000000 chMsgWait
/var/folders/c6/c789hm653lg9vtl73krp73tm0000gn/T//cciZXqwa.s:698    .text.chMsgWait:0000000000000038 $d
/var/folders/c6/c789hm653lg9vtl73krp73tm0000gn/T//cciZXqwa.s:703    .text.chMsgRelease:0000000000000000 $t
/var/folders/c6/c789hm653lg9vtl73krp73tm0000gn/T//cciZXqwa.s:709    .text.chMsgRelease:0000000000000000 chMsgRelease
                            *COM*:0000000000000001 __gnu_lto_v1
                     .debug_frame:0000000000000010 $d
/var/folders/c6/c789hm653lg9vtl73krp73tm0000gn/T//cciZXqwa.s:702    .text.chMsgWait:000000000000003c $t

UNDEFINED SYMBOLS
chSchGoSleepS
chSchReadyI
ch
chSchWakeupS
