ARM GAS  /var/folders/c6/c789hm653lg9vtl73krp73tm0000gn/T//ccVgLuPk.s 			page 1


   1              		.syntax unified
   2              		.cpu cortex-m4
   3              		.fpu softvfp
   4              		.eabi_attribute 20, 1
   5              		.eabi_attribute 21, 1
   6              		.eabi_attribute 23, 3
   7              		.eabi_attribute 24, 1
   8              		.eabi_attribute 25, 1
   9              		.eabi_attribute 26, 1
  10              		.eabi_attribute 30, 2
  11              		.eabi_attribute 34, 1
  12              		.eabi_attribute 18, 4
  13              		.thumb
  14              		.file	"chvt.c"
  15              		.text
  16              	.Ltext0:
  17              		.section	.gnu.lto_.jmpfuncs.eacdcbde129e3cd6,"",%progbits
  18 0000 789C6362 		.ascii	"x\234cb`b\300\006d\2404\013\003#\020\002\0251\363\003"
  18      6062C006 
  18      64A0340B 
  18      03231002 
  18      1531F303 
  19 0014 29206261 		.ascii	") badd\006\212\227\001\231\000\011|\000\275"
  19      6464068A 
  19      97019900 
  19      097C00BD 
  20              		.text
  21              		.section	.gnu.lto_.inline.eacdcbde129e3cd6,"",%progbits
  22 0000 789C6362 		.ascii	"x\234cb`b\300\006\224\031\031\030\244\2014\013\003\203"
  22      6062C006 
  22      94191918 
  22      A481340B 
  22      0383
  23 0012 9414230B 		.ascii	"\224\024#\013Cz5\303\257\206\216\206\007\315\357-3\031"
  23      437A35C3 
  23      AF868E86 
  23      07CDEF2D 
  23      3319
  24 0024 19B41956 		.ascii	"\031\264\031V5\000\201i&#c.#C\022#\\\0333\003CF\"\343"
  24      35008169 
  24      2623632E 
  24      23431223 
  24      5C1B3303 
  25 003c 42C66A10 		.ascii	"B\306j\020\213\221\001F:\260\263v\2503\260w\250310\276"
  25      8B910146 
  25      3AB0B376 
  25      A833B077 
  25      A8333130 
  26 0051 60176062 		.ascii	"`\027`b\000r\005\030\244\276-a\344``\334\315\256\300"
  26      00720518 
  26      A4BE2D61 
  26      E46060DC 
  26      CDAEC0
  27 0064 C104A140 		.ascii	"\301\004\241@F0r\201,e\342f\000JM\360cb`gcd`\3428`\307"
  27      46307281 
  27      2C65E266 
  27      004A4DF0 
ARM GAS  /var/folders/c6/c789hm653lg9vtl73krp73tm0000gn/T//ccVgLuPk.s 			page 2


  27      63626067 
  28 007f C0B6409E 		.ascii	"\300\266@\236\011b\207\356%\006Ff\306\224\010\306LF"
  28      096287EE 
  28      25064666 
  28      C69408C6 
  28      4C46
  29 0091 26A0F18C 		.ascii	"&\240\361\214\251p\026\310%\314\016\177\357p0\360-u"
  29      A97016C8 
  29      25CC0E7F 
  29      EF7030F0 
  29      2D75
  30 00a3 63626059 		.ascii	"cb`Y /\000\322\0024\015l\030\204ba\020\021`d\006;L\001"
  30      202F00D2 
  30      02340D6C 
  30      18846261 
  30      10116064 
  31 00bb D9911C62 		.ascii	"\331\221\034b\023&32p\034\321\001\272\346\022\033\013"
  31      13263332 
  31      701CD101 
  31      BAE6121B 
  31      0B
  32 00cc 8404111C 		.ascii	"\204\004\021\034`&\320=\227X\005\230\300$\222\241\014"
  32      6026D03D 
  32      97580598 
  32      C02492A1 
  32      0C
  33 00dd 527A7AFA 		.ascii	"Rzz\372\020\224_\254_T\242_\\\224\254\237\234QV\242"
  33      10945FAC 
  33      5F54A25F 
  33      5C94AC9F 
  33      9C5156A2 
  34 00f1 97CC0000 		.ascii	"\227\314\000\000\356\3230\336"
  34      EED330DE 
  35              		.text
  36              		.section	.gnu.lto_.pureconst.eacdcbde129e3cd6,"",%progbits
  37 0000 789C6362 		.ascii	"x\234cb`b\340d\200\000\026\006)&\011f)\026)\000\002"
  37      6062E064 
  37      80001606 
  37      29260966 
  37      29162900 
  38 0015 D80081   		.ascii	"\330\000\201"
  39              		.text
  40              		.section	.gnu.lto_chVTDoResetI.part.0.eacdcbde129e3cd6,"",%progbits
  41 0000 789C9555 		.ascii	"x\234\225UMhTW\024>\347\375\277\2311c\021\027)(\242"
  41      4D685457 
  41      143EE7FD 
  41      BF993163 
  41      11172928 
  42 0015 3B43F350 		.ascii	";C\363Pq\341F\021\335\010f\323N\240n\224\351\2330y0"
  42      71E14611 
  42      DD0866D3 
  42      4EA06E94 
  42      E99B3079 
  43 002a 6364328D 		.ascii	"cd2\215B\027\276d\006\361\017\014\"\024\264m\332\324"
  43      4217BE64 
  43      06F10F0C 
  43      2214B46D 
ARM GAS  /var/folders/c6/c789hm653lg9vtl73krp73tm0000gn/T//ccVgLuPk.s 			page 3


  43      DAD4
  44 003c 3F6CA1BA 		.ascii	"?l\241\272i\375\243M\212\350\304\240\022Z\224\204T\""
  44      69FDA34D 
  44      8AE8C4A0 
  44      125A9484 
  44      5422
  45 004e 822E0A21 		.ascii	"\202.\012!\326\205\0320\257\347\334\3673/\243A\275\314"
  45      D6851A30 
  45      AFE7DCF7 
  45      332FA341 
  45      BDCC
  46 0060 BBE7DC7B 		.ascii	"\273\347\334{\317\371\316w\317=\367\216\004\0224\266"
  46      CFF9CE77 
  46      CF3DF78E 
  46      041234B6 
  47 0070 227D4735 		.ascii	"\"}G5\200\237Hb\002\320\354\277K\212\211\222\220\222"
  47      809F4862 
  47      02D0ECBF 
  47      4B8A8992 
  47      9092
  48 0082 245F91C1 		.ascii	"$_\221\301M(\017n\003\270)\031\015\236\3565\024\311"
  48      4D280F6E 
  48      03B82919 
  48      0D9EEE35 
  48      14C9
  49 0094 B8BE9CE6 		.ascii	"\270\276\234\346\325\277-\232V%\355\350R\032\351\325"
  49      D5BF2D9A 
  49      5625EDE8 
  49      521AE9D5 
  50 00a4 0D34D250 		.ascii	"\0154\322P\367\215\364\320\332@d\005\020\366\233\222"
  50      F78DF4D0 
  50      DA406405 
  50      10F69B92 
  51 00b4 ACA89A6E 		.ascii	"\254\250\232n\340\376\035\310\341\225\"\302J\370\301"
  51      E0FE1DC8 
  51      E19522C2 
  51      4AF8C1
  52 00c3 754F4E9D 		.ascii	"uON\235\271z\251\371\360\367}\375\356\234\347\241\303"
  52      B97AA9F9 
  52      F0F77DFD 
  52      EE9CE7A1 
  52      C3
  53 00d4 AB36C2E7 		.ascii	"\2536\302\347\244\341\012!$e>s\341v|\350\324\335\257"
  53      A4E10A21 
  53      24653E73 
  53      E1767CE8 
  53      D4DDAF
  54 00e7 9BDD989B 		.ascii	"\233\335\230\233\004\313\360\275<\335k\271\232[\035"
  54      04CBF0BD 
  54      3CDD6BB9 
  54      9A5B1D
  55 00f6 F2BC4DC2 		.ascii	"\362\274M\302k\325\273\274~\221\334)\317{\345\231K\021"
  55      6BD5BBBC 
  55      7E91DC29 
  55      CF7BE599 
  55      4B11
  56 0108 8B881238 		.ascii	"\213\210\0228(\313\324)\012w*w\032u\240\263f@\026O\343"
ARM GAS  /var/folders/c6/c789hm653lg9vtl73krp73tm0000gn/T//ccVgLuPk.s 			page 4


  56      28CBD429 
  56      0A772A77 
  56      1A75A0B3 
  56      6640164F 
  57 011d 4A30490E 		.ascii	"J0I\016\222L\360d2\030\244x@\210*T]\267\177\205o\351"
  57      924CF064 
  57      3218A478 
  57      40882A54 
  57      5DB77F85 
  58 0133 2F894D53 		.ascii	"/\211MS\313P\3179\313\240\311Rn\247x,\357@\337\304\313"
  58      CB50CF39 
  58      CBA0C952 
  58      6EA7782C 
  58      EF40DFC4 
  59 0148 7FC7E42C 		.ascii	"\177\307\344,\236E\025\362(\265\300j\342q\012N\366\272"
  59      9E4515F2 
  59      28B5C06A 
  59      E2710A4E 
  59      F6BA
  60 015a EE6207D5 		.ascii	"\356b\007\325<\"\223\227\005\345/0$O~#\027\223\276W"
  60      3C229397 
  60      05E52F30 
  60      244F7E23 
  60      1793BE57 
  61 016e 0B5C70A9 		.ascii	"\013\\p\251m \253@M:\250E\020\372W0\353\036d\315(\""
  61      6D20AB40 
  61      4D3AA845 
  61      10FA5730 
  61      EB1E64CD 
  62 0184 170CE319 		.ascii	"\027\014\343\031\001\036\006\322/\244<K\202\236\255"
  62      011E06D2 
  62      2FA43C4B 
  62      829EAD
  63 0193 3CFE76E3 		.ascii	"<\376v\343<\360\035\015\244\2448)_\372a\334\007\264"
  63      3CF01D0D 
  63      A4A43829 
  63      5FFA61DC 
  63      07B4
  64 01a5 60065EFF 		.ascii	"`\006^\377\220\256Q\3200NH\375\362\345\351ai\036\376"
  64      90AE51D0 
  64      304E48FD 
  64      F2E5E961 
  64      691EFE
  65 01b8 2207130B 		.ascii	"\"\007\023\013n\332?8\236I\260R\203\033O\207_6E)\013"
  65      6EDA3F38 
  65      9E49B052 
  65      831B4F87 
  65      5F364529 
  66 01cd 02A7EB71 		.ascii	"\002\247\353q\327\277%l\330\332\011\366\212,\337\203"
  66      D7BF256C 
  66      D8DA09F6 
  66      8A2CDF83 
  67 01dd CACCE4FD 		.ascii	"\312\314\344\375\003\351\340\314\302\303\033\032}\370"
  67      03E9E0CC 
  67      C2C31B1A 
  67      7DF8
  68 01eb A30EE063 		.ascii	"\243\016\340c\333\241\177\224\301\244\215\304\373WZ"
ARM GAS  /var/folders/c6/c789hm653lg9vtl73krp73tm0000gn/T//ccVgLuPk.s 			page 5


  68      DBA17F94 
  68      C1A48DC4 
  68      FB575A
  69 01fa A3E6602A 		.ascii	"\243\346`*\204T\200.\224\177\230\377\275\212\01638\016"
  69      8454802E 
  69      947F98FF 
  69      BD8A0E33 
  69      380E
  70 020c F2830573 		.ascii	"\362\203\005s\247\326\2632qqI\350\251\2102\200\0053"
  70      A7D6B332 
  70      717149E8 
  70      A9883280 
  70      0533
  71 021e 52F7AA1C 		.ascii	"R\367\252\034\254\314a\350Ffr\236\323Eh\333\342\371"
  71      ACCC61E8 
  71      4666729E 
  71      D34568DB 
  71      E2F9
  72 0230 7D0F0A79 		.ascii	"}\017\012y\226w\340\317\211o\246k\347\265\306\264<\233"
  72      9677E0CF 
  72      896FA66B 
  72      E7B5C6B4 
  72      3C9B
  73 0242 5816E98F 		.ascii	"X\026\351\217N\214\353\321\340\310t\305\254\347K\246"
  73      4E8CEBD1 
  73      E0C874C5 
  73      ACE74BA6 
  74 0252 4FA14FF5 		.ascii	"O\241O\365\0215\216^\355\235zv\363\306 R\304E\314\241"
  74      11358E5E 
  74      ED9D7A76 
  74      F3C62052 
  74      C445CCA1 
  75 0266 9F393431 		.ascii	"\237941\2014\237\225\"\0166\035p\321\030\353\017\337"
  75      81349F95 
  75      220E361D 
  75      70D118EB 
  75      0FDF
  76 0278 9F533239 		.ascii	"\237S29\363\335\316pw\272\237\224\340\214\007\360\203"
  76      F3DDCE70 
  76      77BA9F94 
  76      E08C07F0 
  76      83
  77 0289 8B5CAF67 		.ascii	"\213\\\257g\355P\245\024\302\032\3043\317k#\020\324"
  77      ED50A514 
  77      C21AC433 
  77      CF6B2310 
  77      D4
  78 029a A47F81F3 		.ascii	"\244\177\201\363\354_\203\352\223\341\261cr,\303F\274"
  78      EC5F83EA 
  78      93E1B163 
  78      722CC346 
  78      BC
  79 02ab 9654B8F5 		.ascii	"\226T\270\365\211,\360~\033h\016\215\314\320.\2068("
  79      892CF07E 
  79      1B680E8D 
  79      CCD02E86 
  79      3828
ARM GAS  /var/folders/c6/c789hm653lg9vtl73krp73tm0000gn/T//ccVgLuPk.s 			page 6


  80 02bd 10CD00F1 		.ascii	"\020\315\000\361y\035\321d\246\020/\324v\312\302\331"
  80      791DD164 
  80      A6102FD4 
  80      76CAC2D9 
  81 02cd 943C027D 		.ascii	"\224<\002}S\263O\2658\000\233*Rd\246sp23 \012\220\014"
  81      53B34FB5 
  81      38009B2A 
  81      5264A673 
  81      70323320 
  82 02e4 6AE2C540 		.ascii	"j\342\305@\224\266\004mN\260\021\013\277G\305\222\022"
  82      94B6046D 
  82      4EB0110B 
  82      BF47C592 
  82      12
  83 02f5 4BC918CB 		.ascii	"K\311\030\313\340\005\376\353\310(\322s\332;\343yi\361"
  83      E005FEEB 
  83      C828D273 
  83      DA3BE379 
  83      69F1
  84 0307 949EC377 		.ascii	"\224\236\303w\275\245y\276\012\367\240:39w\263\351\215"
  84      BDA579BE 
  84      0AF7A03A 
  84      333977B3 
  84      E98D
  85 0319 2B35F75C 		.ascii	"+5\367\\\315bM\274\206a\241h\015\027k\261\215z\026G"
  85      CD624DBC 
  85      8661A168 
  85      0D176BB1 
  85      8D7A1647 
  86 032d C3C24939 		.ascii	"\303\302I9\370\021k\343\220\244\014\251\223\257s\301"
  86      F8116BE3 
  86      90A40CA9 
  86      93AF73C1 
  87 033d D6B59FBD 		.ascii	"\326\265\237\275\002o\335\020\257\347\030\375\031\325"
  87      026FDD10 
  87      AFE718FD 
  87      19D5
  88 034b 49648826 		.ascii	"Id\210&\315r~>nm\265\374_W\267U*[\335%\333\262;{\312"
  88      CD727E3E 
  88      6E6DB5FC 
  88      5F57B755 
  88      2A5BDD25 
  89 0364 AD36A8B9 		.ascii	"\2556\250\271\216B9k\354\356\332+\224\226\006\313=]"
  89      8E42396B 
  89      ECEEDA2B 
  89      949606CB 
  89      3D5D
  90 0376 A572B7B5 		.ascii	"\245r\267\265\371\323\266-m\373\310\305\356*u\354*;"
  90      F9D3B62D 
  90      6DFBC8C5 
  90      EE2A75EC 
  90      2A3B
  91 0388 C58E526B 		.ascii	"\305\216Rk'Xq\333\316l!0\376,\323\266n\255\265}\373"
  91      275871DB 
  91      CE6C2130 
  91      FE2CD3B6 
  91      6EADB57D 
ARM GAS  /var/folders/c6/c789hm653lg9vtl73krp73tm0000gn/T//ccVgLuPk.s 			page 7


  92 039d 562BB3AD 		.ascii	"V+\263\255\255g\215\325]\336U(\344\310~y\003\266\263"
  92      AD678DD5 
  92      5DDE5528 
  92      E4C87E79 
  92      03B6B3
  93 03b0 DB2E7C99 		.ascii	"\333.|\231\353\360\231t\202\302\270\377\003q\251\301"
  93      EBF09974 
  93      82C2B8FF 
  93      0371A9C1 
  94 03c0 92       		.ascii	"\222"
  95              		.text
  96              		.section	.gnu.lto__vt_init.eacdcbde129e3cd6,"",%progbits
  97 0000 789C6362 		.ascii	"x\234cb`b@\007\222@,\015\024\226\001\322\214\314\014"
  97      60624007 
  97      92402C0D 
  97      149601D2 
  97      8CCC0C
  98 0013 8C4C13CE 		.ascii	"\214L\023\316104r012\202\030\014\214\014\365L\214\365"
  98      31303472 
  98      30313282 
  98      180C8C0C 
  98      F54C8CF5 
  99 0027 918C60B5 		.ascii	"\221\214`\265\353\231\016<\370\377\177\335\257\255\017"
  99      EB990E3C 
  99      F8FF7FDD 
  99      AFAD0F
 100 0036 FB1905D9 		.ascii	"\373\031\005\331\200\002\254\014-\015\015\023\024\030"
 100      8002AC0C 
 100      2D0D0D13 
 100      1418
 101 0044 1892C10A 		.ascii	"\030\222\301\012B\200$HW(#\023\210f>\313\320\364\253"
 101      42802448 
 101      57282313 
 101      88663ECB 
 101      D0F4AB
 102 0057 F9FF6BA6 		.ascii	"\371\377k\246D\306\205\214\254\014\332\014\253\032\200"
 102      44C6858C 
 102      AC0CDA0C 
 102      AB1A80
 103 0066 C0329311 		.ascii	"\3002\223\021\306\344\316dd\234\3150\253\261\241A \223"
 103      C6E4CE64 
 103      649CCD30 
 103      ABB1A141 
 103      2093
 104 0078 91A99AE1 		.ascii	"\221\251\232\341WC\007\210\305\234\0136-\202\021\310"
 104      57430788 
 104      C59C0B36 
 104      2D8211C8 
 105 0088 04DB9B04 		.ascii	"\004\333\233\004\261\036HC\030\020\225\015[\201\012"
 105      B11E4843 
 105      1810950D 
 105      5B810A
 106 0097 58A046ED 		.ascii	"X\240F\355\006\262\031\201\372`J\301\000l\377\342\036"
 106      06B21981 
 106      FA604AC1 
 106      006CFFE2 
 106      1E
ARM GAS  /var/folders/c6/c789hm653lg9vtl73krp73tm0000gn/T//ccVgLuPk.s 			page 8


 107 00a8 5DEAD9CF 		.ascii	"]\352\331\317D\252\375;v<\372\200\341\177V\262\355\207"
 107      44AAFD3B 
 107      763CFA80 
 107      E17F56B2 
 107      ED87
 108 00ba F041326C 		.ascii	"\360A2l\377\201\200\037f\311\343\023\314\324\263\204"
 108      FF81801F 
 108      66C9E313 
 108      CCD4B384 
 109 00ca 05610988 		.ascii	"\005a\011\210q\221\241\361A\2772\304x\030\010\001\306"
 109      7191A1F1 
 109      41BF32C4 
 109      78180801 
 109      C6
 110 00db 04308641 		.ascii	"\0040\206A\301!\245\247\247\017A\371\305\372E%\372\305"
 110      C121A5A7 
 110      A70F41F9 
 110      C5FA4525 
 110      FAC5
 111 00ed 45C9FAC9 		.ascii	"E\311\372\311\031e%z\311\014\000W\330\214\266"
 111      1965257A 
 111      C90C0057 
 111      D88CB6
 112              		.text
 113              		.section	.gnu.lto_chVTDoSetI.eacdcbde129e3cd6,"",%progbits
 114 0000 789CAD56 		.ascii	"x\234\255Vmh[U\030~\337s\222\334\2334\335\212:\327\017"
 114      6D685B55 
 114      187EDF73 
 114      92DC9B34 
 114      DD8A3AD7 
 115 0015 FB41FFEC 		.ascii	"\373A\377\354\243\322\260\025\221\"\"\242\177\006\353"
 115      A3D2B015 
 115      912222A2 
 115      7F06EB
 116 0024 0FB545FD 		.ascii	"\017\265E\3755bZ\322@?F\033\2470a7m\324\311\252\026"
 116      35625AD2 
 116      403F461B 
 116      A7306137 
 116      6DD4C9AA 
 117 0039 ED60BAFD 		.ascii	"\355`\272\375\330\250Uq\254\205\226A\207\023\2721Xc"
 117      D8A85571 
 117      AC859641 
 117      8713BA31 
 117      5863
 118 004b 719F8EB5 		.ascii	"q\237\216\265\325\037\305\261:A\244u\242uJ\343{\276"
 118      D51FC5B1 
 118      3A41A475 
 118      A2754AE3 
 118      7BBE
 119 005d D2248DCB 		.ascii	"\322$\215\313:vI\316\271\367\334\367}\316\363~\336\303"
 119      3A7649CE 
 119      B9F7DCF7 
 119      7DCEF37E 
 119      DEC3
 120 006f 8041F6F5 		.ascii	"\200A\366\3651\375\313\375\000_\322\214\205\200\254"
 120      31FDCBFD 
 120      005FD28C 
ARM GAS  /var/folders/c6/c789hm653lg9vtl73krp73tm0000gn/T//ccVgLuPk.s 			page 9


 120      8580AC
 121 007e FF0240CC 		.ascii	"\377\002@\314f\214\367m\000\307\347\212\327\203\343"
 121      668CF76D 
 121      00C7E78A 
 121      D783E3
 122 008d E7E852CB 		.ascii	"\347\350R\313.\346>\305i\331s\375[\240u7\372\325\272"
 122      2EE63EC5 
 122      69D973FD 
 122      5BA07537 
 122      FAD5BA
 123 00a0 8759DF3F 		.ascii	"\207Y\337?J\353\366\351'i\331B[-\333\350S7^us\306\366"
 123      4AEBF6E9 
 123      2769D942 
 123      5B2DDBE8 
 123      53375E75 
 124 00b7 316FDF79 		.ascii	"1o\337yR\365\025\304-\222,0\000~Dq\003\010\373\030w"
 124      52F515C4 
 124      2D922C30 
 124      007E4471 
 124      0308FB18 
 125 00cc B93D96ED 		.ascii	"\271=\226\355\365\025\370q\337\253(H\262j8\3468\037"
 125      F515F871 
 125      DFAB2848 
 125      B26A38E6 
 125      381F
 126 00de CD0DFD3E 		.ascii	"\315\015\375>\307>q&\342G\235\177\223I\304\010\222A"
 126      C73E7126 
 126      E2479D7F 
 126      9349C408 
 126      9241
 127 00f0 E5082184 		.ascii	"\345\010!\204W\350\001\253\344\304\\\231\026*\335\211"
 127      57E801AB 
 127      E4C45C99 
 127      162ADD89 
 128 0100 83E73F28 		.ascii	"\203\347?(q\216\366\364;\313\244\032A\316\2402\237\346"
 128      718EF6F4 
 128      3BCBA41A 
 128      41CEA032 
 128      9FE6
 129 0112 089B984B 		.ascii	"\010\233\230K&\373N\375\361\323E|\250\026\241]\354\027"
 129      26FB4EFD 
 129      F1D3457C 
 129      A816A15D 
 129      EC17
 130 0124 C463580D 		.ascii	"\304cX\015\234\346A\232-lG\264i`>\032x!\015\260\016"
 130      9CE6419A 
 130      2D6C47B4 
 130      69603E1A 
 130      78210DB0 
 131 0139 88D8061A 		.ascii	"\210\330\006\032\\\033\305P,\206\022-_*\036\312\304"
 131      5C1BC550 
 131      2C86122D 
 131      5F2A1ECA 
 131      C4
 132 014a 50AE912A 		.ascii	"P\256\221*\304C\245~]\245\027\253\005\304&\361f\263"
 132      C443A57E 
 132      5DA517AB 
ARM GAS  /var/folders/c6/c789hm653lg9vtl73krp73tm0000gn/T//ccVgLuPk.s 			page 10


 132      05C426F1 
 132      66B3
 133 015c 186A68E0 		.ascii	"\030jh\340D\310\015q\307\351\257R2J\243\035\211tHz\251"
 133      44C80D71 
 133      C7E9AF52 
 133      324AA31D 
 133      8974487A 
 134 0171 91C6610B 		.ascii	"\221\306a\013\232\220\321\304\277\203\236\251\245\333"
 134      9A90D1C4 
 134      BF839EA9 
 134      A5DB
 135 017f 4B18C421 		.ascii	"K\030\304!tC\015|\345\320U\030A\367a\370\224l\365\204"
 135      74430D7C 
 135      E5D05518 
 135      41F761F8 
 135      946CF584 
 136 0193 D112362B 		.ascii	"\321\0226+K_\323s\030m\000\241y\350\317\011\226\255"
 136      4B5FD373 
 136      186D00A1 
 136      79E8CF09 
 136      96AD
 137 01a5 69E5D644 		.ascii	"i\345\326D\255\351\023\232ggO_=\267]\3634\204'N\276"
 137      ADE9139A 
 137      67674F5F 
 137      3DB75DF3 
 137      3484274E 
 138 01ba FF034F3D 		.ascii	"\377\003O=\014\015\314X\251\207\003\277-\246\336T\251"
 138      0C0DCC58 
 138      A98703BF 
 138      2DA6DE54 
 138      A9
 139 01cb 4839A38E 		.ascii	"H9\243\216\343\225\021\3462LG1_\234\000\024U\020\236"
 139      E39511E6 
 139      324C4731 
 139      5F9C0014 
 139      55109E
 140 01de 10C28CFE 		.ascii	"\020\302\214\376\\\261\252\021\374\343\261\271\303C"
 140      5CB1AA11 
 140      FCE3B1B9 
 140      C343
 141 01ec 03A511B4 		.ascii	"\003\245\021\264\311\204X\277S\024A\257\000\362\011"
 141      C98458BF 
 141      531441AF 
 141      00F209
 142 01fb CB5C12D3 		.ascii	"\313\\\022\323\247\255a\002\354\270\002K@\317\302\331"
 142      A7AD6102 
 142      ECB8024B 
 142      40CFC2D9 
 143 020b AFDF0AE2 		.ascii	"\257\337\012\3420=\007q\204\334-\256I\210\317\237\271"
 143      303D0771 
 143      84DC2DAE 
 143      4988CF9F 
 143      B9
 144 021c FCAE5FAD 		.ascii	"\374\256_\255\207\261P\350sL\243\323D\273/#'\375\271"
 144      87B150E8 
 144      734CA3D3 
 144      44BB2F23 
ARM GAS  /var/folders/c6/c789hm653lg9vtl73krp73tm0000gn/T//ccVgLuPk.s 			page 11


 144      27FDB9
 145 022f 5F062D25 		.ascii	"_\006-%\327\256Lp\261\224\214K\204\211d\310\345\364"
 145      D7AE4C70 
 145      B1948C4B 
 145      848964C8 
 145      E5F4
 146 0241 322C1C49 		.ascii	"2,\034I\256\237\035\377g\3222\320\353j`+yZ\307\340\032"
 146      AE9F1DFF 
 146      67D232D0 
 146      EB6A602B 
 146      795AC7E0 
 147 0256 E917080B 		.ascii	"\351\027\010\013\034a\201\177/\334q\366\213\273\302"
 147      1C61817F 
 147      2FDC71F6 
 147      8BBBC2
 148 0265 76C957C0 		.ascii	"v\311W\300\027j3\270\236\215\247&\341\334\317\261m)"
 148      176A33B8 
 148      9E8DA726 
 148      E1DCCFB1 
 148      6D29
 149 0277 58A5EAD4 		.ascii	"X\245\352\324E\304\016\022\273\236\240\011\306h\246"
 149      45C40E12 
 149      BB9EA009 
 149      C668A6
 150 0286 5D338064 		.ascii	"]3\200d#C\315\236\037\371&*\330\273a\253\310\261\304"
 150      2343CD9E 
 150      1FF9262A 
 150      D8BB61AB 
 150      C8B1C4
 151 0299 F8F22DAE 		.ascii	"\370\362-\256p5\322\013\344\014}[\267f\276n\235L5*\015"
 151      7035D20B 
 151      E40C7D5B 
 151      B766BE6E 
 151      9D4C352A 
 152 02ae A7972757 		.ascii	"\247\227'W\201\303}\203\2734\270\245\300\227\036(\270"
 152      81C37D83 
 152      BB34B8A5 
 152      C0971E28 
 152      B8
 153 02bf 2703FC4E 		.ascii	"'\003\374N\357\355\017\037\317\000\177\202\300s\027"
 153      EFED0F1F 
 153      CF007F82 
 153      C07317
 154 02ce 9025671D 		.ascii	"\220%g\035\2221\\\211\311)\314\021\024\011\376\327="
 154      92315C89 
 154      C929CC11 
 154      1409FED7 
 154      3D
 155 02df 83DB6B05 		.ascii	"\203\333k\005\237\232N\336b\331\340<7\270W\333,3\267"
 155      9F9A4EDE 
 155      62D9E03C 
 155      37B857DB 
 155      2C33B7
 156 02f2 777FEF17 		.ascii	"w\177\357\027\003O\233\024\333@\2532\214\011\320h\272"
 156      034F9B14 
 156      DB40AB32 
 156      8C09D068 
ARM GAS  /var/folders/c6/c789hm653lg9vtl73krp73tm0000gn/T//ccVgLuPk.s 			page 12


 156      BA
 157 0303 0F27DF99 		.ascii	"\017'\337\231B*\362\330B2\271^\326\367gy\353\233\320"
 157      422AF2D8 
 157      4232B95E 
 157      D6F76779 
 157      EB9BD0
 158 0316 002E427C 		.ascii	"\000.B|\341\304\340\374\022f7\227\251sW\250^.\312\342"
 158      E1C4E0FC 
 158      12663797 
 158      A97357A8 
 158      5E2ECAE2 
 159 032a 543B854C 		.ascii	"T;\205L\332\247\342\266>\204\356 ^Q\351Ep\021,2U\350"
 159      DAA7E2B6 
 159      3E84EE20 
 159      5E51E945 
 159      70112C32 
 160 0340 81B86896 		.ascii	"\201\270h\226\304\376\306\300\026\303~\243a/\012\262"
 160      C4FEC6C0 
 160      16C37EA3 
 160      612F0AB2 
 161 0350 FF61B35C 		.ascii	"\377a\263\\,\313\321d\367\336\373\314n\351\254\367z"
 161      2CCBD164 
 161      F7DEFBCC 
 161      6EE9ACF7 
 161      7A
 162 0361 3B0C6A89 		.ascii	";\014j\211\334\2578\315U\252\265\323\033\335\021>\277"
 162      DCAF38CD 
 162      55AAB5D3 
 162      1BDD113E 
 162      BF
 163 0372 EC32C2A5 		.ascii	"\3542\302\245\212B*\036\353V\307CV\373\374J\265\227"
 163      8A422A1E 
 163      EB56C743 
 163      56FBFC4A 
 163      B597
 164 0384 4A207335 		.ascii	"J s5Q\276\275\315\224\305\267\007\2362Be\304@\312\345"
 164      51BEBDCD 
 164      94C5B707 
 164      9E324265 
 164      C440CAE5 
 165 0398 8957102F 		.ascii	"\211W\020/\311\366z\367x\225\311x]:1heG\353\300\205"
 165      C9F67AF7 
 165      7895C978 
 165      5D3A3168 
 165      6547EBC0 
 166 03ad 518AD66C 		.ascii	"Q\212\326lF\264<\253\243E2?\232h\225\245E\313V\321\352"
 166      46B43CAB 
 166      A345323F 
 166      9A6895A5 
 166      45CB56D1 
 167 03c2 999D3EBE 		.ascii	"\231\235>\276E5\3750\226?\270\336 {\376\204[!\253\317"
 167      4535FD30 
 167      963FB8DE 
 167      207BFE84 
 167      5B21ABCF 
 168 03d6 2CE19BCD 		.ascii	",\341\233\315\275@g\027.\203w\343`\231\331\2762\214"
 168      BD406717 
ARM GAS  /var/folders/c6/c789hm653lg9vtl73krp73tm0000gn/T//ccVgLuPk.s 			page 13


 168      2E8377E3 
 168      6099D9BE 
 168      328C
 169 03e8 3C8C15DA 		.ascii	"<\214\025\332sCi\341\253\324\341\033\2567\262U\271\352"
 169      734369E1 
 169      ABD4E11B 
 169      AE37B255 
 169      B9EA
 170 03fa 95AD6E06 		.ascii	"\225\255n\006\212\207\225\311\243\312\360\360\001\235"
 170      8A8795C9 
 170      A3CAF0F0 
 170      019D
 171 0408 95F497C3 		.ascii	"\225\364\227\303\354\305\245\212\\P\322Lm\276t|\006"
 171      ECC5A58A 
 171      5C50D24C 
 171      6DBE747C 
 171      06
 172 0419 CDEE1559 		.ascii	"\315\356\025Y\271\303\376'wn\306\352R*\341\225\3660"
 172      B9C3FE27 
 172      776EC6EA 
 172      522AE195 
 172      F630
 173 042b 038C9C61 		.ascii	"\003\214\234a\377z\355\021\342\342=r\375\261\031 \303"
 173      FF7AED11 
 173      E2E23D72 
 173      FDB11920 
 173      C3
 174 043c 4BECBEAB 		.ascii	"K\354\276\253md\2537\376\262\340V\240\003\224\030\037"
 174      6D64AB37 
 174      FEB2E056 
 174      A0039418 
 174      1F
 175 044d 39B3EA04 		.ascii	"9\263\352\004q\327\006\230\242<=\262\310\315\376\325"
 175      71D70698 
 175      A23C3DB2 
 175      C8CDFED5 
 176 045d EA03989B 		.ascii	"\352\003\230\233\262\235*\247\236D\277\357\0367\263"
 176      B29D2AA7 
 176      9E44BFEF 
 176      1E37B3
 177 046c F566D5FA 		.ascii	"\365f\325\372#0\222\340\031\232\317\244kV\347\242\251"
 177      233092E0 
 177      199ACFA4 
 177      6B56E7A2 
 177      A9
 178 047d 3F1F8746 		.ascii	"?\037\207F\0273\017W\336<D\215fb|4\261\3125y:,\327\251"
 178      17330F57 
 178      DE3C448D 
 178      66627C34 
 178      B1CA3579 
 179 0495 34F6772A 		.ascii	"4\366w*\232\233\224rQ\336\210\212\204M9t3)\032\270\035"
 179      9A9B9472 
 179      51DE888A 
 179      844D3974 
 179      33291AB8 
 180 04aa E924F2E1 		.ascii	"\351$\362\341\220\252T\032\237\036[\314d_\277\322\022"
 180      90AA541A 
ARM GAS  /var/folders/c6/c789hm653lg9vtl73krp73tm0000gn/T//ccVgLuPk.s 			page 14


 180      9F1E5BCC 
 180      645FBFD2 
 180      12
 181 04bb 0BD65C77 		.ascii	"\013\326\\w\352\334%\317\026I\272\326\203Ir\2778\035"
 181      EADC25CF 
 181      1649BAD6 
 181      834972BF 
 181      381D
 182 04cd 5D86D8DC 		.ascii	"]\206\330\334\201\233\250\032\205\271\032\351\2031l"
 182      819BA81A 
 182      85B91AE9 
 182      83316C
 183 04dc 89735469 		.ascii	"\211sTimm@\375:\273\003]\321@wW(\020j\335\023\255\015"
 183      6D6D40FD 
 183      3ABB035D 
 183      D1407757 
 183      28106ADD 
 184 04f3 01EE7637 		.ascii	"\001\356v7\267\264E\203\201t\221\326`[`wgW\264;\360"
 184      B7B44583 
 184      817491D6 
 184      605B6077 
 184      6757B43B 
 185 0508 526343DD 		.ascii	"RcC\335\366\300\316\235\317\007\032w4\354\331\026\350"
 185      F6C0CE9D 
 185      CF071A77 
 185      34ECD916 
 185      E8
 186 0519 8EEE6A6B 		.ascii	"\216\356jkk\256m\205\232,H%\376\354\213\015\3175\274"
 186      6BAE6D85 
 186      9A2C4825 
 186      FEEC8B0D 
 186      CF35BC
 187 052c 49D8A1CE 		.ascii	"I\330\241\316\256\226]\321H{K\027\311Vd\311F:Bm\257"
 187      AE965DD1 
 187      487B4B17 
 187      C95664C9 
 187      463A426D 
 188 0541 37B7280A 		.ascii	"7\267(\012\255\300;:\337p\011\331\377\000\015R\370\343"
 188      ADC03B3A 
 188      DF7009D9 
 188      FF000D52 
 188      F8E3
 189              		.text
 190              		.section	.gnu.lto_chVTDoResetI.eacdcbde129e3cd6,"",%progbits
 191 0000 789CAD93 		.ascii	"x\234\255\2231h\024A\024\206\337{\263\263{\271=\203"
 191      31681441 
 191      1486DF7B 
 191      B3B37BB9 
 191      3D83
 192 0012 982A8210 		.ascii	"\230*\202\020,,<\270ClLe\035\2603\007\261\214\033\211"
 192      2C2C3CB8 
 192      436C4C65 
 192      1DB03307 
 192      B18C1B89 
 193 0026 0B9E81E4 		.ascii	"\013\236\201\344H\012\213\314%W\244\222\303*\230\306"
 193      480A8BCC 
 193      2557A492 
ARM GAS  /var/folders/c6/c789hm653lg9vtl73krp73tm0000gn/T//ccVgLuPk.s 			page 15


 193      C32A98C6 
 194 0036 B4126263 		.ascii	"\264\022bcq\251rg\025\021\243\261\224\200V\011\210\202"
 194      71A97267 
 194      1511A3B1 
 194      94805609 
 194      8882
 195 0048 7612C4F5 		.ascii	"v\022\304\365\315\314\316\355\2359L\343p\367\336\314"
 195      CDCCCEED 
 195      9D394CE3 
 195      70F7DECC 
 196 0058 EE7CFF7B 		.ascii	"\356|\377{\363\336,\001\301\337\343\026\377\277\011"
 196      F3DE2C01 
 196      C1DFE316 
 196      FFBF09
 197 0067 80227B0C 		.ascii	"\200\"{\014\000\251\271\017P\317\021\211\227\257\000"
 197      00A9B90F 
 197      50CF1189 
 197      97AF00
 198 0076 545E1E86 		.ascii	"T^\036\206\240\012\202<\273\364\315\322C\337n\223v\202"
 198      A00A823C 
 198      BBF4CDD2 
 198      43DF6E93 
 198      7682
 199 0088 3EA2F680 		.ascii	">\242\366\200\260L\302\223>.\337A#\377\202\332\237\223"
 199      B04CC293 
 199      3E2EDF41 
 199      23FF82DA 
 199      9F93
 200 009a 64FBC39B 		.ascii	"d\373\303\233\255_\270K#\0041\202\300*\202\247gR\233"
 200      AD5FB84B 
 200      23043182 
 200      C02A82A7 
 200      67529B
 201 00ad 409B3C1B 		.ascii	"@\233<\033\014\265)h\303\244\204\206R\315\261*\342e"
 201      0CB52968 
 201      C3A48486 
 201      52CDB12A 
 201      E265
 202 00bf D854EA49 		.ascii	"\330T\352I{c\377\361\250z\266\322T\277\223\004c$\202"
 202      7B63FFF1 
 202      A87AB6D2 
 202      54BF9304 
 202      632482
 203 00d2 4B0811C2 		.ascii	"K\010\021\302\024/\304\230q\236\327\1778K\252O3{\252"
 203      142FC498 
 203      719ED77F 
 203      384BAA4F 
 203      337BAA
 204 00e5 D14E929B 		.ascii	"\321N\222\233\206\272r\026\005\372=\217I\266\372T\025"
 204      86BA7216 
 204      05FA3D8F 
 204      49B6FA54 
 204      15
 205 00f6 24EDC55B 		.ascii	"$\355\305[X\371\330:\352\3204n\242\204Y\244\"\\\345"
 205      58F9D83A 
 205      EAD0346E 
 205      A28459A4 
ARM GAS  /var/folders/c6/c789hm653lg9vtl73krp73tm0000gn/T//ccVgLuPk.s 			page 16


 205      225CE5
 206 0109 D48BF05C 		.ascii	"\324\213\360\\\361\270\036\243\334\200\247u\245\316"
 206      F1B81EA3 
 206      DC80A775 
 206      A5CE
 207 0117 C7E83F82 		.ascii	"\307\350?\202\023\265\246gA\025u\321u\234\300h\337\265"
 207      13B5A667 
 207      411575D1 
 207      759CC068 
 207      DFB5
 208 0129 85619F4E 		.ascii	"\205a\237N`\017\032_\353\347\272\252\263(\262L*\274"
 208      600F1A5F 
 208      EBE7BAAA 
 208      B328B24C 
 208      2ABC
 209 013b E0CA9BD8 		.ascii	"\340\312\233\330?\217:\350vy66\007d\341\034#:\200\023"
 209      3F8F3AE8 
 209      76793636 
 209      0764E11C 
 209      233A8013 
 210 014f 765DD650 		.ascii	"v]\326P\363\202C\344\277\020\221!\257\277\017[$=\330"
 210      F38243E4 
 210      BF109121 
 210      AFBF0F5B 
 210      243DD8
 211 0162 ED5EC83B 		.ascii	"\355^\310;\015\261\262\015\265~\234\345\027\374\217"
 211      0DB1B20D 
 211      B57E9CE5 
 211      17FC8F
 212 0171 60C1E943 		.ascii	"`\301\351Cq\006\206k\265\216\017\250\217\274\026\343"
 212      7106866B 
 212      B58E0FA8 
 212      8FBC16E3 
 213 0181 D0E070B6 		.ascii	"\320\340p\266\275\372\311\220+w\347\375p7S\333*\335"
 213      BDFAC990 
 213      2B77E7FD 
 213      703753DB 
 213      2ADD
 214 0193 BF7C2A35 		.ascii	"\277|*5\316\255\344\266\271N\365\215\012\313\355\334"
 214      CEADE4B6 
 214      B94EF58D 
 214      0ACBEDDC 
 215 01a3 B077E1CB 		.ascii	"\260w\341\313\017\341TR\224\033N\203\323\227\275=\031"
 215      0FE15452 
 215      941B4E83 
 215      D397BD3D 
 215      19
 216 01b4 715868CA 		.ascii	"qXh\312D\203\363\316\220\325\265\325\223ni\013\034\215"
 216      4483F3CE 
 216      90D5B5D5 
 216      936E690B 
 216      1C8D
 217 01c6 492335D1 		.ascii	"I#5\321[\202\263\2023\352\316 \3410\024\357\240\221"
 217      5B82B382 
 217      33EACE20 
 217      E13014EF 
 217      A091
ARM GAS  /var/folders/c6/c789hm653lg9vtl73krp73tm0000gn/T//ccVgLuPk.s 			page 17


 218 01d8 B33C40F7 		.ascii	"\263<@\367\276\206Qz/9\2318\003|\363\005\034\360'\237"
 218      BE86517A 
 218      2F399938 
 218      037CF305 
 218      1CF0279F 
 219 01ec 95629277 		.ascii	"\225b\222w\362S\335\230\213\245R\331\376\346\026\312"
 219      F253DD98 
 219      8BA552D9 
 219      FEE616CA 
 220 01fc F3B5F2C2 		.ascii	"\363\265\362\302|T\216\356/\326J\021\344\036\316-\315"
 220      7C548EEE 
 220      2FD64A11 
 220      E41ECE2D 
 220      CD
 221 020d DC7B509B 		.ascii	"\334{P\233\226\306\376\001jr\342\355"
 221      96C6FE01 
 221      6A72E2ED 
 222              		.text
 223              		.section	.gnu.lto_.symbol_nodes.eacdcbde129e3cd6,"",%progbits
 224 0000 789C4DC8 		.ascii	"x\234M\3101\016\202@\024\204\341\231\367v\3273x\011"
 224      310E8240 
 224      1484E199 
 224      F776D733 
 224      7809
 225 0012 AE387410 		.ascii	"\2568t\020+\032J-\344(\026\026&\224p\000\242\022\215"
 225      2B1A4A2D 
 225      E4281616 
 225      26947000 
 225      A2128D
 226 0025 89DC4012 		.ascii	"\211\334@\022\2118\325\377\215\301Pc\231\275)\240j\001"
 226      8938D5FF 
 226      8DC15063 
 226      99BD29A0 
 226      6A01
 227 0037 695F328E 		.ascii	"i_2\216\234\013v\245\270\274\207\222v\243\354\217w\312"
 227      9C0B76A5 
 227      B8BC8792 
 227      76A3EC8F 
 227      77CA
 228 0049 57F24585 		.ascii	"W\362E\205/\363\234|Rq\325\203J?9\022\206\313y\353\210"
 228      2FF39C7C 
 228      5271D583 
 228      4A3F3912 
 228      86CB79EB 
 229 005e 682673DF 		.ascii	"h&s\337\240\331e\356\011\247\266\013\036\200c\321\033"
 229      A0D965EE 
 229      09A7B60B 
 229      1E8063D1 
 229      1B
 230 006f 3EA0072C 		.ascii	">\240\007,\315"
 230      CD
 231              		.text
 232              		.section	.gnu.lto_.refs.eacdcbde129e3cd6,"",%progbits
 233 0000 789C6362 		.ascii	"x\234cb`b0e\200\000\026\006FF& d`dc\002\261 \230\221"
 233      60623065 
 233      80001606 
 233      46462620 
ARM GAS  /var/folders/c6/c789hm653lg9vtl73krp73tm0000gn/T//ccVgLuPk.s 			page 18


 233      64606463 
 234 0019 918B9901 		.ascii	"\221\213\231\001\312\202\3113\200X, Q\006\000\026\273"
 234      CA82C933 
 234      80582C20 
 234      51060016 
 234      BB
 235 002a 0088     		.ascii	"\000\210"
 236              		.text
 237              		.section	.gnu.lto_.decls.eacdcbde129e3cd6,"",%progbits
 238 0000 789CBD5B 		.ascii	"x\234\275[\013p\324F\232\2264\343\307\330\346\021\262"
 238      0B70D446 
 238      9A9634E3 
 238      C7D8E611 
 238      B2
 239 0011 C911961C 		.ascii	"\311\021\226\034\316Ur\373\272`C\010\220\272\253\000"
 239      CE5572FB 
 239      BA604308 
 239      90BAAB00 
 240 0021 675249AA 		.ascii	"gRI\252\302^\312\260WT\335\325\315\212\261\260}\353"
 240      C25ECAB0 
 240      5754DDD5 
 240      CD8AB1B0 
 240      7DEB
 241 0033 F1CCCDC8 		.ascii	"\361\314\315\310\006\252\256*\3028\006B\262\230\227"
 241      06AAAE2A 
 241      C2380642 
 241      B29897
 242 0042 71581E86 		.ascii	"qX\036\206\004\002d!`\300@\200 \222\305k\336>\233\204"
 242      04026421 
 242      60C04080 
 242      2092C56B 
 242      DE3E9B84 
 243 0056 57D69887 		.ascii	"W\326\230\207Y`\023\302+\274\216\340\373\373oi\246\245"
 243      596013C2 
 243      2BBC8EE0 
 243      FBFB6F69 
 243      A6A5
 244 0068 91C69261 		.ascii	"\221\306\222aOE\267{\244\356\357\177\366\377w\267\204"
 244      4F45B77B 
 244      A4EEEF7F 
 244      F6FF77B7 
 244      84
 245 0079 C009DC6A 		.ascii	"\300\011\334j\201\343:\341\032:\212\343.\247q\\\012"
 245      81E33AE1 
 245      1A3A8AE3 
 245      2EA7715C 
 245      0A
 246 008a C7712F43 		.ascii	"\307q/C\361@Y\016e\005\224\006(<\224\303P\240\013\267"
 246      F140590E 
 246      65059406 
 246      283C94C3 
 246      50A00BB7 
 247 009e 057EEC84 		.ascii	"\005~\354\204\242B9\002\345K(\307\240\234\342i\277?"
 247      A2423902 
 247      E54B28C7 
 247      A09CE269 
 247      BF3F
ARM GAS  /var/folders/c6/c789hm653lg9vtl73krp73tm0000gn/T//ccVgLuPk.s 			page 19


 248 00b0 918AB948 		.ascii	"\221\212\271H\377>\032NO(YP\326jX\037k4\332\240\317"
 248      FF3E1A4E 
 248      4F285950 
 248      D66A581F 
 248      6B34DAA0 
 249 00c5 599ED2DC 		.ascii	"Y\236\322\334\003\345\034\264wA9\017\245\003J_\340\363"
 249      03E51CB4 
 249      7741390F 
 249      A5034A5F 
 249      E0F3
 250 00d7 2928C7A1 		.ascii	")(\307\241\235\016\3177j\374\254\201\262\011\212J\350"
 250      9D0ECF37 
 250      6AFCAC81 
 250      B2098A4A 
 250      E8
 251 00e8 40B90FCF 		.ascii	"@\271\017\317\017r\264\017\241\333O\240\374=\015\177"
 251      0F72B40F 
 251      A1DB4FA0 
 251      FC3D0D7F 
 252 00f8 9F81F22C 		.ascii	"\237\201\362,\224\237\010\224_\"\343?@{;\237\3103\221"
 252      949F0894 
 252      5F22E33F 
 252      407B3B9F 
 252      C83391
 253 010b 2F4DE3D3 		.ascii	"/M\343\323\314_\203\306{\012\303\303~(\0078J\233\327"
 253      CC5F83C6 
 253      7B0AC3C3 
 253      7E280738 
 253      4A9BD7
 254 011e C65BE982 		.ascii	"\306[\351\202\350\3541\015W\327\205\2167B\323\007\221"
 254      E8EC310D 
 254      57D7858E 
 254      3742D307 
 254      91
 255 012f 9F95DB4C 		.ascii	"\237\225\333L_\327C&\264\2334\331\211\334:/\0075~6j"
 255      5FD74326 
 255      B49B34D9 
 255      89DC3A2F 
 255      07357E36 
 256 0144 BAD9A2F1 		.ascii	"\272\331\242\361\226\256\321gu1X\240v\323u\222J0\341"
 256      96AED167 
 256      753158A0 
 256      76D37592 
 256      4A30E1
 257 0157 EF1F891E 		.ascii	"\357\037\211\036\241\354\2072TH\224\203\330\275\007"
 257      A1EC8732 
 257      54489483 
 257      D8BD07
 258 0166 6347D6B6 		.ascii	"cG\326\266,\277\272<\204\357\177\004\234\006\215\006"
 258      2CBFBA3C 
 258      84EF7F04 
 258      9C068D06 
 259 0176 6BBB8D8C 		.ascii	"k\273\215\214\375\004\015{\213f\237V\236\332\310L?\223"
 259      FD040D7B 
 259      8B669F56 
 259      9EDAC84C 
 259      3F93
ARM GAS  /var/folders/c6/c789hm653lg9vtl73krp73tm0000gn/T//ccVgLuPk.s 			page 20


 260 0188 7B47512A 		.ascii	"{GQ*\224\272*\345\265\246\236}\2709\012\\\331M\300\301"
 260      94BA2AE5 
 260      B5A69E7D 
 260      B8390A5C 
 260      D94DC0C1 
 261 019c 785EE47B 		.ascii	"x^\344{\3728\205\307V\226\217\353\015\275\237\343>T"
 261      FA3885C7 
 261      56968FEB 
 261      0DBD9FE3 
 261      3E54
 262 01ae 94EAF6BD 		.ascii	"\224\352\366\2757\324\024EI\027\371\025|\037\240\364"
 262      37D41445 
 262      4917F915 
 262      7C1FA0F4 
 263 01be 139EFB39 		.ascii	"\023\236\3739\267\006\006V+\312\212\001\\\342\325%\256"
 263      B7060656 
 263      2BCA8A01 
 263      5CE2D525 
 263      AE
 264 01cf C08DE639 		.ascii	"\300\215\3469\221_\005p\"\277\222\3779%\244\264\337"
 264      915F0570 
 264      22BF92FF 
 264      3925A4B4 
 264      DF
 265 01e0 6EFCE16D 		.ascii	"n\374\341m~\252\242\360\364\031\247=\265\270\236\341"
 265      7EAAA2F0 
 265      F419A73D 
 265      B5B89EE1 
 266 01f0 EA400EF5 		.ascii	"\352@\016\365\356\302%O)u\237\363]\211U\027#\377\243"
 266      EEC2254F 
 266      29759FF3 
 266      5D895517 
 266      23FFA3
 267 0203 B8582BAF 		.ascii	"\270X+\2577yQ\254\217Q\254\377\346\015\344\272D\021"
 267      377951AC 
 267      8F51ACFF 
 267      E60DE4BA 
 267      4411
 268 0215 B8777932 		.ascii	"\270wy2d}\242\024\337\352R\254w$\305vM\012\221_\013"
 268      647DA214 
 268      DFEA52AC 
 268      7724C576 
 268      4D0A915F 
 269 022a 9208DC92 		.ascii	"\222\010\334\222\030\256F8[\247\353\3458\275I/\255\203"
 269      18AE4638 
 269      5BA7EBE5 
 269      38BD492F 
 269      AD83
 270 023c 11EFD363 		.ascii	"\021\357\323cY\325\242\016\266\3225X\266\001l\327\261"
 270      59D5A20E 
 270      B6D23558 
 270      B6016CD7 
 270      B1
 271 024d C5C89C8F 		.ascii	"\305\310\234\217\233\021W1g\011\246\351\265c\321\023"
 271      9B115731 
 271      6709A6E9 
 271      B563D113 
ARM GAS  /var/folders/c6/c789hm653lg9vtl73krp73tm0000gn/T//ccVgLuPk.s 			page 21


 272 025d 8A57E41B 		.ascii	"\212W\344\033`\210\300\255\343\215ju\016sz\326\336="
 272      6088C0AD 
 272      E38D6A75 
 272      0E737AD6 
 272      DE3D
 273 026f 7C05AA71 		.ascii	"|\005\252q;BU\012\335\205\3321w\347Kh\351\235\010t\331"
 273      3B42550A 
 273      DD85DA31 
 273      77E74B68 
 273      E99D0874 
 274 0284 0424F269 		.ascii	"\004$\362i1\025\306~\353\035\010\032>\326\032$\352\367"
 274      3115C67E 
 274      EB1D081A 
 274      3ED61A24 
 274      EAF7
 275 0296 E2FECADD 		.ascii	"\342\376\312\335\005\356{\301\201\331\322m}\240\375"
 275      05EE7BC1 
 275      81D9D26D 
 275      7DA0FD
 276 02a5 56E37729 		.ascii	"V\343w)\357+j\245\30705\236\344\026\020\247\206\037"
 276      EF2B6AA5 
 276      C730359E 
 276      E41610A7 
 276      861F
 277 02b7 0A2F8BFC 		.ascii	"\012/\213\374\313OX\242\023\036?\347\237\304\226\007"
 277      CB4F58A2 
 277      131E3FE7 
 277      9FC49607 
 278 02c7 430BDC18 		.ascii	"C\013\334\030\221\011\325\257<11\222\250\373\355\357"
 278      9109D5AF 
 278      3C313192 
 278      A8FBEDEF 
 279 02d7 5401D5BD 		.ascii	"T\001\325\275\007=\360\201I\335\006\216(%;.\032\371"
 279      073DF081 
 279      49DD068E 
 279      28253B2E 
 279      1AF9
 280 02e9 4C9BD993 		.ascii	"L\233\331\223\360L\340\246{\334\252\314\340\3510oo\256"
 280      F04CE0A6 
 280      7BDCAACC 
 280      E0E9306F 
 280      6FAE
 281 02fb E4E74D53 		.ascii	"\344\347MS\232rQZ\201\233\355\004\260\267\205\015\254"
 281      9A72515A 
 281      819BED04 
 281      B0B7850D 
 281      AC
 282 030c 2E365088 		.ascii	".6P\210\374\006\3769\2507\362\317@\275\011\353-X\253"
 282      FC06FE39 
 282      A837F2CF 
 282      40BD09EB 
 282      2D58AB
 283 031f 5837419D 		.ascii	"X7A\235T\321\004\216L\357\030v=/h\001\265{!\343~<d\210"
 283      54D1048E 
 283      4CEF1876 
 283      3D2F6801 
 283      B57B21E3 
ARM GAS  /var/folders/c6/c789hm653lg9vtl73krp73tm0000gn/T//ccVgLuPk.s 			page 22


 284 0337 FC66D760 		.ascii	"\374f\327`\006E\252sN.\326\342\031\211\001\"\277\333"
 284      0645AA73 
 284      4E2ED6E2 
 284      19890122 
 284      BFDB
 285 0349 099EBD2F 		.ascii	"\011\236\275/\253\033N\"s4\240\324xx\227`\331\311\214"
 285      AB1B4E22 
 285      7334A0D4 
 285      78789760 
 285      D9C98C
 286 035c B28A31CA 		.ascii	"\262\2121\312j4\312\0324\301~\254\017`}\320\2119\226"
 286      6A34CA1A 
 286      34C17EAC 
 286      0F607DD0 
 286      893996
 287 036f C7CD816C 		.ascii	"\307\315\201l+\352\346\377 \\\323\234\271\002\270\326"
 287      2BEAE6FF 
 287      205CD39C 
 287      B902B8D6 
 288 037f 33CA0CB2 		.ascii	"3\312\014\262H\323\363\342\023:N3\231g\002\267\006\305"
 288      48D3F3E2 
 288      133A4E33 
 288      996702B7 
 288      06C5
 289 0391 6B36E514 		.ascii	"k6\345\024u\301\322,\022S\233\035\344\023E]\322\266"
 289      75C1D22C 
 289      12539B1D 
 289      E413455D 
 289      D2B6
 290 03a3 9827FAB7 		.ascii	"\230'\372\267Ha\355\261\024\326\237\213\007\354\277"
 290      4861EDB1 
 290      14D69F8B 
 290      07ECBF
 291 03b2 5CF5E07C 		.ascii	"\\\365\340|=\212\274n\362t\231\011\2150\002\247\342"
 291      3D8ABC6E 
 291      F2749909 
 291      8D3002A7 
 291      E2
 292 03c3 90630999 		.ascii	"\220c\011\231\260\352h\225\226\011\2179\342\274\365"
 292      B0EA6895 
 292      96098F39 
 292      E2BCF5
 293 03d2 A42DE723 		.ascii	"\244-\347#Y\333\352\201\346\262\226\301O!\343\207\255"
 293      59DBEA81 
 293      E6B296C1 
 293      4F21E387 
 293      AD
 294 03e3 19AF1B69 		.ascii	"\031\257\033i\007#pm8\244-1\205\337\256\320\030os\224"
 294      0723706D 
 294      38A42D31 
 294      85DFAED0 
 294      186F7394 
 295 03f7 C2AFCD72 		.ascii	"\302\257\315r\270\020\361\352\364G\307\3058?@\020\371"
 295      B810F1EA 
 295      F447C7C5 
 295      383F4010 
 295      F9
ARM GAS  /var/folders/c6/c789hm653lg9vtl73krp73tm0000gn/T//ccVgLuPk.s 			page 23


 296 0408 7328C277 		.ascii	"s(\302w]\353\336\010!pwp\310\205D\335\357\235\246\211"
 296      5DEBDE08 
 296      21707770 
 296      C88544DD 
 296      EF9DA689 
 297 041c 70C19108 		.ascii	"p\301\221\010\013\177\253\257B\316b\330\256\360\352"
 297      0B7FABAF 
 297      42CE62D8 
 297      AEF0EA
 298 042b B8DD0B29 		.ascii	"\270\335\013)\213\016\343\254\245`3]\203e\033\300\226"
 298      8B0EE3AC 
 298      A560335D 
 298      83651BC0 
 298      96
 299 043c 1D76BB0A 		.ascii	"\035v\273\012\371\237\263\355O\355R\224\336\"\177\005"
 299      F99FB3ED 
 299      4FED5294 
 299      DE227F05 
 300 044c E3C65EAF 		.ascii	"\343\306^\2579\351\223U\005s9\313\313\207\234\010b\033"
 300      39E99355 
 300      057339CB 
 300      CB879C08 
 300      621B
 301 045e CB88590E 		.ascii	"\313\210Y\016\316\243IF\367\316T;A\004\356(\022\273"
 301      CEA34946 
 301      F7CE543B 
 301      4104EE28 
 301      12BB
 302 0470 6136EDDD 		.ascii	"a6\355\335\013M?\253E\321n8\262\354\226\375\013\235"
 302      0B4D3FAB 
 302      45D16E38 
 302      B2EC96FD 
 302      0B9D
 303 0482 39A7A093 		.ascii	"9\247\240\223\177\026\311W\244\020\362w\314\344w]n\177"
 303      7F16C957 
 303      A410F277 
 303      CCE4775D 
 303      6E7F
 304 0494 9992BFE3 		.ascii	"\231\222\277\343\210\374\262\226\371\211\344m\027\037"
 304      88FCB296 
 304      F989E46D 
 304      171F
 305 04a2 9AF9EE5E 		.ascii	"\232\371\356^\270\330\177\031\022\271\217\016\264-\305"
 305      B8D87F19 
 305      12B98F0E 
 305      B42DC5
 306 04b1 6CBE1199 		.ascii	"l\276\021\231,-m\201\302,\007\366\304\270\357\226\377"
 306      2C2D6D81 
 306      C22C07F6 
 306      C4B8EF96 
 306      FF
 307 04c2 8298EAEB 		.ascii	"\202\230\352\353k\352\025ef\252\316\303\037\\#\032\235"
 307      6BEA1565 
 307      66AACEC3 
 307      1F5C231A 
 307      9D
 308 04d3 B8BE0567 		.ascii	"\270\276\005g\004\005\373\243\023\260$Iq3\013\266\337"
ARM GAS  /var/folders/c6/c789hm653lg9vtl73krp73tm0000gn/T//ccVgLuPk.s 			page 24


 308      0405FBA3 
 308      13B02449 
 308      71330BB6 
 308      DF
 309 04e4 359891B3 		.ascii	"5\230\221\263\006\026\354\220\0230\253e\217\006\266"
 309      0616EC90 
 309      1330AB65 
 309      8F06B6
 310 04f3 8D056B76 		.ascii	"\215\005kv\015f\344\354S\026\254\325\011X_{\316v\262"
 310      0D66E4EC 
 310      5316ACD5 
 310      09585F7B 
 310      CE76B2
 311 0506 60C75C83 		.ascii	"`\307\\\203\0319\373\214\005;\345\004,\333\202\263\330"
 311      1939FB8C 
 311      053BE504 
 311      2CDB82B3 
 311      D8
 312 0517 65B7AEB8 		.ascii	"e\267\256\270\035_W@\272J\321\003\202K\237\346\342\030"
 312      1D5F5740 
 312      BA4AD103 
 312      824B9FE6 
 312      E218
 313 0529 6753DC46 		.ascii	"gS\334F0\203\334\020\301\016}\240/\223ip\277\350\004"
 313      3083DC10 
 313      C10E7DA0 
 313      2F936970 
 313      BFE804
 314 053c 3189C334 		.ascii	"1\211\3034\260\231\342\252k0\243Y\216\0220C\250\321"
 314      B099E2AA 
 314      6B30A359 
 314      8E123043 
 314      A8D1
 315 054e 7246FB4A 		.ascii	"rF\373J\265om<\330\245\353X\344\204\204F\266jE\021b"
 315      B56F6D3C 
 315      D8A5EB58 
 315      E4848446 
 315      B66A4511 
 316 0563 9D95BE7D 		.ascii	"\235\225\276}\255\373\212\374\373\002Y'.\022|1.h[ou"
 316      ADFB8AFC 
 316      FB025927 
 316      2E127C31 
 316      2E685B6F 
 317 0578 F2989753 		.ascii	"\362\230\227SLg/\372\325\325P;OX(0\236\360\203\0235"
 317      4C672FFA 
 317      D5D5503B 
 317      4F582830 
 317      9EF08313 
 318 058d 25990AFF 		.ascii	"%\231\012\377{x\361\337(\355*\317\310\233T9$\2416i\011"
 318      7B78F1DF 
 318      28ED2ACF 
 318      C89B5439 
 318      24A13669 
 319 05a2 75A980DB 		.ascii	"u\251\200\333\361T\313\355\270\003\244\323\263\326\375"
 319      F154CBED 
 319      B803A4D3 
 319      B3D6FD
ARM GAS  /var/folders/c6/c789hm653lg9vtl73krp73tm0000gn/T//ccVgLuPk.s 			page 25


 320 05b1 02976DCB 		.ascii	"\002\227m\313\021\350\275n\003\355\230\273t8\002}\210"
 320      11E8BD6E 
 320      03ED98BB 
 320      7438027D 
 320      88
 321 05c2 400B52CD 		.ascii	"@\013R\3159\302\234\341yc\206\347}\361F\247\321Z\217"
 321      39C29CE1 
 321      796386E7 
 321      7DF146A7 
 321      D15A8F
 322 05d5 B4AFC02D 		.ascii	"\264\257\300-K5\231\313 N\227\301\006\026\244\347\347"
 322      4B3599CB 
 322      204E97C1 
 322      0616A4E7 
 322      E7
 323 05e6 F1372A94 		.ascii	"\3617*\224\332\\7\006S5\203\255A\365|\224\240\236\345"
 323      DA5C3706 
 323      533583AD 
 323      41F57C94 
 323      A09EE5
 324 05f9 823BFD08 		.ascii	"\202;\375\010\334'\256\345\370\251Q\216\252?wC\216f"
 324      DC27AEE5 
 324      F8A9518E 
 324      AA3F7743 
 324      8E66
 325 060b 4D8EF528 		.ascii	"M\216\365(\307\326G \307n\327r\3442r\220\015\302\315"
 325      C7D64720 
 325      C76ED772 
 325      E4327290 
 325      0DC2CD
 326 061e F934083E 		.ascii	"\3714\010>\316\315M\276\214#\374l\022\0367\356\347\276"
 326      CECD4DBE 
 326      8C23FC6C 
 326      121E37EE 
 326      E7BE
 327 0630 3FC267D3 		.ascii	"?\302g\323\333]o\212\346\2650k_\305\331\332\367\242"
 327      DB5D6F8A 
 327      E6B5306B 
 327      5FC5D9DA 
 327      F7A2
 328 0642 A6B106D4 		.ascii	"\246\261\006\324X\243\325\014s\204t\372\300\0376\352"
 328      58A3D50C 
 328      738474FA 
 328      C01F36EA 
 329 0652 87700875 		.ascii	"\207p\010u\260\333P;Z\266\322\311\272\023\201\216&X"
 329      B0DB503B 
 329      5AB6D2C9 
 329      BA13818E 
 329      2658
 330 0664 31D564C4 		.ascii	"1\325d\304T\243\021\341'\241t\207,\305\371\267\264;"
 330      54A311E1 
 330      27A17487 
 330      2CC5F9B7 
 330      B43B
 331 0676 E4471AF7 		.ascii	"\344G\032\367\377>\01621\262O\014\330\235\325%\356\003"
 331      FF3E0E32 
 331      31B24F0C 
ARM GAS  /var/folders/c6/c789hm653lg9vtl73krp73tm0000gn/T//ccVgLuPk.s 			page 26


 331      D89DD525 
 331      EE03
 332 0688 E6EB5994 		.ascii	"\346\353Y\224\032\251\343\241\020+\324\335s\365\375"
 332      1AA9E3A1 
 332      102BD4DD 
 332      73F5FD
 333 0697 1B1E5E5D 		.ascii	"\033\036^]yH\270\257[\314y\324\264~?g\223{\364\275\371"
 333      7948B8AF 
 333      5BCC79D4 
 333      B47E3F67 
 333      937BF4BD 
 334 06ac B9767A08 		.ascii	"\271vz\010\330(\020v\276O0\367Y\336\264\200?k<\320\263"
 334      D8281076 
 334      BE4F30F7 
 334      59DEB480 
 334      3F6B3CD0 
 335 06c1 9B4B7BD9 		.ascii	"\233K{\33148#\355\241\244\0043\234\376\220\232\241\253"
 335      343823ED 
 335      A1A40433 
 335      9CFE909A 
 335      A1AB
 336 06d3 CDD1AF75 		.ascii	"\315\321\257u\264,$\374[$|P0\357\272\357\265Wi\363\205"
 336      B42C24FC 
 336      5B247C50 
 336      30EFBAEF 
 336      B55769F3 
 337 06e8 3CEB7A72 		.ascii	"<\353zr\237\352\360)s\263\364\023\214\0351T\215\252"
 337      9FEAF029 
 337      73B3F413 
 337      8C1D3154 
 337      8DAA
 338 06fa E1B8A24B 		.ascii	"\341\270\242K\257R\333\244\246\\7a\242\251\037\015\023"
 338      AF52DBA4 
 338      A65C3761 
 338      A2A91F0D 
 338      13
 339 070b 2DE8815F 		.ascii	"-\350\201_\244%l\221\315\201\325\325\034\331g\226\306"
 339      A4256C91 
 339      CD81D5D5 
 339      1CD96796 
 339      C6
 340 071c E9162776 		.ascii	"\351\026'v\331\371\300\001\326\007\216<\254\0174\376"
 340      D9F9C001 
 340      D6078E3C 
 340      AC0F34FE 
 341 072c D9A10F98 		.ascii	"\331\241\017\230\337b}\205\224O\230\235\240\363A\323"
 341      DF627D85 
 341      944F989D 
 341      A0F341D3 
 342 073c 74EDE8E5 		.ascii	"t\355\350\345\204#'\370\336\340\004\2351\324\3568A\205"
 342      842327F8 
 342      DEE0049D 
 342      31D4EE38 
 342      4185
 343 074e 7AF7D23E 		.ascii	"z\367\322>\036\341\350\202zz\272\011\316\345F\363\276"
 343      1EE1E882 
 343      7A7ABA09 
ARM GAS  /var/folders/c6/c789hm653lg9vtl73krp73tm0000gn/T//ccVgLuPk.s 			page 27


 343      CEE546F3 
 343      BE
 344 075f E45631D4 		.ascii	"\344V1\324\275\324\023\035$\307\235\025\210L\263\323"
 344      BDD4131D 
 344      24C79D15 
 344      884CB3D3 
 345 076f CDAE4535 		.ascii	"\315\256E5\303\270V\\\215\240\010\\a\177-\220\323\327"
 345      C3B8565C 
 345      8DA0085C 
 345      617F2D90 
 345      D3D7
 346 0781 36ACDB05 		.ascii	"6\254\333\005\007g\260gX\267X\350Z\356l\207\336w\234"
 346      0767B067 
 346      58B758E8 
 346      5AEE6C87 
 346      DE779C
 347 0794 25B334FD 		.ascii	"%\2634\375\341\274\357V\343w^|Q\343\346h\353\216\226"
 347      E1BCEF56 
 347      E3775E7C 
 347      51E3E668 
 347      EB8E96
 348 07a7 DE2FE2BC 		.ascii	"\336/\342\274]\231\240\334n\035mm\354\256$\261K\340"
 348      5D99A0DC 
 348      6E1D6D6D 
 348      ECAE24B1 
 348      4BE0
 349 07b9 B6A53BD8 		.ascii	"\266\245;\330\226d\333i\203\244\305\333\363\035\036"
 349      9664DB69 
 349      83A4C5DB 
 349      F31D1E
 350 07c8 8FE96F71 		.ascii	"\217\351oq/\250\364\014"
 350      2FA8F40C 
 351 07d0 F80A3ADA 		.ascii	"\370\012:\332N\223.\034\234\262\035\300!\327\022By\325"
 351      4E932E1C 
 351      9CB21DC0 
 351      21D71242 
 351      79D5
 352 07e2 4DFD0CF8 		.ascii	"M\375\014\370\232\203Y\\\241\266\316b\017PE\3762\276"
 352      9A83595C 
 352      A1B6CE62 
 352      0F5045FE 
 352      32BE
 353 07f4 F6B896DC 		.ascii	"\366\270\226\334\001\223\352\323`\302k\314\374\270\201"
 353      0193EAD3 
 353      60C26BCC 
 353      FCB881
 354 0803 F3E3263B 		.ascii	"\363\343&;'\004\356\224k\335g\263\272W\357\266\322\303"
 354      2704EE94 
 354      6BDD67B3 
 354      BA57EFB6 
 354      D2C3
 355 0815 773D0E75 		.ascii	"w=\016u\230\361\254\342\320Omm\251V\177E_\333\240\217"
 355      98F1ACE2 
 355      D04F6D6D 
 355      A9567F45 
 355      5FDBA08F 
 356 0829 5E75C25C 		.ascii	"^u\302\\\256\035X\205\272\230\202Q\207\277\345\032,"
ARM GAS  /var/folders/c6/c789hm653lg9vtl73krp73tm0000gn/T//ccVgLuPk.s 			page 28


 356      AE1D5885 
 356      BA988251 
 356      87BFE51A 
 356      2C
 357 083a DB00B6A3 		.ascii	"\333\000\266\243F\267\324q\\\234L\3659\300\033n\317"
 357      46B7D471 
 357      5C9C4CF5 
 357      39C01B6E 
 357      CF
 358 084b 5CEB57FA 		.ascii	"\\\353W\372\013/z\326<\3135\236\221\277k5\206\245\\"
 358      0B2F7AD6 
 358      3CCB359E 
 358      91BF6B35 
 358      86A55C
 359 085e 8D13B891 		.ascii	"\215\023\270\221\216\035)\376\252\000\364\211\257\274"
 359      8E1D29FE 
 359      AA00F489 
 359      AFBC
 360 086c 2EE16BAE 		.ascii	".\341k\256\277`\375-\326\327\261\236\213\241w>\3265"
 360      BF60FD2D 
 360      D6D7B19E 
 360      8BA1773E 
 360      D635
 361 087e 582FC17A 		.ascii	"X/\301z5\326\353\260\256\307\372[\254oa}\007\353{X\337"
 361      35D6EBB0 
 361      AEC7FA5B 
 361      AC6F617D 
 361      07EB7B58 
 362 0893 C7FA01D6 		.ascii	"\307\372\001\326\212\307A\0107-\002\365Y\324\326\355"
 362      8AC74108 
 362      372D02F5 
 362      59D4D6ED 
 363 08a3 D710D70F 		.ascii	"\327\020\327\017\304\016\227D\376\033\327`\331\3114"
 363      C40E9744 
 363      FE1BD760 
 363      D9C934
 364 08b2 D9C668B2 		.ascii	"\331\306h\262\0355y\006\365V\3411L\314\245>\375\355"
 364      1D357906 
 364      F556E131 
 364      4CCCA53E 
 364      FDED
 365 08c4 58F712FA 		.ascii	"X\367\022\372\227'\215\356\265\312\214\347*\243+\352"
 365      97278DEE 
 365      B5CA8CE7 
 365      2AA32BEA 
 366 08d4 71FA3EF5 		.ascii	"q\372>\365\006\316\362u\256\301\214\276zz\221\361\265"
 366      06CEF275 
 366      AEC18CBE 
 366      7A7A91F1 
 366      B5
 367 08e5 D1262778 		.ascii	"\321&'xI\016\003\257\236d\016\003w\270\00632w\213\005"
 367      490E03AF 
 367      9E640E03 
 367      77B80633 
 367      32778B05 
 368 08f9 FBC20998 		.ascii	"\373\302\011\230\325\221\231\265\361\2171\306?\201\306"
 368      D59199B5 
ARM GAS  /var/folders/c6/c789hm653lg9vtl73krp73tm0000gn/T//ccVgLuPk.s 			page 29


 368      F18F31C6 
 368      3F81C6
 369 0908 3F89C6AF 		.ascii	"?\211\306\257\364\220\272\012\353\031X\277\203\365\273"
 369      F490BA0A 
 369      EB1958BF 
 369      83F5BB
 370 0917 46A738E4 		.ascii	"F\2478\344\323_\364j\304\214\357T\223x\205\310\037\006"
 370      D35FF46A 
 370      C48CEF54 
 370      937885C8 
 370      1F06
 371 0929 429A2D77 		.ascii	"B\232-w\265Q\337p\232.;n\2514]V{\210\365[}\256\323\345"
 371      B551DF70 
 371      9A2E3B6E 
 371      A9345D56 
 371      7B88F55B 
 372 0941 591C32CF 		.ascii	"Y\0342\317\223\220.;\364w\275\344Y\027\351\262r\232"
 372      93902E3B 
 372      F477BDE4 
 372      5917E9B2 
 372      729A
 373 0953 BAE577AB 		.ascii	"\272\345w\253\342\257\205\246\305\266\225\265\020\341"
 373      E2AF85A6 
 373      C5B695B5 
 373      10E1
 374 0961 ED8283E1 		.ascii	"\355\202\203\341\004\364z\214\217G\222^\343\002\211"
 374      04F47A8C 
 374      8F47925E 
 374      E30289
 375 0970 FC020F31 		.ascii	"\374\002\0171g\215\321`\367\315\006\263\242gH\207\331"
 375      678DD160 
 375      F7CD06B3 
 375      A2674887 
 375      D9
 376 0981 7179C152 		.ascii	"qy\301R_\266\351\351\225\276\352U2Lx\306\027\273]\245"
 376      5FB6E9E9 
 376      95BEEA55 
 376      324C78C6 
 376      17BB5DA5 
 377 0995 44D8ECB5 		.ascii	"D\330\354\265\201s;\265\373\326\372K\303\320\356K\320"
 377      81733BB5 
 377      FBD6FA4B 
 377      C3D0EE4B 
 377      D0
 378 09a6 EE6B335C 		.ascii	"\356k3\\\332\235\250\250\316ds\365\232\224M\357:\370"
 378      DA9DA8A8 
 378      CE6473F5 
 378      9A944DEF 
 378      3AF8
 379 09b8 52AF0337 		.ascii	"R\257\0037%n\026\271\027\373\322E\356\007\036\022\364"
 379      256E16B9 
 379      17FBD245 
 379      EE071E12 
 379      F4
 380 09c9 769838EE 		.ascii	"v\2308\356\346\"\367\013\204\251{T^S\307x\315r\364\232"
 380      E622F70B 
 380      84A97B54 
ARM GAS  /var/folders/c6/c789hm653lg9vtl73krp73tm0000gn/T//ccVgLuPk.s 			page 30


 380      5E53C778 
 380      CD72F49A 
 381 09dd 1546AFD9 		.ascii	"\025F\257\331o\266\262\025\275\260\255\327\300\346\264"
 381      6FB6B215 
 381      BDB0ADD7 
 381      C0E6B4
 382 09ec 63D85445 		.ascii	"c\330TE\255\315}\214\253\306]\327\214s\372\231\275Z"
 382      ADCD7D8C 
 382      ABC65DD7 
 382      8C73FA99 
 382      BD5A
 383 09fe A5CCE0A7 		.ascii	"\245\314\340\247n\354\037\033iH+\361\367\250O\257E5"
 383      6EEC1F1B 
 383      69482BF1 
 383      F7A84FAF 
 383      4535
 384 0a10 AE45351E 		.ascii	"\256E5\0362\251\321\015\326\351YG\364/\362\326!\330"
 384      32A9D10D 
 384      D6E95947 
 384      F42FF2D6 
 384      21D8
 385 0a22 F1EE83D5 		.ascii	"\361\356\203\325\355h\351O\276h\331\200@g\022\214\353"
 385      ED68E94F 
 385      BE68D980 
 385      4067128C 
 385      EB
 386 0a33 33D9D667 		.ascii	"3\331\326g\264\255\317\027ot\352\227\371T\376\2578F"
 386      B4ADCF17 
 386      6F74EA97 
 386      F954FEAF 
 386      3846
 387 0a45 134CEDA1 		.ascii	"\023L\355\241Kv\234\327\000\326x\036\213\353B\211\205"
 387      4B769CD7 
 387      00D6781E 
 387      8BEB4289 
 387      85
 388 0a56 B52CFBA8 		.ascii	"\265,\373\250\266\311\023\177\033\224\345\2137\372\305"
 388      B6C9137F 
 388      1B94E58B 
 388      37FAC5
 389 0a65 9CE81BB3 		.ascii	"\234\350\033\263\023\231\350j\355\311\311\334V\273m"
 389      1399E86A 
 389      EDC9C9DC 
 389      56BB6D
 390 0a74 DCA95B25 		.ascii	"\334\251[%=\315\377\006pK\025\365j\373\355\255\373\006"
 390      3DCDFF06 
 390      704B15F5 
 390      6AFBEDAD 
 390      FB06
 391 0a86 D64CAB68 		.ascii	"\326L\253hR\256\222\011\344\374\373\301\006\217\351"
 391      52AE9209 
 391      E4FCFBC1 
 391      068FE9
 392 0a95 FB41FA69 		.ascii	"\373A\372i\031\363\001!\254k3\215V\177\226\373@Q\346"
 392      19F30121 
 392      AC6B338D 
 392      567F96FB 
ARM GAS  /var/folders/c6/c789hm653lg9vtl73krp73tm0000gn/T//ccVgLuPk.s 			page 31


 392      4051E6
 393 0aa8 2AEF4BAF 		.ascii	"*\357K\257\351\037\257\256\305\036[<\003,\351\304\276"
 393      E91FAFAE 
 393      C51E5B3C 
 393      032CE9C4 
 393      BE
 394 0ab9 81FB7B6E 		.ascii	"\201\373{n%y{\367\236\362vo\036\271\342\264Q\006\323"
 394      25797BF7 
 394      9EF2766F 
 394      1EB9E2B4 
 394      5106D3
 395 0acc 6EF308EC 		.ascii	"n\363\010\354\015\"`]\273zO\242\2629\027m\227&Z\\\032"
 395      0D22605D 
 395      BB7A4FA2 
 395      B239176D 
 395      97265A5C 
 396 0ae1 815B6F12 		.ascii	"\201[o\022E\343\011\256\325\212'\306\322N3K\237%\262"
 396      45E309AE 
 396      D58A27C6 
 396      D24E334B 
 396      9F25B2
 397 0af4 D47E557D 		.ascii	"\324~U}\320\230U=\265\275\263s\200s\236\366X\251;\366"
 397      D098553D 
 397      B5BDB373 
 397      80739EF6 
 397      58A93BF6 
 398 0b08 A38146CA 		.ascii	"\243\201F\312\330\357=Tm\354\267\235\006yP\244\255\326"
 398      D8EF3D54 
 398      6DECB79D 
 398      067950A4 
 398      ADD6
 399 0b1a D659A05B 		.ascii	"\326Y\240[G\344?\365\220\325\264\232\334:\332\260V2"
 399      47E43FF5 
 399      90D5B49A 
 399      DC3ADAB0 
 399      5632
 400 0b2c 8C7EC1F7 		.ascii	"\214~\301\3679\002\333\017Cn\3510u\316t\262\272\024"
 400      3902DB0F 
 400      436EE930 
 400      75CE74B2 
 400      BA14
 401 0b3e F44F499B 		.ascii	"\364OI\233\272\030\272\207\241\270\221P\304\375\323"
 401      BA18BA87 
 401      A1B89150 
 401      C4FDD3
 402 0b4d 912E468D 		.ascii	"\221.F\215\210;\221\242vVM\253\343\225\324\230\315T"
 402      883B91A2 
 402      76564DAB 
 402      E395D498 
 402      CD54
 403 0b5f B3CD1A2D 		.ascii	"\263\315\032-m\326r\200\332l\331H\347Fkv0GZ\273\230"
 403      6DD67280 
 403      DA6CD948 
 403      E7466B76 
 403      30475ABB 
 404 0b74 23BA158E 		.ascii	"#\272\025\2168\232#\212i\216\0341\013\327b!\\u\373\234"
 404      389A238A 
ARM GAS  /var/folders/c6/c789hm653lg9vtl73krp73tm0000gn/T//ccVgLuPk.s 			page 32


 404      698E1C31 
 404      0BD76221 
 404      5C75FB9C 
 405 0b88 DD7B7E5C 		.ascii	"\335{~\\[\257T\316T\036t\276\305\323\031 p\017\022|"
 405      5BAF54CE 
 405      541E74BE 
 405      C5D31920 
 405      700F127C 
 406 0b9c 9E627C65 		.ascii	"\236b|e\205\241^o|W\341\335\272\365q\263\206\350\007"
 406      85A15E6F 
 406      7C57E1DD 
 406      BAF571B3 
 406      86E807
 407 0baf A5060DBD 		.ascii	"\245\006\015\275\223e\315\306IK6\332\342lPx\201[`\003"
 407      9365CDC6 
 407      494B36DA 
 407      E26C5078 
 407      815B6003 
 408 0bc3 F0B511E0 		.ascii	"\360\265\021\340\357\270\345D\027\267\033\017\366\375"
 408      EFB8E544 
 408      17B71B0F 
 408      F6FD
 409 0bd1 7D8552B9 		.ascii	"}\205R\271\021$\350\344;G8\370\252S\177#r\257\231~f"
 409      1124E8E4 
 409      3B4738F8 
 409      AA537F23 
 409      72AF997E 
 410 0be6 D9864BB0 		.ascii	"\331\206K\260\025Y\346\234G\277\356d8hf\266\030-\270"
 410      1559E69C 
 410      47BFEE64 
 410      386866B6 
 410      182DB8
 411 0bf9 C568C52D 		.ascii	"\305h\305-\306a\254g\343\266b\021\326\213\261^m\\{\254"
 411      C661AC67 
 411      E3B66211 
 411      D68BB15E 
 411      6D5C7BAC 
 412 0c0d 8F51B0E6 		.ascii	"\217Q\260\346\013\217L\343B\232\336\357\264\331\254"
 412      0B8F4CE3 
 412      429ADEEF 
 412      B4D9AC
 413 0c1c 917097EE 		.ascii	"\221p\227\356\311\264\031E\\\303n\324\271\370(\314\216"
 413      C9B41945 
 413      5CC36ED4 
 413      B9F828CC 
 413      8E
 414 0c2d D392AE03 		.ascii	"\323\222\256\003\301\263Q\344\256WuV\007\322\251:\324"
 414      C1B351E4 
 414      AE577556 
 414      07D2A93A 
 414      D4
 415 0c3e AFE30668 		.ascii	"\257\343\006h=w\242t\032._:\320\002\347\263,\027\301"
 415      3D77A274 
 415      1A2E5F3A 
 415      D002E7B3 
 415      2C17C1
 416 0c51 F63884A9 		.ascii	"\3668\204\251\213\346E\360\017'\361\323\334\213\216"
ARM GAS  /var/folders/c6/c789hm653lg9vtl73krp73tm0000gn/T//ccVgLuPk.s 			page 33


 416      8BE645F0 
 416      0F27F1D3 
 416      DC8B8E
 417 0c60 363D9DB1 		.ascii	"6=\235\261\255\374y\\\370\\E\026.\272_\216jx\325\247"
 417      ADFC795C 
 417      F85C4516 
 417      2EBA5F8E 
 417      6A78D5A7 
 418 0c74 70834BC1 		.ascii	"p\203K\301n\272\006\3136\200\315e\301\3568\001\263;"
 418      6EBA06CB 
 418      3680CD65 
 418      C1EE3801 
 418      B33B
 419 0c86 6400B0F9 		.ascii	"d\000\260\371,\330\017\256\301\214\234\325\260`\025"
 419      2CD80FAE 
 419      C18C9CD5 
 419      B06015
 420 0c95 3D1C80D9 		.ascii	"=\034\200\331\2350\000X-\013\366\266k0#g\213X\260\231"
 420      9D300058 
 420      2D0BF6B6 
 420      6B302367 
 420      8B58B099 
 421 0ca9 4EC0EC3E 		.ascii	"N\300\354>\312\001\260\305,\330l\327`F\316\226\262`"
 421      CA01B0C5 
 421      2CD86CD7 
 421      6046CE96 
 421      B260
 422 0cbb 0B9C8065 		.ascii	"\013\234\200e\333s\266\201\005[\344\032\314\310Y=\013"
 422      DB73B681 
 422      055BE41A 
 422      CCC8593D 
 422      0B
 423 0ccc B6D40998 		.ascii	"\266\324\011\230\335)3\200mf\301V\270\0063r\326\300"
 423      DD293380 
 423      6D66C156 
 423      B8063372 
 423      D6C0
 424 0cde 82AD7202 		.ascii	"\202\255r\002f\267?\257\234\252n\373\267jQ\337\265\221"
 424      66B73FAF 
 424      9CAA6EFB 
 424      B76A51DF 
 424      B591
 425 0cf0 D048502D 		.ascii	"\320HP-W\341\344\2776\306\273\221m\255M7\221\257\362"
 425      57E1E4BF 
 425      36C6BB91 
 425      6DAD4D37 
 425      91AFF2
 426 0d03 BADD5D4C 		.ascii	"\272\335]L\367Z\357.\342)\224\355E\326\334f\261-\267"
 426      F75AEF2E 
 426      E22994ED 
 426      45D6DC66 
 426      B12DB7
 427 0d16 0C76A7EB 		.ascii	"\014v\247\353\240\304OY%\256w\242\304\221\366`;Y\260"
 427      A0C44F59 
 427      25AE77A2 
 427      C491F660 
 427      3B59B0
ARM GAS  /var/folders/c6/c789hm653lg9vtl73krp73tm0000gn/T//ccVgLuPk.s 			page 34


 428 0d29 4D4EC05E 		.ascii	"MN\300^\263\367\225\317X\260\255\256\301\214\2345\263"
 428      B3F795CF 
 428      58B0ADAE 
 428      C18C9C35 
 428      B3
 429 0d3a 603B9D80 		.ascii	"`;\235\200\275i\317Y\013\013\266\3335\030\313\331T\365"
 429      BD69CF59 
 429      0B0BB6DB 
 429      3518CBD9 
 429      54F5
 430 0d4c 68DCF1C8 		.ascii	"h\334\361\310\377}0x\236a+\036s<\332\215\361<S7\221"
 430      FF7D3078 
 430      9E612B1E 
 430      733CDA8D 
 430      F13C5337 
 431 0d61 5FE0DAF1 		.ascii	"_\340\332\361jl\034\217\335q\307{\221/\364\315b\033"
 431      6A6C1C8F 
 431      DD71C77B 
 431      912FF4CD 
 431      621B
 432 0d73 98D09AE3 		.ascii	"\230\320\232\343-thu\261\211Z\344/\341\321\314e\\$}"
 432      2D746875 
 432      B1895AE4 
 432      2FE1D1CC 
 432      655C247D 
 433 0d87 83F515AC 		.ascii	"\203\365\025\254\257b}\035\353\233X\337\302\372\016"
 433      AF627D1D 
 433      EB9B58DF 
 433      C2FA0E
 434 0d96 D6F7B0BE 		.ascii	"\326\367\260\276\217\365\003\254\025/\036\357c]\211"
 434      8FF503AC 
 434      152F1EEF 
 434      635D89
 435 0da5 F54CAC67 		.ascii	"\365L\254ga\375\036\326\263\261\236\203\365</\263 3"
 435      61FD1ED6 
 435      B3B19E83 
 435      F53C2FB3 
 435      2033
 436 0db7 AD943A92 		.ascii	"\255\224:\222\254\257j\275v\353\253\343I\326W\357\307"
 436      ACAF6ABD 
 436      76EBABE3 
 436      49D657EF 
 436      C7
 437 0dc8 4769BBF7 		.ascii	"Gi\273\367-W\366\365\373=\371\206\235,\334\247V\362"
 437      2D57F6F5 
 437      FB3DF986 
 437      9D2CDCA7 
 437      56F2
 438 0dda FAD2FD56 		.ascii	"\372\322\375V\017'\333\325E^\323\356\340w\336\204%5"
 438      0F27DBD5 
 438      455ED3EE 
 438      E077DE84 
 438      2535
 439 0dec 10D97EFD 		.ascii	"\020\331~\375\314?mg\210\230\226\367\015\274\275\217"
 439      CC3F6D67 
 439      889896F7 
 439      0DBCBD8F 
ARM GAS  /var/folders/c6/c789hm653lg9vtl73krp73tm0000gn/T//ccVgLuPk.s 			page 35


 440 0dfc 2CF5266E 		.ascii	",\365&n\245?\356i\311[\205R\277Z\361\351{Y\221_\342"
 440      A53FEE69 
 440      C95B8552 
 440      BF5AF1E9 
 440      7B59915F 
 441 0e11 B5DEF068 		.ascii	"\265\336\360hx\313,Y\335|e\337\323\344e\273\322\331"
 441      78CB2C59 
 441      DD7C65DF 
 441      D3E465BB 
 441      D2D9
 442 0e23 F9D63394 		.ascii	"\371\3263\224\274\300}\346\214\340\362\344\004WX\022"
 442      BCC07DE6 
 442      8CE0F2E4 
 442      04575812 
 443 0e33 3C7AEBEE 		.ascii	"<z\353\356\200\004\202\025\275\034\021\37409\301\225"
 443      80048215 
 443      BD1C11FC 
 443      3039C195 
 444 0e43 9604B75C 		.ascii	"\226\004\267\\\271\364c\243\305\265M\216\211\246\266"
 444      B9F463A3 
 444      C5B54D8E 
 444      89A6B6
 445 0e52 8F3C16DF 		.ascii	"\217<\026\337\226\257\305\036\037\331\020\215\035\""
 445      96AFC51E 
 445      1FD9108D 
 445      1D22
 446 0e60 688E7242 		.ascii	"h\216rBy\263o\314Q>2;\312jo\302\326\251\271\271\375"
 446      79B36FCC 
 446      513E323B 
 446      CA6A6FC2 
 446      D6A9B9B9 
 447 0e75 F6D63303 		.ascii	"\366\3263\003\347)\025\265J\245\332\331\311\017\320"
 447      E72915B5 
 447      4AA5DAD9 
 447      C90FD0
 448 0e84 935EADF1 		.ascii	"\223^\255\361\324\277H'\333\003\307\262\275\026\331"
 448      D4BF4827 
 448      DB03C7B2 
 448      BD16D9
 449 0e93 F612F9F5 		.ascii	"\366\022\371\365\256\003\324'6\001*\313 \312'\361\000"
 449      AE03D427 
 449      36012ACB 
 449      20CA27F1 
 449      00
 450 0ea4 F5096A88 		.ascii	"\365\011j\210\331i\233\230\020\270m\275\364c\300\014"
 450      D9699B98 
 450      10B86DBD 
 450      F463C00C 
 451 0eb4 9E31C9DD 		.ascii	"\2361\311\335\276V&i\2646\311)\335$\260u\367\222\255"
 451      BE562669 
 451      B436C929 
 451      DD24B075 
 451      F792AD
 452 0ec7 7D7D774C 		.ascii	"}}wLRo6\311&\033\223\\\352\337\265I\306\353d3\223\231"
 452      526F36C9 
 452      261B935C 
 452      EADFB549 
ARM GAS  /var/folders/c6/c789hm653lg9vtl73krp73tm0000gn/T//ccVgLuPk.s 			page 36


 452      C6EB6433 
 453 0edd C4D44BE4 		.ascii	"\304\324K\344\267\2716\311v\033\223d\030D\321{As\203"
 453      B7B936C9 
 453      761B9364 
 453      1844D17B 
 453      417383
 454 0ef0 D7740465 		.ascii	"\327t\004ebB\340\376d0\211)\2326$\211\246;\342\321\224"
 454      6242E0FE 
 454      64308929 
 454      9A362489 
 454      A63BE2D1 
 455 0f05 7B76E0C0 		.ascii	"{v\340\300\034\372/\024\315\211\3109\305\245\201\222"
 455      1CFA2F14 
 455      CD89C839 
 455      C5A58192 
 456 0f15 B2022927 		.ascii	"\262\002)'P\024\235\022\225\247\204\245\350\300\"\356"
 456      50149D12 
 456      95A784A5 
 456      E8C022EE 
 457 0f25 89F2E288 		.ascii	"\211\362\342\210\\&\226\370\345\342\240\024\211\372"
 457      5C2696F8 
 457      E5E2A014 
 457      89FA
 458 0f33 4B8AA3B2 		.ascii	"K\212\243\262_N}\365\227\277\312\316\343\236\014\024"
 458      5F4E7DF5 
 458      97BFCACE 
 458      E39E0C14 
 459 0f43 F92D9E67 		.ascii	"\371-\236g\333\003\007\212\012\000\264\227a\220_\356"
 459      DB03078A 
 459      0A00B497 
 459      61905FEE 
 460 0f53 6DC6492B 		.ascii	"m\306I+\227\375\245\322d\231\374\015G\244r\037\341\010"
 460      97FDA5D2 
 460      6499FC0D 
 460      47A4721F 
 460      E108
 461 0f65 1EF8E537 		.ascii	"\036\370\3457r\312\242\221\234\222P@,\311\311\223JJ"
 461      72CAA291 
 461      9C925040 
 461      2CC9C993 
 461      4A4A
 462 0f77 C4484E61 		.ascii	"\304HNa \360\274\030\011>_\032*\225\236\227\304\011"
 462      20F0BC18 
 462      093E5F1A 
 462      2A959E97 
 462      C409
 463 0f89 C5398373 		.ascii	"\3059\203s\007\015\311\035\236\373b\216\361\266\316"
 463      070DC91D 
 463      9EFB628E 
 463      F1B6CE
 464 0f98 47542E28 		.ascii	"GT.(.\225\201\217"
 464      2E95818F 
 465 0fa0 F432F8FB 		.ascii	"\3642\370\373\302`\277\374\357\217\0005(\006\212\212"
 465      C260BFFC 
 465      EF8F0035 
 465      28068A8A 
 466 0fb0 4BA51C7F 		.ascii	"K\245\034\177\2014Q,+\001-i*\314\360\373u:\351 O\201"
ARM GAS  /var/folders/c6/c789hm653lg9vtl73krp73tm0000gn/T//ccVgLuPk.s 			page 37


 466      8134512C 
 466      2B012D69 
 466      2ACCF0FB 
 466      753AE920 
 467 0fc6 54228BD0 		.ascii	"T\"\213\320\230XV\032\360\243\204\244\225J$\025#\231"
 467      9858561A 
 467      F0A384A4 
 467      954A2415 
 467      2399
 468 0fd8 F0A7448C 		.ascii	"\360\247D\214\312DX\270E\264\351\003\345\020\361\245"
 468      CA4458B8 
 468      45B4E903 
 468      E510F1A5 
 469 0fe8 60564412 		.ascii	"`VD\022\013\246h&\350\001\267\343\277{\311E\344G\324"
 469      0BA66826 
 469      E801B7E3 
 469      BF7BC945 
 469      E447D4
 470 0ffb FF5F6552 		.ascii	"\377_eR\231"
 470      99
 471 1000 44356AB8 		.ascii	"D5j\270\225N\177\371\021\216\266S\303\250c\370CT<\304"
 471      954E7FF9 
 471      118EB653 
 471      C3A863F8 
 471      43543CC4 
 472 1014 64B47028 		.ascii	"d\264p(\"GsF\345\217\311\03339'\020\012\206\213K\300"
 472      22477346 
 472      E58FC91B 
 472      33392710 
 472      0A868B4B 
 473 1029 BE39AFE6 		.ascii	"\2769\257\346\345\201\035u\321\322\344p\2448\344\247"
 473      E5811D75 
 473      D1D2E470 
 473      A438E4A7 
 474 1039 18C5A1B4 		.ascii	"\030\305\241\264@\250T\006\310\347\222b\025\005B\021"
 474      40A85406 
 474      C8E79262 
 474      15054211 
 475 1049 09066792 		.ascii	"\011\006g\222\333~\320L@\236\374\263\256G\370\313\207"
 475      DB7ED04C 
 475      409EFCB3 
 475      AE47F8CB 
 475      87
 476 105a 0589CD22 		.ascii	"\005\211\315\"R!\030\300/\013\221!B\344E!2T\210\014"
 476      522118C0 
 476      2F0B9121 
 476      42E44521 
 476      3254880C 
 477 106e 1322C385 		.ascii	"\023\"\303\205\310K\236\310\240\\(\203\204\222\010\374"
 477      C84B9EC8 
 477      A05C2883 
 477      849208FC 
 478 107e 792125EC 		.ascii	"y!%\354\007\3444\"\345$p\251\260?TR E\274\201\"1BD\027"
 478      07E43422 
 478      E52470A9 
 478      B03F5452 
 478      2045BC81 
ARM GAS  /var/folders/c6/c789hm653lg9vtl73krp73tm0000gn/T//ccVgLuPk.s 			page 38


 479 1097 83A094A8 		.ascii	"\203\240\224\250,\312\240\2564b\240\341\240\034j*hA"
 479      2CCAA0AE 
 479      3462A0E1 
 479      A01C6A2A 
 479      6841
 480 10a9 777C9626 		.ascii	"w|\226&\007C\005\022\376\236X\"\026F\323\344\21041\212"
 480      07430512 
 480      FE9E5822 
 480      1646D3E4 
 480      8834318A 
 481 10bd 1293464A 		.ascii	"\022\223FJ0Z\010\0175\363\302p\255\225\032)\230\002"
 481      305A080F 
 481      35F3C270 
 481      AD951A29 
 481      9802
 482 10cf 8FD2A5C9 		.ascii	"\217\322\245\311\305r\000\000R'\311\241\011\377\031"
 482      C5720000 
 482      5227C9A1 
 482      09FF19
 483 10de EEA35901 		.ascii	"\356\243Y\001\206J\021\2514\000\300)\223d9\022\316\""
 483      864A11A9 
 483      3400C029 
 483      93643912 
 483      CE22
 484 10f0 46968262 		.ascii	"F\226\202b\270\010$\035`?\177$\242\2024\315\246)\201"
 484      B808241D 
 484      603F7F24 
 484      A28234CD 
 484      A62981
 485 1103 52708494 		.ascii	"Rp\204\224\250\037\376\002\001x\030N\007\234`\031\330"
 485      A81FFE02 
 485      0178184E 
 485      079C6019 
 485      D8
 486 1114 C01E2328 		.ascii	"\300\036#(O&\030A\212\001\177C\223JA=8\012\030\017R"
 486      4F261841 
 486      8A017F43 
 486      934A413D 
 486      380A180F 
 487 1129 A7982443 		.ascii	"\247\230$C\277p\246T.\225\312A1\372\033x\"M\"\015O\330"
 487      BF70A654 
 487      2E95CA41 
 487      31FA1B78 
 487      224D220D 
 488 113f 5FD65377 		.ascii	"_\326Sw-\352\212\275\030gC\217\015\373'\211\305rqia"
 488      2DEA8ABD 
 488      1867438F 
 488      0DFB2789 
 488      C5727169 
 489 1154 46D80F5A 		.ascii	"F\330\017Z\240\314b\023nHa\251\024\346_!\364\002\022"
 489      A0CC6213 
 489      6E4861A9 
 489      14E65F21 
 489      F40212
 490 1167 A47F06D1 		.ascii	"\244\177\006\321\245X\202\036\0047\303\241PIZ\204\262"
 490      A558821E 
 490      0437C3A1 
ARM GAS  /var/folders/c6/c789hm653lg9vtl73krp73tm0000gn/T//ccVgLuPk.s 			page 39


 490      50495A84 
 490      B2
 491 1178 971A41C7 		.ascii	"\227\032A\307J\211\240)#\232)#\324\224>\270[\026\001"
 491      4A89A029 
 491      239A2923 
 491      D4943EB8 
 491      5B1601
 492 118b 3DCA2911 		.ascii	"=\312)\021\202\323\223N\023\230a\023\312\012)[\354\035"
 492      82D3934E 
 492      13986113 
 492      CA0A295B 
 492      EC1D
 493 119d 5F582C2D 		.ascii	"_X,-\016\020.<\005\023\0123\202\"\330\012\271\376[["
 493      0E102E3C 
 493      05130A33 
 493      8222D80A 
 493      B9FE5B5B 
 494 11b1 5DC944DD 		.ascii	"]\311D\335\275\345\240\037\002C\361\204\210(\027\207"
 494      BDE5A01F 
 494      0243F184 
 494      88281787 
 495 11c1 4AC1DC11 		.ascii	"J\301\334\021\0315\237\032\23281*\311\202\034\314\210"
 495      19359F1A 
 495      9A38312A 
 495      C9821CCC 
 495      88
 496 11d2 CABF811E 		.ascii	"\312\277\201\036\205\360\020c\312\320!~Y\233\366\244"
 496      85F01063 
 496      CAD0217E 
 496      599BF6A4 
 497 11e2 D9B3B8A0 		.ascii	"\331\263\270\240D\322T\004\252\351g\242\027\215\004"
 497      44D25404 
 497      AAE967A2 
 497      178D04
 498 11f1 8056B93C 		.ascii	"\200V\271<0\300=\036(\372\327q\243C\371\022\340\276"
 498      30C03D1E 
 498      28FAD771 
 498      A343F912 
 498      E0BE
 499 1203 3E100282 		.ascii	">\020\002\202<0\327S.\207\323\375\345d\252\024\313\031"
 499      3C30D753 
 499      2E87D3FD 
 499      E564AA14 
 499      CB19
 500 1215 B4C35878 		.ascii	"\264\303Xx\234\002\221D\234\222J#\211\007\372f\261\203"
 500      9C029144 
 500      9C924A23 
 500      8907FA66 
 500      B183
 501 1227 9F668914 		.ascii	"\237f\211\024A\\\213G?2\367\242\362X9\024\036\005\221"
 501      415C8B47 
 501      3F32F7A2 
 501      F2583914 
 501      1E0591
 502 123a 8E300F70 		.ascii	"\2160\017p\330\314\"\267\201(\376\310\214\353O\026\002"
 502      D8CC22B7 
 502      8128FEC8 
ARM GAS  /var/folders/c6/c789hm653lg9vtl73krp73tm0000gn/T//ccVgLuPk.s 			page 40


 502      8CEB4F16 
 502      02
 503 124b 4583CD80 		.ascii	"E\203\315\200t\216\216\0357\346\205\3019o\2741:g\334"
 503      748E8E1D 
 503      37E685C1 
 503      396FBC31 
 503      3A67DC
 504 125e EB63CA07 		.ascii	"\353c\312\007\001|\220L\200\342 \245\242\375\360\313"
 504      017C904C 
 504      80E220A5 
 504      A2FDF0CB 
 505 126e 9EBCFC41 		.ascii	"\236\274\374AP\006{\307\216\311\313\367\216~\375\225"
 505      50067BC7 
 505      8EC9CBF7 
 505      8E7EFD95 
 506 127e 7C616CBE 		.ascii	"|al\276\347\225W\363S\362\362\306\344\017\302z\2607"
 506      E79557F3 
 506      53F2F2C6 
 506      E40FC27A 
 506      B037
 507 1290 2FEF957C 		.ascii	"/\357\225|O\336/\307y\336\034\233\347\031\225\237\357"
 507      4FDE2FC7 
 507      79DE1C9B 
 507      E719959F 
 507      EF
 508 12a1 C9CF83DF 		.ascii	"\311\317\203\3370\340\237G\217\313\367\214&#\307\214"
 508      30E09F47 
 508      8FCBF78C 
 508      2623C78C 
 509 12b1 CA17FE85 		.ascii	"\312\027\376\205\216z\001\372\217\317\377\205\203\330"
 509      8E7A01FA 
 509      8FCFFF85 
 509      83D8
 510 12bf 815985A4 		.ascii	"\201Y\205\2443\21494\355DA\001~\221Hj\357\000\345DY"
 510      338C3934 
 510      ED444101 
 510      7E91486A 
 510      EF00E544 
 511 12d4 7D885E5F 		.ascii	"}\210^_\225\344\261\250\214q0x\374\343\014N\241D[9N"
 511      95E4B1A8 
 511      8C713078 
 511      FCE30C4E 
 511      A1445B39 
 512 12e9 15E42F29 		.ascii	"\025\344/)!Y\260\017m\341\370@\250\014\"g\344G,{p\033"
 512      2159B00F 
 512      6DE1F840 
 512      A80C2267 
 512      E4472C7B 
 513 12ff B9F392DF 		.ascii	"\271\363\222\337\351~L\023~\177\017\2751p\350\213\271"
 513      E97E4C13 
 513      7E7F0FBD 
 513      3170E88B 
 513      B9
 514 1310 2F3E6990 		.ascii	"/>i\220\007,G\2070\235\206\2744\354\377\000+\356\001"
 514      072C4787 
 514      309D86BC 
 514      34ECFF00 
ARM GAS  /var/folders/c6/c789hm653lg9vtl73krp73tm0000gn/T//ccVgLuPk.s 			page 41


 514      2BEE01
 515 1323 A2       		.ascii	"\242"
 516              		.text
 517              		.section	.gnu.lto_.symtab.eacdcbde129e3cd6,"",%progbits
 518 0000 5F76745F 		.ascii	"_vt_init\000\000\000\000\000\000\000\000\000\000\000"
 518      696E6974 
 518      00000000 
 518      00000000 
 518      000000
 519 0013 00BC0100 		.ascii	"\000\274\001\000\000chVTDoSetI\000\000\000\000\000\000"
 519      00636856 
 519      54446F53 
 519      65744900 
 519      00000000 
 520 0028 00000000 		.ascii	"\000\000\000\000\000\000\300\001\000\000chVTDoReset"
 520      0000C001 
 520      00006368 
 520      5654446F 
 520      52657365 
 521 003d 49000000 		.ascii	"I\000\000\000\000\000\000\000\000\000\000\000\000\317"
 521      00000000 
 521      00000000 
 521      00CF
 522 004b 01000063 		.ascii	"\001\000\000ch\000\000\002\000\000\000\000\000\000\000"
 522      68000002 
 522      00000000 
 522      000000
 523 005a 0000DD01 		.ascii	"\000\000\335\001\000\000stStopAlarm\000\000\002\000"
 523      00007374 
 523      53746F70 
 523      416C6172 
 523      6D000002 
 524 006f 00000000 		.ascii	"\000\000\000\000\000\000\000\000\325\001\000\000stS"
 524      00000000 
 524      D5010000 
 524      737453
 525 007e 6574416C 		.ascii	"etAlarm\000\000\002\000\000\000\000\000\000\000\000"
 525      61726D00 
 525      00020000 
 525      00000000 
 525      0000
 526 0090 00D70100 		.ascii	"\000\327\001\000\000stStartAlarm\000\000\002\000\000"
 526      00737453 
 526      74617274 
 526      416C6172 
 526      6D000002 
 527 00a6 00000000 		.ascii	"\000\000\000\000\000\000\000\333\001\000\000"
 527      000000DB 
 527      010000
 528              		.text
 529              		.section	.gnu.lto_.opts,"",%progbits
 530 0000 272D6D63 		.ascii	"'-mcpu=cortex-m4' '-mno-thumb-interwork' '-mthumb' "
 530      70753D63 
 530      6F727465 
 530      782D6D34 
 530      2720272D 
 531 0033 272D6767 		.ascii	"'-ggdb' '-O2' '-fomit-frame-pointer' '-falign-funct"
ARM GAS  /var/folders/c6/c789hm653lg9vtl73krp73tm0000gn/T//ccVgLuPk.s 			page 42


 531      64622720 
 531      272D4F32 
 531      2720272D 
 531      666F6D69 
 532 0066 696F6E73 		.ascii	"ions=16' '-ffunction-sections' '-fdata-sections' '-"
 532      3D313627 
 532      20272D66 
 532      66756E63 
 532      74696F6E 
 533 0099 666E6F2D 		.ascii	"fno-common' '-flto'\000"
 533      636F6D6D 
 533      6F6E2720 
 533      272D666C 
 533      746F2700 
 534              		.text
 535              		.cfi_sections	.debug_frame
 536              		.section	.text._vt_init,"ax",%progbits
 537              		.align	2
 538              		.p2align 4,,15
 539              		.global	_vt_init
 540              		.thumb
 541              		.thumb_func
 542              		.type	_vt_init, %function
 543              	_vt_init:
 544              	.LFB229:
 545              		.file 1 "../../../os/rt/src/chvt.c"
 546              		.loc 1 61 0
 547              		.cfi_startproc
 548              		@ args = 0, pretend = 0, frame = 0
 549              		@ frame_needed = 0, uses_anonymous_args = 0
 550              		@ link register save eliminated.
 551              		.loc 1 63 0
 552 0000 054B     		ldr	r3, .L2
 553              		.loc 1 65 0
 554 0002 4FF0FF30 		mov	r0, #-1
 555              		.loc 1 63 0
 556 0006 03F11C02 		add	r2, r3, #28
 557              		.loc 1 69 0
 558 000a 0021     		movs	r1, #0
 559              		.loc 1 65 0
 560 000c 5862     		str	r0, [r3, #36]
 561              		.loc 1 69 0
 562 000e 9962     		str	r1, [r3, #40]
 563              		.loc 1 63 0
 564 0010 DA61     		str	r2, [r3, #28]
 565              		.loc 1 64 0
 566 0012 1A62     		str	r2, [r3, #32]
 567 0014 7047     		bx	lr
 568              	.L3:
 569 0016 00BF     		.align	2
 570              	.L2:
 571 0018 00000000 		.word	ch
 572              		.cfi_endproc
 573              	.LFE229:
 574              		.size	_vt_init, .-_vt_init
 575 001c AFF30080 		.section	.text.chVTDoSetI,"ax",%progbits
 576              		.align	2
ARM GAS  /var/folders/c6/c789hm653lg9vtl73krp73tm0000gn/T//ccVgLuPk.s 			page 43


 577              		.p2align 4,,15
 578              		.global	chVTDoSetI
 579              		.thumb
 580              		.thumb_func
 581              		.type	chVTDoSetI, %function
 582              	chVTDoSetI:
 583              	.LFB230:
 584              		.loc 1 96 0
 585              		.cfi_startproc
 586              		@ args = 0, pretend = 0, frame = 0
 587              		@ frame_needed = 0, uses_anonymous_args = 0
 588              	.LVL0:
 589 0000 F8B5     		push	{r3, r4, r5, r6, r7, lr}
 590              		.cfi_def_cfa_offset 24
 591              		.cfi_offset 3, -24
 592              		.cfi_offset 4, -20
 593              		.cfi_offset 5, -16
 594              		.cfi_offset 6, -12
 595              		.cfi_offset 7, -8
 596              		.cfi_offset 14, -4
 597              	.LBB35:
 598              		.loc 1 117 0
 599 0002 1C4E     		ldr	r6, .L14
 600 0004 3446     		mov	r4, r6
 601              		.loc 1 113 0
 602 0006 0129     		cmp	r1, #1
 603 0008 98BF     		it	ls
 604 000a 0221     		movls	r1, #2
 605              	.LVL1:
 606              		.loc 1 117 0
 607 000c 54F81C7F 		ldr	r7, [r4, #28]!
 608              	.LBE35:
 609              		.loc 1 103 0
 610 0010 0361     		str	r3, [r0, #16]
 611              	.LBB50:
 612              	.LBB36:
 613              	.LBB37:
 614              	.LBB38:
 615              	.LBB39:
 616              		.file 2 "../../../os/hal/ports/STM32/LLD/TIMv1/st_lld.h"
 617              		.loc 2 129 0
 618 0012 4FF08043 		mov	r3, #1073741824
 619              	.LVL2:
 620              	.LBE39:
 621              	.LBE38:
 622              	.LBE37:
 623              	.LBE36:
 624              		.loc 1 117 0
 625 0016 A742     		cmp	r7, r4
 626              	.LBE50:
 627              		.loc 1 96 0
 628 0018 0546     		mov	r5, r0
 629              		.loc 1 104 0
 630 001a C260     		str	r2, [r0, #12]
 631              	.LBB51:
 632              	.LBB43:
 633              	.LBB42:
ARM GAS  /var/folders/c6/c789hm653lg9vtl73krp73tm0000gn/T//ccVgLuPk.s 			page 44


 634              	.LBB41:
 635              	.LBB40:
 636              		.loc 2 129 0
 637 001c 586A     		ldr	r0, [r3, #36]
 638              	.LVL3:
 639              	.LBE40:
 640              	.LBE41:
 641              	.LBE42:
 642              	.LBE43:
 643              		.loc 1 117 0
 644 001e 1ED0     		beq	.L12
 645              		.loc 1 136 0
 646 0020 B46A     		ldr	r4, [r6, #40]
 647              		.loc 1 137 0
 648 0022 BB68     		ldr	r3, [r7, #8]
 649              		.loc 1 136 0
 650 0024 0844     		add	r0, r0, r1
 651 0026 041B     		subs	r4, r0, r4
 652              	.LVL4:
 653              		.loc 1 137 0
 654 0028 9C42     		cmp	r4, r3
 655 002a 15D3     		bcc	.L13
 656              	.LVL5:
 657              	.L7:
 658              	.LBE51:
 659              		.loc 1 150 0
 660 002c F369     		ldr	r3, [r6, #28]
 661              	.LVL6:
 662              		.loc 1 151 0
 663 002e 9A68     		ldr	r2, [r3, #8]
 664 0030 9442     		cmp	r4, r2
 665 0032 04D9     		bls	.L8
 666              	.L9:
 667              		.loc 1 153 0
 668 0034 1B68     		ldr	r3, [r3]
 669              	.LVL7:
 670              		.loc 1 152 0
 671 0036 A41A     		subs	r4, r4, r2
 672              	.LVL8:
 673              		.loc 1 151 0
 674 0038 9A68     		ldr	r2, [r3, #8]
 675 003a A242     		cmp	r2, r4
 676 003c FAD3     		bcc	.L9
 677              	.L8:
 678              		.loc 1 158 0
 679 003e 5A68     		ldr	r2, [r3, #4]
 680 0040 6A60     		str	r2, [r5, #4]
 681              		.loc 1 157 0
 682 0042 2B60     		str	r3, [r5]
 683              		.loc 1 159 0
 684 0044 1560     		str	r5, [r2]
 685              		.loc 1 160 0
 686 0046 5D60     		str	r5, [r3, #4]
 687              		.loc 1 161 0
 688 0048 AC60     		str	r4, [r5, #8]
 689              		.loc 1 165 0
 690 004a 9A68     		ldr	r2, [r3, #8]
ARM GAS  /var/folders/c6/c789hm653lg9vtl73krp73tm0000gn/T//ccVgLuPk.s 			page 45


 691              		.loc 1 166 0
 692 004c 4FF0FF31 		mov	r1, #-1
 693              		.loc 1 165 0
 694 0050 141B     		subs	r4, r2, r4
 695              	.LVL9:
 696 0052 9C60     		str	r4, [r3, #8]
 697              	.LVL10:
 698              		.loc 1 166 0
 699 0054 7162     		str	r1, [r6, #36]
 700 0056 F8BD     		pop	{r3, r4, r5, r6, r7, pc}
 701              	.LVL11:
 702              	.L13:
 703              	.LBB52:
 704              	.LBB44:
 705              	.LBB45:
 706              		.file 3 "../../../os/rt/ports/ARMCMx/chcore_timer.h"
 707              		.loc 3 95 0
 708 0058 FFF7FEFF 		bl	stSetAlarm
 709              	.LVL12:
 710 005c E6E7     		b	.L7
 711              	.LVL13:
 712              	.L12:
 713              	.LBE45:
 714              	.LBE44:
 715              		.loc 1 121 0
 716 005e B062     		str	r0, [r6, #40]
 717              		.loc 1 122 0
 718 0060 F561     		str	r5, [r6, #28]
 719              		.loc 1 123 0
 720 0062 3562     		str	r5, [r6, #32]
 721              	.LBB46:
 722              	.LBB47:
 723              		.loc 3 73 0
 724 0064 0844     		add	r0, r0, r1
 725              	.LBE47:
 726              	.LBE46:
 727              		.loc 1 124 0
 728 0066 2F60     		str	r7, [r5]
 729              		.loc 1 125 0
 730 0068 6F60     		str	r7, [r5, #4]
 731              		.loc 1 126 0
 732 006a A960     		str	r1, [r5, #8]
 733              	.LVL14:
 734              	.LBE52:
 735              		.loc 1 167 0
 736 006c BDE8F840 		pop	{r3, r4, r5, r6, r7, lr}
 737              	.LVL15:
 738              	.LBB53:
 739              	.LBB49:
 740              	.LBB48:
 741              		.loc 3 73 0
 742 0070 FFF7FEBF 		b	stStartAlarm
 743              	.LVL16:
 744              	.L15:
 745              		.align	2
 746              	.L14:
 747 0074 00000000 		.word	ch
ARM GAS  /var/folders/c6/c789hm653lg9vtl73krp73tm0000gn/T//ccVgLuPk.s 			page 46


 748              	.LBE48:
 749              	.LBE49:
 750              	.LBE53:
 751              		.cfi_endproc
 752              	.LFE230:
 753              		.size	chVTDoSetI, .-chVTDoSetI
 754 0078 AFF30080 		.section	.text.chVTDoResetI,"ax",%progbits
 754      AFF30080 
 755              		.align	2
 756              		.p2align 4,,15
 757              		.global	chVTDoResetI
 758              		.thumb
 759              		.thumb_func
 760              		.type	chVTDoResetI, %function
 761              	chVTDoResetI:
 762              	.LFB231:
 763              		.loc 1 177 0
 764              		.cfi_startproc
 765              		@ args = 0, pretend = 0, frame = 0
 766              		@ frame_needed = 0, uses_anonymous_args = 0
 767              		@ link register save eliminated.
 768              	.LVL17:
 769              		.loc 1 201 0
 770 0000 1B4A     		ldr	r2, .L25
 771 0002 D369     		ldr	r3, [r2, #28]
 772 0004 8342     		cmp	r3, r0
 773              		.loc 1 177 0
 774 0006 10B4     		push	{r4}
 775              		.cfi_def_cfa_offset 4
 776              		.cfi_offset 4, -4
 777              		.loc 1 201 0
 778 0008 10D0     		beq	.L17
 779              		.loc 1 203 0
 780 000a 4168     		ldr	r1, [r0, #4]
 781 000c 0368     		ldr	r3, [r0]
 782 000e 0B60     		str	r3, [r1]
 783              		.loc 1 204 0
 784 0010 0368     		ldr	r3, [r0]
 785              		.loc 1 208 0
 786 0012 1C32     		adds	r2, r2, #28
 787              		.loc 1 205 0
 788 0014 0024     		movs	r4, #0
 789              		.loc 1 208 0
 790 0016 9342     		cmp	r3, r2
 791              		.loc 1 204 0
 792 0018 5960     		str	r1, [r3, #4]
 793              		.loc 1 205 0
 794 001a C460     		str	r4, [r0, #12]
 795              		.loc 1 208 0
 796 001c 03D0     		beq	.L16
 797              		.loc 1 209 0
 798 001e 8168     		ldr	r1, [r0, #8]
 799 0020 9A68     		ldr	r2, [r3, #8]
 800 0022 0A44     		add	r2, r2, r1
 801 0024 9A60     		str	r2, [r3, #8]
 802              	.LVL18:
 803              	.L16:
ARM GAS  /var/folders/c6/c789hm653lg9vtl73krp73tm0000gn/T//ccVgLuPk.s 			page 47


 804              		.loc 1 255 0
 805 0026 5DF8044B 		ldr	r4, [sp], #4
 806 002a 7047     		bx	lr
 807              	.LVL19:
 808              	.L17:
 809              	.LBB64:
 810              	.LBB65:
 811              		.loc 1 215 0
 812 002c 1046     		mov	r0, r2
 813              	.LVL20:
 814 002e 1968     		ldr	r1, [r3]
 815 0030 40F81C1F 		str	r1, [r0, #28]!
 816              		.loc 1 217 0
 817 0034 0024     		movs	r4, #0
 818              		.loc 1 220 0
 819 0036 8142     		cmp	r1, r0
 820              		.loc 1 216 0
 821 0038 4860     		str	r0, [r1, #4]
 822              		.loc 1 217 0
 823 003a DC60     		str	r4, [r3, #12]
 824              		.loc 1 220 0
 825 003c 13D0     		beq	.L24
 826              		.loc 1 227 0
 827 003e 8868     		ldr	r0, [r1, #8]
 828 0040 9B68     		ldr	r3, [r3, #8]
 829              	.LVL21:
 830              		.loc 1 236 0
 831 0042 926A     		ldr	r2, [r2, #40]
 832              		.loc 1 227 0
 833 0044 0344     		add	r3, r3, r0
 834              	.LBB66:
 835              	.LBB67:
 836              	.LBB68:
 837              	.LBB69:
 838              		.loc 2 129 0
 839 0046 4FF08040 		mov	r0, #1073741824
 840              	.LBE69:
 841              	.LBE68:
 842              	.LBE67:
 843              	.LBE66:
 844              		.loc 1 227 0
 845 004a 8B60     		str	r3, [r1, #8]
 846              	.LBB73:
 847              	.LBB72:
 848              	.LBB71:
 849              	.LBB70:
 850              		.loc 2 129 0
 851 004c 406A     		ldr	r0, [r0, #36]
 852              	.LBE70:
 853              	.LBE71:
 854              	.LBE72:
 855              	.LBE73:
 856              		.loc 1 236 0
 857 004e 821A     		subs	r2, r0, r2
 858              	.LVL22:
 859              		.loc 1 240 0
 860 0050 9342     		cmp	r3, r2
ARM GAS  /var/folders/c6/c789hm653lg9vtl73krp73tm0000gn/T//ccVgLuPk.s 			page 48


 861 0052 E8D9     		bls	.L16
 862              		.loc 1 245 0
 863 0054 9B1A     		subs	r3, r3, r2
 864              	.LVL23:
 865              		.loc 1 249 0
 866 0056 012B     		cmp	r3, #1
 867              		.loc 1 250 0
 868 0058 98BF     		it	ls
 869 005a 0223     		movls	r3, #2
 870              	.LVL24:
 871              	.LBB74:
 872              	.LBB75:
 873              		.loc 3 95 0
 874 005c 1844     		add	r0, r0, r3
 875              	.LVL25:
 876              	.LBE75:
 877              	.LBE74:
 878              	.LBE65:
 879              	.LBE64:
 880              		.loc 1 255 0
 881 005e 5DF8044B 		ldr	r4, [sp], #4
 882              	.LBB82:
 883              	.LBB80:
 884              	.LBB77:
 885              	.LBB76:
 886              		.loc 3 95 0
 887 0062 FFF7FEBF 		b	stSetAlarm
 888              	.LVL26:
 889              	.L24:
 890              	.LBE76:
 891              	.LBE77:
 892              	.LBE80:
 893              	.LBE82:
 894              		.loc 1 255 0
 895 0066 5DF8044B 		ldr	r4, [sp], #4
 896              	.LBB83:
 897              	.LBB81:
 898              	.LBB78:
 899              	.LBB79:
 900              		.loc 3 83 0
 901 006a FFF7FEBF 		b	stStopAlarm
 902              	.LVL27:
 903              	.L26:
 904 006e 00BF     		.align	2
 905              	.L25:
 906 0070 00000000 		.word	ch
 907              	.LBE79:
 908              	.LBE78:
 909              	.LBE81:
 910              	.LBE83:
 911              		.cfi_endproc
 912              	.LFE231:
 913              		.size	chVTDoResetI, .-chVTDoResetI
 914 0074 AFF30080 		.text
 914      AFF30080 
 914      AFF30080 
 915              	.Letext0:
ARM GAS  /var/folders/c6/c789hm653lg9vtl73krp73tm0000gn/T//ccVgLuPk.s 			page 49


 916              		.file 4 "/usr/local/Cellar/gcc-arm-none-eabi/20140805/arm-none-eabi/include/machine/_default_types
 917              		.file 5 "/usr/local/Cellar/gcc-arm-none-eabi/20140805/arm-none-eabi/include/stdint.h"
 918              		.file 6 "../../../os/rt/ports/ARMCMx/compilers/GCC/chtypes.h"
 919              		.file 7 "../../../os/rt/include/chsystypes.h"
 920              		.file 8 "../../../os/rt/include/chschd.h"
 921              		.file 9 "../../../os/rt/ports/ARMCMx/chcore.h"
 922              		.file 10 "../../../os/rt/ports/ARMCMx/chcore_v7m.h"
 923              		.file 11 "../../../os/hal/ports/STM32/LLD/TIMv1/stm32_tim.h"
 924              		.file 12 "../../../os/rt/include/chtm.h"
 925              		.file 13 "../../../os/rt/include/chsem.h"
 926              		.file 14 "../../../os/rt/include/chmtx.h"
 927              		.file 15 "../../../os/rt/include/chvt.h"
 928              		.file 16 "../../../os/hal/include/st.h"
 929              		.file 17 "../../../os/ext/CMSIS/include/core_cm4.h"
 930              		.section	.debug_info,"",%progbits
 931              	.Ldebug_info0:
 932 0000 3E0A0000 		.4byte	0xa3e
 933 0004 0400     		.2byte	0x4
 934 0006 00000000 		.4byte	.Ldebug_abbrev0
 935 000a 04       		.byte	0x4
 936 000b 01       		.uleb128 0x1
 937 000c 00000000 		.4byte	.LASF126
 938 0010 01       		.byte	0x1
 939 0011 FE050000 		.4byte	.LASF127
 940 0015 E9040000 		.4byte	.LASF128
 941 0019 B0000000 		.4byte	.Ldebug_ranges0+0xb0
 942 001d 00000000 		.4byte	0
 943 0021 00000000 		.4byte	.Ldebug_line0
 944 0025 02       		.uleb128 0x2
 945 0026 04       		.byte	0x4
 946 0027 05       		.byte	0x5
 947 0028 696E7400 		.ascii	"int\000"
 948 002c 03       		.uleb128 0x3
 949 002d 04       		.byte	0x4
 950 002e 07       		.byte	0x7
 951 002f 45050000 		.4byte	.LASF0
 952 0033 03       		.uleb128 0x3
 953 0034 01       		.byte	0x1
 954 0035 06       		.byte	0x6
 955 0036 E6010000 		.4byte	.LASF1
 956 003a 04       		.uleb128 0x4
 957 003b 1A010000 		.4byte	.LASF5
 958 003f 04       		.byte	0x4
 959 0040 1C       		.byte	0x1c
 960 0041 45000000 		.4byte	0x45
 961 0045 03       		.uleb128 0x3
 962 0046 01       		.byte	0x1
 963 0047 08       		.byte	0x8
 964 0048 18040000 		.4byte	.LASF2
 965 004c 03       		.uleb128 0x3
 966 004d 02       		.byte	0x2
 967 004e 05       		.byte	0x5
 968 004f 36040000 		.4byte	.LASF3
 969 0053 03       		.uleb128 0x3
 970 0054 02       		.byte	0x2
 971 0055 07       		.byte	0x7
 972 0056 42020000 		.4byte	.LASF4
ARM GAS  /var/folders/c6/c789hm653lg9vtl73krp73tm0000gn/T//ccVgLuPk.s 			page 50


 973 005a 04       		.uleb128 0x4
 974 005b 26030000 		.4byte	.LASF6
 975 005f 04       		.byte	0x4
 976 0060 37       		.byte	0x37
 977 0061 65000000 		.4byte	0x65
 978 0065 03       		.uleb128 0x3
 979 0066 04       		.byte	0x4
 980 0067 05       		.byte	0x5
 981 0068 0B020000 		.4byte	.LASF7
 982 006c 04       		.uleb128 0x4
 983 006d 8A050000 		.4byte	.LASF8
 984 0071 04       		.byte	0x4
 985 0072 38       		.byte	0x38
 986 0073 77000000 		.4byte	0x77
 987 0077 03       		.uleb128 0x3
 988 0078 04       		.byte	0x4
 989 0079 07       		.byte	0x7
 990 007a D7040000 		.4byte	.LASF9
 991 007e 03       		.uleb128 0x3
 992 007f 08       		.byte	0x8
 993 0080 05       		.byte	0x5
 994 0081 24020000 		.4byte	.LASF10
 995 0085 04       		.uleb128 0x4
 996 0086 CE030000 		.4byte	.LASF11
 997 008a 04       		.byte	0x4
 998 008b 4E       		.byte	0x4e
 999 008c 90000000 		.4byte	0x90
 1000 0090 03       		.uleb128 0x3
 1001 0091 08       		.byte	0x8
 1002 0092 07       		.byte	0x7
 1003 0093 59010000 		.4byte	.LASF12
 1004 0097 04       		.uleb128 0x4
 1005 0098 5D040000 		.4byte	.LASF13
 1006 009c 05       		.byte	0x5
 1007 009d 2A       		.byte	0x2a
 1008 009e 3A000000 		.4byte	0x3a
 1009 00a2 04       		.uleb128 0x4
 1010 00a3 10040000 		.4byte	.LASF14
 1011 00a7 05       		.byte	0x5
 1012 00a8 41       		.byte	0x41
 1013 00a9 5A000000 		.4byte	0x5a
 1014 00ad 04       		.uleb128 0x4
 1015 00ae A6040000 		.4byte	.LASF15
 1016 00b2 05       		.byte	0x5
 1017 00b3 42       		.byte	0x42
 1018 00b4 6C000000 		.4byte	0x6c
 1019 00b8 04       		.uleb128 0x4
 1020 00b9 05010000 		.4byte	.LASF16
 1021 00bd 05       		.byte	0x5
 1022 00be 4E       		.byte	0x4e
 1023 00bf 85000000 		.4byte	0x85
 1024 00c3 05       		.uleb128 0x5
 1025 00c4 A2000000 		.4byte	0xa2
 1026 00c8 05       		.uleb128 0x5
 1027 00c9 AD000000 		.4byte	0xad
 1028 00cd 04       		.uleb128 0x4
 1029 00ce CF050000 		.4byte	.LASF17
ARM GAS  /var/folders/c6/c789hm653lg9vtl73krp73tm0000gn/T//ccVgLuPk.s 			page 51


 1030 00d2 06       		.byte	0x6
 1031 00d3 45       		.byte	0x45
 1032 00d4 AD000000 		.4byte	0xad
 1033 00d8 04       		.uleb128 0x4
 1034 00d9 71060000 		.4byte	.LASF18
 1035 00dd 06       		.byte	0x6
 1036 00de 48       		.byte	0x48
 1037 00df 97000000 		.4byte	0x97
 1038 00e3 04       		.uleb128 0x4
 1039 00e4 14020000 		.4byte	.LASF19
 1040 00e8 06       		.byte	0x6
 1041 00e9 49       		.byte	0x49
 1042 00ea 97000000 		.4byte	0x97
 1043 00ee 04       		.uleb128 0x4
 1044 00ef D9030000 		.4byte	.LASF20
 1045 00f3 06       		.byte	0x6
 1046 00f4 4A       		.byte	0x4a
 1047 00f5 97000000 		.4byte	0x97
 1048 00f9 04       		.uleb128 0x4
 1049 00fa F8030000 		.4byte	.LASF21
 1050 00fe 06       		.byte	0x6
 1051 00ff 4C       		.byte	0x4c
 1052 0100 AD000000 		.4byte	0xad
 1053 0104 04       		.uleb128 0x4
 1054 0105 24010000 		.4byte	.LASF22
 1055 0109 06       		.byte	0x6
 1056 010a 4D       		.byte	0x4d
 1057 010b A2000000 		.4byte	0xa2
 1058 010f 04       		.uleb128 0x4
 1059 0110 0E010000 		.4byte	.LASF23
 1060 0114 06       		.byte	0x6
 1061 0115 4F       		.byte	0x4f
 1062 0116 AD000000 		.4byte	0xad
 1063 011a 04       		.uleb128 0x4
 1064 011b 8D020000 		.4byte	.LASF24
 1065 011f 06       		.byte	0x6
 1066 0120 51       		.byte	0x51
 1067 0121 A2000000 		.4byte	0xa2
 1068 0125 04       		.uleb128 0x4
 1069 0126 6C050000 		.4byte	.LASF25
 1070 012a 07       		.byte	0x7
 1071 012b 33       		.byte	0x33
 1072 012c AD000000 		.4byte	0xad
 1073 0130 04       		.uleb128 0x4
 1074 0131 57050000 		.4byte	.LASF26
 1075 0135 07       		.byte	0x7
 1076 0136 3F       		.byte	0x3f
 1077 0137 3B010000 		.4byte	0x13b
 1078 013b 06       		.uleb128 0x6
 1079 013c D4020000 		.4byte	.LASF46
 1080 0140 44       		.byte	0x44
 1081 0141 08       		.byte	0x8
 1082 0142 C2       		.byte	0xc2
 1083 0143 28020000 		.4byte	0x228
 1084 0147 07       		.uleb128 0x7
 1085 0148 56040000 		.4byte	.LASF27
 1086 014c 08       		.byte	0x8
ARM GAS  /var/folders/c6/c789hm653lg9vtl73krp73tm0000gn/T//ccVgLuPk.s 			page 52


 1087 014d C3       		.byte	0xc3
 1088 014e 33020000 		.4byte	0x233
 1089 0152 00       		.byte	0
 1090 0153 07       		.uleb128 0x7
 1091 0154 F1030000 		.4byte	.LASF28
 1092 0158 08       		.byte	0x8
 1093 0159 C5       		.byte	0xc5
 1094 015a 33020000 		.4byte	0x233
 1095 015e 04       		.byte	0x4
 1096 015f 07       		.uleb128 0x7
 1097 0160 CA010000 		.4byte	.LASF29
 1098 0164 08       		.byte	0x8
 1099 0165 C7       		.byte	0xc7
 1100 0166 F9000000 		.4byte	0xf9
 1101 016a 08       		.byte	0x8
 1102 016b 07       		.uleb128 0x7
 1103 016c A0030000 		.4byte	.LASF30
 1104 0170 08       		.byte	0x8
 1105 0171 C8       		.byte	0xc8
 1106 0172 83040000 		.4byte	0x483
 1107 0176 0C       		.byte	0xc
 1108 0177 07       		.uleb128 0x7
 1109 0178 32020000 		.4byte	.LASF31
 1110 017c 08       		.byte	0x8
 1111 017d CA       		.byte	0xca
 1112 017e 33020000 		.4byte	0x233
 1113 0182 10       		.byte	0x10
 1114 0183 07       		.uleb128 0x7
 1115 0184 92030000 		.4byte	.LASF32
 1116 0188 08       		.byte	0x8
 1117 0189 CB       		.byte	0xcb
 1118 018a 33020000 		.4byte	0x233
 1119 018e 14       		.byte	0x14
 1120 018f 07       		.uleb128 0x7
 1121 0190 5B060000 		.4byte	.LASF33
 1122 0194 08       		.byte	0x8
 1123 0195 D2       		.byte	0xd2
 1124 0196 24070000 		.4byte	0x724
 1125 019a 18       		.byte	0x18
 1126 019b 07       		.uleb128 0x7
 1127 019c 40040000 		.4byte	.LASF34
 1128 01a0 08       		.byte	0x8
 1129 01a1 DD       		.byte	0xdd
 1130 01a2 E3000000 		.4byte	0xe3
 1131 01a6 1C       		.byte	0x1c
 1132 01a7 07       		.uleb128 0x7
 1133 01a8 79060000 		.4byte	.LASF35
 1134 01ac 08       		.byte	0x8
 1135 01ad E1       		.byte	0xe1
 1136 01ae D8000000 		.4byte	0xd8
 1137 01b2 1D       		.byte	0x1d
 1138 01b3 07       		.uleb128 0x7
 1139 01b4 1D020000 		.4byte	.LASF36
 1140 01b8 08       		.byte	0x8
 1141 01b9 E6       		.byte	0xe6
 1142 01ba EE000000 		.4byte	0xee
 1143 01be 1E       		.byte	0x1e
ARM GAS  /var/folders/c6/c789hm653lg9vtl73krp73tm0000gn/T//ccVgLuPk.s 			page 53


 1144 01bf 08       		.uleb128 0x8
 1145 01c0 705F7500 		.ascii	"p_u\000"
 1146 01c4 08       		.byte	0x8
 1147 01c5 3101     		.2byte	0x131
 1148 01c7 5F060000 		.4byte	0x65f
 1149 01cb 20       		.byte	0x20
 1150 01cc 09       		.uleb128 0x9
 1151 01cd 49030000 		.4byte	.LASF37
 1152 01d1 08       		.byte	0x8
 1153 01d2 3601     		.2byte	0x136
 1154 01d4 39020000 		.4byte	0x239
 1155 01d8 24       		.byte	0x24
 1156 01d9 09       		.uleb128 0x9
 1157 01da BE020000 		.4byte	.LASF38
 1158 01de 08       		.byte	0x8
 1159 01df 3C01     		.2byte	0x13c
 1160 01e1 5D020000 		.4byte	0x25d
 1161 01e5 28       		.byte	0x28
 1162 01e6 09       		.uleb128 0x9
 1163 01e7 81060000 		.4byte	.LASF39
 1164 01eb 08       		.byte	0x8
 1165 01ec 4001     		.2byte	0x140
 1166 01ee 04010000 		.4byte	0x104
 1167 01f2 30       		.byte	0x30
 1168 01f3 09       		.uleb128 0x9
 1169 01f4 88040000 		.4byte	.LASF40
 1170 01f8 08       		.byte	0x8
 1171 01f9 4601     		.2byte	0x146
 1172 01fb 0F010000 		.4byte	0x10f
 1173 01ff 34       		.byte	0x34
 1174 0200 09       		.uleb128 0x9
 1175 0201 2C040000 		.4byte	.LASF41
 1176 0205 08       		.byte	0x8
 1177 0206 4D01     		.2byte	0x14d
 1178 0208 1E070000 		.4byte	0x71e
 1179 020c 38       		.byte	0x38
 1180 020d 09       		.uleb128 0x9
 1181 020e 76050000 		.4byte	.LASF42
 1182 0212 08       		.byte	0x8
 1183 0213 5101     		.2byte	0x151
 1184 0215 F9000000 		.4byte	0xf9
 1185 0219 3C       		.byte	0x3c
 1186 021a 09       		.uleb128 0x9
 1187 021b 5D020000 		.4byte	.LASF43
 1188 021f 08       		.byte	0x8
 1189 0220 5801     		.2byte	0x158
 1190 0222 10030000 		.4byte	0x310
 1191 0226 40       		.byte	0x40
 1192 0227 00       		.byte	0
 1193 0228 04       		.uleb128 0x4
 1194 0229 5C030000 		.4byte	.LASF44
 1195 022d 07       		.byte	0x7
 1196 022e 44       		.byte	0x44
 1197 022f 33020000 		.4byte	0x233
 1198 0233 0A       		.uleb128 0xa
 1199 0234 04       		.byte	0x4
 1200 0235 30010000 		.4byte	0x130
ARM GAS  /var/folders/c6/c789hm653lg9vtl73krp73tm0000gn/T//ccVgLuPk.s 			page 54


 1201 0239 04       		.uleb128 0x4
 1202 023a 62060000 		.4byte	.LASF45
 1203 023e 07       		.byte	0x7
 1204 023f 49       		.byte	0x49
 1205 0240 44020000 		.4byte	0x244
 1206 0244 06       		.uleb128 0x6
 1207 0245 C7040000 		.4byte	.LASF47
 1208 0249 04       		.byte	0x4
 1209 024a 08       		.byte	0x8
 1210 024b B0       		.byte	0xb0
 1211 024c 5D020000 		.4byte	0x25d
 1212 0250 07       		.uleb128 0x7
 1213 0251 56040000 		.4byte	.LASF27
 1214 0255 08       		.byte	0x8
 1215 0256 B1       		.byte	0xb1
 1216 0257 33020000 		.4byte	0x233
 1217 025b 00       		.byte	0
 1218 025c 00       		.byte	0
 1219 025d 04       		.uleb128 0x4
 1220 025e E5050000 		.4byte	.LASF48
 1221 0262 07       		.byte	0x7
 1222 0263 50       		.byte	0x50
 1223 0264 68020000 		.4byte	0x268
 1224 0268 06       		.uleb128 0x6
 1225 0269 B9010000 		.4byte	.LASF49
 1226 026d 08       		.byte	0x8
 1227 026e 08       		.byte	0x8
 1228 026f B7       		.byte	0xb7
 1229 0270 8D020000 		.4byte	0x28d
 1230 0274 07       		.uleb128 0x7
 1231 0275 56040000 		.4byte	.LASF27
 1232 0279 08       		.byte	0x8
 1233 027a B8       		.byte	0xb8
 1234 027b 33020000 		.4byte	0x233
 1235 027f 00       		.byte	0
 1236 0280 07       		.uleb128 0x7
 1237 0281 F1030000 		.4byte	.LASF28
 1238 0285 08       		.byte	0x8
 1239 0286 B9       		.byte	0xb9
 1240 0287 33020000 		.4byte	0x233
 1241 028b 04       		.byte	0x4
 1242 028c 00       		.byte	0
 1243 028d 04       		.uleb128 0x4
 1244 028e E0000000 		.4byte	.LASF50
 1245 0292 07       		.byte	0x7
 1246 0293 57       		.byte	0x57
 1247 0294 98020000 		.4byte	0x298
 1248 0298 0B       		.uleb128 0xb
 1249 0299 0D030000 		.4byte	.LASF51
 1250 029d 1C       		.byte	0x1c
 1251 029e 08       		.byte	0x8
 1252 029f 9001     		.2byte	0x190
 1253 02a1 F4020000 		.4byte	0x2f4
 1254 02a5 09       		.uleb128 0x9
 1255 02a6 B6040000 		.4byte	.LASF52
 1256 02aa 08       		.byte	0x8
 1257 02ab 9101     		.2byte	0x191
ARM GAS  /var/folders/c6/c789hm653lg9vtl73krp73tm0000gn/T//ccVgLuPk.s 			page 55


 1258 02ad 5D020000 		.4byte	0x25d
 1259 02b1 00       		.byte	0
 1260 02b2 09       		.uleb128 0x9
 1261 02b3 48040000 		.4byte	.LASF53
 1262 02b7 08       		.byte	0x8
 1263 02b8 9201     		.2byte	0x192
 1264 02ba F9000000 		.4byte	0xf9
 1265 02be 08       		.byte	0x8
 1266 02bf 09       		.uleb128 0x9
 1267 02c0 9A030000 		.4byte	.LASF54
 1268 02c4 08       		.byte	0x8
 1269 02c5 9401     		.2byte	0x194
 1270 02c7 83040000 		.4byte	0x483
 1271 02cb 0C       		.byte	0xc
 1272 02cc 09       		.uleb128 0x9
 1273 02cd 55020000 		.4byte	.LASF55
 1274 02d1 08       		.byte	0x8
 1275 02d2 9701     		.2byte	0x197
 1276 02d4 33020000 		.4byte	0x233
 1277 02d8 10       		.byte	0x10
 1278 02d9 09       		.uleb128 0x9
 1279 02da C6030000 		.4byte	.LASF56
 1280 02de 08       		.byte	0x8
 1281 02df 9801     		.2byte	0x198
 1282 02e1 33020000 		.4byte	0x233
 1283 02e5 14       		.byte	0x14
 1284 02e6 09       		.uleb128 0x9
 1285 02e7 BC030000 		.4byte	.LASF57
 1286 02eb 08       		.byte	0x8
 1287 02ec 9B01     		.2byte	0x19b
 1288 02ee 33020000 		.4byte	0x233
 1289 02f2 18       		.byte	0x18
 1290 02f3 00       		.byte	0
 1291 02f4 04       		.uleb128 0x4
 1292 02f5 81050000 		.4byte	.LASF58
 1293 02f9 07       		.byte	0x7
 1294 02fa 5C       		.byte	0x5c
 1295 02fb FF020000 		.4byte	0x2ff
 1296 02ff 0A       		.uleb128 0xa
 1297 0300 04       		.byte	0x4
 1298 0301 05030000 		.4byte	0x305
 1299 0305 0C       		.uleb128 0xc
 1300 0306 10030000 		.4byte	0x310
 1301 030a 0D       		.uleb128 0xd
 1302 030b 10030000 		.4byte	0x310
 1303 030f 00       		.byte	0
 1304 0310 0E       		.uleb128 0xe
 1305 0311 04       		.byte	0x4
 1306 0312 04       		.uleb128 0x4
 1307 0313 E1030000 		.4byte	.LASF59
 1308 0317 07       		.byte	0x7
 1309 0318 61       		.byte	0x61
 1310 0319 1D030000 		.4byte	0x31d
 1311 031d 0B       		.uleb128 0xb
 1312 031e 65040000 		.4byte	.LASF60
 1313 0322 14       		.byte	0x14
 1314 0323 08       		.byte	0x8
ARM GAS  /var/folders/c6/c789hm653lg9vtl73krp73tm0000gn/T//ccVgLuPk.s 			page 56


 1315 0324 6B01     		.2byte	0x16b
 1316 0326 6C030000 		.4byte	0x36c
 1317 032a 09       		.uleb128 0x9
 1318 032b AF020000 		.4byte	.LASF61
 1319 032f 08       		.byte	0x8
 1320 0330 6C01     		.2byte	0x16c
 1321 0332 36070000 		.4byte	0x736
 1322 0336 00       		.byte	0
 1323 0337 09       		.uleb128 0x9
 1324 0338 6E020000 		.4byte	.LASF62
 1325 033c 08       		.byte	0x8
 1326 033d 6D01     		.2byte	0x16d
 1327 033f 36070000 		.4byte	0x736
 1328 0343 04       		.byte	0x4
 1329 0344 09       		.uleb128 0x9
 1330 0345 BE040000 		.4byte	.LASF63
 1331 0349 08       		.byte	0x8
 1332 034a 6E01     		.2byte	0x16e
 1333 034c 25010000 		.4byte	0x125
 1334 0350 08       		.byte	0x8
 1335 0351 09       		.uleb128 0x9
 1336 0352 8F060000 		.4byte	.LASF64
 1337 0356 08       		.byte	0x8
 1338 0357 6F01     		.2byte	0x16f
 1339 0359 F4020000 		.4byte	0x2f4
 1340 035d 0C       		.byte	0xc
 1341 035e 09       		.uleb128 0x9
 1342 035f D7050000 		.4byte	.LASF65
 1343 0363 08       		.byte	0x8
 1344 0364 7101     		.2byte	0x171
 1345 0366 10030000 		.4byte	0x310
 1346 036a 10       		.byte	0x10
 1347 036b 00       		.byte	0
 1348 036c 04       		.uleb128 0x4
 1349 036d 91010000 		.4byte	.LASF66
 1350 0371 07       		.byte	0x7
 1351 0372 66       		.byte	0x66
 1352 0373 77030000 		.4byte	0x377
 1353 0377 0B       		.uleb128 0xb
 1354 0378 6F030000 		.4byte	.LASF67
 1355 037c 10       		.byte	0x10
 1356 037d 08       		.byte	0x8
 1357 037e 7B01     		.2byte	0x17b
 1358 0380 B9030000 		.4byte	0x3b9
 1359 0384 09       		.uleb128 0x9
 1360 0385 AF020000 		.4byte	.LASF61
 1361 0389 08       		.byte	0x8
 1362 038a 7C01     		.2byte	0x17c
 1363 038c 36070000 		.4byte	0x736
 1364 0390 00       		.byte	0
 1365 0391 09       		.uleb128 0x9
 1366 0392 6E020000 		.4byte	.LASF62
 1367 0396 08       		.byte	0x8
 1368 0397 7E01     		.2byte	0x17e
 1369 0399 36070000 		.4byte	0x736
 1370 039d 04       		.byte	0x4
 1371 039e 09       		.uleb128 0x9
ARM GAS  /var/folders/c6/c789hm653lg9vtl73krp73tm0000gn/T//ccVgLuPk.s 			page 57


 1372 039f BE040000 		.4byte	.LASF63
 1373 03a3 08       		.byte	0x8
 1374 03a4 8001     		.2byte	0x180
 1375 03a6 25010000 		.4byte	0x125
 1376 03aa 08       		.byte	0x8
 1377 03ab 09       		.uleb128 0x9
 1378 03ac 86030000 		.4byte	.LASF68
 1379 03b0 08       		.byte	0x8
 1380 03b1 8801     		.2byte	0x188
 1381 03b3 25010000 		.4byte	0x125
 1382 03b7 0C       		.byte	0xc
 1383 03b8 00       		.byte	0
 1384 03b9 04       		.uleb128 0x4
 1385 03ba 36010000 		.4byte	.LASF69
 1386 03be 07       		.byte	0x7
 1387 03bf 6B       		.byte	0x6b
 1388 03c0 C4030000 		.4byte	0x3c4
 1389 03c4 0B       		.uleb128 0xb
 1390 03c5 00040000 		.4byte	.LASF70
 1391 03c9 04       		.byte	0x4
 1392 03ca 08       		.byte	0x8
 1393 03cb A201     		.2byte	0x1a2
 1394 03cd DF030000 		.4byte	0x3df
 1395 03d1 09       		.uleb128 0x9
 1396 03d2 95050000 		.4byte	.LASF71
 1397 03d6 08       		.byte	0x8
 1398 03d7 AA01     		.2byte	0x1aa
 1399 03d9 3C070000 		.4byte	0x73c
 1400 03dd 00       		.byte	0
 1401 03de 00       		.byte	0
 1402 03df 04       		.uleb128 0x4
 1403 03e0 F5020000 		.4byte	.LASF72
 1404 03e4 07       		.byte	0x7
 1405 03e5 70       		.byte	0x70
 1406 03e6 EA030000 		.4byte	0x3ea
 1407 03ea 0F       		.uleb128 0xf
 1408 03eb 01020000 		.4byte	.LASF73
 1409 03ef 5001     		.2byte	0x150
 1410 03f1 08       		.byte	0x8
 1411 03f2 C201     		.2byte	0x1c2
 1412 03f4 46040000 		.4byte	0x446
 1413 03f8 09       		.uleb128 0x9
 1414 03f9 18060000 		.4byte	.LASF74
 1415 03fd 08       		.byte	0x8
 1416 03fe C601     		.2byte	0x1c6
 1417 0400 8D020000 		.4byte	0x28d
 1418 0404 00       		.byte	0
 1419 0405 09       		.uleb128 0x9
 1420 0406 FA010000 		.4byte	.LASF75
 1421 040a 08       		.byte	0x8
 1422 040b CA01     		.2byte	0x1ca
 1423 040d 6C030000 		.4byte	0x36c
 1424 0411 1C       		.byte	0x1c
 1425 0412 08       		.uleb128 0x8
 1426 0413 64626700 		.ascii	"dbg\000"
 1427 0417 08       		.byte	0x8
 1428 0418 CE01     		.2byte	0x1ce
ARM GAS  /var/folders/c6/c789hm653lg9vtl73krp73tm0000gn/T//ccVgLuPk.s 			page 58


 1429 041a B9030000 		.4byte	0x3b9
 1430 041e 2C       		.byte	0x2c
 1431 041f 09       		.uleb128 0x9
 1432 0420 86010000 		.4byte	.LASF76
 1433 0424 08       		.byte	0x8
 1434 0425 D201     		.2byte	0x1d2
 1435 0427 30010000 		.4byte	0x130
 1436 042b 30       		.byte	0x30
 1437 042c 08       		.uleb128 0x8
 1438 042d 746D00   		.ascii	"tm\000"
 1439 0430 08       		.byte	0x8
 1440 0431 D701     		.2byte	0x1d7
 1441 0433 54060000 		.4byte	0x654
 1442 0437 74       		.byte	0x74
 1443 0438 09       		.uleb128 0x9
 1444 0439 7E020000 		.4byte	.LASF77
 1445 043d 08       		.byte	0x8
 1446 043e E301     		.2byte	0x1e3
 1447 0440 41070000 		.4byte	0x741
 1448 0444 78       		.byte	0x78
 1449 0445 00       		.byte	0
 1450 0446 03       		.uleb128 0x3
 1451 0447 04       		.byte	0x4
 1452 0448 07       		.byte	0x7
 1453 0449 53030000 		.4byte	.LASF78
 1454 044d 10       		.uleb128 0x10
 1455 044e AD000000 		.4byte	0xad
 1456 0452 5D040000 		.4byte	0x45d
 1457 0456 11       		.uleb128 0x11
 1458 0457 46040000 		.4byte	0x446
 1459 045b 01       		.byte	0x1
 1460 045c 00       		.byte	0
 1461 045d 10       		.uleb128 0x10
 1462 045e AD000000 		.4byte	0xad
 1463 0462 6D040000 		.4byte	0x46d
 1464 0466 11       		.uleb128 0x11
 1465 0467 46040000 		.4byte	0x446
 1466 046b 03       		.byte	0x3
 1467 046c 00       		.byte	0
 1468 046d 04       		.uleb128 0x4
 1469 046e 65020000 		.4byte	.LASF79
 1470 0472 09       		.byte	0x9
 1471 0473 65       		.byte	0x65
 1472 0474 10030000 		.4byte	0x310
 1473 0478 04       		.uleb128 0x4
 1474 0479 3E030000 		.4byte	.LASF80
 1475 047d 09       		.byte	0x9
 1476 047e 6D       		.byte	0x6d
 1477 047f B8000000 		.4byte	0xb8
 1478 0483 06       		.uleb128 0x6
 1479 0484 B3050000 		.4byte	.LASF81
 1480 0488 04       		.byte	0x4
 1481 0489 09       		.byte	0x9
 1482 048a 89       		.byte	0x89
 1483 048b 9C040000 		.4byte	0x49c
 1484 048f 12       		.uleb128 0x12
 1485 0490 72313300 		.ascii	"r13\000"
ARM GAS  /var/folders/c6/c789hm653lg9vtl73krp73tm0000gn/T//ccVgLuPk.s 			page 59


 1486 0494 09       		.byte	0x9
 1487 0495 8A       		.byte	0x8a
 1488 0496 17050000 		.4byte	0x517
 1489 049a 00       		.byte	0
 1490 049b 00       		.byte	0
 1491 049c 06       		.uleb128 0x6
 1492 049d 2A010000 		.4byte	.LASF82
 1493 04a1 24       		.byte	0x24
 1494 04a2 0A       		.byte	0xa
 1495 04a3 F4       		.byte	0xf4
 1496 04a4 17050000 		.4byte	0x517
 1497 04a8 08       		.uleb128 0x8
 1498 04a9 723400   		.ascii	"r4\000"
 1499 04ac 0A       		.byte	0xa
 1500 04ad 0701     		.2byte	0x107
 1501 04af 6D040000 		.4byte	0x46d
 1502 04b3 00       		.byte	0
 1503 04b4 08       		.uleb128 0x8
 1504 04b5 723500   		.ascii	"r5\000"
 1505 04b8 0A       		.byte	0xa
 1506 04b9 0801     		.2byte	0x108
 1507 04bb 6D040000 		.4byte	0x46d
 1508 04bf 04       		.byte	0x4
 1509 04c0 08       		.uleb128 0x8
 1510 04c1 723600   		.ascii	"r6\000"
 1511 04c4 0A       		.byte	0xa
 1512 04c5 0901     		.2byte	0x109
 1513 04c7 6D040000 		.4byte	0x46d
 1514 04cb 08       		.byte	0x8
 1515 04cc 08       		.uleb128 0x8
 1516 04cd 723700   		.ascii	"r7\000"
 1517 04d0 0A       		.byte	0xa
 1518 04d1 0A01     		.2byte	0x10a
 1519 04d3 6D040000 		.4byte	0x46d
 1520 04d7 0C       		.byte	0xc
 1521 04d8 08       		.uleb128 0x8
 1522 04d9 723800   		.ascii	"r8\000"
 1523 04dc 0A       		.byte	0xa
 1524 04dd 0B01     		.2byte	0x10b
 1525 04df 6D040000 		.4byte	0x46d
 1526 04e3 10       		.byte	0x10
 1527 04e4 08       		.uleb128 0x8
 1528 04e5 723900   		.ascii	"r9\000"
 1529 04e8 0A       		.byte	0xa
 1530 04e9 0C01     		.2byte	0x10c
 1531 04eb 6D040000 		.4byte	0x46d
 1532 04ef 14       		.byte	0x14
 1533 04f0 08       		.uleb128 0x8
 1534 04f1 72313000 		.ascii	"r10\000"
 1535 04f5 0A       		.byte	0xa
 1536 04f6 0D01     		.2byte	0x10d
 1537 04f8 6D040000 		.4byte	0x46d
 1538 04fc 18       		.byte	0x18
 1539 04fd 08       		.uleb128 0x8
 1540 04fe 72313100 		.ascii	"r11\000"
 1541 0502 0A       		.byte	0xa
 1542 0503 0E01     		.2byte	0x10e
ARM GAS  /var/folders/c6/c789hm653lg9vtl73krp73tm0000gn/T//ccVgLuPk.s 			page 60


 1543 0505 6D040000 		.4byte	0x46d
 1544 0509 1C       		.byte	0x1c
 1545 050a 08       		.uleb128 0x8
 1546 050b 6C7200   		.ascii	"lr\000"
 1547 050e 0A       		.byte	0xa
 1548 050f 0F01     		.2byte	0x10f
 1549 0511 6D040000 		.4byte	0x46d
 1550 0515 20       		.byte	0x20
 1551 0516 00       		.byte	0
 1552 0517 0A       		.uleb128 0xa
 1553 0518 04       		.byte	0x4
 1554 0519 9C040000 		.4byte	0x49c
 1555 051d 13       		.uleb128 0x13
 1556 051e 60       		.byte	0x60
 1557 051f 0B       		.byte	0xb
 1558 0520 9E01     		.2byte	0x19e
 1559 0522 29060000 		.4byte	0x629
 1560 0526 08       		.uleb128 0x8
 1561 0527 43523100 		.ascii	"CR1\000"
 1562 052b 0B       		.byte	0xb
 1563 052c 9F01     		.2byte	0x19f
 1564 052e C8000000 		.4byte	0xc8
 1565 0532 00       		.byte	0
 1566 0533 08       		.uleb128 0x8
 1567 0534 43523200 		.ascii	"CR2\000"
 1568 0538 0B       		.byte	0xb
 1569 0539 A001     		.2byte	0x1a0
 1570 053b C8000000 		.4byte	0xc8
 1571 053f 04       		.byte	0x4
 1572 0540 09       		.uleb128 0x9
 1573 0541 CF020000 		.4byte	.LASF83
 1574 0545 0B       		.byte	0xb
 1575 0546 A101     		.2byte	0x1a1
 1576 0548 C8000000 		.4byte	0xc8
 1577 054c 08       		.byte	0x8
 1578 054d 09       		.uleb128 0x9
 1579 054e ED000000 		.4byte	.LASF84
 1580 0552 0B       		.byte	0xb
 1581 0553 A201     		.2byte	0x1a2
 1582 0555 C8000000 		.4byte	0xc8
 1583 0559 0C       		.byte	0xc
 1584 055a 08       		.uleb128 0x8
 1585 055b 535200   		.ascii	"SR\000"
 1586 055e 0B       		.byte	0xb
 1587 055f A301     		.2byte	0x1a3
 1588 0561 C8000000 		.4byte	0xc8
 1589 0565 10       		.byte	0x10
 1590 0566 08       		.uleb128 0x8
 1591 0567 45475200 		.ascii	"EGR\000"
 1592 056b 0B       		.byte	0xb
 1593 056c A401     		.2byte	0x1a4
 1594 056e C8000000 		.4byte	0xc8
 1595 0572 14       		.byte	0x14
 1596 0573 09       		.uleb128 0x9
 1597 0574 D1010000 		.4byte	.LASF85
 1598 0578 0B       		.byte	0xb
 1599 0579 A501     		.2byte	0x1a5
ARM GAS  /var/folders/c6/c789hm653lg9vtl73krp73tm0000gn/T//ccVgLuPk.s 			page 61


 1600 057b C8000000 		.4byte	0xc8
 1601 057f 18       		.byte	0x18
 1602 0580 09       		.uleb128 0x9
 1603 0581 45010000 		.4byte	.LASF86
 1604 0585 0B       		.byte	0xb
 1605 0586 A601     		.2byte	0x1a6
 1606 0588 C8000000 		.4byte	0xc8
 1607 058c 1C       		.byte	0x1c
 1608 058d 09       		.uleb128 0x9
 1609 058e 60050000 		.4byte	.LASF87
 1610 0592 0B       		.byte	0xb
 1611 0593 A701     		.2byte	0x1a7
 1612 0595 C8000000 		.4byte	0xc8
 1613 0599 20       		.byte	0x20
 1614 059a 08       		.uleb128 0x8
 1615 059b 434E5400 		.ascii	"CNT\000"
 1616 059f 0B       		.byte	0xb
 1617 05a0 A801     		.2byte	0x1a8
 1618 05a2 C8000000 		.4byte	0xc8
 1619 05a6 24       		.byte	0x24
 1620 05a7 08       		.uleb128 0x8
 1621 05a8 50534300 		.ascii	"PSC\000"
 1622 05ac 0B       		.byte	0xb
 1623 05ad A901     		.2byte	0x1a9
 1624 05af C8000000 		.4byte	0xc8
 1625 05b3 28       		.byte	0x28
 1626 05b4 08       		.uleb128 0x8
 1627 05b5 41525200 		.ascii	"ARR\000"
 1628 05b9 0B       		.byte	0xb
 1629 05ba AA01     		.2byte	0x1aa
 1630 05bc C8000000 		.4byte	0xc8
 1631 05c0 2C       		.byte	0x2c
 1632 05c1 08       		.uleb128 0x8
 1633 05c2 52435200 		.ascii	"RCR\000"
 1634 05c6 0B       		.byte	0xb
 1635 05c7 AB01     		.2byte	0x1ab
 1636 05c9 C8000000 		.4byte	0xc8
 1637 05cd 30       		.byte	0x30
 1638 05ce 08       		.uleb128 0x8
 1639 05cf 43435200 		.ascii	"CCR\000"
 1640 05d3 0B       		.byte	0xb
 1641 05d4 AC01     		.2byte	0x1ac
 1642 05d6 29060000 		.4byte	0x629
 1643 05da 34       		.byte	0x34
 1644 05db 09       		.uleb128 0x9
 1645 05dc B4010000 		.4byte	.LASF88
 1646 05e0 0B       		.byte	0xb
 1647 05e1 AD01     		.2byte	0x1ad
 1648 05e3 C8000000 		.4byte	0xc8
 1649 05e7 44       		.byte	0x44
 1650 05e8 08       		.uleb128 0x8
 1651 05e9 44435200 		.ascii	"DCR\000"
 1652 05ed 0B       		.byte	0xb
 1653 05ee AE01     		.2byte	0x1ae
 1654 05f0 C8000000 		.4byte	0xc8
 1655 05f4 48       		.byte	0x48
 1656 05f5 09       		.uleb128 0x9
ARM GAS  /var/folders/c6/c789hm653lg9vtl73krp73tm0000gn/T//ccVgLuPk.s 			page 62


 1657 05f6 52050000 		.4byte	.LASF89
 1658 05fa 0B       		.byte	0xb
 1659 05fb AF01     		.2byte	0x1af
 1660 05fd C8000000 		.4byte	0xc8
 1661 0601 4C       		.byte	0x4c
 1662 0602 08       		.uleb128 0x8
 1663 0603 4F5200   		.ascii	"OR\000"
 1664 0606 0B       		.byte	0xb
 1665 0607 B001     		.2byte	0x1b0
 1666 0609 C8000000 		.4byte	0xc8
 1667 060d 50       		.byte	0x50
 1668 060e 09       		.uleb128 0x9
 1669 060f E0010000 		.4byte	.LASF90
 1670 0613 0B       		.byte	0xb
 1671 0614 B101     		.2byte	0x1b1
 1672 0616 C8000000 		.4byte	0xc8
 1673 061a 54       		.byte	0x54
 1674 061b 09       		.uleb128 0x9
 1675 061c 83040000 		.4byte	.LASF91
 1676 0620 0B       		.byte	0xb
 1677 0621 B201     		.2byte	0x1b2
 1678 0623 2E060000 		.4byte	0x62e
 1679 0627 58       		.byte	0x58
 1680 0628 00       		.byte	0
 1681 0629 05       		.uleb128 0x5
 1682 062a 5D040000 		.4byte	0x45d
 1683 062e 05       		.uleb128 0x5
 1684 062f 4D040000 		.4byte	0x44d
 1685 0633 14       		.uleb128 0x14
 1686 0634 01030000 		.4byte	.LASF92
 1687 0638 0B       		.byte	0xb
 1688 0639 B301     		.2byte	0x1b3
 1689 063b 1D050000 		.4byte	0x51d
 1690 063f 15       		.uleb128 0x15
 1691 0640 04       		.byte	0x4
 1692 0641 0C       		.byte	0xc
 1693 0642 38       		.byte	0x38
 1694 0643 54060000 		.4byte	0x654
 1695 0647 07       		.uleb128 0x7
 1696 0648 9F050000 		.4byte	.LASF93
 1697 064c 0C       		.byte	0xc
 1698 064d 3C       		.byte	0x3c
 1699 064e CD000000 		.4byte	0xcd
 1700 0652 00       		.byte	0
 1701 0653 00       		.byte	0
 1702 0654 04       		.uleb128 0x4
 1703 0655 A6030000 		.4byte	.LASF94
 1704 0659 0C       		.byte	0xc
 1705 065a 3D       		.byte	0x3d
 1706 065b 3F060000 		.4byte	0x63f
 1707 065f 16       		.uleb128 0x16
 1708 0660 04       		.byte	0x4
 1709 0661 08       		.byte	0x8
 1710 0662 FA       		.byte	0xfa
 1711 0663 BC060000 		.4byte	0x6bc
 1712 0667 17       		.uleb128 0x17
 1713 0668 FE000000 		.4byte	.LASF95
ARM GAS  /var/folders/c6/c789hm653lg9vtl73krp73tm0000gn/T//ccVgLuPk.s 			page 63


 1714 066c 08       		.byte	0x8
 1715 066d 0101     		.2byte	0x101
 1716 066f 04010000 		.4byte	0x104
 1717 0673 17       		.uleb128 0x17
 1718 0674 7D010000 		.4byte	.LASF96
 1719 0678 08       		.byte	0x8
 1720 0679 0801     		.2byte	0x108
 1721 067b 04010000 		.4byte	0x104
 1722 067f 17       		.uleb128 0x17
 1723 0680 54060000 		.4byte	.LASF97
 1724 0684 08       		.byte	0x8
 1725 0685 0F01     		.2byte	0x10f
 1726 0687 10030000 		.4byte	0x310
 1727 068b 17       		.uleb128 0x17
 1728 068c F2000000 		.4byte	.LASF98
 1729 0690 08       		.byte	0x8
 1730 0691 1601     		.2byte	0x116
 1731 0693 BC060000 		.4byte	0x6bc
 1732 0697 17       		.uleb128 0x17
 1733 0698 B7020000 		.4byte	.LASF99
 1734 069c 08       		.byte	0x8
 1735 069d 1E01     		.2byte	0x11e
 1736 069f E7060000 		.4byte	0x6e7
 1737 06a3 17       		.uleb128 0x17
 1738 06a4 AF040000 		.4byte	.LASF100
 1739 06a8 08       		.byte	0x8
 1740 06a9 2701     		.2byte	0x127
 1741 06ab 1E070000 		.4byte	0x71e
 1742 06af 17       		.uleb128 0x17
 1743 06b0 4F040000 		.4byte	.LASF101
 1744 06b4 08       		.byte	0x8
 1745 06b5 2F01     		.2byte	0x12f
 1746 06b7 0F010000 		.4byte	0x10f
 1747 06bb 00       		.byte	0
 1748 06bc 0A       		.uleb128 0xa
 1749 06bd 04       		.byte	0x4
 1750 06be 28020000 		.4byte	0x228
 1751 06c2 06       		.uleb128 0x6
 1752 06c3 76040000 		.4byte	.LASF102
 1753 06c7 0C       		.byte	0xc
 1754 06c8 0D       		.byte	0xd
 1755 06c9 34       		.byte	0x34
 1756 06ca E7060000 		.4byte	0x6e7
 1757 06ce 07       		.uleb128 0x7
 1758 06cf 3A020000 		.4byte	.LASF103
 1759 06d3 0D       		.byte	0xd
 1760 06d4 35       		.byte	0x35
 1761 06d5 5D020000 		.4byte	0x25d
 1762 06d9 00       		.byte	0
 1763 06da 07       		.uleb128 0x7
 1764 06db C9020000 		.4byte	.LASF104
 1765 06df 0D       		.byte	0xd
 1766 06e0 37       		.byte	0x37
 1767 06e1 1A010000 		.4byte	0x11a
 1768 06e5 08       		.byte	0x8
 1769 06e6 00       		.byte	0
 1770 06e7 0A       		.uleb128 0xa
ARM GAS  /var/folders/c6/c789hm653lg9vtl73krp73tm0000gn/T//ccVgLuPk.s 			page 64


 1771 06e8 04       		.byte	0x4
 1772 06e9 C2060000 		.4byte	0x6c2
 1773 06ed 06       		.uleb128 0x6
 1774 06ee F5050000 		.4byte	.LASF105
 1775 06f2 10       		.byte	0x10
 1776 06f3 0E       		.byte	0xe
 1777 06f4 39       		.byte	0x39
 1778 06f5 1E070000 		.4byte	0x71e
 1779 06f9 07       		.uleb128 0x7
 1780 06fa F2010000 		.4byte	.LASF106
 1781 06fe 0E       		.byte	0xe
 1782 06ff 3A       		.byte	0x3a
 1783 0700 5D020000 		.4byte	0x25d
 1784 0704 00       		.byte	0
 1785 0705 07       		.uleb128 0x7
 1786 0706 87060000 		.4byte	.LASF107
 1787 070a 0E       		.byte	0xe
 1788 070b 3C       		.byte	0x3c
 1789 070c 33020000 		.4byte	0x233
 1790 0710 08       		.byte	0x8
 1791 0711 07       		.uleb128 0x7
 1792 0712 65050000 		.4byte	.LASF108
 1793 0716 0E       		.byte	0xe
 1794 0717 3E       		.byte	0x3e
 1795 0718 5C070000 		.4byte	0x75c
 1796 071c 0C       		.byte	0xc
 1797 071d 00       		.byte	0
 1798 071e 0A       		.uleb128 0xa
 1799 071f 04       		.byte	0x4
 1800 0720 ED060000 		.4byte	0x6ed
 1801 0724 0A       		.uleb128 0xa
 1802 0725 04       		.byte	0x4
 1803 0726 2A070000 		.4byte	0x72a
 1804 072a 18       		.uleb128 0x18
 1805 072b 2F070000 		.4byte	0x72f
 1806 072f 03       		.uleb128 0x3
 1807 0730 01       		.byte	0x1
 1808 0731 08       		.byte	0x8
 1809 0732 40050000 		.4byte	.LASF109
 1810 0736 0A       		.uleb128 0xa
 1811 0737 04       		.byte	0x4
 1812 0738 12030000 		.4byte	0x312
 1813 073c 05       		.uleb128 0x5
 1814 073d 24070000 		.4byte	0x724
 1815 0741 10       		.uleb128 0x10
 1816 0742 78040000 		.4byte	0x478
 1817 0746 51070000 		.4byte	0x751
 1818 074a 11       		.uleb128 0x11
 1819 074b 46040000 		.4byte	0x446
 1820 074f 1A       		.byte	0x1a
 1821 0750 00       		.byte	0
 1822 0751 04       		.uleb128 0x4
 1823 0752 76020000 		.4byte	.LASF110
 1824 0756 0E       		.byte	0xe
 1825 0757 34       		.byte	0x34
 1826 0758 ED060000 		.4byte	0x6ed
 1827 075c 0A       		.uleb128 0xa
ARM GAS  /var/folders/c6/c789hm653lg9vtl73krp73tm0000gn/T//ccVgLuPk.s 			page 65


 1828 075d 04       		.byte	0x4
 1829 075e 51070000 		.4byte	0x751
 1830 0762 19       		.uleb128 0x19
 1831 0763 93040000 		.4byte	.LASF111
 1832 0767 02       		.byte	0x2
 1833 0768 7F       		.byte	0x7f
 1834 0769 25010000 		.4byte	0x125
 1835 076d 03       		.byte	0x3
 1836 076e 19       		.uleb128 0x19
 1837 076f BB050000 		.4byte	.LASF112
 1838 0773 03       		.byte	0x3
 1839 0774 69       		.byte	0x69
 1840 0775 25010000 		.4byte	0x125
 1841 0779 03       		.byte	0x3
 1842 077a 19       		.uleb128 0x19
 1843 077b 93020000 		.4byte	.LASF113
 1844 077f 0F       		.byte	0xf
 1845 0780 E4       		.byte	0xe4
 1846 0781 25010000 		.4byte	0x125
 1847 0785 03       		.byte	0x3
 1848 0786 1A       		.uleb128 0x1a
 1849 0787 DE020000 		.4byte	.LASF114
 1850 078b 03       		.byte	0x3
 1851 078c 47       		.byte	0x47
 1852 078d 03       		.byte	0x3
 1853 078e 9E070000 		.4byte	0x79e
 1854 0792 1B       		.uleb128 0x1b
 1855 0793 B7030000 		.4byte	.LASF116
 1856 0797 03       		.byte	0x3
 1857 0798 47       		.byte	0x47
 1858 0799 25010000 		.4byte	0x125
 1859 079d 00       		.byte	0
 1860 079e 1A       		.uleb128 0x1a
 1861 079f 3F060000 		.4byte	.LASF115
 1862 07a3 03       		.byte	0x3
 1863 07a4 5D       		.byte	0x5d
 1864 07a5 03       		.byte	0x3
 1865 07a6 B6070000 		.4byte	0x7b6
 1866 07aa 1B       		.uleb128 0x1b
 1867 07ab B7030000 		.4byte	.LASF116
 1868 07af 03       		.byte	0x3
 1869 07b0 5D       		.byte	0x5d
 1870 07b1 25010000 		.4byte	0x125
 1871 07b5 00       		.byte	0
 1872 07b6 1C       		.uleb128 0x1c
 1873 07b7 29060000 		.4byte	.LASF129
 1874 07bb 03       		.byte	0x3
 1875 07bc 51       		.byte	0x51
 1876 07bd 03       		.byte	0x3
 1877 07be 1D       		.uleb128 0x1d
 1878 07bf 70010000 		.4byte	.LASF123
 1879 07c3 01       		.byte	0x1
 1880 07c4 B1       		.byte	0xb1
 1881 07c5 01       		.byte	0x1
 1882 07c6 F9070000 		.4byte	0x7f9
 1883 07ca 1E       		.uleb128 0x1e
 1884 07cb 76747000 		.ascii	"vtp\000"
ARM GAS  /var/folders/c6/c789hm653lg9vtl73krp73tm0000gn/T//ccVgLuPk.s 			page 66


 1885 07cf 01       		.byte	0x1
 1886 07d0 B1       		.byte	0xb1
 1887 07d1 36070000 		.4byte	0x736
 1888 07d5 1F       		.uleb128 0x1f
 1889 07d6 4B010000 		.4byte	.LASF117
 1890 07da 09080000 		.4byte	0x809
 1891 07de 70010000 		.4byte	.LASF123
 1892 07e2 20       		.uleb128 0x20
 1893 07e3 A6020000 		.4byte	.LASF118
 1894 07e7 01       		.byte	0x1
 1895 07e8 C5       		.byte	0xc5
 1896 07e9 25010000 		.4byte	0x125
 1897 07ed 20       		.uleb128 0x20
 1898 07ee F8000000 		.4byte	.LASF119
 1899 07f2 01       		.byte	0x1
 1900 07f3 C5       		.byte	0xc5
 1901 07f4 25010000 		.4byte	0x125
 1902 07f8 00       		.byte	0
 1903 07f9 10       		.uleb128 0x10
 1904 07fa 2F070000 		.4byte	0x72f
 1905 07fe 09080000 		.4byte	0x809
 1906 0802 11       		.uleb128 0x11
 1907 0803 46040000 		.4byte	0x446
 1908 0807 0C       		.byte	0xc
 1909 0808 00       		.byte	0
 1910 0809 18       		.uleb128 0x18
 1911 080a F9070000 		.4byte	0x7f9
 1912 080e 21       		.uleb128 0x21
 1913 080f D7010000 		.4byte	.LASF130
 1914 0813 01       		.byte	0x1
 1915 0814 3D       		.byte	0x3d
 1916 0815 00000000 		.4byte	.LFB229
 1917 0819 1C000000 		.4byte	.LFE229-.LFB229
 1918 081d 01       		.uleb128 0x1
 1919 081e 9C       		.byte	0x9c
 1920 081f 22       		.uleb128 0x22
 1921 0820 1B030000 		.4byte	.LASF131
 1922 0824 01       		.byte	0x1
 1923 0825 5F       		.byte	0x5f
 1924 0826 00000000 		.4byte	.LFB230
 1925 082a 78000000 		.4byte	.LFE230-.LFB230
 1926 082e 01       		.uleb128 0x1
 1927 082f 9C       		.byte	0x9c
 1928 0830 22090000 		.4byte	0x922
 1929 0834 23       		.uleb128 0x23
 1930 0835 76747000 		.ascii	"vtp\000"
 1931 0839 01       		.byte	0x1
 1932 083a 5F       		.byte	0x5f
 1933 083b 36070000 		.4byte	0x736
 1934 083f 00000000 		.4byte	.LLST0
 1935 0843 24       		.uleb128 0x24
 1936 0844 26040000 		.4byte	.LASF120
 1937 0848 01       		.byte	0x1
 1938 0849 5F       		.byte	0x5f
 1939 084a 25010000 		.4byte	0x125
 1940 084e 2C000000 		.4byte	.LLST1
 1941 0852 24       		.uleb128 0x24
ARM GAS  /var/folders/c6/c789hm653lg9vtl73krp73tm0000gn/T//ccVgLuPk.s 			page 67


 1942 0853 DE050000 		.4byte	.LASF121
 1943 0857 01       		.byte	0x1
 1944 0858 60       		.byte	0x60
 1945 0859 F4020000 		.4byte	0x2f4
 1946 085d D1000000 		.4byte	.LLST2
 1947 0861 23       		.uleb128 0x23
 1948 0862 70617200 		.ascii	"par\000"
 1949 0866 01       		.byte	0x1
 1950 0867 60       		.byte	0x60
 1951 0868 10030000 		.4byte	0x310
 1952 086c 24010000 		.4byte	.LLST3
 1953 0870 25       		.uleb128 0x25
 1954 0871 7000     		.ascii	"p\000"
 1955 0873 01       		.byte	0x1
 1956 0874 61       		.byte	0x61
 1957 0875 36070000 		.4byte	0x736
 1958 0879 91010000 		.4byte	.LLST4
 1959 087d 26       		.uleb128 0x26
 1960 087e F8000000 		.4byte	.LASF119
 1961 0882 01       		.byte	0x1
 1962 0883 62       		.byte	0x62
 1963 0884 25010000 		.4byte	0x125
 1964 0888 AF010000 		.4byte	.LLST5
 1965 088c 27       		.uleb128 0x27
 1966 088d 30030000 		.4byte	.LASF132
 1967 0891 32090000 		.4byte	0x932
 1968 0895 28       		.uleb128 0x28
 1969 0896 00000000 		.4byte	.Ldebug_ranges0+0
 1970 089a 29       		.uleb128 0x29
 1971 089b 6E6F7700 		.ascii	"now\000"
 1972 089f 01       		.byte	0x1
 1973 08a0 6C       		.byte	0x6c
 1974 08a1 25010000 		.4byte	0x125
 1975 08a5 2A       		.uleb128 0x2a
 1976 08a6 7A070000 		.4byte	0x77a
 1977 08aa 12000000 		.4byte	.LBB36
 1978 08ae 30000000 		.4byte	.Ldebug_ranges0+0x30
 1979 08b2 01       		.byte	0x1
 1980 08b3 6C       		.byte	0x6c
 1981 08b4 D8080000 		.4byte	0x8d8
 1982 08b8 2B       		.uleb128 0x2b
 1983 08b9 6E070000 		.4byte	0x76e
 1984 08bd 12000000 		.4byte	.LBB37
 1985 08c1 30000000 		.4byte	.Ldebug_ranges0+0x30
 1986 08c5 0F       		.byte	0xf
 1987 08c6 E9       		.byte	0xe9
 1988 08c7 2C       		.uleb128 0x2c
 1989 08c8 62070000 		.4byte	0x762
 1990 08cc 12000000 		.4byte	.LBB38
 1991 08d0 30000000 		.4byte	.Ldebug_ranges0+0x30
 1992 08d4 03       		.byte	0x3
 1993 08d5 6B       		.byte	0x6b
 1994 08d6 00       		.byte	0
 1995 08d7 00       		.byte	0
 1996 08d8 2D       		.uleb128 0x2d
 1997 08d9 9E070000 		.4byte	0x79e
 1998 08dd 58000000 		.4byte	.LBB44
ARM GAS  /var/folders/c6/c789hm653lg9vtl73krp73tm0000gn/T//ccVgLuPk.s 			page 68


 1999 08e1 06000000 		.4byte	.LBE44-.LBB44
 2000 08e5 01       		.byte	0x1
 2001 08e6 8C       		.byte	0x8c
 2002 08e7 FE080000 		.4byte	0x8fe
 2003 08eb 2E       		.uleb128 0x2e
 2004 08ec AA070000 		.4byte	0x7aa
 2005 08f0 DC010000 		.4byte	.LLST6
 2006 08f4 2F       		.uleb128 0x2f
 2007 08f5 5C000000 		.4byte	.LVL12
 2008 08f9 180A0000 		.4byte	0xa18
 2009 08fd 00       		.byte	0
 2010 08fe 2B       		.uleb128 0x2b
 2011 08ff 86070000 		.4byte	0x786
 2012 0903 64000000 		.4byte	.LBB46
 2013 0907 48000000 		.4byte	.Ldebug_ranges0+0x48
 2014 090b 01       		.byte	0x1
 2015 090c 81       		.byte	0x81
 2016 090d 2E       		.uleb128 0x2e
 2017 090e 92070000 		.4byte	0x792
 2018 0912 EF010000 		.4byte	.LLST7
 2019 0916 30       		.uleb128 0x30
 2020 0917 74000000 		.4byte	.LVL16
 2021 091b 290A0000 		.4byte	0xa29
 2022 091f 00       		.byte	0
 2023 0920 00       		.byte	0
 2024 0921 00       		.byte	0
 2025 0922 10       		.uleb128 0x10
 2026 0923 2F070000 		.4byte	0x72f
 2027 0927 32090000 		.4byte	0x932
 2028 092b 11       		.uleb128 0x11
 2029 092c 46040000 		.4byte	0x446
 2030 0930 0A       		.byte	0xa
 2031 0931 00       		.byte	0
 2032 0932 18       		.uleb128 0x18
 2033 0933 22090000 		.4byte	0x922
 2034 0937 31       		.uleb128 0x31
 2035 0938 BE070000 		.4byte	0x7be
 2036 093c 00000000 		.4byte	.LFB231
 2037 0940 74000000 		.4byte	.LFE231-.LFB231
 2038 0944 01       		.uleb128 0x1
 2039 0945 9C       		.byte	0x9c
 2040 0946 010A0000 		.4byte	0xa01
 2041 094a 2E       		.uleb128 0x2e
 2042 094b CA070000 		.4byte	0x7ca
 2043 094f 0C020000 		.4byte	.LLST8
 2044 0953 32       		.uleb128 0x32
 2045 0954 D5070000 		.4byte	0x7d5
 2046 0958 32       		.uleb128 0x32
 2047 0959 E2070000 		.4byte	0x7e2
 2048 095d 32       		.uleb128 0x32
 2049 095e ED070000 		.4byte	0x7ed
 2050 0962 28       		.uleb128 0x28
 2051 0963 60000000 		.4byte	.Ldebug_ranges0+0x60
 2052 0967 2E       		.uleb128 0x2e
 2053 0968 CA070000 		.4byte	0x7ca
 2054 096c 46020000 		.4byte	.LLST9
 2055 0970 28       		.uleb128 0x28
ARM GAS  /var/folders/c6/c789hm653lg9vtl73krp73tm0000gn/T//ccVgLuPk.s 			page 69


 2056 0971 60000000 		.4byte	.Ldebug_ranges0+0x60
 2057 0975 33       		.uleb128 0x33
 2058 0976 E2070000 		.4byte	0x7e2
 2059 097a 64020000 		.4byte	.LLST10
 2060 097e 33       		.uleb128 0x33
 2061 097f ED070000 		.4byte	0x7ed
 2062 0983 77020000 		.4byte	.LLST11
 2063 0987 32       		.uleb128 0x32
 2064 0988 D5070000 		.4byte	0x7d5
 2065 098c 2A       		.uleb128 0x2a
 2066 098d 7A070000 		.4byte	0x77a
 2067 0991 46000000 		.4byte	.LBB66
 2068 0995 80000000 		.4byte	.Ldebug_ranges0+0x80
 2069 0999 01       		.byte	0x1
 2070 099a EC       		.byte	0xec
 2071 099b BF090000 		.4byte	0x9bf
 2072 099f 2B       		.uleb128 0x2b
 2073 09a0 6E070000 		.4byte	0x76e
 2074 09a4 46000000 		.4byte	.LBB67
 2075 09a8 80000000 		.4byte	.Ldebug_ranges0+0x80
 2076 09ac 0F       		.byte	0xf
 2077 09ad E9       		.byte	0xe9
 2078 09ae 2C       		.uleb128 0x2c
 2079 09af 62070000 		.4byte	0x762
 2080 09b3 46000000 		.4byte	.LBB68
 2081 09b7 80000000 		.4byte	.Ldebug_ranges0+0x80
 2082 09bb 03       		.byte	0x3
 2083 09bc 6B       		.byte	0x6b
 2084 09bd 00       		.byte	0
 2085 09be 00       		.byte	0
 2086 09bf 2A       		.uleb128 0x2a
 2087 09c0 9E070000 		.4byte	0x79e
 2088 09c4 5C000000 		.4byte	.LBB74
 2089 09c8 98000000 		.4byte	.Ldebug_ranges0+0x98
 2090 09cc 01       		.byte	0x1
 2091 09cd FD       		.byte	0xfd
 2092 09ce E5090000 		.4byte	0x9e5
 2093 09d2 2E       		.uleb128 0x2e
 2094 09d3 AA070000 		.4byte	0x7aa
 2095 09d7 8A020000 		.4byte	.LLST12
 2096 09db 30       		.uleb128 0x30
 2097 09dc 66000000 		.4byte	.LVL26
 2098 09e0 180A0000 		.4byte	0xa18
 2099 09e4 00       		.byte	0
 2100 09e5 34       		.uleb128 0x34
 2101 09e6 B6070000 		.4byte	0x7b6
 2102 09ea 6A000000 		.4byte	.LBB78
 2103 09ee 0A000000 		.4byte	.LBE78-.LBB78
 2104 09f2 01       		.byte	0x1
 2105 09f3 DD       		.byte	0xdd
 2106 09f4 30       		.uleb128 0x30
 2107 09f5 6E000000 		.4byte	.LVL27
 2108 09f9 3A0A0000 		.4byte	0xa3a
 2109 09fd 00       		.byte	0
 2110 09fe 00       		.byte	0
 2111 09ff 00       		.byte	0
 2112 0a00 00       		.byte	0
ARM GAS  /var/folders/c6/c789hm653lg9vtl73krp73tm0000gn/T//ccVgLuPk.s 			page 70


 2113 0a01 35       		.uleb128 0x35
 2114 0a02 A7010000 		.4byte	.LASF122
 2115 0a06 11       		.byte	0x11
 2116 0a07 A706     		.2byte	0x6a7
 2117 0a09 C3000000 		.4byte	0xc3
 2118 0a0d 36       		.uleb128 0x36
 2119 0a0e 636800   		.ascii	"ch\000"
 2120 0a11 08       		.byte	0x8
 2121 0a12 0902     		.2byte	0x209
 2122 0a14 DF030000 		.4byte	0x3df
 2123 0a18 37       		.uleb128 0x37
 2124 0a19 1E060000 		.4byte	.LASF124
 2125 0a1d 10       		.byte	0x10
 2126 0a1e 59       		.byte	0x59
 2127 0a1f 290A0000 		.4byte	0xa29
 2128 0a23 0D       		.uleb128 0xd
 2129 0a24 25010000 		.4byte	0x125
 2130 0a28 00       		.byte	0
 2131 0a29 37       		.uleb128 0x37
 2132 0a2a A6050000 		.4byte	.LASF125
 2133 0a2e 10       		.byte	0x10
 2134 0a2f 57       		.byte	0x57
 2135 0a30 3A0A0000 		.4byte	0xa3a
 2136 0a34 0D       		.uleb128 0xd
 2137 0a35 25010000 		.4byte	0x125
 2138 0a39 00       		.byte	0
 2139 0a3a 38       		.uleb128 0x38
 2140 0a3b 34050000 		.4byte	.LASF133
 2141 0a3f 10       		.byte	0x10
 2142 0a40 58       		.byte	0x58
 2143 0a41 00       		.byte	0
 2144              		.section	.debug_abbrev,"",%progbits
 2145              	.Ldebug_abbrev0:
 2146 0000 01       		.uleb128 0x1
 2147 0001 11       		.uleb128 0x11
 2148 0002 01       		.byte	0x1
 2149 0003 25       		.uleb128 0x25
 2150 0004 0E       		.uleb128 0xe
 2151 0005 13       		.uleb128 0x13
 2152 0006 0B       		.uleb128 0xb
 2153 0007 03       		.uleb128 0x3
 2154 0008 0E       		.uleb128 0xe
 2155 0009 1B       		.uleb128 0x1b
 2156 000a 0E       		.uleb128 0xe
 2157 000b 55       		.uleb128 0x55
 2158 000c 17       		.uleb128 0x17
 2159 000d 11       		.uleb128 0x11
 2160 000e 01       		.uleb128 0x1
 2161 000f 10       		.uleb128 0x10
 2162 0010 17       		.uleb128 0x17
 2163 0011 00       		.byte	0
 2164 0012 00       		.byte	0
 2165 0013 02       		.uleb128 0x2
 2166 0014 24       		.uleb128 0x24
 2167 0015 00       		.byte	0
 2168 0016 0B       		.uleb128 0xb
 2169 0017 0B       		.uleb128 0xb
ARM GAS  /var/folders/c6/c789hm653lg9vtl73krp73tm0000gn/T//ccVgLuPk.s 			page 71


 2170 0018 3E       		.uleb128 0x3e
 2171 0019 0B       		.uleb128 0xb
 2172 001a 03       		.uleb128 0x3
 2173 001b 08       		.uleb128 0x8
 2174 001c 00       		.byte	0
 2175 001d 00       		.byte	0
 2176 001e 03       		.uleb128 0x3
 2177 001f 24       		.uleb128 0x24
 2178 0020 00       		.byte	0
 2179 0021 0B       		.uleb128 0xb
 2180 0022 0B       		.uleb128 0xb
 2181 0023 3E       		.uleb128 0x3e
 2182 0024 0B       		.uleb128 0xb
 2183 0025 03       		.uleb128 0x3
 2184 0026 0E       		.uleb128 0xe
 2185 0027 00       		.byte	0
 2186 0028 00       		.byte	0
 2187 0029 04       		.uleb128 0x4
 2188 002a 16       		.uleb128 0x16
 2189 002b 00       		.byte	0
 2190 002c 03       		.uleb128 0x3
 2191 002d 0E       		.uleb128 0xe
 2192 002e 3A       		.uleb128 0x3a
 2193 002f 0B       		.uleb128 0xb
 2194 0030 3B       		.uleb128 0x3b
 2195 0031 0B       		.uleb128 0xb
 2196 0032 49       		.uleb128 0x49
 2197 0033 13       		.uleb128 0x13
 2198 0034 00       		.byte	0
 2199 0035 00       		.byte	0
 2200 0036 05       		.uleb128 0x5
 2201 0037 35       		.uleb128 0x35
 2202 0038 00       		.byte	0
 2203 0039 49       		.uleb128 0x49
 2204 003a 13       		.uleb128 0x13
 2205 003b 00       		.byte	0
 2206 003c 00       		.byte	0
 2207 003d 06       		.uleb128 0x6
 2208 003e 13       		.uleb128 0x13
 2209 003f 01       		.byte	0x1
 2210 0040 03       		.uleb128 0x3
 2211 0041 0E       		.uleb128 0xe
 2212 0042 0B       		.uleb128 0xb
 2213 0043 0B       		.uleb128 0xb
 2214 0044 3A       		.uleb128 0x3a
 2215 0045 0B       		.uleb128 0xb
 2216 0046 3B       		.uleb128 0x3b
 2217 0047 0B       		.uleb128 0xb
 2218 0048 01       		.uleb128 0x1
 2219 0049 13       		.uleb128 0x13
 2220 004a 00       		.byte	0
 2221 004b 00       		.byte	0
 2222 004c 07       		.uleb128 0x7
 2223 004d 0D       		.uleb128 0xd
 2224 004e 00       		.byte	0
 2225 004f 03       		.uleb128 0x3
 2226 0050 0E       		.uleb128 0xe
ARM GAS  /var/folders/c6/c789hm653lg9vtl73krp73tm0000gn/T//ccVgLuPk.s 			page 72


 2227 0051 3A       		.uleb128 0x3a
 2228 0052 0B       		.uleb128 0xb
 2229 0053 3B       		.uleb128 0x3b
 2230 0054 0B       		.uleb128 0xb
 2231 0055 49       		.uleb128 0x49
 2232 0056 13       		.uleb128 0x13
 2233 0057 38       		.uleb128 0x38
 2234 0058 0B       		.uleb128 0xb
 2235 0059 00       		.byte	0
 2236 005a 00       		.byte	0
 2237 005b 08       		.uleb128 0x8
 2238 005c 0D       		.uleb128 0xd
 2239 005d 00       		.byte	0
 2240 005e 03       		.uleb128 0x3
 2241 005f 08       		.uleb128 0x8
 2242 0060 3A       		.uleb128 0x3a
 2243 0061 0B       		.uleb128 0xb
 2244 0062 3B       		.uleb128 0x3b
 2245 0063 05       		.uleb128 0x5
 2246 0064 49       		.uleb128 0x49
 2247 0065 13       		.uleb128 0x13
 2248 0066 38       		.uleb128 0x38
 2249 0067 0B       		.uleb128 0xb
 2250 0068 00       		.byte	0
 2251 0069 00       		.byte	0
 2252 006a 09       		.uleb128 0x9
 2253 006b 0D       		.uleb128 0xd
 2254 006c 00       		.byte	0
 2255 006d 03       		.uleb128 0x3
 2256 006e 0E       		.uleb128 0xe
 2257 006f 3A       		.uleb128 0x3a
 2258 0070 0B       		.uleb128 0xb
 2259 0071 3B       		.uleb128 0x3b
 2260 0072 05       		.uleb128 0x5
 2261 0073 49       		.uleb128 0x49
 2262 0074 13       		.uleb128 0x13
 2263 0075 38       		.uleb128 0x38
 2264 0076 0B       		.uleb128 0xb
 2265 0077 00       		.byte	0
 2266 0078 00       		.byte	0
 2267 0079 0A       		.uleb128 0xa
 2268 007a 0F       		.uleb128 0xf
 2269 007b 00       		.byte	0
 2270 007c 0B       		.uleb128 0xb
 2271 007d 0B       		.uleb128 0xb
 2272 007e 49       		.uleb128 0x49
 2273 007f 13       		.uleb128 0x13
 2274 0080 00       		.byte	0
 2275 0081 00       		.byte	0
 2276 0082 0B       		.uleb128 0xb
 2277 0083 13       		.uleb128 0x13
 2278 0084 01       		.byte	0x1
 2279 0085 03       		.uleb128 0x3
 2280 0086 0E       		.uleb128 0xe
 2281 0087 0B       		.uleb128 0xb
 2282 0088 0B       		.uleb128 0xb
 2283 0089 3A       		.uleb128 0x3a
ARM GAS  /var/folders/c6/c789hm653lg9vtl73krp73tm0000gn/T//ccVgLuPk.s 			page 73


 2284 008a 0B       		.uleb128 0xb
 2285 008b 3B       		.uleb128 0x3b
 2286 008c 05       		.uleb128 0x5
 2287 008d 01       		.uleb128 0x1
 2288 008e 13       		.uleb128 0x13
 2289 008f 00       		.byte	0
 2290 0090 00       		.byte	0
 2291 0091 0C       		.uleb128 0xc
 2292 0092 15       		.uleb128 0x15
 2293 0093 01       		.byte	0x1
 2294 0094 27       		.uleb128 0x27
 2295 0095 19       		.uleb128 0x19
 2296 0096 01       		.uleb128 0x1
 2297 0097 13       		.uleb128 0x13
 2298 0098 00       		.byte	0
 2299 0099 00       		.byte	0
 2300 009a 0D       		.uleb128 0xd
 2301 009b 05       		.uleb128 0x5
 2302 009c 00       		.byte	0
 2303 009d 49       		.uleb128 0x49
 2304 009e 13       		.uleb128 0x13
 2305 009f 00       		.byte	0
 2306 00a0 00       		.byte	0
 2307 00a1 0E       		.uleb128 0xe
 2308 00a2 0F       		.uleb128 0xf
 2309 00a3 00       		.byte	0
 2310 00a4 0B       		.uleb128 0xb
 2311 00a5 0B       		.uleb128 0xb
 2312 00a6 00       		.byte	0
 2313 00a7 00       		.byte	0
 2314 00a8 0F       		.uleb128 0xf
 2315 00a9 13       		.uleb128 0x13
 2316 00aa 01       		.byte	0x1
 2317 00ab 03       		.uleb128 0x3
 2318 00ac 0E       		.uleb128 0xe
 2319 00ad 0B       		.uleb128 0xb
 2320 00ae 05       		.uleb128 0x5
 2321 00af 3A       		.uleb128 0x3a
 2322 00b0 0B       		.uleb128 0xb
 2323 00b1 3B       		.uleb128 0x3b
 2324 00b2 05       		.uleb128 0x5
 2325 00b3 01       		.uleb128 0x1
 2326 00b4 13       		.uleb128 0x13
 2327 00b5 00       		.byte	0
 2328 00b6 00       		.byte	0
 2329 00b7 10       		.uleb128 0x10
 2330 00b8 01       		.uleb128 0x1
 2331 00b9 01       		.byte	0x1
 2332 00ba 49       		.uleb128 0x49
 2333 00bb 13       		.uleb128 0x13
 2334 00bc 01       		.uleb128 0x1
 2335 00bd 13       		.uleb128 0x13
 2336 00be 00       		.byte	0
 2337 00bf 00       		.byte	0
 2338 00c0 11       		.uleb128 0x11
 2339 00c1 21       		.uleb128 0x21
 2340 00c2 00       		.byte	0
ARM GAS  /var/folders/c6/c789hm653lg9vtl73krp73tm0000gn/T//ccVgLuPk.s 			page 74


 2341 00c3 49       		.uleb128 0x49
 2342 00c4 13       		.uleb128 0x13
 2343 00c5 2F       		.uleb128 0x2f
 2344 00c6 0B       		.uleb128 0xb
 2345 00c7 00       		.byte	0
 2346 00c8 00       		.byte	0
 2347 00c9 12       		.uleb128 0x12
 2348 00ca 0D       		.uleb128 0xd
 2349 00cb 00       		.byte	0
 2350 00cc 03       		.uleb128 0x3
 2351 00cd 08       		.uleb128 0x8
 2352 00ce 3A       		.uleb128 0x3a
 2353 00cf 0B       		.uleb128 0xb
 2354 00d0 3B       		.uleb128 0x3b
 2355 00d1 0B       		.uleb128 0xb
 2356 00d2 49       		.uleb128 0x49
 2357 00d3 13       		.uleb128 0x13
 2358 00d4 38       		.uleb128 0x38
 2359 00d5 0B       		.uleb128 0xb
 2360 00d6 00       		.byte	0
 2361 00d7 00       		.byte	0
 2362 00d8 13       		.uleb128 0x13
 2363 00d9 13       		.uleb128 0x13
 2364 00da 01       		.byte	0x1
 2365 00db 0B       		.uleb128 0xb
 2366 00dc 0B       		.uleb128 0xb
 2367 00dd 3A       		.uleb128 0x3a
 2368 00de 0B       		.uleb128 0xb
 2369 00df 3B       		.uleb128 0x3b
 2370 00e0 05       		.uleb128 0x5
 2371 00e1 01       		.uleb128 0x1
 2372 00e2 13       		.uleb128 0x13
 2373 00e3 00       		.byte	0
 2374 00e4 00       		.byte	0
 2375 00e5 14       		.uleb128 0x14
 2376 00e6 16       		.uleb128 0x16
 2377 00e7 00       		.byte	0
 2378 00e8 03       		.uleb128 0x3
 2379 00e9 0E       		.uleb128 0xe
 2380 00ea 3A       		.uleb128 0x3a
 2381 00eb 0B       		.uleb128 0xb
 2382 00ec 3B       		.uleb128 0x3b
 2383 00ed 05       		.uleb128 0x5
 2384 00ee 49       		.uleb128 0x49
 2385 00ef 13       		.uleb128 0x13
 2386 00f0 00       		.byte	0
 2387 00f1 00       		.byte	0
 2388 00f2 15       		.uleb128 0x15
 2389 00f3 13       		.uleb128 0x13
 2390 00f4 01       		.byte	0x1
 2391 00f5 0B       		.uleb128 0xb
 2392 00f6 0B       		.uleb128 0xb
 2393 00f7 3A       		.uleb128 0x3a
 2394 00f8 0B       		.uleb128 0xb
 2395 00f9 3B       		.uleb128 0x3b
 2396 00fa 0B       		.uleb128 0xb
 2397 00fb 01       		.uleb128 0x1
ARM GAS  /var/folders/c6/c789hm653lg9vtl73krp73tm0000gn/T//ccVgLuPk.s 			page 75


 2398 00fc 13       		.uleb128 0x13
 2399 00fd 00       		.byte	0
 2400 00fe 00       		.byte	0
 2401 00ff 16       		.uleb128 0x16
 2402 0100 17       		.uleb128 0x17
 2403 0101 01       		.byte	0x1
 2404 0102 0B       		.uleb128 0xb
 2405 0103 0B       		.uleb128 0xb
 2406 0104 3A       		.uleb128 0x3a
 2407 0105 0B       		.uleb128 0xb
 2408 0106 3B       		.uleb128 0x3b
 2409 0107 0B       		.uleb128 0xb
 2410 0108 01       		.uleb128 0x1
 2411 0109 13       		.uleb128 0x13
 2412 010a 00       		.byte	0
 2413 010b 00       		.byte	0
 2414 010c 17       		.uleb128 0x17
 2415 010d 0D       		.uleb128 0xd
 2416 010e 00       		.byte	0
 2417 010f 03       		.uleb128 0x3
 2418 0110 0E       		.uleb128 0xe
 2419 0111 3A       		.uleb128 0x3a
 2420 0112 0B       		.uleb128 0xb
 2421 0113 3B       		.uleb128 0x3b
 2422 0114 05       		.uleb128 0x5
 2423 0115 49       		.uleb128 0x49
 2424 0116 13       		.uleb128 0x13
 2425 0117 00       		.byte	0
 2426 0118 00       		.byte	0
 2427 0119 18       		.uleb128 0x18
 2428 011a 26       		.uleb128 0x26
 2429 011b 00       		.byte	0
 2430 011c 49       		.uleb128 0x49
 2431 011d 13       		.uleb128 0x13
 2432 011e 00       		.byte	0
 2433 011f 00       		.byte	0
 2434 0120 19       		.uleb128 0x19
 2435 0121 2E       		.uleb128 0x2e
 2436 0122 00       		.byte	0
 2437 0123 03       		.uleb128 0x3
 2438 0124 0E       		.uleb128 0xe
 2439 0125 3A       		.uleb128 0x3a
 2440 0126 0B       		.uleb128 0xb
 2441 0127 3B       		.uleb128 0x3b
 2442 0128 0B       		.uleb128 0xb
 2443 0129 27       		.uleb128 0x27
 2444 012a 19       		.uleb128 0x19
 2445 012b 49       		.uleb128 0x49
 2446 012c 13       		.uleb128 0x13
 2447 012d 20       		.uleb128 0x20
 2448 012e 0B       		.uleb128 0xb
 2449 012f 00       		.byte	0
 2450 0130 00       		.byte	0
 2451 0131 1A       		.uleb128 0x1a
 2452 0132 2E       		.uleb128 0x2e
 2453 0133 01       		.byte	0x1
 2454 0134 03       		.uleb128 0x3
ARM GAS  /var/folders/c6/c789hm653lg9vtl73krp73tm0000gn/T//ccVgLuPk.s 			page 76


 2455 0135 0E       		.uleb128 0xe
 2456 0136 3A       		.uleb128 0x3a
 2457 0137 0B       		.uleb128 0xb
 2458 0138 3B       		.uleb128 0x3b
 2459 0139 0B       		.uleb128 0xb
 2460 013a 27       		.uleb128 0x27
 2461 013b 19       		.uleb128 0x19
 2462 013c 20       		.uleb128 0x20
 2463 013d 0B       		.uleb128 0xb
 2464 013e 01       		.uleb128 0x1
 2465 013f 13       		.uleb128 0x13
 2466 0140 00       		.byte	0
 2467 0141 00       		.byte	0
 2468 0142 1B       		.uleb128 0x1b
 2469 0143 05       		.uleb128 0x5
 2470 0144 00       		.byte	0
 2471 0145 03       		.uleb128 0x3
 2472 0146 0E       		.uleb128 0xe
 2473 0147 3A       		.uleb128 0x3a
 2474 0148 0B       		.uleb128 0xb
 2475 0149 3B       		.uleb128 0x3b
 2476 014a 0B       		.uleb128 0xb
 2477 014b 49       		.uleb128 0x49
 2478 014c 13       		.uleb128 0x13
 2479 014d 00       		.byte	0
 2480 014e 00       		.byte	0
 2481 014f 1C       		.uleb128 0x1c
 2482 0150 2E       		.uleb128 0x2e
 2483 0151 00       		.byte	0
 2484 0152 03       		.uleb128 0x3
 2485 0153 0E       		.uleb128 0xe
 2486 0154 3A       		.uleb128 0x3a
 2487 0155 0B       		.uleb128 0xb
 2488 0156 3B       		.uleb128 0x3b
 2489 0157 0B       		.uleb128 0xb
 2490 0158 27       		.uleb128 0x27
 2491 0159 19       		.uleb128 0x19
 2492 015a 20       		.uleb128 0x20
 2493 015b 0B       		.uleb128 0xb
 2494 015c 00       		.byte	0
 2495 015d 00       		.byte	0
 2496 015e 1D       		.uleb128 0x1d
 2497 015f 2E       		.uleb128 0x2e
 2498 0160 01       		.byte	0x1
 2499 0161 3F       		.uleb128 0x3f
 2500 0162 19       		.uleb128 0x19
 2501 0163 03       		.uleb128 0x3
 2502 0164 0E       		.uleb128 0xe
 2503 0165 3A       		.uleb128 0x3a
 2504 0166 0B       		.uleb128 0xb
 2505 0167 3B       		.uleb128 0x3b
 2506 0168 0B       		.uleb128 0xb
 2507 0169 27       		.uleb128 0x27
 2508 016a 19       		.uleb128 0x19
 2509 016b 20       		.uleb128 0x20
 2510 016c 0B       		.uleb128 0xb
 2511 016d 01       		.uleb128 0x1
ARM GAS  /var/folders/c6/c789hm653lg9vtl73krp73tm0000gn/T//ccVgLuPk.s 			page 77


 2512 016e 13       		.uleb128 0x13
 2513 016f 00       		.byte	0
 2514 0170 00       		.byte	0
 2515 0171 1E       		.uleb128 0x1e
 2516 0172 05       		.uleb128 0x5
 2517 0173 00       		.byte	0
 2518 0174 03       		.uleb128 0x3
 2519 0175 08       		.uleb128 0x8
 2520 0176 3A       		.uleb128 0x3a
 2521 0177 0B       		.uleb128 0xb
 2522 0178 3B       		.uleb128 0x3b
 2523 0179 0B       		.uleb128 0xb
 2524 017a 49       		.uleb128 0x49
 2525 017b 13       		.uleb128 0x13
 2526 017c 00       		.byte	0
 2527 017d 00       		.byte	0
 2528 017e 1F       		.uleb128 0x1f
 2529 017f 34       		.uleb128 0x34
 2530 0180 00       		.byte	0
 2531 0181 03       		.uleb128 0x3
 2532 0182 0E       		.uleb128 0xe
 2533 0183 49       		.uleb128 0x49
 2534 0184 13       		.uleb128 0x13
 2535 0185 34       		.uleb128 0x34
 2536 0186 19       		.uleb128 0x19
 2537 0187 1C       		.uleb128 0x1c
 2538 0188 0E       		.uleb128 0xe
 2539 0189 00       		.byte	0
 2540 018a 00       		.byte	0
 2541 018b 20       		.uleb128 0x20
 2542 018c 34       		.uleb128 0x34
 2543 018d 00       		.byte	0
 2544 018e 03       		.uleb128 0x3
 2545 018f 0E       		.uleb128 0xe
 2546 0190 3A       		.uleb128 0x3a
 2547 0191 0B       		.uleb128 0xb
 2548 0192 3B       		.uleb128 0x3b
 2549 0193 0B       		.uleb128 0xb
 2550 0194 49       		.uleb128 0x49
 2551 0195 13       		.uleb128 0x13
 2552 0196 00       		.byte	0
 2553 0197 00       		.byte	0
 2554 0198 21       		.uleb128 0x21
 2555 0199 2E       		.uleb128 0x2e
 2556 019a 00       		.byte	0
 2557 019b 3F       		.uleb128 0x3f
 2558 019c 19       		.uleb128 0x19
 2559 019d 03       		.uleb128 0x3
 2560 019e 0E       		.uleb128 0xe
 2561 019f 3A       		.uleb128 0x3a
 2562 01a0 0B       		.uleb128 0xb
 2563 01a1 3B       		.uleb128 0x3b
 2564 01a2 0B       		.uleb128 0xb
 2565 01a3 27       		.uleb128 0x27
 2566 01a4 19       		.uleb128 0x19
 2567 01a5 11       		.uleb128 0x11
 2568 01a6 01       		.uleb128 0x1
ARM GAS  /var/folders/c6/c789hm653lg9vtl73krp73tm0000gn/T//ccVgLuPk.s 			page 78


 2569 01a7 12       		.uleb128 0x12
 2570 01a8 06       		.uleb128 0x6
 2571 01a9 40       		.uleb128 0x40
 2572 01aa 18       		.uleb128 0x18
 2573 01ab 9742     		.uleb128 0x2117
 2574 01ad 19       		.uleb128 0x19
 2575 01ae 00       		.byte	0
 2576 01af 00       		.byte	0
 2577 01b0 22       		.uleb128 0x22
 2578 01b1 2E       		.uleb128 0x2e
 2579 01b2 01       		.byte	0x1
 2580 01b3 3F       		.uleb128 0x3f
 2581 01b4 19       		.uleb128 0x19
 2582 01b5 03       		.uleb128 0x3
 2583 01b6 0E       		.uleb128 0xe
 2584 01b7 3A       		.uleb128 0x3a
 2585 01b8 0B       		.uleb128 0xb
 2586 01b9 3B       		.uleb128 0x3b
 2587 01ba 0B       		.uleb128 0xb
 2588 01bb 27       		.uleb128 0x27
 2589 01bc 19       		.uleb128 0x19
 2590 01bd 11       		.uleb128 0x11
 2591 01be 01       		.uleb128 0x1
 2592 01bf 12       		.uleb128 0x12
 2593 01c0 06       		.uleb128 0x6
 2594 01c1 40       		.uleb128 0x40
 2595 01c2 18       		.uleb128 0x18
 2596 01c3 9742     		.uleb128 0x2117
 2597 01c5 19       		.uleb128 0x19
 2598 01c6 01       		.uleb128 0x1
 2599 01c7 13       		.uleb128 0x13
 2600 01c8 00       		.byte	0
 2601 01c9 00       		.byte	0
 2602 01ca 23       		.uleb128 0x23
 2603 01cb 05       		.uleb128 0x5
 2604 01cc 00       		.byte	0
 2605 01cd 03       		.uleb128 0x3
 2606 01ce 08       		.uleb128 0x8
 2607 01cf 3A       		.uleb128 0x3a
 2608 01d0 0B       		.uleb128 0xb
 2609 01d1 3B       		.uleb128 0x3b
 2610 01d2 0B       		.uleb128 0xb
 2611 01d3 49       		.uleb128 0x49
 2612 01d4 13       		.uleb128 0x13
 2613 01d5 02       		.uleb128 0x2
 2614 01d6 17       		.uleb128 0x17
 2615 01d7 00       		.byte	0
 2616 01d8 00       		.byte	0
 2617 01d9 24       		.uleb128 0x24
 2618 01da 05       		.uleb128 0x5
 2619 01db 00       		.byte	0
 2620 01dc 03       		.uleb128 0x3
 2621 01dd 0E       		.uleb128 0xe
 2622 01de 3A       		.uleb128 0x3a
 2623 01df 0B       		.uleb128 0xb
 2624 01e0 3B       		.uleb128 0x3b
 2625 01e1 0B       		.uleb128 0xb
ARM GAS  /var/folders/c6/c789hm653lg9vtl73krp73tm0000gn/T//ccVgLuPk.s 			page 79


 2626 01e2 49       		.uleb128 0x49
 2627 01e3 13       		.uleb128 0x13
 2628 01e4 02       		.uleb128 0x2
 2629 01e5 17       		.uleb128 0x17
 2630 01e6 00       		.byte	0
 2631 01e7 00       		.byte	0
 2632 01e8 25       		.uleb128 0x25
 2633 01e9 34       		.uleb128 0x34
 2634 01ea 00       		.byte	0
 2635 01eb 03       		.uleb128 0x3
 2636 01ec 08       		.uleb128 0x8
 2637 01ed 3A       		.uleb128 0x3a
 2638 01ee 0B       		.uleb128 0xb
 2639 01ef 3B       		.uleb128 0x3b
 2640 01f0 0B       		.uleb128 0xb
 2641 01f1 49       		.uleb128 0x49
 2642 01f2 13       		.uleb128 0x13
 2643 01f3 02       		.uleb128 0x2
 2644 01f4 17       		.uleb128 0x17
 2645 01f5 00       		.byte	0
 2646 01f6 00       		.byte	0
 2647 01f7 26       		.uleb128 0x26
 2648 01f8 34       		.uleb128 0x34
 2649 01f9 00       		.byte	0
 2650 01fa 03       		.uleb128 0x3
 2651 01fb 0E       		.uleb128 0xe
 2652 01fc 3A       		.uleb128 0x3a
 2653 01fd 0B       		.uleb128 0xb
 2654 01fe 3B       		.uleb128 0x3b
 2655 01ff 0B       		.uleb128 0xb
 2656 0200 49       		.uleb128 0x49
 2657 0201 13       		.uleb128 0x13
 2658 0202 02       		.uleb128 0x2
 2659 0203 17       		.uleb128 0x17
 2660 0204 00       		.byte	0
 2661 0205 00       		.byte	0
 2662 0206 27       		.uleb128 0x27
 2663 0207 34       		.uleb128 0x34
 2664 0208 00       		.byte	0
 2665 0209 03       		.uleb128 0x3
 2666 020a 0E       		.uleb128 0xe
 2667 020b 49       		.uleb128 0x49
 2668 020c 13       		.uleb128 0x13
 2669 020d 34       		.uleb128 0x34
 2670 020e 19       		.uleb128 0x19
 2671 020f 00       		.byte	0
 2672 0210 00       		.byte	0
 2673 0211 28       		.uleb128 0x28
 2674 0212 0B       		.uleb128 0xb
 2675 0213 01       		.byte	0x1
 2676 0214 55       		.uleb128 0x55
 2677 0215 17       		.uleb128 0x17
 2678 0216 00       		.byte	0
 2679 0217 00       		.byte	0
 2680 0218 29       		.uleb128 0x29
 2681 0219 34       		.uleb128 0x34
 2682 021a 00       		.byte	0
ARM GAS  /var/folders/c6/c789hm653lg9vtl73krp73tm0000gn/T//ccVgLuPk.s 			page 80


 2683 021b 03       		.uleb128 0x3
 2684 021c 08       		.uleb128 0x8
 2685 021d 3A       		.uleb128 0x3a
 2686 021e 0B       		.uleb128 0xb
 2687 021f 3B       		.uleb128 0x3b
 2688 0220 0B       		.uleb128 0xb
 2689 0221 49       		.uleb128 0x49
 2690 0222 13       		.uleb128 0x13
 2691 0223 00       		.byte	0
 2692 0224 00       		.byte	0
 2693 0225 2A       		.uleb128 0x2a
 2694 0226 1D       		.uleb128 0x1d
 2695 0227 01       		.byte	0x1
 2696 0228 31       		.uleb128 0x31
 2697 0229 13       		.uleb128 0x13
 2698 022a 52       		.uleb128 0x52
 2699 022b 01       		.uleb128 0x1
 2700 022c 55       		.uleb128 0x55
 2701 022d 17       		.uleb128 0x17
 2702 022e 58       		.uleb128 0x58
 2703 022f 0B       		.uleb128 0xb
 2704 0230 59       		.uleb128 0x59
 2705 0231 0B       		.uleb128 0xb
 2706 0232 01       		.uleb128 0x1
 2707 0233 13       		.uleb128 0x13
 2708 0234 00       		.byte	0
 2709 0235 00       		.byte	0
 2710 0236 2B       		.uleb128 0x2b
 2711 0237 1D       		.uleb128 0x1d
 2712 0238 01       		.byte	0x1
 2713 0239 31       		.uleb128 0x31
 2714 023a 13       		.uleb128 0x13
 2715 023b 52       		.uleb128 0x52
 2716 023c 01       		.uleb128 0x1
 2717 023d 55       		.uleb128 0x55
 2718 023e 17       		.uleb128 0x17
 2719 023f 58       		.uleb128 0x58
 2720 0240 0B       		.uleb128 0xb
 2721 0241 59       		.uleb128 0x59
 2722 0242 0B       		.uleb128 0xb
 2723 0243 00       		.byte	0
 2724 0244 00       		.byte	0
 2725 0245 2C       		.uleb128 0x2c
 2726 0246 1D       		.uleb128 0x1d
 2727 0247 00       		.byte	0
 2728 0248 31       		.uleb128 0x31
 2729 0249 13       		.uleb128 0x13
 2730 024a 52       		.uleb128 0x52
 2731 024b 01       		.uleb128 0x1
 2732 024c 55       		.uleb128 0x55
 2733 024d 17       		.uleb128 0x17
 2734 024e 58       		.uleb128 0x58
 2735 024f 0B       		.uleb128 0xb
 2736 0250 59       		.uleb128 0x59
 2737 0251 0B       		.uleb128 0xb
 2738 0252 00       		.byte	0
 2739 0253 00       		.byte	0
ARM GAS  /var/folders/c6/c789hm653lg9vtl73krp73tm0000gn/T//ccVgLuPk.s 			page 81


 2740 0254 2D       		.uleb128 0x2d
 2741 0255 1D       		.uleb128 0x1d
 2742 0256 01       		.byte	0x1
 2743 0257 31       		.uleb128 0x31
 2744 0258 13       		.uleb128 0x13
 2745 0259 11       		.uleb128 0x11
 2746 025a 01       		.uleb128 0x1
 2747 025b 12       		.uleb128 0x12
 2748 025c 06       		.uleb128 0x6
 2749 025d 58       		.uleb128 0x58
 2750 025e 0B       		.uleb128 0xb
 2751 025f 59       		.uleb128 0x59
 2752 0260 0B       		.uleb128 0xb
 2753 0261 01       		.uleb128 0x1
 2754 0262 13       		.uleb128 0x13
 2755 0263 00       		.byte	0
 2756 0264 00       		.byte	0
 2757 0265 2E       		.uleb128 0x2e
 2758 0266 05       		.uleb128 0x5
 2759 0267 00       		.byte	0
 2760 0268 31       		.uleb128 0x31
 2761 0269 13       		.uleb128 0x13
 2762 026a 02       		.uleb128 0x2
 2763 026b 17       		.uleb128 0x17
 2764 026c 00       		.byte	0
 2765 026d 00       		.byte	0
 2766 026e 2F       		.uleb128 0x2f
 2767 026f 898201   		.uleb128 0x4109
 2768 0272 00       		.byte	0
 2769 0273 11       		.uleb128 0x11
 2770 0274 01       		.uleb128 0x1
 2771 0275 31       		.uleb128 0x31
 2772 0276 13       		.uleb128 0x13
 2773 0277 00       		.byte	0
 2774 0278 00       		.byte	0
 2775 0279 30       		.uleb128 0x30
 2776 027a 898201   		.uleb128 0x4109
 2777 027d 00       		.byte	0
 2778 027e 11       		.uleb128 0x11
 2779 027f 01       		.uleb128 0x1
 2780 0280 9542     		.uleb128 0x2115
 2781 0282 19       		.uleb128 0x19
 2782 0283 31       		.uleb128 0x31
 2783 0284 13       		.uleb128 0x13
 2784 0285 00       		.byte	0
 2785 0286 00       		.byte	0
 2786 0287 31       		.uleb128 0x31
 2787 0288 2E       		.uleb128 0x2e
 2788 0289 01       		.byte	0x1
 2789 028a 31       		.uleb128 0x31
 2790 028b 13       		.uleb128 0x13
 2791 028c 11       		.uleb128 0x11
 2792 028d 01       		.uleb128 0x1
 2793 028e 12       		.uleb128 0x12
 2794 028f 06       		.uleb128 0x6
 2795 0290 40       		.uleb128 0x40
 2796 0291 18       		.uleb128 0x18
ARM GAS  /var/folders/c6/c789hm653lg9vtl73krp73tm0000gn/T//ccVgLuPk.s 			page 82


 2797 0292 9742     		.uleb128 0x2117
 2798 0294 19       		.uleb128 0x19
 2799 0295 01       		.uleb128 0x1
 2800 0296 13       		.uleb128 0x13
 2801 0297 00       		.byte	0
 2802 0298 00       		.byte	0
 2803 0299 32       		.uleb128 0x32
 2804 029a 34       		.uleb128 0x34
 2805 029b 00       		.byte	0
 2806 029c 31       		.uleb128 0x31
 2807 029d 13       		.uleb128 0x13
 2808 029e 00       		.byte	0
 2809 029f 00       		.byte	0
 2810 02a0 33       		.uleb128 0x33
 2811 02a1 34       		.uleb128 0x34
 2812 02a2 00       		.byte	0
 2813 02a3 31       		.uleb128 0x31
 2814 02a4 13       		.uleb128 0x13
 2815 02a5 02       		.uleb128 0x2
 2816 02a6 17       		.uleb128 0x17
 2817 02a7 00       		.byte	0
 2818 02a8 00       		.byte	0
 2819 02a9 34       		.uleb128 0x34
 2820 02aa 1D       		.uleb128 0x1d
 2821 02ab 01       		.byte	0x1
 2822 02ac 31       		.uleb128 0x31
 2823 02ad 13       		.uleb128 0x13
 2824 02ae 11       		.uleb128 0x11
 2825 02af 01       		.uleb128 0x1
 2826 02b0 12       		.uleb128 0x12
 2827 02b1 06       		.uleb128 0x6
 2828 02b2 58       		.uleb128 0x58
 2829 02b3 0B       		.uleb128 0xb
 2830 02b4 59       		.uleb128 0x59
 2831 02b5 0B       		.uleb128 0xb
 2832 02b6 00       		.byte	0
 2833 02b7 00       		.byte	0
 2834 02b8 35       		.uleb128 0x35
 2835 02b9 34       		.uleb128 0x34
 2836 02ba 00       		.byte	0
 2837 02bb 03       		.uleb128 0x3
 2838 02bc 0E       		.uleb128 0xe
 2839 02bd 3A       		.uleb128 0x3a
 2840 02be 0B       		.uleb128 0xb
 2841 02bf 3B       		.uleb128 0x3b
 2842 02c0 05       		.uleb128 0x5
 2843 02c1 49       		.uleb128 0x49
 2844 02c2 13       		.uleb128 0x13
 2845 02c3 3F       		.uleb128 0x3f
 2846 02c4 19       		.uleb128 0x19
 2847 02c5 3C       		.uleb128 0x3c
 2848 02c6 19       		.uleb128 0x19
 2849 02c7 00       		.byte	0
 2850 02c8 00       		.byte	0
 2851 02c9 36       		.uleb128 0x36
 2852 02ca 34       		.uleb128 0x34
 2853 02cb 00       		.byte	0
ARM GAS  /var/folders/c6/c789hm653lg9vtl73krp73tm0000gn/T//ccVgLuPk.s 			page 83


 2854 02cc 03       		.uleb128 0x3
 2855 02cd 08       		.uleb128 0x8
 2856 02ce 3A       		.uleb128 0x3a
 2857 02cf 0B       		.uleb128 0xb
 2858 02d0 3B       		.uleb128 0x3b
 2859 02d1 05       		.uleb128 0x5
 2860 02d2 49       		.uleb128 0x49
 2861 02d3 13       		.uleb128 0x13
 2862 02d4 3F       		.uleb128 0x3f
 2863 02d5 19       		.uleb128 0x19
 2864 02d6 3C       		.uleb128 0x3c
 2865 02d7 19       		.uleb128 0x19
 2866 02d8 00       		.byte	0
 2867 02d9 00       		.byte	0
 2868 02da 37       		.uleb128 0x37
 2869 02db 2E       		.uleb128 0x2e
 2870 02dc 01       		.byte	0x1
 2871 02dd 3F       		.uleb128 0x3f
 2872 02de 19       		.uleb128 0x19
 2873 02df 03       		.uleb128 0x3
 2874 02e0 0E       		.uleb128 0xe
 2875 02e1 3A       		.uleb128 0x3a
 2876 02e2 0B       		.uleb128 0xb
 2877 02e3 3B       		.uleb128 0x3b
 2878 02e4 0B       		.uleb128 0xb
 2879 02e5 27       		.uleb128 0x27
 2880 02e6 19       		.uleb128 0x19
 2881 02e7 3C       		.uleb128 0x3c
 2882 02e8 19       		.uleb128 0x19
 2883 02e9 01       		.uleb128 0x1
 2884 02ea 13       		.uleb128 0x13
 2885 02eb 00       		.byte	0
 2886 02ec 00       		.byte	0
 2887 02ed 38       		.uleb128 0x38
 2888 02ee 2E       		.uleb128 0x2e
 2889 02ef 00       		.byte	0
 2890 02f0 3F       		.uleb128 0x3f
 2891 02f1 19       		.uleb128 0x19
 2892 02f2 03       		.uleb128 0x3
 2893 02f3 0E       		.uleb128 0xe
 2894 02f4 3A       		.uleb128 0x3a
 2895 02f5 0B       		.uleb128 0xb
 2896 02f6 3B       		.uleb128 0x3b
 2897 02f7 0B       		.uleb128 0xb
 2898 02f8 27       		.uleb128 0x27
 2899 02f9 19       		.uleb128 0x19
 2900 02fa 3C       		.uleb128 0x3c
 2901 02fb 19       		.uleb128 0x19
 2902 02fc 00       		.byte	0
 2903 02fd 00       		.byte	0
 2904 02fe 00       		.byte	0
 2905              		.section	.debug_loc,"",%progbits
 2906              	.Ldebug_loc0:
 2907              	.LLST0:
 2908 0000 00000000 		.4byte	.LVL0
 2909 0004 1E000000 		.4byte	.LVL3
 2910 0008 0100     		.2byte	0x1
ARM GAS  /var/folders/c6/c789hm653lg9vtl73krp73tm0000gn/T//ccVgLuPk.s 			page 84


 2911 000a 50       		.byte	0x50
 2912 000b 1E000000 		.4byte	.LVL3
 2913 000f 70000000 		.4byte	.LVL15
 2914 0013 0100     		.2byte	0x1
 2915 0015 55       		.byte	0x55
 2916 0016 73000000 		.4byte	.LVL16-1
 2917 001a 78000000 		.4byte	.LFE230
 2918 001e 0400     		.2byte	0x4
 2919 0020 F3       		.byte	0xf3
 2920 0021 01       		.uleb128 0x1
 2921 0022 50       		.byte	0x50
 2922 0023 9F       		.byte	0x9f
 2923 0024 00000000 		.4byte	0
 2924 0028 00000000 		.4byte	0
 2925              	.LLST1:
 2926 002c 00000000 		.4byte	.LVL0
 2927 0030 0C000000 		.4byte	.LVL1
 2928 0034 0100     		.2byte	0x1
 2929 0036 51       		.byte	0x51
 2930 0037 0C000000 		.4byte	.LVL1
 2931 003b 1E000000 		.4byte	.LVL3
 2932 003f 0400     		.2byte	0x4
 2933 0041 F3       		.byte	0xf3
 2934 0042 01       		.uleb128 0x1
 2935 0043 51       		.byte	0x51
 2936 0044 9F       		.byte	0x9f
 2937 0045 1E000000 		.4byte	.LVL3
 2938 0049 2C000000 		.4byte	.LVL5
 2939 004d 0100     		.2byte	0x1
 2940 004f 51       		.byte	0x51
 2941 0050 2C000000 		.4byte	.LVL5
 2942 0054 58000000 		.4byte	.LVL11
 2943 0058 1700     		.2byte	0x17
 2944 005a F3       		.byte	0xf3
 2945 005b 01       		.uleb128 0x1
 2946 005c 51       		.byte	0x51
 2947 005d 32       		.byte	0x32
 2948 005e F3       		.byte	0xf3
 2949 005f 01       		.uleb128 0x1
 2950 0060 51       		.byte	0x51
 2951 0061 40       		.byte	0x40
 2952 0062 4B       		.byte	0x4b
 2953 0063 24       		.byte	0x24
 2954 0064 22       		.byte	0x22
 2955 0065 0C       		.byte	0xc
 2956 0066 01000080 		.4byte	0x80000001
 2957 006a 2B       		.byte	0x2b
 2958 006b 28       		.byte	0x28
 2959 006c 0100     		.2byte	0x1
 2960 006e 16       		.byte	0x16
 2961 006f 13       		.byte	0x13
 2962 0070 9F       		.byte	0x9f
 2963 0071 58000000 		.4byte	.LVL11
 2964 0075 5B000000 		.4byte	.LVL12-1
 2965 0079 0100     		.2byte	0x1
 2966 007b 51       		.byte	0x51
 2967 007c 5B000000 		.4byte	.LVL12-1
ARM GAS  /var/folders/c6/c789hm653lg9vtl73krp73tm0000gn/T//ccVgLuPk.s 			page 85


 2968 0080 5E000000 		.4byte	.LVL13
 2969 0084 1700     		.2byte	0x17
 2970 0086 F3       		.byte	0xf3
 2971 0087 01       		.uleb128 0x1
 2972 0088 51       		.byte	0x51
 2973 0089 32       		.byte	0x32
 2974 008a F3       		.byte	0xf3
 2975 008b 01       		.uleb128 0x1
 2976 008c 51       		.byte	0x51
 2977 008d 40       		.byte	0x40
 2978 008e 4B       		.byte	0x4b
 2979 008f 24       		.byte	0x24
 2980 0090 22       		.byte	0x22
 2981 0091 0C       		.byte	0xc
 2982 0092 01000080 		.4byte	0x80000001
 2983 0096 2B       		.byte	0x2b
 2984 0097 28       		.byte	0x28
 2985 0098 0100     		.2byte	0x1
 2986 009a 16       		.byte	0x16
 2987 009b 13       		.byte	0x13
 2988 009c 9F       		.byte	0x9f
 2989 009d 5E000000 		.4byte	.LVL13
 2990 00a1 73000000 		.4byte	.LVL16-1
 2991 00a5 0100     		.2byte	0x1
 2992 00a7 51       		.byte	0x51
 2993 00a8 73000000 		.4byte	.LVL16-1
 2994 00ac 78000000 		.4byte	.LFE230
 2995 00b0 1700     		.2byte	0x17
 2996 00b2 F3       		.byte	0xf3
 2997 00b3 01       		.uleb128 0x1
 2998 00b4 51       		.byte	0x51
 2999 00b5 32       		.byte	0x32
 3000 00b6 F3       		.byte	0xf3
 3001 00b7 01       		.uleb128 0x1
 3002 00b8 51       		.byte	0x51
 3003 00b9 40       		.byte	0x40
 3004 00ba 4B       		.byte	0x4b
 3005 00bb 24       		.byte	0x24
 3006 00bc 22       		.byte	0x22
 3007 00bd 0C       		.byte	0xc
 3008 00be 01000080 		.4byte	0x80000001
 3009 00c2 2B       		.byte	0x2b
 3010 00c3 28       		.byte	0x28
 3011 00c4 0100     		.2byte	0x1
 3012 00c6 16       		.byte	0x16
 3013 00c7 13       		.byte	0x13
 3014 00c8 9F       		.byte	0x9f
 3015 00c9 00000000 		.4byte	0
 3016 00cd 00000000 		.4byte	0
 3017              	.LLST2:
 3018 00d1 00000000 		.4byte	.LVL0
 3019 00d5 2C000000 		.4byte	.LVL5
 3020 00d9 0100     		.2byte	0x1
 3021 00db 52       		.byte	0x52
 3022 00dc 2C000000 		.4byte	.LVL5
 3023 00e0 58000000 		.4byte	.LVL11
 3024 00e4 0400     		.2byte	0x4
ARM GAS  /var/folders/c6/c789hm653lg9vtl73krp73tm0000gn/T//ccVgLuPk.s 			page 86


 3025 00e6 F3       		.byte	0xf3
 3026 00e7 01       		.uleb128 0x1
 3027 00e8 52       		.byte	0x52
 3028 00e9 9F       		.byte	0x9f
 3029 00ea 58000000 		.4byte	.LVL11
 3030 00ee 5B000000 		.4byte	.LVL12-1
 3031 00f2 0100     		.2byte	0x1
 3032 00f4 52       		.byte	0x52
 3033 00f5 5B000000 		.4byte	.LVL12-1
 3034 00f9 5E000000 		.4byte	.LVL13
 3035 00fd 0400     		.2byte	0x4
 3036 00ff F3       		.byte	0xf3
 3037 0100 01       		.uleb128 0x1
 3038 0101 52       		.byte	0x52
 3039 0102 9F       		.byte	0x9f
 3040 0103 5E000000 		.4byte	.LVL13
 3041 0107 73000000 		.4byte	.LVL16-1
 3042 010b 0100     		.2byte	0x1
 3043 010d 52       		.byte	0x52
 3044 010e 73000000 		.4byte	.LVL16-1
 3045 0112 78000000 		.4byte	.LFE230
 3046 0116 0400     		.2byte	0x4
 3047 0118 F3       		.byte	0xf3
 3048 0119 01       		.uleb128 0x1
 3049 011a 52       		.byte	0x52
 3050 011b 9F       		.byte	0x9f
 3051 011c 00000000 		.4byte	0
 3052 0120 00000000 		.4byte	0
 3053              	.LLST3:
 3054 0124 00000000 		.4byte	.LVL0
 3055 0128 16000000 		.4byte	.LVL2
 3056 012c 0100     		.2byte	0x1
 3057 012e 53       		.byte	0x53
 3058 012f 16000000 		.4byte	.LVL2
 3059 0133 1E000000 		.4byte	.LVL3
 3060 0137 0200     		.2byte	0x2
 3061 0139 70       		.byte	0x70
 3062 013a 10       		.sleb128 16
 3063 013b 1E000000 		.4byte	.LVL3
 3064 013f 2C000000 		.4byte	.LVL5
 3065 0143 0200     		.2byte	0x2
 3066 0145 75       		.byte	0x75
 3067 0146 10       		.sleb128 16
 3068 0147 2C000000 		.4byte	.LVL5
 3069 014b 58000000 		.4byte	.LVL11
 3070 014f 0400     		.2byte	0x4
 3071 0151 F3       		.byte	0xf3
 3072 0152 01       		.uleb128 0x1
 3073 0153 53       		.byte	0x53
 3074 0154 9F       		.byte	0x9f
 3075 0155 58000000 		.4byte	.LVL11
 3076 0159 5B000000 		.4byte	.LVL12-1
 3077 015d 0200     		.2byte	0x2
 3078 015f 75       		.byte	0x75
 3079 0160 10       		.sleb128 16
 3080 0161 5B000000 		.4byte	.LVL12-1
 3081 0165 5E000000 		.4byte	.LVL13
ARM GAS  /var/folders/c6/c789hm653lg9vtl73krp73tm0000gn/T//ccVgLuPk.s 			page 87


 3082 0169 0400     		.2byte	0x4
 3083 016b F3       		.byte	0xf3
 3084 016c 01       		.uleb128 0x1
 3085 016d 53       		.byte	0x53
 3086 016e 9F       		.byte	0x9f
 3087 016f 5E000000 		.4byte	.LVL13
 3088 0173 70000000 		.4byte	.LVL15
 3089 0177 0200     		.2byte	0x2
 3090 0179 75       		.byte	0x75
 3091 017a 10       		.sleb128 16
 3092 017b 73000000 		.4byte	.LVL16-1
 3093 017f 78000000 		.4byte	.LFE230
 3094 0183 0400     		.2byte	0x4
 3095 0185 F3       		.byte	0xf3
 3096 0186 01       		.uleb128 0x1
 3097 0187 53       		.byte	0x53
 3098 0188 9F       		.byte	0x9f
 3099 0189 00000000 		.4byte	0
 3100 018d 00000000 		.4byte	0
 3101              	.LLST4:
 3102 0191 2E000000 		.4byte	.LVL6
 3103 0195 36000000 		.4byte	.LVL7
 3104 0199 0100     		.2byte	0x1
 3105 019b 53       		.byte	0x53
 3106 019c 38000000 		.4byte	.LVL8
 3107 01a0 58000000 		.4byte	.LVL11
 3108 01a4 0100     		.2byte	0x1
 3109 01a6 53       		.byte	0x53
 3110 01a7 00000000 		.4byte	0
 3111 01ab 00000000 		.4byte	0
 3112              	.LLST5:
 3113 01af 28000000 		.4byte	.LVL4
 3114 01b3 52000000 		.4byte	.LVL9
 3115 01b7 0100     		.2byte	0x1
 3116 01b9 54       		.byte	0x54
 3117 01ba 52000000 		.4byte	.LVL9
 3118 01be 54000000 		.4byte	.LVL10
 3119 01c2 0500     		.2byte	0x5
 3120 01c4 73       		.byte	0x73
 3121 01c5 04       		.sleb128 4
 3122 01c6 06       		.byte	0x6
 3123 01c7 23       		.byte	0x23
 3124 01c8 08       		.uleb128 0x8
 3125 01c9 58000000 		.4byte	.LVL11
 3126 01cd 5E000000 		.4byte	.LVL13
 3127 01d1 0100     		.2byte	0x1
 3128 01d3 54       		.byte	0x54
 3129 01d4 00000000 		.4byte	0
 3130 01d8 00000000 		.4byte	0
 3131              	.LLST6:
 3132 01dc 58000000 		.4byte	.LVL11
 3133 01e0 5B000000 		.4byte	.LVL12-1
 3134 01e4 0100     		.2byte	0x1
 3135 01e6 50       		.byte	0x50
 3136 01e7 00000000 		.4byte	0
 3137 01eb 00000000 		.4byte	0
 3138              	.LLST7:
ARM GAS  /var/folders/c6/c789hm653lg9vtl73krp73tm0000gn/T//ccVgLuPk.s 			page 88


 3139 01ef 6C000000 		.4byte	.LVL14
 3140 01f3 70000000 		.4byte	.LVL15
 3141 01f7 0B00     		.2byte	0xb
 3142 01f9 76       		.byte	0x76
 3143 01fa 1C       		.sleb128 28
 3144 01fb 06       		.byte	0x6
 3145 01fc 23       		.byte	0x23
 3146 01fd 08       		.uleb128 0x8
 3147 01fe 06       		.byte	0x6
 3148 01ff 76       		.byte	0x76
 3149 0200 28       		.sleb128 40
 3150 0201 06       		.byte	0x6
 3151 0202 22       		.byte	0x22
 3152 0203 9F       		.byte	0x9f
 3153 0204 00000000 		.4byte	0
 3154 0208 00000000 		.4byte	0
 3155              	.LLST8:
 3156 020c 00000000 		.4byte	.LVL17
 3157 0210 26000000 		.4byte	.LVL18
 3158 0214 0100     		.2byte	0x1
 3159 0216 50       		.byte	0x50
 3160 0217 26000000 		.4byte	.LVL18
 3161 021b 2C000000 		.4byte	.LVL19
 3162 021f 0400     		.2byte	0x4
 3163 0221 F3       		.byte	0xf3
 3164 0222 01       		.uleb128 0x1
 3165 0223 50       		.byte	0x50
 3166 0224 9F       		.byte	0x9f
 3167 0225 2C000000 		.4byte	.LVL19
 3168 0229 2E000000 		.4byte	.LVL20
 3169 022d 0100     		.2byte	0x1
 3170 022f 50       		.byte	0x50
 3171 0230 2E000000 		.4byte	.LVL20
 3172 0234 74000000 		.4byte	.LFE231
 3173 0238 0400     		.2byte	0x4
 3174 023a F3       		.byte	0xf3
 3175 023b 01       		.uleb128 0x1
 3176 023c 50       		.byte	0x50
 3177 023d 9F       		.byte	0x9f
 3178 023e 00000000 		.4byte	0
 3179 0242 00000000 		.4byte	0
 3180              	.LLST9:
 3181 0246 2C000000 		.4byte	.LVL19
 3182 024a 42000000 		.4byte	.LVL21
 3183 024e 0100     		.2byte	0x1
 3184 0250 53       		.byte	0x53
 3185 0251 66000000 		.4byte	.LVL26
 3186 0255 6D000000 		.4byte	.LVL27-1
 3187 0259 0100     		.2byte	0x1
 3188 025b 53       		.byte	0x53
 3189 025c 00000000 		.4byte	0
 3190 0260 00000000 		.4byte	0
 3191              	.LLST10:
 3192 0264 50000000 		.4byte	.LVL22
 3193 0268 65000000 		.4byte	.LVL26-1
 3194 026c 0100     		.2byte	0x1
 3195 026e 52       		.byte	0x52
ARM GAS  /var/folders/c6/c789hm653lg9vtl73krp73tm0000gn/T//ccVgLuPk.s 			page 89


 3196 026f 00000000 		.4byte	0
 3197 0273 00000000 		.4byte	0
 3198              	.LLST11:
 3199 0277 56000000 		.4byte	.LVL23
 3200 027b 65000000 		.4byte	.LVL26-1
 3201 027f 0100     		.2byte	0x1
 3202 0281 53       		.byte	0x53
 3203 0282 00000000 		.4byte	0
 3204 0286 00000000 		.4byte	0
 3205              	.LLST12:
 3206 028a 5C000000 		.4byte	.LVL24
 3207 028e 5E000000 		.4byte	.LVL25
 3208 0292 0600     		.2byte	0x6
 3209 0294 73       		.byte	0x73
 3210 0295 00       		.sleb128 0
 3211 0296 70       		.byte	0x70
 3212 0297 00       		.sleb128 0
 3213 0298 22       		.byte	0x22
 3214 0299 9F       		.byte	0x9f
 3215 029a 5E000000 		.4byte	.LVL25
 3216 029e 65000000 		.4byte	.LVL26-1
 3217 02a2 0100     		.2byte	0x1
 3218 02a4 50       		.byte	0x50
 3219 02a5 00000000 		.4byte	0
 3220 02a9 00000000 		.4byte	0
 3221              		.section	.debug_aranges,"",%progbits
 3222 0000 2C000000 		.4byte	0x2c
 3223 0004 0200     		.2byte	0x2
 3224 0006 00000000 		.4byte	.Ldebug_info0
 3225 000a 04       		.byte	0x4
 3226 000b 00       		.byte	0
 3227 000c 0000     		.2byte	0
 3228 000e 0000     		.2byte	0
 3229 0010 00000000 		.4byte	.LFB229
 3230 0014 1C000000 		.4byte	.LFE229-.LFB229
 3231 0018 00000000 		.4byte	.LFB230
 3232 001c 78000000 		.4byte	.LFE230-.LFB230
 3233 0020 00000000 		.4byte	.LFB231
 3234 0024 74000000 		.4byte	.LFE231-.LFB231
 3235 0028 00000000 		.4byte	0
 3236 002c 00000000 		.4byte	0
 3237              		.section	.debug_ranges,"",%progbits
 3238              	.Ldebug_ranges0:
 3239 0000 02000000 		.4byte	.LBB35
 3240 0004 10000000 		.4byte	.LBE35
 3241 0008 12000000 		.4byte	.LBB50
 3242 000c 18000000 		.4byte	.LBE50
 3243 0010 1C000000 		.4byte	.LBB51
 3244 0014 2C000000 		.4byte	.LBE51
 3245 0018 58000000 		.4byte	.LBB52
 3246 001c 6C000000 		.4byte	.LBE52
 3247 0020 70000000 		.4byte	.LBB53
 3248 0024 78000000 		.4byte	.LBE53
 3249 0028 00000000 		.4byte	0
 3250 002c 00000000 		.4byte	0
 3251 0030 12000000 		.4byte	.LBB36
 3252 0034 16000000 		.4byte	.LBE36
ARM GAS  /var/folders/c6/c789hm653lg9vtl73krp73tm0000gn/T//ccVgLuPk.s 			page 90


 3253 0038 1C000000 		.4byte	.LBB43
 3254 003c 1E000000 		.4byte	.LBE43
 3255 0040 00000000 		.4byte	0
 3256 0044 00000000 		.4byte	0
 3257 0048 64000000 		.4byte	.LBB46
 3258 004c 66000000 		.4byte	.LBE46
 3259 0050 70000000 		.4byte	.LBB49
 3260 0054 78000000 		.4byte	.LBE49
 3261 0058 00000000 		.4byte	0
 3262 005c 00000000 		.4byte	0
 3263 0060 2C000000 		.4byte	.LBB64
 3264 0064 5E000000 		.4byte	.LBE64
 3265 0068 62000000 		.4byte	.LBB82
 3266 006c 66000000 		.4byte	.LBE82
 3267 0070 6A000000 		.4byte	.LBB83
 3268 0074 74000000 		.4byte	.LBE83
 3269 0078 00000000 		.4byte	0
 3270 007c 00000000 		.4byte	0
 3271 0080 46000000 		.4byte	.LBB66
 3272 0084 4A000000 		.4byte	.LBE66
 3273 0088 4C000000 		.4byte	.LBB73
 3274 008c 4E000000 		.4byte	.LBE73
 3275 0090 00000000 		.4byte	0
 3276 0094 00000000 		.4byte	0
 3277 0098 5C000000 		.4byte	.LBB74
 3278 009c 5E000000 		.4byte	.LBE74
 3279 00a0 62000000 		.4byte	.LBB77
 3280 00a4 66000000 		.4byte	.LBE77
 3281 00a8 00000000 		.4byte	0
 3282 00ac 00000000 		.4byte	0
 3283 00b0 00000000 		.4byte	.LFB229
 3284 00b4 1C000000 		.4byte	.LFE229
 3285 00b8 00000000 		.4byte	.LFB230
 3286 00bc 78000000 		.4byte	.LFE230
 3287 00c0 00000000 		.4byte	.LFB231
 3288 00c4 74000000 		.4byte	.LFE231
 3289 00c8 00000000 		.4byte	0
 3290 00cc 00000000 		.4byte	0
 3291              		.section	.debug_line,"",%progbits
 3292              	.Ldebug_line0:
 3293 0000 3E030000 		.section	.debug_str,"MS",%progbits,1
 3293      02004902 
 3293      00000201 
 3293      FB0E0D00 
 3293      01010101 
 3294              	.LASF126:
 3295 0000 474E5520 		.ascii	"GNU C 4.8.4 20140725 (release) [ARM/embedded-4_8-br"
 3295      4320342E 
 3295      382E3420 
 3295      32303134 
 3295      30373235 
 3296 0033 616E6368 		.ascii	"anch revision 213147] -mcpu=cortex-m4 -mno-thumb-in"
 3296      20726576 
 3296      6973696F 
 3296      6E203231 
 3296      33313437 
 3297 0066 74657277 		.ascii	"terwork -mthumb -ggdb -O2 -fomit-frame-pointer -fal"
ARM GAS  /var/folders/c6/c789hm653lg9vtl73krp73tm0000gn/T//ccVgLuPk.s 			page 91


 3297      6F726B20 
 3297      2D6D7468 
 3297      756D6220 
 3297      2D676764 
 3298 0099 69676E2D 		.ascii	"ign-functions=16 -ffunction-sections -fdata-section"
 3298      66756E63 
 3298      74696F6E 
 3298      733D3136 
 3298      202D6666 
 3299 00cc 73202D66 		.ascii	"s -fno-common -flto\000"
 3299      6E6F2D63 
 3299      6F6D6D6F 
 3299      6E202D66 
 3299      6C746F00 
 3300              	.LASF50:
 3301 00e0 72656164 		.ascii	"ready_list_t\000"
 3301      795F6C69 
 3301      73745F74 
 3301      00
 3302              	.LASF84:
 3303 00ed 44494552 		.ascii	"DIER\000"
 3303      00
 3304              	.LASF98:
 3305 00f2 77747472 		.ascii	"wttrp\000"
 3305      7000
 3306              	.LASF119:
 3307 00f8 64656C74 		.ascii	"delta\000"
 3307      6100
 3308              	.LASF95:
 3309 00fe 7264796D 		.ascii	"rdymsg\000"
 3309      736700
 3310              	.LASF16:
 3311 0105 75696E74 		.ascii	"uint64_t\000"
 3311      36345F74 
 3311      00
 3312              	.LASF23:
 3313 010e 6576656E 		.ascii	"eventmask_t\000"
 3313      746D6173 
 3313      6B5F7400 
 3314              	.LASF5:
 3315 011a 5F5F7569 		.ascii	"__uint8_t\000"
 3315      6E74385F 
 3315      7400
 3316              	.LASF22:
 3317 0124 6D73675F 		.ascii	"msg_t\000"
 3317      7400
 3318              	.LASF82:
 3319 012a 706F7274 		.ascii	"port_intctx\000"
 3319      5F696E74 
 3319      63747800 
 3320              	.LASF69:
 3321 0136 73797374 		.ascii	"system_debug_t\000"
 3321      656D5F64 
 3321      65627567 
 3321      5F7400
 3322              	.LASF86:
 3323 0145 43434D52 		.ascii	"CCMR2\000"
ARM GAS  /var/folders/c6/c789hm653lg9vtl73krp73tm0000gn/T//ccVgLuPk.s 			page 92


 3323      3200
 3324              	.LASF117:
 3325 014b 5F5F6675 		.ascii	"__func__.6505\000"
 3325      6E635F5F 
 3325      2E363530 
 3325      3500
 3326              	.LASF12:
 3327 0159 6C6F6E67 		.ascii	"long long unsigned int\000"
 3327      206C6F6E 
 3327      6720756E 
 3327      7369676E 
 3327      65642069 
 3328              	.LASF123:
 3329 0170 63685654 		.ascii	"chVTDoResetI\000"
 3329      446F5265 
 3329      73657449 
 3329      00
 3330              	.LASF96:
 3331 017d 65786974 		.ascii	"exitcode\000"
 3331      636F6465 
 3331      00
 3332              	.LASF76:
 3333 0186 6D61696E 		.ascii	"mainthread\000"
 3333      74687265 
 3333      616400
 3334              	.LASF66:
 3335 0191 76697274 		.ascii	"virtual_timers_list_t\000"
 3335      75616C5F 
 3335      74696D65 
 3335      72735F6C 
 3335      6973745F 
 3336              	.LASF122:
 3337 01a7 49544D5F 		.ascii	"ITM_RxBuffer\000"
 3337      52784275 
 3337      66666572 
 3337      00
 3338              	.LASF88:
 3339 01b4 42445452 		.ascii	"BDTR\000"
 3339      00
 3340              	.LASF49:
 3341 01b9 63685F74 		.ascii	"ch_threads_queue\000"
 3341      68726561 
 3341      64735F71 
 3341      75657565 
 3341      00
 3342              	.LASF29:
 3343 01ca 705F7072 		.ascii	"p_prio\000"
 3343      696F00
 3344              	.LASF85:
 3345 01d1 43434D52 		.ascii	"CCMR1\000"
 3345      3100
 3346              	.LASF130:
 3347 01d7 5F76745F 		.ascii	"_vt_init\000"
 3347      696E6974 
 3347      00
 3348              	.LASF90:
 3349 01e0 43434D52 		.ascii	"CCMR3\000"
ARM GAS  /var/folders/c6/c789hm653lg9vtl73krp73tm0000gn/T//ccVgLuPk.s 			page 93


 3349      3300
 3350              	.LASF1:
 3351 01e6 7369676E 		.ascii	"signed char\000"
 3351      65642063 
 3351      68617200 
 3352              	.LASF106:
 3353 01f2 6D5F7175 		.ascii	"m_queue\000"
 3353      65756500 
 3354              	.LASF75:
 3355 01fa 76746C69 		.ascii	"vtlist\000"
 3355      737400
 3356              	.LASF73:
 3357 0201 63685F73 		.ascii	"ch_system\000"
 3357      79737465 
 3357      6D00
 3358              	.LASF7:
 3359 020b 6C6F6E67 		.ascii	"long int\000"
 3359      20696E74 
 3359      00
 3360              	.LASF19:
 3361 0214 74737461 		.ascii	"tstate_t\000"
 3361      74655F74 
 3361      00
 3362              	.LASF36:
 3363 021d 705F7265 		.ascii	"p_refs\000"
 3363      667300
 3364              	.LASF10:
 3365 0224 6C6F6E67 		.ascii	"long long int\000"
 3365      206C6F6E 
 3365      6720696E 
 3365      7400
 3366              	.LASF31:
 3367 0232 705F6E65 		.ascii	"p_newer\000"
 3367      77657200 
 3368              	.LASF103:
 3369 023a 735F7175 		.ascii	"s_queue\000"
 3369      65756500 
 3370              	.LASF4:
 3371 0242 73686F72 		.ascii	"short unsigned int\000"
 3371      7420756E 
 3371      7369676E 
 3371      65642069 
 3371      6E7400
 3372              	.LASF55:
 3373 0255 725F6E65 		.ascii	"r_newer\000"
 3373      77657200 
 3374              	.LASF43:
 3375 025d 705F6D70 		.ascii	"p_mpool\000"
 3375      6F6F6C00 
 3376              	.LASF79:
 3377 0265 72656761 		.ascii	"regarm_t\000"
 3377      726D5F74 
 3377      00
 3378              	.LASF62:
 3379 026e 76745F70 		.ascii	"vt_prev\000"
 3379      72657600 
 3380              	.LASF110:
ARM GAS  /var/folders/c6/c789hm653lg9vtl73krp73tm0000gn/T//ccVgLuPk.s 			page 94


 3381 0276 6D757465 		.ascii	"mutex_t\000"
 3381      785F7400 
 3382              	.LASF77:
 3383 027e 69646C65 		.ascii	"idle_thread_wa\000"
 3383      5F746872 
 3383      6561645F 
 3383      776100
 3384              	.LASF24:
 3385 028d 636E745F 		.ascii	"cnt_t\000"
 3385      7400
 3386              	.LASF113:
 3387 0293 63685654 		.ascii	"chVTGetSystemTimeX\000"
 3387      47657453 
 3387      79737465 
 3387      6D54696D 
 3387      655800
 3388              	.LASF118:
 3389 02a6 6E6F7764 		.ascii	"nowdelta\000"
 3389      656C7461 
 3389      00
 3390              	.LASF61:
 3391 02af 76745F6E 		.ascii	"vt_next\000"
 3391      65787400 
 3392              	.LASF99:
 3393 02b7 77747365 		.ascii	"wtsemp\000"
 3393      6D7000
 3394              	.LASF38:
 3395 02be 705F6D73 		.ascii	"p_msgqueue\000"
 3395      67717565 
 3395      756500
 3396              	.LASF104:
 3397 02c9 735F636E 		.ascii	"s_cnt\000"
 3397      7400
 3398              	.LASF83:
 3399 02cf 534D4352 		.ascii	"SMCR\000"
 3399      00
 3400              	.LASF46:
 3401 02d4 63685F74 		.ascii	"ch_thread\000"
 3401      68726561 
 3401      6400
 3402              	.LASF114:
 3403 02de 706F7274 		.ascii	"port_timer_start_alarm\000"
 3403      5F74696D 
 3403      65725F73 
 3403      74617274 
 3403      5F616C61 
 3404              	.LASF72:
 3405 02f5 63685F73 		.ascii	"ch_system_t\000"
 3405      79737465 
 3405      6D5F7400 
 3406              	.LASF92:
 3407 0301 73746D33 		.ascii	"stm32_tim_t\000"
 3407      325F7469 
 3407      6D5F7400 
 3408              	.LASF51:
 3409 030d 63685F72 		.ascii	"ch_ready_list\000"
 3409      65616479 
ARM GAS  /var/folders/c6/c789hm653lg9vtl73krp73tm0000gn/T//ccVgLuPk.s 			page 95


 3409      5F6C6973 
 3409      7400
 3410              	.LASF131:
 3411 031b 63685654 		.ascii	"chVTDoSetI\000"
 3411      446F5365 
 3411      744900
 3412              	.LASF6:
 3413 0326 5F5F696E 		.ascii	"__int32_t\000"
 3413      7433325F 
 3413      7400
 3414              	.LASF132:
 3415 0330 5F5F6675 		.ascii	"__func__.6497\000"
 3415      6E635F5F 
 3415      2E363439 
 3415      3700
 3416              	.LASF80:
 3417 033e 73746B61 		.ascii	"stkalign_t\000"
 3417      6C69676E 
 3417      5F7400
 3418              	.LASF37:
 3419 0349 705F7761 		.ascii	"p_waiting\000"
 3419      6974696E 
 3419      6700
 3420              	.LASF78:
 3421 0353 73697A65 		.ascii	"sizetype\000"
 3421      74797065 
 3421      00
 3422              	.LASF44:
 3423 035c 74687265 		.ascii	"thread_reference_t\000"
 3423      61645F72 
 3423      65666572 
 3423      656E6365 
 3423      5F7400
 3424              	.LASF67:
 3425 036f 63685F76 		.ascii	"ch_virtual_timers_list\000"
 3425      69727475 
 3425      616C5F74 
 3425      696D6572 
 3425      735F6C69 
 3426              	.LASF68:
 3427 0386 76745F6C 		.ascii	"vt_lasttime\000"
 3427      61737474 
 3427      696D6500 
 3428              	.LASF32:
 3429 0392 705F6F6C 		.ascii	"p_older\000"
 3429      64657200 
 3430              	.LASF54:
 3431 039a 725F6374 		.ascii	"r_ctx\000"
 3431      7800
 3432              	.LASF30:
 3433 03a0 705F6374 		.ascii	"p_ctx\000"
 3433      7800
 3434              	.LASF94:
 3435 03a6 746D5F63 		.ascii	"tm_calibration_t\000"
 3435      616C6962 
 3435      72617469 
 3435      6F6E5F74 
ARM GAS  /var/folders/c6/c789hm653lg9vtl73krp73tm0000gn/T//ccVgLuPk.s 			page 96


 3435      00
 3436              	.LASF116:
 3437 03b7 74696D65 		.ascii	"time\000"
 3437      00
 3438              	.LASF57:
 3439 03bc 725F6375 		.ascii	"r_current\000"
 3439      7272656E 
 3439      7400
 3440              	.LASF56:
 3441 03c6 725F6F6C 		.ascii	"r_older\000"
 3441      64657200 
 3442              	.LASF11:
 3443 03ce 5F5F7569 		.ascii	"__uint64_t\000"
 3443      6E743634 
 3443      5F7400
 3444              	.LASF20:
 3445 03d9 74726566 		.ascii	"trefs_t\000"
 3445      735F7400 
 3446              	.LASF59:
 3447 03e1 76697274 		.ascii	"virtual_timer_t\000"
 3447      75616C5F 
 3447      74696D65 
 3447      725F7400 
 3448              	.LASF28:
 3449 03f1 705F7072 		.ascii	"p_prev\000"
 3449      657600
 3450              	.LASF21:
 3451 03f8 74707269 		.ascii	"tprio_t\000"
 3451      6F5F7400 
 3452              	.LASF70:
 3453 0400 63685F73 		.ascii	"ch_system_debug\000"
 3453      79737465 
 3453      6D5F6465 
 3453      62756700 
 3454              	.LASF14:
 3455 0410 696E7433 		.ascii	"int32_t\000"
 3455      325F7400 
 3456              	.LASF2:
 3457 0418 756E7369 		.ascii	"unsigned char\000"
 3457      676E6564 
 3457      20636861 
 3457      7200
 3458              	.LASF120:
 3459 0426 64656C61 		.ascii	"delay\000"
 3459      7900
 3460              	.LASF41:
 3461 042c 705F6D74 		.ascii	"p_mtxlist\000"
 3461      786C6973 
 3461      7400
 3462              	.LASF3:
 3463 0436 73686F72 		.ascii	"short int\000"
 3463      7420696E 
 3463      7400
 3464              	.LASF34:
 3465 0440 705F7374 		.ascii	"p_state\000"
 3465      61746500 
 3466              	.LASF53:
ARM GAS  /var/folders/c6/c789hm653lg9vtl73krp73tm0000gn/T//ccVgLuPk.s 			page 97


 3467 0448 725F7072 		.ascii	"r_prio\000"
 3467      696F00
 3468              	.LASF101:
 3469 044f 65776D61 		.ascii	"ewmask\000"
 3469      736B00
 3470              	.LASF27:
 3471 0456 705F6E65 		.ascii	"p_next\000"
 3471      787400
 3472              	.LASF13:
 3473 045d 75696E74 		.ascii	"uint8_t\000"
 3473      385F7400 
 3474              	.LASF60:
 3475 0465 63685F76 		.ascii	"ch_virtual_timer\000"
 3475      69727475 
 3475      616C5F74 
 3475      696D6572 
 3475      00
 3476              	.LASF102:
 3477 0476 63685F73 		.ascii	"ch_semaphore\000"
 3477      656D6170 
 3477      686F7265 
 3477      00
 3478              	.LASF91:
 3479 0483 43435852 		.ascii	"CCXR\000"
 3479      00
 3480              	.LASF40:
 3481 0488 705F6570 		.ascii	"p_epending\000"
 3481      656E6469 
 3481      6E6700
 3482              	.LASF111:
 3483 0493 73745F6C 		.ascii	"st_lld_get_counter\000"
 3483      6C645F67 
 3483      65745F63 
 3483      6F756E74 
 3483      657200
 3484              	.LASF15:
 3485 04a6 75696E74 		.ascii	"uint32_t\000"
 3485      33325F74 
 3485      00
 3486              	.LASF100:
 3487 04af 77746D74 		.ascii	"wtmtxp\000"
 3487      787000
 3488              	.LASF52:
 3489 04b6 725F7175 		.ascii	"r_queue\000"
 3489      65756500 
 3490              	.LASF63:
 3491 04be 76745F64 		.ascii	"vt_delta\000"
 3491      656C7461 
 3491      00
 3492              	.LASF47:
 3493 04c7 63685F74 		.ascii	"ch_threads_list\000"
 3493      68726561 
 3493      64735F6C 
 3493      69737400 
 3494              	.LASF9:
 3495 04d7 6C6F6E67 		.ascii	"long unsigned int\000"
 3495      20756E73 
ARM GAS  /var/folders/c6/c789hm653lg9vtl73krp73tm0000gn/T//ccVgLuPk.s 			page 98


 3495      69676E65 
 3495      6420696E 
 3495      7400
 3496              	.LASF128:
 3497 04e9 2F557365 		.ascii	"/Users/savonetj/Downloads/ChibiOS_3.0.2/demos/STM32"
 3497      72732F73 
 3497      61766F6E 
 3497      65746A2F 
 3497      446F776E 
 3498 051c 2F52542D 		.ascii	"/RT-STM32F407-DISCOVERY\000"
 3498      53544D33 
 3498      32463430 
 3498      372D4449 
 3498      53434F56 
 3499              	.LASF133:
 3500 0534 73745374 		.ascii	"stStopAlarm\000"
 3500      6F70416C 
 3500      61726D00 
 3501              	.LASF109:
 3502 0540 63686172 		.ascii	"char\000"
 3502      00
 3503              	.LASF0:
 3504 0545 756E7369 		.ascii	"unsigned int\000"
 3504      676E6564 
 3504      20696E74 
 3504      00
 3505              	.LASF89:
 3506 0552 444D4152 		.ascii	"DMAR\000"
 3506      00
 3507              	.LASF26:
 3508 0557 74687265 		.ascii	"thread_t\000"
 3508      61645F74 
 3508      00
 3509              	.LASF87:
 3510 0560 43434552 		.ascii	"CCER\000"
 3510      00
 3511              	.LASF108:
 3512 0565 6D5F6E65 		.ascii	"m_next\000"
 3512      787400
 3513              	.LASF25:
 3514 056c 73797374 		.ascii	"systime_t\000"
 3514      696D655F 
 3514      7400
 3515              	.LASF42:
 3516 0576 705F7265 		.ascii	"p_realprio\000"
 3516      616C7072 
 3516      696F00
 3517              	.LASF58:
 3518 0581 76746675 		.ascii	"vtfunc_t\000"
 3518      6E635F74 
 3518      00
 3519              	.LASF8:
 3520 058a 5F5F7569 		.ascii	"__uint32_t\000"
 3520      6E743332 
 3520      5F7400
 3521              	.LASF71:
 3522 0595 70616E69 		.ascii	"panic_msg\000"
ARM GAS  /var/folders/c6/c789hm653lg9vtl73krp73tm0000gn/T//ccVgLuPk.s 			page 99


 3522      635F6D73 
 3522      6700
 3523              	.LASF93:
 3524 059f 6F666673 		.ascii	"offset\000"
 3524      657400
 3525              	.LASF125:
 3526 05a6 73745374 		.ascii	"stStartAlarm\000"
 3526      61727441 
 3526      6C61726D 
 3526      00
 3527              	.LASF81:
 3528 05b3 636F6E74 		.ascii	"context\000"
 3528      65787400 
 3529              	.LASF112:
 3530 05bb 706F7274 		.ascii	"port_timer_get_time\000"
 3530      5F74696D 
 3530      65725F67 
 3530      65745F74 
 3530      696D6500 
 3531              	.LASF17:
 3532 05cf 7274636E 		.ascii	"rtcnt_t\000"
 3532      745F7400 
 3533              	.LASF65:
 3534 05d7 76745F70 		.ascii	"vt_par\000"
 3534      617200
 3535              	.LASF121:
 3536 05de 76746675 		.ascii	"vtfunc\000"
 3536      6E6300
 3537              	.LASF48:
 3538 05e5 74687265 		.ascii	"threads_queue_t\000"
 3538      6164735F 
 3538      71756575 
 3538      655F7400 
 3539              	.LASF105:
 3540 05f5 63685F6D 		.ascii	"ch_mutex\000"
 3540      75746578 
 3540      00
 3541              	.LASF127:
 3542 05fe 2E2E2F2E 		.ascii	"../../../os/rt/src/chvt.c\000"
 3542      2E2F2E2E 
 3542      2F6F732F 
 3542      72742F73 
 3542      72632F63 
 3543              	.LASF74:
 3544 0618 726C6973 		.ascii	"rlist\000"
 3544      7400
 3545              	.LASF124:
 3546 061e 73745365 		.ascii	"stSetAlarm\000"
 3546      74416C61 
 3546      726D00
 3547              	.LASF129:
 3548 0629 706F7274 		.ascii	"port_timer_stop_alarm\000"
 3548      5F74696D 
 3548      65725F73 
 3548      746F705F 
 3548      616C6172 
 3549              	.LASF115:
ARM GAS  /var/folders/c6/c789hm653lg9vtl73krp73tm0000gn/T//ccVgLuPk.s 			page 100


 3550 063f 706F7274 		.ascii	"port_timer_set_alarm\000"
 3550      5F74696D 
 3550      65725F73 
 3550      65745F61 
 3550      6C61726D 
 3551              	.LASF97:
 3552 0654 77746F62 		.ascii	"wtobjp\000"
 3552      6A7000
 3553              	.LASF33:
 3554 065b 705F6E61 		.ascii	"p_name\000"
 3554      6D6500
 3555              	.LASF45:
 3556 0662 74687265 		.ascii	"threads_list_t\000"
 3556      6164735F 
 3556      6C697374 
 3556      5F7400
 3557              	.LASF18:
 3558 0671 746D6F64 		.ascii	"tmode_t\000"
 3558      655F7400 
 3559              	.LASF35:
 3560 0679 705F666C 		.ascii	"p_flags\000"
 3560      61677300 
 3561              	.LASF39:
 3562 0681 705F6D73 		.ascii	"p_msg\000"
 3562      6700
 3563              	.LASF107:
 3564 0687 6D5F6F77 		.ascii	"m_owner\000"
 3564      6E657200 
 3565              	.LASF64:
 3566 068f 76745F66 		.ascii	"vt_func\000"
 3566      756E6300 
 3567              		.comm	__gnu_lto_v1,1,1
 3568              		.ident	"GCC: (GNU Tools for ARM Embedded Processors) 4.8.4 20140725 (release) [ARM/embedded-4_8-br
ARM GAS  /var/folders/c6/c789hm653lg9vtl73krp73tm0000gn/T//ccVgLuPk.s 			page 101


DEFINED SYMBOLS
                            *ABS*:0000000000000000 chvt.c
/var/folders/c6/c789hm653lg9vtl73krp73tm0000gn/T//ccVgLuPk.s:537    .text._vt_init:0000000000000000 $t
/var/folders/c6/c789hm653lg9vtl73krp73tm0000gn/T//ccVgLuPk.s:543    .text._vt_init:0000000000000000 _vt_init
/var/folders/c6/c789hm653lg9vtl73krp73tm0000gn/T//ccVgLuPk.s:571    .text._vt_init:0000000000000018 $d
/var/folders/c6/c789hm653lg9vtl73krp73tm0000gn/T//ccVgLuPk.s:576    .text.chVTDoSetI:0000000000000000 $t
/var/folders/c6/c789hm653lg9vtl73krp73tm0000gn/T//ccVgLuPk.s:582    .text.chVTDoSetI:0000000000000000 chVTDoSetI
/var/folders/c6/c789hm653lg9vtl73krp73tm0000gn/T//ccVgLuPk.s:747    .text.chVTDoSetI:0000000000000074 $d
/var/folders/c6/c789hm653lg9vtl73krp73tm0000gn/T//ccVgLuPk.s:755    .text.chVTDoResetI:0000000000000000 $t
/var/folders/c6/c789hm653lg9vtl73krp73tm0000gn/T//ccVgLuPk.s:761    .text.chVTDoResetI:0000000000000000 chVTDoResetI
/var/folders/c6/c789hm653lg9vtl73krp73tm0000gn/T//ccVgLuPk.s:906    .text.chVTDoResetI:0000000000000070 $d
                            *COM*:0000000000000001 __gnu_lto_v1
                     .debug_frame:0000000000000010 $d
/var/folders/c6/c789hm653lg9vtl73krp73tm0000gn/T//ccVgLuPk.s:575    .text._vt_init:000000000000001c $t
/var/folders/c6/c789hm653lg9vtl73krp73tm0000gn/T//ccVgLuPk.s:754    .text.chVTDoSetI:0000000000000078 $t
/var/folders/c6/c789hm653lg9vtl73krp73tm0000gn/T//ccVgLuPk.s:914    .text.chVTDoResetI:0000000000000074 $t

UNDEFINED SYMBOLS
ch
stSetAlarm
stStartAlarm
stStopAlarm
