ARM GAS  /var/folders/c6/c789hm653lg9vtl73krp73tm0000gn/T//ccVgLuPk.s 			page 1


   1              		.syntax unified
   2              		.cpu cortex-m4
   3              		.fpu softvfp
   4              		.eabi_attribute 20, 1
   5              		.eabi_attribute 21, 1
   6              		.eabi_attribute 23, 3
   7              		.eabi_attribute 24, 1
   8              		.eabi_attribute 25, 1
   9              		.eabi_attribute 26, 1
  10              		.eabi_attribute 30, 2
  11              		.eabi_attribute 34, 1
  12              		.eabi_attribute 18, 4
  13              		.thumb
  14              		.file	"chvt.c"
  15              		.text
  16              	.Ltext0:
  17              		.section	.gnu.lto_.jmpfuncs.eacdcbde129e3cd6,"",%progbits
  18 0000 789C6362 		.ascii	"x\234cb`b\300\006d\2404\013\003#\020\002\0251\363\003"
  18      6062C006 
  18      64A0340B 
  18      03231002 
  18      1531F303 
  19 0014 29206261 		.ascii	") badd\006\212\227\001\231\000\011|\000\275"
  19      6464068A 
  19      97019900 
  19      097C00BD 
  20              		.text
  21              		.section	.gnu.lto_.inline.eacdcbde129e3cd6,"",%progbits
  22 0000 789C6362 		.ascii	"x\234cb`b\300\006\224\031\031\030\244\2014\013\003\203"
  22      6062C006 
  22      94191918 
  22      A481340B 
  22      0383
  23 0012 9414230B 		.ascii	"\224\024#\013Cz5\303\257\206\216\206\007\315\357-3\031"
  23      437A35C3 
  23      AF868E86 
  23      07CDEF2D 
  23      3319
  24 0024 19B41956 		.ascii	"\031\264\031V5\000\201i&#c.#C\022#\\\0333\003CF\"\343"
  24      35008169 
  24      2623632E 
  24      23431223 
  24      5C1B3303 
  25 003c 42C66A10 		.ascii	"B\306j\020\213\221\001F:\260\263v\2503\260w\250310\276"
  25      8B910146 
  25      3AB0B376 
  25      A833B077 
  25      A8333130 
  26 0051 60176062 		.ascii	"`\027`b\000r\005\030\244\276-a\344``\334\315\256\300"
  26      00720518 
  26      A4BE2D61 
  26      E46060DC 
  26      CDAEC0
  27 0064 C104A140 		.ascii	"\301\004\241@F0r\201,e\342f\000JM\360cb`gcd`\3428`\307"
  27      46307281 
  27      2C65E266 
  27      004A4DF0 
ARM GAS  /var/folders/c6/c789hm653lg9vtl73krp73tm0000gn/T//ccVgLuPk.s 			page 2


  27      63626067 
  28 007f C0B6409E 		.ascii	"\300\266@\236\011b\207\356%\006Ff\306\224\010\306LF"
  28      096287EE 
  28      25064666 
  28      C69408C6 
  28      4C46
  29 0091 26A0F18C 		.ascii	"&\240\361\214\251p\026\310%\314\016\177\357p0\360-u"
  29      A97016C8 
  29      25CC0E7F 
  29      EF7030F0 
  29      2D75
  30 00a3 63626059 		.ascii	"cb`Y /\000\322\0024\015l\030\204ba\020\021`d\006;L\001"
  30      202F00D2 
  30      02340D6C 
  30      18846261 
  30      10116064 
  31 00bb D9911C62 		.ascii	"\331\221\034b\023&32p\034\321\001\272\346\022\033\013"
  31      13263332 
  31      701CD101 
  31      BAE6121B 
  31      0B
  32 00cc 8404111C 		.ascii	"\204\004\021\034`&\320=\227X\005\230\300$\222\241\014"
  32      6026D03D 
  32      97580598 
  32      C02492A1 
  32      0C
  33 00dd 527A7AFA 		.ascii	"Rzz\372\020\224_\254_T\242_\\\224\254\237\234QV\242"
  33      10945FAC 
  33      5F54A25F 
  33      5C94AC9F 
  33      9C5156A2 
  34 00f1 97CC0000 		.ascii	"\227\314\000\000\356\3230\336"
  34      EED330DE 
  35              		.text
  36              		.section	.gnu.lto_.pureconst.eacdcbde129e3cd6,"",%progbits
  37 0000 789C6362 		.ascii	"x\234cb`b\340d\200\000\026\006)&\011f)\026)\000\002"
  37      6062E064 
  37      80001606 
  37      29260966 
  37      29162900 
  38 0015 D80081   		.ascii	"\330\000\201"
  39              		.text
  40              		.section	.gnu.lto_chVTDoResetI.part.0.eacdcbde129e3cd6,"",%progbits
  41 0000 789C9555 		.ascii	"x\234\225UMhTW\024>\347\375\277\2311c\021\027)(\242"
  41      4D685457 
  41      143EE7FD 
  41      BF993163 
  41      11172928 
  42 0015 3B43F350 		.ascii	";C\363Pq\341F\021\335\010f\323N\240n\224\351\2330y0"
  42      71E14611 
  42      DD0866D3 
  42      4EA06E94 
  42      E99B3079 
  43 002a 6364328D 		.ascii	"cd2\215B\027\276d\006\361\017\014\"\024\264m\332\324"
  43      4217BE64 
  43      06F10F0C 
  43      2214B46D 
ARM GAS  /var/folders/c6/c789hm653lg9vtl73krp73tm0000gn/T//ccVgLuPk.s 			page 3


  43      DAD4
  44 003c 3F6CA1BA 		.ascii	"?l\241\272i\375\243M\212\350\304\240\022Z\224\204T\""
  44      69FDA34D 
  44      8AE8C4A0 
  44      125A9484 
  44      5422
  45 004e 822E0A21 		.ascii	"\202.\012!\326\205\0320\257\347\334\3673/\243A\275\314"
  45      D6851A30 
  45      AFE7DCF7 
  45      332FA341 
  45      BDCC
  46 0060 BBE7DC7B 		.ascii	"\273\347\334{\317\371\316w\317=\367\216\004\0224\266"
  46      CFF9CE77 
  46      CF3DF78E 
  46      041234B6 
  47 0070 227D4735 		.ascii	"\"}G5\200\237Hb\002\320\354\277K\212\211\222\220\222"
  47      809F4862 
  47      02D0ECBF 
  47      4B8A8992 
  47      9092
  48 0082 245F91C1 		.ascii	"$_\221\301M(\017n\003\270)\031\015\236\3565\024\311"
  48      4D280F6E 
  48      03B82919 
  48      0D9EEE35 
  48      14C9
  49 0094 B8BE9CE6 		.ascii	"\270\276\234\346\325\277-\232V%\355\350R\032\351\325"
  49      D5BF2D9A 
  49      5625EDE8 
  49      521AE9D5 
  50 00a4 0D34D250 		.ascii	"\0154\322P\367\215\364\320\332@d\005\020\366\233\222"
  50      F78DF4D0 
  50      DA406405 
  50      10F69B92 
  51 00b4 ACA89A6E 		.ascii	"\254\250\232n\340\376\035\310\341\225\"\302J\370\301"
  51      E0FE1DC8 
  51      E19522C2 
  51      4AF8C1
  52 00c3 754F4E9D 		.ascii	"uON\235\271z\251\371\360\367}\375\356\234\347\241\303"
  52      B97AA9F9 
  52      F0F77DFD 
  52      EE9CE7A1 
  52      C3
  53 00d4 AB36C2E7 		.ascii	"\2536\302\347\244\341\012!$e>s\341v|\350\324\335\257"
  53      A4E10A21 
  53      24653E73 
  53      E1767CE8 
  53      D4DDAF
  54 00e7 9BDD989B 		.ascii	"\233\335\230\233\004\313\360\275<\335k\271\232[\035"
  54      04CBF0BD 
  54      3CDD6BB9 
  54      9A5B1D
  55 00f6 F2BC4DC2 		.ascii	"\362\274M\302k\325\273\274~\221\334)\317{\345\231K\021"
  55      6BD5BBBC 
  55      7E91DC29 
  55      CF7BE599 
  55      4B11
  56 0108 8B881238 		.ascii	"\213\210\0228(\313\324)\012w*w\032u\240\263f@\026O\343"
ARM GAS  /var/folders/c6/c789hm653lg9vtl73krp73tm0000gn/T//ccVgLuPk.s 			page 4


  56      28CBD429 
  56      0A772A77 
  56      1A75A0B3 
  56      6640164F 
  57 011d 4A30490E 		.ascii	"J0I\016\222L\360d2\030\244x@\210*T]\267\177\205o\351"
  57      924CF064 
  57      3218A478 
  57      40882A54 
  57      5DB77F85 
  58 0133 2F894D53 		.ascii	"/\211MS\313P\3179\313\240\311Rn\247x,\357@\337\304\313"
  58      CB50CF39 
  58      CBA0C952 
  58      6EA7782C 
  58      EF40DFC4 
  59 0148 7FC7E42C 		.ascii	"\177\307\344,\236E\025\362(\265\300j\342q\012N\366\272"
  59      9E4515F2 
  59      28B5C06A 
  59      E2710A4E 
  59      F6BA
  60 015a EE6207D5 		.ascii	"\356b\007\325<\"\223\227\005\345/0$O~#\027\223\276W"
  60      3C229397 
  60      05E52F30 
  60      244F7E23 
  60      1793BE57 
  61 016e 0B5C70A9 		.ascii	"\013\\p\251m \253@M:\250E\020\372W0\353\036d\315(\""
  61      6D20AB40 
  61      4D3AA845 
  61      10FA5730 
  61      EB1E64CD 
  62 0184 170CE319 		.ascii	"\027\014\343\031\001\036\006\322/\244<K\202\236\255"
  62      011E06D2 
  62      2FA43C4B 
  62      829EAD
  63 0193 3CFE76E3 		.ascii	"<\376v\343<\360\035\015\244\2448)_\372a\334\007\264"
  63      3CF01D0D 
  63      A4A43829 
  63      5FFA61DC 
  63      07B4
  64 01a5 60065EFF 		.ascii	"`\006^\377\220\256Q\3200NH\375\362\345\351ai\036\376"
  64      90AE51D0 
  64      304E48FD 
  64      F2E5E961 
  64      691EFE
  65 01b8 2207130B 		.ascii	"\"\007\023\013n\332?8\236I\260R\203\033O\207_6E)\013"
  65      6EDA3F38 
  65      9E49B052 
  65      831B4F87 
  65      5F364529 
  66 01cd 02A7EB71 		.ascii	"\002\247\353q\327\277%l\330\332\011\366\212,\337\203"
  66      D7BF256C 
  66      D8DA09F6 
  66      8A2CDF83 
  67 01dd CACCE4FD 		.ascii	"\312\314\344\375\003\351\340\314\302\303\033\032}\370"
  67      03E9E0CC 
  67      C2C31B1A 
  67      7DF8
  68 01eb A30EE063 		.ascii	"\243\016\340c\333\241\177\224\301\244\215\304\373WZ"
ARM GAS  /var/folders/c6/c789hm653lg9vtl73krp73tm0000gn/T//ccVgLuPk.s 			page 5


  68      DBA17F94 
  68      C1A48DC4 
  68      FB575A
  69 01fa A3E6602A 		.ascii	"\243\346`*\204T\200.\224\177\230\377\275\212\01638\016"
  69      8454802E 
  69      947F98FF 
  69      BD8A0E33 
  69      380E
  70 020c F2830573 		.ascii	"\362\203\005s\247\326\2632qqI\350\251\2102\200\0053"
  70      A7D6B332 
  70      717149E8 
  70      A9883280 
  70      0533
  71 021e 52F7AA1C 		.ascii	"R\367\252\034\254\314a\350Ffr\236\323Eh\333\342\371"
  71      ACCC61E8 
  71      4666729E 
  71      D34568DB 
  71      E2F9
  72 0230 7D0F0A79 		.ascii	"}\017\012y\226w\340\317\211o\246k\347\265\306\264<\233"
  72      9677E0CF 
  72      896FA66B 
  72      E7B5C6B4 
  72      3C9B
  73 0242 5816E98F 		.ascii	"X\026\351\217N\214\353\321\340\310t\305\254\347K\246"
  73      4E8CEBD1 
  73      E0C874C5 
  73      ACE74BA6 
  74 0252 4FA14FF5 		.ascii	"O\241O\365\0215\216^\355\235zv\363\306 R\304E\314\241"
  74      11358E5E 
  74      ED9D7A76 
  74      F3C62052 
  74      C445CCA1 
  75 0266 9F393431 		.ascii	"\237941\2014\237\225\"\0166\035p\321\030\353\017\337"
  75      81349F95 
  75      220E361D 
  75      70D118EB 
  75      0FDF
  76 0278 9F533239 		.ascii	"\237S29\363\335\316pw\272\237\224\340\214\007\360\203"
  76      F3DDCE70 
  76      77BA9F94 
  76      E08C07F0 
  76      83
  77 0289 8B5CAF67 		.ascii	"\213\\\257g\355P\245\024\302\032\3043\317k#\020\324"
  77      ED50A514 
  77      C21AC433 
  77      CF6B2310 
  77      D4
  78 029a A47F81F3 		.ascii	"\244\177\201\363\354_\203\352\223\341\261cr,\303F\274"
  78      EC5F83EA 
  78      93E1B163 
  78      722CC346 
  78      BC
  79 02ab 9654B8F5 		.ascii	"\226T\270\365\211,\360~\033h\016\215\314\320.\2068("
  79      892CF07E 
  79      1B680E8D 
  79      CCD02E86 
  79      3828
ARM GAS  /var/folders/c6/c789hm653lg9vtl73krp73tm0000gn/T//ccVgLuPk.s 			page 6


  80 02bd 10CD00F1 		.ascii	"\020\315\000\361y\035\321d\246\020/\324v\312\302\331"
  80      791DD164 
  80      A6102FD4 
  80      76CAC2D9 
  81 02cd 943C027D 		.ascii	"\224<\002}S\263O\2658\000\233*Rd\246sp23 \012\220\014"
  81      53B34FB5 
  81      38009B2A 
  81      5264A673 
  81      70323320 
  82 02e4 6AE2C540 		.ascii	"j\342\305@\224\266\004mN\260\021\013\277G\305\222\022"
  82      94B6046D 
  82      4EB0110B 
  82      BF47C592 
  82      12
  83 02f5 4BC918CB 		.ascii	"K\311\030\313\340\005\376\353\310(\322s\332;\343yi\361"
  83      E005FEEB 
  83      C828D273 
  83      DA3BE379 
  83      69F1
  84 0307 949EC377 		.ascii	"\224\236\303w\275\245y\276\012\367\240:39w\263\351\215"
  84      BDA579BE 
  84      0AF7A03A 
  84      333977B3 
  84      E98D
  85 0319 2B35F75C 		.ascii	"+5\367\\\315bM\274\206a\241h\015\027k\261\215z\026G"
  85      CD624DBC 
  85      8661A168 
  85      0D176BB1 
  85      8D7A1647 
  86 032d C3C24939 		.ascii	"\303\302I9\370\021k\343\220\244\014\251\223\257s\301"
  86      F8116BE3 
  86      90A40CA9 
  86      93AF73C1 
  87 033d D6B59FBD 		.ascii	"\326\265\237\275\002o\335\020\257\347\030\375\031\325"
  87      026FDD10 
  87      AFE718FD 
  87      19D5
  88 034b 49648826 		.ascii	"Id\210&\315r~>nm\265\374_W\267U*[\335%\333\262;{\312"
  88      CD727E3E 
  88      6E6DB5FC 
  88      5F57B755 
  88      2A5BDD25 
  89 0364 AD36A8B9 		.ascii	"\2556\250\271\216B9k\354\356\332+\224\226\006\313=]"
  89      8E42396B 
  89      ECEEDA2B 
  89      949606CB 
  89      3D5D
  90 0376 A572B7B5 		.ascii	"\245r\267\265\371\323\266-m\373\310\305\356*u\354*;"
  90      F9D3B62D 
  90      6DFBC8C5 
  90      EE2A75EC 
  90      2A3B
  91 0388 C58E526B 		.ascii	"\305\216Rk'Xq\333\316l!0\376,\323\266n\255\265}\373"
  91      275871DB 
  91      CE6C2130 
  91      FE2CD3B6 
  91      6EADB57D 
ARM GAS  /var/folders/c6/c789hm653lg9vtl73krp73tm0000gn/T//ccVgLuPk.s 			page 7


  92 039d 562BB3AD 		.ascii	"V+\263\255\255g\215\325]\336U(\344\310~y\003\266\263"
  92      AD678DD5 
  92      5DDE5528 
  92      E4C87E79 
  92      03B6B3
  93 03b0 DB2E7C99 		.ascii	"\333.|\231\353\360\231t\202\302\270\377\003q\251\301"
  93      EBF09974 
  93      82C2B8FF 
  93      0371A9C1 
  94 03c0 92       		.ascii	"\222"
  95              		.text
  96              		.section	.gnu.lto__vt_init.eacdcbde129e3cd6,"",%progbits
  97 0000 789C6362 		.ascii	"x\234cb`b@\007\222@,\015\024\226\001\322\214\314\014"
  97      60624007 
  97      92402C0D 
  97      149601D2 
  97      8CCC0C
  98 0013 8C4C13CE 		.ascii	"\214L\023\316104r012\202\030\014\214\014\365L\214\365"
  98      31303472 
  98      30313282 
  98      180C8C0C 
  98      F54C8CF5 
  99 0027 918C60B5 		.ascii	"\221\214`\265\353\231\016<\370\377\177\335\257\255\017"
  99      EB990E3C 
  99      F8FF7FDD 
  99      AFAD0F
 100 0036 FB1905D9 		.ascii	"\373\031\005\331\200\002\254\014-\015\015\023\024\030"
 100      8002AC0C 
 100      2D0D0D13 
 100      1418
 101 0044 1892C10A 		.ascii	"\030\222\301\012B\200$HW(#\023\210f>\313\320\364\253"
 101      42802448 
 101      57282313 
 101      88663ECB 
 101      D0F4AB
 102 0057 F9FF6BA6 		.ascii	"\371\377k\246D\306\205\214\254\014\332\014\253\032\200"
 102      44C6858C 
 102      AC0CDA0C 
 102      AB1A80
 103 0066 C0329311 		.ascii	"\3002\223\021\306\344\316dd\234\3150\253\261\241A \223"
 103      C6E4CE64 
 103      649CCD30 
 103      ABB1A141 
 103      2093
 104 0078 91A99AE1 		.ascii	"\221\251\232\341WC\007\210\305\234\0136-\202\021\310"
 104      57430788 
 104      C59C0B36 
 104      2D8211C8 
 105 0088 04DB9B04 		.ascii	"\004\333\233\004\261\036HC\030\020\225\015[\201\012"
 105      B11E4843 
 105      1810950D 
 105      5B810A
 106 0097 58A046ED 		.ascii	"X\240F\355\006\262\031\201\372`J\301\000l\377\342\036"
 106      06B21981 
 106      FA604AC1 
 106      006CFFE2 
 106      1E
ARM GAS  /var/folders/c6/c789hm653lg9vtl73krp73tm0000gn/T//ccVgLuPk.s 			page 8


 107 00a8 5DEAD9CF 		.ascii	"]\352\331\317D\252\375;v<\372\200\341\177V\262\355\207"
 107      44AAFD3B 
 107      763CFA80 
 107      E17F56B2 
 107      ED87
 108 00ba F041326C 		.ascii	"\360A2l\377\201\200\037f\311\343\023\314\324\263\204"
 108      FF81801F 
 108      66C9E313 
 108      CCD4B384 
 109 00ca 05610988 		.ascii	"\005a\011\210q\221\241\361A\2772\304x\030\010\001\306"
 109      7191A1F1 
 109      41BF32C4 
 109      78180801 
 109      C6
 110 00db 04308641 		.ascii	"\0040\206A\301!\245\247\247\017A\371\305\372E%\372\305"
 110      C121A5A7 
 110      A70F41F9 
 110      C5FA4525 
 110      FAC5
 111 00ed 45C9FAC9 		.ascii	"E\311\372\311\031e%z\311\014\000W\330\214\266"
 111      1965257A 
 111      C90C0057 
 111      D88CB6
 112              		.text
 113              		.section	.gnu.lto_chVTDoSetI.eacdcbde129e3cd6,"",%progbits
 114 0000 789CAD56 		.ascii	"x\234\255Vmh[U\030~\337s\222\334\2334\335\212:\327\017"
 114      6D685B55 
 114      187EDF73 
 114      92DC9B34 
 114      DD8A3AD7 
 115 0015 FB41FFEC 		.ascii	"\373A\377\354\243\322\260\025\221\"\"\242\177\006\353"
 115      A3D2B015 
 115      912222A2 
 115      7F06EB
 116 0024 0FB545FD 		.ascii	"\017\265E\3755bZ\322@?F\033\2470a7m\324\311\252\026"
 116      35625AD2 
 116      403F461B 
 116      A7306137 
 116      6DD4C9AA 
 117 0039 ED60BAFD 		.ascii	"\355`\272\375\330\250Uq\254\205\226A\207\023\2721Xc"
 117      D8A85571 
 117      AC859641 
 117      8713BA31 
 117      5863
 118 004b 719F8EB5 		.ascii	"q\237\216\265\325\037\305\261:A\244u\242uJ\343{\276"
 118      D51FC5B1 
 118      3A41A475 
 118      A2754AE3 
 118      7BBE
 119 005d D2248DCB 		.ascii	"\322$\215\313:vI\316\271\367\334\367}\316\363~\336\303"
 119      3A7649CE 
 119      B9F7DCF7 
 119      7DCEF37E 
 119      DEC3
 120 006f 8041F6F5 		.ascii	"\200A\366\3651\375\313\375\000_\322\214\205\200\254"
 120      31FDCBFD 
 120      005FD28C 
ARM GAS  /var/folders/c6/c789hm653lg9vtl73krp73tm0000gn/T//ccVgLuPk.s 			page 9


 120      8580AC
 121 007e FF0240CC 		.ascii	"\377\002@\314f\214\367m\000\307\347\212\327\203\343"
 121      668CF76D 
 121      00C7E78A 
 121      D783E3
 122 008d E7E852CB 		.ascii	"\347\350R\313.\346>\305i\331s\375[\240u7\372\325\272"
 122      2EE63EC5 
 122      69D973FD 
 122      5BA07537 
 122      FAD5BA
 123 00a0 8759DF3F 		.ascii	"\207Y\337?J\353\366\351'i\331B[-\333\350S7^us\306\366"
 123      4AEBF6E9 
 123      2769D942 
 123      5B2DDBE8 
 123      53375E75 
 124 00b7 316FDF79 		.ascii	"1o\337yR\365\025\304-\222,0\000~Dq\003\010\373\030w"
 124      52F515C4 
 124      2D922C30 
 124      007E4471 
 124      0308FB18 
 125 00cc B93D96ED 		.ascii	"\271=\226\355\365\025\370q\337\253(H\262j8\3468\037"
 125      F515F871 
 125      DFAB2848 
 125      B26A38E6 
 125      381F
 126 00de CD0DFD3E 		.ascii	"\315\015\375>\307>q&\342G\235\177\223I\304\010\222A"
 126      C73E7126 
 126      E2479D7F 
 126      9349C408 
 126      9241
 127 00f0 E5082184 		.ascii	"\345\010!\204W\350\001\253\344\304\\\231\026*\335\211"
 127      57E801AB 
 127      E4C45C99 
 127      162ADD89 
 128 0100 83E73F28 		.ascii	"\203\347?(q\216\366\364;\313\244\032A\316\2402\237\346"
 128      718EF6F4 
 128      3BCBA41A 
 128      41CEA032 
 128      9FE6
 129 0112 089B984B 		.ascii	"\010\233\230K&\373N\375\361\323E|\250\026\241]\354\027"
 129      26FB4EFD 
 129      F1D3457C 
 129      A816A15D 
 129      EC17
 130 0124 C463580D 		.ascii	"\304cX\015\234\346A\232-lG\264i`>\032x!\015\260\016"
 130      9CE6419A 
 130      2D6C47B4 
 130      69603E1A 
 130      78210DB0 
 131 0139 88D8061A 		.ascii	"\210\330\006\032\\\033\305P,\206\022-_*\036\312\304"
 131      5C1BC550 
 131      2C86122D 
 131      5F2A1ECA 
 131      C4
 132 014a 50AE912A 		.ascii	"P\256\221*\304C\245~]\245\027\253\005\304&\361f\263"
 132      C443A57E 
 132      5DA517AB 
ARM GAS  /var/folders/c6/c789hm653lg9vtl73krp73tm0000gn/T//ccVgLuPk.s 			page 10


 132      05C426F1 
 132      66B3
 133 015c 186A68E0 		.ascii	"\030jh\340D\310\015q\307\351\257R2J\243\035\211tHz\251"
 133      44C80D71 
 133      C7E9AF52 
 133      324AA31D 
 133      8974487A 
 134 0171 91C6610B 		.ascii	"\221\306a\013\232\220\321\304\277\203\236\251\245\333"
 134      9A90D1C4 
 134      BF839EA9 
 134      A5DB
 135 017f 4B18C421 		.ascii	"K\030\304!tC\015|\345\320U\030A\367a\370\224l\365\204"
 135      74430D7C 
 135      E5D05518 
 135      41F761F8 
 135      946CF584 
 136 0193 D112362B 		.ascii	"\321\0226+K_\323s\030m\000\241y\350\317\011\226\255"
 136      4B5FD373 
 136      186D00A1 
 136      79E8CF09 
 136      96AD
 137 01a5 69E5D644 		.ascii	"i\345\326D\255\351\023\232ggO_=\267]\3634\204'N\276"
 137      ADE9139A 
 137      67674F5F 
 137      3DB75DF3 
 137      3484274E 
 138 01ba FF034F3D 		.ascii	"\377\003O=\014\015\314X\251\207\003\277-\246\336T\251"
 138      0C0DCC58 
 138      A98703BF 
 138      2DA6DE54 
 138      A9
 139 01cb 4839A38E 		.ascii	"H9\243\216\343\225\021\3462LG1_\234\000\024U\020\236"
 139      E39511E6 
 139      324C4731 
 139      5F9C0014 
 139      55109E
 140 01de 10C28CFE 		.ascii	"\020\302\214\376\\\261\252\021\374\343\261\271\303C"
 140      5CB1AA11 
 140      FCE3B1B9 
 140      C343
 141 01ec 03A511B4 		.ascii	"\003\245\021\264\311\204X\277S\024A\257\000\362\011"
 141      C98458BF 
 141      531441AF 
 141      00F209
 142 01fb CB5C12D3 		.ascii	"\313\\\022\323\247\255a\002\354\270\002K@\317\302\331"
 142      A7AD6102 
 142      ECB8024B 
 142      40CFC2D9 
 143 020b AFDF0AE2 		.ascii	"\257\337\012\3420=\007q\204\334-\256I\210\317\237\271"
 143      303D0771 
 143      84DC2DAE 
 143      4988CF9F 
 143      B9
 144 021c FCAE5FAD 		.ascii	"\374\256_\255\207\261P\350sL\243\323D\273/#'\375\271"
 144      87B150E8 
 144      734CA3D3 
 144      44BB2F23 
ARM GAS  /var/folders/c6/c789hm653lg9vtl73krp73tm0000gn/T//ccVgLuPk.s 			page 11


 144      27FDB9
 145 022f 5F062D25 		.ascii	"_\006-%\327\256Lp\261\224\214K\204\211d\310\345\364"
 145      D7AE4C70 
 145      B1948C4B 
 145      848964C8 
 145      E5F4
 146 0241 322C1C49 		.ascii	"2,\034I\256\237\035\377g\3222\320\353j`+yZ\307\340\032"
 146      AE9F1DFF 
 146      67D232D0 
 146      EB6A602B 
 146      795AC7E0 
 147 0256 E917080B 		.ascii	"\351\027\010\013\034a\201\177/\334q\366\213\273\302"
 147      1C61817F 
 147      2FDC71F6 
 147      8BBBC2
 148 0265 76C957C0 		.ascii	"v\311W\300\027j3\270\236\215\247&\341\334\317\261m)"
 148      176A33B8 
 148      9E8DA726 
 148      E1DCCFB1 
 148      6D29
 149 0277 58A5EAD4 		.ascii	"X\245\352\324E\304\016\022\273\236\240\011\306h\246"
 149      45C40E12 
 149      BB9EA009 
 149      C668A6
 150 0286 5D338064 		.ascii	"]3\200d#C\315\236\037\371&*\330\273a\253\310\261\304"
 150      2343CD9E 
 150      1FF9262A 
 150      D8BB61AB 
 150      C8B1C4
 151 0299 F8F22DAE 		.ascii	"\370\362-\256p5\322\013\344\014}[\267f\276n\235L5*\015"
 151      7035D20B 
 151      E40C7D5B 
 151      B766BE6E 
 151      9D4C352A 
 152 02ae A7972757 		.ascii	"\247\227'W\201\303}\203\2734\270\245\300\227\036(\270"
 152      81C37D83 
 152      BB34B8A5 
 152      C0971E28 
 152      B8
 153 02bf 2703FC4E 		.ascii	"'\003\374N\357\355\017\037\317\000\177\202\300s\027"
 153      EFED0F1F 
 153      CF007F82 
 153      C07317
 154 02ce 9025671D 		.ascii	"\220%g\035\2221\\\211\311)\314\021\024\011\376\327="
 154      92315C89 
 154      C929CC11 
 154      1409FED7 
 154      3D
 155 02df 83DB6B05 		.ascii	"\203\333k\005\237\232N\336b\331\340<7\270W\333,3\267"
 155      9F9A4EDE 
 155      62D9E03C 
 155      37B857DB 
 155      2C33B7
 156 02f2 777FEF17 		.ascii	"w\177\357\027\003O\233\024\333@\2532\214\011\320h\272"
 156      034F9B14 
 156      DB40AB32 
 156      8C09D068 
ARM GAS  /var/folders/c6/c789hm653lg9vtl73krp73tm0000gn/T//ccVgLuPk.s 			page 12


 156      BA
 157 0303 0F27DF99 		.ascii	"\017'\337\231B*\362\330B2\271^\326\367gy\353\233\320"
 157      422AF2D8 
 157      4232B95E 
 157      D6F76779 
 157      EB9BD0
 158 0316 002E427C 		.ascii	"\000.B|\341\304\340\374\022f7\227\251sW\250^.\312\342"
 158      E1C4E0FC 
 158      12663797 
 158      A97357A8 
 158      5E2ECAE2 
 159 032a 543B854C 		.ascii	"T;\205L\332\247\342\266>\204\356 ^Q\351Ep\021,2U\350"
 159      DAA7E2B6 
 159      3E84EE20 
 159      5E51E945 
 159      70112C32 
 160 0340 81B86896 		.ascii	"\201\270h\226\304\376\306\300\026\303~\243a/\012\262"
 160      C4FEC6C0 
 160      16C37EA3 
 160      612F0AB2 
 161 0350 FF61B35C 		.ascii	"\377a\263\\,\313\321d\367\336\373\314n\351\254\367z"
 161      2CCBD164 
 161      F7DEFBCC 
 161      6EE9ACF7 
 161      7A
 162 0361 3B0C6A89 		.ascii	";\014j\211\334\2578\315U\252\265\323\033\335\021>\277"
 162      DCAF38CD 
 162      55AAB5D3 
 162      1BDD113E 
 162      BF
 163 0372 EC32C2A5 		.ascii	"\3542\302\245\212B*\036\353V\307CV\373\374J\265\227"
 163      8A422A1E 
 163      EB56C743 
 163      56FBFC4A 
 163      B597
 164 0384 4A207335 		.ascii	"J s5Q\276\275\315\224\305\267\007\2362Be\304@\312\345"
 164      51BEBDCD 
 164      94C5B707 
 164      9E324265 
 164      C440CAE5 
 165 0398 8957102F 		.ascii	"\211W\020/\311\366z\367x\225\311x]:1heG\353\300\205"
 165      C9F67AF7 
 165      7895C978 
 165      5D3A3168 
 165      6547EBC0 
 166 03ad 518AD66C 		.ascii	"Q\212\326lF\264<\253\243E2?\232h\225\245E\313V\321\352"
 166      46B43CAB 
 166      A345323F 
 166      9A6895A5 
 166      45CB56D1 
 167 03c2 999D3EBE 		.ascii	"\231\235>\276E5\3750\226?\270\336 {\376\204[!\253\317"
 167      4535FD30 
 167      963FB8DE 
 167      207BFE84 
 167      5B21ABCF 
 168 03d6 2CE19BCD 		.ascii	",\341\233\315\275@g\027.\203w\343`\231\331\2762\214"
 168      BD406717 
ARM GAS  /var/folders/c6/c789hm653lg9vtl73krp73tm0000gn/T//ccVgLuPk.s 			page 13


 168      2E8377E3 
 168      6099D9BE 
 168      328C
 169 03e8 3C8C15DA 		.ascii	"<\214\025\332sCi\341\253\324\341\033\2567\262U\271\352"
 169      734369E1 
 169      ABD4E11B 
 169      AE37B255 
 169      B9EA
 170 03fa 95AD6E06 		.ascii	"\225\255n\006\212\207\225\311\243\312\360\360\001\235"
 170      8A8795C9 
 170      A3CAF0F0 
 170      019D
 171 0408 95F497C3 		.ascii	"\225\364\227\303\354\305\245\212\\P\322Lm\276t|\006"
 171      ECC5A58A 
 171      5C50D24C 
 171      6DBE747C 
 171      06
 172 0419 CDEE1559 		.ascii	"\315\356\025Y\271\303\376'wn\306\352R*\341\225\3660"
 172      B9C3FE27 
 172      776EC6EA 
 172      522AE195 
 172      F630
 173 042b 038C9C61 		.ascii	"\003\214\234a\377z\355\021\342\342=r\375\261\031 \303"
 173      FF7AED11 
 173      E2E23D72 
 173      FDB11920 
 173      C3
 174 043c 4BECBEAB 		.ascii	"K\354\276\253md\2537\376\262\340V\240\003\224\030\037"
 174      6D64AB37 
 174      FEB2E056 
 174      A0039418 
 174      1F
 175 044d 39B3EA04 		.ascii	"9\263\352\004q\327\006\230\242<=\262\310\315\376\325"
 175      71D70698 
 175      A23C3DB2 
 175      C8CDFED5 
 176 045d EA03989B 		.ascii	"\352\003\230\233\262\235*\247\236D\277\357\0367\263"
 176      B29D2AA7 
 176      9E44BFEF 
 176      1E37B3
 177 046c F566D5FA 		.ascii	"\365f\325\372#0\222\340\031\232\317\244kV\347\242\251"
 177      233092E0 
 177      199ACFA4 
 177      6B56E7A2 
 177      A9
 178 047d 3F1F8746 		.ascii	"?\037\207F\0273\017W\336<D\215fb|4\261\3125y:,\327\251"
 178      17330F57 
 178      DE3C448D 
 178      66627C34 
 178      B1CA3579 
 179 0495 34F6772A 		.ascii	"4\366w*\232\233\224rQ\336\210\212\204M9t3)\032\270\035"
 179      9A9B9472 
 179      51DE888A 
 179      844D3974 
 179      33291AB8 
 180 04aa E924F2E1 		.ascii	"\351$\362\341\220\252T\032\237\036[\314d_\277\322\022"
 180      90AA541A 
ARM GAS  /var/folders/c6/c789hm653lg9vtl73krp73tm0000gn/T//ccVgLuPk.s 			page 14


 180      9F1E5BCC 
 180      645FBFD2 
 180      12
 181 04bb 0BD65C77 		.ascii	"\013\326\\w\352\334%\317\026I\272\326\203Ir\2778\035"
 181      EADC25CF 
 181      1649BAD6 
 181      834972BF 
 181      381D
 182 04cd 5D86D8DC 		.ascii	"]\206\330\334\201\233\250\032\205\271\032\351\2031l"
 182      819BA81A 
 182      85B91AE9 
 182      83316C
 183 04dc 89735469 		.ascii	"\211sTimm@\375:\273\003]\321@wW(\020j\335\023\255\015"
 183      6D6D40FD 
 183      3ABB035D 
 183      D1407757 
 183      28106ADD 
 184 04f3 01EE7637 		.ascii	"\001\356v7\267\264E\203\201t\221\326`[`wgW\264;\360"
 184      B7B44583 
 184      817491D6 
 184      605B6077 
 184      6757B43B 
 185 0508 526343DD 		.ascii	"RcC\335\366\300\316\235\317\007\032w4\354\331\026\350"
 185      F6C0CE9D 
 185      CF071A77 
 185      34ECD916 
 185      E8
 186 0519 8EEE6A6B 		.ascii	"\216\356jkk\256m\205\232,H%\376\354\213\015\3175\274"
 186      6BAE6D85 
 186      9A2C4825 
 186      FEEC8B0D 
 186      CF35BC
 187 052c 49D8A1CE 		.ascii	"I\330\241\316\256\226]\321H{K\027\311Vd\311F:Bm\257"
 187      AE965DD1 
 187      487B4B17 
 187      C95664C9 
 187      463A426D 
 188 0541 37B7280A 		.ascii	"7\267(\012\255\300;:\337p\011\331\377\000\015R\370\343"
 188      ADC03B3A 
 188      DF7009D9 
 188      FF000D52 
 188      F8E3
 189              		.text
 190              		.section	.gnu.lto_chVTDoResetI.eacdcbde129e3cd6,"",%progbits
 191 0000 789CAD93 		.ascii	"x\234\255\2231h\024A\024\206\337{\263\263{\271=\203"
 191      31681441 
 191      1486DF7B 
 191      B3B37BB9 
 191      3D83
 192 0012 982A8210 		.ascii	"\230*\202\020,,<\270ClLe\035\2603\007\261\214\033\211"
 192      2C2C3CB8 
 192      436C4C65 
 192      1DB03307 
 192      B18C1B89 
 193 0026 0B9E81E4 		.ascii	"\013\236\201\344H\012\213\314%W\244\222\303*\230\306"
 193      480A8BCC 
 193      2557A492 
ARM GAS  /var/folders/c6/c789hm653lg9vtl73krp73tm0000gn/T//ccVgLuPk.s 			page 15


 193      C32A98C6 
 194 0036 B4126263 		.ascii	"\264\022bcq\251rg\025\021\243\261\224\200V\011\210\202"
 194      71A97267 
 194      1511A3B1 
 194      94805609 
 194      8882
 195 0048 7612C4F5 		.ascii	"v\022\304\365\315\314\316\355\2359L\343p\367\336\314"
 195      CDCCCEED 
 195      9D394CE3 
 195      70F7DECC 
 196 0058 EE7CFF7B 		.ascii	"\356|\377{\363\336,\001\301\337\343\026\377\277\011"
 196      F3DE2C01 
 196      C1DFE316 
 196      FFBF09
 197 0067 80227B0C 		.ascii	"\200\"{\014\000\251\271\017P\317\021\211\227\257\000"
 197      00A9B90F 
 197      50CF1189 
 197      97AF00
 198 0076 545E1E86 		.ascii	"T^\036\206\240\012\202<\273\364\315\322C\337n\223v\202"
 198      A00A823C 
 198      BBF4CDD2 
 198      43DF6E93 
 198      7682
 199 0088 3EA2F680 		.ascii	">\242\366\200\260L\302\223>.\337A#\377\202\332\237\223"
 199      B04CC293 
 199      3E2EDF41 
 199      23FF82DA 
 199      9F93
 200 009a 64FBC39B 		.ascii	"d\373\303\233\255_\270K#\0041\202\300*\202\247gR\233"
 200      AD5FB84B 
 200      23043182 
 200      C02A82A7 
 200      67529B
 201 00ad 409B3C1B 		.ascii	"@\233<\033\014\265)h\303\244\204\206R\315\261*\342e"
 201      0CB52968 
 201      C3A48486 
 201      52CDB12A 
 201      E265
 202 00bf D854EA49 		.ascii	"\330T\352I{c\377\361\250z\266\322T\277\223\004c$\202"
 202      7B63FFF1 
 202      A87AB6D2 
 202      54BF9304 
 202      632482
 203 00d2 4B0811C2 		.ascii	"K\010\021\302\024/\304\230q\236\327\1778K\252O3{\252"
 203      142FC498 
 203      719ED77F 
 203      384BAA4F 
 203      337BAA
 204 00e5 D14E929B 		.ascii	"\321N\222\233\206\272r\026\005\372=\217I\266\372T\025"
 204      86BA7216 
 204      05FA3D8F 
 204      49B6FA54 
 204      15
 205 00f6 24EDC55B 		.ascii	"$\355\305[X\371\330:\352\3204n\242\204Y\244\"\\\345"
 205      58F9D83A 
 205      EAD0346E 
 205      A28459A4 
ARM GAS  /var/folders/c6/c789hm653lg9vtl73krp73tm0000gn/T//ccVgLuPk.s 			page 16


 205      225CE5
 206 0109 D48BF05C 		.ascii	"\324\213\360\\\361\270\036\243\334\200\247u\245\316"
 206      F1B81EA3 
 206      DC80A775 
 206      A5CE
 207 0117 C7E83F82 		.ascii	"\307\350?\202\023\265\246gA\025u\321u\234\300h\337\265"
 207      13B5A667 
 207      411575D1 
 207      759CC068 
 207      DFB5
 208 0129 85619F4E 		.ascii	"\205a\237N`\017\032_\353\347\272\252\263(\262L*\274"
 208      600F1A5F 
 208      EBE7BAAA 
 208      B328B24C 
 208      2ABC
 209 013b E0CA9BD8 		.ascii	"\340\312\233\330?\217:\350vy66\007d\341\034#:\200\023"
 209      3F8F3AE8 
 209      76793636 
 209      0764E11C 
 209      233A8013 
 210 014f 765DD650 		.ascii	"v]\326P\363\202C\344\277\020\221!\257\277\017[$=\330"
 210      F38243E4 
 210      BF109121 
 210      AFBF0F5B 
 210      243DD8
 211 0162 ED5EC83B 		.ascii	"\355^\310;\015\261\262\015\265~\234\345\027\374\217"
 211      0DB1B20D 
 211      B57E9CE5 
 211      17FC8F
 212 0171 60C1E943 		.ascii	"`\301\351Cq\006\206k\265\216\017\250\217\274\026\343"
 212      7106866B 
 212      B58E0FA8 
 212      8FBC16E3 
 213 0181 D0E070B6 		.ascii	"\320\340p\266\275\372\311\220+w\347\375p7S\333*\335"
 213      BDFAC990 
 213      2B77E7FD 
 213      703753DB 
 213      2ADD
 214 0193 BF7C2A35 		.ascii	"\277|*5\316\255\344\266\271N\365\215\012\313\355\334"
 214      CEADE4B6 
 214      B94EF58D 
 214      0ACBEDDC 
 215 01a3 B077E1CB 		.ascii	"\260w\341\313\017\341TR\224\033N\203\323\227\275=\031"
 215      0FE15452 
 215      941B4E83 
 215      D397BD3D 
 215      19
 216 01b4 715868CA 		.ascii	"qXh\312D\203\363\316\220\325\265\325\223ni\013\034\215"
 216      4483F3CE 
 216      90D5B5D5 
 216      936E690B 
 216      1C8D
 217 01c6 492335D1 		.ascii	"I#5\321[\202\263\2023\352\316 \3410\024\357\240\221"
 217      5B82B382 
 217      33EACE20 
 217      E13014EF 
 217      A091
ARM GAS  /var/folders/c6/c789hm653lg9vtl73krp73tm0000gn/T//ccVgLuPk.s 			page 17


 218 01d8 B33C40F7 		.ascii	"\263<@\367\276\206Qz/9\2318\003|\363\005\034\360'\237"
 218      BE86517A 
 218      2F399938 
 218      037CF305 
 218      1CF0279F 
 219 01ec 95629277 		.ascii	"\225b\222w\362S\335\230\213\245R\331\376\346\026\312"
 219      F253DD98 
 219      8BA552D9 
 219      FEE616CA 
 220 01fc F3B5F2C2 		.ascii	"\363\265\362\302|T\216\356/\326J\021\344\036\316-\315"
 220      7C548EEE 
 220      2FD64A11 
 220      E41ECE2D 
 220      CD
 221 020d DC7B509B 		.ascii	"\334{P\233\226\306\376\001jr\342\355"
 221      96C6FE01 
 221      6A72E2ED 
 222              		.text
 223              		.section	.gnu.lto_.symbol_nodes.eacdcbde129e3cd6,"",%progbits
 224 0000 789C4DC8 		.ascii	"x\234M\3101\016\202@\024\204\341\231\367v\3273x\011"
 224      310E8240 
 224      1484E199 
 224      F776D733 
 224      7809
 225 0012 AE387410 		.ascii	"\2568t\020+\032J-\344(\026\026&\224p\000\242\022\215"
 225      2B1A4A2D 
 225      E4281616 
 225      26947000 
 225      A2128D
 226 0025 89DC4012 		.ascii	"\211\334@\022\2118\325\377\215\301Pc\231\275)\240j\001"
 226      8938D5FF 
 226      8DC15063 
 226      99BD29A0 
 226      6A01
 227 0037 695F328E 		.ascii	"i_2\216\234\013v\245\270\274\207\222v\243\354\217w\312"
 227      9C0B76A5 
 227      B8BC8792 
 227      76A3EC8F 
 227      77CA
 228 0049 57F24585 		.ascii	"W\362E\205/\363\234|Rq\325\203J?9\022\206\313y\353\210"
 228      2FF39C7C 
 228      5271D583 
 228      4A3F3912 
 228      86CB79EB 
 229 005e 682673DF 		.ascii	"h&s\337\240\331e\356\011\247\266\013\036\200c\321\033"
 229      A0D965EE 
 229      09A7B60B 
 229      1E8063D1 
 229      1B
 230 006f 3EA0072C 		.ascii	">\240\007,\315"
 230      CD
 231              		.text
 232              		.section	.gnu.lto_.refs.eacdcbde129e3cd6,"",%progbits
 233 0000 789C6362 		.ascii	"x\234cb`b0e\200\000\026\006FF& d`dc\002\261 \230\221"
 233      60623065 
 233      80001606 
 233      46462620 
ARM GAS  /var/folders/c6/c789hm653lg9vtl73krp73tm0000gn/T//ccVgLuPk.s 			page 18


 233      64606463 
 234 0019 918B9901 		.ascii	"\221\213\231\001\312\202\3113\200X, Q\006\000\026\273"
 234      CA82C933 
 234      80582C20 
 234      51060016 
 234      BB
 235 002a 0088     		.ascii	"\000\210"
 236              		.text
 237              		.section	.gnu.lto_.decls.eacdcbde129e3cd6,"",%progbits
 238 0000 789CBD5B 		.ascii	"x\234\275[\013p\324F\232\2264\343\307\330\346\021\262"
 238      0B70D446 
 238      9A9634E3 
 238      C7D8E611 
 238      B2
 239 0011 C911961C 		.ascii	"\311\021\226\034\316Ur\373\272`C\010\220\272\253\000"
 239      CE5572FB 
 239      BA604308 
 239      90BAAB00 
 240 0021 675249AA 		.ascii	"gRI\252\302^\312\260WT\335\325\315\212\261\260}\353"
 240      C25ECAB0 
 240      5754DDD5 
 240      CD8AB1B0 
 240      7DEB
 241 0033 F1CCCDC8 		.ascii	"\361\314\315\310\006\252\256*\3028\006B\262\230\227"
 241      06AAAE2A 
 241      C2380642 
 241      B29897
 242 0042 71581E86 		.ascii	"qX\036\206\004\002d!`\300@\200 \222\305k\336>\233\204"
 242      04026421 
 242      60C04080 
 242      2092C56B 
 242      DE3E9B84 
 243 0056 57D69887 		.ascii	"W\326\230\207Y`\023\302+\274\216\340\373\373oi\246\245"
 243      596013C2 
 243      2BBC8EE0 
 243      FBFB6F69 
 243      A6A5
 244 0068 91C69261 		.ascii	"\221\306\222aOE\267{\244\356\357\177\366\377w\267\204"
 244      4F45B77B 
 244      A4EEEF7F 
 244      F6FF77B7 
 244      84
 245 0079 C009DC6A 		.ascii	"\300\011\334j\201\343:\341\032:\212\343.\247q\\\012"
 245      81E33AE1 
 245      1A3A8AE3 
 245      2EA7715C 
 245      0A
 246 008a C7712F43 		.ascii	"\307q/C\361@Y\016e\005\224\006(<\224\303P\240\013\267"
 246      F140590E 
 246      65059406 
 246      283C94C3 
 246      50A00BB7 
 247 009e 057EEC84 		.ascii	"\005~\354\204\242B9\002\345K(\307\240\234\342i\277?"
 247      A2423902 
 247      E54B28C7 
 247      A09CE269 
 247      BF3F
ARM GAS  /var/folders/c6/c789hm653lg9vtl73krp73tm0000gn/T//ccVgLuPk.s 			page 19


 248 00b0 918AB948 		.ascii	"\221\212\271H\377>\032NO(YP\326jX\037k4\332\240\317"
 248      FF3E1A4E 
 248      4F285950 
 248      D66A581F 
 248      6B34DAA0 
 249 00c5 599ED2DC 		.ascii	"Y\236\322\334\003\345\034\264wA9\017\245\003J_\340\363"
 249      03E51CB4 
 249      7741390F 
 249      A5034A5F 
 249      E0F3
 250 00d7 2928C7A1 		.ascii	")(\307\241\235\016\3177j\374\254\201\262\011\212J\350"
 250      9D0ECF37 
 250      6AFCAC81 
 250      B2098A4A 
 250      E8
 251 00e8 40B90FCF 		.ascii	"@\271\017\317\017r\264\017\241\333O\240\374=\015\177"
 251      0F72B40F 
 251      A1DB4FA0 
 251      FC3D0D7F 
 252 00f8 9F81F22C 		.ascii	"\237\201\362,\224\237\010\224_\"\343?@{;\237\3103\221"
 252      949F0894 
 252      5F22E33F 
 252      407B3B9F 
 252      C83391
 253 010b 2F4DE3D3 		.ascii	"/M\343\323\314_\203\306{\012\303\303~(\0078J\233\327"
 253      CC5F83C6 
 253      7B0AC3C3 
 253      7E280738 
 253      4A9BD7
 254 011e C65BE982 		.ascii	"\306[\351\202\350\3541\015W\327\205\2167B\323\007\221"
 254      E8EC310D 
 254      57D7858E 
 254      3742D307 
 254      91
 255 012f 9F95DB4C 		.ascii	"\237\225\333L_\327C&\264\2334\331\211\334:/\0075~6j"
 255      5FD74326 
 255      B49B34D9 
 255      89DC3A2F 
 255      07357E36 
 256 0144 BAD9A2F1 		.ascii	"\272\331\242\361\226\256\321gu1X\240v\323u\222J0\341"
 256      96AED167 
 256      753158A0 
 256      76D37592 
 256      4A30E1
 257 0157 EF1F891E 		.ascii	"\357\037\211\036\241\354\2072TH\224\203\330\275\007"
 257      A1EC8732 
 257      54489483 
 257      D8BD07
 258 0166 6347D6B6 		.ascii	"cG\326\266,\277\272<\204\357\177\004\234\006\215\006"
 258      2CBFBA3C 
 258      84EF7F04 
 258      9C068D06 
 259 0176 6BBB8D8C 		.ascii	"k\273\215\214\375\004\015{\213f\237V\236\332\310L?\223"
 259      FD040D7B 
 259      8B669F56 
 259      9EDAC84C 
 259      3F93
ARM GAS  /var/folders/c6/c789hm653lg9vtl73krp73tm0000gn/T//ccVgLuPk.s 			page 20


 260 0188 7B47512A 		.ascii	"{GQ*\224\272*\345\265\246\236}\2709\012\\\331M\300\301"
 260      94BA2AE5 
 260      B5A69E7D 
 260      B8390A5C 
 260      D94DC0C1 
 261 019c 785EE47B 		.ascii	"x^\344{\3728\205\307V\226\217\353\015\275\237\343>T"
 261      FA3885C7 
 261      56968FEB 
 261      0DBD9FE3 
 261      3E54
 262 01ae 94EAF6BD 		.ascii	"\224\352\366\2757\324\024EI\027\371\025|\037\240\364"
 262      37D41445 
 262      4917F915 
 262      7C1FA0F4 
 263 01be 139EFB39 		.ascii	"\023\236\3739\267\006\006V+\312\212\001\\\342\325%\256"
 263      B7060656 
 263      2BCA8A01 
 263      5CE2D525 
 263      AE
 264 01cf C08DE639 		.ascii	"\300\215\3469\221_\005p\"\277\222\3779%\244\264\337"
 264      915F0570 
 264      22BF92FF 
 264      3925A4B4 
 264      DF
 265 01e0 6EFCE16D 		.ascii	"n\374\341m~\252\242\360\364\031\247=\265\270\236\341"
 265      7EAAA2F0 
 265      F419A73D 
 265      B5B89EE1 
 266 01f0 EA400EF5 		.ascii	"\352@\016\365\356\302%O)u\237\363]\211U\027#\377\243"
 266      EEC2254F 
 266      29759FF3 
 266      5D895517 
 266      23FFA3
 267 0203 B8582BAF 		.ascii	"\270X+\2577yQ\254\217Q\254\377\346\015\344\272D\021"
 267      377951AC 
 267      8F51ACFF 
 267      E60DE4BA 
 267      4411
 268 0215 B8777932 		.ascii	"\270wy2d}\242\024\337\352R\254w$\305vM\012\221_\013"
 268      647DA214 
 268      DFEA52AC 
 268      7724C576 
 268      4D0A915F 
 269 022a 9208DC92 		.ascii	"\222\010\334\222\030\256F8[\247\353\3458\275I/\255\203"
 269      18AE4638 
 269      5BA7EBE5 
 269      38BD492F 
 269      AD83
 270 023c 11EFD363 		.ascii	"\021\357\323cY\325\242\016\266\3225X\266\001l\327\261"
 270      59D5A20E 
 270      B6D23558 
 270      B6016CD7 
 270      B1
 271 024d C5C89C8F 		.ascii	"\305\310\234\217\233\021W1g\011\246\351\265c\321\023"
 271      9B115731 
 271      6709A6E9 
 271      B563D113 
ARM GAS  /var/folders/c6/c789hm653lg9vtl73krp73tm0000gn/T//ccVgLuPk.s 			page 21


 272 025d 8A57E41B 		.ascii	"\212W\344\033`\210\300\255\343\215ju\016sz\326\336="
 272      6088C0AD 
 272      E38D6A75 
 272      0E737AD6 
 272      DE3D
 273 026f 7C05AA71 		.ascii	"|\005\252q;BU\012\335\205\3321w\347Kh\351\235\010t\331"
 273      3B42550A 
 273      DD85DA31 
 273      77E74B68 
 273      E99D0874 
 274 0284 0424F269 		.ascii	"\004$\362i1\025\306~\353\035\010\032>\326\032$\352\367"
 274      3115C67E 
 274      EB1D081A 
 274      3ED61A24 
 274      EAF7
 275 0296 E2FECADD 		.ascii	"\342\376\312\335\005\356{\301\201\331\322m}\240\375"
 275      05EE7BC1 
 275      81D9D26D 
 275      7DA0FD
 276 02a5 56E37729 		.ascii	"V\343w)\357+j\245\30705\236\344\026\020\247\206\037"
 276      EF2B6AA5 
 276      C730359E 
 276      E41610A7 
 276      861F
 277 02b7 0A2F8BFC 		.ascii	"\012/\213\374\313OX\242\023\036?\347\237\304\226\007"
 277      CB4F58A2 
 277      131E3FE7 
 277      9FC49607 
 278 02c7 430BDC18 		.ascii	"C\013\334\030\221\011\325\257<11\222\250\373\355\357"
 278      9109D5AF 
 278      3C313192 
 278      A8FBEDEF 
 279 02d7 5401D5BD 		.ascii	"T\001\325\275\007=\360\201I\335\006\216(%;.\032\371"
 279      073DF081 
 279      49DD068E 
 279      28253B2E 
 279      1AF9
 280 02e9 4C9BD993 		.ascii	"L\233\331\223\360L\340\246{\334\252\314\340\3510oo\256"
 280      F04CE0A6 
 280      7BDCAACC 
 280      E0E9306F 
 280      6FAE
 281 02fb E4E74D53 		.ascii	"\344\347MS\232rQZ\201\233\355\004\260\267\205\015\254"
 281      9A72515A 
 281      819BED04 
 281      B0B7850D 
 281      AC
 282 030c 2E365088 		.ascii	".6P\210\374\006\3769\2507\362\317@\275\011\353-X\253"
 282      FC06FE39 
 282      A837F2CF 
 282      40BD09EB 
 282      2D58AB
 283 031f 5837419D 		.ascii	"X7A\235T\321\004\216L\357\030v=/h\001\265{!\343~<d\210"
 283      54D1048E 
 283      4CEF1876 
 283      3D2F6801 
 283      B57B21E3 
ARM GAS  /var/folders/c6/c789hm653lg9vtl73krp73tm0000gn/T//ccVgLuPk.s 			page 22


 284 0337 FC66D760 		.ascii	"\374f\327`\006E\252sN.\326\342\031\211\001\"\277\333"
 284      0645AA73 
 284      4E2ED6E2 
 284      19890122 
 284      BFDB
 285 0349 099EBD2F 		.ascii	"\011\236\275/\253\033N\"s4\240\324xx\227`\331\311\214"
 285      AB1B4E22 
 285      7334A0D4 
 285      78789760 
 285      D9C98C
 286 035c B28A31CA 		.ascii	"\262\2121\312j4\312\0324\301~\254\017`}\320\2119\226"
 286      6A34CA1A 
 286      34C17EAC 
 286      0F607DD0 
 286      893996
 287 036f C7CD816C 		.ascii	"\307\315\201l+\352\346\377 \\\323\234\271\002\270\326"
 287      2BEAE6FF 
 287      205CD39C 
 287      B902B8D6 
 288 037f 33CA0CB2 		.ascii	"3\312\014\262H\323\363\342\023:N3\231g\002\267\006\305"
 288      48D3F3E2 
 288      133A4E33 
 288      996702B7 
 288      06C5
 289 0391 6B36E514 		.ascii	"k6\345\024u\301\322,\022S\233\035\344\023E]\322\266"
 289      75C1D22C 
 289      12539B1D 
 289      E413455D 
 289      D2B6
 290 03a3 9827FAB7 		.ascii	"\230'\372\267Ha\355\261\024\326\237\213\007\354\277"
 290      4861EDB1 
 290      14D69F8B 
 290      07ECBF
 291 03b2 5CF5E07C 		.ascii	"\\\365\340|=\212\274n\362t\231\011\2150\002\247\342"
 291      3D8ABC6E 
 291      F2749909 
 291      8D3002A7 
 291      E2
 292 03c3 90630999 		.ascii	"\220c\011\231\260\352h\225\226\011\2179\342\274\365"
 292      B0EA6895 
 292      96098F39 
 292      E2BCF5
 293 03d2 A42DE723 		.ascii	"\244-\347#Y\333\352\201\346\262\226\301O!\343\207\255"
 293      59DBEA81 
 293      E6B296C1 
 293      4F21E387 
 293      AD
 294 03e3 19AF1B69 		.ascii	"\031\257\033i\007#pm8\244-1\205\337\256\320\030os\224"
 294      0723706D 
 294      38A42D31 
 294      85DFAED0 
 294      186F7394 
 295 03f7 C2AFCD72 		.ascii	"\302\257\315r\270\020\361\352\364G\307\3058?@\020\371"
 295      B810F1EA 
 295      F447C7C5 
 295      383F4010 
 295      F9
ARM GAS  /var/folders/c6/c789hm653lg9vtl73krp73tm0000gn/T//ccVgLuPk.s 			page 23


 296 0408 7328C277 		.ascii	"s(\302w]\353\336\010!pwp\310\205D\335\357\235\246\211"
 296      5DEBDE08 
 296      21707770 
 296      C88544DD 
 296      EF9DA689 
 297 041c 70C19108 		.ascii	"p\301\221\010\013\177\253\257B\316b\330\256\360\352"
 297      0B7FABAF 
 297      42CE62D8 
 297      AEF0EA
 298 042b B8DD0B29 		.ascii	"\270\335\013)\213\016\343\254\245`3]\203e\033\300\226"
 298      8B0EE3AC 
 298      A560335D 
 298      83651BC0 
 298      96
 299 043c 1D76BB0A 		.ascii	"\035v\273\012\371\237\263\355O\355R\224\336\"\177\005"
 299      F99FB3ED 
 299      4FED5294 
 299      DE227F05 
 300 044c E3C65EAF 		.ascii	"\343\306^\2579\351\223U\005s9\313\313\207\234\010b\033"
 300      39E99355 
 300      057339CB 
 300      CB879C08 
 300      621B
 301 045e CB88590E 		.ascii	"\313\210Y\016\316\243IF\367\316T;A\004\356(\022\273"
 301      CEA34946 
 301      F7CE543B 
 301      4104EE28 
 301      12BB
 302 0470 6136EDDD 		.ascii	"a6\355\335\013M?\253E\321n8\262\354\226\375\013\235"
 302      0B4D3FAB 
 302      45D16E38 
 302      B2EC96FD 
 302      0B9D
 303 0482 39A7A093 		.ascii	"9\247\240\223\177\026\311W\244\020\362w\314\344w]n\177"
 303      7F16C957 
 303      A410F277 
 303      CCE4775D 
 303      6E7F
 304 0494 9992BFE3 		.ascii	"\231\222\277\343\210\374\262\226\371\211\344m\027\037"
 304      88FCB296 
 304      F989E46D 
 304      171F
 305 04a2 9AF9EE5E 		.ascii	"\232\371\356^\270\330\177\031\022\271\217\016\264-\305"
 305      B8D87F19 
 305      12B98F0E 
 305      B42DC5
 306 04b1 6CBE1199 		.ascii	"l\276\021\231,-m\201\302,\007\366\304\270\357\226\377"
 306      2C2D6D81 
 306      C22C07F6 
 306      C4B8EF96 
 306      FF
 307 04c2 8298EAEB 		.ascii	"\202\230\352\353k\352\025ef\252\316\303\037\\#\032\235"
 307      6BEA1565 
 307      66AACEC3 
 307      1F5C231A 
 307      9D
 308 04d3 B8BE0567 		.ascii	"\270\276\005g\004\005\373\243\023\260$Iq3\013\266\337"
ARM GAS  /var/folders/c6/c789hm653lg9vtl73krp73tm0000gn/T//ccVgLuPk.s 			page 24


 308      0405FBA3 
 308      13B02449 
 308      71330BB6 
 308      DF
 309 04e4 359891B3 		.ascii	"5\230\221\263\006\026\354\220\0230\253e\217\006\266"
 309      0616EC90 
 309      1330AB65 
 309      8F06B6
 310 04f3 8D056B76 		.ascii	"\215\005kv\015f\344\354S\026\254\325\011X_{\316v\262"
 310      0D66E4EC 
 310      5316ACD5 
 310      09585F7B 
 310      CE76B2
 311 0506 60C75C83 		.ascii	"`\307\\\203\0319\373\214\005;\345\004,\333\202\263\330"
 311      1939FB8C 
 311      053BE504 
 311      2CDB82B3 
 311      D8
 312 0517 65B7AEB8 		.ascii	"e\267\256\270\035_W@\272J\321\003\202K\237\346\342\030"
 312      1D5F5740 
 312      BA4AD103 
 312      824B9FE6 
 312      E218
 313 0529 6753DC46 		.ascii	"gS\334F0\203\334\020\301\016}\240/\223ip\277\350\004"
 313      3083DC10 
 313      C10E7DA0 
 313      2F936970 
 313      BFE804
 314 053c 3189C334 		.ascii	"1\211\3034\260\231\342\252k0\243Y\216\0220C\250\321"
 314      B099E2AA 
 314      6B30A359 
 314      8E123043 
 314      A8D1
 315 054e 7246FB4A 		.ascii	"rF\373J\265om<\330\245\353X\344\204\204F\266jE\021b"
 315      B56F6D3C 
 315      D8A5EB58 
 315      E4848446 
 315      B66A4511 
 316 0563 9D95BE7D 		.ascii	"\235\225\276}\255\373\212\374\373\002Y'.\022|1.h[ou"
 316      ADFB8AFC 
 316      FB025927 
 316      2E127C31 
 316      2E685B6F 
 317 0578 F2989753 		.ascii	"\362\230\227SLg/\372\325\325P;OX(0\236\360\203\0235"
 317      4C672FFA 
 317      D5D5503B 
 317      4F582830 
 317      9EF08313 
 318 058d 25990AFF 		.ascii	"%\231\012\377{x\361\337(\355*\317\310\233T9$\2416i\011"
 318      7B78F1DF 
 318      28ED2ACF 
 318      C89B5439 
 318      24A13669 
 319 05a2 75A980DB 		.ascii	"u\251\200\333\361T\313\355\270\003\244\323\263\326\375"
 319      F154CBED 
 319      B803A4D3 
 319      B3D6FD
ARM GAS  /var/folders/c6/c789hm653lg9vtl73krp73tm0000gn/T//ccVgLuPk.s 			page 25


 320 05b1 02976DCB 		.ascii	"\002\227m\313\021\350\275n\003\355\230\273t8\002}\210"
 320      11E8BD6E 
 320      03ED98BB 
 320      7438027D 
 320      88
 321 05c2 400B52CD 		.ascii	"@\013R\3159\302\234\341yc\206\347}\361F\247\321Z\217"
 321      39C29CE1 
 321      796386E7 
 321      7DF146A7 
 321      D15A8F
 322 05d5 B4AFC02D 		.ascii	"\264\257\300-K5\231\313 N\227\301\006\026\244\347\347"
 322      4B3599CB 
 322      204E97C1 
 322      0616A4E7 
 322      E7
 323 05e6 F1372A94 		.ascii	"\3617*\224\332\\7\006S5\203\255A\365|\224\240\236\345"
 323      DA5C3706 
 323      533583AD 
 323      41F57C94 
 323      A09EE5
 324 05f9 823BFD08 		.ascii	"\202;\375\010\334'\256\345\370\251Q\216\252?wC\216f"
 324      DC27AEE5 
 324      F8A9518E 
 324      AA3F7743 
 324      8E66
 325 060b 4D8EF528 		.ascii	"M\216\365(\307\326G \307n\327r\3442r\220\015\302\315"
 325      C7D64720 
 325      C76ED772 
 325      E4327290 
 325      0DC2CD
 326 061e F934083E 		.ascii	"\3714\010>\316\315M\276\214#\374l\022\0367\356\347\276"
 326      CECD4DBE 
 326      8C23FC6C 
 326      121E37EE 
 326      E7BE
 327 0630 3FC267D3 		.ascii	"?\302g\323\333]o\212\346\2650k_\305\331\332\367\242"
 327      DB5D6F8A 
 327      E6B5306B 
 327      5FC5D9DA 
 327      F7A2
 328 0642 A6B106D4 		.ascii	"\246\261\006\324X\243\325\014s\204t\372\300\0376\352"
 328      58A3D50C 
 328      738474FA 
 328      C01F36EA 
 329 0652 87700875 		.ascii	"\207p\010u\260\333P;Z\266\322\311\272\023\201\216&X"
 329      B0DB503B 
 329      5AB6D2C9 
 329      BA13818E 
 329      2658
 330 0664 31D564C4 		.ascii	"1\325d\304T\243\021\341'\241t\207,\305\371\267\264;"
 330      54A311E1 
 330      27A17487 
 330      2CC5F9B7 
 330      B43B
 331 0676 E4471AF7 		.ascii	"\344G\032\367\377>\01621\262O\014\330\235\325%\356\003"
 331      FF3E0E32 
 331      31B24F0C 
ARM GAS  /var/folders/c6/c789hm653lg9vtl73krp73tm0000gn/T//ccVgLuPk.s 			page 26


 331      D89DD525 
 331      EE03
 332 0688 E6EB5994 		.ascii	"\346\353Y\224\032\251\343\241\020+\324\335s\365\375"
 332      1AA9E3A1 
 332      102BD4DD 
 332      73F5FD
 333 0697 1B1E5E5D 		.ascii	"\033\036^]yH\270\257[\314y\324\264~?g\223{\364\275\371"
 333      7948B8AF 
 333      5BCC79D4 
 333      B47E3F67 
 333      937BF4BD 
 334 06ac B9767A08 		.ascii	"\271vz\010\330(\020v\276O0\367Y\336\264\200?k<\320\263"
 334      D8281076 
 334      BE4F30F7 
 334      59DEB480 
 334      3F6B3CD0 
 335 06c1 9B4B7BD9 		.ascii	"\233K{\33148#\355\241\244\0043\234\376\220\232\241\253"
 335      343823ED 
 335      A1A40433 
 335      9CFE909A 
 335      A1AB
 336 06d3 CDD1AF75 		.ascii	"\315\321\257u\264,$\374[$|P0\357\272\357\265Wi\363\205"
 336      B42C24FC 
 336      5B247C50 
 336      30EFBAEF 
 336      B55769F3 
 337 06e8 3CEB7A72 		.ascii	"<\353zr\237\352\360)s\263\364\023\214\0351T\215\252"
 337      9FEAF029 
 337      73B3F413 
 337      8C1D3154 
 337      8DAA
 338 06fa E1B8A24B 		.ascii	"\341\270\242K\257R\333\244\246\\7a\242\251\037\015\023"
 338      AF52DBA4 
 338      A65C3761 
 338      A2A91F0D 
 338      13
 339 070b 2DE8815F 		.ascii	"-\350\201_\244%l\221\315\201\325\325\034\331g\226\306"
 339      A4256C91 
 339      CD81D5D5 
 339      1CD96796 
 339      C6
 340 071c E9162776 		.ascii	"\351\026'v\331\371\300\001\326\007\216<\254\0174\376"
 340      D9F9C001 
 340      D6078E3C 
 340      AC0F34FE 
 341 072c D9A10F98 		.ascii	"\331\241\017\230\337b}\205\224O\230\235\240\363A\323"
 341      DF627D85 
 341      944F989D 
 341      A0F341D3 
 342 073c 74EDE8E5 		.ascii	"t\355\350\345\204#'\370\336\340\004\2351\324\3568A\205"
 342      842327F8 
 342      DEE0049D 
 342      31D4EE38 
 342      4185
 343 074e 7AF7D23E 		.ascii	"z\367\322>\036\341\350\202zz\272\011\316\345F\363\276"
 343      1EE1E882 
 343      7A7ABA09 
ARM GAS  /var/folders/c6/c789hm653lg9vtl73krp73tm0000gn/T//ccVgLuPk.s 			page 27


 343      CEE546F3 
 343      BE
 344 075f E45631D4 		.ascii	"\344V1\324\275\324\023\035$\307\235\025\210L\263\323"
 344      BDD4131D 
 344      24C79D15 
 344      884CB3D3 
 345 076f CDAE4535 		.ascii	"\315\256E5\303\270V\\\215\240\010\\a\177-\220\323\327"
 345      C3B8565C 
 345      8DA0085C 
 345      617F2D90 
 345      D3D7
 346 0781 36ACDB05 		.ascii	"6\254\333\005\007g\260gX\267X\350Z\356l\207\336w\234"
 346      0767B067 
 346      58B758E8 
 346      5AEE6C87 
 346      DE779C
 347 0794 25B334FD 		.ascii	"%\2634\375\341\274\357V\343w^|Q\343\346h\353\216\226"
 347      E1BCEF56 
 347      E3775E7C 
 347      51E3E668 
 347      EB8E96
 348 07a7 DE2FE2BC 		.ascii	"\336/\342\274]\231\240\334n\035mm\354\256$\261K\340"
 348      5D99A0DC 
 348      6E1D6D6D 
 348      ECAE24B1 
 348      4BE0
 349 07b9 B6A53BD8 		.ascii	"\266\245;\330\226d\333i\203\244\305\333\363\035\036"
 349      9664DB69 
 349      83A4C5DB 
 349      F31D1E
 350 07c8 8FE96F71 		.ascii	"\217\351oq/\250\364\014"
 350      2FA8F40C 
 351 07d0 F80A3ADA 		.ascii	"\370\012:\332N\223.\034\234\262\035\300!\327\022By\325"
 351      4E932E1C 
 351      9CB21DC0 
 351      21D71242 
 351      79D5
 352 07e2 4DFD0CF8 		.ascii	"M\375\014\370\232\203Y\\\241\266\316b\017PE\3762\276"
 352      9A83595C 
 352      A1B6CE62 
 352      0F5045FE 
 352      32BE
 353 07f4 F6B896DC 		.ascii	"\366\270\226\334\001\223\352\323`\302k\314\374\270\201"
 353      0193EAD3 
 353      60C26BCC 
 353      FCB881
 354 0803 F3E3263B 		.ascii	"\363\343&;'\004\356\224k\335g\263\272W\357\266\322\303"
 354      2704EE94 
 354      6BDD67B3 
 354      BA57EFB6 
 354      D2C3
 355 0815 773D0E75 		.ascii	"w=\016u\230\361\254\342\320Omm\251V\177E_\333\240\217"
 355      98F1ACE2 
 355      D04F6D6D 
 355      A9567F45 
 355      5FDBA08F 
 356 0829 5E75C25C 		.ascii	"^u\302\\\256\035X\205\272\230\202Q\207\277\345\032,"
ARM GAS  /var/folders/c6/c789hm653lg9vtl73krp73tm0000gn/T//ccVgLuPk.s 			page 28


 356      AE1D5885 
 356      BA988251 
 356      87BFE51A 
 356      2C
 357 083a DB00B6A3 		.ascii	"\333\000\266\243F\267\324q\\\234L\3659\300\033n\317"
 357      46B7D471 
 357      5C9C4CF5 
 357      39C01B6E 
 357      CF
 358 084b 5CEB57FA 		.ascii	"\\\353W\372\013/z\326<\3135\236\221\277k5\206\245\\"
 358      0B2F7AD6 
 358      3CCB359E 
 358      91BF6B35 
 358      86A55C
 359 085e 8D13B891 		.ascii	"\215\023\270\221\216\035)\376\252\000\364\211\257\274"
 359      8E1D29FE 
 359      AA00F489 
 359      AFBC
 360 086c 2EE16BAE 		.ascii	".\341k\256\277`\375-\326\327\261\236\213\241w>\3265"
 360      BF60FD2D 
 360      D6D7B19E 
 360      8BA1773E 
 360      D635
 361 087e 582FC17A 		.ascii	"X/\301z5\326\353\260\256\307\372[\254oa}\007\353{X\337"
 361      35D6EBB0 
 361      AEC7FA5B 
 361      AC6F617D 
 361      07EB7B58 
 362 0893 C7FA01D6 		.ascii	"\307\372\001\326\212\307A\0107-\002\365Y\324\326\355"
 362      8AC74108 
 362      372D02F5 
 362      59D4D6ED 
 363 08a3 D710D70F 		.ascii	"\327\020\327\017\304\016\227D\376\033\327`\331\3114"
 363      C40E9744 
 363      FE1BD760 
 363      D9C934
 364 08b2 D9C668B2 		.ascii	"\331\306h\262\0355y\006\365V\3411L\314\245>\375\355"
 364      1D357906 
 364      F556E131 
 364      4CCCA53E 
 364      FDED
 365 08c4 58F712FA 		.ascii	"X\367\022\372\227'\215\356\265\312\214\347*\243+\352"
 365      97278DEE 
 365      B5CA8CE7 
 365      2AA32BEA 
 366 08d4 71FA3EF5 		.ascii	"q\372>\365\006\316\362u\256\301\214\276zz\221\361\265"
 366      06CEF275 
 366      AEC18CBE 
 366      7A7A91F1 
 366      B5
 367 08e5 D1262778 		.ascii	"\321&'xI\016\003\257\236d\016\003w\270\00632w\213\005"
 367      490E03AF 
 367      9E640E03 
 367      77B80633 
 367      32778B05 
 368 08f9 FBC20998 		.ascii	"\373\302\011\230\325\221\231\265\361\2171\306?\201\306"
 368      D59199B5 
ARM GAS  /var/folders/c6/c789hm653lg9vtl73krp73tm0000gn/T//ccVgLuPk.s 			page 29


 368      F18F31C6 
 368      3F81C6
 369 0908 3F89C6AF 		.ascii	"?\211\306\257\364\220\272\012\353\031X\277\203\365\273"
 369      F490BA0A 
 369      EB1958BF 
 369      83F5BB
 370 0917 46A738E4 		.ascii	"F\2478\344\323_\364j\304\214\357T\223x\205\310\037\006"
 370      D35FF46A 
 370      C48CEF54 
 370      937885C8 
 370      1F06
 371 0929 429A2D77 		.ascii	"B\232-w\265Q\337p\232.;n\2514]V{\210\365[}\256\323\345"
 371      B551DF70 
 371      9A2E3B6E 
 371      A9345D56 
 371      7B88F55B 
 372 0941 591C32CF 		.ascii	"Y\0342\317\223\220.;\364w\275\344Y\027\351\262r\232"
 372      93902E3B 
 372      F477BDE4 
 372      5917E9B2 
 372      729A
 373 0953 BAE577AB 		.ascii	"\272\345w\253\342\257\205\246\305\266\225\265\020\341"
 373      E2AF85A6 
 373      C5B695B5 
 373      10E1
 374 0961 ED8283E1 		.ascii	"\355\202\203\341\004\364z\214\217G\222^\343\002\211"
 374      04F47A8C 
 374      8F47925E 
 374      E30289
 375 0970 FC020F31 		.ascii	"\374\002\0171g\215\321`\367\315\006\263\242gH\207\331"
 375      678DD160 
 375      F7CD06B3 
 375      A2674887 
 375      D9
 376 0981 7179C152 		.ascii	"qy\301R_\266\351\351\225\276\352U2Lx\306\027\273]\245"
 376      5FB6E9E9 
 376      95BEEA55 
 376      324C78C6 
 376      17BB5DA5 
 377 0995 44D8ECB5 		.ascii	"D\330\354\265\201s;\265\373\326\372K\303\320\356K\320"
 377      81733BB5 
 377      FBD6FA4B 
 377      C3D0EE4B 
 377      D0
 378 09a6 EE6B335C 		.ascii	"\356k3\\\332\235\250\250\316ds\365\232\224M\357:\370"
 378      DA9DA8A8 
 378      CE6473F5 
 378      9A944DEF 
 378      3AF8
 379 09b8 52AF0337 		.ascii	"R\257\0037%n\026\271\027\373\322E\356\007\036\022\364"
 379      256E16B9 
 379      17FBD245 
 379      EE071E12 
 379      F4
 380 09c9 769838EE 		.ascii	"v\2308\356\346\"\367\013\204\251{T^S\307x\315r\364\232"
 380      E622F70B 
 380      84A97B54 
ARM GAS  /var/folders/c6/c789hm653lg9vtl73krp73tm0000gn/T//ccVgLuPk.s 			page 30


 380      5E53C778 
 380      CD72F49A 
 381 09dd 1546AFD9 		.ascii	"\025F\257\331o\266\262\025\275\260\255\327\300\346\264"
 381      6FB6B215 
 381      BDB0ADD7 
 381      C0E6B4
 382 09ec 63D85445 		.ascii	"c\330TE\255\315}\214\253\306]\327\214s\372\231\275Z"
 382      ADCD7D8C 
 382      ABC65DD7 
 382      8C73FA99 
 382      BD5A
 383 09fe A5CCE0A7 		.ascii	"\245\314\340\247n\354\037\033iH+\361\367\250O\257E5"
 383      6EEC1F1B 
 383      69482BF1 
 383      F7A84FAF 
 383      4535
 384 0a10 AE45351E 		.ascii	"\256E5\0362\251\321\015\326\351YG\364/\362\326!\330"
 384      32A9D10D 
 384      D6E95947 
 384      F42FF2D6 
 384      21D8
 385 0a22 F1EE83D5 		.ascii	"\361\356\203\325\355h\351O\276h\331\200@g\022\214\353"
 385      ED68E94F 
 385      BE68D980 
 385      4067128C 
 385      EB
 386 0a33 33D9D667 		.ascii	"3\331\326g\264\255\317\027ot\352\227\371T\376\2578F"
 386      B4ADCF17 
 386      6F74EA97 
 386      F954FEAF 
 386      3846
 387 0a45 134CEDA1 		.ascii	"\023L\355\241Kv\234\327\000\326x\036\213\353B\211\205"
 387      4B769CD7 
 387      00D6781E 
 387      8BEB4289 
 387      85
 388 0a56 B52CFBA8 		.ascii	"\265,\373\250\266\311\023\177\033\224\345\2137\372\305"
 388      B6C9137F 
 388      1B94E58B 
 388      37FAC5
 389 0a65 9CE81BB3 		.ascii	"\234\350\033\263\023\231\350j\355\311\311\334V\273m"
 389      1399E86A 
 389      EDC9C9DC 
 389      56BB6D
 390 0a74 DCA95B25 		.ascii	"\334\251[%=\315\377\006pK\025\365j\373\355\255\373\006"
 390      3DCDFF06 
 390      704B15F5 
 390      6AFBEDAD 
 390      FB06
 391 0a86 D64CAB68 		.ascii	"\326L\253hR\256\222\011\344\374\373\301\006\217\351"
 391      52AE9209 
 391      E4FCFBC1 
 391      068FE9
 392 0a95 FB41FA69 		.ascii	"\373A\372i\031\363\001!\254k3\215V\177\226\373@Q\346"
 392      19F30121 
 392      AC6B338D 
 392      567F96FB 
ARM GAS  /var/folders/c6/c789hm653lg9vtl73krp73tm0000gn/T//ccVgLuPk.s 			page 31


 392      4051E6
 393 0aa8 2AEF4BAF 		.ascii	"*\357K\257\351\037\257\256\305\036[<\003,\351\304\276"
 393      E91FAFAE 
 393      C51E5B3C 
 393      032CE9C4 
 393      BE
 394 0ab9 81FB7B6E 		.ascii	"\201\373{n%y{\367\236\362vo\036\271\342\264Q\006\323"
 394      25797BF7 
 394      9EF2766F 
 394      1EB9E2B4 
 394      5106D3
 395 0acc 6EF308EC 		.ascii	"n\363\010\354\015\"`]\273zO\242\2629\027m\227&Z\\\032"
 395      0D22605D 
 395      BB7A4FA2 
 395      B239176D 
 395      97265A5C 
 396 0ae1 815B6F12 		.ascii	"\201[o\022E\343\011\256\325\212'\306\322N3K\237%\262"
 396      45E309AE 
 396      D58A27C6 
 396      D24E334B 
 396      9F25B2
 397 0af4 D47E557D 		.ascii	"\324~U}\320\230U=\265\275\263s\200s\236\366X\251;\366"
 397      D098553D 
 397      B5BDB373 
 397      80739EF6 
 397      58A93BF6 
 398 0b08 A38146CA 		.ascii	"\243\201F\312\330\357=Tm\354\267\235\006yP\244\255\326"
 398      D8EF3D54 
 398      6DECB79D 
 398      067950A4 
 398      ADD6
 399 0b1a D659A05B 		.ascii	"\326Y\240[G\344?\365\220\325\264\232\334:\332\260V2"
 399      47E43FF5 
 399      90D5B49A 
 399      DC3ADAB0 
 399      5632
 400 0b2c 8C7EC1F7 		.ascii	"\214~\301\3679\002\333\017Cn\3510u\316t\262\272\024"
 400      3902DB0F 
 400      436EE930 
 400      75CE74B2 
 400      BA14
 401 0b3e F44F499B 		.ascii	"\364OI\233\272\030\272\207\241\270\221P\304\375\323"
 401      BA18BA87 
 401      A1B89150 
 401      C4FDD3
 402 0b4d 912E468D 		.ascii	"\221.F\215\210;\221\242vVM\253\343\225\324\230\315T"
 402      883B91A2 
 402      76564DAB 
 402      E395D498 
 402      CD54
 403 0b5f B3CD1A2D 		.ascii	"\263\315\032-m\326r\200\332l\331H\347Fkv0GZ\273\230"
 403      6DD67280 
 403      DA6CD948 
 403      E7466B76 
 403      30475ABB 
 404 0b74 23BA158E 		.ascii	"#\272\025\2168\232#\212i\216\0341\013\327b!\\u\373\234"
 404      389A238A 
ARM GAS  /var/folders/c6/c789hm653lg9vtl73krp73tm0000gn/T//ccVgLuPk.s 			page 32


 404      698E1C31 
 404      0BD76221 
 404      5C75FB9C 
 405 0b88 DD7B7E5C 		.ascii	"\335{~\\[\257T\316T\036t\276\305\323\031 p\017\022|"
 405      5BAF54CE 
 405      541E74BE 
 405      C5D31920 
 405      700F127C 
 406 0b9c 9E627C65 		.ascii	"\236b|e\205\241^o|W\341\335\272\365q\263\206\350\007"
 406      85A15E6F 
 406      7C57E1DD 
 406      BAF571B3 
 406      86E807
 407 0baf A5060DBD 		.ascii	"\245\006\015\275\223e\315\306IK6\332\342lPx\201[`\003"
 407      9365CDC6 
 407      494B36DA 
 407      E26C5078 
 407      815B6003 
 408 0bc3 F0B511E0 		.ascii	"\360\265\021\340\357\270\345D\027\267\033\017\366\375"
 408      EFB8E544 
 408      17B71B0F 
 408      F6FD
 409 0bd1 7D8552B9 		.ascii	"}\205R\271\021$\350\344;G8\370\252S\177#r\257\231~f"
 409      1124E8E4 
 409      3B4738F8 
 409      AA537F23 
 409      72AF997E 
 410 0be6 D9864BB0 		.ascii	"\331\206K\260\025Y\346\234G\277\356d8hf\266\030-\270"
 410      1559E69C 
 410      47BFEE64 
 410      386866B6 
 410      182DB8
 411 0bf9 C568C52D 		.ascii	"\305h\305-\306a\254g\343\266b\021\326\213\261^m\\{\254"
 411      C661AC67 
 411      E3B66211 
 411      D68BB15E 
 411      6D5C7BAC 
 412 0c0d 8F51B0E6 		.ascii	"\217Q\260\346\013\217L\343B\232\336\357\264\331\254"
 412      0B8F4CE3 
 412      429ADEEF 
 412      B4D9AC
 413 0c1c 917097EE 		.ascii	"\221p\227\356\311\264\031E\\\303n\324\271\370(\314\216"
 413      C9B41945 
 413      5CC36ED4 
 413      B9F828CC 
 413      8E
 414 0c2d D392AE03 		.ascii	"\323\222\256\003\301\263Q\344\256WuV\007\322\251:\324"
 414      C1B351E4 
 414      AE577556 
 414      07D2A93A 
 414      D4
 415 0c3e AFE30668 		.ascii	"\257\343\006h=w\242t\032._:\320\002\347\263,\027\301"
 415      3D77A274 
 415      1A2E5F3A 
 415      D002E7B3 
 415      2C17C1
 416 0c51 F63884A9 		.ascii	"\3668\204\251\213\346E\360\017'\361\323\334\213\216"
ARM GAS  /var/folders/c6/c789hm653lg9vtl73krp73tm0000gn/T//ccVgLuPk.s 			page 33


 416      8BE645F0 
 416      0F27F1D3 
 416      DC8B8E
 417 0c60 363D9DB1 		.ascii	"6=\235\261\255\374y\\\370\\E\026.\272_\216jx\325\247"
 417      ADFC795C 
 417      F85C4516 
 417      2EBA5F8E 
 417      6A78D5A7 
 418 0c74 70834BC1 		.ascii	"p\203K\301n\272\006\3136\200\315e\301\3568\001\263;"
 418      6EBA06CB 
 418      3680CD65 
 418      C1EE3801 
 418      B33B
 419 0c86 6400B0F9 		.ascii	"d\000\260\371,\330\017\256\301\214\234\325\260`\025"
 419      2CD80FAE 
 419      C18C9CD5 
 419      B06015
 420 0c95 3D1C80D9 		.ascii	"=\034\200\331\2350\000X-\013\366\266k0#g\213X\260\231"
 420      9D300058 
 420      2D0BF6B6 
 420      6B302367 
 420      8B58B099 
 421 0ca9 4EC0EC3E 		.ascii	"N\300\354>\312\001\260\305,\330l\327`F\316\226\262`"
 421      CA01B0C5 
 421      2CD86CD7 
 421      6046CE96 
 421      B260
 422 0cbb 0B9C8065 		.ascii	"\013\234\200e\333s\266\201\005[\344\032\314\310Y=\013"
 422      DB73B681 
 422      055BE41A 
 422      CCC8593D 
 422      0B
 423 0ccc B6D40998 		.ascii	"\266\324\011\230\335)3\200mf\301V\270\0063r\326\300"
 423      DD293380 
 423      6D66C156 
 423      B8063372 
 423      D6C0
 424 0cde 82AD7202 		.ascii	"\202\255r\002f\267?\257\234\252n\373\267jQ\337\265\221"
 424      66B73FAF 
 424      9CAA6EFB 
 424      B76A51DF 
 424      B591
 425 0cf0 D048502D 		.ascii	"\320HP-W\341\344\2776\306\273\221m\255M7\221\257\362"
 425      57E1E4BF 
 425      36C6BB91 
 425      6DAD4D37 
 425      91AFF2
 426 0d03 BADD5D4C 		.ascii	"\272\335]L\367Z\357.\342)\224\355E\326\334f\261-\267"
 426      F75AEF2E 
 426      E22994ED 
 426      45D6DC66 
 426      B12DB7
 427 0d16 0C76A7EB 		.ascii	"\014v\247\353\240\304OY%\256w\242\304\221\366`;Y\260"
 427      A0C44F59 
 427      25AE77A2 
 427      C491F660 
 427      3B59B0
ARM GAS  /var/folders/c6/c789hm653lg9vtl73krp73tm0000gn/T//ccVgLuPk.s 			page 34


 428 0d29 4D4EC05E 		.ascii	"MN\300^\263\367\225\317X\260\255\256\301\214\2345\263"
 428      B3F795CF 
 428      58B0ADAE 
 428      C18C9C35 
 428      B3
 429 0d3a 603B9D80 		.ascii	"`;\235\200\275i\317Y\013\013\266\3335\030\313\331T\365"
 429      BD69CF59 
 429      0B0BB6DB 
 429      3518CBD9 
 429      54F5
 430 0d4c 68DCF1C8 		.ascii	"h\334\361\310\377}0x\236a+\036s<\332\215\361<S7\221"
 430      FF7D3078 
 430      9E612B1E 
 430      733CDA8D 
 430      F13C5337 
 431 0d61 5FE0DAF1 		.ascii	"_\340\332\361jl\034\217\335q\307{\221/\364\315b\033"
 431      6A6C1C8F 
 431      DD71C77B 
 431      912FF4CD 
 431      621B
 432 0d73 98D09AE3 		.ascii	"\230\320\232\343-thu\261\211Z\344/\341\321\314e\\$}"
 432      2D746875 
 432      B1895AE4 
 432      2FE1D1CC 
 432      655C247D 
 433 0d87 83F515AC 		.ascii	"\203\365\025\254\257b}\035\353\233X\337\302\372\016"
 433      AF627D1D 
 433      EB9B58DF 
 433      C2FA0E
 434 0d96 D6F7B0BE 		.ascii	"\326\367\260\276\217\365\003\254\025/\036\357c]\211"
 434      8FF503AC 
 434      152F1EEF 
 434      635D89
 435 0da5 F54CAC67 		.ascii	"\365L\254ga\375\036\326\263\261\236\203\365</\263 3"
 435      61FD1ED6 
 435      B3B19E83 
 435      F53C2FB3 
 435      2033
 436 0db7 AD943A92 		.ascii	"\255\224:\222\254\257j\275v\353\253\343I\326W\357\307"
 436      ACAF6ABD 
 436      76EBABE3 
 436      49D657EF 
 436      C7
 437 0dc8 4769BBF7 		.ascii	"Gi\273\367-W\366\365\373=\371\206\235,\334\247V\362"
 437      2D57F6F5 
 437      FB3DF986 
 437      9D2CDCA7 
 437      56F2
 438 0dda FAD2FD56 		.ascii	"\372\322\375V\017'\333\325E^\323\356\340w\336\204%5"
 438      0F27DBD5 
 438      455ED3EE 
 438      E077DE84 
 438      2535
 439 0dec 10D97EFD 		.ascii	"\020\331~\375\314?mg\210\230\226\367\015\274\275\217"
 439      CC3F6D67 
 439      889896F7 
 439      0DBCBD8F 
ARM GAS  /var/folders/c6/c789hm653lg9vtl73krp73tm0000gn/T//ccVgLuPk.s 			page 35


 440 0dfc 2CF5266E 		.ascii	",\365&n\245?\356i\311[\205R\277Z\361\351{Y\221_\342"
 440      A53FEE69 
 440      C95B8552 
 440      BF5AF1E9 
 440      7B59915F 
 441 0e11 B5DEF068 		.ascii	"\265\336\360hx\313,Y\335|e\337\323\344e\273\322\331"
 441      78CB2C59 
 441      DD7C65DF 
 441      D3E465BB 
 441      D2D9
 442 0e23 F9D63394 		.ascii	"\371\3263\224\274\300}\346\214\340\362\344\004WX\022"
 442      BCC07DE6 
 442      8CE0F2E4 
 442      04575812 
 443 0e33 3C7AEBEE 		.ascii	"<z\353\356\200\004\202\025\275\034\021\37409\301\225"
 443      80048215 
 443      BD1C11FC 
 443      3039C195 
 444 0e43 9604B75C 		.ascii	"\226\004\267\\\271\364c\243\305\265M\216\211\246\266"
 444      B9F463A3 
 444      C5B54D8E 
 444      89A6B6
 445 0e52 8F3C16DF 		.ascii	"\217<\026\337\226\257\305\036\037\331\020\215\035\""
 445      96AFC51E 
 445      1FD9108D 
 445      1D22
 446 0e60 688E7242 		.ascii	"h\216rBy\263o\314Q>2;\312jo\302\326\251\271\271\375"
 446      79B36FCC 
 446      513E323B 
 446      CA6A6FC2 
 446      D6A9B9B9 
 447 0e75 F6D63303 		.ascii	"\366\3263\003\347)\025\265J\245\332\331\311\017\320"
 447      E72915B5 
 447      4AA5DAD9 
 447      C90FD0
 448 0e84 935EADF1 		.ascii	"\223^\255\361\324\277H'\333\003\307\262\275\026\331"
 448      D4BF4827 
 448      DB03C7B2 
 448      BD16D9
 449 0e93 F612F9F5 		.ascii	"\366\022\371\365\256\003\324'6\001*\313 \312'\361\000"
 449      AE03D427 
 449      36012ACB 
 449      20CA27F1 
 449      00
 450 0ea4 F5096A88 		.ascii	"\365\011j\210\331i\233\230\020\270m\275\364c\300\014"
 450      D9699B98 
 450      10B86DBD 
 450      F463C00C 
 451 0eb4 9E31C9DD 		.ascii	"\2361\311\335\276V&i\2646\311)\335$\260u\367\222\255"
 451      BE562669 
 451      B436C929 
 451      DD24B075 
 451      F792AD
 452 0ec7 7D7D774C 		.ascii	"}}wLRo6\311&\033\223\\\352\337\265I\306\353d3\223\231"
 452      526F36C9 
 452      261B935C 
 452      EADFB549 
ARM GAS  /var/folders/c6/c789hm653lg9vtl73krp73tm0000gn/T//ccVgLuPk.s 			page 36


 452      C6EB6433 
 453 0edd C4D44BE4 		.ascii	"\304\324K\344\267\2716\311v\033\223d\030D\321{As\203"
 453      B7B936C9 
 453      761B9364 
 453      1844D17B 
 453      417383
 454 0ef0 D7740465 		.ascii	"\327t\004ebB\340\376d0\211)\2326$\211\246;\342\321\224"
 454      6242E0FE 
 454      64308929 
 454      9A362489 
 454      A63BE2D1 
 455 0f05 7B76E0C0 		.ascii	"{v\340\300\034\372/\024\315\211\3109\305\245\201\222"
 455      1CFA2F14 
 455      CD89C839 
 455      C5A58192 
 456 0f15 B2022927 		.ascii	"\262\002)'P\024\235\022\225\247\204\245\350\300\"\356"
 456      50149D12 
 456      95A784A5 
 456      E8C022EE 
 457 0f25 89F2E288 		.ascii	"\211\362\342\210\\&\226\370\345\342\240\024\211\372"
 457      5C2696F8 
 457      E5E2A014 
 457      89FA
 458 0f33 4B8AA3B2 		.ascii	"K\212\243\262_N}\365\227\277\312\316\343\236\014\024"
 458      5F4E7DF5 
 458      97BFCACE 
 458      E39E0C14 
 459 0f43 F92D9E67 		.ascii	"\371-\236g\333\003\007\212\012\000\264\227a\220_\356"
 459      DB03078A 
 459      0A00B497 
 459      61905FEE 
 460 0f53 6DC6492B 		.ascii	"m\306I+\227\375\245\322d\231\374\015G\244r\037\341\010"
 460      97FDA5D2 
 460      6499FC0D 
 460      47A4721F 
 460      E108
 461 0f65 1EF8E537 		.ascii	"\036\370\3457r\312\242\221\234\222P@,\311\311\223JJ"
 461      72CAA291 
 461      9C925040 
 461      2CC9C993 
 461      4A4A
 462 0f77 C4484E61 		.ascii	"\304HNa \360\274\030\011>_\032*\225\236\227\304\011"
 462      20F0BC18 
 462      093E5F1A 
 462      2A959E97 
 462      C409
 463 0f89 C5398373 		.ascii	"\3059\203s\007\015\311\035\236\373b\216\361\266\316"
 463      070DC91D 
 463      9EFB628E 
 463      F1B6CE
 464 0f98 47542E28 		.ascii	"GT.(.\225\201\217"
 464      2E95818F 
 465 0fa0 F432F8FB 		.ascii	"\3642\370\373\302`\277\374\357\217\0005(\006\212\212"
 465      C260BFFC 
 465      EF8F0035 
 465      28068A8A 
 466 0fb0 4BA51C7F 		.ascii	"K\245\034\177\2014Q,+\001-i*\314\360\373u:\351 O\201"
ARM GAS  /var/folders/c6/c789hm653lg9vtl73krp73tm0000gn/T//ccVgLuPk.s 			page 37


 466      8134512C 
 466      2B012D69 
 466      2ACCF0FB 
 466      753AE920 
 467 0fc6 54228BD0 		.ascii	"T\"\213\320\230XV\032\360\243\204\244\225J$\025#\231"
 467      9858561A 
 467      F0A384A4 
 467      954A2415 
 467      2399
 468 0fd8 F0A7448C 		.ascii	"\360\247D\214\312DX\270E\264\351\003\345\020\361\245"
 468      CA4458B8 
 468      45B4E903 
 468      E510F1A5 
 469 0fe8 60564412 		.ascii	"`VD\022\013\246h&\350\001\267\343\277{\311E\344G\324"
 469      0BA66826 
 469      E801B7E3 
 469      BF7BC945 
 469      E447D4
 470 0ffb FF5F6552 		.ascii	"\377_eR\231"
 470      99
 471 1000 44356AB8 		.ascii	"D5j\270\225N\177\371\021\216\266S\303\250c\370CT<\304"
 471      954E7FF9 
 471      118EB653 
 471      C3A863F8 
 471      43543CC4 
 472 1014 64B47028 		.ascii	"d\264p(\"GsF\345\217\311\03339'\020\012\206\213K\300"
 472      22477346 
 472      E58FC91B 
 472      33392710 
 472      0A868B4B 
 473 1029 BE39AFE6 		.ascii	"\2769\257\346\345\201\035u\321\322\344p\2448\344\247"
 473      E5811D75 
 473      D1D2E470 
 473      A438E4A7 
 474 1039 18C5A1B4 		.ascii	"\030\305\241\264@\250T\006\310\347\222b\025\005B\021"
 474      40A85406 
 474      C8E79262 
 474      15054211 
 475 1049 09066792 		.ascii	"\011\006g\222\333~\320L@\236\374\263\256G\370\313\207"
 475      DB7ED04C 
 475      409EFCB3 
 475      AE47F8CB 
 475      87
 476 105a 0589CD22 		.ascii	"\005\211\315\"R!\030\300/\013\221!B\344E!2T\210\014"
 476      522118C0 
 476      2F0B9121 
 476      42E44521 
 476      3254880C 
 477 106e 1322C385 		.ascii	"\023\"\303\205\310K\236\310\240\\(\203\204\222\010\374"
 477      C84B9EC8 
 477      A05C2883 
 477      849208FC 
 478 107e 792125EC 		.ascii	"y!%\354\007\3444\"\345$p\251\260?TR E\274\201\"1BD\027"
 478      07E43422 
 478      E52470A9 
 478      B03F5452 
 478      2045BC81 
ARM GAS  /var/folders/c6/c789hm653lg9vtl73krp73tm0000gn/T//ccVgLuPk.s 			page 38


 479 1097 83A094A8 		.ascii	"\203\240\224\250,\312\240\2564b\240\341\240\034j*hA"
 479      2CCAA0AE 
 479      3462A0E1 
 479      A01C6A2A 
 479      6841
 480 10a9 777C9626 		.ascii	"w|\226&\007C\005\022\376\236X\"\026F\323\344\21041\212"
 480      07430512 
 480      FE9E5822 
 480      1646D3E4 
 480      8834318A 
 481 10bd 1293464A 		.ascii	"\022\223FJ0Z\010\0175\363\302p\255\225\032)\230\002"
 481      305A080F 
 481      35F3C270 
 481      AD951A29 
 481      9802
 482 10cf 8FD2A5C9 		.ascii	"\217\322\245\311\305r\000\000R'\311\241\011\377\031"
 482      C5720000 
 482      5227C9A1 
 482      09FF19
 483 10de EEA35901 		.ascii	"\356\243Y\001\206J\021\2514\000\300)\223d9\022\316\""
 483      864A11A9 
 483      3400C029 
 483      93643912 
 483      CE22
 484 10f0 46968262 		.ascii	"F\226\202b\270\010$\035`?\177$\242\2024\315\246)\201"
 484      B808241D 
 484      603F7F24 
 484      A28234CD 
 484      A62981
 485 1103 52708494 		.ascii	"Rp\204\224\250\037\376\002\001x\030N\007\234`\031\330"
 485      A81FFE02 
 485      0178184E 
 485      079C6019 
 485      D8
 486 1114 C01E2328 		.ascii	"\300\036#(O&\030A\212\001\177C\223JA=8\012\030\017R"
 486      4F261841 
 486      8A017F43 
 486      934A413D 
 486      380A180F 
 487 1129 A7982443 		.ascii	"\247\230$C\277p\246T.\225\312A1\372\033x\"M\"\015O\330"
 487      BF70A654 
 487      2E95CA41 
 487      31FA1B78 
 487      224D220D 
 488 113f 5FD65377 		.ascii	"_\326Sw-\352\212\275\030gC\217\015\373'\211\305rqia"
 488      2DEA8ABD 
 488      1867438F 
 488      0DFB2789 
 488      C5727169 
 489 1154 46D80F5A 		.ascii	"F\330\017Z\240\314b\023nHa\251\024\346_!\364\002\022"
 489      A0CC6213 
 489      6E4861A9 
 489      14E65F21 
 489      F40212
 490 1167 A47F06D1 		.ascii	"\244\177\006\321\245X\202\036\0047\303\241PIZ\204\262"
 490      A558821E 
 490      0437C3A1 
ARM GAS  /var/folders/c6/c789hm653lg9vtl73krp73tm0000gn/T//ccVgLuPk.s 			page 39


 490      50495A84 
 490      B2
 491 1178 971A41C7 		.ascii	"\227\032A\307J\211\240)#\232)#\324\224>\270[\026\001"
 491      4A89A029 
 491      239A2923 
 491      D4943EB8 
 491      5B1601
 492 118b 3DCA2911 		.ascii	"=\312)\021\202\323\223N\023\230a\023\312\012)[\354\035"
 492      82D3934E 
 492      13986113 
 492      CA0A295B 
 492      EC1D
 493 119d 5F582C2D 		.ascii	"_X,-\016\020.<\005\023\0123\202\"\330\012\271\376[["
 493      0E102E3C 
 493      05130A33 
 493      8222D80A 
 493      B9FE5B5B 
 494 11b1 5DC944DD 		.ascii	"]\311D\335\275\345\240\037\002C\361\204\210(\027\207"
 494      BDE5A01F 
 494      0243F184 
 494      88281787 
 495 11c1 4AC1DC11 		.ascii	"J\301\334\021\0315\237\032\23281*\311\202\034\314\210"
 495      19359F1A 
 495      9A38312A 
 495      C9821CCC 
 495      88
 496 11d2 CABF811E 		.ascii	"\312\277\201\036\205\360\020c\312\320!~Y\233\366\244"
 496      85F01063 
 496      CAD0217E 
 496      599BF6A4 
 497 11e2 D9B3B8A0 		.ascii	"\331\263\270\240D\322T\004\252\351g\242\027\215\004"
 497      44D25404 
 497      AAE967A2 
 497      178D04
 498 11f1 8056B93C 		.ascii	"\200V\271<0\300=\036(\372\327q\243C\371\022\340\276"
 498      30C03D1E 
 498      28FAD771 
 498      A343F912 
 498      E0BE
 499 1203 3E100282 		.ascii	">\020\002\202<0\327S.\207\323\375\345d\252\024\313\031"
 499      3C30D753 
 499      2E87D3FD 
 499      E564AA14 
 499      CB19
 500 1215 B4C35878 		.ascii	"\264\303Xx\234\002\221D\234\222J#\211\007\372f\261\203"
 500      9C029144 
 500      9C924A23 
 500      8907FA66 
 500      B183
 501 1227 9F668914 		.ascii	"\237f\211\024A\\\213G?2\367\242\362X9\024\036\005\221"
 501      415C8B47 
 501      3F32F7A2 
 501      F2583914 
 501      1E0591
 502 123a 8E300F70 		.ascii	"\2160\017p\330\314\"\267\201(\376\310\214\353O\026\002"
 502      D8CC22B7 
 502      8128FEC8 
ARM GAS  /var/folders/c6/c789hm653lg9vtl73krp73tm0000gn/T//ccVgLuPk.s 			page 40


 502      8CEB4F16 
 502      02
 503 124b 4583CD80 		.ascii	"E\203\315\200t\216\216\0357\346\205\3019o\2741:g\334"
 503      748E8E1D 
 503      37E685C1 
 503      396FBC31 
 503      3A67DC
 504 125e EB63CA07 		.ascii	"\353c\312\007\001|\220L\200\342 \245\242\375\360\313"
 504      017C904C 
 504      80E220A5 
 504      A2FDF0CB 
 505 126e 9EBCFC41 		.ascii	"\236\274\374AP\006{\307\216\311\313\367\216~\375\225"
 505      50067BC7 
 505      8EC9CBF7 
 505      8E7EFD95 
 506 127e 7C616CBE 		.ascii	"|al\276\347\225W\363S\362\362\306\344\017\302z\2607"
 506      E79557F3 
 506      53F2F2C6 
 506      E40FC27A 
 506      B037
 507 1290 2FEF957C 		.ascii	"/\357\225|O\336/\307y\336\034\233\347\031\225\237\357"
 507      4FDE2FC7 
 507      79DE1C9B 
 507      E719959F 
 507      EF
 508 12a1 C9CF83DF 		.ascii	"\311\317\203\3370\340\237G\217\313\367\214&#\307\214"
 508      30E09F47 
 508      8FCBF78C 
 508      2623C78C 
 509 12b1 CA17FE85 		.ascii	"\312\027\376\205\216z\001\372\217\317\377\205\203\330"
 509      8E7A01FA 
 509      8FCFFF85 
 509      83D8
 510 12bf 815985A4 		.ascii	"\201Y\205\2443\21494\355DA\001~\221Hj\357\000\345DY"
 510      338C3934 
 510      ED444101 
 510      7E91486A 
 510      EF00E544 
 511 12d4 7D885E5F 		.ascii	"}\210^_\225\344\261\250\214q0x\374\343\014N\241D[9N"
 511      95E4B1A8 
 511      8C713078 
 511      FCE30C4E 
 511      A1445B39 
 512 12e9 15E42F29 		.ascii	"\025\344/)!Y\260\017m\341\370@\250\014\"g\344G,{p\033"
 512      2159B00F 
 512      6DE1F840 
 512      A80C2267 
 512      E4472C7B 
 513 12ff B9F392DF 		.ascii	"\271\363\222\337\351~L\023~\177\017\2751p\350\213\271"
 513      E97E4C13 
 513      7E7F0FBD 
 513      3170E88B 
 513      B9
 514 1310 2F3E6990 		.ascii	"/>i\220\007,G\2070\235\206\2744\354\377\000+\356\001"
 514      072C4787 
 514      309D86BC 
 514      34ECFF00 
ARM GAS  /var/folders/c6/c789hm653lg9vtl73krp73tm0000gn/T//ccVgLuPk.s 			page 41


 514      2BEE01
 515 1323 A2       		.ascii	"\242"
 516              		.text
 517              		.section	.gnu.lto_.symtab.eacdcbde129e3cd6,"",%progbits
 518 0000 5F76745F 		.ascii	"_vt_init\000\000\000\000\000\000\000\000\000\000\000"
 518      696E6974 
 518      00000000 
 518      00000000 
 518      000000
 519 0013 00BC0100 		.ascii	"\000\274\001\000\000chVTDoSetI\000\000\000\000\000\000"
 519      00636856 
 519      54446F53 
 519      65744900 
 519      00000000 
 520 0028 00000000 		.ascii	"\000\000\000\000\000\000\300\001\000\000chVTDoReset"
 520      0000C001 
 520      00006368 
 520      5654446F 
 520      52657365 
 521 003d 49000000 		.ascii	"I\000\000\000\000\000\000\000\000\000\000\000\000\317"
 521      00000000 
 521      00000000 
 521      00CF
 522 004b 01000063 		.ascii	"\001\000\000ch\000\000\002\000\000\000\000\000\000\000"
 522      68000002 
 522      00000000 
 522      000000
 523 005a 0000DD01 		.ascii	"\000\000\335\001\000\000stStopAlarm\000\000\002\000"
 523      00007374 
 523      53746F70 
 523      416C6172 
 523      6D000002 
 524 006f 00000000 		.ascii	"\000\000\000\000\000\000\000\000\325\001\000\000stS"
 524      00000000 
 524      D5010000 
 524      737453
 525 007e 6574416C 		.ascii	"etAlarm\000\000\002\000\000\000\000\000\000\000\000"
 525      61726D00 
 525      00020000 
 525      00000000 
 525      0000
 526 0090 00D70100 		.ascii	"\000\327\001\000\000stStartAlarm\000\000\002\000\000"
 526      00737453 
 526      74617274 
 526      416C6172 
 526      6D000002 
 527 00a6 00000000 		.ascii	"\000\000\000\000\000\000\000\333\001\000\000"
 527      000000DB 
 527      010000
 528              		.text
 529              		.section	.gnu.lto_.opts,"",%progbits
 530 0000 272D6D63 		.ascii	"'-mcpu=cortex-m4' '-mno-thumb-interwork' '-mthumb' "
 530      70753D63 
 530      6F727465 
 530      782D6D34 
 530      2720272D 
 531 0033 272D6767 		.ascii	"'-ggdb' '-O2' '-fomit-frame-pointer' '-falign-funct"
ARM GAS  /var/folders/c6/c789hm653lg9vtl73krp73tm0000gn/T//ccVgLuPk.s 			page 42


 531      64622720 
 531      272D4F32 
 531      2720272D 
 531      666F6D69 
 532 0066 696F6E73 		.ascii	"ions=16' '-ffunction-sections' '-fdata-sections' '-"
 532      3D313627 
 532      20272D66 
 532      66756E63 
 532      74696F6E 
 533 0099 666E6F2D 		.ascii	"fno-common' '-flto'\000"
 533      636F6D6D 
 533      6F6E2720 
 533      272D666C 
 533      746F2700 
 534              		.text
 535              		.cfi_sections	.debug_frame
 536              		.section	.text._vt_init,"ax",%progbits
 537              		.align	2
 538              		.p2align 4,,15
 539              		.global	_vt_init
 540              		.thumb
 541              		.thumb_func
 542              		.type	_vt_init, %function
 543              	_vt_init:
 544              	.LFB229:
 545              		.file 1 "../../../os/rt/src/chvt.c"
 546              		.loc 1 61 0
 547              		.cfi_startproc
 548              		@ args = 0, pretend = 0, frame = 0
 549              		@ frame_needed = 0, uses_anonymous_args = 0
 550              		@ link register save eliminated.
 551              		.loc 1 63 0
 552 0000 054B     		ldr	r3, .L2
 553              		.loc 1 65 0
 554 0002 4FF0FF30 		mov	r0, #-1
 555              		.loc 1 63 0
 556 0006 03F11C02 		add	r2, r3, #28
 557              		.loc 1 69 0
 558 000a 0021     		movs	r1, #0
 559              		.loc 1 65 0
 560 000c 5862     		str	r0, [r3, #36]
 561              		.loc 1 69 0
 562 000e 9962     		str	r1, [r3, #40]
 563              		.loc 1 63 0
 564 0010 DA61     		str	r2, [r3, #28]
 565              		.loc 1 64 0
 566 0012 1A62     		str	r2, [r3, #32]
 567 0014 7047     		bx	lr
 568              	.L3:
 569 0016 00BF     		.align	2
 570              	.L2:
 571 0018 00000000 		.word	ch
 572              		.cfi_endproc
 573              	.LFE229:
 574              		.size	_vt_init, .-_vt_init
 575 001c AFF30080 		.section	.text.chVTDoSetI,"ax",%progbits
 576              		.align	2
ARM GAS  /var/folders/c6/c789hm653lg9vtl73krp73tm0000gn/T//ccVgLuPk.s 			page 43


 577              		.p2align 4,,15
 578              		.global	chVTDoSetI
 579              		.thumb
 580              		.thumb_func
 581              		.type	chVTDoSetI, %function
 582              	chVTDoSetI:
 583              	.LFB230:
 584              		.loc 1 96 0
 585              		.cfi_startproc
 586              		@ args = 0, pretend = 0, frame = 0
 587              		@ frame_needed = 0, uses_anonymous_args = 0
 588              	.LVL0:
 589 0000 F8B5     		push	{r3, r4, r5, r6, r7, lr}
 590              		.cfi_def_cfa_offset 24
 591              		.cfi_offset 3, -24
 592              		.cfi_offset 4, -20
 593              		.cfi_offset 5, -16
 594              		.cfi_offset 6, -12
 595              		.cfi_offset 7, -8
 596              		.cfi_offset 14, -4
 597              	.LBB35:
 598              		.loc 1 117 0
 599 0002 1C4E     		ldr	r6, .L14
 600 0004 3446     		mov	r4, r6
 601              		.loc 1 113 0
 602 0006 0129     		cmp	r1, #1
 603 0008 98BF     		it	ls
 604 000a 0221     		movls	r1, #2
 605              	.LVL1:
 606              		.loc 1 117 0
 607 000c 54F81C7F 		ldr	r7, [r4, #28]!
 608              	.LBE35:
 609              		.loc 1 103 0
 610 0010 0361     		str	r3, [r0, #16]
 611              	.LBB50:
 612              	.LBB36:
 613              	.LBB37:
 614              	.LBB38:
 615              	.LBB39:
 616              		.file 2 "../../../os/hal/ports/STM32/LLD/TIMv1/st_lld.h"
 617              		.loc 2 129 0
 618 0012 4FF08043 		mov	r3, #1073741824
 619              	.LVL2:
 620              	.LBE39:
 621              	.LBE38:
 622              	.LBE37:
 623              	.LBE36:
 624              		.loc 1 117 0
 625 0016 A742     		cmp	r7, r4
 626              	.LBE50:
 627              		.loc 1 96 0
 628 0018 0546     		mov	r5, r0
 629              		.loc 1 104 0
 630 001a C260     		str	r2, [r0, #12]
 631              	.LBB51:
 632              	.LBB43:
 633              	.LBB42:
ARM GAS  /var/folders/c6/c789hm653lg9vtl73krp73tm0000gn/T//ccVgLuPk.s 			page 44


 634              	.LBB41:
 635              	.LBB40:
 636              		.loc 2 129 0
 637 001c 586A     		ldr	r0, [r3, #36]
 638              	.LVL3:
 639              	.LBE40:
 640              	.LBE41:
 641              	.LBE42:
 642              	.LBE43:
 643              		.loc 1 117 0
 644 001e 1ED0     		beq	.L12
 645              		.loc 1 136 0
 646 0020 B46A     		ldr	r4, [r6, #40]
 647              		.loc 1 137 0
 648 0022 BB68     		ldr	r3, [r7, #8]
 649              		.loc 1 136 0
 650 0024 0844     		add	r0, r0, r1
 651 0026 041B     		subs	r4, r0, r4
 652              	.LVL4:
 653              		.loc 1 137 0
 654 0028 9C42     		cmp	r4, r3
 655 002a 15D3     		bcc	.L13
 656              	.LVL5:
 657              	.L7:
 658              	.LBE51:
 659              		.loc 1 150 0
 660 002c F369     		ldr	r3, [r6, #28]
 661              	.LVL6:
 662              		.loc 1 151 0
 663 002e 9A68     		ldr	r2, [r3, #8]
 664 0030 9442     		cmp	r4, r2
 665 0032 04D9     		bls	.L8
 666              	.L9:
 667              		.loc 1 153 0
 668 0034 1B68     		ldr	r3, [r3]
 669              	.LVL7:
 670              		.loc 1 152 0
 671 0036 A41A     		subs	r4, r4, r2
 672              	.LVL8:
 673              		.loc 1 151 0
 674 0038 9A68     		ldr	r2, [r3, #8]
 675 003a A242     		cmp	r2, r4
 676 003c FAD3     		bcc	.L9
 677              	.L8:
 678              		.loc 1 158 0
 679 003e 5A68     		ldr	r2, [r3, #4]
 680 0040 6A60     		str	r2, [r5, #4]
 681              		.loc 1 157 0
 682 0042 2B60     		str	r3, [r5]
 683              		.loc 1 159 0
 684 0044 1560     		str	r5, [r2]
 685              		.loc 1 160 0
 686 0046 5D60     		str	r5, [r3, #4]
 687              		.loc 1 161 0
 688 0048 AC60     		str	r4, [r5, #8]
 689              		.loc 1 165 0
 690 004a 9A68     		ldr	r2, [r3, #8]
ARM GAS  /var/folders/c6/c789hm653lg9vtl73krp73tm0000gn/T//ccVgLuPk.s 			page 45


 691              		.loc 1 166 0
 692 004c 4FF0FF31 		mov	r1, #-1
 693              		.loc 1 165 0
 694 0050 141B     		subs	r4, r2, r4
 695              	.LVL9:
 696 0052 9C60     		str	r4, [r3, #8]
 697              	.LVL10:
 698              		.loc 1 166 0
 699 0054 7162     		str	r1, [r6, #36]
 700 0056 F8BD     		pop	{r3, r4, r5, r6, r7, pc}
 701              	.LVL11:
 702              	.L13:
 703              	.LBB52:
 704              	.LBB44:
 705              	.LBB45:
 706              		.file 3 "../../../os/rt/ports/ARMCMx/chcore_timer.h"
 707              		.loc 3 95 0
 708 0058 FFF7FEFF 		bl	stSetAlarm
 709              	.LVL12:
 710 005c E6E7     		b	.L7
 711              	.LVL13:
 712              	.L12:
 713              	.LBE45:
 714              	.LBE44:
 715              		.loc 1 121 0
 716 005e B062     		str	r0, [r6, #40]
 717              		.loc 1 122 0
 718 0060 F561     		str	r5, [r6, #28]
 719              		.loc 1 123 0
 720 0062 3562     		str	r5, [r6, #32]
 721              	.LBB46:
 722              	.LBB47:
 723              		.loc 3 73 0
 724 0064 0844     		add	r0, r0, r1
 725              	.LBE47:
 726              	.LBE46:
 727              		.loc 1 124 0
 728 0066 2F60     		str	r7, [r5]
 729              		.loc 1 125 0
 730 0068 6F60     		str	r7, [r5, #4]
 731              		.loc 1 126 0
 732 006a A960     		str	r1, [r5, #8]
 733              	.LVL14:
 734              	.LBE52:
 735              		.loc 1 167 0
 736 006c BDE8F840 		pop	{r3, r4, r5, r6, r7, lr}
 737              	.LVL15:
 738              	.LBB53:
 739              	.LBB49:
 740              	.LBB48:
 741              		.loc 3 73 0
 742 0070 FFF7FEBF 		b	stStartAlarm
 743              	.LVL16:
 744              	.L15:
 745              		.align	2
 746              	.L14:
 747 0074 00000000 		.word	ch
ARM GAS  /var/folders/c6/c789hm653lg9vtl73krp73tm0000gn/T//ccVgLuPk.s 			page 46


 748              	.LBE48:
 749              	.LBE49:
 750              	.LBE53:
 751              		.cfi_endproc
 752              	.LFE230:
 753              		.size	chVTDoSetI, .-chVTDoSetI
 754 0078 AFF30080 		.section	.text.chVTDoResetI,"ax",%progbits
 754      AFF30080 
 755              		.align	2
 756              		.p2align 4,,15
 757              		.global	chVTDoResetI
 758              		.thumb
 759              		.thumb_func
 760              		.type	chVTDoResetI, %function
 761              	chVTDoResetI:
 762              	.LFB231:
 763              		.loc 1 177 0
 764              		.cfi_startproc
 765              		@ args = 0, pretend = 0, frame = 0
 766              		@ frame_needed = 0, uses_anonymous_args = 0
 767              		@ link register save eliminated.
 768              	.LVL17:
 769              		.loc 1 201 0
 770 0000 1B4A     		ldr	r2, .L25
 771 0002 D369     		ldr	r3, [r2, #28]
 772 0004 8342     		cmp	r3, r0
 773              		.loc 1 177 0
 774 0006 10B4     		push	{r4}
 775              		.cfi_def_cfa_offset 4
 776              		.cfi_offset 4, -4
 777              		.loc 1 201 0
 778 0008 10D0     		beq	.L17
 779              		.loc 1 203 0
 780 000a 4168     		ldr	r1, [r0, #4]
 781 000c 0368     		ldr	r3, [r0]
 782 000e 0B60     		str	r3, [r1]
 783              		.loc 1 204 0
 784 0010 0368     		ldr	r3, [r0]
 785              		.loc 1 208 0
 786 0012 1C32     		adds	r2, r2, #28
 787              		.loc 1 205 0
 788 0014 0024     		movs	r4, #0
 789              		.loc 1 208 0
 790 0016 9342     		cmp	r3, r2
 791              		.loc 1 204 0
 792 0018 5960     		str	r1, [r3, #4]
 793              		.loc 1 205 0
 794 001a C460     		str	r4, [r0, #12]
 795              		.loc 1 208 0
 796 001c 03D0     		beq	.L16
 797              		.loc 1 209 0
 798 001e 8168     		ldr	r1, [r0, #8]
 799 0020 9A68     		ldr	r2, [r3, #8]
 800 0022 0A44     		add	r2, r2, r1
 801 0024 9A60     		str	r2, [r3, #8]
 802              	.LVL18:
 803              	.L16:
ARM GAS  /var/folders/c6/c789hm653lg9vtl73krp73tm0000gn/T//ccVgLuPk.s 			page 47


 804              		.loc 1 255 0
 805 0026 5DF8044B 		ldr	r4, [sp], #4
 806 002a 7047     		bx	lr
 807              	.LVL19:
 808              	.L17:
 809              	.LBB64:
 810              	.LBB65:
 811              		.loc 1 215 0
 812 002c 1046     		mov	r0, r2
 813              	.LVL20:
 814 002e 1968     		ldr	r1, [r3]
 815 0030 40F81C1F 		str	r1, [r0, #28]!
 816              		.loc 1 217 0
 817 0034 0024     		movs	r4, #0
 818              		.loc 1 220 0
 819 0036 8142     		cmp	r1, r0
 820              		.loc 1 216 0
 821 0038 4860     		str	r0, [r1, #4]
 822              		.loc 1 217 0
 823 003a DC60     		str	r4, [r3, #12]
 824              		.loc 1 220 0
 825 003c 13D0     		beq	.L24
 826              		.loc 1 227 0
 827 003e 8868     		ldr	r0, [r1, #8]
 828 0040 9B68     		ldr	r3, [r3, #8]
 829              	.LVL21:
 830              		.loc 1 236 0
 831 0042 926A     		ldr	r2, [r2, #40]
 832              		.loc 1 227 0
 833 0044 0344     		add	r3, r3, r0
 834              	.LBB66:
 835              	.LBB67:
 836              	.LBB68:
 837              	.LBB69:
 838              		.loc 2 129 0
 839 0046 4FF08040 		mov	r0, #1073741824
 840              	.LBE69:
 841              	.LBE68:
 842              	.LBE67:
 843              	.LBE66:
 844              		.loc 1 227 0
 845 004a 8B60     		str	r3, [r1, #8]
 846              	.LBB73:
 847              	.LBB72:
 848              	.LBB71:
 849              	.LBB70:
 850              		.loc 2 129 0
 851 004c 406A     		ldr	r0, [r0, #36]
 852              	.LBE70:
 853              	.LBE71:
 854              	.LBE72:
 855              	.LBE73:
 856              		.loc 1 236 0
 857 004e 821A     		subs	r2, r0, r2
 858              	.LVL22:
 859              		.loc 1 240 0
 860 0050 9342     		cmp	r3, r2
ARM GAS  /var/folders/c6/c789hm653lg9vtl73krp73tm0000gn/T//ccVgLuPk.s 			page 48


 861 0052 E8D9     		bls	.L16
 862              		.loc 1 245 0
 863 0054 9B1A     		subs	r3, r3, r2
 864              	.LVL23:
 865              		.loc 1 249 0
 866 0056 012B     		cmp	r3, #1
 867              		.loc 1 250 0
 868 0058 98BF     		it	ls
 869 005a 0223     		movls	r3, #2
 870              	.LVL24:
 871              	.LBB74:
 872              	.LBB75:
 873              		.loc 3 95 0
 874 005c 1844     		add	r0, r0, r3
 875              	.LVL25:
 876              	.LBE75:
 877              	.LBE74:
 878              	.LBE65:
 879              	.LBE64:
 880              		.loc 1 255 0
 881 005e 5DF8044B 		ldr	r4, [sp], #4
 882              	.LBB82:
 883              	.LBB80:
 884              	.LBB77:
 885              	.LBB76:
 886              		.loc 3 95 0
 887 0062 FFF7FEBF 		b	stSetAlarm
 888              	.LVL26:
 889              	.L24:
 890              	.LBE76:
 891              	.LBE77:
 892              	.LBE80:
 893              	.LBE82:
 894              		.loc 1 255 0
 895 0066 5DF8044B 		ldr	r4, [sp], #4
 896              	.LBB83:
 897              	.LBB81:
 898              	.LBB78:
 899              	.LBB79:
 900              		.loc 3 83 0
 901 006a FFF7FEBF 		b	stStopAlarm
 902              	.LVL27:
 903              	.L26:
 904 006e 00BF     		.align	2
 905              	.L25:
 906 0070 00000000 		.word	ch
 907              	.LBE79:
 908              	.LBE78:
 909              	.LBE81:
 910              	.LBE83:
 911              		.cfi_endproc
 912              	.LFE231:
 913              		.size	chVTDoResetI, .-chVTDoResetI
 914 0074 AFF30080 		.text
 914      AFF30080 
 914      AFF30080 
 915              	.Letext0:
ARM GAS  /var/folders/c6/c789hm653lg9vtl73krp73tm0000gn/T//ccVgLuPk.s 			page 49


 916              		.file 4 "/usr/local/Cellar/gcc-arm-none-eabi/20140805/arm-none-eabi/include/machine/_default_types
 917              		.file 5 "/usr/local/Cellar/gcc-arm-none-eabi/20140805/arm-none-eabi/include/stdint.h"
 918              		.file 6 "../../../os/rt/ports/ARMCMx/compilers/GCC/chtypes.h"
 919              		.file 7 "../../../os/rt/include/chsystypes.h"
 920              		.file 8 "../../../os/rt/include/chschd.h"
 921              		.file 9 "../../../os/rt/ports/ARMCMx/chcore.h"
 922              		.file 10 "../../../os/rt/ports/ARMCMx/chcore_v7m.h"
 923              		.file 11 "../../../os/hal/ports/STM32/LLD/TIMv1/stm32_tim.h"
 924              		.file 12 "../../../os/rt/include/chtm.h"
 925              		.file 13 "../../../os/rt/include/chsem.h"
 926              		.file 14 "../../../os/rt/include/chmtx.h"
 927              		.file 15 "../../../os/rt/include/chvt.h"
 928              		.file 16 "../../../os/hal/include/st.h"
 929              		.file 17 "../../../os/ext/CMSIS/include/core_cm4.h"