ARM GAS  /var/folders/c6/c789hm653lg9vtl73krp73tm0000gn/T//ccwSNrCT.s 			page 1


   1              		.syntax unified
   2              		.cpu cortex-m4
   3              		.fpu softvfp
   4              		.eabi_attribute 20, 1
   5              		.eabi_attribute 21, 1
   6              		.eabi_attribute 23, 3
   7              		.eabi_attribute 24, 1
   8              		.eabi_attribute 25, 1
   9              		.eabi_attribute 26, 1
  10              		.eabi_attribute 30, 2
  11              		.eabi_attribute 34, 1
  12              		.eabi_attribute 18, 4
  13              		.thumb
  14              		.file	"crt1.c"
  15              		.text
  16              	.Ltext0:
  17              		.section	.gnu.lto_.jmpfuncs.d23b1b95f32aba29,"",%progbits
  18 0000 789C6362 		.ascii	"x\234cb`b\300\006\270\2404\013\003\003#P\0113\003\003"
  18      6062C006 
  18      B8A0340B 
  18      03032350 
  18      09330303 
  19 0014 0001C400 		.ascii	"\000\001\304\000\031"
  19      19
  20              		.text
  21              		.section	.gnu.lto_.inline.d23b1b95f32aba29,"",%progbits
  22 0000 789C6362 		.ascii	"x\234cb`b\300\006<\2414\013\003\0033\023#X\021\333\002"
  22      6062C006 
  22      3CA1340B 
  22      03033313 
  22      235811DB 
  23 0015 79B05A46 		.ascii	"y\260ZF\014\021&\014\021f \017\"\302\002\265\000\000"
  23      0C11260C 
  23      1166200F 
  23      22C202B5 
  23      0000
  24 0027 841802D0 		.ascii	"\204\030\002\320"
  25              		.text
  26              		.section	.gnu.lto_.pureconst.d23b1b95f32aba29,"",%progbits
  27 0000 789C6362 		.ascii	"x\234cb`b\340d\200\000\026\006\011F\011&\011f\023\000"
  27      6062E064 
  27      80001606 
  27      09460926 
  27      09661300 
  28 0014 02D20094 		.ascii	"\002\322\000\224"
  29              		.text
  30              		.section	.gnu.lto___core_init.d23b1b95f32aba29,"",%progbits
  31 0000 789C6362 		.ascii	"x\234cb`b@\007\222@\034\010\304\346@\314\310\314\300"
  31      60624007 
  31      92401C08 
  31      C4E640CC 
  31      C8CCC0
  32 0013 C834E11C 		.ascii	"\3104\341\034\003C#\007\023##\210\301\300\310P\317\304"
  32      03432307 
  32      13232388 
  32      C1C0C850 
  32      CFC4
ARM GAS  /var/folders/c6/c789hm653lg9vtl73krp73tm0000gn/T//ccwSNrCT.s 			page 2


  33 0025 581FC908 		.ascii	"X\037\311\010V\273\236\351\300\203\377\377\327my\370"
  33      56BB9EE9 
  33      C083FFFF 
  33      D76D79F8 
  34 0035 30831164 		.ascii	"0\203\021d\022+CKC\303\004\005\006\206d\260|\010\220"
  34      122B434B 
  34      43C30405 
  34      068664B0 
  34      7C0890
  35 0048 04690A05 		.ascii	"\004i\012\005J\002i\346\213\014\214\211\214\013\031"
  35      4A0269E6 
  35      8B0C8C89 
  35      8C0B19
  36 0057 59E17685 		.ascii	"Y\341v\20502\202$@ZM\365\364\364!(\277X?9?77?O\277 "
  36      30328224 
  36      405A4DF5 
  36      F4F42128 
  36      BF583F39 
  37 0072 BFA8A458 		.ascii	"\277\250\244X\3371\310\327\331\267\002$V\220\231\223"
  37      DF31C8D7 
  37      D9B70224 
  37      56909993 
  38 0082 5A54ACEF 		.ascii	"ZT\254\357\356\354\254\237\\Tb\250\227\314\000\000\000"
  38      EEECAC9F 
  38      5C5462A8 
  38      97CC0000 
  38      00
  39 0093 7227EB   		.ascii	"r'\353"
  40              		.text
  41              		.section	.gnu.lto___early_init.d23b1b95f32aba29,"",%progbits
  42 0000 789C6362 		.ascii	"x\234cb`b@\007\222@\034\000\304\346@\314\310\314\300"
  42      60624007 
  42      92401C00 
  42      C4E640CC 
  42      C8CCC0
  43 0013 C834E11C 		.ascii	"\3104\341\034\003C#\007\023##\210\301\300\310P\317\304"
  43      03432307 
  43      13232388 
  43      C1C0C850 
  43      CFC4
  44 0025 581FC908 		.ascii	"X\037\311\010V\273\236\351\300\203\377\377\327\375z"
  44      56BB9EE9 
  44      C083FFFF 
  44      D7FD7A
  45 0034 7A901164 		.ascii	"z\220\021d\020+CKC\303\004\005\006\206d\260t\010\220"
  45      102B434B 
  45      43C30405 
  45      068664B0 
  45      740890
  46 0047 04E90905 		.ascii	"\004\351\011\005J\002i\346\213\014\214\211\214\013\031"
  46      4A0269E6 
  46      8B0C8C89 
  46      8C0B19
  47 0056 59E15685 		.ascii	"Y\341V\20502\202$@ZM\365\364\364!(\277X?9?77?O\277 "
  47      30328224 
  47      405A4DF5 
  47      F4F42128 
ARM GAS  /var/folders/c6/c789hm653lg9vtl73krp73tm0000gn/T//ccwSNrCT.s 			page 3


  47      BF583F39 
  48 0071 BFA8A458 		.ascii	"\277\250\244X\3371\310\327\331\267\002$V\220\231\223"
  48      DF31C8D7 
  48      D9B70224 
  48      56909993 
  49 0081 5A54ACEF 		.ascii	"ZT\254\357\356\354\254\237\\Tb\250\227\314\000\000\326"
  49      EEECAC9F 
  49      5C5462A8 
  49      97CC0000 
  49      D6
  50 0092 B427AC   		.ascii	"\264'\254"
  51              		.text
  52              		.section	.gnu.lto___late_init.d23b1b95f32aba29,"",%progbits
  53 0000 789C6362 		.ascii	"x\234cb`b@\007\222@\034\000\304\346@\314\310\314\300"
  53      60624007 
  53      92401C00 
  53      C4E640CC 
  53      C8CCC0
  54 0013 C834E11C 		.ascii	"\3104\341\034\003C#\007\023##\210\301\300\310P\317\304"
  54      03432307 
  54      13232388 
  54      C1C0C850 
  54      CFC4
  55 0025 581FC908 		.ascii	"X\037\311\010V\273\236\351\300\203\377\377\327mk\233"
  55      56BB9EE9 
  55      C083FFFF 
  55      D76D6B9B 
  56 0035 23013288 		.ascii	"#\0012\210\225\241\245\241a\202\002\003C2X:\004H\202"
  56      95A1A5A1 
  56      61820203 
  56      4332583A 
  56      044882
  57 0048 F4843232 		.ascii	"\364\20422\201h\346\213\014\214\211\214\013\031Y\341"
  57      8168E68B 
  57      0C8C898C 
  57      0B1959E1 
  58 0058 56853032 		.ascii	"V\20502\202$@ZM\365\364\364!(\277X?9?77?O\277 \277\250"
  58      8224405A 
  58      4DF5F4F4 
  58      2128BF58 
  58      3F393F37 
  59 0073 A458DF31 		.ascii	"\244X\3371\310\327\331\267\002$V\220\231\223ZT\254\357"
  59      C8D7D9B7 
  59      02245690 
  59      99935A54 
  59      ACEF
  60 0085 EEECAC9F 		.ascii	"\356\354\254\237\\Tb\250\227\314\000\000\203o&\373"
  60      5C5462A8 
  60      97CC0000 
  60      836F26FB 
  61              		.text
  62              		.section	.gnu.lto___default_exit.d23b1b95f32aba29,"",%progbits
  63 0000 789C6362 		.ascii	"x\234cb`b@\007:@\354\003\304\346@\314\310\312\300\310"
  63      60624007 
  63      3A40EC03 
  63      C4E640CC 
  63      C8CAC0C8 
ARM GAS  /var/folders/c6/c789hm653lg9vtl73krp73tm0000gn/T//ccwSNrCT.s 			page 4


  64 0014 34E11C03 		.ascii	"4\341\034\003C#\007\023#3\210\301\310\314\310\002\021"
  64      43230713 
  64      233388C1 
  64      C8CCC802 
  64      11
  65 0025 60810838 		.ascii	"`\201\010822\32431\2630\326G2\202\265\257g:\360\340"
  65      3232D433 
  65      31B330D6 
  65      473282B5 
  65      AF673AF0 
  66 003a FFFF751F 		.ascii	"\377\377u\037\216\315\275\3038\233\011$\306\312\320"
  66      8ECDBDC3 
  66      389B0924 
  66      C6CAD0
  67 0049 D2D03041 		.ascii	"\322\3200A\201\201!\031\254\"\004H2\002I&\240Y!\214"
  67      81812119 
  67      AC220448 
  67      32024926 
  67      A059218C 
  68 005d CC0C4043 		.ascii	"\314\014@C\030C\030Y\2404\304\020\006S==}\010\312/\326"
  68      18431859 
  68      A034C410 
  68      06533D3D 
  68      7D08CA2F 
  69 0072 4FCECFCD 		.ascii	"O\316\317\315\315\317\323/\310/*)\326w\014\362u\366"
  69      CDCFD32F 
  69      C82F2A29 
  69      D6770CF2 
  69      75F6
  70 0084 AD008915 		.ascii	"\255\000\211\025d\346\244\026\025\353\273;;\353'\027"
  70      64E6A416 
  70      15EBBB3B 
  70      3BEB2717 
  71 0094 9518EA25 		.ascii	"\225\030\352%3\000\000\230\232*\001"
  71      33000098 
  71      9A2A01
  72              		.text
  73              		.section	.gnu.lto_.symbol_nodes.d23b1b95f32aba29,"",%progbits
  74 0000 789C6362 		.ascii	"x\234cb`b\260e\200\002\246\017\014\365\014\014\023\316"
  74      6062B065 
  74      8002A60F 
  74      0CF50C0C 
  74      13CE
  75 0012 3130D4D7 		.ascii	"10\324\327\317\353`d\372\310P\317\210\304\375\304P\317"
  75      CFEB6064 
  75      FAC850CF 
  75      88C4FDC4 
  75      50CF
  76 0024 84C4FDCC 		.ascii	"\204\304\375\314P\317\014\343z0\000\000h\235\023\335"
  76      50CF0CE3 
  76      7A300000 
  76      689D13DD 
  77              		.text
  78              		.section	.gnu.lto_.refs.d23b1b95f32aba29,"",%progbits
  79 0000 789C6362 		.ascii	"x\234cb`b`d\200\002\000\000F\000\006"
  79      60626064 
  79      80020000 
ARM GAS  /var/folders/c6/c789hm653lg9vtl73krp73tm0000gn/T//ccwSNrCT.s 			page 5


  79      460006
  80              		.text
  81              		.section	.gnu.lto_.decls.d23b1b95f32aba29,"",%progbits
  82 0000 789C9590 		.ascii	"x\234\225\220?K\303@\030\306\337KZ\261X\352\244k\013"
  82      3F4BC340 
  82      18C6DF4B 
  82      5AB158EA 
  82      A46B0B
  83 0013 82438706 		.ascii	"\202C\207\006\007\301\251 \031:HE\204\202\213\034G\214"
  83      07C1A920 
  83      193A4845 
  83      84828B1C 
  83      478C
  84 0025 104C9392 		.ascii	"\020L\223\222^\261n\207\2038\026AGi\375G\012\021\352"
  84      5EB16E87 
  84      83381641 
  84      4769FD47 
  84      0A11EA
  85 0038 E2DC828A 		.ascii	"\342\334\202\212\340\227\350G\350,B\274&\255\255\327"
  85      E097E847 
  85      E82C42BC 
  85      26ADADD7 
  86 0048 38F8700F 		.ascii	"8\370p\017\274\227{\336\373\2759\011$x\001\000\237+"
  86      BC977BDE 
  86      FBBD3909 
  86      24780100 
  86      9F2B
  87 005a 2E01305E 		.ascii	".\0010^\307\271\3630Q\214\273\305\355r{\334\035\230"
  87      C7B9F330 
  87      518CBBC5 
  87      ED727BDC 
  87      1D98
  88 006c 556BAA46 		.ascii	"Uk\252F\302~,W\310\270\021\031O\310x\021\231\216\220"
  88      C27E2C57 
  88      C8B81119 
  88      4FC87811 
  88      998E90
  89 007f 899A270D 		.ascii	"\211\232'\015\327\254\331\355\277^} vq\376\345\3732"
  89      D7ACD9ED 
  89      BF5E7D20 
  89      7671FEE5 
  89      FB32
  90 0091 2CC325E3 		.ascii	",\303%\343j\2361\206(A\371%\330C\004\245\022\220\011"
  90      6A9E3186 
  90      2841F925 
  90      D84304A5 
  90      129009
  91 00a4 8A6422F8 		.ascii	"\212d\"\370Q\000\202n\320\362\250*\311\341u\022l \310"
  91      5100826E 
  91      D0F2A82A 
  91      C9E17512 
  91      6C20C8
  92 00b7 429BF737 		.ascii	"B\233\3677\030;]A3@\231g\370\332\3729Y\205\373!\216"
  92      183B5D41 
  92      33409967 
  92      F8DAFA39 
  92      5985FB21 
ARM GAS  /var/folders/c6/c789hm653lg9vtl73krp73tm0000gn/T//ccwSNrCT.s 			page 6


  93 00cc B94C0E60 		.ascii	"\271L\016`\303\353Z(=\335C\320-\222f\247\356~\352\357"
  93      C3EB5A28 
  93      3DDD43D0 
  93      2D9266A7 
  93      EE7EEAEF 
  94 00e0 CD81EF2F 		.ascii	"\315\201\357/\206\223H\260\203x\364\016e' \202\036&"
  94      869348B0 
  94      8378F40E 
  94      65272082 
  94      1E26
  95 00f2 9D512457 		.ascii	"\235Q$W$\265#I\317o\311F\257\357\373\3511j\377\377("
  95      24B52349 
  95      CF6FC946 
  95      AFEFFBE9 
  95      316AFFFF 
  96 0107 4F443D46 		.ascii	"OD=F\240z\335\201\2102\376D\215\336\262>\375\312Q\344"
  96      A07ADD81 
  96      8832FE44 
  96      8DDEB23E 
  96      FDCA51E4 
  97 011b 8E487EFA 		.ascii	"\216H~\372M\206\365\\N\011\227]U4\273\\\266-\245b;\264"
  97      4D86F55C 
  97      4E09975D 
  97      5534BB5C 
  97      B62DA562 
  98 0131 AA6CEE16 		.ascii	"\252l\356\026\325b}\370\255b\230\272SU\012\252\252h"
  98      D5627DF8 
  98      AD6298BA 
  98      53550AAA 
  98      AA68
  99 0143 0E5DCB69 		.ascii	"\016]\313i\260\200\261f;:6,\203\316\025\266K\031\025"
  99      B080B166 
  99      3B3A362C 
  99      83CE15B6 
  99      4B1915
 100 0156 62C73A39 		.ascii	"b\307:9Jb\254\023\307<\011\016x\310$4\014\2450>\320"
 100      4A62AC13 
 100      C73C090E 
 100      78C82434 
 100      0CA5303E 
 101 016b 0F49CDA4 		.ascii	"\017I\315\244X\257\033t\336\342\335\264\346X\337\352"
 101      58AF1B74 
 101      DEE2DDB4 
 101      E658DFEA 
 102 017b 0A96EA   		.ascii	"\012\226\352"
 103              		.text
 104              		.section	.gnu.lto_.symtab.d23b1b95f32aba29,"",%progbits
 105 0000 5F5F636F 		.ascii	"__core_init\000\000\001\000\000\000\000\000\000\000"
 105      72655F69 
 105      6E697400 
 105      00010000 
 105      00000000 
 106 0015 0000A100 		.ascii	"\000\000\241\000\000\000__early_init\000\000\001\000"
 106      00005F5F 
 106      6561726C 
 106      795F696E 
 106      69740000 
ARM GAS  /var/folders/c6/c789hm653lg9vtl73krp73tm0000gn/T//ccwSNrCT.s 			page 7


 107 002b 00000000 		.ascii	"\000\000\000\000\000\000\000\000\250\000\000\000__l"
 107      00000000 
 107      A8000000 
 107      5F5F6C
 108 003a 6174655F 		.ascii	"ate_init\000\000\001\000\000\000\000\000\000\000\000"
 108      696E6974 
 108      00000100 
 108      00000000 
 108      000000
 109 004d 00AC0000 		.ascii	"\000\254\000\000\000__default_exit\000\000\001\000\000"
 109      005F5F64 
 109      65666175 
 109      6C745F65 
 109      78697400 
 110 0065 00000000 		.ascii	"\000\000\000\000\000\000\000\260\000\000\000"
 110      000000B0 
 110      000000
 111              		.text
 112              		.section	.gnu.lto_.opts,"",%progbits
 113 0000 272D6D63 		.ascii	"'-mcpu=cortex-m4' '-mno-thumb-interwork' '-mthumb' "
 113      70753D63 
 113      6F727465 
 113      782D6D34 
 113      2720272D 
 114 0033 272D6767 		.ascii	"'-ggdb' '-O2' '-fomit-frame-pointer' '-falign-funct"
 114      64622720 
 114      272D4F32 
 114      2720272D 
 114      666F6D69 
 115 0066 696F6E73 		.ascii	"ions=16' '-ffunction-sections' '-fdata-sections' '-"
 115      3D313627 
 115      20272D66 
 115      66756E63 
 115      74696F6E 
 116 0099 666E6F2D 		.ascii	"fno-common' '-flto'\000"
 116      636F6D6D 
 116      6F6E2720 
 116      272D666C 
 116      746F2700 
 117              		.text
 118              		.cfi_sections	.debug_frame
 119              		.section	.text.__core_init,"ax",%progbits
 120              		.align	2
 121              		.p2align 4,,15
 122              		.weak	__core_init
 123              		.thumb
 124              		.thumb_func
 125              		.type	__core_init, %function
 126              	__core_init:
 127              	.LFB112:
 128              		.file 1 "../../../os/common/ports/ARMCMx/compilers/GCC/crt1.c"
 129              		.loc 1 42 0
 130              		.cfi_startproc
 131              		@ args = 0, pretend = 0, frame = 0
 132              		@ frame_needed = 0, uses_anonymous_args = 0
 133              		@ link register save eliminated.
 134 0000 7047     		bx	lr
ARM GAS  /var/folders/c6/c789hm653lg9vtl73krp73tm0000gn/T//ccwSNrCT.s 			page 8


 135              		.cfi_endproc
 136              	.LFE112:
 137              		.size	__core_init, .-__core_init
 138 0002 00BFAFF3 		.section	.text.__early_init,"ax",%progbits
 138      0080AFF3 
 138      0080AFF3 
 138      0080
 139              		.align	2
 140              		.p2align 4,,15
 141              		.weak	__early_init
 142              		.thumb
 143              		.thumb_func
 144              		.type	__early_init, %function
 145              	__early_init:
 146              	.LFB113:
 147              		.loc 1 61 0
 148              		.cfi_startproc
 149              		@ args = 0, pretend = 0, frame = 0
 150              		@ frame_needed = 0, uses_anonymous_args = 0
 151              		@ link register save eliminated.
 152 0000 7047     		bx	lr
 153              		.cfi_endproc
 154              	.LFE113:
 155              		.size	__early_init, .-__early_init
 156 0002 00BFAFF3 		.section	.text.__late_init,"ax",%progbits
 156      0080AFF3 
 156      0080AFF3 
 156      0080
 157              		.align	2
 158              		.p2align 4,,15
 159              		.weak	__late_init
 160              		.thumb
 161              		.thumb_func
 162              		.type	__late_init, %function
 163              	__late_init:
 164              	.LFB114:
 165              		.loc 1 75 0
 166              		.cfi_startproc
 167              		@ args = 0, pretend = 0, frame = 0
 168              		@ frame_needed = 0, uses_anonymous_args = 0
 169              		@ link register save eliminated.
 170 0000 7047     		bx	lr
 171              		.cfi_endproc
 172              	.LFE114:
 173              		.size	__late_init, .-__late_init
 174 0002 00BFAFF3 		.section	.text.__default_exit,"ax",%progbits
 174      0080AFF3 
 174      0080AFF3 
 174      0080
 175              		.align	2
 176              		.p2align 4,,15
 177              		.weak	__default_exit
 178              		.thumb
 179              		.thumb_func
 180              		.type	__default_exit, %function
 181              	__default_exit:
 182              	.LFB115:
ARM GAS  /var/folders/c6/c789hm653lg9vtl73krp73tm0000gn/T//ccwSNrCT.s 			page 9


 183              		.loc 1 88 0
 184              		.cfi_startproc
 185              		@ Volatile: function does not return.
 186              		@ args = 0, pretend = 0, frame = 0
 187              		@ frame_needed = 0, uses_anonymous_args = 0
 188              		@ link register save eliminated.
 189              	.L5:
 190 0000 FEE7     		b	.L5
 191              		.cfi_endproc
 192              	.LFE115:
 193              		.size	__default_exit, .-__default_exit
 194 0002 00BFAFF3 		.text
 194      0080AFF3 
 194      0080AFF3 
 194      0080
 195              	.Letext0:
 196              		.file 2 "/usr/local/Cellar/gcc-arm-none-eabi/20140805/arm-none-eabi/include/machine/_default_types
 197              		.file 3 "/usr/local/Cellar/gcc-arm-none-eabi/20140805/arm-none-eabi/include/stdint.h"
 198              		.file 4 "../../../os/ext/CMSIS/include/core_cm4.h"