ARM GAS  /var/folders/c6/c789hm653lg9vtl73krp73tm0000gn/T//ccv6ChYV.s 			page 1


   1              		.syntax unified
   2              		.cpu cortex-m4
   3              		.fpu softvfp
   4              		.eabi_attribute 20, 1
   5              		.eabi_attribute 21, 1
   6              		.eabi_attribute 23, 3
   7              		.eabi_attribute 24, 1
   8              		.eabi_attribute 25, 1
   9              		.eabi_attribute 26, 1
  10              		.eabi_attribute 30, 2
  11              		.eabi_attribute 34, 1
  12              		.eabi_attribute 18, 4
  13              		.thumb
  14              		.file	"hal.c"
  15              		.text
  16              	.Ltext0:
  17              		.section	.gnu.lto_.jmpfuncs.4f653539aa076ba7,"",%progbits
  18 0000 789C6362 		.ascii	"x\234cb`b\300\006d\2404#\224b\252f\370\3250\243A \223"
  18      6062C006 
  18      64A03423 
  18      9462AA66 
  18      F8D530A3 
  19 0017 9121172A 		.ascii	"\221!\027*\306\000\000@\270\004\032"
  19      C6000040 
  19      B8041A
  20              		.text
  21              		.section	.gnu.lto_.inline.4f653539aa076ba7,"",%progbits
  22 0000 789C6362 		.ascii	"x\234cb`b\300\006\214\2414#\003\003\227=#X\021\333\002"
  22      6062C006 
  22      8CA13423 
  22      0303973D 
  22      235811DB 
  23 0015 79B05A46 		.ascii	"y\260ZF.L\202\211\033\244\024\314d\000\000>\231\001"
  23      2E4C8289 
  23      1BA414CC 
  23      6400003E 
  23      9901
  24 0027 91       		.ascii	"\221"
  25              		.text
  26              		.section	.gnu.lto_.pureconst.4f653539aa076ba7,"",%progbits
  27 0000 789C6362 		.ascii	"x\234cb`b`f\200\000F\006\011\000\000\203\000!"
  27      60626066 
  27      80004606 
  27      09000083 
  27      0021
  28              		.text
  29              		.section	.gnu.lto_halInit.4f653539aa076ba7,"",%progbits
  30 0000 789C6362 		.ascii	"x\234cb`b@\007\222@\354\311\310\300 \003\244\031\231"
  30      60624007 
  30      9240ECC9 
  30      C8C02003 
  30      A41999
  31 0013 19189926 		.ascii	"\031\030\231&\234c`h\344`bd\0041\030\030\031\352\231"
  31      9C636068 
  31      E4606264 
  31      04311818 
  31      19EA99
ARM GAS  /var/folders/c6/c789hm653lg9vtl73krp73tm0000gn/T//ccv6ChYV.s 			page 2


  32 0026 18EB2319 		.ascii	"\030\353#\031\301j\3273\035x\360\377\377\272\017\033"
  32      C16AD733 
  32      1D78F0FF 
  32      FFBA0F1B 
  33 0036 1FCE6614 		.ascii	"\037\316f\024\342\000\012\2602\26444LP``H\006+\010\001"
  33      E2000AB0 
  33      32B43434 
  33      4C506060 
  33      48062B08 
  34 004b 92205DA1 		.ascii	"\222 ]\241\214L \232\371<C\363\203\177v\211\214\013"
  34      8C4C209A 
  34      F93C43F3 
  34      837F7689 
  34      8C0B
  35 005d 195981B2 		.ascii	"\031Y\201\262\325\014\277\032:\032\0042\031\201\252"
  35      D50CBF1A 
  35      3A1A0432 
  35      1981AA
  36 006c 21E66582 		.ascii	"!\346e\202\350\363\014-\017:\2231\0241%3B\034\013\022"
  36      E8F30C2D 
  36      0F3A9331 
  36      14312533 
  36      421C0B12 
  37 0080 91C86464 		.ascii	"\221\310dd\316ed\200*\312dd\001ik~pj1\0336\303\231\221"
  37      CE656480 
  37      2ACA6464 
  37      01696B7E 
  37      706A311B 
  38 0098 0D6F7E70 		.ascii	"\015o~p\3570VU,\250\252\272Z\331\261\251bEU5s)V\263"
  38      EF305655 
  38      2CA8AABA 
  38      5AD9B1A9 
  38      62455535 
  39 00b0 D810AA2E 		.ascii	"\330\020\252.24>\230\255\012S\004\001!@\011`x\200\374"
  39      32343E98 
  39      AD0A5304 
  39      01214009 
  39      607880FC 
  40 00c4 23A5A7A7 		.ascii	"#\245\247\247\017A\371\305\372\031\2119\372\305E\311"
  40      0F41F9C5 
  40      FA198939 
  40      FAC545C9 
  41 00d4 205A2F99 		.ascii	" Z/\231\001\000\362\013Y:"
  41      0100F20B 
  41      593A
  42              		.text
  43              		.section	.gnu.lto_.symbol_nodes.4f653539aa076ba7,"",%progbits
  44 0000 789C45C8 		.ascii	"x\234E\310\313\015\2030\020\204\341\3311\206\262\007"
  44      CB0D8330 
  44      1084E1D9 
  44      3186B207 
  45 0010 89105E17 		.ascii	"\211\020^\027\012@\\(\205{j\000\321G\2041\010\357\345"
  45      0A405C28 
  45      857B6A00 
  45      D1478431 
  45      08EFE5
  46 0023 DB7F0862 		.ascii	"\333\177\010b\302s\374P\300\370\003\244\2715\3370|\260"
ARM GAS  /var/folders/c6/c789hm653lg9vtl73krp73tm0000gn/T//ccv6ChYV.s 			page 3


  46      C273FC50 
  46      C0F803A4 
  46      B935DF30 
  46      7CB0
  47 0035 81B27B2D 		.ascii	"\201\262{-K\263\236b\252\216r\251Z*K\365\245|\252\232"
  47      4BB39E62 
  47      AA8E72A9 
  47      5A2A4BF5 
  47      A57CAA9A 
  48 0049 CADF7228 		.ascii	"\312\337r(Pm\377`\216%\352\261F3\034Q\207j\277$\226"
  48      506DFF60 
  48      8E25EAB1 
  48      46331C51 
  48      876ABF24 
  49 005e 204E5DB7 		.ascii	" N]\267-\031"
  49      2D19
  50              		.text
  51              		.section	.gnu.lto_.refs.4f653539aa076ba7,"",%progbits
  52 0000 789C6362 		.ascii	"x\234cb`b`e\200\000F\006&F\006\000\000\237\000\016"
  52      60626065 
  52      80004606 
  52      26460600 
  52      009F000E 
  53              		.text
  54              		.section	.gnu.lto_.decls.4f653539aa076ba7,"",%progbits
  55 0000 789CAD96 		.ascii	"x\234\255\226kL\034U\024\307\317\335\345\265\202\324"
  55      6B4C1C55 
  55      14C7CFDD 
  55      E5B582D4 
  56 0010 90D8585F 		.ascii	"\220\330X_]L\332\017\2150\224bRc\322\244BKIP\210\265"
  56      5D4CDA0F 
  56      8D309462 
  56      5263D2A4 
  56      424B4950 
  57 0026 8D262693 		.ascii	"\215&&\223aw\200M\226\235\315\314\254\251\237\274\240"
  57      6177804D 
  57      969DCDCC 
  57      ACA99FBC 
  57      A0
  58 0037 21A41A43 		.ascii	"!\244\032CA\255XB\026\005K\265jScC\032\254k\011\221"
  58      41AD5842 
  58      16054BB5 
  58      6A536343 
  58      1AAC6B09 
  59 004c DA742D49 		.ascii	"\332t-IQ\254\332.\202-\375\240\222\350\007\2155\353"
  59      51ACDA2E 
  59      822DFDA0 
  59      92E8078D 
  59      35EB
  60 005e 7DCCB233 		.ascii	"}\314\26230\003C\364f\317\271\2633\347\376\316\377\336"
  60      300343F4 
  60      66CFB9B3 
  60      33E7FECE 
  60      FFDE
  61 0070 7BE6E101 		.ascii	"{\346\341\001\017\364\003@\232\264\367\013\001>\361"
  61      0FF40340 
  61      9AB4F70B 
ARM GAS  /var/folders/c6/c789hm653lg9vtl73krp73tm0000gn/T//ccv6ChYV.s 			page 4


  61      013EF1
  62 007f 003903B0 		.ascii	"\0009\003\260\213\030\"6\010\274\345\023\273Bl\206\330"
  62      8B182236 
  62      08BCE513 
  62      BB426C86 
  62      D8
  63 0090 55623F10 		.ascii	"Ub?\020\273F,El\336\210\275\001\326F\343s\211-\020\233"
  63      BB462C45 
  63      6CDE88BD 
  63      01D646E3 
  63      73892D10 
  64 00a5 2676CBE0 		.ascii	"&v\313\340\315.c\316\033\234k\006\367\252\221\307\216"
  64      CD2E63CE 
  64      1B9C6B06 
  64      F7AA91C7 
  64      8E
  65 00b6 59088731 		.ascii	"Y\010\2071\356\300\361N\274o\262\270\004\216`\322\342"
  65      EEC0F14E 
  65      BC6FB2B8 
  65      048E60D2 
  65      E2
  66 00c7 18A3C962 		.ascii	"\030\243\311b\200g\220\204\212}\220\332\300\216\212"
  66      80679084 
  66      8A7D90DA 
  66      C08E8A
  67 00d6 7C709B12 		.ascii	"|p\233\022\266\300\020\306\335\251\211\364&\234c\014"
  67      B6C010C6 
  67      DDA989F4 
  67      269C630C 
  68 00e6 F03B474B 		.ascii	"\360;GK\350]\264\005\326\216\243\221\303\250\004\266"
  68      E85DB405 
  68      D68EA391 
  68      C3A804B6 
  69 00f6 C10912D8 		.ascii	"\301\011\022\330M4\335g\321\311\262\342\304\357\311"
  69      4D34DD67 
  69      D1C9B2E2 
  69      C4EFC9
  70 0105 229CC323 		.ascii	"\"\234\303#\351\210\367\3206\260i\245\020\247\301\177"
  70      E988F7D0 
  70      36B069A5 
  70      10A7C17F 
  71 0115 25FB118E 		.ascii	"%\373\021\216\237Gv\331Q&\373\375KSJL%\221_B'H\274\007"
  71      9F4776D9 
  71      5126FBFD 
  71      4B534A4C 
  71      25915F42 
  72 012d 1E4316FC 		.ascii	"\036C\026\374\232\010\252\346$\031\311\007\031j{\271"
  72      9A08AAE6 
  72      2419C907 
  72      196A7BB9 
  73 013d DA932ED4 		.ascii	"\332\223.\324v$\216&\3737Q\265>\350\312\356\310R6\177"
  73      76248E26 
  73      FB3751B5 
  73      3EE8CAEE 
  73      C852367F 
  74 0151 26594E76 		.ascii	"&YNv\013>\353\234\370\002u\220\315\222\320\307d\230"
  74      0B3EEB9C 
ARM GAS  /var/folders/c6/c789hm653lg9vtl73krp73tm0000gn/T//ccv6ChYV.s 			page 5


  74      F8027590 
  74      CD92D0C7 
  74      6498
  75 0163 078E21AB 		.ascii	"\007\216!\253j\367\250\276W\306\036\305\270@B\247\031"
  75      6AF7A8BE 
  75      57C61EC5 
  75      B84042A7 
  75      19
  76 0174 A8DD6305 		.ascii	"\250\335c\005I(\337g\226\314\376g\002(\215]6\016h\351"
  76      4928DF67 
  76      96CCFE67 
  76      02288D5D 
  76      360E68E9 
  77 0188 6F80F586 		.ascii	"o\200\365\206{\340U\226\224.\226\235P\343\2207#\300"
  77      7BE05596 
  77      942E969D 
  77      50E39037 
  77      23C0
  78 019a B280A9A1 		.ascii	"\262\200\251\241\271\013\010\367\024e\026\243g\3358"
  78      B90B08F7 
  78      146516A3 
  78      67DD38
  79 01a9 BF653F06 		.ascii	"\277e?\006\222E\335R\006\326\347\006V\340\250-q\332"
  79      9245DD52 
  79      06D6E706 
  79      56E0A82D 
  79      71DA
  80 01bb 0C1B5C37 		.ascii	"\014\033\\7\314\252\354\214\031v\334\015\354.geg\315"
  80      CCAAEC8C 
  80      1976DC0D 
  80      EC2E6765 
  80      67CD
  81 01cd B00FD60D 		.ascii	"\260\017\326\015\263*;g\206\235r\003\273\307F\231]3"
  81      B32A3B67 
  81      869D7203 
  81      BBC74699 
  81      5D33
  82 01df DF5D12FA 		.ascii	"\337]\022\372\220<S$\364\021*%\376\014\363\243\314\237"
  82      903C5324 
  82      F4112A25 
  82      FE0CF3A3 
  82      CC9F
  83 01f1 657E8CF9 		.ascii	"e~\214\371s\314'\210_j\036\370\224i\032\316j\262\336"
  83      73CC2788 
  83      5F6A1EF8 
  83      94691ACE 
  83      6AB2DE
  84 0204 C56B1519 		.ascii	"\305k\025\031Nt7\320\011\362g\304\230+\230e\206~\013"
  84      4E7437D0 
  84      09F267C4 
  84      982B9865 
  84      867E0B
  85 0217 EC2D136C 		.ascii	"\354-\023l\334\025l\247\263\262S&\330W\256`\215\316"
  85      DC156CA7 
  85      B3B25326 
  85      D857AE60 
  85      8DCE
ARM GAS  /var/folders/c6/c789hm653lg9vtl73krp73tm0000gn/T//ccv6ChYV.s 			page 6


  86 0229 CA464DB0 		.ascii	"\312FM\260)W\260\250\263\262\313&\330\214+X\027r\226"
  86      2957B0A8 
  86      B3B2CB26 
  86      D88C2B58 
  86      177296
  87 023c 3663A25D 		.ascii	"6c\242]wE\033A\316\332\026M\264\033\256h\211U\264\375"
  87      77451B41 
  87      CEDA164D 
  87      B41BAE68 
  87      8955B4FD 
  88 0250 69A2FDE2 		.ascii	"i\242\375\342\212\226\262\323f\252z^\357\307Y\275\217"
  88      8A96B2D3 
  88      66AA7A5E 
  88      EFC759BD 
  88      8F
  89 0261 B08A1E67 		.ascii	"\260\212\036g~\202\371/\231\277\300\374E\346/1\3775"
  89      7E82F92F 
  89      99BFC0FC 
  89      45E62F31 
  89      FF35
  90 0273 F353D6DA 		.ascii	"\363S\326\332\377c\305C\235\277FM\331\206\227\3561\370"
  90      FF63C543 
  90      9DBF464D 
  90      D98697EE 
  90      31F8
  91 0285 AFF9ECEE 		.ascii	"\257\371\354\356y\012\035D\205\231\220\3150\200\343"
  91      790A1D44 
  91      859990CD 
  91      3080E3
  92 0294 A9D43F47 		.ascii	"\251\324?G\307\362\372p\342e\234N\277\010\033\341\015"
  92      C7F2FA70 
  92      E2659C4E 
  92      BF081BE1 
  92      0D
  93 02a5 F609D249 		.ascii	"\366\011\322I^k\272\204v\335\355\010\232F\033\215\243"
  93      5E6BBA84 
  93      76DDED08 
  93      9A461B8D 
  93      A3
  94 02b6 03DECC14 		.ascii	"\003\336\314\024\373\274\326)\002l\205a\312\303#\330"
  94      FBBCD629 
  94      026C8561 
  94      CAC323D8 
  95 02c6 CB6834FE 		.ascii	"\313h4\376\012\332l\235\3667\310c>Au\245\272S\275\307"
  95      0ADA6C9D 
  95      F637C863 
  95      3E4175A5 
  95      BA53BDC7 
  96 02da BE6D4747 		.ascii	"\276mGG^\212O\342E\372\206\342\031=\360\371\212\034"
  96      5E8A4FE2 
  96      45FA86E2 
  96      193DF0F9 
  96      8A1C
  97 02ec 1CF29D2D 		.ascii	"\034\362\235-\244\177\340\322\303}\370<\237\\\006\361"
  97      A47FE0D2 
  97      C37DF83C 
  97      9F5C06F1 
ARM GAS  /var/folders/c6/c789hm653lg9vtl73krp73tm0000gn/T//ccv6ChYV.s 			page 7


  98 02fc B703E27B 		.ascii	"\267\003\342{[\304\333?-\274f\243c(\307\036\362\243"
  98      5BC4DB3F 
  98      2DBC66A3 
  98      6328C71E 
  98      F2A3
  99 030e 2D64746E 		.ascii	"-dtn\261~\205\216\244\003\342\272-b\376\267\213\250"
  99      B17E858E 
  99      A403E2BA 
  99      2D62FEB7 
  99      8BA8
 100 0320 AB07DF4E 		.ascii	"\253\007\337N\247\275\353\330\246Yc\233\274\3543\330"
 100      A7BDEBD8 
 100      A659639B 
 100      BCEC33D8 
 101 0330 2880EC9E 		.ascii	"(\200\354\236\261m\233v\3201g\253\343\315\233\227\017"
 101      B16D9B76 
 101      D03167AB 
 101      E3CD9B97 
 101      0F
 102 0341 A3DE15EB 		.ascii	"\243\336\025\353\361z\256=\344g+\344!\030\304\213\344"
 102      F17AAE3D 
 102      E4672BE4 
 102      2118C48B 
 102      E4
 103 0352 F3F5D771 		.ascii	"\363\365\327qo;]\017:\037D$\277\303n\332\301%\210\363"
 103      6F3B5D0F 
 103      3A1F4424 
 103      BFC36EDA 
 103      C12588F3 
 104 0366 67EACD2C 		.ascii	"g\352\315,\320\362\365\314\2058\255\303B\266\356\227"
 104      D0F2F5CC 
 104      8538ADC3 
 104      42B6EE97 
 105 0376 8D9A5D65 		.ascii	"\215\232]e\324\255\354(\330^^.\360\237\242\011\255R"
 105      D4ADEC28 
 105      D85E5E2E 
 105      F09FA209 
 105      AD52
 106 0388 58882AAA 		.ascii	"X\210*\252\256\011\373\237~bG\245P__#\3246\3265<_)D"
 106      AE09FB9F 
 106      7E6247A5 
 106      505F5F23 
 106      D436D635 
 107 03a0 A5B0180E 		.ascii	"\245\260\030\016\007\313[!\257\366\311\003\376j(\321"
 107      07CB5B21 
 107      AFF6C903 
 107      FE6A28D1 
 108 03b0 F4B61D95 		.ascii	"\364\266\035\225bK4\244\210\232\254\307\242\242^/\304"
 108      624B34A4 
 108      889AACC7 
 108      A2A25E2F 
 108      C4
 109 03c1 3455082B 		.ascii	"4U\010+\001\202\251\226\303aI\025Z\002\2012Im+\213("
 109      0182A996 
 109      C3614915 
 109      5A028132 
 109      496D2B8B 
ARM GAS  /var/folders/c6/c789hm653lg9vtl73krp73tm0000gn/T//ccv6ChYV.s 			page 8


 110 03d6 11B94C96 		.ascii	"\021\271L\226\232BBe\305\366\252\212\235\025\217\010"
 110      9A424265 
 110      C5F6AA8A 
 110      9D158F08 
 111 03e6 D6D3A148 		.ascii	"\326\323\241H \034\013\312\202\246\007C\021\235\244"
 111      201C0BCA 
 111      82A60743 
 111      119DA4
 112 03f5 2988919E 		.ascii	")\210\221\236$\320\237\373\037\250mR\2405\024\221\005"
 112      24D09FFB 
 112      1FA86D52 
 112      A0351491 
 112      05
 113 0406 3128374B 		.ascii	"1(7K\261\260.\352/De\215d\271C\0243yr\333\224\240\254"
 113      B1B02EEA 
 113      2F44658D 
 113      64B94314 
 113      337972DB 
 114 041d E629F492 		.ascii	"\346)\364\222\232\257hQY\016\252\271\321X4\250z\225"
 114      9AAF6851 
 114      590EAAB9 
 114      D15834A8 
 114      7A95
 115 042f A09A2335 		.ascii	"\240\232#5\253a\352Z\363\032w\327H\272\224\327\3708"
 115      AB61EA5A 
 115      F31A77D7 
 115      48BA94D7 
 115      F838
 116 0441 EFAA7957 		.ascii	"\357\252yW\303\273=\274\333\313\273Z\336\355\343]\035"
 116      C3BB3DBC 
 116      DBCBBB5A 
 116      DEEDE35D 
 116      1D
 117 0452 ED7C8DBB 		.ascii	"\355|\215\273\353\253\225Hs\250\345\336\345k\257\251"
 117      EBAB9548 
 117      73A8E5DE 
 117      E56BAFA9 
 118 0462 01DA9707 		.ascii	"\001\332\227\007 \237tu\221\220\376\300\362\220\354"
 118      209F7475 
 118      9190FEC0 
 118      F290EC
 119 0471 3AD1ADD0 		.ascii	":\321\255\320t\032T\265<\250I\221\324 \335D\221\355"
 119      741A54B5 
 119      3CA84991 
 119      D420DD44 
 119      91ED
 120 0483 E3DE2AB1 		.ascii	"\343\336*\261\246n\177u\303\301=O=\313\257\221\261>"
 120      A66E7F75 
 120      C3C13D4F 
 120      3DCBAF91 
 120      B13E
 121 0495 7640873F 		.ascii	"v@\207?\350\224#\2465\221\300|\322\321\260RG)\262\032"
 121      E89423A6 
 121      3591C07C 
 121      D2D1B052 
 121      4729B21A 
 122 04a9 22A2A91C 		.ascii	"\"\242\251\034\306\273S4\212E\014\221\177\025\253\025"
ARM GAS  /var/folders/c6/c789hm653lg9vtl73krp73tm0000gn/T//ccv6ChYV.s 			page 9


 122      C6BB5334 
 122      8A450C91 
 122      7F15AB15 
 123 04b9 9821EFD0 		.ascii	"\230!\357\320!z\305\250\257\242V\323\350\022\212\312"
 123      217AC5A8 
 123      AFA256D3 
 123      E8128ACA 
 124 04c9 6C5A80AD 		.ascii	"lZ\200\255\332\277\230\354 \377"
 124      DABF98EC 
 124      20FF
 125              		.text
 126              		.section	.gnu.lto_.symtab.4f653539aa076ba7,"",%progbits
 127 0000 68616C49 		.ascii	"halInit\000\000\000\000\000\000\000\000\000\000\000"
 127      6E697400 
 127      00000000 
 127      00000000 
 127      0000
 128 0012 00D40000 		.ascii	"\000\324\000\000\000pal_default_config\000\000\002\000"
 128      0070616C 
 128      5F646566 
 128      61756C74 
 128      5F636F6E 
 129 002d 00000000 		.ascii	"\000\000\000\000\000\000\000\000\346\000\000\000stI"
 129      00000000 
 129      E6000000 
 129      737449
 130 003c 6E697400 		.ascii	"nit\000\000\002\000\000\000\000\000\000\000\000\000"
 130      00020000 
 130      00000000 
 130      000000
 131 004b D8000000 		.ascii	"\330\000\000\000boardInit\000\000\002\000\000\000\000"
 131      626F6172 
 131      64496E69 
 131      74000002 
 131      00000000 
 132 005f 00000000 		.ascii	"\000\000\000\000\000\332\000\000\000usbInit\000\000"
 132      00DA0000 
 132      00757362 
 132      496E6974 
 132      0000
 133 0071 02000000 		.ascii	"\002\000\000\000\000\000\000\000\000\000\334\000\000"
 133      00000000 
 133      0000DC00 
 133      00
 134 007e 00736449 		.ascii	"\000sdInit\000\000\002\000\000\000\000\000\000\000\000"
 134      6E697400 
 134      00020000 
 134      00000000 
 134      0000
 135 0090 00DE0000 		.ascii	"\000\336\000\000\000_pal_lld_init\000\000\002\000\000"
 135      005F7061 
 135      6C5F6C6C 
 135      645F696E 
 135      69740000 
 136 00a7 00000000 		.ascii	"\000\000\000\000\000\000\000\340\000\000\000hal_lld"
 136      000000E0 
 136      00000068 
ARM GAS  /var/folders/c6/c789hm653lg9vtl73krp73tm0000gn/T//ccv6ChYV.s 			page 10


 136      616C5F6C 
 136      6C64
 137 00b9 5F696E69 		.ascii	"_init\000\000\002\000\000\000\000\000\000\000\000\000"
 137      74000002 
 137      00000000 
 137      00000000 
 137      00
 138 00ca E4000000 		.ascii	"\344\000\000\000"
 139              		.text
 140              		.section	.gnu.lto_.opts,"",%progbits
 141 0000 272D6D63 		.ascii	"'-mcpu=cortex-m4' '-mno-thumb-interwork' '-mthumb' "
 141      70753D63 
 141      6F727465 
 141      782D6D34 
 141      2720272D 
 142 0033 272D6767 		.ascii	"'-ggdb' '-O2' '-fomit-frame-pointer' '-falign-funct"
 142      64622720 
 142      272D4F32 
 142      2720272D 
 142      666F6D69 
 143 0066 696F6E73 		.ascii	"ions=16' '-ffunction-sections' '-fdata-sections' '-"
 143      3D313627 
 143      20272D66 
 143      66756E63 
 143      74696F6E 
 144 0099 666E6F2D 		.ascii	"fno-common' '-flto'\000"
 144      636F6D6D 
 144      6F6E2720 
 144      272D666C 
 144      746F2700 
 145              		.text
 146              		.cfi_sections	.debug_frame
 147              		.section	.text.halInit,"ax",%progbits
 148              		.align	2
 149              		.p2align 4,,15
 150              		.global	halInit
 151              		.thumb
 152              		.thumb_func
 153              		.type	halInit, %function
 154              	halInit:
 155              	.LFB260:
 156              		.file 1 "../../../os/hal/src/hal.c"
 157              		.loc 1 56 0
 158              		.cfi_startproc
 159              		@ args = 0, pretend = 0, frame = 0
 160              		@ frame_needed = 0, uses_anonymous_args = 0
 161 0000 08B5     		push	{r3, lr}
 162              		.cfi_def_cfa_offset 8
 163              		.cfi_offset 3, -8
 164              		.cfi_offset 14, -4
 165              		.loc 1 62 0
 166 0002 FFF7FEFF 		bl	hal_lld_init
 167              	.LVL0:
 168              		.loc 1 65 0
 169 0006 0648     		ldr	r0, .L2
 170 0008 FFF7FEFF 		bl	_pal_lld_init
 171              	.LVL1:
ARM GAS  /var/folders/c6/c789hm653lg9vtl73krp73tm0000gn/T//ccv6ChYV.s 			page 11


 172              		.loc 1 98 0
 173 000c FFF7FEFF 		bl	sdInit
 174              	.LVL2:
 175              		.loc 1 110 0
 176 0010 FFF7FEFF 		bl	usbInit
 177              	.LVL3:
 178              		.loc 1 130 0
 179 0014 FFF7FEFF 		bl	boardInit
 180              	.LVL4:
 181              		.loc 1 139 0
 182 0018 BDE80840 		pop	{r3, lr}
 183              		.loc 1 137 0
 184 001c FFF7FEBF 		b	stInit
 185              	.LVL5:
 186              	.L3:
 187              		.align	2
 188              	.L2:
 189 0020 00000000 		.word	pal_default_config
 190              		.cfi_endproc
 191              	.LFE260:
 192              		.size	halInit, .-halInit
 193 0024 AFF30080 		.text
 193      AFF30080 
 193      AFF30080 
 194              	.Letext0:
 195              		.file 2 "/usr/local/Cellar/gcc-arm-none-eabi/20140805/arm-none-eabi/include/machine/_default_types
 196              		.file 3 "/usr/local/Cellar/gcc-arm-none-eabi/20140805/arm-none-eabi/include/stdint.h"
 197              		.file 4 "../../../os/rt/ports/ARMCMx/compilers/GCC/chtypes.h"
 198              		.file 5 "../../../os/rt/include/chsystypes.h"
 199              		.file 6 "../../../os/rt/include/chschd.h"
 200              		.file 7 "../../../os/rt/ports/ARMCMx/chcore.h"
 201              		.file 8 "../../../os/rt/ports/ARMCMx/chcore_v7m.h"
 202              		.file 9 "../../../os/rt/include/chtm.h"
 203              		.file 10 "../../../os/rt/include/chsem.h"
 204              		.file 11 "../../../os/rt/include/chmtx.h"
 205              		.file 12 "../../../os/hal/ports/STM32/LLD/GPIOv2/pal_lld.h"
 206              		.file 13 "../../../os/ext/CMSIS/include/core_cm4.h"
 207              		.file 14 "../../../os/hal/ports/STM32/STM32F4xx/hal_lld.h"
 208              		.file 15 "../../../os/hal/include/serial.h"
 209              		.file 16 "../../../os/hal/include/usb.h"
 210              		.file 17 "../../../os/hal/boards/ST_STM32F4_DISCOVERY/board.h"
 211              		.file 18 "../../../os/hal/include/st.h"
 212              		.file 19 "../../../os/hal/osal/rt/osal.h"
 213              		.section	.debug_info,"",%progbits
 214              	.Ldebug_info0:
 215 0000 C3070000 		.4byte	0x7c3
 216 0004 0400     		.2byte	0x4
 217 0006 00000000 		.4byte	.Ldebug_abbrev0
 218 000a 04       		.byte	0x4
 219 000b 01       		.uleb128 0x1
 220 000c 23050000 		.4byte	.LASF126
 221 0010 01       		.byte	0x1
 222 0011 28010000 		.4byte	.LASF127
 223 0015 FD030000 		.4byte	.LASF128
 224 0019 00000000 		.4byte	.Ldebug_ranges0+0
 225 001d 00000000 		.4byte	0
 226 0021 00000000 		.4byte	.Ldebug_line0
ARM GAS  /var/folders/c6/c789hm653lg9vtl73krp73tm0000gn/T//ccv6ChYV.s 			page 12


 227 0025 02       		.uleb128 0x2
 228 0026 04       		.byte	0x4
 229 0027 05       		.byte	0x5
 230 0028 696E7400 		.ascii	"int\000"
 231 002c 03       		.uleb128 0x3
 232 002d 04       		.byte	0x4
 233 002e 07       		.byte	0x7
 234 002f 96010000 		.4byte	.LASF0
 235 0033 03       		.uleb128 0x3
 236 0034 01       		.byte	0x1
 237 0035 06       		.byte	0x6
 238 0036 E3000000 		.4byte	.LASF1
 239 003a 04       		.uleb128 0x4
 240 003b 3D000000 		.4byte	.LASF5
 241 003f 02       		.byte	0x2
 242 0040 1C       		.byte	0x1c
 243 0041 45000000 		.4byte	0x45
 244 0045 03       		.uleb128 0x3
 245 0046 01       		.byte	0x1
 246 0047 08       		.byte	0x8
 247 0048 27030000 		.4byte	.LASF2
 248 004c 03       		.uleb128 0x3
 249 004d 02       		.byte	0x2
 250 004e 05       		.byte	0x5
 251 004f 4A030000 		.4byte	.LASF3
 252 0053 03       		.uleb128 0x3
 253 0054 02       		.byte	0x2
 254 0055 07       		.byte	0x7
 255 0056 D4010000 		.4byte	.LASF4
 256 005a 04       		.uleb128 0x4
 257 005b 2C020000 		.4byte	.LASF6
 258 005f 02       		.byte	0x2
 259 0060 37       		.byte	0x37
 260 0061 65000000 		.4byte	0x65
 261 0065 03       		.uleb128 0x3
 262 0066 04       		.byte	0x4
 263 0067 05       		.byte	0x5
 264 0068 0F010000 		.4byte	.LASF7
 265 006c 04       		.uleb128 0x4
 266 006d 83040000 		.4byte	.LASF8
 267 0071 02       		.byte	0x2
 268 0072 38       		.byte	0x38
 269 0073 77000000 		.4byte	0x77
 270 0077 03       		.uleb128 0x3
 271 0078 04       		.byte	0x4
 272 0079 07       		.byte	0x7
 273 007a EB030000 		.4byte	.LASF9
 274 007e 03       		.uleb128 0x3
 275 007f 08       		.byte	0x8
 276 0080 05       		.byte	0x5
 277 0081 D5000000 		.4byte	.LASF10
 278 0085 04       		.uleb128 0x4
 279 0086 CE020000 		.4byte	.LASF11
 280 008a 02       		.byte	0x2
 281 008b 4E       		.byte	0x4e
 282 008c 90000000 		.4byte	0x90
 283 0090 03       		.uleb128 0x3
ARM GAS  /var/folders/c6/c789hm653lg9vtl73krp73tm0000gn/T//ccv6ChYV.s 			page 13


 284 0091 08       		.byte	0x8
 285 0092 07       		.byte	0x7
 286 0093 69000000 		.4byte	.LASF12
 287 0097 04       		.uleb128 0x4
 288 0098 F7040000 		.4byte	.LASF13
 289 009c 03       		.byte	0x3
 290 009d 2A       		.byte	0x2a
 291 009e 3A000000 		.4byte	0x3a
 292 00a2 04       		.uleb128 0x4
 293 00a3 1F030000 		.4byte	.LASF14
 294 00a7 03       		.byte	0x3
 295 00a8 41       		.byte	0x41
 296 00a9 5A000000 		.4byte	0x5a
 297 00ad 04       		.uleb128 0x4
 298 00ae BA030000 		.4byte	.LASF15
 299 00b2 03       		.byte	0x3
 300 00b3 42       		.byte	0x42
 301 00b4 6C000000 		.4byte	0x6c
 302 00b8 04       		.uleb128 0x4
 303 00b9 34000000 		.4byte	.LASF16
 304 00bd 03       		.byte	0x3
 305 00be 4E       		.byte	0x4e
 306 00bf 85000000 		.4byte	0x85
 307 00c3 05       		.uleb128 0x5
 308 00c4 A2000000 		.4byte	0xa2
 309 00c8 04       		.uleb128 0x4
 310 00c9 B4040000 		.4byte	.LASF17
 311 00cd 04       		.byte	0x4
 312 00ce 45       		.byte	0x45
 313 00cf AD000000 		.4byte	0xad
 314 00d3 04       		.uleb128 0x4
 315 00d4 0A020000 		.4byte	.LASF18
 316 00d8 04       		.byte	0x4
 317 00d9 48       		.byte	0x48
 318 00da 97000000 		.4byte	0x97
 319 00de 04       		.uleb128 0x4
 320 00df 1F010000 		.4byte	.LASF19
 321 00e3 04       		.byte	0x4
 322 00e4 49       		.byte	0x49
 323 00e5 97000000 		.4byte	0x97
 324 00e9 04       		.uleb128 0x4
 325 00ea D9020000 		.4byte	.LASF20
 326 00ee 04       		.byte	0x4
 327 00ef 4A       		.byte	0x4a
 328 00f0 97000000 		.4byte	0x97
 329 00f4 04       		.uleb128 0x4
 330 00f5 01030000 		.4byte	.LASF21
 331 00f9 04       		.byte	0x4
 332 00fa 4C       		.byte	0x4c
 333 00fb AD000000 		.4byte	0xad
 334 00ff 04       		.uleb128 0x4
 335 0100 F8010000 		.4byte	.LASF22
 336 0104 04       		.byte	0x4
 337 0105 4D       		.byte	0x4d
 338 0106 A2000000 		.4byte	0xa2
 339 010a 04       		.uleb128 0x4
 340 010b 20020000 		.4byte	.LASF23
ARM GAS  /var/folders/c6/c789hm653lg9vtl73krp73tm0000gn/T//ccv6ChYV.s 			page 14


 341 010f 04       		.byte	0x4
 342 0110 4F       		.byte	0x4f
 343 0111 AD000000 		.4byte	0xad
 344 0115 04       		.uleb128 0x4
 345 0116 90010000 		.4byte	.LASF24
 346 011a 04       		.byte	0x4
 347 011b 51       		.byte	0x51
 348 011c A2000000 		.4byte	0xa2
 349 0120 04       		.uleb128 0x4
 350 0121 65040000 		.4byte	.LASF25
 351 0125 05       		.byte	0x5
 352 0126 33       		.byte	0x33
 353 0127 AD000000 		.4byte	0xad
 354 012b 04       		.uleb128 0x4
 355 012c 55040000 		.4byte	.LASF26
 356 0130 05       		.byte	0x5
 357 0131 3F       		.byte	0x3f
 358 0132 36010000 		.4byte	0x136
 359 0136 06       		.uleb128 0x6
 360 0137 EE010000 		.4byte	.LASF46
 361 013b 44       		.byte	0x44
 362 013c 06       		.byte	0x6
 363 013d C2       		.byte	0xc2
 364 013e 23020000 		.4byte	0x223
 365 0142 07       		.uleb128 0x7
 366 0143 7B030000 		.4byte	.LASF27
 367 0147 06       		.byte	0x6
 368 0148 C3       		.byte	0xc3
 369 0149 2E020000 		.4byte	0x22e
 370 014d 00       		.byte	0
 371 014e 07       		.uleb128 0x7
 372 014f F1020000 		.4byte	.LASF28
 373 0153 06       		.byte	0x6
 374 0154 C5       		.byte	0xc5
 375 0155 2E020000 		.4byte	0x22e
 376 0159 04       		.byte	0x4
 377 015a 07       		.uleb128 0x7
 378 015b CE000000 		.4byte	.LASF29
 379 015f 06       		.byte	0x6
 380 0160 C7       		.byte	0xc7
 381 0161 F4000000 		.4byte	0xf4
 382 0165 08       		.byte	0x8
 383 0166 07       		.uleb128 0x7
 384 0167 35060000 		.4byte	.LASF30
 385 016b 06       		.byte	0x6
 386 016c C8       		.byte	0xc8
 387 016d 5E040000 		.4byte	0x45e
 388 0171 0C       		.byte	0xc
 389 0172 07       		.uleb128 0x7
 390 0173 42010000 		.4byte	.LASF31
 391 0177 06       		.byte	0x6
 392 0178 CA       		.byte	0xca
 393 0179 2E020000 		.4byte	0x22e
 394 017d 10       		.byte	0x10
 395 017e 07       		.uleb128 0x7
 396 017f 91020000 		.4byte	.LASF32
 397 0183 06       		.byte	0x6
ARM GAS  /var/folders/c6/c789hm653lg9vtl73krp73tm0000gn/T//ccv6ChYV.s 			page 15


 398 0184 CB       		.byte	0xcb
 399 0185 2E020000 		.4byte	0x22e
 400 0189 14       		.byte	0x14
 401 018a 07       		.uleb128 0x7
 402 018b 06050000 		.4byte	.LASF33
 403 018f 06       		.byte	0x6
 404 0190 D2       		.byte	0xd2
 405 0191 DD050000 		.4byte	0x5dd
 406 0195 18       		.byte	0x18
 407 0196 07       		.uleb128 0x7
 408 0197 54030000 		.4byte	.LASF34
 409 019b 06       		.byte	0x6
 410 019c DD       		.byte	0xdd
 411 019d DE000000 		.4byte	0xde
 412 01a1 1C       		.byte	0x1c
 413 01a2 07       		.uleb128 0x7
 414 01a3 82030000 		.4byte	.LASF35
 415 01a7 06       		.byte	0x6
 416 01a8 E1       		.byte	0xe1
 417 01a9 D3000000 		.4byte	0xd3
 418 01ad 1D       		.byte	0x1d
 419 01ae 07       		.uleb128 0x7
 420 01af DC040000 		.4byte	.LASF36
 421 01b3 06       		.byte	0x6
 422 01b4 E6       		.byte	0xe6
 423 01b5 E9000000 		.4byte	0xe9
 424 01b9 1E       		.byte	0x1e
 425 01ba 08       		.uleb128 0x8
 426 01bb 705F7500 		.ascii	"p_u\000"
 427 01bf 06       		.byte	0x6
 428 01c0 3101     		.2byte	0x131
 429 01c2 18050000 		.4byte	0x518
 430 01c6 20       		.byte	0x20
 431 01c7 09       		.uleb128 0x9
 432 01c8 48020000 		.4byte	.LASF37
 433 01cc 06       		.byte	0x6
 434 01cd 3601     		.2byte	0x136
 435 01cf 34020000 		.4byte	0x234
 436 01d3 24       		.byte	0x24
 437 01d4 09       		.uleb128 0x9
 438 01d5 B2010000 		.4byte	.LASF38
 439 01d9 06       		.byte	0x6
 440 01da 3C01     		.2byte	0x13c
 441 01dc 58020000 		.4byte	0x258
 442 01e0 28       		.byte	0x28
 443 01e1 09       		.uleb128 0x9
 444 01e2 03060000 		.4byte	.LASF39
 445 01e6 06       		.byte	0x6
 446 01e7 4001     		.2byte	0x140
 447 01e9 FF000000 		.4byte	0xff
 448 01ed 30       		.byte	0x30
 449 01ee 09       		.uleb128 0x9
 450 01ef AF030000 		.4byte	.LASF40
 451 01f3 06       		.byte	0x6
 452 01f4 4601     		.2byte	0x146
 453 01f6 0A010000 		.4byte	0x10a
 454 01fa 34       		.byte	0x34
ARM GAS  /var/folders/c6/c789hm653lg9vtl73krp73tm0000gn/T//ccv6ChYV.s 			page 16


 455 01fb 09       		.uleb128 0x9
 456 01fc 40030000 		.4byte	.LASF41
 457 0200 06       		.byte	0x6
 458 0201 4D01     		.2byte	0x14d
 459 0203 D7050000 		.4byte	0x5d7
 460 0207 38       		.byte	0x38
 461 0208 09       		.uleb128 0x9
 462 0209 6F040000 		.4byte	.LASF42
 463 020d 06       		.byte	0x6
 464 020e 5101     		.2byte	0x151
 465 0210 F4000000 		.4byte	0xf4
 466 0214 3C       		.byte	0x3c
 467 0215 09       		.uleb128 0x9
 468 0216 EF000000 		.4byte	.LASF43
 469 021a 06       		.byte	0x6
 470 021b 5801     		.2byte	0x158
 471 021d 0B030000 		.4byte	0x30b
 472 0221 40       		.byte	0x40
 473 0222 00       		.byte	0
 474 0223 04       		.uleb128 0x4
 475 0224 5B020000 		.4byte	.LASF44
 476 0228 05       		.byte	0x5
 477 0229 44       		.byte	0x44
 478 022a 2E020000 		.4byte	0x22e
 479 022e 0A       		.uleb128 0xa
 480 022f 04       		.byte	0x4
 481 0230 2B010000 		.4byte	0x12b
 482 0234 04       		.uleb128 0x4
 483 0235 14050000 		.4byte	.LASF45
 484 0239 05       		.byte	0x5
 485 023a 49       		.byte	0x49
 486 023b 3F020000 		.4byte	0x23f
 487 023f 06       		.uleb128 0x6
 488 0240 DB030000 		.4byte	.LASF47
 489 0244 04       		.byte	0x4
 490 0245 06       		.byte	0x6
 491 0246 B0       		.byte	0xb0
 492 0247 58020000 		.4byte	0x258
 493 024b 07       		.uleb128 0x7
 494 024c 7B030000 		.4byte	.LASF27
 495 0250 06       		.byte	0x6
 496 0251 B1       		.byte	0xb1
 497 0252 2E020000 		.4byte	0x22e
 498 0256 00       		.byte	0
 499 0257 00       		.byte	0
 500 0258 04       		.uleb128 0x4
 501 0259 C3040000 		.4byte	.LASF48
 502 025d 05       		.byte	0x5
 503 025e 50       		.byte	0x50
 504 025f 63020000 		.4byte	0x263
 505 0263 06       		.uleb128 0x6
 506 0264 BD000000 		.4byte	.LASF49
 507 0268 08       		.byte	0x8
 508 0269 06       		.byte	0x6
 509 026a B7       		.byte	0xb7
 510 026b 88020000 		.4byte	0x288
 511 026f 07       		.uleb128 0x7
ARM GAS  /var/folders/c6/c789hm653lg9vtl73krp73tm0000gn/T//ccv6ChYV.s 			page 17


 512 0270 7B030000 		.4byte	.LASF27
 513 0274 06       		.byte	0x6
 514 0275 B8       		.byte	0xb8
 515 0276 2E020000 		.4byte	0x22e
 516 027a 00       		.byte	0
 517 027b 07       		.uleb128 0x7
 518 027c F1020000 		.4byte	.LASF28
 519 0280 06       		.byte	0x6
 520 0281 B9       		.byte	0xb9
 521 0282 2E020000 		.4byte	0x22e
 522 0286 04       		.byte	0x4
 523 0287 00       		.byte	0
 524 0288 04       		.uleb128 0x4
 525 0289 13000000 		.4byte	.LASF50
 526 028d 05       		.byte	0x5
 527 028e 57       		.byte	0x57
 528 028f 93020000 		.4byte	0x293
 529 0293 0B       		.uleb128 0xb
 530 0294 12020000 		.4byte	.LASF51
 531 0298 1C       		.byte	0x1c
 532 0299 06       		.byte	0x6
 533 029a 9001     		.2byte	0x190
 534 029c EF020000 		.4byte	0x2ef
 535 02a0 09       		.uleb128 0x9
 536 02a1 CA030000 		.4byte	.LASF52
 537 02a5 06       		.byte	0x6
 538 02a6 9101     		.2byte	0x191
 539 02a8 58020000 		.4byte	0x258
 540 02ac 00       		.byte	0
 541 02ad 09       		.uleb128 0x9
 542 02ae 66030000 		.4byte	.LASF53
 543 02b2 06       		.byte	0x6
 544 02b3 9201     		.2byte	0x192
 545 02b5 F4000000 		.4byte	0xf4
 546 02b9 08       		.byte	0x8
 547 02ba 09       		.uleb128 0x9
 548 02bb 99020000 		.4byte	.LASF54
 549 02bf 06       		.byte	0x6
 550 02c0 9401     		.2byte	0x194
 551 02c2 5E040000 		.4byte	0x45e
 552 02c6 0C       		.byte	0xc
 553 02c7 09       		.uleb128 0x9
 554 02c8 52010000 		.4byte	.LASF55
 555 02cc 06       		.byte	0x6
 556 02cd 9701     		.2byte	0x197
 557 02cf 2E020000 		.4byte	0x22e
 558 02d3 10       		.byte	0x10
 559 02d4 09       		.uleb128 0x9
 560 02d5 C6020000 		.4byte	.LASF56
 561 02d9 06       		.byte	0x6
 562 02da 9801     		.2byte	0x198
 563 02dc 2E020000 		.4byte	0x22e
 564 02e0 14       		.byte	0x14
 565 02e1 09       		.uleb128 0x9
 566 02e2 BC020000 		.4byte	.LASF57
 567 02e6 06       		.byte	0x6
 568 02e7 9B01     		.2byte	0x19b
ARM GAS  /var/folders/c6/c789hm653lg9vtl73krp73tm0000gn/T//ccv6ChYV.s 			page 18


 569 02e9 2E020000 		.4byte	0x22e
 570 02ed 18       		.byte	0x18
 571 02ee 00       		.byte	0
 572 02ef 04       		.uleb128 0x4
 573 02f0 7A040000 		.4byte	.LASF58
 574 02f4 05       		.byte	0x5
 575 02f5 5C       		.byte	0x5c
 576 02f6 FA020000 		.4byte	0x2fa
 577 02fa 0A       		.uleb128 0xa
 578 02fb 04       		.byte	0x4
 579 02fc 00030000 		.4byte	0x300
 580 0300 0C       		.uleb128 0xc
 581 0301 0B030000 		.4byte	0x30b
 582 0305 0D       		.uleb128 0xd
 583 0306 0B030000 		.4byte	0x30b
 584 030a 00       		.byte	0
 585 030b 0E       		.uleb128 0xe
 586 030c 04       		.byte	0x4
 587 030d 04       		.uleb128 0x4
 588 030e E1020000 		.4byte	.LASF59
 589 0312 05       		.byte	0x5
 590 0313 61       		.byte	0x61
 591 0314 18030000 		.4byte	0x318
 592 0318 0B       		.uleb128 0xb
 593 0319 91030000 		.4byte	.LASF60
 594 031d 14       		.byte	0x14
 595 031e 06       		.byte	0x6
 596 031f 6B01     		.2byte	0x16b
 597 0321 67030000 		.4byte	0x367
 598 0325 09       		.uleb128 0x9
 599 0326 A3010000 		.4byte	.LASF61
 600 032a 06       		.byte	0x6
 601 032b 6C01     		.2byte	0x16c
 602 032d EF050000 		.4byte	0x5ef
 603 0331 00       		.byte	0
 604 0332 09       		.uleb128 0x9
 605 0333 63010000 		.4byte	.LASF62
 606 0337 06       		.byte	0x6
 607 0338 6D01     		.2byte	0x16d
 608 033a EF050000 		.4byte	0x5ef
 609 033e 04       		.byte	0x4
 610 033f 09       		.uleb128 0x9
 611 0340 D2030000 		.4byte	.LASF63
 612 0344 06       		.byte	0x6
 613 0345 6E01     		.2byte	0x16e
 614 0347 20010000 		.4byte	0x120
 615 034b 08       		.byte	0x8
 616 034c 09       		.uleb128 0x9
 617 034d 3B060000 		.4byte	.LASF64
 618 0351 06       		.byte	0x6
 619 0352 6F01     		.2byte	0x16f
 620 0354 EF020000 		.4byte	0x2ef
 621 0358 0C       		.byte	0xc
 622 0359 09       		.uleb128 0x9
 623 035a BC040000 		.4byte	.LASF65
 624 035e 06       		.byte	0x6
 625 035f 7101     		.2byte	0x171
ARM GAS  /var/folders/c6/c789hm653lg9vtl73krp73tm0000gn/T//ccv6ChYV.s 			page 19


 626 0361 0B030000 		.4byte	0x30b
 627 0365 10       		.byte	0x10
 628 0366 00       		.byte	0
 629 0367 04       		.uleb128 0x4
 630 0368 9A000000 		.4byte	.LASF66
 631 036c 05       		.byte	0x5
 632 036d 66       		.byte	0x66
 633 036e 72030000 		.4byte	0x372
 634 0372 0B       		.uleb128 0xb
 635 0373 6E020000 		.4byte	.LASF67
 636 0377 10       		.byte	0x10
 637 0378 06       		.byte	0x6
 638 0379 7B01     		.2byte	0x17b
 639 037b B4030000 		.4byte	0x3b4
 640 037f 09       		.uleb128 0x9
 641 0380 A3010000 		.4byte	.LASF61
 642 0384 06       		.byte	0x6
 643 0385 7C01     		.2byte	0x17c
 644 0387 EF050000 		.4byte	0x5ef
 645 038b 00       		.byte	0
 646 038c 09       		.uleb128 0x9
 647 038d 63010000 		.4byte	.LASF62
 648 0391 06       		.byte	0x6
 649 0392 7E01     		.2byte	0x17e
 650 0394 EF050000 		.4byte	0x5ef
 651 0398 04       		.byte	0x4
 652 0399 09       		.uleb128 0x9
 653 039a D2030000 		.4byte	.LASF63
 654 039e 06       		.byte	0x6
 655 039f 8001     		.2byte	0x180
 656 03a1 20010000 		.4byte	0x120
 657 03a5 08       		.byte	0x8
 658 03a6 09       		.uleb128 0x9
 659 03a7 85020000 		.4byte	.LASF68
 660 03ab 06       		.byte	0x6
 661 03ac 8801     		.2byte	0x188
 662 03ae 20010000 		.4byte	0x120
 663 03b2 0C       		.byte	0xc
 664 03b3 00       		.byte	0
 665 03b4 04       		.uleb128 0x4
 666 03b5 53000000 		.4byte	.LASF69
 667 03b9 05       		.byte	0x5
 668 03ba 6B       		.byte	0x6b
 669 03bb BF030000 		.4byte	0x3bf
 670 03bf 0B       		.uleb128 0xb
 671 03c0 09030000 		.4byte	.LASF70
 672 03c4 04       		.byte	0x4
 673 03c5 06       		.byte	0x6
 674 03c6 A201     		.2byte	0x1a2
 675 03c8 DA030000 		.4byte	0x3da
 676 03cc 09       		.uleb128 0x9
 677 03cd 8E040000 		.4byte	.LASF71
 678 03d1 06       		.byte	0x6
 679 03d2 AA01     		.2byte	0x1aa
 680 03d4 F5050000 		.4byte	0x5f5
 681 03d8 00       		.byte	0
 682 03d9 00       		.byte	0
ARM GAS  /var/folders/c6/c789hm653lg9vtl73krp73tm0000gn/T//ccv6ChYV.s 			page 20


 683 03da 04       		.uleb128 0x4
 684 03db FE010000 		.4byte	.LASF72
 685 03df 05       		.byte	0x5
 686 03e0 70       		.byte	0x70
 687 03e1 E5030000 		.4byte	0x3e5
 688 03e5 0F       		.uleb128 0xf
 689 03e6 05010000 		.4byte	.LASF73
 690 03ea 5001     		.2byte	0x150
 691 03ec 06       		.byte	0x6
 692 03ed C201     		.2byte	0x1c2
 693 03ef 41040000 		.4byte	0x441
 694 03f3 09       		.uleb128 0x9
 695 03f4 F1040000 		.4byte	.LASF74
 696 03f8 06       		.byte	0x6
 697 03f9 C601     		.2byte	0x1c6
 698 03fb 88020000 		.4byte	0x288
 699 03ff 00       		.byte	0
 700 0400 09       		.uleb128 0x9
 701 0401 6B010000 		.4byte	.LASF75
 702 0405 06       		.byte	0x6
 703 0406 CA01     		.2byte	0x1ca
 704 0408 67030000 		.4byte	0x367
 705 040c 1C       		.byte	0x1c
 706 040d 08       		.uleb128 0x8
 707 040e 64626700 		.ascii	"dbg\000"
 708 0412 06       		.byte	0x6
 709 0413 CE01     		.2byte	0x1ce
 710 0415 B4030000 		.4byte	0x3b4
 711 0419 2C       		.byte	0x2c
 712 041a 09       		.uleb128 0x9
 713 041b 8F000000 		.4byte	.LASF76
 714 041f 06       		.byte	0x6
 715 0420 D201     		.2byte	0x1d2
 716 0422 2B010000 		.4byte	0x12b
 717 0426 30       		.byte	0x30
 718 0427 08       		.uleb128 0x8
 719 0428 746D00   		.ascii	"tm\000"
 720 042b 06       		.byte	0x6
 721 042c D701     		.2byte	0x1d7
 722 042e 0D050000 		.4byte	0x50d
 723 0432 74       		.byte	0x74
 724 0433 09       		.uleb128 0x9
 725 0434 81010000 		.4byte	.LASF77
 726 0438 06       		.byte	0x6
 727 0439 E301     		.2byte	0x1e3
 728 043b FA050000 		.4byte	0x5fa
 729 043f 78       		.byte	0x78
 730 0440 00       		.byte	0
 731 0441 03       		.uleb128 0x3
 732 0442 04       		.byte	0x4
 733 0443 07       		.byte	0x7
 734 0444 52020000 		.4byte	.LASF78
 735 0448 04       		.uleb128 0x4
 736 0449 5A010000 		.4byte	.LASF79
 737 044d 07       		.byte	0x7
 738 044e 65       		.byte	0x65
 739 044f 0B030000 		.4byte	0x30b
ARM GAS  /var/folders/c6/c789hm653lg9vtl73krp73tm0000gn/T//ccv6ChYV.s 			page 21


 740 0453 04       		.uleb128 0x4
 741 0454 3D020000 		.4byte	.LASF80
 742 0458 07       		.byte	0x7
 743 0459 6D       		.byte	0x6d
 744 045a B8000000 		.4byte	0xb8
 745 045e 06       		.uleb128 0x6
 746 045f 9F040000 		.4byte	.LASF81
 747 0463 04       		.byte	0x4
 748 0464 07       		.byte	0x7
 749 0465 89       		.byte	0x89
 750 0466 77040000 		.4byte	0x477
 751 046a 10       		.uleb128 0x10
 752 046b 72313300 		.ascii	"r13\000"
 753 046f 07       		.byte	0x7
 754 0470 8A       		.byte	0x8a
 755 0471 F2040000 		.4byte	0x4f2
 756 0475 00       		.byte	0
 757 0476 00       		.byte	0
 758 0477 06       		.uleb128 0x6
 759 0478 47000000 		.4byte	.LASF82
 760 047c 24       		.byte	0x24
 761 047d 08       		.byte	0x8
 762 047e F4       		.byte	0xf4
 763 047f F2040000 		.4byte	0x4f2
 764 0483 08       		.uleb128 0x8
 765 0484 723400   		.ascii	"r4\000"
 766 0487 08       		.byte	0x8
 767 0488 0701     		.2byte	0x107
 768 048a 48040000 		.4byte	0x448
 769 048e 00       		.byte	0
 770 048f 08       		.uleb128 0x8
 771 0490 723500   		.ascii	"r5\000"
 772 0493 08       		.byte	0x8
 773 0494 0801     		.2byte	0x108
 774 0496 48040000 		.4byte	0x448
 775 049a 04       		.byte	0x4
 776 049b 08       		.uleb128 0x8
 777 049c 723600   		.ascii	"r6\000"
 778 049f 08       		.byte	0x8
 779 04a0 0901     		.2byte	0x109
 780 04a2 48040000 		.4byte	0x448
 781 04a6 08       		.byte	0x8
 782 04a7 08       		.uleb128 0x8
 783 04a8 723700   		.ascii	"r7\000"
 784 04ab 08       		.byte	0x8
 785 04ac 0A01     		.2byte	0x10a
 786 04ae 48040000 		.4byte	0x448
 787 04b2 0C       		.byte	0xc
 788 04b3 08       		.uleb128 0x8
 789 04b4 723800   		.ascii	"r8\000"
 790 04b7 08       		.byte	0x8
 791 04b8 0B01     		.2byte	0x10b
 792 04ba 48040000 		.4byte	0x448
 793 04be 10       		.byte	0x10
 794 04bf 08       		.uleb128 0x8
 795 04c0 723900   		.ascii	"r9\000"
 796 04c3 08       		.byte	0x8
ARM GAS  /var/folders/c6/c789hm653lg9vtl73krp73tm0000gn/T//ccv6ChYV.s 			page 22


 797 04c4 0C01     		.2byte	0x10c
 798 04c6 48040000 		.4byte	0x448
 799 04ca 14       		.byte	0x14
 800 04cb 08       		.uleb128 0x8
 801 04cc 72313000 		.ascii	"r10\000"
 802 04d0 08       		.byte	0x8
 803 04d1 0D01     		.2byte	0x10d
 804 04d3 48040000 		.4byte	0x448
 805 04d7 18       		.byte	0x18
 806 04d8 08       		.uleb128 0x8
 807 04d9 72313100 		.ascii	"r11\000"
 808 04dd 08       		.byte	0x8
 809 04de 0E01     		.2byte	0x10e
 810 04e0 48040000 		.4byte	0x448
 811 04e4 1C       		.byte	0x1c
 812 04e5 08       		.uleb128 0x8
 813 04e6 6C7200   		.ascii	"lr\000"
 814 04e9 08       		.byte	0x8
 815 04ea 0F01     		.2byte	0x10f
 816 04ec 48040000 		.4byte	0x448
 817 04f0 20       		.byte	0x20
 818 04f1 00       		.byte	0
 819 04f2 0A       		.uleb128 0xa
 820 04f3 04       		.byte	0x4
 821 04f4 77040000 		.4byte	0x477
 822 04f8 11       		.uleb128 0x11
 823 04f9 04       		.byte	0x4
 824 04fa 09       		.byte	0x9
 825 04fb 38       		.byte	0x38
 826 04fc 0D050000 		.4byte	0x50d
 827 0500 07       		.uleb128 0x7
 828 0501 98040000 		.4byte	.LASF83
 829 0505 09       		.byte	0x9
 830 0506 3C       		.byte	0x3c
 831 0507 C8000000 		.4byte	0xc8
 832 050b 00       		.byte	0
 833 050c 00       		.byte	0
 834 050d 04       		.uleb128 0x4
 835 050e 9F020000 		.4byte	.LASF84
 836 0512 09       		.byte	0x9
 837 0513 3D       		.byte	0x3d
 838 0514 F8040000 		.4byte	0x4f8
 839 0518 12       		.uleb128 0x12
 840 0519 04       		.byte	0x4
 841 051a 06       		.byte	0x6
 842 051b FA       		.byte	0xfa
 843 051c 75050000 		.4byte	0x575
 844 0520 13       		.uleb128 0x13
 845 0521 2D000000 		.4byte	.LASF85
 846 0525 06       		.byte	0x6
 847 0526 0101     		.2byte	0x101
 848 0528 FF000000 		.4byte	0xff
 849 052c 13       		.uleb128 0x13
 850 052d 86000000 		.4byte	.LASF86
 851 0531 06       		.byte	0x6
 852 0532 0801     		.2byte	0x108
 853 0534 FF000000 		.4byte	0xff
ARM GAS  /var/folders/c6/c789hm653lg9vtl73krp73tm0000gn/T//ccv6ChYV.s 			page 23


 854 0538 13       		.uleb128 0x13
 855 0539 FF040000 		.4byte	.LASF87
 856 053d 06       		.byte	0x6
 857 053e 0F01     		.2byte	0x10f
 858 0540 0B030000 		.4byte	0x30b
 859 0544 13       		.uleb128 0x13
 860 0545 27000000 		.4byte	.LASF88
 861 0549 06       		.byte	0x6
 862 054a 1601     		.2byte	0x116
 863 054c 75050000 		.4byte	0x575
 864 0550 13       		.uleb128 0x13
 865 0551 AB010000 		.4byte	.LASF89
 866 0555 06       		.byte	0x6
 867 0556 1E01     		.2byte	0x11e
 868 0558 A0050000 		.4byte	0x5a0
 869 055c 13       		.uleb128 0x13
 870 055d C3030000 		.4byte	.LASF90
 871 0561 06       		.byte	0x6
 872 0562 2701     		.2byte	0x127
 873 0564 D7050000 		.4byte	0x5d7
 874 0568 13       		.uleb128 0x13
 875 0569 74030000 		.4byte	.LASF91
 876 056d 06       		.byte	0x6
 877 056e 2F01     		.2byte	0x12f
 878 0570 0A010000 		.4byte	0x10a
 879 0574 00       		.byte	0
 880 0575 0A       		.uleb128 0xa
 881 0576 04       		.byte	0x4
 882 0577 23020000 		.4byte	0x223
 883 057b 06       		.uleb128 0x6
 884 057c A2030000 		.4byte	.LASF92
 885 0580 0C       		.byte	0xc
 886 0581 0A       		.byte	0xa
 887 0582 34       		.byte	0x34
 888 0583 A0050000 		.4byte	0x5a0
 889 0587 07       		.uleb128 0x7
 890 0588 4A010000 		.4byte	.LASF93
 891 058c 0A       		.byte	0xa
 892 058d 35       		.byte	0x35
 893 058e 58020000 		.4byte	0x258
 894 0592 00       		.byte	0
 895 0593 07       		.uleb128 0x7
 896 0594 3A030000 		.4byte	.LASF94
 897 0598 0A       		.byte	0xa
 898 0599 37       		.byte	0x37
 899 059a 15010000 		.4byte	0x115
 900 059e 08       		.byte	0x8
 901 059f 00       		.byte	0
 902 05a0 0A       		.uleb128 0xa
 903 05a1 04       		.byte	0x4
 904 05a2 7B050000 		.4byte	0x57b
 905 05a6 06       		.uleb128 0x6
 906 05a7 D3040000 		.4byte	.LASF95
 907 05ab 10       		.byte	0x10
 908 05ac 0B       		.byte	0xb
 909 05ad 39       		.byte	0x39
 910 05ae D7050000 		.4byte	0x5d7
ARM GAS  /var/folders/c6/c789hm653lg9vtl73krp73tm0000gn/T//ccv6ChYV.s 			page 24


 911 05b2 07       		.uleb128 0x7
 912 05b3 F7000000 		.4byte	.LASF96
 913 05b7 0B       		.byte	0xb
 914 05b8 3A       		.byte	0x3a
 915 05b9 58020000 		.4byte	0x258
 916 05bd 00       		.byte	0
 917 05be 07       		.uleb128 0x7
 918 05bf 1A060000 		.4byte	.LASF97
 919 05c3 0B       		.byte	0xb
 920 05c4 3C       		.byte	0x3c
 921 05c5 2E020000 		.4byte	0x22e
 922 05c9 08       		.byte	0x8
 923 05ca 07       		.uleb128 0x7
 924 05cb 5E040000 		.4byte	.LASF98
 925 05cf 0B       		.byte	0xb
 926 05d0 3E       		.byte	0x3e
 927 05d1 15060000 		.4byte	0x615
 928 05d5 0C       		.byte	0xc
 929 05d6 00       		.byte	0
 930 05d7 0A       		.uleb128 0xa
 931 05d8 04       		.byte	0x4
 932 05d9 A6050000 		.4byte	0x5a6
 933 05dd 0A       		.uleb128 0xa
 934 05de 04       		.byte	0x4
 935 05df E3050000 		.4byte	0x5e3
 936 05e3 14       		.uleb128 0x14
 937 05e4 E8050000 		.4byte	0x5e8
 938 05e8 03       		.uleb128 0x3
 939 05e9 01       		.byte	0x1
 940 05ea 08       		.byte	0x8
 941 05eb 48040000 		.4byte	.LASF99
 942 05ef 0A       		.uleb128 0xa
 943 05f0 04       		.byte	0x4
 944 05f1 0D030000 		.4byte	0x30d
 945 05f5 05       		.uleb128 0x5
 946 05f6 DD050000 		.4byte	0x5dd
 947 05fa 15       		.uleb128 0x15
 948 05fb 53040000 		.4byte	0x453
 949 05ff 0A060000 		.4byte	0x60a
 950 0603 16       		.uleb128 0x16
 951 0604 41040000 		.4byte	0x441
 952 0608 1A       		.byte	0x1a
 953 0609 00       		.byte	0
 954 060a 04       		.uleb128 0x4
 955 060b 72010000 		.4byte	.LASF100
 956 060f 0B       		.byte	0xb
 957 0610 34       		.byte	0x34
 958 0611 A6050000 		.4byte	0x5a6
 959 0615 0A       		.uleb128 0xa
 960 0616 04       		.byte	0x4
 961 0617 0A060000 		.4byte	0x60a
 962 061b 03       		.uleb128 0x3
 963 061c 01       		.byte	0x1
 964 061d 02       		.byte	0x2
 965 061e 19030000 		.4byte	.LASF101
 966 0622 11       		.uleb128 0x11
 967 0623 1C       		.byte	0x1c
ARM GAS  /var/folders/c6/c789hm653lg9vtl73krp73tm0000gn/T//ccv6ChYV.s 			page 25


 968 0624 0C       		.byte	0xc
 969 0625 C1       		.byte	0xc1
 970 0626 7F060000 		.4byte	0x67f
 971 062a 07       		.uleb128 0x7
 972 062b FF000000 		.4byte	.LASF102
 973 062f 0C       		.byte	0xc
 974 0630 C3       		.byte	0xc3
 975 0631 AD000000 		.4byte	0xad
 976 0635 00       		.byte	0
 977 0636 07       		.uleb128 0x7
 978 0637 CD010000 		.4byte	.LASF103
 979 063b 0C       		.byte	0xc
 980 063c C5       		.byte	0xc5
 981 063d AD000000 		.4byte	0xad
 982 0641 04       		.byte	0x4
 983 0642 07       		.uleb128 0x7
 984 0643 C5010000 		.4byte	.LASF104
 985 0647 0C       		.byte	0xc
 986 0648 C7       		.byte	0xc7
 987 0649 AD000000 		.4byte	0xad
 988 064d 08       		.byte	0x8
 989 064e 07       		.uleb128 0x7
 990 064f 80000000 		.4byte	.LASF105
 991 0653 0C       		.byte	0xc
 992 0654 C9       		.byte	0xc9
 993 0655 AD000000 		.4byte	0xad
 994 0659 0C       		.byte	0xc
 995 065a 10       		.uleb128 0x10
 996 065b 6F647200 		.ascii	"odr\000"
 997 065f 0C       		.byte	0xc
 998 0660 CB       		.byte	0xcb
 999 0661 AD000000 		.4byte	0xad
 1000 0665 10       		.byte	0x10
 1001 0666 07       		.uleb128 0x7
 1002 0667 35030000 		.4byte	.LASF106
 1003 066b 0C       		.byte	0xc
 1004 066c CD       		.byte	0xcd
 1005 066d AD000000 		.4byte	0xad
 1006 0671 14       		.byte	0x14
 1007 0672 07       		.uleb128 0x7
 1008 0673 B0020000 		.4byte	.LASF107
 1009 0677 0C       		.byte	0xc
 1010 0678 CF       		.byte	0xcf
 1011 0679 AD000000 		.4byte	0xad
 1012 067d 18       		.byte	0x18
 1013 067e 00       		.byte	0
 1014 067f 04       		.uleb128 0x4
 1015 0680 00000000 		.4byte	.LASF108
 1016 0684 0C       		.byte	0xc
 1017 0685 D0       		.byte	0xd0
 1018 0686 22060000 		.4byte	0x622
 1019 068a 11       		.uleb128 0x11
 1020 068b FC       		.byte	0xfc
 1021 068c 0C       		.byte	0xc
 1022 068d D9       		.byte	0xd9
 1023 068e FF060000 		.4byte	0x6ff
 1024 0692 07       		.uleb128 0x7
ARM GAS  /var/folders/c6/c789hm653lg9vtl73krp73tm0000gn/T//ccv6ChYV.s 			page 26


 1025 0693 6D030000 		.4byte	.LASF109
 1026 0697 0C       		.byte	0xc
 1027 0698 DC       		.byte	0xdc
 1028 0699 7F060000 		.4byte	0x67f
 1029 069d 00       		.byte	0
 1030 069e 07       		.uleb128 0x7
 1031 069f 7A010000 		.4byte	.LASF110
 1032 06a3 0C       		.byte	0xc
 1033 06a4 E0       		.byte	0xe0
 1034 06a5 7F060000 		.4byte	0x67f
 1035 06a9 1C       		.byte	0x1c
 1036 06aa 07       		.uleb128 0x7
 1037 06ab 0D050000 		.4byte	.LASF111
 1038 06af 0C       		.byte	0xc
 1039 06b0 E4       		.byte	0xe4
 1040 06b1 7F060000 		.4byte	0x67f
 1041 06b5 38       		.byte	0x38
 1042 06b6 07       		.uleb128 0x7
 1043 06b7 B5020000 		.4byte	.LASF112
 1044 06bb 0C       		.byte	0xc
 1045 06bc E8       		.byte	0xe8
 1046 06bd 7F060000 		.4byte	0x67f
 1047 06c1 54       		.byte	0x54
 1048 06c2 07       		.uleb128 0x7
 1049 06c3 18010000 		.4byte	.LASF113
 1050 06c7 0C       		.byte	0xc
 1051 06c8 EC       		.byte	0xec
 1052 06c9 7F060000 		.4byte	0x67f
 1053 06cd 70       		.byte	0x70
 1054 06ce 07       		.uleb128 0x7
 1055 06cf E7010000 		.4byte	.LASF114
 1056 06d3 0C       		.byte	0xc
 1057 06d4 F0       		.byte	0xf0
 1058 06d5 7F060000 		.4byte	0x67f
 1059 06d9 8C       		.byte	0x8c
 1060 06da 07       		.uleb128 0x7
 1061 06db 36020000 		.4byte	.LASF115
 1062 06df 0C       		.byte	0xc
 1063 06e0 F4       		.byte	0xf4
 1064 06e1 7F060000 		.4byte	0x67f
 1065 06e5 A8       		.byte	0xa8
 1066 06e6 07       		.uleb128 0x7
 1067 06e7 62000000 		.4byte	.LASF116
 1068 06eb 0C       		.byte	0xc
 1069 06ec F8       		.byte	0xf8
 1070 06ed 7F060000 		.4byte	0x67f
 1071 06f1 C4       		.byte	0xc4
 1072 06f2 07       		.uleb128 0x7
 1073 06f3 8A030000 		.4byte	.LASF117
 1074 06f7 0C       		.byte	0xc
 1075 06f8 FC       		.byte	0xfc
 1076 06f9 7F060000 		.4byte	0x67f
 1077 06fd E0       		.byte	0xe0
 1078 06fe 00       		.byte	0
 1079 06ff 04       		.uleb128 0x4
 1080 0700 10060000 		.4byte	.LASF118
 1081 0704 0C       		.byte	0xc
ARM GAS  /var/folders/c6/c789hm653lg9vtl73krp73tm0000gn/T//ccv6ChYV.s 			page 27


 1082 0705 FE       		.byte	0xfe
 1083 0706 8A060000 		.4byte	0x68a
 1084 070a 17       		.uleb128 0x17
 1085 070b F8020000 		.4byte	.LASF129
 1086 070f 13       		.byte	0x13
 1087 0710 C101     		.2byte	0x1c1
 1088 0712 03       		.byte	0x3
 1089 0713 18       		.uleb128 0x18
 1090 0714 BD010000 		.4byte	.LASF130
 1091 0718 01       		.byte	0x1
 1092 0719 38       		.byte	0x38
 1093 071a 00000000 		.4byte	.LFB260
 1094 071e 24000000 		.4byte	.LFE260-.LFB260
 1095 0722 01       		.uleb128 0x1
 1096 0723 9C       		.byte	0x9c
 1097 0724 5F070000 		.4byte	0x75f
 1098 0728 19       		.uleb128 0x19
 1099 0729 06000000 		.4byte	.LVL0
 1100 072d 87070000 		.4byte	0x787
 1101 0731 19       		.uleb128 0x19
 1102 0732 0C000000 		.4byte	.LVL1
 1103 0736 8F070000 		.4byte	0x78f
 1104 073a 19       		.uleb128 0x19
 1105 073b 10000000 		.4byte	.LVL2
 1106 073f A7070000 		.4byte	0x7a7
 1107 0743 19       		.uleb128 0x19
 1108 0744 14000000 		.4byte	.LVL3
 1109 0748 AF070000 		.4byte	0x7af
 1110 074c 19       		.uleb128 0x19
 1111 074d 18000000 		.4byte	.LVL4
 1112 0751 B7070000 		.4byte	0x7b7
 1113 0755 1A       		.uleb128 0x1a
 1114 0756 20000000 		.4byte	.LVL5
 1115 075a BF070000 		.4byte	0x7bf
 1116 075e 00       		.byte	0
 1117 075f 1B       		.uleb128 0x1b
 1118 0760 B0000000 		.4byte	.LASF119
 1119 0764 0D       		.byte	0xd
 1120 0765 A706     		.2byte	0x6a7
 1121 0767 C3000000 		.4byte	0xc3
 1122 076b 1C       		.uleb128 0x1c
 1123 076c 636800   		.ascii	"ch\000"
 1124 076f 06       		.byte	0x6
 1125 0770 0902     		.2byte	0x209
 1126 0772 DA030000 		.4byte	0x3da
 1127 0776 1B       		.uleb128 0x1b
 1128 0777 22060000 		.4byte	.LASF120
 1129 077b 0C       		.byte	0xc
 1130 077c DA01     		.2byte	0x1da
 1131 077e 82070000 		.4byte	0x782
 1132 0782 14       		.uleb128 0x14
 1133 0783 FF060000 		.4byte	0x6ff
 1134 0787 1D       		.uleb128 0x1d
 1135 0788 A7040000 		.4byte	.LASF121
 1136 078c 0E       		.byte	0xe
 1137 078d 1206     		.2byte	0x612
 1138 078f 1E       		.uleb128 0x1e
ARM GAS  /var/folders/c6/c789hm653lg9vtl73krp73tm0000gn/T//ccv6ChYV.s 			page 28


 1139 0790 E3040000 		.4byte	.LASF131
 1140 0794 0C       		.byte	0xc
 1141 0795 DF01     		.2byte	0x1df
 1142 0797 A1070000 		.4byte	0x7a1
 1143 079b 0D       		.uleb128 0xd
 1144 079c A1070000 		.4byte	0x7a1
 1145 07a0 00       		.byte	0
 1146 07a1 0A       		.uleb128 0xa
 1147 07a2 04       		.byte	0x4
 1148 07a3 82070000 		.4byte	0x782
 1149 07a7 1D       		.uleb128 0x1d
 1150 07a8 09060000 		.4byte	.LASF122
 1151 07ac 0F       		.byte	0xf
 1152 07ad 2601     		.2byte	0x126
 1153 07af 1D       		.uleb128 0x1d
 1154 07b0 4D040000 		.4byte	.LASF123
 1155 07b4 10       		.byte	0x10
 1156 07b5 3502     		.2byte	0x235
 1157 07b7 1D       		.uleb128 0x1d
 1158 07b8 5C030000 		.4byte	.LASF124
 1159 07bc 11       		.byte	0x11
 1160 07bd 0A05     		.2byte	0x50a
 1161 07bf 1F       		.uleb128 0x1f
 1162 07c0 20000000 		.4byte	.LASF125
 1163 07c4 12       		.byte	0x12
 1164 07c5 56       		.byte	0x56
 1165 07c6 00       		.byte	0
 1166              		.section	.debug_abbrev,"",%progbits
 1167              	.Ldebug_abbrev0:
 1168 0000 01       		.uleb128 0x1
 1169 0001 11       		.uleb128 0x11
 1170 0002 01       		.byte	0x1
 1171 0003 25       		.uleb128 0x25
 1172 0004 0E       		.uleb128 0xe
 1173 0005 13       		.uleb128 0x13
 1174 0006 0B       		.uleb128 0xb
 1175 0007 03       		.uleb128 0x3
 1176 0008 0E       		.uleb128 0xe
 1177 0009 1B       		.uleb128 0x1b
 1178 000a 0E       		.uleb128 0xe
 1179 000b 55       		.uleb128 0x55
 1180 000c 17       		.uleb128 0x17
 1181 000d 11       		.uleb128 0x11
 1182 000e 01       		.uleb128 0x1
 1183 000f 10       		.uleb128 0x10
 1184 0010 17       		.uleb128 0x17
 1185 0011 00       		.byte	0
 1186 0012 00       		.byte	0
 1187 0013 02       		.uleb128 0x2
 1188 0014 24       		.uleb128 0x24
 1189 0015 00       		.byte	0
 1190 0016 0B       		.uleb128 0xb
 1191 0017 0B       		.uleb128 0xb
 1192 0018 3E       		.uleb128 0x3e
 1193 0019 0B       		.uleb128 0xb
 1194 001a 03       		.uleb128 0x3
 1195 001b 08       		.uleb128 0x8
ARM GAS  /var/folders/c6/c789hm653lg9vtl73krp73tm0000gn/T//ccv6ChYV.s 			page 29


 1196 001c 00       		.byte	0
 1197 001d 00       		.byte	0
 1198 001e 03       		.uleb128 0x3
 1199 001f 24       		.uleb128 0x24
 1200 0020 00       		.byte	0
 1201 0021 0B       		.uleb128 0xb
 1202 0022 0B       		.uleb128 0xb
 1203 0023 3E       		.uleb128 0x3e
 1204 0024 0B       		.uleb128 0xb
 1205 0025 03       		.uleb128 0x3
 1206 0026 0E       		.uleb128 0xe
 1207 0027 00       		.byte	0
 1208 0028 00       		.byte	0
 1209 0029 04       		.uleb128 0x4
 1210 002a 16       		.uleb128 0x16
 1211 002b 00       		.byte	0
 1212 002c 03       		.uleb128 0x3
 1213 002d 0E       		.uleb128 0xe
 1214 002e 3A       		.uleb128 0x3a
 1215 002f 0B       		.uleb128 0xb
 1216 0030 3B       		.uleb128 0x3b
 1217 0031 0B       		.uleb128 0xb
 1218 0032 49       		.uleb128 0x49
 1219 0033 13       		.uleb128 0x13
 1220 0034 00       		.byte	0
 1221 0035 00       		.byte	0
 1222 0036 05       		.uleb128 0x5
 1223 0037 35       		.uleb128 0x35
 1224 0038 00       		.byte	0
 1225 0039 49       		.uleb128 0x49
 1226 003a 13       		.uleb128 0x13
 1227 003b 00       		.byte	0
 1228 003c 00       		.byte	0
 1229 003d 06       		.uleb128 0x6
 1230 003e 13       		.uleb128 0x13
 1231 003f 01       		.byte	0x1
 1232 0040 03       		.uleb128 0x3
 1233 0041 0E       		.uleb128 0xe
 1234 0042 0B       		.uleb128 0xb
 1235 0043 0B       		.uleb128 0xb
 1236 0044 3A       		.uleb128 0x3a
 1237 0045 0B       		.uleb128 0xb
 1238 0046 3B       		.uleb128 0x3b
 1239 0047 0B       		.uleb128 0xb
 1240 0048 01       		.uleb128 0x1
 1241 0049 13       		.uleb128 0x13
 1242 004a 00       		.byte	0
 1243 004b 00       		.byte	0
 1244 004c 07       		.uleb128 0x7
 1245 004d 0D       		.uleb128 0xd
 1246 004e 00       		.byte	0
 1247 004f 03       		.uleb128 0x3
 1248 0050 0E       		.uleb128 0xe
 1249 0051 3A       		.uleb128 0x3a
 1250 0052 0B       		.uleb128 0xb
 1251 0053 3B       		.uleb128 0x3b
 1252 0054 0B       		.uleb128 0xb
ARM GAS  /var/folders/c6/c789hm653lg9vtl73krp73tm0000gn/T//ccv6ChYV.s 			page 30


 1253 0055 49       		.uleb128 0x49
 1254 0056 13       		.uleb128 0x13
 1255 0057 38       		.uleb128 0x38
 1256 0058 0B       		.uleb128 0xb
 1257 0059 00       		.byte	0
 1258 005a 00       		.byte	0
 1259 005b 08       		.uleb128 0x8
 1260 005c 0D       		.uleb128 0xd
 1261 005d 00       		.byte	0
 1262 005e 03       		.uleb128 0x3
 1263 005f 08       		.uleb128 0x8
 1264 0060 3A       		.uleb128 0x3a
 1265 0061 0B       		.uleb128 0xb
 1266 0062 3B       		.uleb128 0x3b
 1267 0063 05       		.uleb128 0x5
 1268 0064 49       		.uleb128 0x49
 1269 0065 13       		.uleb128 0x13
 1270 0066 38       		.uleb128 0x38
 1271 0067 0B       		.uleb128 0xb
 1272 0068 00       		.byte	0
 1273 0069 00       		.byte	0
 1274 006a 09       		.uleb128 0x9
 1275 006b 0D       		.uleb128 0xd
 1276 006c 00       		.byte	0
 1277 006d 03       		.uleb128 0x3
 1278 006e 0E       		.uleb128 0xe
 1279 006f 3A       		.uleb128 0x3a
 1280 0070 0B       		.uleb128 0xb
 1281 0071 3B       		.uleb128 0x3b
 1282 0072 05       		.uleb128 0x5
 1283 0073 49       		.uleb128 0x49
 1284 0074 13       		.uleb128 0x13
 1285 0075 38       		.uleb128 0x38
 1286 0076 0B       		.uleb128 0xb
 1287 0077 00       		.byte	0
 1288 0078 00       		.byte	0
 1289 0079 0A       		.uleb128 0xa
 1290 007a 0F       		.uleb128 0xf
 1291 007b 00       		.byte	0
 1292 007c 0B       		.uleb128 0xb
 1293 007d 0B       		.uleb128 0xb
 1294 007e 49       		.uleb128 0x49
 1295 007f 13       		.uleb128 0x13
 1296 0080 00       		.byte	0
 1297 0081 00       		.byte	0
 1298 0082 0B       		.uleb128 0xb
 1299 0083 13       		.uleb128 0x13
 1300 0084 01       		.byte	0x1
 1301 0085 03       		.uleb128 0x3
 1302 0086 0E       		.uleb128 0xe
 1303 0087 0B       		.uleb128 0xb
 1304 0088 0B       		.uleb128 0xb
 1305 0089 3A       		.uleb128 0x3a
 1306 008a 0B       		.uleb128 0xb
 1307 008b 3B       		.uleb128 0x3b
 1308 008c 05       		.uleb128 0x5
 1309 008d 01       		.uleb128 0x1
ARM GAS  /var/folders/c6/c789hm653lg9vtl73krp73tm0000gn/T//ccv6ChYV.s 			page 31


 1310 008e 13       		.uleb128 0x13
 1311 008f 00       		.byte	0
 1312 0090 00       		.byte	0
 1313 0091 0C       		.uleb128 0xc
 1314 0092 15       		.uleb128 0x15
 1315 0093 01       		.byte	0x1
 1316 0094 27       		.uleb128 0x27
 1317 0095 19       		.uleb128 0x19
 1318 0096 01       		.uleb128 0x1
 1319 0097 13       		.uleb128 0x13
 1320 0098 00       		.byte	0
 1321 0099 00       		.byte	0
 1322 009a 0D       		.uleb128 0xd
 1323 009b 05       		.uleb128 0x5
 1324 009c 00       		.byte	0
 1325 009d 49       		.uleb128 0x49
 1326 009e 13       		.uleb128 0x13
 1327 009f 00       		.byte	0
 1328 00a0 00       		.byte	0
 1329 00a1 0E       		.uleb128 0xe
 1330 00a2 0F       		.uleb128 0xf
 1331 00a3 00       		.byte	0
 1332 00a4 0B       		.uleb128 0xb
 1333 00a5 0B       		.uleb128 0xb
 1334 00a6 00       		.byte	0
 1335 00a7 00       		.byte	0
 1336 00a8 0F       		.uleb128 0xf
 1337 00a9 13       		.uleb128 0x13
 1338 00aa 01       		.byte	0x1
 1339 00ab 03       		.uleb128 0x3
 1340 00ac 0E       		.uleb128 0xe
 1341 00ad 0B       		.uleb128 0xb
 1342 00ae 05       		.uleb128 0x5
 1343 00af 3A       		.uleb128 0x3a
 1344 00b0 0B       		.uleb128 0xb
 1345 00b1 3B       		.uleb128 0x3b
 1346 00b2 05       		.uleb128 0x5
 1347 00b3 01       		.uleb128 0x1
 1348 00b4 13       		.uleb128 0x13
 1349 00b5 00       		.byte	0
 1350 00b6 00       		.byte	0
 1351 00b7 10       		.uleb128 0x10
 1352 00b8 0D       		.uleb128 0xd
 1353 00b9 00       		.byte	0
 1354 00ba 03       		.uleb128 0x3
 1355 00bb 08       		.uleb128 0x8
 1356 00bc 3A       		.uleb128 0x3a
 1357 00bd 0B       		.uleb128 0xb
 1358 00be 3B       		.uleb128 0x3b
 1359 00bf 0B       		.uleb128 0xb
 1360 00c0 49       		.uleb128 0x49
 1361 00c1 13       		.uleb128 0x13
 1362 00c2 38       		.uleb128 0x38
 1363 00c3 0B       		.uleb128 0xb
 1364 00c4 00       		.byte	0
 1365 00c5 00       		.byte	0
 1366 00c6 11       		.uleb128 0x11
ARM GAS  /var/folders/c6/c789hm653lg9vtl73krp73tm0000gn/T//ccv6ChYV.s 			page 32


 1367 00c7 13       		.uleb128 0x13
 1368 00c8 01       		.byte	0x1
 1369 00c9 0B       		.uleb128 0xb
 1370 00ca 0B       		.uleb128 0xb
 1371 00cb 3A       		.uleb128 0x3a
 1372 00cc 0B       		.uleb128 0xb
 1373 00cd 3B       		.uleb128 0x3b
 1374 00ce 0B       		.uleb128 0xb
 1375 00cf 01       		.uleb128 0x1
 1376 00d0 13       		.uleb128 0x13
 1377 00d1 00       		.byte	0
 1378 00d2 00       		.byte	0
 1379 00d3 12       		.uleb128 0x12
 1380 00d4 17       		.uleb128 0x17
 1381 00d5 01       		.byte	0x1
 1382 00d6 0B       		.uleb128 0xb
 1383 00d7 0B       		.uleb128 0xb
 1384 00d8 3A       		.uleb128 0x3a
 1385 00d9 0B       		.uleb128 0xb
 1386 00da 3B       		.uleb128 0x3b
 1387 00db 0B       		.uleb128 0xb
 1388 00dc 01       		.uleb128 0x1
 1389 00dd 13       		.uleb128 0x13
 1390 00de 00       		.byte	0
 1391 00df 00       		.byte	0
 1392 00e0 13       		.uleb128 0x13
 1393 00e1 0D       		.uleb128 0xd
 1394 00e2 00       		.byte	0
 1395 00e3 03       		.uleb128 0x3
 1396 00e4 0E       		.uleb128 0xe
 1397 00e5 3A       		.uleb128 0x3a
 1398 00e6 0B       		.uleb128 0xb
 1399 00e7 3B       		.uleb128 0x3b
 1400 00e8 05       		.uleb128 0x5
 1401 00e9 49       		.uleb128 0x49
 1402 00ea 13       		.uleb128 0x13
 1403 00eb 00       		.byte	0
 1404 00ec 00       		.byte	0
 1405 00ed 14       		.uleb128 0x14
 1406 00ee 26       		.uleb128 0x26
 1407 00ef 00       		.byte	0
 1408 00f0 49       		.uleb128 0x49
 1409 00f1 13       		.uleb128 0x13
 1410 00f2 00       		.byte	0
 1411 00f3 00       		.byte	0
 1412 00f4 15       		.uleb128 0x15
 1413 00f5 01       		.uleb128 0x1
 1414 00f6 01       		.byte	0x1
 1415 00f7 49       		.uleb128 0x49
 1416 00f8 13       		.uleb128 0x13
 1417 00f9 01       		.uleb128 0x1
 1418 00fa 13       		.uleb128 0x13
 1419 00fb 00       		.byte	0
 1420 00fc 00       		.byte	0
 1421 00fd 16       		.uleb128 0x16
 1422 00fe 21       		.uleb128 0x21
 1423 00ff 00       		.byte	0
ARM GAS  /var/folders/c6/c789hm653lg9vtl73krp73tm0000gn/T//ccv6ChYV.s 			page 33


 1424 0100 49       		.uleb128 0x49
 1425 0101 13       		.uleb128 0x13
 1426 0102 2F       		.uleb128 0x2f
 1427 0103 0B       		.uleb128 0xb
 1428 0104 00       		.byte	0
 1429 0105 00       		.byte	0
 1430 0106 17       		.uleb128 0x17
 1431 0107 2E       		.uleb128 0x2e
 1432 0108 00       		.byte	0
 1433 0109 03       		.uleb128 0x3
 1434 010a 0E       		.uleb128 0xe
 1435 010b 3A       		.uleb128 0x3a
 1436 010c 0B       		.uleb128 0xb
 1437 010d 3B       		.uleb128 0x3b
 1438 010e 05       		.uleb128 0x5
 1439 010f 27       		.uleb128 0x27
 1440 0110 19       		.uleb128 0x19
 1441 0111 20       		.uleb128 0x20
 1442 0112 0B       		.uleb128 0xb
 1443 0113 00       		.byte	0
 1444 0114 00       		.byte	0
 1445 0115 18       		.uleb128 0x18
 1446 0116 2E       		.uleb128 0x2e
 1447 0117 01       		.byte	0x1
 1448 0118 3F       		.uleb128 0x3f
 1449 0119 19       		.uleb128 0x19
 1450 011a 03       		.uleb128 0x3
 1451 011b 0E       		.uleb128 0xe
 1452 011c 3A       		.uleb128 0x3a
 1453 011d 0B       		.uleb128 0xb
 1454 011e 3B       		.uleb128 0x3b
 1455 011f 0B       		.uleb128 0xb
 1456 0120 27       		.uleb128 0x27
 1457 0121 19       		.uleb128 0x19
 1458 0122 11       		.uleb128 0x11
 1459 0123 01       		.uleb128 0x1
 1460 0124 12       		.uleb128 0x12
 1461 0125 06       		.uleb128 0x6
 1462 0126 40       		.uleb128 0x40
 1463 0127 18       		.uleb128 0x18
 1464 0128 9742     		.uleb128 0x2117
 1465 012a 19       		.uleb128 0x19
 1466 012b 01       		.uleb128 0x1
 1467 012c 13       		.uleb128 0x13
 1468 012d 00       		.byte	0
 1469 012e 00       		.byte	0
 1470 012f 19       		.uleb128 0x19
 1471 0130 898201   		.uleb128 0x4109
 1472 0133 00       		.byte	0
 1473 0134 11       		.uleb128 0x11
 1474 0135 01       		.uleb128 0x1
 1475 0136 31       		.uleb128 0x31
 1476 0137 13       		.uleb128 0x13
 1477 0138 00       		.byte	0
 1478 0139 00       		.byte	0
 1479 013a 1A       		.uleb128 0x1a
 1480 013b 898201   		.uleb128 0x4109
ARM GAS  /var/folders/c6/c789hm653lg9vtl73krp73tm0000gn/T//ccv6ChYV.s 			page 34


 1481 013e 00       		.byte	0
 1482 013f 11       		.uleb128 0x11
 1483 0140 01       		.uleb128 0x1
 1484 0141 9542     		.uleb128 0x2115
 1485 0143 19       		.uleb128 0x19
 1486 0144 31       		.uleb128 0x31
 1487 0145 13       		.uleb128 0x13
 1488 0146 00       		.byte	0
 1489 0147 00       		.byte	0
 1490 0148 1B       		.uleb128 0x1b
 1491 0149 34       		.uleb128 0x34
 1492 014a 00       		.byte	0
 1493 014b 03       		.uleb128 0x3
 1494 014c 0E       		.uleb128 0xe
 1495 014d 3A       		.uleb128 0x3a
 1496 014e 0B       		.uleb128 0xb
 1497 014f 3B       		.uleb128 0x3b
 1498 0150 05       		.uleb128 0x5
 1499 0151 49       		.uleb128 0x49
 1500 0152 13       		.uleb128 0x13
 1501 0153 3F       		.uleb128 0x3f
 1502 0154 19       		.uleb128 0x19
 1503 0155 3C       		.uleb128 0x3c
 1504 0156 19       		.uleb128 0x19
 1505 0157 00       		.byte	0
 1506 0158 00       		.byte	0
 1507 0159 1C       		.uleb128 0x1c
 1508 015a 34       		.uleb128 0x34
 1509 015b 00       		.byte	0
 1510 015c 03       		.uleb128 0x3
 1511 015d 08       		.uleb128 0x8
 1512 015e 3A       		.uleb128 0x3a
 1513 015f 0B       		.uleb128 0xb
 1514 0160 3B       		.uleb128 0x3b
 1515 0161 05       		.uleb128 0x5
 1516 0162 49       		.uleb128 0x49
 1517 0163 13       		.uleb128 0x13
 1518 0164 3F       		.uleb128 0x3f
 1519 0165 19       		.uleb128 0x19
 1520 0166 3C       		.uleb128 0x3c
 1521 0167 19       		.uleb128 0x19
 1522 0168 00       		.byte	0
 1523 0169 00       		.byte	0
 1524 016a 1D       		.uleb128 0x1d
 1525 016b 2E       		.uleb128 0x2e
 1526 016c 00       		.byte	0
 1527 016d 3F       		.uleb128 0x3f
 1528 016e 19       		.uleb128 0x19
 1529 016f 03       		.uleb128 0x3
 1530 0170 0E       		.uleb128 0xe
 1531 0171 3A       		.uleb128 0x3a
 1532 0172 0B       		.uleb128 0xb
 1533 0173 3B       		.uleb128 0x3b
 1534 0174 05       		.uleb128 0x5
 1535 0175 27       		.uleb128 0x27
 1536 0176 19       		.uleb128 0x19
 1537 0177 3C       		.uleb128 0x3c
ARM GAS  /var/folders/c6/c789hm653lg9vtl73krp73tm0000gn/T//ccv6ChYV.s 			page 35


 1538 0178 19       		.uleb128 0x19
 1539 0179 00       		.byte	0
 1540 017a 00       		.byte	0
 1541 017b 1E       		.uleb128 0x1e
 1542 017c 2E       		.uleb128 0x2e
 1543 017d 01       		.byte	0x1
 1544 017e 3F       		.uleb128 0x3f
 1545 017f 19       		.uleb128 0x19
 1546 0180 03       		.uleb128 0x3
 1547 0181 0E       		.uleb128 0xe
 1548 0182 3A       		.uleb128 0x3a
 1549 0183 0B       		.uleb128 0xb
 1550 0184 3B       		.uleb128 0x3b
 1551 0185 05       		.uleb128 0x5
 1552 0186 27       		.uleb128 0x27
 1553 0187 19       		.uleb128 0x19
 1554 0188 3C       		.uleb128 0x3c
 1555 0189 19       		.uleb128 0x19
 1556 018a 01       		.uleb128 0x1
 1557 018b 13       		.uleb128 0x13
 1558 018c 00       		.byte	0
 1559 018d 00       		.byte	0
 1560 018e 1F       		.uleb128 0x1f
 1561 018f 2E       		.uleb128 0x2e
 1562 0190 00       		.byte	0
 1563 0191 3F       		.uleb128 0x3f
 1564 0192 19       		.uleb128 0x19
 1565 0193 03       		.uleb128 0x3
 1566 0194 0E       		.uleb128 0xe
 1567 0195 3A       		.uleb128 0x3a
 1568 0196 0B       		.uleb128 0xb
 1569 0197 3B       		.uleb128 0x3b
 1570 0198 0B       		.uleb128 0xb
 1571 0199 27       		.uleb128 0x27
 1572 019a 19       		.uleb128 0x19
 1573 019b 3C       		.uleb128 0x3c
 1574 019c 19       		.uleb128 0x19
 1575 019d 00       		.byte	0
 1576 019e 00       		.byte	0
 1577 019f 00       		.byte	0
 1578              		.section	.debug_aranges,"",%progbits
 1579 0000 1C000000 		.4byte	0x1c
 1580 0004 0200     		.2byte	0x2
 1581 0006 00000000 		.4byte	.Ldebug_info0
 1582 000a 04       		.byte	0x4
 1583 000b 00       		.byte	0
 1584 000c 0000     		.2byte	0
 1585 000e 0000     		.2byte	0
 1586 0010 00000000 		.4byte	.LFB260
 1587 0014 24000000 		.4byte	.LFE260-.LFB260
 1588 0018 00000000 		.4byte	0
 1589 001c 00000000 		.4byte	0
 1590              		.section	.debug_ranges,"",%progbits
 1591              	.Ldebug_ranges0:
 1592 0000 00000000 		.4byte	.LFB260
 1593 0004 24000000 		.4byte	.LFE260
 1594 0008 00000000 		.4byte	0
ARM GAS  /var/folders/c6/c789hm653lg9vtl73krp73tm0000gn/T//ccv6ChYV.s 			page 36


 1595 000c 00000000 		.4byte	0
 1596              		.section	.debug_line,"",%progbits
 1597              	.Ldebug_line0:
 1598 0000 E5020000 		.section	.debug_str,"MS",%progbits,1
 1598      0200C102 
 1598      00000201 
 1598      FB0E0D00 
 1598      01010101 
 1599              	.LASF108:
 1600 0000 73746D33 		.ascii	"stm32_gpio_setup_t\000"
 1600      325F6770 
 1600      696F5F73 
 1600      65747570 
 1600      5F7400
 1601              	.LASF50:
 1602 0013 72656164 		.ascii	"ready_list_t\000"
 1602      795F6C69 
 1602      73745F74 
 1602      00
 1603              	.LASF125:
 1604 0020 7374496E 		.ascii	"stInit\000"
 1604      697400
 1605              	.LASF88:
 1606 0027 77747472 		.ascii	"wttrp\000"
 1606      7000
 1607              	.LASF85:
 1608 002d 7264796D 		.ascii	"rdymsg\000"
 1608      736700
 1609              	.LASF16:
 1610 0034 75696E74 		.ascii	"uint64_t\000"
 1610      36345F74 
 1610      00
 1611              	.LASF5:
 1612 003d 5F5F7569 		.ascii	"__uint8_t\000"
 1612      6E74385F 
 1612      7400
 1613              	.LASF82:
 1614 0047 706F7274 		.ascii	"port_intctx\000"
 1614      5F696E74 
 1614      63747800 
 1615              	.LASF69:
 1616 0053 73797374 		.ascii	"system_debug_t\000"
 1616      656D5F64 
 1616      65627567 
 1616      5F7400
 1617              	.LASF116:
 1618 0062 50484461 		.ascii	"PHData\000"
 1618      746100
 1619              	.LASF12:
 1620 0069 6C6F6E67 		.ascii	"long long unsigned int\000"
 1620      206C6F6E 
 1620      6720756E 
 1620      7369676E 
 1620      65642069 
 1621              	.LASF105:
 1622 0080 70757064 		.ascii	"pupdr\000"
 1622      7200
ARM GAS  /var/folders/c6/c789hm653lg9vtl73krp73tm0000gn/T//ccv6ChYV.s 			page 37


 1623              	.LASF86:
 1624 0086 65786974 		.ascii	"exitcode\000"
 1624      636F6465 
 1624      00
 1625              	.LASF76:
 1626 008f 6D61696E 		.ascii	"mainthread\000"
 1626      74687265 
 1626      616400
 1627              	.LASF66:
 1628 009a 76697274 		.ascii	"virtual_timers_list_t\000"
 1628      75616C5F 
 1628      74696D65 
 1628      72735F6C 
 1628      6973745F 
 1629              	.LASF119:
 1630 00b0 49544D5F 		.ascii	"ITM_RxBuffer\000"
 1630      52784275 
 1630      66666572 
 1630      00
 1631              	.LASF49:
 1632 00bd 63685F74 		.ascii	"ch_threads_queue\000"
 1632      68726561 
 1632      64735F71 
 1632      75657565 
 1632      00
 1633              	.LASF29:
 1634 00ce 705F7072 		.ascii	"p_prio\000"
 1634      696F00
 1635              	.LASF10:
 1636 00d5 6C6F6E67 		.ascii	"long long int\000"
 1636      206C6F6E 
 1636      6720696E 
 1636      7400
 1637              	.LASF1:
 1638 00e3 7369676E 		.ascii	"signed char\000"
 1638      65642063 
 1638      68617200 
 1639              	.LASF43:
 1640 00ef 705F6D70 		.ascii	"p_mpool\000"
 1640      6F6F6C00 
 1641              	.LASF96:
 1642 00f7 6D5F7175 		.ascii	"m_queue\000"
 1642      65756500 
 1643              	.LASF102:
 1644 00ff 6D6F6465 		.ascii	"moder\000"
 1644      7200
 1645              	.LASF73:
 1646 0105 63685F73 		.ascii	"ch_system\000"
 1646      79737465 
 1646      6D00
 1647              	.LASF7:
 1648 010f 6C6F6E67 		.ascii	"long int\000"
 1648      20696E74 
 1648      00
 1649              	.LASF113:
 1650 0118 50454461 		.ascii	"PEData\000"
 1650      746100
ARM GAS  /var/folders/c6/c789hm653lg9vtl73krp73tm0000gn/T//ccv6ChYV.s 			page 38


 1651              	.LASF19:
 1652 011f 74737461 		.ascii	"tstate_t\000"
 1652      74655F74 
 1652      00
 1653              	.LASF127:
 1654 0128 2E2E2F2E 		.ascii	"../../../os/hal/src/hal.c\000"
 1654      2E2F2E2E 
 1654      2F6F732F 
 1654      68616C2F 
 1654      7372632F 
 1655              	.LASF31:
 1656 0142 705F6E65 		.ascii	"p_newer\000"
 1656      77657200 
 1657              	.LASF93:
 1658 014a 735F7175 		.ascii	"s_queue\000"
 1658      65756500 
 1659              	.LASF55:
 1660 0152 725F6E65 		.ascii	"r_newer\000"
 1660      77657200 
 1661              	.LASF79:
 1662 015a 72656761 		.ascii	"regarm_t\000"
 1662      726D5F74 
 1662      00
 1663              	.LASF62:
 1664 0163 76745F70 		.ascii	"vt_prev\000"
 1664      72657600 
 1665              	.LASF75:
 1666 016b 76746C69 		.ascii	"vtlist\000"
 1666      737400
 1667              	.LASF100:
 1668 0172 6D757465 		.ascii	"mutex_t\000"
 1668      785F7400 
 1669              	.LASF110:
 1670 017a 50424461 		.ascii	"PBData\000"
 1670      746100
 1671              	.LASF77:
 1672 0181 69646C65 		.ascii	"idle_thread_wa\000"
 1672      5F746872 
 1672      6561645F 
 1672      776100
 1673              	.LASF24:
 1674 0190 636E745F 		.ascii	"cnt_t\000"
 1674      7400
 1675              	.LASF0:
 1676 0196 756E7369 		.ascii	"unsigned int\000"
 1676      676E6564 
 1676      20696E74 
 1676      00
 1677              	.LASF61:
 1678 01a3 76745F6E 		.ascii	"vt_next\000"
 1678      65787400 
 1679              	.LASF89:
 1680 01ab 77747365 		.ascii	"wtsemp\000"
 1680      6D7000
 1681              	.LASF38:
 1682 01b2 705F6D73 		.ascii	"p_msgqueue\000"
 1682      67717565 
ARM GAS  /var/folders/c6/c789hm653lg9vtl73krp73tm0000gn/T//ccv6ChYV.s 			page 39


 1682      756500
 1683              	.LASF130:
 1684 01bd 68616C49 		.ascii	"halInit\000"
 1684      6E697400 
 1685              	.LASF104:
 1686 01c5 6F737065 		.ascii	"ospeedr\000"
 1686      65647200 
 1687              	.LASF103:
 1688 01cd 6F747970 		.ascii	"otyper\000"
 1688      657200
 1689              	.LASF4:
 1690 01d4 73686F72 		.ascii	"short unsigned int\000"
 1690      7420756E 
 1690      7369676E 
 1690      65642069 
 1690      6E7400
 1691              	.LASF114:
 1692 01e7 50464461 		.ascii	"PFData\000"
 1692      746100
 1693              	.LASF46:
 1694 01ee 63685F74 		.ascii	"ch_thread\000"
 1694      68726561 
 1694      6400
 1695              	.LASF22:
 1696 01f8 6D73675F 		.ascii	"msg_t\000"
 1696      7400
 1697              	.LASF72:
 1698 01fe 63685F73 		.ascii	"ch_system_t\000"
 1698      79737465 
 1698      6D5F7400 
 1699              	.LASF18:
 1700 020a 746D6F64 		.ascii	"tmode_t\000"
 1700      655F7400 
 1701              	.LASF51:
 1702 0212 63685F72 		.ascii	"ch_ready_list\000"
 1702      65616479 
 1702      5F6C6973 
 1702      7400
 1703              	.LASF23:
 1704 0220 6576656E 		.ascii	"eventmask_t\000"
 1704      746D6173 
 1704      6B5F7400 
 1705              	.LASF6:
 1706 022c 5F5F696E 		.ascii	"__int32_t\000"
 1706      7433325F 
 1706      7400
 1707              	.LASF115:
 1708 0236 50474461 		.ascii	"PGData\000"
 1708      746100
 1709              	.LASF80:
 1710 023d 73746B61 		.ascii	"stkalign_t\000"
 1710      6C69676E 
 1710      5F7400
 1711              	.LASF37:
 1712 0248 705F7761 		.ascii	"p_waiting\000"
 1712      6974696E 
 1712      6700
ARM GAS  /var/folders/c6/c789hm653lg9vtl73krp73tm0000gn/T//ccv6ChYV.s 			page 40


 1713              	.LASF78:
 1714 0252 73697A65 		.ascii	"sizetype\000"
 1714      74797065 
 1714      00
 1715              	.LASF44:
 1716 025b 74687265 		.ascii	"thread_reference_t\000"
 1716      61645F72 
 1716      65666572 
 1716      656E6365 
 1716      5F7400
 1717              	.LASF67:
 1718 026e 63685F76 		.ascii	"ch_virtual_timers_list\000"
 1718      69727475 
 1718      616C5F74 
 1718      696D6572 
 1718      735F6C69 
 1719              	.LASF68:
 1720 0285 76745F6C 		.ascii	"vt_lasttime\000"
 1720      61737474 
 1720      696D6500 
 1721              	.LASF32:
 1722 0291 705F6F6C 		.ascii	"p_older\000"
 1722      64657200 
 1723              	.LASF54:
 1724 0299 725F6374 		.ascii	"r_ctx\000"
 1724      7800
 1725              	.LASF84:
 1726 029f 746D5F63 		.ascii	"tm_calibration_t\000"
 1726      616C6962 
 1726      72617469 
 1726      6F6E5F74 
 1726      00
 1727              	.LASF107:
 1728 02b0 61667268 		.ascii	"afrh\000"
 1728      00
 1729              	.LASF112:
 1730 02b5 50444461 		.ascii	"PDData\000"
 1730      746100
 1731              	.LASF57:
 1732 02bc 725F6375 		.ascii	"r_current\000"
 1732      7272656E 
 1732      7400
 1733              	.LASF56:
 1734 02c6 725F6F6C 		.ascii	"r_older\000"
 1734      64657200 
 1735              	.LASF11:
 1736 02ce 5F5F7569 		.ascii	"__uint64_t\000"
 1736      6E743634 
 1736      5F7400
 1737              	.LASF20:
 1738 02d9 74726566 		.ascii	"trefs_t\000"
 1738      735F7400 
 1739              	.LASF59:
 1740 02e1 76697274 		.ascii	"virtual_timer_t\000"
 1740      75616C5F 
 1740      74696D65 
 1740      725F7400 
ARM GAS  /var/folders/c6/c789hm653lg9vtl73krp73tm0000gn/T//ccv6ChYV.s 			page 41


 1741              	.LASF28:
 1742 02f1 705F7072 		.ascii	"p_prev\000"
 1742      657600
 1743              	.LASF129:
 1744 02f8 6F73616C 		.ascii	"osalInit\000"
 1744      496E6974 
 1744      00
 1745              	.LASF21:
 1746 0301 74707269 		.ascii	"tprio_t\000"
 1746      6F5F7400 
 1747              	.LASF70:
 1748 0309 63685F73 		.ascii	"ch_system_debug\000"
 1748      79737465 
 1748      6D5F6465 
 1748      62756700 
 1749              	.LASF101:
 1750 0319 5F426F6F 		.ascii	"_Bool\000"
 1750      6C00
 1751              	.LASF14:
 1752 031f 696E7433 		.ascii	"int32_t\000"
 1752      325F7400 
 1753              	.LASF2:
 1754 0327 756E7369 		.ascii	"unsigned char\000"
 1754      676E6564 
 1754      20636861 
 1754      7200
 1755              	.LASF106:
 1756 0335 6166726C 		.ascii	"afrl\000"
 1756      00
 1757              	.LASF94:
 1758 033a 735F636E 		.ascii	"s_cnt\000"
 1758      7400
 1759              	.LASF41:
 1760 0340 705F6D74 		.ascii	"p_mtxlist\000"
 1760      786C6973 
 1760      7400
 1761              	.LASF3:
 1762 034a 73686F72 		.ascii	"short int\000"
 1762      7420696E 
 1762      7400
 1763              	.LASF34:
 1764 0354 705F7374 		.ascii	"p_state\000"
 1764      61746500 
 1765              	.LASF124:
 1766 035c 626F6172 		.ascii	"boardInit\000"
 1766      64496E69 
 1766      7400
 1767              	.LASF53:
 1768 0366 725F7072 		.ascii	"r_prio\000"
 1768      696F00
 1769              	.LASF109:
 1770 036d 50414461 		.ascii	"PAData\000"
 1770      746100
 1771              	.LASF91:
 1772 0374 65776D61 		.ascii	"ewmask\000"
 1772      736B00
 1773              	.LASF27:
ARM GAS  /var/folders/c6/c789hm653lg9vtl73krp73tm0000gn/T//ccv6ChYV.s 			page 42


 1774 037b 705F6E65 		.ascii	"p_next\000"
 1774      787400
 1775              	.LASF35:
 1776 0382 705F666C 		.ascii	"p_flags\000"
 1776      61677300 
 1777              	.LASF117:
 1778 038a 50494461 		.ascii	"PIData\000"
 1778      746100
 1779              	.LASF60:
 1780 0391 63685F76 		.ascii	"ch_virtual_timer\000"
 1780      69727475 
 1780      616C5F74 
 1780      696D6572 
 1780      00
 1781              	.LASF92:
 1782 03a2 63685F73 		.ascii	"ch_semaphore\000"
 1782      656D6170 
 1782      686F7265 
 1782      00
 1783              	.LASF40:
 1784 03af 705F6570 		.ascii	"p_epending\000"
 1784      656E6469 
 1784      6E6700
 1785              	.LASF15:
 1786 03ba 75696E74 		.ascii	"uint32_t\000"
 1786      33325F74 
 1786      00
 1787              	.LASF90:
 1788 03c3 77746D74 		.ascii	"wtmtxp\000"
 1788      787000
 1789              	.LASF52:
 1790 03ca 725F7175 		.ascii	"r_queue\000"
 1790      65756500 
 1791              	.LASF63:
 1792 03d2 76745F64 		.ascii	"vt_delta\000"
 1792      656C7461 
 1792      00
 1793              	.LASF47:
 1794 03db 63685F74 		.ascii	"ch_threads_list\000"
 1794      68726561 
 1794      64735F6C 
 1794      69737400 
 1795              	.LASF9:
 1796 03eb 6C6F6E67 		.ascii	"long unsigned int\000"
 1796      20756E73 
 1796      69676E65 
 1796      6420696E 
 1796      7400
 1797              	.LASF128:
 1798 03fd 2F557365 		.ascii	"/Users/savonetj/Downloads/ChibiOS_3.0.2/demos/STM32"
 1798      72732F73 
 1798      61766F6E 
 1798      65746A2F 
 1798      446F776E 
 1799 0430 2F52542D 		.ascii	"/RT-STM32F407-DISCOVERY\000"
 1799      53544D33 
 1799      32463430 
ARM GAS  /var/folders/c6/c789hm653lg9vtl73krp73tm0000gn/T//ccv6ChYV.s 			page 43


 1799      372D4449 
 1799      53434F56 
 1800              	.LASF99:
 1801 0448 63686172 		.ascii	"char\000"
 1801      00
 1802              	.LASF123:
 1803 044d 75736249 		.ascii	"usbInit\000"
 1803      6E697400 
 1804              	.LASF26:
 1805 0455 74687265 		.ascii	"thread_t\000"
 1805      61645F74 
 1805      00
 1806              	.LASF98:
 1807 045e 6D5F6E65 		.ascii	"m_next\000"
 1807      787400
 1808              	.LASF25:
 1809 0465 73797374 		.ascii	"systime_t\000"
 1809      696D655F 
 1809      7400
 1810              	.LASF42:
 1811 046f 705F7265 		.ascii	"p_realprio\000"
 1811      616C7072 
 1811      696F00
 1812              	.LASF58:
 1813 047a 76746675 		.ascii	"vtfunc_t\000"
 1813      6E635F74 
 1813      00
 1814              	.LASF8:
 1815 0483 5F5F7569 		.ascii	"__uint32_t\000"
 1815      6E743332 
 1815      5F7400
 1816              	.LASF71:
 1817 048e 70616E69 		.ascii	"panic_msg\000"
 1817      635F6D73 
 1817      6700
 1818              	.LASF83:
 1819 0498 6F666673 		.ascii	"offset\000"
 1819      657400
 1820              	.LASF81:
 1821 049f 636F6E74 		.ascii	"context\000"
 1821      65787400 
 1822              	.LASF121:
 1823 04a7 68616C5F 		.ascii	"hal_lld_init\000"
 1823      6C6C645F 
 1823      696E6974 
 1823      00
 1824              	.LASF17:
 1825 04b4 7274636E 		.ascii	"rtcnt_t\000"
 1825      745F7400 
 1826              	.LASF65:
 1827 04bc 76745F70 		.ascii	"vt_par\000"
 1827      617200
 1828              	.LASF48:
 1829 04c3 74687265 		.ascii	"threads_queue_t\000"
 1829      6164735F 
 1829      71756575 
 1829      655F7400 
ARM GAS  /var/folders/c6/c789hm653lg9vtl73krp73tm0000gn/T//ccv6ChYV.s 			page 44


 1830              	.LASF95:
 1831 04d3 63685F6D 		.ascii	"ch_mutex\000"
 1831      75746578 
 1831      00
 1832              	.LASF36:
 1833 04dc 705F7265 		.ascii	"p_refs\000"
 1833      667300
 1834              	.LASF131:
 1835 04e3 5F70616C 		.ascii	"_pal_lld_init\000"
 1835      5F6C6C64 
 1835      5F696E69 
 1835      7400
 1836              	.LASF74:
 1837 04f1 726C6973 		.ascii	"rlist\000"
 1837      7400
 1838              	.LASF13:
 1839 04f7 75696E74 		.ascii	"uint8_t\000"
 1839      385F7400 
 1840              	.LASF87:
 1841 04ff 77746F62 		.ascii	"wtobjp\000"
 1841      6A7000
 1842              	.LASF33:
 1843 0506 705F6E61 		.ascii	"p_name\000"
 1843      6D6500
 1844              	.LASF111:
 1845 050d 50434461 		.ascii	"PCData\000"
 1845      746100
 1846              	.LASF45:
 1847 0514 74687265 		.ascii	"threads_list_t\000"
 1847      6164735F 
 1847      6C697374 
 1847      5F7400
 1848              	.LASF126:
 1849 0523 474E5520 		.ascii	"GNU C 4.8.4 20140725 (release) [ARM/embedded-4_8-br"
 1849      4320342E 
 1849      382E3420 
 1849      32303134 
 1849      30373235 
 1850 0556 616E6368 		.ascii	"anch revision 213147] -mcpu=cortex-m4 -mno-thumb-in"
 1850      20726576 
 1850      6973696F 
 1850      6E203231 
 1850      33313437 
 1851 0589 74657277 		.ascii	"terwork -mthumb -ggdb -O2 -fomit-frame-pointer -fal"
 1851      6F726B20 
 1851      2D6D7468 
 1851      756D6220 
 1851      2D676764 
 1852 05bc 69676E2D 		.ascii	"ign-functions=16 -ffunction-sections -fdata-section"
 1852      66756E63 
 1852      74696F6E 
 1852      733D3136 
 1852      202D6666 
 1853 05ef 73202D66 		.ascii	"s -fno-common -flto\000"
 1853      6E6F2D63 
 1853      6F6D6D6F 
 1853      6E202D66 
ARM GAS  /var/folders/c6/c789hm653lg9vtl73krp73tm0000gn/T//ccv6ChYV.s 			page 45


 1853      6C746F00 
 1854              	.LASF39:
 1855 0603 705F6D73 		.ascii	"p_msg\000"
 1855      6700
 1856              	.LASF122:
 1857 0609 7364496E 		.ascii	"sdInit\000"
 1857      697400
 1858              	.LASF118:
 1859 0610 50414C43 		.ascii	"PALConfig\000"
 1859      6F6E6669 
 1859      6700
 1860              	.LASF97:
 1861 061a 6D5F6F77 		.ascii	"m_owner\000"
 1861      6E657200 
 1862              	.LASF120:
 1863 0622 70616C5F 		.ascii	"pal_default_config\000"
 1863      64656661 
 1863      756C745F 
 1863      636F6E66 
 1863      696700
 1864              	.LASF30:
 1865 0635 705F6374 		.ascii	"p_ctx\000"
 1865      7800
 1866              	.LASF64:
 1867 063b 76745F66 		.ascii	"vt_func\000"
 1867      756E6300 
 1868              		.comm	__gnu_lto_v1,1,1
 1869              		.ident	"GCC: (GNU Tools for ARM Embedded Processors) 4.8.4 20140725 (release) [ARM/embedded-4_8-br
ARM GAS  /var/folders/c6/c789hm653lg9vtl73krp73tm0000gn/T//ccv6ChYV.s 			page 46


DEFINED SYMBOLS
                            *ABS*:0000000000000000 hal.c
/var/folders/c6/c789hm653lg9vtl73krp73tm0000gn/T//ccv6ChYV.s:148    .text.halInit:0000000000000000 $t
/var/folders/c6/c789hm653lg9vtl73krp73tm0000gn/T//ccv6ChYV.s:154    .text.halInit:0000000000000000 halInit
/var/folders/c6/c789hm653lg9vtl73krp73tm0000gn/T//ccv6ChYV.s:189    .text.halInit:0000000000000020 $d
                            *COM*:0000000000000001 __gnu_lto_v1
                     .debug_frame:0000000000000010 $d
/var/folders/c6/c789hm653lg9vtl73krp73tm0000gn/T//ccv6ChYV.s:193    .text.halInit:0000000000000024 $t

UNDEFINED SYMBOLS
hal_lld_init
_pal_lld_init
sdInit
usbInit
boardInit
stInit
pal_default_config
