ARM GAS  /var/folders/c6/c789hm653lg9vtl73krp73tm0000gn/T//ccwnu7lN.s 			page 1


   1              		.syntax unified
   2              		.cpu cortex-m4
   3              		.fpu softvfp
   4              		.eabi_attribute 20, 1
   5              		.eabi_attribute 21, 1
   6              		.eabi_attribute 23, 3
   7              		.eabi_attribute 24, 1
   8              		.eabi_attribute 25, 1
   9              		.eabi_attribute 26, 1
  10              		.eabi_attribute 30, 2
  11              		.eabi_attribute 34, 1
  12              		.eabi_attribute 18, 4
  13              		.thumb
  14              		.file	"main.c"
  15              		.text
  16              	.Ltext0:
  17              		.section	.gnu.lto_.jmpfuncs.aebe9f9d46feb65,"",%progbits
  18 0000 789C6362 		.ascii	"x\234cb`b\300\006nCi\240,#S\004c&#C\207:\012\223\011"
  18      6062C006 
  18      6E4369A0 
  18      2C235304 
  18      63262343 
  19 0019 55BC9AE1 		.ascii	"U\274\232\341WCG\203@&#c.#X#+B\210)\227\021,\006V\317"
  19      57434783 
  19      40262363 
  19      2E235823 
  19      2B428829 
  20 0033 7C8209CA 		.ascii	"|\202\011\312bp\0002\340\212X\222!\372\300R\254@\006"
  20      62700032 
  20      E08A5892 
  20      21FAC052 
  20      AC4006
  21 0046 3398C5D6 		.ascii	"3\230\305\326\000\224f\201\351\340\2002\330\233\330"
  21      00946681 
  21      E9E08032 
  21      D89BD8
  22 0055 B12B6041 		.ascii	"\261+`AV\300\204\351*\260$\007\304k\000\304\375#\010"
  22      56C084E9 
  22      2AB02407 
  22      C46B00C4 
  22      FD2308
  23              		.text
  24              		.section	.gnu.lto_.inline.aebe9f9d46feb65,"",%progbits
  25 0000 789C6362 		.ascii	"x\234cb`b\300\006r\2414P\226\353\221\020#\003\023\307"
  25      6062C006 
  25      72A13450 
  25      96EB9110 
  25      230313C7 
  26 0014 822B120C 		.ascii	"\202+\022\014,\020\325L\334\214\014\2140\222A\366\243"
  26      2C10D54C 
  26      DC8C0C8C 
  26      309241F6 
  26      A3
  27 0025 0848BEE1 		.ascii	"\010H\276\341\225\0016y6~\006\006V\260Q,\274\014\014"
  27      95013679 
  27      367E0606 
  27      56B0512C 
ARM GAS  /var/folders/c6/c789hm653lg9vtl73krp73tm0000gn/T//ccwnu7lN.s 			page 2


  27      BC0C0C
  28 0038 CC483433 		.ascii	"\314H43\017\330xF.\006(\301\000\000\030\221\006\203"
  28      0FD87846 
  28      2E0628C1 
  28      00001891 
  28      0683
  29              		.text
  30              		.section	.gnu.lto_.pureconst.aebe9f9d46feb65,"",%progbits
  31 0000 789C6362 		.ascii	"x\234cb`b`e\200\000&\0063&3\000\001x\000z"
  31      60626065 
  31      80002606 
  31      33263300 
  31      0178007A 
  32              		.text
  33              		.section	.gnu.lto_Thread1.aebe9f9d46feb65,"",%progbits
  34 0000 789CAD52 		.ascii	"x\234\255R\317K\033A\024~of\324m\264F\275\364P\020\011"
  34      CF4B1B41 
  34      147E6F66 
  34      D46DB446 
  34      BDF45010 
  35 0015 820731F9 		.ascii	"\202\0071\371\007z\260\267\"=F\260\364\264Y\203\031"
  35      077AB0B7 
  35      223D46B0 
  35      F4B45983 
  35      19
  36 0026 3411A21E 		.ascii	"4\021\242\036\212\007_$\207\334*\322C\260\255\250\240"
  36      8A075F24 
  36      87DC2AD2 
  36      43B0ADA8 
  36      A0
  37 0037 2DA5B4D0 		.ascii	"-\245\264\320S\240=\004/*\301\037gO\241\177A\013\025"
  37      53A03D04 
  37      2F2AC11F 
  37      674FA17F 
  37      410B15
  38 004a 440FF1CD 		.ascii	"D\017\361\315\314f\245\305\203\207\016\273\373\276\231"
  38      CC66A5C5 
  38      83870EBB 
  38      FBBE99
  39 0059 79EFFBBE 		.ascii	"y\357\373\2767\263\002\004\374;\306\370\375\316\313"
  39      37B30204 
  39      FC3BC6F8 
  39      FDCECB
  40 0068 4F386207 		.ascii	"O8b\007\240X;\001(y\002\245\003\022\225\003\312\255"
  40      A0583B01 
  40      287902A5 
  40      03129503 
  40      CAAD
  41 007a 3C455811 		.ascii	"<EX\021R\341\312\013\264\365_E\275\331j}\371\363\371"
  41      52E1CA0B 
  41      B4F55F45 
  41      BDD96A7D 
  41      F9F3F9
  42 008d E7738C79 		.ascii	"\347s\214y\240\355j\007\224\211\326\206\000\002;M\363"
  42      A0ED6A07 
  42      9489D686 
  42      00023B4D 
ARM GAS  /var/folders/c6/c789hm653lg9vtl73krp73tm0000gn/T//ccwnu7lN.s 			page 3


  42      F3
  43 009e 17611205 		.ascii	"\027a\022\005\240<\202U\017 \001\333D\353\365\213\346"
  43      A03C8255 
  43      0F2001DB 
  43      44EBF58B 
  43      E6
  44 00af 21D23A95 		.ascii	"!\322:\225~\265Zq\215\274\037CS2\205\032\305\220\015"
  44      7EB55A71 
  44      8DBC1F43 
  44      5332851A 
  44      C5900D
  45 00c2 52FD6D77 		.ascii	"R\375mw\031\256\250J\365\353\032\357\251A\210\277\247"
  45      19AEA84A 
  45      F5EB1AEF 
  45      A94188BF 
  45      A7
  46 00d3 EAB866DF 		.ascii	"\352\270f\337>n\363\227\3071\254\236\277;9\370&#\017"
  46      3E6EF397 
  46      C731AC9E 
  46      BF3B39F8 
  46      26230F
  47 00e6 0ED41B9B 		.ascii	"\016\324\033\233c>\356`\202s\\r\200\326\334\014z\243"
  47      633EEE60 
  47      82735C72 
  47      80D6DC0C 
  47      7AA3
  48 00f8 F089889A 		.ascii	"\360\211\210\232\277\177\274y\314\376\335\214\2725v"
  48      BF7FBC79 
  48      CCFEDD8C 
  48      BA3576
  49 0107 BE858D12 		.ascii	"\276\205\215\022Q\237\306.\243[1\310\313\333*\343\315"
  49      519FC62E 
  49      A35B31C8 
  49      CBDB2AE3 
  49      CD
  50 0118 B38E3268 		.ascii	"\263\2162h\031?\030\371\214\241\014\261\265\3228\213"
  50      193F18F9 
  50      8CA10CB1 
  50      B5D2388B 
  51 0128 FBB8C7D3 		.ascii	"\373\270\307\323\220\364%w\031\221>`i\303\003!\217\210"
  51      90F42577 
  51      19913E60 
  51      69C30321 
  51      8F88
  52 013a 6A5D97CD 		.ascii	"j]\227\315\335\327\217\270K\037wq\360\266A3&Q\002_\206"
  52      DDD78FB8 
  52      4B1F7771 
  52      F0B64133 
  52      2651025F 
  53 014f 3C86FDDA 		.ascii	"<\206\375\332\345\251p{F\242\314t\2616\350n\203\036"
  53      E5A9707B 
  53      46A2CC74 
  53      B136E86E 
  53      831E
  54 0161 96E4F0D0 		.ascii	"\226\344\360\320\210\365R\265B\312\372\357\015ue\030"
  54      88F552B5 
  54      42CAFAEF 
ARM GAS  /var/folders/c6/c789hm653lg9vtl73krp73tm0000gn/T//ccwnu7lN.s 			page 4


  54      0D756518 
  55 0171 55189D8C 		.ascii	"U\030\235\214\311\210\3238\243S(o=k\353G\007\321\027"
  55      C988D338 
  55      A353286F 
  55      3D6BEB47 
  55      07D117
  56 0184 A08812FB 		.ascii	"\240\210\022\373+#|\365\003\246\347\375\332\307\201"
  56      2B237CF5 
  56      03A6E7FD 
  56      DAC781
  57 0193 FF6CA8F3 		.ascii	"\377l\250\363\016C\023\3674\344\376?e\216\013\323\030"
  57      0E4313F7 
  57      34E4FE3F 
  57      658E0BD3 
  57      18
  58 01a4 9E7557DE 		.ascii	"\236uW\336\327\205d\000\252\340\347\263^fN\027f\263"
  58      D7856400 
  58      AAE0E7B3 
  58      5E664E17 
  58      66B3
  59 01b6 45184E26 		.ascii	"E\030N&S\356\231_H\025\027S\272\020\314-MgSA\256\230"
  59      53EE995F 
  59      48151753 
  59      BA10CC2D 
  59      4D675341 
  60 01cc 9DD10B8B 		.ascii	"\235\321\013\213\305W\311\034\334\000!\311\2669"
  60      C557C91C 
  60      DC0021C9 
  60      B639
  61              		.text
  62              		.section	.gnu.lto_main.aebe9f9d46feb65,"",%progbits
  63 0000 789C8D52 		.ascii	"x\234\215R=O\002A\020\235\331\275\343\216\003\021\374"
  63      3D4F0241 
  63      109DD9BD 
  63      E38E0311 
  63      FC
  64 0011 A0B6B330 		.ascii	"\240\266\2630111\321\306\304\037\301%\022+\274\302l"
  64      313131D1 
  64      C6C41FC1 
  64      25122BBC 
  64      C26C
  65 0023 817F8082 		.ascii	"\201\177\200\202E\320PXP\2424\032:\013\277\032\013-"
  65      45D05058 
  65      50A2341A 
  65      3A0BBF1A 
  65      0B2D
  66 0035 D48A066D 		.ascii	"\324\212\006m\250\254\316\330\251?@ipn\357\316\234\234"
  66      A8ACCED8 
  66      A93F4069 
  66      706EEFCE 
  66      9C9C
  67 0047 8593DCCE 		.ascii	"\205\223\334\316\356\314{\357fv\226\001\203q[\243\357"
  67      EECC7BEF 
  67      66769601 
  67      83715BA3 
  67      EF
  68 0058 9AC249F2 		.ascii	"\232\302I\362\230\000d\255G\200\232\311\220\373\033"
ARM GAS  /var/folders/c6/c789hm653lg9vtl73krp73tm0000gn/T//ccwnu7lN.s 			page 5


  68      980064AD 
  68      47809AC9 
  68      90FB1B
  69 0067 CEB4411E 		.ascii	"\316\264A\036\244\245\337\256\200Lk\250\373a\335\317"
  69      A4A5DFAE 
  69      804C6BA8 
  69      FB61DDCF 
  70 0077 DF9B0855 		.ascii	"\337\233\010U\3065\035\253ETz\347\354\316\035\215\316"
  70      C6351DAB 
  70      45547AE7 
  70      ECCE1D8D 
  70      CE
  71 0088 AE4E5E3A 		.ascii	"\256N^:\230\313X \020R\336B\246CC\312\326\034\200\243"
  71      98CB5820 
  71      1052DE42 
  71      A64343CA 
  71      D61C80A3 
  72 009c 8E055A11 		.ascii	"\216\005Z\021ld\200\374\011\352\356\333r\011OP\247L"
  72      6C6480FC 
  72      09EAEEDB 
  72      72094F50 
  72      A74C
  73 00ae 0586B229 		.ascii	"\005\206\262)\263\002\321A_U\020\012<\320\373\352_ "
  73      B302D141 
  73      5F55100A 
  73      3CD0FBEA 
  73      5F20
  74 00c0 1605EDB9 		.ascii	"\026\005\355\271_q%\356 W /b\012\324\312\010\001h\003"
  74      5F7125EE 
  74      2057202F 
  74      620AD4CA 
  74      08016803 
  75 00d4 85E70475 		.ascii	"\205\347\004uO\354}w\230\210\261\015\0075\305\366\260"
  75      4FEC7D77 
  75      9888B10D 
  75      0735C5F6 
  75      B0
  76 00e5 A6A4A0A6 		.ascii	"\246\244\240\246\266\340\273\344\256AtK\321\217+\377"
  76      B6E0BBE4 
  76      AE41744B 
  76      D18F2BFF 
  77 00f5 679BE3EC 		.ascii	"g\233\343\354\266<\270\274\300\230@\312Q\3470\"7\005"
  77      B63CB8BC 
  77      C09840CA 
  77      51E73022 
  77      3705
  78 0107 A6CB8891 		.ascii	"\246\313\210\221\372'z\314\227\\\0171E\201\031\007\023"
  78      FA277ACC 
  78      975C0F31 
  78      45811907 
  78      13
  79 0118 11CCA4D7 		.ascii	"\021\314\244\327c\326\237\272M\267A\363\343}xx\376|"
  79      63D69FBA 
  79      4DB741F3 
  79      E37D7878 
  79      FE7C
  80 012a ED0552DB 		.ascii	"\355\005R\333h-\300\251l\0208\327\201#rSc%\233\212\275"
ARM GAS  /var/folders/c6/c789hm653lg9vtl73krp73tm0000gn/T//ccwnu7lN.s 			page 6


  80      682DC0A9 
  80      6C1038D7 
  80      81237253 
  80      63259B8A 
  81 013f 85E1EBE9 		.ascii	"\205\341\353\351C\375\206\207\344\024\361U\021^\272"
  81      43FD8687 
  81      E414F155 
  81      115EBA
  82 014e 078D8FDA 		.ascii	"\007\215\217\332\322OJ\305\243f\323\235\014\3624\370"
  82      D24F4AC5 
  82      A366D39D 
  82      0CF234F8 
  83 015e 86DBEE5A 		.ascii	"\206\333\356Z\261\226\251v#\332\262\375kd\002\247C\025"
  83      B196A976 
  83      23DAB2FD 
  83      6B6402A7 
  83      4315
  84 0170 5DF5E1C9 		.ascii	"]\365\341\311\034v\34377\343\004%\253\3777\347\2119"
  84      1C76E337 
  84      37E30425 
  84      ABFF37E7 
  84      8939
  85 0182 EB330BC1 		.ascii	"\3533\013\301\313\002\243\\\022;\213\016|\003x\347\243"
  85      CB02A35C 
  85      123B8B0E 
  85      7C0378E7 
  85      A3
  86 0193 A0       		.ascii	"\240"
  87              		.text
  88              		.section	.gnu.lto_.symbol_nodes.aebe9f9d46feb65,"",%progbits
  89 0000 789C458C 		.ascii	"x\234E\214K\016\202@\020\005\337\274a\000\365\222^\301"
  89      4B0E8240 
  89      1005DFBC 
  89      6100F592 
  89      5EC1
  90 0012 133C1214 		.ascii	"\023<\022\024?\370;\200!1\334\302-\033\335\270t\255"
  90      3FF83B80 
  90      2131DCC2 
  90      2D1BDDB8 
  90      74AD
  91 0024 D19D7730 		.ascii	"\321\235w0\302H\234\336TUw\322\004\361F?\234Q\300\376"
  91      C2489CDE 
  91      545577D2 
  91      04F1463F 
  91      9C51C0FE 
  92 0038 0A4887CB 		.ascii	"\012H\207\313\330\355H\010,(\323o\2533\335\212\255\301"
  92      D8ED4808 
  92      2C28D36F 
  92      AB33DD8A 
  92      ADC1
  93 004a 4D692259 		.ascii	"Mi\"Y\263\245\370;f\2311\033\312\206ZSQ\250\222r\241"
  93      B3A5F83B 
  93      6699311B 
  93      CA865A53 
  93      51A89272 
  94 005f 96541C6A 		.ascii	"\226T\034jA%\241\346T\372/\013\207\374x+\223N\032/\034"
  94      4125A1E6 
ARM GAS  /var/folders/c6/c789hm653lg9vtl73krp73tm0000gn/T//ccwnu7lN.s 			page 7


  94      54FA2F0B 
  94      87FC782B 
  94      934E1A2F 
  95 0074 21BF7F8C 		.ascii	"!\277\177\214\345\020\265\347\000\215g\212g\317\374"
  95      E510B5E7 
  95      008D678A 
  95      67CFFC
  96 0083 D13141ED 		.ascii	"\3211A\355\031\243.^\247\211e\373\241\023|\001\210y"
  96      19A32E5E 
  96      A78965FB 
  96      A1137C01 
  96      8879
  97 0095 453B     		.ascii	"E;"
  98              		.text
  99              		.section	.gnu.lto_.refs.aebe9f9d46feb65,"",%progbits
 100 0000 789C6362 		.ascii	"x\234cb`b\340g\200\000F babbfbab`bf\000\000\002\235"
 100      6062E067 
 100      80004620 
 100      62616262 
 100      66626162 
 101 001b 002E     		.ascii	"\000."
 102              		.text
 103              		.section	.gnu.lto_.decls.aebe9f9d46feb65,"",%progbits
 104 0000 789CBD5C 		.ascii	"x\234\275\\\013t\024U\232\256\252\356N\247Cx\010\352"
 104      0B741455 
 104      9AAEAAEE 
 104      4EA74378 
 104      08EA
 105 0012 32B3EED8 		.ascii	"2\263\356\3303\353\354\2523\022^\243x\316\256\217\001"
 105      33EBECAA 
 105      33125EA3 
 105      78CEAE8F 
 105      01
 106 0023 579901E5 		.ascii	"W\231\001\345$8\273\263\263;m\321)\222\236I\322Mu\205"
 106      2438BBB3 
 106      B33B6DD1 
 106      29929E49 
 106      D24D7585 
 107 0037 C79E3967 		.ascii	"\307\2369g*\011\204\227\362\210<\022M (\240(\014\202"
 107      2A098497 
 107      F2883C12 
 107      4D2028A0 
 107      280C82
 108 004a 46E469CB 		.ascii	"F\344i\313\014\020\210\206\227\020\004\014A\204Ap$ "
 108      0C108886 
 108      9710040C 
 108      41844170 
 108      2420
 109 005c 104420FB 		.ascii	"\020D \373\337\277\252\272\353V\252\272\253\032\234"
 109      DFBFAABA 
 109      EB56AABA 
 109      AB1A9C
 110 006b 3EA95BB7 		.ascii	">\251[\267\253\353~\367\377\377\373\277\356\255[\341"
 110      ABEB7EF7 
 110      FFFFFBBF 
 110      EEAD5BE1 
 111 007b 188E798F 		.ascii	"\030\216y\217e\230N\370\034\377-\303Td1\214\213a\230"
ARM GAS  /var/folders/c6/c789hm653lg9vtl73krp73tm0000gn/T//ccwnu7lN.s 			page 8


 111      65984EF8 
 111      1CFF2DC3 
 111      5464318C 
 111      8B6198
 112 008e 47E0F0C1 		.ascii	"G\340\360\301\341\205c\011\034\331\034\303x\340\334"
 112      E1856309 
 112      1CD91CC3 
 112      78E0DC
 113 009d 17CE8FC2 		.ascii	"\027\316\217\302\371\037\341<\034\216\021p0\352\275"
 113      F91FE13C 
 113      1C8E1170 
 113      30EABD
 114 00ac BF81FA73 		.ascii	"\277\201\372sp\004\341(\200#\004\207\004\207\014\307"
 114      7004E128 
 114      80230487 
 114      04870CC7 
 115 00bc 1438A671 		.ascii	"\0248\246q\012\366\0148?\017\307,\265\255\366!\355\373"
 115      0AF60C38 
 115      3F0FC72C 
 115      B5ADF621 
 115      EDFB
 116 00ce C0F90EA0 		.ascii	"\300\371\016\240\347\027p\364 \375\302q\032\256\177"
 116      E71770F4 
 116      20FDC271 
 116      1AAE7F
 117 00dd 01C70238 		.ascii	"\001\307\0028f\303q\026\216;\341\367/\341\37478\372"
 117      66C37116 
 117      8E3BE1F7 
 117      2FE1FC37 
 117      38FA
 118 00ef C17117A7 		.ascii	"\301q\027\247\320D\360\277\342\024\272\363\325\363|"
 118      D044F0BF 
 118      E214BAF3 
 118      D5F37C
 119 00fe 382F27F4 		.ascii	"8/'\364B\233\007\340<\010\216\007\341xD\275\237\364"
 119      429B07E0 
 119      3C088E07 
 119      E17844BD 
 119      9FF4
 120 0110 7B4EA51B 		.ascii	"{N\245\033n\351B\027\341\351NU\026\227\241^\011G\007"
 120      6EE94217 
 120      E1E94E55 
 120      1697A15E 
 120      094707
 121 0123 A7C885F0 		.ascii	"\247\310\205\360_\006\307\025.!\223R8\276\341\272\312"
 121      5F06C715 
 121      2E219352 
 121      38BEE1BA 
 121      CA
 122 0134 EC7770BE 		.ascii	"\354wp\276\316*\264~\217S\350\314W\373\274\217Sd\370"
 122      CE2AB47E 
 122      8F53E8CC 
 122      57FBBC8F 
 122      5364F8
 123 0147 9C2AA729 		.ascii	"\234*\247)\252\334$U\216\277QeJh\344t2\324\177\2721"
 123      AADC2455 
 123      8EBF5165 
ARM GAS  /var/folders/c6/c789hm653lg9vtl73krp73tm0000gn/T//ccwnu7lN.s 			page 9


 123      4A68E474 
 123      32D47FBA 
 124 015c 3364B95C 		.ascii	"3d\271\\\256\257\224\237j\354\321\233\231+\303\307\337"
 124      AEAF949F 
 124      6AECD19B 
 124      992BC3C7 
 124      DF
 125 016d 0852FC2F 		.ascii	"\010R\374/\226g{\370\230\230\027k\331>f\"\334\375cf"
 125      96677BF8 
 125      9898176B 
 125      D93E6622 
 125      DCFD6366 
 126 0181 A92CCF69 		.ascii	"\251,\317i\333v\356\264K\2263y\366\025\2667 \337\303"
 126      DB76EEB4 
 126      4B963379 
 126      F615B637 
 126      20DFC3
 127 0194 32F7332B 		.ascii	"2\3673+\240\341\034Y~\345\373L\327OJ\\\236]\312rP.\007"
 127      A0E11C59 
 127      7EE5FB4C 
 127      D74F4A5C 
 127      9E5DCA72 
 128 01ab 3C9E5DC6 		.ascii	"<\236]\306\336\257\364$\307\316O\315\226\335\312uF\375"
 128      DEAFF424 
 128      C7CE4FCD 
 128      96DDCA75 
 128      46FD
 129 01bd C5E4F343 		.ascii	"\305\344\363C\246\036\230\210]\332\261\364{r\375V\326"
 129      A61E9888 
 129      5DDAB1F4 
 129      7B72FD56 
 129      D6
 130 01ce 8C27B881 		.ascii	"\214'\270\201\325u\017bR\273\3673D8CX3\"\351\273x\366"
 130      D5750F62 
 130      52BBF733 
 130      44384358 
 130      3322E9BB 
 131 01e4 4D2472A5 		.ascii	"M$r\245\221\310\215\012\221+m\021\271y\307NV\256\312"
 131      91C88D0A 
 131      912B6D11 
 131      B979C74E 
 131      56AECA
 132 01f7 A668BC93 		.ascii	"\246h\274\223\231\2174V\002\221\222\217\231\226\370"
 132      998F3456 
 132      0291928F 
 132      9996F8
 133 0206 254E8A5F 		.ascii	"%N\212_\243\304\235\030\2065\225\007\277f\313\241\015"
 133      A3C49D18 
 133      86359507 
 133      BF66CBA1 
 133      0D
 134 0217 CFAE617D 		.ascii	"\317\256a}\300\305\253,K\365\317\263\036\237\236\004"
 134      C0C5AB2C 
 134      4BF5CFB3 
 134      1E9F9E04 
 135 0227 FCAEDD40 		.ascii	"\374\256\335@\360\360g\265B\254\271\247y\177\244\345"
 135      F0F067B5 
ARM GAS  /var/folders/c6/c789hm653lg9vtl73krp73tm0000gn/T//ccwnu7lN.s 			page 10


 135      42ACB9A7 
 135      797FA4E5 
 136 0237 5BEC9D58 		.ascii	"[\354\235Xs\241*\301\205G\273iu\212\027\225\374\266"
 136      73A12AC1 
 136      8547BB69 
 136      758A1795 
 136      FCB6
 137 0249 65B1BED5 		.ascii	"e\261\276\325\011\3623586A~\303\314U?\001-\2127\220"
 137      09F23335 
 137      3836417E 
 137      C3CC553F 
 137      012D8A37 
 138 025e 2D1BF0EC 		.ascii	"-\033\360\354{\354\217\241di\352Y_\242\322\311\222a"
 138      7BEC8FA1 
 138      6469EA59 
 138      5FA2D2C9 
 138      9261
 139 0270 EC3008C0 		.ascii	"\3540\010\300\006\266JL\347\354ECP\2457\242$\217rFI"
 139      06B64A4C 
 139      E7EC4543 
 139      50A537A2 
 139      248F7246 
 140 0285 B20649A6 		.ascii	"\262\006I\246\240\305\311\275V\"\177\02749\361\211\013"
 140      A0C5C9BD 
 140      56227F17 
 140      3439F189 
 140      0B
 141 0296 7E8D420A 		.ascii	"~\215B\012\317>\353\212\377h\005\261:\001\3011\247\220"
 141      CF3EEB8A 
 141      FF6805B1 
 141      3A01C131 
 141      A790
 142 02a8 29A2A666 		.ascii	")\242\246f\267\253U\012\217R\335\266m\035\325]\355\213"
 142      B7AB550A 
 142      8F52DDB6 
 142      6D1DD55D 
 142      ED8B
 143 02ba D25D8538 		.ascii	"\322]\2058+b\266\332T!\236]\237\004e\333\315K\345\003"
 143      2B62B6DA 
 143      54219E5D 
 143      9F0465DB 
 143      CD4BE503 
 144 02ce BD54BE74 		.ascii	"\275T\276t,\025\277^*\362ZY\366e\2440g\331\2169\357"
 144      2C15BF5E 
 144      2AF25A59 
 144      F665A430 
 144      67D98E39 
 145 02e3 6F69DECB 		.ascii	"oi\336\313V\24097\241\022.w\231h\263-\250\206\246\277"
 145      56A03937 
 145      A1122E77 
 145      9968B32D 
 145      A886A6BF 
 146 02f7 AC513D43 		.ascii	"\254Q=C3B\255L\033\252s\367:\3050\366\"\320;.\243ad"
 146      3342AD4C 
 146      1BAA73F7 
 146      3AC530F6 
 146      22D03B2E 
ARM GAS  /var/folders/c6/c789hm653lg9vtl73krp73tm0000gn/T//ccwnu7lN.s 			page 11


 147 030e 180C2383 		.ascii	"\030\014#\203Vv\370Jz\272B\334\013\373G\365\012\371"
 147      5676F84A 
 147      7ABA42DC 
 147      0BFB47F5 
 147      0AF9
 148 0320 E265FEEE 		.ascii	"\342e\376\356\355\254\364a\227\265b*\272hW\261v\352"
 148      EDACF461 
 148      97B5622A 
 148      BA6857B1 
 148      76EA
 149 0332 156B8BCB 		.ascii	"\025k\213\313\206be\352\361\030\275b\3312\267\246$\206"
 149      866265EA 
 149      F118BD62 
 149      D932B7A6 
 149      2486
 150 0344 F2890957 		.ascii	"\362\211\011W\266\2708\244\347b\253c.\034\231Gr\026"
 150      B6B838A4 
 150      E762AB63 
 150      2E1C9947 
 150      7216
 151 0356 5A6D0C8C 		.ascii	"Zm\014\214\372\335~\330\254km\270\0375\3723\324\350"
 151      FADD7ED8 
 151      AC6B6DB8 
 151      1F35FA33 
 151      D4E8
 152 0368 B366A661 		.ascii	"\263f\246a\013\250a\346\266\017T+;\211P\227\322\206"
 152      0BA861E6 
 152      B60F542B 
 152      3B895097 
 152      D286
 153 037a EA9CBDE9 		.ascii	"\352\234\275\351a\244\3514\002\335\350be^\203\225yi"
 153      61A4E934 
 153      02DDE862 
 153      655E8395 
 153      7969
 154 038c ADF7FA12 		.ascii	"\255\367\372\022\0255\220\177\347\267\333\322\245O\365"
 154      1535907F 
 154      E7B7DBD2 
 154      A54FF5
 155 039b BA34DD6D 		.ascii	"\2724\335mC\227z\351\361\030\275.\335\264E|\225L\235"
 155      43977AE9 
 155      F118BD2E 
 155      DDB4457C 
 155      954C9D
 156 03ae 3E7360E7 		.ascii	">s`\347\177\323s5\3131W~=W\251-$YL\275\230\214%5\201"
 156      7FD37335 
 156      CB31577E 
 156      3D57A92D 
 156      24594CBD 
 157 03c7 30C6C8B4 		.ascii	"0\306\310\264X\376Z\317\362\213vX\356k9\2207\307\362"
 157      58FE5ACF 
 157      F28B7658 
 157      EE6B3990 
 157      37C7F2
 158 03da B5642C6F 		.ascii	"\265d,o\273\205,\177\253g\371%\307,\373\031\372\243"
 158      BB852C7F 
 158      AB67F925 
ARM GAS  /var/folders/c6/c789hm653lg9vtl73krp73tm0000gn/T//ccwnu7lN.s 			page 12


 158      C72CFB19 
 158      FAA3
 159 03ec 5914CFFE 		.ascii	"Y\024\317\376\211\375!\2241,\033\261l\301\362(\226_"
 159      89FD2194 
 159      312C1BB1 
 159      6CC1F228 
 159      965F
 160 03fe 627901CB 		.ascii	"by\001\313\253P\246\244s\205\236\316z\244sy\232I\236"
 160      AB50A6A4 
 160      73859ECE 
 160      7AA47379 
 160      9A499E
 161 0411 1CBBBC23 		.ascii	"\034\273\274#{\016\257M\2322R\270\255\352\023\355\337"
 161      7B0EAF4D 
 161      9A3252B8 
 161      ADEA13ED 
 161      DF
 162 0422 43B73599 		.ascii	"C\2675\231#\023\301\035n\332m\245\204\341\230\203\330"
 162      2313C11D 
 162      6EDA6DA5 
 162      84E19883 
 162      D8
 163 0433 642A6798 		.ascii	"d*g\230R5T\336N\246T\344z\352)\325\272\312:\313y\237"
 163      523554DE 
 163      4EA654E4 
 163      7AEA29D5 
 163      BACA3ACB 
 164 0449 7E3A57CF 		.ascii	"~:W\317j}\337\036g!\366\311u\326\317\263\317#\375'\314"
 164      6A7DDF1E 
 164      6721F6C9 
 164      75D6CFB3 
 164      CF23FD27 
 165 045e E9B7C6E0 		.ascii	"\351\267\306\340\230\213\330d\266\221\376\257y\277r"
 165      988BD864 
 165      B691FEAF 
 165      79BF72
 166 046d D5C6ACF5 		.ascii	"\325\306\254\365\013\234\020\362\354L\256\033\000Vx"
 166      0B9C10F2 
 166      EC4CAE1B 
 166      005678
 167 047c 34C0B492 		.ascii	"4\300\264\222\364\330U\241\261\177JA\2705\240a\211\261"
 167      F4D855A1 
 167      B17F4A41 
 167      B835A061 
 167      89B1
 168 048e AC6D7D94 		.ascii	"\254m}\224\210|\001Jb\246'\265$(\020\216\231\207Mj\014"
 168      887C014A 
 168      62A627B5 
 168      2428108E 
 168      99874D6A 
 169 04a3 9268BB7E 		.ascii	"\222h\273~f\317\220jY\356\245\374\224Z\034\013g)\203"
 169      66CF906A 
 169      59EEA5FC 
 169      945A1C0B 
 169      672983
 170 04b6 C9B3F351 		.ascii	"\311\263\363Q\036\357\307a\323\223\307K\315\240\317"
 170      1EEFC761 
ARM GAS  /var/folders/c6/c789hm653lg9vtl73krp73tm0000gn/T//ccwnu7lN.s 			page 13


 170      D393C74B 
 170      CDA0CF
 171 04c5 1AD876C7 		.ascii	"\032\330v\307`~\012lqs-\022g?\260\357_\030O\352\227"
 171      607E0A6C 
 171      71732D12 
 171      673FB0EF 
 171      5F184FEA 
 172 04da 7024B47F 		.ascii	"p$\264\177\3441\206\366\223\306\251e\352\350\3131\007"
 172      E43186F6 
 172      93C6A965 
 172      EAE8CB31 
 172      07
 173 04eb EC706299 		.ascii	"\354pb\231\\\222a\211=\274\036\334\360\364\014\033F"
 173      5C926189 
 173      3DBC1EDC 
 173      F0F40C1B 
 173      46
 174 04fc 7A143B5B 		.ascii	"z\024;[n\034\332\232s\215\367)C\273\334\326\3206\354"
 174      6E1CDA9A 
 174      738DF729 
 174      43BBDCD6 
 174      D036EC
 175 050f 5A68CF4E 		.ascii	"Zh\317N\343\313.\367`\36732H\367o\032\273\377\364B\333"
 175      E3CB2EF7 
 175      60F73332 
 175      48F76F1A 
 175      BBFFF442 
 176 0524 234AF76F 		.ascii	"#J\367o\332\352~\361\276y]\273\347\331G\356H6~5\347"
 176      DAEA7EF1 
 176      BE795DBB 
 176      E7D947EE 
 176      48367E35 
 177 0539 4EDFB518 		.ascii	"N\337\265\030;Y\215\032\024\3130\016\337\243\372\351"
 177      3B598D1A 
 177      14CB300E 
 177      DFA3FAE9 
 178 0549 A89665C7 		.ascii	"\250\226e\307o\340\230\235q\352\323R``36|\005\216\224"
 178      6FE0989D 
 178      71EAD352 
 178      60603336 
 178      7C058E94 
 179 055d 46C3878E 		.ascii	"F\303\207\216\021i-^\273\017MB\001\333m\007\314z\226"
 179      11692D5E 
 179      BB0F4D42 
 179      01DB6D07 
 179      CC7A96
 180 0570 127B470F 		.ascii	"\022{G\017\266\3171\030M\331\273z\260\003v\300\254\263"
 180      B6CF3118 
 180      4DD9BB7A 
 180      B00376C0 
 180      ACB3
 181 0582 C5D87B7A 		.ascii	"\305\330{z\260C\216\301h\3126\350\301\216\330\001\263"
 181      B0438EC1 
 181      68CA36E8 
 181      C18ED801 
 181      B3
 182 0593 4E7F629B 		.ascii	"N\177b\233\364`\307\034\203\321\224m\321\203\235\260"
ARM GAS  /var/folders/c6/c789hm653lg9vtl73krp73tm0000gn/T//ccwnu7lN.s 			page 14


 182      F460C71C 
 182      83D1946D 
 182      D1839DB0 
 183 05a3 03E637A1 		.ascii	"\003\3467\241,\376\261J2\336\340\364+I\031\232Cp\250"
 183      2CFEB14A 
 183      32DEE0F4 
 183      2B49199A 
 183      4370A8
 184 05b6 D34C02E3 		.ascii	"\323L\002\343L\206S\017F\361M\002\313\303\033T\273P"
 184      4C86530F 
 184      46F14D02 
 184      CBC31B54 
 184      BB50
 185 05c8 BC7BBB1D 		.ascii	"\274{\273\035\304$\012\363\256>T\\q\014F\017\313\307"
 185      C4240AF3 
 185      AE3E545C 
 185      710C460F 
 185      CBC7
 186 05da 042CAD95 		.ascii	"\004,\255\225Q\262\214\316\351V.\373\232\337\313\263"
 186      51B28CCE 
 186      E9562EFB 
 186      9ADFCBB3 
 187 05ea 1F726451 		.ascii	"\037rdQ\364#\316\027\247B\251k5eMT\366\322\313\221\361"
 187      F423CE17 
 187      A742A96B 
 187      35654D54 
 187      F6D2CB91 
 188 05ff 4FAAA656 		.ascii	"O\252\246V\232\260K\257\011S\2746\304\224\304\024\276"
 188      9AB04BAF 
 188      0953BC36 
 188      C494C414 
 188      BE
 189 0610 6DAEFD07 		.ascii	"m\256\375\007\271-\306\332_\251\335\337\362\241\026"
 189      B92DC6DA 
 189      5FA9DDDF 
 189      F2A116
 190 061f 51F76244 		.ascii	"Q\367bD}\336kt\311\353\035.\326r\314|#\033T\317)\215"
 190      7DDE6B74 
 190      C9EB1D2E 
 190      D672CC7C 
 190      231B54CF 
 191 0635 1094B1F1 		.ascii	"\020\224\261\361\337\326\377I\226+2\0340\2620\316\310"
 191      DFD6FF49 
 191      962B321C 
 191      30B230CE 
 191      C8
 192 0646 4164A4EE 		.ascii	"Ad\244\356\0260\262\3141#\367\032\030iO\203\221\217"
 192      1630B2CC 
 192      3123F71A 
 192      18694F83 
 192      918F
 193 0658 34468E20 		.ascii	"4F\216 #\253n\001#\015\216\031\351\257c\204$8\215O+"
 193      23AB6E01 
 193      230D8E19 
 193      E9AF6384 
 193      24388D4F 
 194 066d 094E1FA6 		.ascii	"\011N\037\246*y\202C\350i\343\372\320\031\374\245\335"
ARM GAS  /var/folders/c6/c789hm653lg9vtl73krp73tm0000gn/T//ccwnu7lN.s 			page 15


 194      2A798243 
 194      E869E3FA 
 194      D019FCA5 
 194      DD
 195 067e 645E402E 		.ascii	"d^@.\247\312,\344\330\213\373j\325\234UY\270\335\204"
 195      A7CA2CE4 
 195      D88BFB6A 
 195      D59C5559 
 195      B8DD84
 196 0691 B493B6E9 		.ascii	"\264\223\266\351\204|9\366\226\342\322\025\260?\337"
 196      847C39F6 
 196      96E2D215 
 196      B03FDF
 197 06a0 145879EC 		.ascii	"\024Xy\354\375*-\241~\024\223\207\233\204;\272\317\350"
 197      FD2A2DA1 
 197      7E149387 
 197      9B843BBA 
 197      CFE8
 198 06b2 D70CF9D4 		.ascii	"\327\014\371\324\002\013_\240\255\276-\332\256-\232"
 198      020B5FA0 
 198      ADBE2DDA 
 198      AE2D9A
 199 06c1 9D4147BB 		.ascii	"\235AG\273\277\213\262\314\347\014)\025\271\240\273"
 199      BF8BB2CC 
 199      E70C2915 
 199      B9A0BB
 200 06d0 C56A0CBF 		.ascii	"\305j\014\277\240B\324\315\361I\014\341\227JxI\225\256"
 200      A042D4CD 
 200      F1490CE1 
 200      974A7849 
 200      95AE
 201 06e2 3EA7A165 		.ascii	">\247\241ec\307_b\307\355\306l\365\353\316\266J\225"
 201      63C75F62 
 201      C7EDC66C 
 201      F5EBCEB6 
 201      4A95
 202 06f4 EF761BE9 		.ascii	"\357v\033\351\252\034;r\322\007\323B\223\376\036\323"
 202      AA1C3B72 
 202      D207D342 
 202      93FE1ED3 
 203 0704 07C7B854 		.ascii	"\007\307\270T?\236\313NF\364\2138\201\253\3114\237\212"
 203      3F9ECB4E 
 203      46F48B38 
 203      81ABC934 
 203      9F8A
 204 0716 3F6605C4 		.ascii	"?f\005\3041+\260IG\327\011\334\225~J\232\335a+\315>"
 204      312BB049 
 204      47D709DC 
 204      957E4A9A 
 204      DD612BCD 
 205 072b 3F533F81 		.ascii	"?S?\201\343\331:\216Sa\323S\270\013M\361\250\314\263"
 205      E3D93A8E 
 205      5361D353 
 205      B80B4DF1 
 205      A8CCB3
 206 073e 8B1D83F9 		.ascii	"\213\035\203\371\315H\325\024+\301,\317~\203\321\364"
 206      CD48D514 
ARM GAS  /var/folders/c6/c789hm653lg9vtl73krp73tm0000gn/T//ccwnu7lN.s 			page 16


 206      2BC12CCF 
 206      7E83D1F4 
 207 074e 2A47965D 		.ascii	"*G\226]\276\345t\313.\034\263!S\033R3\311\245\264g\030"
 207      BEE574CB 
 207      2E1CB321 
 207      531B5233 
 207      C9A5B467 
 208 0763 FB2B0BD8 		.ascii	"\373+\013\330\027+\344\306\376N\236\006}\2549\325\033"
 208      172BE4C6 
 208      FE4E9E06 
 208      7DAC39D5 
 208      1B
 209 0774 E854B766 		.ascii	"\350T\267f\032\355\244\331\350T\035<\012\341\230F#S"
 209      1AEDA4D9 
 209      E8541D3C 
 209      0AE19846 
 209      2353
 210 0786 7613FFF8 		.ascii	"v\023\377\370\307\312\016\317\351\355\2609\363f\355"
 210      C7CA0ECF 
 210      E9EDB039 
 210      F366ED
 211 0795 F0CA087B 		.ascii	"\360\312\010{v(\307\227fza\317\007\260\347).\243>/\337"
 211      7628C797 
 211      667A61CF 
 211      07B0E729 
 211      2EA33E2F 
 212 07aa 39952D43 		.ascii	"9\225-C\301\222\337R\033\342%4D\315\260n\304Q\323\321"
 212      C192DF52 
 212      1BE22534 
 212      44CDB06E 
 212      C451D3D1 
 213 07be 85F2D837 		.ascii	"\205\362\3307\332r\217\222fV\372\014p\016\247_\327l"
 213      DA728F92 
 213      6656FA0C 
 213      700EA75F 
 213      D76C
 214 07d0 2CF7D082 		.ascii	",\367\320\202\321\326\275N\222\3706\313Ex\232\3453\252"
 214      D1D6BD4E 
 214      92F836CB 
 214      45789AE5 
 214      33AA
 215 07e2 9622199D 		.ascii	"\226\"\031\235j%\304\310\263S]\304R\246\271\210\245"
 215      6A25C4C8 
 215      B3535DC4 
 215      52A6B988 
 215      A5
 216 07f3 CCC0F279 		.ascii	"\314\300\362y\227\215e\312\027\\:\265X\340\230o\277"
 216      978D65CA 
 216      175C3AB5 
 216      58E0986F 
 216      BF
 217 0804 4DED9BAC 		.ascii	"M\355\233\254\357\246\316ws\332w\355\314\225\2215rl"
 217      EFA6CE77 
 217      73DA77ED 
 217      CC959135 
 217      726C
 218 0816 B2CBC18A 		.ascii	"\262\313\301\212O\313n\315p\347\271\210\341.\355\"\335"
ARM GAS  /var/folders/c6/c789hm653lg9vtl73krp73tm0000gn/T//ccwnu7lN.s 			page 17


 218      4FCB6ECD 
 218      70E7B988 
 218      E12EED22 
 218      DD
 219 0827 B4567CDE 		.ascii	"\264V|\336J\227\225\370\207c\326\371ld\353~+q\220X\320"
 219      4A9795F8 
 219      8763D6F9 
 219      6C64EB7E 
 219      2B719058 
 220 083c FEB4CD55 		.ascii	"\376\264\315U\243\370\303\266\017\313\324\300\364\022"
 220      A3F8C3B6 
 220      0FCBD4C0 
 220      F412
 221 084a EADA469F 		.ascii	"\352\332F\237y`J\262\374\264\013\233\324u1\3443150\325"
 221      79604AB2 
 221      FCB40B9B 
 221      D47531E4 
 221      33313530 
 222 085f D9B0E3F2 		.ascii	"\331\260\343\362\330~\323\300T\227\\\005\223\012\224"
 222      D87ED3C0 
 222      54975C05 
 222      930A94
 223 086e 1AC33A9D 		.ascii	"\032\303:\235\205,F\013\251wQQ\344\260c\341\373\365"
 223      852C460B 
 223      A9775151 
 223      E4B063E1 
 223      FBF5
 224 0880 C28F7DB3 		.ascii	"\302\217}\263\277\226U\350W<\321\347F<3Ot\257\345`\306"
 224      BF9655E8 
 224      573CD1E7 
 224      463C334F 
 224      74AFE560 
 225 0895 E61CD465 		.ascii	"\346\034\324e\231\347\354\020\327\337\012\254<V\253"
 225      99E7EC10 
 225      D7DF0AAC 
 225      3C56AB
 226 08a4 80291A7F 		.ascii	"\200)\032\177\3111\230\237\002\333\270@\033)b\3140\205"
 226      C931989F 
 226      02DBB840 
 226      1B2962CC 
 226      3085
 227 08b6 CDB28137 		.ascii	"\315\262\2017\304\232\270\375\007\265\374\\Y\203\235"
 227      C49AB8FD 
 227      07B5FC5C 
 227      59839D
 228 08c5 E1188FA6 		.ascii	"\341\030\217\246\357\374\002*\245\236o\007\3561\333"
 228      EFFC022A 
 228      A59E6F07 
 228      EE31DB
 229 08d4 8A54A34B 		.ascii	"\212T\243KJ^\306\244\244\026\223\222EX\326c\271\014"
 229      4A5EC6A4 
 229      A4169392 
 229      4558D663 
 229      B90C
 230 08e6 CB6D58EE 		.ascii	"\313mX\356\300r'\226{\260<\200\345a,\217aY\203n\372"
 230      C0722796 
 230      7BB03C80 
ARM GAS  /var/folders/c6/c789hm653lg9vtl73krp73tm0000gn/T//ccwnu7lN.s 			page 18


 230      E5612C8F 
 230      6159836E 
 231 08fb 152C9762 		.ascii	"\025,\227b\271\034\313\327\261|\003\313\225v\234\270"
 231      B91CCBD7 
 231      B17C03CB 
 231      95769CB8 
 232 090b 2115070F 		.ascii	"!\025\007\017\233\345\364y\005%\313\266\232\023W\026"
 232      9BE5F479 
 232      0525CBB6 
 232      9A135716 
 233 091b 2AB991A6 		.ascii	"*\271\221\246=+\354 &\011\211U\333A\025\235\254\320"
 233      3D2BEC20 
 233      26098955 
 233      DB41159D 
 233      ACD0
 234 092d C713ADB5 		.ascii	"\307\023\255\265\330\377\333Y\267\304_\307\034\263a"
 234      D8FFDB59 
 234      B7C45FC7 
 234      1CB361
 235 093c 14CCA1BE 		.ascii	"\024\314\241\276\353\325\365-\205\260\235v\020\315\326"
 235      EBD5F52D 
 235      85B09D76 
 235      10CDD6
 236 094b B7CCF56C 		.ascii	"\267\314\365l\266N\317\346\242\236U\241\256\314\303"
 236      B64ECFE6 
 236      A29E55A1 
 236      AECCC3
 237 095a 7235EAC4 		.ascii	"r5\352\304\032,\337\265\243\0313\365Y\337\376,\355\261"
 237      1A2CDFB5 
 237      A31933F5 
 237      59DFFE2C 
 237      EDB1
 238 096c DE2DF1AD 		.ascii	"\336-\361\255Su\244NGRg\320\031\372\221,\247O=ia\237"
 238      5375A44E 
 238      475267D0 
 238      19FA912C 
 238      A74F3D69 
 239 0982 BC518DCB 		.ascii	"\274Q\215\313P^\246\022\027=\246\224\247X\364\210]\310"
 239      505EA612 
 239      173DA694 
 239      A758F488 
 239      5DC8
 240 0994 E07876A3 		.ascii	"\340xv\243\313\013\235\0377(\214\015\020\302\324\026"
 240      CB0B9D1F 
 240      37288C0D 
 240      10C2D416 
 241 09a4 684C2D39 		.ascii	"hL-9\034\251\354I\236\300\221\353I\242\031>\312\346"
 241      1CA9EC49 
 241      9EC091EB 
 241      49A2193E 
 241      CAE6
 242 09b6 98B3594A 		.ascii	"\230\263YJV\347\366%\256]J\\cu\267^O\\\326v\377\222"
 242      56E7F625 
 242      AE5D4A5C 
 242      6375B75E 
 242      4F5CD676 
 243 09cc AF49B72C 		.ascii	"\257I\267,&\210\343\331\3671\232\305\\.\323f\220\303"
ARM GAS  /var/folders/c6/c789hm653lg9vtl73krp73tm0000gn/T//ccwnu7lN.s 			page 19


 243      2688E3D9 
 243      F7319AC5 
 243      5C2ED366 
 243      90C3
 244 09de 763308DF 		.ascii	"v3\010\337l\251\306\372YT\254c\207\305L\227~\020\244"
 244      6CA9C6FA 
 244      5954AC63 
 244      87C54C97 
 244      7E10A4
 245 09f1 DAEBFA0D 		.ascii	"\332\353\372\015\307\357Z\211a\277\021\023\212\325\335"
 245      C7EF5A89 
 245      61BF1113 
 245      8AD5DD
 246 0a00 523FAA34 		.ascii	"R?\2524\301\211ub\002\334\204\030\233\235b\300\364\011"
 246      C1897562 
 246      02DC8418 
 246      9B9D62C0 
 246      F409
 247 0a12 9B34BB8C 		.ascii	"\2334\273\214{\201+q/p\263\255\231\305\346\355tD\337"
 247      7B812B71 
 247      2F70B3AD 
 247      99C5E6ED 
 247      7444DF
 248 0a25 1BC74C63 		.ascii	"\033\307Lcn1\271\"\266%\356\371*\222z>p(\270\2376\365"
 248      6E31B922 
 248      B625EEF9 
 248      2A927A3E 
 248      7028B89F 
 249 0a3b 6E60B02C 		.ascii	"n`\260,#M\016\275\361\336J-V\222\255\031\034s\3221\036"
 249      234D0EBD 
 249      F1DE4A2D 
 249      5692AD19 
 249      1C73D231 
 250 0a50 65A9B17D 		.ascii	"e\251\261}\3331\321P\300\276\262\003\226d\305\377\240"
 250      DB31D150 
 250      C0BEB203 
 250      9664C5FF 
 250      A0
 251 0a61 1EECA263 		.ascii	"\036\354\242c0\232\262Cz\260kv\300\222\254\213\037\331"
 251      309AB243 
 251      7AB06B76 
 251      C092AC8B 
 251      1FD9
 252 0a73 5E9B72AB 		.ascii	"^\233r\253\223\305\223K\\\316tQ{d\014KtM\026d\341\006"
 252      93C5934B 
 252      5CCE7451 
 252      7B640C4B 
 252      744D1664 
 253 0a89 99C4F429 		.ascii	"\231\304\364)\345&\031\325\222\346+\2335\216a\25669"
 253      E52619D5 
 253      92E62B9B 
 253      358E61AE 
 253      3639
 254 0a9b 9B362543 		.ascii	"\2336%C\327\2040\253\256O\272\272Y\230L\227\337`\316"
 254      D78430AB 
 254      AE4FBABA 
 254      59984C97 
ARM GAS  /var/folders/c6/c789hm653lg9vtl73krp73tm0000gn/T//ccwnu7lN.s 			page 20


 254      DF60CE
 255 0aae 9AED54C0 		.ascii	"\232\355T\300\364h}ZI\345p\013\355\300\371M\306\313"
 255      F4687D5A 
 255      49E5700B 
 255      EDC0F94D 
 255      C6CB
 256 0ac0 ECA3F70B 		.ascii	"\354\243\367\013\220\223\241\373\334\213\221t?\226\007"
 256      9093A1FB 
 256      DC8B9174 
 256      3F9607
 257 0acf B13C84E5 		.ascii	"\261<\204\345a,\217b\331\212\345_\365\321\366\273A\345"
 257      612C8F62 
 257      D98AE55F 
 257      F5D1F6BB 
 257      41E5
 258 0ae1 9845D906 		.ascii	"\230E\331\006\237M\373\267Tv(\223\210\211\276\313\276"
 258      9F4DFBB7 
 258      54762893 
 258      8889BECB 
 258      BE
 259 0af2 DBDEF903 		.ascii	"\333\336\371\003\305m\237E\227\273\314\240'\212V~W\354"
 259      C56D9F45 
 259      97BBCCA0 
 259      278A567E 
 259      57EC
 260 0b04 BE638B5D 		.ascii	"\276c\213]\313\371\215\312.$\010\2671s\220\335jz\227"
 260      CBF98DCA 
 260      2E2408B7 
 260      317390DD 
 260      6A7A97
 261 0b17 3ABDC442 		.ascii	":\275\304B\210ow\335\2065j\305\017\357\260R\377\363"
 261      886F77DD 
 261      86356AC5 
 261      0FEFB052 
 261      FFF3
 262 0b29 AEC4D3B8 		.ascii	"\256\304\323\270l_\242\3223\316\305F#\027t\267ju\224"
 262      6C5FA2D2 
 262      33CEC546 
 262      231774B7 
 262      6A7594
 263 0b3c E5A0811D 		.ascii	"\345\240\201\035\312\256\014\2056\216\331b\013\3559"
 263      CAAE0C85 
 263      368ED962 
 263      0BED39
 264 0b4b 2B34B35D 		.ascii	"+4\263]|&\312\320\026\007\275+\241\014U\247\366\356"
 264      7C26CAD0 
 264      1607BD2B 
 264      A10C55A7 
 264      F6EE
 265 0b5d 52D7E03A 		.ascii	"R\327\340:P\033\2760hCJ \"\260\253\306\340\373\366\205"
 265      501BBE30 
 265      68434A20 
 265      22B0ABC6 
 265      E0FBF685 
 266 0b71 4616B7A3 		.ascii	"F\026\267\243]M\035~!\\\256\273\320\310%\026wR\205\314"
 266      5D4D1D7E 
 266      215CAEBB 
ARM GAS  /var/folders/c6/c789hm653lg9vtl73krp73tm0000gn/T//ccwnu7lN.s 			page 21


 266      D0C82516 
 266      775285CC 
 267 0b85 531832ED 		.ascii	"S\0302\355d\376\035\310\314U\347\013\013*]\357\0216"
 267      64FE1DC8 
 267      CC55E70B 
 267      0B2A5DEF 
 267      1136
 268 0b97 C812E175 		.ascii	"\310\022\341uL\373\257:\206\363Sp\033h\270\353v\340"
 268      4CFBAF3A 
 268      86F35370 
 268      1B68B8EB 
 268      76E0
 269 0ba9 AC023AC0 		.ascii	"\254\002:\300m\242\341\312\272;\205\243\251\333B\303"
 269      6DA2E1CA 
 269      BA3B85A3 
 269      A9DB42C3 
 270 0bb9 4DB10367 		.ascii	"M\261\003g\025\321\001n\017\0157\3351\034M\335>\032"
 270      15D1016E 
 270      0F0D37DD 
 270      311C4DDD 
 270      3E1A
 271 0bcb EE053B70 		.ascii	"\356\005;pfQ\335\354\243W`\236\375\026\035\3345t^\235"
 271      6651DDEC 
 271      A357609E 
 271      FD161DDC 
 271      35745E9D 
 272 0bdf 5896B949 		.ascii	"X\226\271IY\201\345\024,\247b9\335mc6vY\277\012Z\325"
 272      5981E514 
 272      2CA76239 
 272      DD6D6336 
 272      7659BF0A 
 273 0bf5 DDC6EC28 		.ascii	"\335\306\354(b\"\005s\262\023o\351\361\354kh\025\257"
 273      62220573 
 273      B2136FE9 
 273      F1EC6B68 
 273      15AF
 274 0c07 E366D50A 		.ascii	"\343f\325\012\2348n@\342w`y\006\313sX~\215\345%;S\311"
 274      9C386E40 
 274      E2776079 
 274      06CB7358 
 274      7E8DE525 
 275 0c1e 25890DAD 		.ascii	"%\211\015\255\224{\321\234\357\264\023\332~\201X\245"
 275      947BD19C 
 275      EFB413DA 
 275      7E8158A5 
 276 0c2e 3C8D2D5B 		.ascii	"<\215-[sW\034\213\312\230\023{\270\376\351\015\014="
 276      73571C8B 
 276      CA98137B 
 276      B8FEE90D 
 276      0C3D
 277 0c40 B3700A54 		.ascii	"\263p\012T\335\235v6N\260\032f\356\326\036_\316E\260"
 277      DD9D7636 
 277      4EB01A66 
 277      EED61E5F 
 277      CE45B0
 278 0c53 57D307AB 		.ascii	"W\323\007\253\357\334}\027I\234\346!\320J\003\020\317"
 278      EFDC7D17 
ARM GAS  /var/folders/c6/c789hm653lg9vtl73krp73tm0000gn/T//ccwnu7lN.s 			page 22


 278      499CE621 
 278      D04A0310 
 278      CF
 279 0c64 FA0CAB0E 		.ascii	"\372\014\253\016>\332\367\370|\211J\247\3661\316\343"
 279      3EDAF7F8 
 279      7C894AA7 
 279      F631CEE3 
 280 0c74 BEC3362A 		.ascii	"\276\3036*c\261\3335\316\0329\025\340\005\267\323\330"
 280      63B1DB35 
 280      CE1A3915 
 280      E005B7D3 
 280      D8
 281 0c85 B7D06D1E 		.ascii	"\267\320m\036\373\356M\241)\317\273\3155\305~\246\\"
 281      FBEE4DA1 
 281      29CFBBCD 
 281      35C57EA6 
 281      5C
 282 0c96 E34EF32D 		.ascii	"\343N\363-\231j7\225\221\246\214\203\361\204\343\247"
 282      996A3795 
 282      91A68C83 
 282      F184E3A7 
 283 0ca6 096D3A76 		.ascii	"\011m:v\366x\216\262\364T\353\3060\330=u\030\244p\010"
 283      F6788EB2 
 283      F454EBC6 
 283      30D83D75 
 283      18A47008 
 284 0cba 218BDDC6 		.ascii	"!\213\335\3060\330\204sPr\335F\020l\322\326F\025\027"
 284      30D88473 
 284      5072DD46 
 284      106CD2D6 
 284      461517
 285 0ccd 77194920 		.ascii	"w\031I m\323\014^\312\343Z\005\354\232c0?\005\266A\017"
 285      6DD30C5E 
 285      CAE35A05 
 285      EC9A6330 
 285      3F05B641 
 286 0ce2 56D1C306 		.ascii	"V\321\303\006X\262\300\245\007\233\351\030\214\246l"
 286      58B2C0A5 
 286      079BE918 
 286      8CA66C
 287 0cf1 8B1E6CAE 		.ascii	"\213\036l\256\035\260dAK\0176\3371\230\236\262\262\330"
 287      1DB06441 
 287      4B0F36DF 
 287      31989EB2 
 287      B2D8
 288 0d03 B1A65D24 		.ascii	"\261\246]$d\341\256\227\262\244\273^lm\214Y\3556l\214"
 288      64E1AE97 
 288      B2A4BB5E 
 288      6C6D8C59 
 288      ED366C8C 
 289 0d17 D93FB307 		.ascii	"\331?\263\007\321.r=\3653\227\003q\355R\336\220\252"
 289      D12E723D 
 289      F5339703 
 289      71ED52DE 
 289      90AA
 290 0d29 41E648DB 		.ascii	"A\346H\3334\264\013:\377\264\251\233<#;\276\231\341"
 290      34B40B3A 
ARM GAS  /var/folders/c6/c789hm653lg9vtl73krp73tm0000gn/T//ccwnu7lN.s 			page 23


 290      FFB4A99B 
 290      3C233BBE 
 290      99E1
 291 0d3b F52484BF 		.ascii	"\365$\204\277c4\213\226&\316\257\\NM\367'M\265}\345"
 291      63348B96 
 291      26CEAF5C 
 291      4E4DF727 
 291      4DB57DE5 
 292 0d4f FA0FB430 		.ascii	"\372\017\2640#W\312\367\352\372\352\245\365E\\F<0\254"
 292      2357CAF7 
 292      EAFAEAA5 
 292      F5455C46 
 292      3C30AC
 293 0d62 FB29E69E 		.ascii	"\373)\346\236\353\320\233\277\334\3034,\330\000\352"
 293      EBD09BBF 
 293      DCC3342C 
 293      D800EA
 294 0d71 9CFD9AF2 		.ascii	"\234\375\232\362*\330\006\004Z\332\303\030\026\\\206"
 294      2AD80604 
 294      5ADAC318 
 294      165C86
 295 0d80 B0E0A2DD 		.ascii	"\260\340\242\335\265\313\227\250tv\272\030g7s\314j\354"
 295      B5CB97A8 
 295      7476BA18 
 295      673773CC 
 295      6AEC
 296 0d92 F09D84FE 		.ascii	"\360\235\204\376QD\246\032\242\362\266\326\263_\364"
 296      5144A61A 
 296      A2F2B6D6 
 296      B35FF4
 297 0da1 AB9663E5 		.ascii	"\253\226c\345.M\024o;\006\354e\030\024\216Y\237\256"
 297      2E4D146F 
 297      3B06EC65 
 297      18148E59 
 297      9FAE
 298 0db3 DEE858D7 		.ascii	"\336\350X\327\336\276Y\203Y\324\333\372,\012\246Vv\254"
 298      DEBE5983 
 298      59D4DBFA 
 298      2C0AA656 
 298      76AC
 299 0dc5 CE6ABD06 		.ascii	"\316j\275\006L\270]o\3021\307`~\012\354\202\036l\233"
 299      4CB85D6F 
 299      C231C760 
 299      7E0AEC82 
 299      1E6C9B
 300 0dd8 1D30BF35 		.ascii	"\0350\2775e\027\365`\273\034\203\321\224]N\200\361l"
 300      6517F560 
 300      BB1C83D1 
 300      945D4E80 
 300      F16C
 301 0dea B99B4B0D 		.ascii	"\271\233K\015f\366\000\322\354\243\217c<[\357&i\345"
 301      66F600D2 
 301      ECA38F63 
 301      3C5BEF26 
 301      69E5
 302 0dfc 121CA957 		.ascii	"\022\034\251W\261\\\206\345kX\256\300\362M,Wa\271\025"
 302      B15C86E5 
ARM GAS  /var/folders/c6/c789hm653lg9vtl73krp73tm0000gn/T//ccwnu7lN.s 			page 24


 302      6B58AEC0 
 302      F24D2C57 
 302      61B915
 303 0e0f CBBF60B9 		.ascii	"\313\277`\271\035\313F;Y\362\313t\014\267\375\320(\326"
 303      1DCB463B 
 303      59F2CB74 
 303      0CB7FDD0 
 303      28D6
 304 0e21 52750771 		.ascii	"Ru\007q\202;Q\301ww1\3214\036\030\331\370\247\025\317"
 304      823B51C1 
 304      777731D1 
 304      341E18D9 
 304      F8A715CF 
 305 0e35 698464C7 		.ascii	"i\204d\307\011i;\177y\347\277\223\014\"\325\2764\236"
 305      09693B7F 
 305      79E7BF93 
 305      0C22D5BE 
 305      349E
 306 0e47 6D0691A6 		.ascii	"m\006\221\246\272\213\334\267\307\3507\2175c:\261\307"
 306      BA8BDCB7 
 306      C7E8378F 
 306      35633AB1 
 306      C7
 307 0e58 96E3EC68 		.ascii	"\226\343\354h^D9\374Y=Y\0253\035\207_\036\2333;{\317"
 307      5E4439FC 
 307      593D5915 
 307      331D875F 
 307      1E9B333B 
 308 0e6e 739A2799 		.ascii	"s\232'\231g\004K\351I\374\024X\265\036\254\3321X\177"
 308      67044BE9 
 308      49FC1458 
 308      B51EACDA 
 308      31587F
 309 0e81 0AEC2D3D 		.ascii	"\012\354-=X\255\035\260\244\233\2514\315\337\213\232"
 309      58AD1DB0 
 309      A49BA934 
 309      CDDF8B9A 
 310 0e91 BF0F75F8 		.ascii	"\277\017u\370c,\017by\210\366W\365=\215:\247\214\217"
 310      632C0F62 
 310      7988F657 
 310      F53D8D3A 
 310      A78C8F
 311 0ea4 0E2F3190 		.ascii	"\016/1\220LjD+\013\3710\221`\337\315,\222c\347\3336"
 311      4C6A442B 
 311      0BF93091 
 311      60DFCD2C 
 311      9263E7DB 
 312 0eb9 7EBBB782 		.ascii	"~\273\267\202\235[!7\312\355Dq\225\014\232c\032\014"
 312      9D5B2137 
 312      CAED4471 
 312      950C9A63 
 312      1A0C
 313 0ecb 04DDC3BC 		.ascii	"\004\335\303\274*\313U\270F\244.\261n\306;\216\270\357"
 313      2ACB55B8 
 313      46A42EB1 
 313      6EC63B8E 
 313      B8EF
ARM GAS  /var/folders/c6/c789hm653lg9vtl73krp73tm0000gn/T//ccwnu7lN.s 			page 25


 314 0edd 36ED4C7B 		.ascii	"6\355L{\221\346_\230eDE\345\327e\027\346\355\214\332"
 314      91E65F98 
 314      654445E5 
 314      D76517E6 
 314      ED8CDA
 315 0ef0 8662EDA8 		.ascii	"\206b\355\250\233\37276\204\262\372\343\261\267\017"
 315      9BFA3736 
 315      84B2FAE3 
 315      B1B70F
 316 0eff 64CF296B 		.ascii	"d\317)k\353\354\274\333\220\375\273\255\347\035\307"
 316      EBECBCDB 
 316      90FDBBAD 
 316      E71DC7
 317 0f0e D5EC3F91 		.ascii	"\325\354?\221\361\363\354\2578\203\226\253$\255}\235"
 317      F1F3ECAF 
 317      388396AB 
 317      24AD7D9D 
 318 0f1e B0821315 		.ascii	"\260\202\023\025\236m\263`#\201a\240\257mN\333\2137"
 318      9E6DB360 
 318      238161A0 
 318      AF6D4EDB 
 318      8B37
 319 0f30 CEDF5FBD 		.ascii	"\316\337_\275V\236<]\276\321\371G\326\376\024\345s\343"
 319      569E3C5D 
 319      BED1F947 
 319      D6FE14E5 
 319      73E3
 320 0f42 14E533DC 		.ascii	"\024\3453\334=\255\233\243p\314I\203\3705BNu\225\024"
 320      3DAD9BA3 
 320      70CC4983 
 320      F835424E 
 320      759514
 321 0f55 50B2A7F3 		.ascii	"P\262\247\363\370\367k\344\255\223\345\316\316?\306"
 321      F8F76BE4 
 321      AD93E5CE 
 321      CE3FC6
 322 0f64 47707A2F 		.ascii	"Gpz/s\210\323\246\020/\336\330y_\235\0253d\227\200\025"
 322      7388D3A6 
 322      102FDED8 
 322      795F9D15 
 322      33649780 
 323 0f79 37674C26 		.ascii	"7gL&\\\226\257\353.\341\364\337\015\317\022\010\331"
 323      5C96AFEB 
 323      2EE1F4DF 
 323      0DCF1208 
 323      D9
 324 0f8a 497CF427 		.ascii	"I|\364'K\310\003\276sn\242{\363z\031\315\245\332m\330"
 324      4BC803BE 
 324      736EA27B 
 324      F37A19CD 
 324      A5DA6DD8 
 325 0f9e 646C     		.ascii	"dl"
 326 0fa0 98CF1928 		.ascii	"\230\317\031(d\030\243\304k-\304\365\265\251\270\216"
 326      6418A3C4 
 326      6B2DC4F5 
 326      B5A9B88E 
 327 0fb0 9DFDE00F 		.ascii	"\235\375\340\017\351\214\375%w\262\0079\265\026~U\225"
ARM GAS  /var/folders/c6/c789hm653lg9vtl73krp73tm0000gn/T//ccwnu7lN.s 			page 26


 327      E98CFD25 
 327      77B20739 
 327      B5167E55 
 327      95
 328 0fc1 404715AE 		.ascii	"@G\025\256/t\240\010\376\324E\004/\033E`\010\207N\377"
 328      2F74A008 
 328      FED44504 
 328      2F1B4560 
 328      08874EFF 
 329 0fd5 B3426CB3 		.ascii	"\263Bl\263\022\025\277E\227\270\276K\177iDE\375(\354"
 329      1215BF45 
 329      97B8BE4B 
 329      7F694445 
 329      FD28EC
 330 0fe8 54D6080C 		.ascii	"T\326\010\014\303\260\335b\030:M\207a\312\273[\331\270"
 330      C3B0DD62 
 330      183A4D87 
 330      61CABB5B 
 330      D9B8
 331 0ffa E2DB1F85 		.ascii	"\342\333\037\2052\217"
 331      328F
 332 1000 4167C90A 		.ascii	"Ag\311\012U\374\213\352#\015\204\035\265 l\262\307\214"
 332      55FC8BEA 
 332      230D841D 
 332      B5206CB2 
 332      C78C
 333 1012 B0EAD7CE 		.ascii	"\260\352\327\316\374\"\015\302*=F\377\3051\223o3\357"
 333      FC220DC2 
 333      2A3D46FF 
 333      C531936F 
 333      33EF
 334 1024 78AA69C7 		.ascii	"x\252i\307\233\336\330\365\023\235+ \200\034\263\312"
 334      9BDED8F5 
 334      139D2B20 
 334      801CB3CA 
 335 1034 02623A0D 		.ascii	"\002b:\015\361#f\011\2018\177y\357/V\225\023\335\226"
 335      F1236609 
 335      81387F79 
 335      EF2F5695 
 335      13DD96
 336 1047 AF74B29D 		.ascii	"\257t\262\235.\355\377\2025\304QT\362\351\177\372\205"
 336      2EEDFF82 
 336      35C45154 
 336      F2E97FFA 
 336      85
 337 1058 9B461280 		.ascii	"\233F\022\200\004,\266\007\302\313N\010/\262<\255\""
 337      042CB607 
 337      C2CB4E08 
 337      2FB23CAD 
 337      22
 338 1069 8E469693 		.ascii	"\216F\226\223@\237\272\240\231,<\321p@\333\3653\215"
 338      409FBAA0 
 338      992C3CD1 
 338      7040DBF5 
 338      338D
 339 107b D3D90F96 		.ascii	"\323\331\017\226\311\2619 \314v\266\263\323\253\345"
 339      C9B13920 
ARM GAS  /var/folders/c6/c789hm653lg9vtl73krp73tm0000gn/T//ccwnu7lN.s 			page 27


 339      CC76B6B3 
 339      D3ABE5
 340 108a 40D34E24 		.ascii	"@\323N$\326\260\344;4\250=\272\231X\335\242\213K\324"
 340      D6B0E43B 
 340      34A83DBA 
 340      9958DDA2 
 340      8B4BD4
 341 109d 9D41B33D 		.ascii	"\235A\263=\204\241?\033\304b\003\012\262ClT\345\351"
 341      84A13F1B 
 341      C462030A 
 341      B2436C54 
 341      E5E9
 342 10af FA5EF444 		.ascii	"\372^\364De\367\"\371)\365^\201\272\326Z\253\347m\246"
 342      65F722F9 
 342      29F55E81 
 342      BAD65AAB 
 342      E76DA6
 343 10c2 8F58EA5A 		.ascii	"\217X\352Z[\216\253\304/@\342?\261 \336\022\210cNa\223"
 343      5B8EABC4 
 343      2F40E23F 
 343      B120DE12 
 343      88634E61 
 344 10d7 9AAEA4C7 		.ascii	"\232\256\244\307~\247\276\322m\213\364\375\207\351m"
 344      7EA7BED2 
 344      6D8BF4FD 
 344      87E96D
 345 10e6 0E17E3B0 		.ascii	"\016\027\343\260j\277\324\332h\352\234\360\343\3038"
 345      6ABFD4DA 
 345      68EA9CF0 
 345      E3C338
 346 10f5 0951F6F2 		.ascii	"\011Q\366\362]3\2029Y\025\002\342\016)`\313\221\262"
 346      5D338239 
 346      591502E2 
 346      0E2960CB 
 346      91B2
 347 1107 8ADE4EC1 		.ascii	"\212\336N\301\374\024e\307^\242_^\237n\007/\311\376"
 347      FC1465C7 
 347      5EA25F5E 
 347      9F6E072F 
 347      C9FE
 348 1119 84F6C3BA 		.ascii	"\204\366\303\2727\022\347:\006\243\211\273\254\007\253"
 348      3712E73A 
 348      06A389BB 
 348      AC07AB
 349 1128 B10366FF 		.ascii	"\261\003f\377IFBG \212xp\317\242\207\344\230\213\260"
 349      49464247 
 349      208A7870 
 349      CFA287E4 
 349      988BB0
 350 113b ACC7F215 		.ascii	"\254\307\362\025,\227b\271\334Ce\263\257\366\326l\304"
 350      2C9762B9 
 350      DC4365B3 
 350      AFF6D66C 
 350      C4
 351 114c 541353A9 		.ascii	"T\023S\251\204\034k\260\266\016\263\335\357`\332\177"
 351      841C6BB0 
 351      B60EB3DD 
ARM GAS  /var/folders/c6/c789hm653lg9vtl73krp73tm0000gn/T//ccwnu7lN.s 			page 28


 351      EF60DA7F 
 352 115c 2D63A7A0 		.ascii	"-c\247\240u\274\201\326\261\242wJ\3530\276_\360>6Y\325"
 352      75BC81D6 
 352      B1A2774A 
 352      EB30BE5F 
 352      F03E3659 
 353 1171 D53A0E05 		.ascii	"\325:\016\005\024\353Xe\303:\312c\337,L\377\277W\200"
 353      14EB5865 
 353      C33ACA63 
 353      DF2C4CFF 
 353      BF5780
 354 1184 957FAEBD 		.ascii	"\225\177\256\275\367\263\026\3718\230\232\017\343\277"
 354      F7B316F9 
 354      38989A0F 
 354      E3BF
 355 1192 B038854D 		.ascii	"\2608\205M\032L\370\370_\205\217\006[|\254_\250\351"
 355      1A4CF8F8 
 355      5F858F06 
 355      5B7CAC5F 
 355      A8E9
 356 11a4 FE1A0FD1 		.ascii	"\376\032\017\321\260\2168lz3\277\015-\250\256\012X\247"
 356      B08E386C 
 356      7A33BF0D 
 356      2DA8AE0A 
 356      58A7
 357 11b6 63305AF7 		.ascii	"c0Z\3677\267h\353\220\312?}\232\332\307\006^\222]M["
 357      37B768EB 
 357      90CA3F7D 
 357      9ADAC706 
 357      5E925D4D 
 358 11cb 5A8C6FC1 		.ascii	"Z\214o\301\245JGA\345Z\313\324'G\357#Os\3728\315I\301"
 358      A54A4741 
 358      E55ACBD4 
 358      2747EF23 
 358      4F73FA38 
 359 11e2 6C1DD34D 		.ascii	"l\035\323M\311\201\204\303\337j/M\343\244l\211\035@"
 359      C98184C3 
 359      DF6A2F4D 
 359      E3A46C89 
 359      1D40
 360 11f4 FB7B4A1B 		.ascii	"\373{J\033t~`\035\372\201\367\320\3367`\271\011\313"
 360      747E601D 
 360      FA81F7D0 
 360      DE3760B9 
 360      09CB
 361 1206 2D58FED9 		.ascii	"-X\376\331cc\366I\006?\216\275\336\303\251\366\226\236"
 361      6363F649 
 361      063F8EBD 
 361      DEC3A9F6 
 361      969E
 362 1218 425D4B28 		.ascii	"B]K(\024\317nt\014F+\324\334\303z\205\342\331\315v\360"
 362      14CF6E74 
 362      0C462BD4 
 362      DCC37A85 
 362      E2D9CD76 
 363 122d 9228D45B 		.ascii	"\222(\324[\212sV\264\363\365>\254C0\177\262AY\245\033"
 363      8A7356B4 
ARM GAS  /var/folders/c6/c789hm653lg9vtl73krp73tm0000gn/T//ccwnu7lN.s 			page 29


 363      F3F53EAC 
 363      43307FB2 
 363      4159A51B 
 364 1241 94D53828 		.ascii	"\224\3258(o\341\020l\303r;\226;h\207\374N\037\203C6"
 364      6FE1106C 
 364      C3723B96 
 364      3B6887FC 
 364      4E1F8343 
 365 1256 DD1B62B9 		.ascii	"\335\033b\271\275J\216mju\360o\204\352Z\377\246\275"
 365      BD4A8E6D 
 365      6A75F06F 
 365      84EA5AFF 
 365      A6BD
 366 1268 24D2845E 		.ascii	"$\322\204^lc\037S/\226\364%\021l\322l\222f\025)^\254"
 366      6C631F53 
 366      2F96F425 
 366      116CD26C 
 366      92661529 
 367 127e 39B5179B 		.ascii	"9\265\027\233\\\021kxyy\302\033W$v\314q\326k\010\324"
 367      5C116B78 
 367      7979C21B 
 367      572476CC 
 367      71D66B08 
 368 1293 FBF087E3 		.ascii	"\373\360\207\343d8TR\363\241k\326\015\335\036\034\272"
 368      64385452 
 368      F3A16BD6 
 368      0DDD1E1C 
 368      BA
 369 12a4 BDF4407D 		.ascii	"\275\364@}n\034\250\224k\260\3648\035h\325r3\345\037"
 369      6E1CA894 
 369      6BB0F438 
 369      1D68D572 
 369      33E51F
 370 12b7 FF9C36E2 		.ascii	"\377\2346\342\325S\377\346G\255Zo\224\212\265:\031\370"
 370      D553FFE6 
 370      47AD5A6F 
 370      948AB53A 
 370      19F8
 371 12c9 96F7CF3C 		.ascii	"\226\367\317<\204\317:\016\341\260W\335\356p\330qq\310"
 371      84CF3A0E 
 371      E1B057DD 
 371      EE70D871 
 371      71C8
 372 12db 30E4B1F3 		.ascii	"0\344\261\363\202_\271j#\366\236\304\227\361\234\274"
 372      825FB96A 
 372      23F69EC4 
 372      97F19CBC 
 373 12eb DCB55D7B 		.ascii	"\334\265]{Y\240\325\203\217\377o7:\361\264^\026x\023"
 373      59A0D583 
 373      8FFF6F37 
 373      3AF1B45E 
 373      167813
 374 12fe 618EDC2A 		.ascii	"a\216\334*\2659\242S\233\243\2506\237\322j\263\366v"
 374      B539A253 
 374      9BA3A836 
 374      9FD26AB3 
 374      F676
ARM GAS  /var/folders/c6/c789hm653lg9vtl73krp73tm0000gn/T//ccwnu7lN.s 			page 30


 375 1310 1B6A63B6 		.ascii	"\033jc\266#$\376\"\330\241?\274H&i\031\272=\031\312"
 375      2324FE22 
 375      D8A13FBC 
 375      48266919 
 375      BA3D19CA 
 376 1324 FE0A6D76 		.ascii	"\376\012mv\326]\2039\304\252T}\356q\272-\340\244\307"
 376      D65D8339 
 376      C4AA547D 
 376      EE71BA2D 
 376      E0A4C7
 377 1337 7C5BC0F7 		.ascii	"|[\300\367\343\2144\030\0311\364\253\326'\332\026]\225"
 377      E38C3418 
 377      1931F4AB 
 377      D627DA16 
 377      5D95
 378 1349 4E74F350 		.ascii	"Nt\363Pt\363\321A\256\300r\027\226\007\260l\301\362"
 378      74F3D141 
 378      AEC07217 
 378      9607B06C 
 378      C1F2
 379 135b 042DD8BF 		.ascii	"\004-\330\277\304\365As\234\364|\220t\361\327\304,\325"
 379      C4F54173 
 379      9CF47C90 
 379      74F1D7C4 
 379      2CD5
 380 136d 6C7B4BFD 		.ascii	"l{K\375cds\341G\011\217CM\217\010\300\027\216\005y\306"
 380      636473E1 
 380      47098F43 
 380      4D8F08C0 
 380      178E0579 
 381 1382 4290DA3F 		.ascii	"B\220\332?S\265jw\332c\276\277B\231\021[\265:\233h\245"
 381      53B56A77 
 381      DA63BEBF 
 381      4299115B 
 381      B53A9B68 
 382 1397 6EAD4BF6 		.ascii	"n\255K\366\334\023r\004\\\363N\365h\022\275A\231\355"
 382      DC137204 
 382      5CF34EF5 
 382      6812BD41 
 382      99ED
 383 13a9 A7BEE4DB 		.ascii	"\247\276\344\333\273\270\320\275E\277\320m`\343s\213"
 383      BBB8D0BD 
 383      45BFD06D 
 383      60E3738B 
 384 13b9 A48DB4FE 		.ascii	"\244\215\264\376\312C\257}\267\267->\365\331\275+I\372"
 384      CA43AF7D 
 384      B7B72D3E 
 384      F5D9BD2B 
 384      49FA
 385 13cb 4456F1CA 		.ascii	"DV\361\312&;X\307k7\256 \355\342\014\373L8\346K\203"
 385      263B58C7 
 385      6B37AE20 
 385      EDE20CFB 
 385      4C38E64B 
 386 13e0 2F5197D0 		.ascii	"/Q\227\320[\204\247\224\333!\015\306;\316y\254\226\320"
 386      5B84A794 
 386      DB210DC6 
ARM GAS  /var/folders/c6/c789hm653lg9vtl73krp73tm0000gn/T//ccwnu7lN.s 			page 31


 386      3BCE79AC 
 386      96D0
 387 13f2 D550A42E 		.ascii	"\325P\244.X\177\"\217\352\033_C'\215(E\277@\257\345"
 387      587F228F 
 387      EA1B5F43 
 387      278D2845 
 387      BF40AFE5 
 388 1406 18E442D6 		.ascii	"\030\344B\326\201\254x\271l\251\024eIZuX\266\272\224"
 388      81AC78B9 
 388      6CA91465 
 388      495A7558 
 388      B6BA94
 389 1419 640CAE58 		.ascii	"d\014\256X\266:\223\244\3257\211V\314\017\373\365\313"
 389      B63A93A4 
 389      D5378956 
 389      CC0FFBF5 
 389      CB
 390 142a 51FEC2D1 		.ascii	"Q\376\302\321\234B\276('T\022,*\315\027r\242\202\030"
 390      9C42BE28 
 390      2754122C 
 390      2ACD1772 
 390      A28218
 391 143d E28BFA15 		.ascii	"\342\213\372\0252\331yX\033&\206\306\013b\306\223O?"
 391      32D97958 
 391      1B2686C6 
 391      0B62C693 
 391      4F3F
 392 144f EB1FCAF4 		.ascii	"\353\037\312\364\324_\373\325\310\321\377\235S\032\025"
 392      D45FFBD5 
 392      C8D1FF9D 
 392      531A15
 393 145e 738AC241 		.ascii	"s\212\302A\000\030*\024\025\361bNA0\370\000/\026?P\022"
 393      00182A14 
 393      15F1624E 
 393      4130F800 
 393      2F163F50 
 394 1473 2E111E10 		.ascii	".\021\036\020\3701\241\234\201\375\007\014\356?\244"
 394      F831A19C 
 394      81FD070C 
 394      EE3FA4
 395 1482 FFCF728A 		.ascii	"\377\317r\212Bc\310\3179\364\317\203\373\015\35178\321"
 395      4263C8CF 
 395      39F4CF83 
 395      FB0DE937 
 395      38D1
 396 1494 BD949F2F 		.ascii	"\275\224\237/\214\205\3563\242\241\377\023\002\322\010"
 396      8C85EE33 
 396      A2A1FF13 
 396      02D208
 397 14a3 473DD097 		.ascii	"G=\320\227u\230\241\022\0110\275\245p\036\022\220\376"
 397      7598A112 
 397      0930BDA5 
 397      701E1290 
 397      FE
 398 14b4 E7168016 		.ascii	"\347\026\200\026\363\301\302P\211\220\023\000r\371\322"
 398      F3C1C250 
 398      89901300 
ARM GAS  /var/folders/c6/c789hm653lg9vtl73krp73tm0000gn/T//ccwnu7lN.s 			page 32


 398      72F9D2
 399 14c3 2229204D 		.ascii	"\") M\212\010Q\350\304\027\010\250\335x&\210!Ip\213"
 399      8A0851E8 
 399      C41708A8 
 399      DD782688 
 399      2149708B 
 400 14d7 029F3F58 		.ascii	"\002\237?X/nQ\312\211\204E)\232\363x\356\310\241#'\346"
 400      2F6E51CA 
 400      89844529 
 400      9AF378EE 
 400      C8A12327 
 401 14ec 04C3C591 		.ascii	"\004\303\305\221P\221 Fs\236\034:4'X\250!y\212\243\005"
 401      50912046 
 401      739E1C3A 
 401      342758A8 
 401      21798AA3 
 402 1501 01C90B60 		.ascii	"\001\311\013`\203\006\006$\300Uk\256H\251\344*\020\244"
 402      83060624 
 402      C0556BAE 
 402      48A9E42A 
 402      10A4
 403 1513 7B0CA01A 		.ascii	"{\014\240\032i\301\302\350\244h\234\034R\017\025\203"
 403      69C1C2E8 
 403      A4689C1C 
 403      520F1583 
 404 1523 28334BD5 		.ascii	"(3K\325\366Y\012\205\244\352\006(\311\015XR\006\022"
 404      F6590A85 
 404      A4EA0628 
 404      C90D5852 
 404      0612
 405 1535 2B7908B5 		.ascii	"+y\010\265\222k|\261\364#Kta\274P\"\021\354\036X\013"
 405      926B7CB1 
 405      F4234B74 
 405      61BC5022 
 405      11EC1E58 
 406 154a 44C3A562 		.ascii	"D\303\245b\020:\310\326\177\355\245|)\012E%\241D\020"
 406      103AC8D6 
 406      7FEDA57C 
 406      290A4525 
 406      A14410
 407 155d 03520FFA 		.ascii	"\003R\017\372\202W(\012\224\010\023\245L\251\220t\011"
 407      8257280A 
 407      940813A5 
 407      4CA99074 
 407      09
 408 156e FC050B03 		.ascii	"\374\005\013\003J\335o\315W\2600\237\350F\004\233\302"
 408      4ADD6FCD 
 408      57B0309F 
 408      E846049B 
 408      C2
 409 157f 29220AE3 		.ascii	")\"\012\343\275RD\014\205\003\312\327P\330\033\014\227"
 409      BD52440C 
 409      8503CAD7 
 409      50D81B0C 
 409      97
 410 1590 48F0EB8F 		.ascii	"H\360\353\217\223\212\2740\030\026\005\200\352F.\023"
 410      938ABC30 
ARM GAS  /var/folders/c6/c789hm653lg9vtl73krp73tm0000gn/T//ccwnu7lN.s 			page 33


 410      18160580 
 410      EA462E13 
 411 15a0 C106A589 		.ascii	"\301\006\245\211\367\245n\021\030\377P1\264\312\024"
 411      F7A56E11 
 411      18FF5031 
 411      B4CA14
 412 15af 8502508B 		.ascii	"\205\002P\213\200\304\211\2039\361g\234\370 '>\304\211"
 412      80C48983 
 412      39F1679C 
 412      F820273E 
 412      C489
 413 15c1 4338F161 		.ascii	"C8\361a\2278\240?\034\003\270\"\021N\203<\221\000 {"
 413      9738A03F 
 413      1C03B822 
 413      114E833C 
 413      9100207B 
 414 15d5 09C11380 		.ascii	"\011\301\023\200\351H \\\224/\210\356`!/\022.\370b!"
 414      E948205C 
 414      942F88EE 
 414      60212F12 
 414      2EF86221 
 415 15e9 538A4ABC 		.ascii	"S\212J\274\004\342\203\037\261\346\225\212\303\371\312"
 415      04E2831F 
 415      B1E6958A 
 415      C3F9CA
 416 15f8 F7B1457C 		.ascii	"\367\261E|A\324+\211\302\330(\362G*\031b\376$P\214L"
 416      41D42B89 
 416      C2D828F2 
 416      472A1962 
 416      FE24508C 
 417 160d 6162480A 		.ascii	"abH\012\302\215\031\023\244\360\230\337Ez\253r\204["
 417      C28D1913 
 417      A4F098DF 
 417      457AAB72 
 417      845B
 418 161f 04512821 		.ascii	"\004Q(!\343\341\231 Ib$\033\344\032\025\212\371H!\320"
 418      E3E19920 
 418      4962241B 
 418      E41A158A 
 418      F94821D0 
 419 1633 7FB7B568 		.ascii	"\177\267\265h\005\302XO\005%\032\030W*\224\002D\257"
 419      05C2584F 
 419      05251A18 
 419      572A9402 
 419      44AF
 420 1645 F8A0A897 		.ascii	"\370\240\250\227\274\352\331\023\204\261\224<\321\000"
 420      BCEAD913 
 420      84B1943C 
 420      D100
 421 1653 9C810268 		.ascii	"\234\201\002h\035\311\204{\213KA\364\326\235\024K\023"
 421      1DC9847B 
 421      8B4B41F4 
 421      D69D144B 
 421      13
 422 1664 891916AB 		.ascii	"\211\031\026\253X\305\201\360\004\242\012\330\012\030"
 422      58C581F0 
 422      04A20AD8 
ARM GAS  /var/folders/c6/c789hm653lg9vtl73krp73tm0000gn/T//ccwnu7lN.s 			page 34


 422      0A18
 423 1672 2C568675 		.ascii	",V\206u\202\004\367E\272\241\276\024\363\321\337\303"
 423      8204F745 
 423      BAA1BE14 
 423      F3D1DFC3 
 424 1682 2FC20452 		.ascii	"/\302\004RqE\002\245=4r\210\"\005\244\236:\002\311\025"
 424      714502A5 
 424      3D347288 
 424      2205A49E 
 424      3A02C915 
 425 1696 5F243081 		.ascii	"_$0\201\017I\241\222\202\254H\000\304\244\020\213U\270"
 425      0F49A192 
 425      82AC4800 
 425      C4A4108B 
 425      55B8
 426 16a8 20448412 		.ascii	" D\204\022\360\005\005p\027tA\356\317\"B\345\213Pq\340"
 426      F0050570 
 426      177441EE 
 426      CF2242E5 
 426      8B5071E0 
 427 16bc 62241C2E 		.ascii	"b$\034.\352\006\232\251i\251\017\352\212\272+\312\215"
 427      EA069AA9 
 427      69A90FEA 
 427      8ABA2BCA 
 427      8D
 428 16cd 0302A604 		.ascii	"\003\002\246\004\227\261J~\237\240\214\222\020E\352"
 428      97B14A7E 
 428      9FA08C92 
 428      1045EA
 429 16dc 3D789F2F 		.ascii	"=x\237/\232\257\216\252/oX\340\331\247\207?=|\264\027"
 429      9AAF8EAA 
 429      2F6F58E0 
 429      D9A7873F 
 429      3D7CB417 
 430 16f0 6A79A39F 		.ascii	"jy\243\237\031\225\011\347\334'\036\037\366k\017\336"
 430      199509E7 
 430      DC271E1F 
 430      F66B0FDE 
 431 1700 626D6748 		.ascii	"bmgH;\261\263\356\241\022\260SmL\262@\331\325j\246V"
 431      3BB1B3EE 
 431      A112B053 
 431      6D4CB240 
 431      D9D56AA6 
 432 1715 F58DD3D8 		.ascii	"\365\215\323\330\206Z0\\\012\026 f\216\013\214)\035"
 432      865A305C 
 432      0A162066 
 432      8E0B8C29 
 432      1D
 433 1726 0BDAE019 		.ascii	"\013\332\340\031\027\220\302\021/\334\"F$\021\316b>"
 433      1790C211 
 433      2FDC2246 
 433      2411CE62 
 433      3E
 434 1737 9C7DE34A 		.ascii	"\234}\343J\302Rh\354$@\031\027P\252\031\343\200\361"
 434      C25268EC 
 434      24401917 
 434      50AA19E3 
ARM GAS  /var/folders/c6/c789hm653lg9vtl73krp73tm0000gn/T//ccwnu7lN.s 			page 35


 434      80F1
 435 1749 92DF6784 		.ascii	"\222\337g\204\020\263G\270T\322u\233\021\306\012\027"
 435      10B347B8 
 435      54D2759B 
 435      11C60A17 
 436 1759 1AC385C7 		.ascii	"\032\303\205\307\374\253\236h\340:g\350\310\274\341"
 436      FCAB9E68 
 436      E03A67E8 
 436      C8BCE1
 437 1768 793979A3 		.ascii	"y9y\243\301\331\026\017\0328vp\377\207&\222\241\356"
 437      C1D9160F 
 437      1A387670 
 437      FF872692 
 437      A1EE
 438 177a FE6CDEE3 		.ascii	"\376l\336\343\271\243\003\243\301\031\015\023\306ry"
 438      B9A303A3 
 438      C1190D13 
 438      C67279
 439 1789 B9DCB05C 		.ascii	"\271\334\260\\\327\317ss]Cs\007\3001\020\216A\356'G"
 439      D7CF7373 
 439      5D437307 
 439      C031108E 
 439      41EE2747 
 440 179d 8FCAF594 		.ascii	"\217\312\365\224FyQ\312\212J\277\347\213B\005%\252\267"
 440      467951CA 
 440      8A4ABFE7 
 440      8B420525 
 440      AAB7
 441 17af 7A7070DC 		.ascii	"zpp\334[\221\352\000c\320R,4o\364\310A\003sF\214\030"
 441      5B91EA00 
 441      63D0522C 
 441      346FF4C8 
 441      41037346 
 442 17c5 96F3E4A8 		.ascii	"\226\363\344\250\341\317\214\037\230\023\341"
 442      E1CF8C1F 
 442      9813E1
 443 17d0 61048B88 		.ascii	"a\004\213\210\247\310Fr\002\005\021\342 <#\237\031\366"
 443      A7C84672 
 443      020511E2 
 443      203C239F 
 443      19F6
 444 17e2 446EC633 		.ascii	"Dn\3063\243\177=\352\211\\\3573y\243\236xbX\256g\324"
 444      A37F3DEA 
 444      895CEF33 
 444      79A39E78 
 444      6258AE67 
 445 17f7 B3A380A6 		.ascii	"\263\243\200\246\341p<3,\227\375O\354w\300\203\361~"
 445      E1703C33 
 445      2C97FD4F 
 445      EC77C083 
 445      F17E
 446 1809 49D51505 		.ascii	"I\325\025\005\307\030,\022x\221}\312\375\363\274\334"
 446      C7182C12 
 446      78917DCA 
 446      FDF3BCDC 
 447 1819 5CF788A1 		.ascii	"\\\367\210\241\277\314u?\376\037\271#H\361\024\014\203"
 447      BFCC753F 
ARM GAS  /var/folders/c6/c789hm653lg9vtl73krp73tm0000gn/T//ccwnu7lN.s 			page 36


 447      FE1FB923 
 447      48F1140C 
 447      83
 448 182a 62B23F4B 		.ascii	"b\262?KE \212c\374\0005\312\252Dz\242\021A\310w\005"
 448      45208A63 
 448      FC0035CA 
 448      AA447AA2 
 448      1141C877 
 449 183f C501700C 		.ascii	"\305\001p\014\204c\220\032{\207\206K\306\206\012\274"
 449      8463901A 
 449      7B87864B 
 449      C6860ABC 
 450 184f C57CA8A4 		.ascii	"\305|\250\244_\220\361\216F=\037\340\342\305\202\177"
 450      5F90F18E 
 450      463D1FE0 
 450      E2C5827F 
 451 185f B6541AD5 		.ascii	"\266T\032\325\030\0006+X8\2720?\257H\020\"}\343\267"
 451      1800362B 
 451      5838BA30 
 451      3FAF4810 
 451      227DE3B7 
 452 1873 4B425422 		.ascii	"KBT\"\015\310\231\3343\032\316\012\256W\032[Z\022\014"
 452      0DC899DC 
 452      331ACE0A 
 452      AE571A5B 
 452      5A120C
 453 1886 48B761B3 		.ascii	"H\267a\263\241pI\022\362@ACAP8\302G\010\234t\266RU\254"
 453      A1704912 
 453      F2404143 
 453      415038C2 
 453      47089C74 
 454 189e F28E802A 		.ascii	"\362\216\200*h\360/R\201\030.\215\020)x\243\371\320"
 454      68F02F52 
 454      81182E8D 
 454      102978A3 
 454      F9D0
 455 18b0 4C9492B8 		.ascii	"L\224\222\270\232I\030\230\202\205y\223\242\303KB\322"
 455      9A491898 
 455      82857993 
 455      A2C34B42 
 455      D2
 456 18c1 0FAC7291 		.ascii	"\017\254r\221BLD\274p\"\267\271\362\206\015\364M\340"
 456      424C44BC 
 456      7022B7B9 
 456      F2860DF4 
 456      4DE0
 457 18d3 55297423 		.ascii	"U)t#n\015B\233P\254\204\016\245\236M~\233\244\372\206"
 457      6E0D429B 
 457      50AC840E 
 457      A59E4D7E 
 457      9BA4FA86 
 458 18e7 EE7039F1 		.ascii	"\356p9\361\335+*\232\234!b\230\360\210\350\230E\325"
 458      DD2B2A9A 
 458      9C216298 
 458      F088E898 
 458      45D5
 459 18f9 318B8A63 		.ascii	"1\213\212c\366\301\325R\021\374'\004B\322\350\216\361"
ARM GAS  /var/folders/c6/c789hm653lg9vtl73krp73tm0000gn/T//ccwnu7lN.s 			page 37


 459      F6C1D552 
 459      11FC2704 
 459      42D2E88E 
 459      F1
 460 190a 21512A05 		.ascii	"!Q*\005.I\010\0255\247s'\000\233\374\320\223\272\246"
 460      2E490815 
 460      35A77327 
 460      009BFCD0 
 460      93BAA6
 461 191d 384FEA92 		.ascii	"8O\352\222w\274\204>\202\234I\344\312\204s\276P$\361"
 461      77BC843E 
 461      829C49E4 
 461      CA8473BE 
 461      5024F1
 462 1930 5051844F 		.ascii	"PQ\204O~!\265\014r\007/v\203S\021\037\225Hk\270D:\351"
 462      7E21B50C 
 462      72072F76 
 462      8353111F 
 462      95486BB8 
 463 1947 A1329D2F 		.ascii	"\2412\235/\214)-P\374\237\376\212/\302\227\204\202\304"
 463      8C292D50 
 463      FC9FFE8A 
 463      2FC29784 
 463      82C4
 464 1959 DDB9F2C7 		.ascii	"\335\271\362\307\024d\021\325Q4\342\007\326\032C\034"
 464      146411D5 
 464      5134E207 
 464      D61A431C 
 465 1969 7F2FA938 		.ascii	"\177/\2518\000\351Ph\214\010#\036\006\373\363\212\022"
 465      00E95068 
 465      8C08231E 
 465      06FBF38A 
 465      12
 466 197a BAF88CF0 		.ascii	"\272\370\214\360\330\2610\274\234T\334#\224_$\250\316"
 466      D8B130BC 
 466      9C54DC23 
 466      945F24A8 
 466      CE
 467 198b 16BC0D17 		.ascii	"\026\274\015\027,\264N@ >\002\255\342$@\356\035,\314"
 467      2CB44E40 
 467      203E02AD 
 467      E22440EE 
 467      1D2CCC
 468 199e 150AF204 		.ascii	"\025\012\362\004U\315\236\206\220\347&q\357\377\001"
 468      55CD9E86 
 468      90E72671 
 468      EFFF01
 469 19ad D4CE9465 		.ascii	"\324\316\224e"
 470              		.text
 471              		.section	.gnu.lto_.symtab.aebe9f9d46feb65,"",%progbits
 472 0000 6D61696E 		.ascii	"main\000\000\000\000\000\000\000\000\000\000\000\000"
 472      00000000 
 472      00000000 
 472      00000000 
 473 0010 60020000 		.ascii	"`\002\000\000ch\000\000\002\000\000\000\000\000\000"
 473      63680000 
 473      02000000 
ARM GAS  /var/folders/c6/c789hm653lg9vtl73krp73tm0000gn/T//ccwnu7lN.s 			page 38


 473      000000
 474 001f 0000008E 		.ascii	"\000\000\000\216\002\000\000SD2\000\000\002\000\000"
 474      02000053 
 474      44320000 
 474      020000
 475 002e 00000000 		.ascii	"\000\000\000\000\000\000\000\212\002\000\000chThdSl"
 475      0000008A 
 475      02000063 
 475      68546864 
 475      536C
 476 0040 65657000 		.ascii	"eep\000\000\002\000\000\000\000\000\000\000\000\000"
 476      00020000 
 476      00000000 
 476      000000
 477 004f 63020000 		.ascii	"c\002\000\000TestThread\000\000\002\000\000\000\000"
 477      54657374 
 477      54687265 
 477      61640000 
 477      02000000 
 478 0064 00000000 		.ascii	"\000\000\000\000\000g\002\000\000chThdCreateStatic\000"
 478      00670200 
 478      00636854 
 478      68644372 
 478      65617465 
 479 007f 00020000 		.ascii	"\000\002\000\000\000\000\000\000\000\000\000i\002\000"
 479      00000000 
 479      00000069 
 479      0200
 480 008d 005F7061 		.ascii	"\000_pal_lld_setgroupmode\000\000\002\000\000\000\000"
 480      6C5F6C6C 
 480      645F7365 
 480      7467726F 
 480      75706D6F 
 481 00aa 00000000 		.ascii	"\000\000\000\000\000t\002\000\000sdStart\000\000\002"
 481      00740200 
 481      00736453 
 481      74617274 
 481      000002
 482 00bd 00000000 		.ascii	"\000\000\000\000\000\000\000\000\000\200\002\000\000"
 482      00000000 
 482      00800200 
 482      00
 483 00ca 63685379 		.ascii	"chSysInit\000\000\002\000\000\000\000\000\000\000\000"
 483      73496E69 
 483      74000002 
 483      00000000 
 483      00000000 
 484 00de 00850200 		.ascii	"\000\205\002\000\000halInit\000\000\002\000\000\000"
 484      0068616C 
 484      496E6974 
 484      00000200 
 484      0000
 485 00f0 00000000 		.ascii	"\000\000\000\000\000\000\210\002\000\000"
 485      00008802 
 485      0000
 486              		.text
 487              		.section	.gnu.lto_.opts,"",%progbits
ARM GAS  /var/folders/c6/c789hm653lg9vtl73krp73tm0000gn/T//ccwnu7lN.s 			page 39


 488 0000 272D6D63 		.ascii	"'-mcpu=cortex-m4' '-mno-thumb-interwork' '-mthumb' "
 488      70753D63 
 488      6F727465 
 488      782D6D34 
 488      2720272D 
 489 0033 272D6767 		.ascii	"'-ggdb' '-O2' '-fomit-frame-pointer' '-falign-funct"
 489      64622720 
 489      272D4F32 
 489      2720272D 
 489      666F6D69 
 490 0066 696F6E73 		.ascii	"ions=16' '-ffunction-sections' '-fdata-sections' '-"
 490      3D313627 
 490      20272D66 
 490      66756E63 
 490      74696F6E 
 491 0099 666E6F2D 		.ascii	"fno-common' '-flto'\000"
 491      636F6D6D 
 491      6F6E2720 
 491      272D666C 
 491      746F2700 
 492              		.text
 493              		.cfi_sections	.debug_frame
 494              		.section	.text.Thread1,"ax",%progbits
 495              		.align	2
 496              		.p2align 4,,15
 497              		.thumb
 498              		.thumb_func
 499              		.type	Thread1, %function
 500              	Thread1:
 501              	.LFB260:
 502              		.file 1 "main.c"
 503              		.loc 1 26 0
 504              		.cfi_startproc
 505              		@ Volatile: function does not return.
 506              		@ args = 0, pretend = 0, frame = 0
 507              		@ frame_needed = 0, uses_anonymous_args = 0
 508              	.LVL0:
 509 0000 08B5     		push	{r3, lr}
 510              		.cfi_def_cfa_offset 8
 511              		.cfi_offset 3, -8
 512              		.cfi_offset 14, -4
 513              	.LBB4:
 514              	.LBB5:
 515              		.file 2 "../../../os/rt/include/chregistry.h"
 516              		.loc 2 135 0
 517 0002 094B     		ldr	r3, .L4
 518 0004 094A     		ldr	r2, .L4+4
 519 0006 9B69     		ldr	r3, [r3, #24]
 520              	.LBE5:
 521              	.LBE4:
 522              		.loc 1 31 0
 523 0008 094C     		ldr	r4, .L4+8
 524              	.LBB7:
 525              	.LBB6:
 526              		.loc 2 135 0
 527 000a 9A61     		str	r2, [r3, #24]
 528              	.LBE6:
ARM GAS  /var/folders/c6/c789hm653lg9vtl73krp73tm0000gn/T//ccwnu7lN.s 			page 40


 529              	.LBE7:
 530              		.loc 1 31 0
 531 000c 4FF40055 		mov	r5, #8192
 532 0010 2E46     		mov	r6, r5	@ movhi
 533              	.LVL1:
 534              	.L2:
 535              		.loc 1 31 0 is_stmt 0 discriminator 1
 536 0012 2683     		strh	r6, [r4, #24]	@ movhi
 537              		.loc 1 32 0 is_stmt 1 discriminator 1
 538 0014 41F28830 		movw	r0, #5000
 539 0018 FFF7FEFF 		bl	chThdSleep
 540              	.LVL2:
 541              		.loc 1 33 0 discriminator 1
 542 001c 6583     		strh	r5, [r4, #26]	@ movhi
 543              		.loc 1 34 0 discriminator 1
 544 001e 41F28830 		movw	r0, #5000
 545 0022 FFF7FEFF 		bl	chThdSleep
 546              	.LVL3:
 547 0026 F4E7     		b	.L2
 548              	.L5:
 549              		.align	2
 550              	.L4:
 551 0028 00000000 		.word	ch
 552 002c 00000000 		.word	.LC0
 553 0030 000C0240 		.word	1073875968
 554              		.cfi_endproc
 555              	.LFE260:
 556              		.size	Thread1, .-Thread1
 557 0034 AFF30080 		.section	.text.startup.main,"ax",%progbits
 557      AFF30080 
 557      AFF30080 
 558              		.align	2
 559              		.p2align 4,,15
 560              		.global	main
 561              		.thumb
 562              		.thumb_func
 563              		.type	main, %function
 564              	main:
 565              	.LFB261:
 566              		.loc 1 41 0
 567              		.cfi_startproc
 568              		@ Volatile: function does not return.
 569              		@ args = 0, pretend = 0, frame = 0
 570              		@ frame_needed = 0, uses_anonymous_args = 0
 571 0000 00B5     		push	{lr}
 572              		.cfi_def_cfa_offset 4
 573              		.cfi_offset 14, -4
 574              		.loc 1 71 0
 575 0002 154C     		ldr	r4, .L12
 576              		.loc 1 41 0
 577 0004 83B0     		sub	sp, sp, #12
 578              		.cfi_def_cfa_offset 16
 579              		.loc 1 50 0
 580 0006 FFF7FEFF 		bl	halInit
 581              	.LVL4:
 582              		.loc 1 51 0
 583 000a FFF7FEFF 		bl	chSysInit
ARM GAS  /var/folders/c6/c789hm653lg9vtl73krp73tm0000gn/T//ccwnu7lN.s 			page 41


 584              	.LVL5:
 585              		.loc 1 57 0
 586 000e 1348     		ldr	r0, .L12+4
 587 0010 0021     		movs	r1, #0
 588 0012 FFF7FEFF 		bl	sdStart
 589              	.LVL6:
 590              		.loc 1 58 0
 591 0016 2046     		mov	r0, r4
 592 0018 0421     		movs	r1, #4
 593 001a 40F28232 		movw	r2, #898
 594 001e FFF7FEFF 		bl	_pal_lld_setgroupmode
 595              	.LVL7:
 596              		.loc 1 59 0
 597 0022 2046     		mov	r0, r4
 598 0024 0821     		movs	r1, #8
 599 0026 40F28232 		movw	r2, #898
 600 002a FFF7FEFF 		bl	_pal_lld_setgroupmode
 601              	.LVL8:
 602              		.loc 1 64 0
 603 002e 0023     		movs	r3, #0
 604 0030 0093     		str	r3, [sp]
 605 0032 4FF4A471 		mov	r1, #328
 606 0036 0A4B     		ldr	r3, .L12+8
 607 0038 0A48     		ldr	r0, .L12+12
 608 003a 4022     		movs	r2, #64
 609 003c FFF7FEFF 		bl	chThdCreateStatic
 610              	.LVL9:
 611 0040 03E0     		b	.L8
 612              	.L7:
 613              		.loc 1 73 0
 614 0042 41F28830 		movw	r0, #5000
 615 0046 FFF7FEFF 		bl	chThdSleep
 616              	.LVL10:
 617              	.L8:
 618              		.loc 1 71 0
 619 004a 2369     		ldr	r3, [r4, #16]
 620 004c DB07     		lsls	r3, r3, #31
 621 004e F8D5     		bpl	.L7
 622              		.loc 1 72 0
 623 0050 0248     		ldr	r0, .L12+4
 624 0052 FFF7FEFF 		bl	TestThread
 625              	.LVL11:
 626 0056 F4E7     		b	.L7
 627              	.L13:
 628              		.align	2
 629              	.L12:
 630 0058 00000240 		.word	1073872896
 631 005c 00000000 		.word	SD2
 632 0060 00000000 		.word	Thread1
 633 0064 00000000 		.word	.LANCHOR0
 634              		.cfi_endproc
 635              	.LFE261:
 636              		.size	main, .-main
 637 0068 AFF30080 		.section	.bss.waThread1,"aw",%nobits
 637      AFF30080 
 638              		.align	3
 639              		.set	.LANCHOR0,. + 0
ARM GAS  /var/folders/c6/c789hm653lg9vtl73krp73tm0000gn/T//ccwnu7lN.s 			page 42


 640              		.type	waThread1, %object
 641              		.size	waThread1, 328
 642              	waThread1:
 643 0000 00000000 		.space	328
 643      00000000 
 643      00000000 
 643      00000000 
 643      00000000 
 644              		.section	.rodata.str1.4,"aMS",%progbits,1
 645              		.align	2
 646              	.LC0:
 647 0000 626C696E 		.ascii	"blinker\000"
 647      6B657200 
 648              		.text
 649              	.Letext0:
 650              		.file 3 "/usr/local/Cellar/gcc-arm-none-eabi/20140805/lib/gcc/arm-none-eabi/4.8.4/include/stddef.h
 651              		.file 4 "/usr/local/Cellar/gcc-arm-none-eabi/20140805/arm-none-eabi/include/machine/_default_types
 652              		.file 5 "/usr/local/Cellar/gcc-arm-none-eabi/20140805/arm-none-eabi/include/stdint.h"
 653              		.file 6 "../../../os/rt/ports/ARMCMx/compilers/GCC/chtypes.h"
 654              		.file 7 "../../../os/rt/include/chsystypes.h"
 655              		.file 8 "../../../os/rt/include/chschd.h"
 656              		.file 9 "../../../os/ext/CMSIS/ST/stm32f407xx.h"
 657              		.file 10 "../../../os/rt/ports/ARMCMx/chcore.h"
 658              		.file 11 "../../../os/rt/ports/ARMCMx/chcore_v7m.h"
 659              		.file 12 "../../../os/rt/include/chtm.h"
 660              		.file 13 "../../../os/rt/include/chsem.h"
 661              		.file 14 "../../../os/rt/include/chmtx.h"
 662              		.file 15 "../../../os/rt/include/chthreads.h"
 663              		.file 16 "../../../os/rt/include/chevents.h"
 664              		.file 17 "../../../os/rt/include/chqueues.h"
 665              		.file 18 "../../../os/hal/ports/STM32/LLD/GPIOv2/pal_lld.h"
 666              		.file 19 "../../../os/hal/include/serial.h"
 667              		.file 20 "../../../os/hal/ports/STM32/LLD/USARTv1/serial_lld.h"
 668              		.file 21 "../../../os/hal/include/hal.h"
 669              		.file 22 "../../../os/rt/include/chsys.h"
 670              		.file 23 "../../../os/ext/CMSIS/include/core_cm4.h"
 671              		.file 24 "../../../test/rt/test.h"
 672              		.section	.debug_info,"",%progbits
 673              	.Ldebug_info0:
 674 0000 9E0D0000 		.4byte	0xd9e
 675 0004 0400     		.2byte	0x4
 676 0006 00000000 		.4byte	.Ldebug_abbrev0
 677 000a 04       		.byte	0x4
 678 000b 01       		.uleb128 0x1
 679 000c DB060000 		.4byte	.LASF170
 680 0010 01       		.byte	0x1
 681 0011 BA030000 		.4byte	.LASF171
 682 0015 55050000 		.4byte	.LASF172
 683 0019 18000000 		.4byte	.Ldebug_ranges0+0x18
 684 001d 00000000 		.4byte	0
 685 0021 00000000 		.4byte	.Ldebug_line0
 686 0025 02       		.uleb128 0x2
 687 0026 04       		.byte	0x4
 688 0027 05       		.byte	0x5
 689 0028 696E7400 		.ascii	"int\000"
 690 002c 03       		.uleb128 0x3
 691 002d 15000000 		.4byte	.LASF2
ARM GAS  /var/folders/c6/c789hm653lg9vtl73krp73tm0000gn/T//ccwnu7lN.s 			page 43


 692 0031 03       		.byte	0x3
 693 0032 D4       		.byte	0xd4
 694 0033 37000000 		.4byte	0x37
 695 0037 04       		.uleb128 0x4
 696 0038 04       		.byte	0x4
 697 0039 07       		.byte	0x7
 698 003a 05020000 		.4byte	.LASF0
 699 003e 04       		.uleb128 0x4
 700 003f 01       		.byte	0x1
 701 0040 06       		.byte	0x6
 702 0041 14010000 		.4byte	.LASF1
 703 0045 03       		.uleb128 0x3
 704 0046 2C000000 		.4byte	.LASF3
 705 004a 04       		.byte	0x4
 706 004b 1C       		.byte	0x1c
 707 004c 50000000 		.4byte	0x50
 708 0050 04       		.uleb128 0x4
 709 0051 01       		.byte	0x1
 710 0052 08       		.byte	0x8
 711 0053 57040000 		.4byte	.LASF4
 712 0057 04       		.uleb128 0x4
 713 0058 02       		.byte	0x2
 714 0059 05       		.byte	0x5
 715 005a 8F040000 		.4byte	.LASF5
 716 005e 03       		.uleb128 0x3
 717 005f B2050000 		.4byte	.LASF6
 718 0063 04       		.byte	0x4
 719 0064 26       		.byte	0x26
 720 0065 69000000 		.4byte	0x69
 721 0069 04       		.uleb128 0x4
 722 006a 02       		.byte	0x2
 723 006b 07       		.byte	0x7
 724 006c 6A020000 		.4byte	.LASF7
 725 0070 03       		.uleb128 0x3
 726 0071 9C000000 		.4byte	.LASF8
 727 0075 04       		.byte	0x4
 728 0076 37       		.byte	0x37
 729 0077 7B000000 		.4byte	0x7b
 730 007b 04       		.uleb128 0x4
 731 007c 04       		.byte	0x4
 732 007d 05       		.byte	0x5
 733 007e 5B010000 		.4byte	.LASF9
 734 0082 03       		.uleb128 0x3
 735 0083 EB050000 		.4byte	.LASF10
 736 0087 04       		.byte	0x4
 737 0088 38       		.byte	0x38
 738 0089 8D000000 		.4byte	0x8d
 739 008d 04       		.uleb128 0x4
 740 008e 04       		.byte	0x4
 741 008f 07       		.byte	0x7
 742 0090 43050000 		.4byte	.LASF11
 743 0094 04       		.uleb128 0x4
 744 0095 08       		.byte	0x8
 745 0096 05       		.byte	0x5
 746 0097 06010000 		.4byte	.LASF12
 747 009b 03       		.uleb128 0x3
 748 009c EB030000 		.4byte	.LASF13
ARM GAS  /var/folders/c6/c789hm653lg9vtl73krp73tm0000gn/T//ccwnu7lN.s 			page 44


 749 00a0 04       		.byte	0x4
 750 00a1 4E       		.byte	0x4e
 751 00a2 A6000000 		.4byte	0xa6
 752 00a6 04       		.uleb128 0x4
 753 00a7 08       		.byte	0x8
 754 00a8 07       		.byte	0x7
 755 00a9 6B000000 		.4byte	.LASF14
 756 00ad 03       		.uleb128 0x3
 757 00ae BD060000 		.4byte	.LASF15
 758 00b2 05       		.byte	0x5
 759 00b3 2A       		.byte	0x2a
 760 00b4 45000000 		.4byte	0x45
 761 00b8 03       		.uleb128 0x3
 762 00b9 1A020000 		.4byte	.LASF16
 763 00bd 05       		.byte	0x5
 764 00be 36       		.byte	0x36
 765 00bf 5E000000 		.4byte	0x5e
 766 00c3 03       		.uleb128 0x3
 767 00c4 4F040000 		.4byte	.LASF17
 768 00c8 05       		.byte	0x5
 769 00c9 41       		.byte	0x41
 770 00ca 70000000 		.4byte	0x70
 771 00ce 03       		.uleb128 0x3
 772 00cf 77060000 		.4byte	.LASF18
 773 00d3 05       		.byte	0x5
 774 00d4 42       		.byte	0x42
 775 00d5 82000000 		.4byte	0x82
 776 00d9 03       		.uleb128 0x3
 777 00da 23000000 		.4byte	.LASF19
 778 00de 05       		.byte	0x5
 779 00df 4E       		.byte	0x4e
 780 00e0 9B000000 		.4byte	0x9b
 781 00e4 05       		.uleb128 0x5
 782 00e5 C3000000 		.4byte	0xc3
 783 00e9 05       		.uleb128 0x5
 784 00ea CE000000 		.4byte	0xce
 785 00ee 03       		.uleb128 0x3
 786 00ef 52060000 		.4byte	.LASF20
 787 00f3 06       		.byte	0x6
 788 00f4 45       		.byte	0x45
 789 00f5 CE000000 		.4byte	0xce
 790 00f9 03       		.uleb128 0x3
 791 00fa C7020000 		.4byte	.LASF21
 792 00fe 06       		.byte	0x6
 793 00ff 48       		.byte	0x48
 794 0100 AD000000 		.4byte	0xad
 795 0104 03       		.uleb128 0x3
 796 0105 64010000 		.4byte	.LASF22
 797 0109 06       		.byte	0x6
 798 010a 49       		.byte	0x49
 799 010b AD000000 		.4byte	0xad
 800 010f 03       		.uleb128 0x3
 801 0110 0A040000 		.4byte	.LASF23
 802 0114 06       		.byte	0x6
 803 0115 4A       		.byte	0x4a
 804 0116 AD000000 		.4byte	0xad
 805 011a 03       		.uleb128 0x3
ARM GAS  /var/folders/c6/c789hm653lg9vtl73krp73tm0000gn/T//ccwnu7lN.s 			page 45


 806 011b 29040000 		.4byte	.LASF24
 807 011f 06       		.byte	0x6
 808 0120 4C       		.byte	0x4c
 809 0121 CE000000 		.4byte	0xce
 810 0125 03       		.uleb128 0x3
 811 0126 91020000 		.4byte	.LASF25
 812 012a 06       		.byte	0x6
 813 012b 4D       		.byte	0x4d
 814 012c C3000000 		.4byte	0xc3
 815 0130 03       		.uleb128 0x3
 816 0131 DD020000 		.4byte	.LASF26
 817 0135 06       		.byte	0x6
 818 0136 4F       		.byte	0x4f
 819 0137 CE000000 		.4byte	0xce
 820 013b 03       		.uleb128 0x3
 821 013c 6A060000 		.4byte	.LASF27
 822 0140 06       		.byte	0x6
 823 0141 50       		.byte	0x50
 824 0142 CE000000 		.4byte	0xce
 825 0146 03       		.uleb128 0x3
 826 0147 F9010000 		.4byte	.LASF28
 827 014b 06       		.byte	0x6
 828 014c 51       		.byte	0x51
 829 014d C3000000 		.4byte	0xc3
 830 0151 03       		.uleb128 0x3
 831 0152 CD050000 		.4byte	.LASF29
 832 0156 07       		.byte	0x7
 833 0157 33       		.byte	0x33
 834 0158 CE000000 		.4byte	0xce
 835 015c 03       		.uleb128 0x3
 836 015d BD050000 		.4byte	.LASF30
 837 0161 07       		.byte	0x7
 838 0162 3F       		.byte	0x3f
 839 0163 67010000 		.4byte	0x167
 840 0167 06       		.uleb128 0x6
 841 0168 7D020000 		.4byte	.LASF50
 842 016c 44       		.byte	0x44
 843 016d 08       		.byte	0x8
 844 016e C2       		.byte	0xc2
 845 016f 54020000 		.4byte	0x254
 846 0173 07       		.uleb128 0x7
 847 0174 AF040000 		.4byte	.LASF31
 848 0178 08       		.byte	0x8
 849 0179 C3       		.byte	0xc3
 850 017a 5F020000 		.4byte	0x25f
 851 017e 00       		.byte	0
 852 017f 07       		.uleb128 0x7
 853 0180 22040000 		.4byte	.LASF32
 854 0184 08       		.byte	0x8
 855 0185 C5       		.byte	0xc5
 856 0186 5F020000 		.4byte	0x25f
 857 018a 04       		.byte	0x4
 858 018b 07       		.uleb128 0x7
 859 018c EF000000 		.4byte	.LASF33
 860 0190 08       		.byte	0x8
 861 0191 C7       		.byte	0xc7
 862 0192 1A010000 		.4byte	0x11a
ARM GAS  /var/folders/c6/c789hm653lg9vtl73krp73tm0000gn/T//ccwnu7lN.s 			page 46


 863 0196 08       		.byte	0x8
 864 0197 07       		.uleb128 0x7
 865 0198 EA070000 		.4byte	.LASF34
 866 019c 08       		.byte	0x8
 867 019d C8       		.byte	0xc8
 868 019e FE040000 		.4byte	0x4fe
 869 01a2 0C       		.byte	0xc
 870 01a3 07       		.uleb128 0x7
 871 01a4 8C010000 		.4byte	.LASF35
 872 01a8 08       		.byte	0x8
 873 01a9 CA       		.byte	0xca
 874 01aa 5F020000 		.4byte	0x25f
 875 01ae 10       		.byte	0x10
 876 01af 07       		.uleb128 0x7
 877 01b0 9B030000 		.4byte	.LASF36
 878 01b4 08       		.byte	0x8
 879 01b5 CB       		.byte	0xcb
 880 01b6 5F020000 		.4byte	0x25f
 881 01ba 14       		.byte	0x14
 882 01bb 07       		.uleb128 0x7
 883 01bc BE040000 		.4byte	.LASF37
 884 01c0 08       		.byte	0x8
 885 01c1 D2       		.byte	0xd2
 886 01c2 7D060000 		.4byte	0x67d
 887 01c6 18       		.byte	0x18
 888 01c7 07       		.uleb128 0x7
 889 01c8 99040000 		.4byte	.LASF38
 890 01cc 08       		.byte	0x8
 891 01cd DD       		.byte	0xdd
 892 01ce 04010000 		.4byte	0x104
 893 01d2 1C       		.byte	0x1c
 894 01d3 07       		.uleb128 0x7
 895 01d4 B6040000 		.4byte	.LASF39
 896 01d8 08       		.byte	0x8
 897 01d9 E1       		.byte	0xe1
 898 01da F9000000 		.4byte	0xf9
 899 01de 1D       		.byte	0x1d
 900 01df 07       		.uleb128 0x7
 901 01e0 6D010000 		.4byte	.LASF40
 902 01e4 08       		.byte	0x8
 903 01e5 E6       		.byte	0xe6
 904 01e6 0F010000 		.4byte	0x10f
 905 01ea 1E       		.byte	0x1e
 906 01eb 08       		.uleb128 0x8
 907 01ec 705F7500 		.ascii	"p_u\000"
 908 01f0 08       		.byte	0x8
 909 01f1 3101     		.2byte	0x131
 910 01f3 B8050000 		.4byte	0x5b8
 911 01f7 20       		.byte	0x20
 912 01f8 09       		.uleb128 0x9
 913 01f9 46030000 		.4byte	.LASF41
 914 01fd 08       		.byte	0x8
 915 01fe 3601     		.2byte	0x136
 916 0200 65020000 		.4byte	0x265
 917 0204 24       		.byte	0x24
 918 0205 09       		.uleb128 0x9
 919 0206 41020000 		.4byte	.LASF42
ARM GAS  /var/folders/c6/c789hm653lg9vtl73krp73tm0000gn/T//ccwnu7lN.s 			page 47


 920 020a 08       		.byte	0x8
 921 020b 3C01     		.2byte	0x13c
 922 020d 89020000 		.4byte	0x289
 923 0211 28       		.byte	0x28
 924 0212 09       		.uleb128 0x9
 925 0213 BB070000 		.4byte	.LASF43
 926 0217 08       		.byte	0x8
 927 0218 4001     		.2byte	0x140
 928 021a 25010000 		.4byte	0x125
 929 021e 30       		.byte	0x30
 930 021f 09       		.uleb128 0x9
 931 0220 EF040000 		.4byte	.LASF44
 932 0224 08       		.byte	0x8
 933 0225 4601     		.2byte	0x146
 934 0227 30010000 		.4byte	0x130
 935 022b 34       		.byte	0x34
 936 022c 09       		.uleb128 0x9
 937 022d 85040000 		.4byte	.LASF45
 938 0231 08       		.byte	0x8
 939 0232 4D01     		.2byte	0x14d
 940 0234 77060000 		.4byte	0x677
 941 0238 38       		.byte	0x38
 942 0239 09       		.uleb128 0x9
 943 023a D7050000 		.4byte	.LASF46
 944 023e 08       		.byte	0x8
 945 023f 5101     		.2byte	0x151
 946 0241 1A010000 		.4byte	0x11a
 947 0245 3C       		.byte	0x3c
 948 0246 09       		.uleb128 0x9
 949 0247 34010000 		.4byte	.LASF47
 950 024b 08       		.byte	0x8
 951 024c 5801     		.2byte	0x158
 952 024e 3C030000 		.4byte	0x33c
 953 0252 40       		.byte	0x40
 954 0253 00       		.byte	0
 955 0254 03       		.uleb128 0x3
 956 0255 59030000 		.4byte	.LASF48
 957 0259 07       		.byte	0x7
 958 025a 44       		.byte	0x44
 959 025b 5F020000 		.4byte	0x25f
 960 025f 0A       		.uleb128 0xa
 961 0260 04       		.byte	0x4
 962 0261 5C010000 		.4byte	0x15c
 963 0265 03       		.uleb128 0x3
 964 0266 CC060000 		.4byte	.LASF49
 965 026a 07       		.byte	0x7
 966 026b 49       		.byte	0x49
 967 026c 70020000 		.4byte	0x270
 968 0270 06       		.uleb128 0x6
 969 0271 26050000 		.4byte	.LASF51
 970 0275 04       		.byte	0x4
 971 0276 08       		.byte	0x8
 972 0277 B0       		.byte	0xb0
 973 0278 89020000 		.4byte	0x289
 974 027c 07       		.uleb128 0x7
 975 027d AF040000 		.4byte	.LASF31
 976 0281 08       		.byte	0x8
ARM GAS  /var/folders/c6/c789hm653lg9vtl73krp73tm0000gn/T//ccwnu7lN.s 			page 48


 977 0282 B1       		.byte	0xb1
 978 0283 5F020000 		.4byte	0x25f
 979 0287 00       		.byte	0
 980 0288 00       		.byte	0
 981 0289 03       		.uleb128 0x3
 982 028a CD040000 		.4byte	.LASF52
 983 028e 07       		.byte	0x7
 984 028f 50       		.byte	0x50
 985 0290 94020000 		.4byte	0x294
 986 0294 06       		.uleb128 0x6
 987 0295 D4000000 		.4byte	.LASF53
 988 0299 08       		.byte	0x8
 989 029a 08       		.byte	0x8
 990 029b B7       		.byte	0xb7
 991 029c B9020000 		.4byte	0x2b9
 992 02a0 07       		.uleb128 0x7
 993 02a1 AF040000 		.4byte	.LASF31
 994 02a5 08       		.byte	0x8
 995 02a6 B8       		.byte	0xb8
 996 02a7 5F020000 		.4byte	0x25f
 997 02ab 00       		.byte	0
 998 02ac 07       		.uleb128 0x7
 999 02ad 22040000 		.4byte	.LASF32
 1000 02b1 08       		.byte	0x8
 1001 02b2 B9       		.byte	0xb9
 1002 02b3 5F020000 		.4byte	0x25f
 1003 02b7 04       		.byte	0x4
 1004 02b8 00       		.byte	0
 1005 02b9 03       		.uleb128 0x3
 1006 02ba 08000000 		.4byte	.LASF54
 1007 02be 07       		.byte	0x7
 1008 02bf 57       		.byte	0x57
 1009 02c0 C4020000 		.4byte	0x2c4
 1010 02c4 0B       		.uleb128 0xb
 1011 02c5 CF020000 		.4byte	.LASF55
 1012 02c9 1C       		.byte	0x1c
 1013 02ca 08       		.byte	0x8
 1014 02cb 9001     		.2byte	0x190
 1015 02cd 20030000 		.4byte	0x320
 1016 02d1 09       		.uleb128 0x9
 1017 02d2 15050000 		.4byte	.LASF56
 1018 02d6 08       		.byte	0x8
 1019 02d7 9101     		.2byte	0x191
 1020 02d9 89020000 		.4byte	0x289
 1021 02dd 00       		.byte	0
 1022 02de 09       		.uleb128 0x9
 1023 02df A1040000 		.4byte	.LASF57
 1024 02e3 08       		.byte	0x8
 1025 02e4 9201     		.2byte	0x192
 1026 02e6 1A010000 		.4byte	0x11a
 1027 02ea 08       		.byte	0x8
 1028 02eb 09       		.uleb128 0x9
 1029 02ec A3030000 		.4byte	.LASF58
 1030 02f0 08       		.byte	0x8
 1031 02f1 9401     		.2byte	0x194
 1032 02f3 FE040000 		.4byte	0x4fe
 1033 02f7 0C       		.byte	0xc
ARM GAS  /var/folders/c6/c789hm653lg9vtl73krp73tm0000gn/T//ccwnu7lN.s 			page 49


 1034 02f8 09       		.uleb128 0x9
 1035 02f9 A4010000 		.4byte	.LASF59
 1036 02fd 08       		.byte	0x8
 1037 02fe 9701     		.2byte	0x197
 1038 0300 5F020000 		.4byte	0x25f
 1039 0304 10       		.byte	0x10
 1040 0305 09       		.uleb128 0x9
 1041 0306 C1030000 		.4byte	.LASF60
 1042 030a 08       		.byte	0x8
 1043 030b 9801     		.2byte	0x198
 1044 030d 5F020000 		.4byte	0x25f
 1045 0311 14       		.byte	0x14
 1046 0312 09       		.uleb128 0x9
 1047 0313 E5000000 		.4byte	.LASF61
 1048 0317 08       		.byte	0x8
 1049 0318 9B01     		.2byte	0x19b
 1050 031a 5F020000 		.4byte	0x25f
 1051 031e 18       		.byte	0x18
 1052 031f 00       		.byte	0
 1053 0320 03       		.uleb128 0x3
 1054 0321 E2050000 		.4byte	.LASF62
 1055 0325 07       		.byte	0x7
 1056 0326 5C       		.byte	0x5c
 1057 0327 2B030000 		.4byte	0x32b
 1058 032b 0A       		.uleb128 0xa
 1059 032c 04       		.byte	0x4
 1060 032d 31030000 		.4byte	0x331
 1061 0331 0C       		.uleb128 0xc
 1062 0332 3C030000 		.4byte	0x33c
 1063 0336 0D       		.uleb128 0xd
 1064 0337 3C030000 		.4byte	0x33c
 1065 033b 00       		.byte	0
 1066 033c 0E       		.uleb128 0xe
 1067 033d 04       		.byte	0x4
 1068 033e 03       		.uleb128 0x3
 1069 033f 12040000 		.4byte	.LASF63
 1070 0343 07       		.byte	0x7
 1071 0344 61       		.byte	0x61
 1072 0345 49030000 		.4byte	0x349
 1073 0349 0B       		.uleb128 0xb
 1074 034a 41060000 		.4byte	.LASF64
 1075 034e 14       		.byte	0x14
 1076 034f 08       		.byte	0x8
 1077 0350 6B01     		.2byte	0x16b
 1078 0352 98030000 		.4byte	0x398
 1079 0356 09       		.uleb128 0x9
 1080 0357 12020000 		.4byte	.LASF65
 1081 035b 08       		.byte	0x8
 1082 035c 6C01     		.2byte	0x16c
 1083 035e 8F060000 		.4byte	0x68f
 1084 0362 00       		.byte	0
 1085 0363 09       		.uleb128 0x9
 1086 0364 B5010000 		.4byte	.LASF66
 1087 0368 08       		.byte	0x8
 1088 0369 6D01     		.2byte	0x16d
 1089 036b 8F060000 		.4byte	0x68f
 1090 036f 04       		.byte	0x4
ARM GAS  /var/folders/c6/c789hm653lg9vtl73krp73tm0000gn/T//ccwnu7lN.s 			page 50


 1091 0370 09       		.uleb128 0x9
 1092 0371 1D050000 		.4byte	.LASF67
 1093 0375 08       		.byte	0x8
 1094 0376 6E01     		.2byte	0x16e
 1095 0378 51010000 		.4byte	0x151
 1096 037c 08       		.byte	0x8
 1097 037d 09       		.uleb128 0x9
 1098 037e F0070000 		.4byte	.LASF68
 1099 0382 08       		.byte	0x8
 1100 0383 6F01     		.2byte	0x16f
 1101 0385 20030000 		.4byte	0x320
 1102 0389 0C       		.byte	0xc
 1103 038a 09       		.uleb128 0x9
 1104 038b 63060000 		.4byte	.LASF69
 1105 038f 08       		.byte	0x8
 1106 0390 7101     		.2byte	0x171
 1107 0392 3C030000 		.4byte	0x33c
 1108 0396 10       		.byte	0x10
 1109 0397 00       		.byte	0
 1110 0398 03       		.uleb128 0x3
 1111 0399 A6000000 		.4byte	.LASF70
 1112 039d 07       		.byte	0x7
 1113 039e 66       		.byte	0x66
 1114 039f A3030000 		.4byte	0x3a3
 1115 03a3 0B       		.uleb128 0xb
 1116 03a4 6C030000 		.4byte	.LASF71
 1117 03a8 10       		.byte	0x10
 1118 03a9 08       		.byte	0x8
 1119 03aa 7B01     		.2byte	0x17b
 1120 03ac E5030000 		.4byte	0x3e5
 1121 03b0 09       		.uleb128 0x9
 1122 03b1 12020000 		.4byte	.LASF65
 1123 03b5 08       		.byte	0x8
 1124 03b6 7C01     		.2byte	0x17c
 1125 03b8 8F060000 		.4byte	0x68f
 1126 03bc 00       		.byte	0
 1127 03bd 09       		.uleb128 0x9
 1128 03be B5010000 		.4byte	.LASF66
 1129 03c2 08       		.byte	0x8
 1130 03c3 7E01     		.2byte	0x17e
 1131 03c5 8F060000 		.4byte	0x68f
 1132 03c9 04       		.byte	0x4
 1133 03ca 09       		.uleb128 0x9
 1134 03cb 1D050000 		.4byte	.LASF67
 1135 03cf 08       		.byte	0x8
 1136 03d0 8001     		.2byte	0x180
 1137 03d2 51010000 		.4byte	0x151
 1138 03d6 08       		.byte	0x8
 1139 03d7 09       		.uleb128 0x9
 1140 03d8 8F030000 		.4byte	.LASF72
 1141 03dc 08       		.byte	0x8
 1142 03dd 8801     		.2byte	0x188
 1143 03df 51010000 		.4byte	0x151
 1144 03e3 0C       		.byte	0xc
 1145 03e4 00       		.byte	0
 1146 03e5 03       		.uleb128 0x3
 1147 03e6 49000000 		.4byte	.LASF73
ARM GAS  /var/folders/c6/c789hm653lg9vtl73krp73tm0000gn/T//ccwnu7lN.s 			page 51


 1148 03ea 07       		.byte	0x7
 1149 03eb 6B       		.byte	0x6b
 1150 03ec F0030000 		.4byte	0x3f0
 1151 03f0 0B       		.uleb128 0xb
 1152 03f1 39040000 		.4byte	.LASF74
 1153 03f5 04       		.byte	0x4
 1154 03f6 08       		.byte	0x8
 1155 03f7 A201     		.2byte	0x1a2
 1156 03f9 0B040000 		.4byte	0x40b
 1157 03fd 09       		.uleb128 0x9
 1158 03fe F6050000 		.4byte	.LASF75
 1159 0402 08       		.byte	0x8
 1160 0403 AA01     		.2byte	0x1aa
 1161 0405 95060000 		.4byte	0x695
 1162 0409 00       		.byte	0
 1163 040a 00       		.byte	0
 1164 040b 03       		.uleb128 0x3
 1165 040c A6020000 		.4byte	.LASF76
 1166 0410 07       		.byte	0x7
 1167 0411 70       		.byte	0x70
 1168 0412 16040000 		.4byte	0x416
 1169 0416 0F       		.uleb128 0xf
 1170 0417 51010000 		.4byte	.LASF77
 1171 041b 5001     		.2byte	0x150
 1172 041d 08       		.byte	0x8
 1173 041e C201     		.2byte	0x1c2
 1174 0420 72040000 		.4byte	0x472
 1175 0424 09       		.uleb128 0x9
 1176 0425 AA060000 		.4byte	.LASF78
 1177 0429 08       		.byte	0x8
 1178 042a C601     		.2byte	0x1c6
 1179 042c B9020000 		.4byte	0x2b9
 1180 0430 00       		.byte	0
 1181 0431 09       		.uleb128 0x9
 1182 0432 44010000 		.4byte	.LASF79
 1183 0436 08       		.byte	0x8
 1184 0437 CA01     		.2byte	0x1ca
 1185 0439 98030000 		.4byte	0x398
 1186 043d 1C       		.byte	0x1c
 1187 043e 08       		.uleb128 0x8
 1188 043f 64626700 		.ascii	"dbg\000"
 1189 0443 08       		.byte	0x8
 1190 0444 CE01     		.2byte	0x1ce
 1191 0446 E5030000 		.4byte	0x3e5
 1192 044a 2C       		.byte	0x2c
 1193 044b 09       		.uleb128 0x9
 1194 044c 91000000 		.4byte	.LASF80
 1195 0450 08       		.byte	0x8
 1196 0451 D201     		.2byte	0x1d2
 1197 0453 5C010000 		.4byte	0x15c
 1198 0457 30       		.byte	0x30
 1199 0458 08       		.uleb128 0x8
 1200 0459 746D00   		.ascii	"tm\000"
 1201 045c 08       		.byte	0x8
 1202 045d D701     		.2byte	0x1d7
 1203 045f AD050000 		.4byte	0x5ad
 1204 0463 74       		.byte	0x74
ARM GAS  /var/folders/c6/c789hm653lg9vtl73krp73tm0000gn/T//ccwnu7lN.s 			page 52


 1205 0464 09       		.uleb128 0x9
 1206 0465 EA010000 		.4byte	.LASF81
 1207 0469 08       		.byte	0x8
 1208 046a E301     		.2byte	0x1e3
 1209 046c 9A060000 		.4byte	0x69a
 1210 0470 78       		.byte	0x78
 1211 0471 00       		.byte	0
 1212 0472 04       		.uleb128 0x4
 1213 0473 04       		.byte	0x4
 1214 0474 07       		.byte	0x7
 1215 0475 50030000 		.4byte	.LASF82
 1216 0479 10       		.uleb128 0x10
 1217 047a 1C       		.byte	0x1c
 1218 047b 09       		.byte	0x9
 1219 047c 0903     		.2byte	0x309
 1220 047e DC040000 		.4byte	0x4dc
 1221 0482 08       		.uleb128 0x8
 1222 0483 535200   		.ascii	"SR\000"
 1223 0486 09       		.byte	0x9
 1224 0487 0B03     		.2byte	0x30b
 1225 0489 E9000000 		.4byte	0xe9
 1226 048d 00       		.byte	0
 1227 048e 08       		.uleb128 0x8
 1228 048f 445200   		.ascii	"DR\000"
 1229 0492 09       		.byte	0x9
 1230 0493 0C03     		.2byte	0x30c
 1231 0495 E9000000 		.4byte	0xe9
 1232 0499 04       		.byte	0x4
 1233 049a 08       		.uleb128 0x8
 1234 049b 42525200 		.ascii	"BRR\000"
 1235 049f 09       		.byte	0x9
 1236 04a0 0D03     		.2byte	0x30d
 1237 04a2 E9000000 		.4byte	0xe9
 1238 04a6 08       		.byte	0x8
 1239 04a7 08       		.uleb128 0x8
 1240 04a8 43523100 		.ascii	"CR1\000"
 1241 04ac 09       		.byte	0x9
 1242 04ad 0E03     		.2byte	0x30e
 1243 04af E9000000 		.4byte	0xe9
 1244 04b3 0C       		.byte	0xc
 1245 04b4 08       		.uleb128 0x8
 1246 04b5 43523200 		.ascii	"CR2\000"
 1247 04b9 09       		.byte	0x9
 1248 04ba 0F03     		.2byte	0x30f
 1249 04bc E9000000 		.4byte	0xe9
 1250 04c0 10       		.byte	0x10
 1251 04c1 08       		.uleb128 0x8
 1252 04c2 43523300 		.ascii	"CR3\000"
 1253 04c6 09       		.byte	0x9
 1254 04c7 1003     		.2byte	0x310
 1255 04c9 E9000000 		.4byte	0xe9
 1256 04cd 14       		.byte	0x14
 1257 04ce 09       		.uleb128 0x9
 1258 04cf 2F010000 		.4byte	.LASF83
 1259 04d3 09       		.byte	0x9
 1260 04d4 1103     		.2byte	0x311
 1261 04d6 E9000000 		.4byte	0xe9
ARM GAS  /var/folders/c6/c789hm653lg9vtl73krp73tm0000gn/T//ccwnu7lN.s 			page 53


 1262 04da 18       		.byte	0x18
 1263 04db 00       		.byte	0
 1264 04dc 11       		.uleb128 0x11
 1265 04dd B2020000 		.4byte	.LASF84
 1266 04e1 09       		.byte	0x9
 1267 04e2 1203     		.2byte	0x312
 1268 04e4 79040000 		.4byte	0x479
 1269 04e8 03       		.uleb128 0x3
 1270 04e9 AC010000 		.4byte	.LASF85
 1271 04ed 0A       		.byte	0xa
 1272 04ee 65       		.byte	0x65
 1273 04ef 3C030000 		.4byte	0x33c
 1274 04f3 03       		.uleb128 0x3
 1275 04f4 F9020000 		.4byte	.LASF86
 1276 04f8 0A       		.byte	0xa
 1277 04f9 6D       		.byte	0x6d
 1278 04fa D9000000 		.4byte	0xd9
 1279 04fe 06       		.uleb128 0x6
 1280 04ff 23060000 		.4byte	.LASF87
 1281 0503 04       		.byte	0x4
 1282 0504 0A       		.byte	0xa
 1283 0505 89       		.byte	0x89
 1284 0506 17050000 		.4byte	0x517
 1285 050a 12       		.uleb128 0x12
 1286 050b 72313300 		.ascii	"r13\000"
 1287 050f 0A       		.byte	0xa
 1288 0510 8A       		.byte	0x8a
 1289 0511 92050000 		.4byte	0x592
 1290 0515 00       		.byte	0
 1291 0516 00       		.byte	0
 1292 0517 06       		.uleb128 0x6
 1293 0518 3D000000 		.4byte	.LASF88
 1294 051c 24       		.byte	0x24
 1295 051d 0B       		.byte	0xb
 1296 051e F4       		.byte	0xf4
 1297 051f 92050000 		.4byte	0x592
 1298 0523 08       		.uleb128 0x8
 1299 0524 723400   		.ascii	"r4\000"
 1300 0527 0B       		.byte	0xb
 1301 0528 0701     		.2byte	0x107
 1302 052a E8040000 		.4byte	0x4e8
 1303 052e 00       		.byte	0
 1304 052f 08       		.uleb128 0x8
 1305 0530 723500   		.ascii	"r5\000"
 1306 0533 0B       		.byte	0xb
 1307 0534 0801     		.2byte	0x108
 1308 0536 E8040000 		.4byte	0x4e8
 1309 053a 04       		.byte	0x4
 1310 053b 08       		.uleb128 0x8
 1311 053c 723600   		.ascii	"r6\000"
 1312 053f 0B       		.byte	0xb
 1313 0540 0901     		.2byte	0x109
 1314 0542 E8040000 		.4byte	0x4e8
 1315 0546 08       		.byte	0x8
 1316 0547 08       		.uleb128 0x8
 1317 0548 723700   		.ascii	"r7\000"
 1318 054b 0B       		.byte	0xb
ARM GAS  /var/folders/c6/c789hm653lg9vtl73krp73tm0000gn/T//ccwnu7lN.s 			page 54


 1319 054c 0A01     		.2byte	0x10a
 1320 054e E8040000 		.4byte	0x4e8
 1321 0552 0C       		.byte	0xc
 1322 0553 08       		.uleb128 0x8
 1323 0554 723800   		.ascii	"r8\000"
 1324 0557 0B       		.byte	0xb
 1325 0558 0B01     		.2byte	0x10b
 1326 055a E8040000 		.4byte	0x4e8
 1327 055e 10       		.byte	0x10
 1328 055f 08       		.uleb128 0x8
 1329 0560 723900   		.ascii	"r9\000"
 1330 0563 0B       		.byte	0xb
 1331 0564 0C01     		.2byte	0x10c
 1332 0566 E8040000 		.4byte	0x4e8
 1333 056a 14       		.byte	0x14
 1334 056b 08       		.uleb128 0x8
 1335 056c 72313000 		.ascii	"r10\000"
 1336 0570 0B       		.byte	0xb
 1337 0571 0D01     		.2byte	0x10d
 1338 0573 E8040000 		.4byte	0x4e8
 1339 0577 18       		.byte	0x18
 1340 0578 08       		.uleb128 0x8
 1341 0579 72313100 		.ascii	"r11\000"
 1342 057d 0B       		.byte	0xb
 1343 057e 0E01     		.2byte	0x10e
 1344 0580 E8040000 		.4byte	0x4e8
 1345 0584 1C       		.byte	0x1c
 1346 0585 08       		.uleb128 0x8
 1347 0586 6C7200   		.ascii	"lr\000"
 1348 0589 0B       		.byte	0xb
 1349 058a 0F01     		.2byte	0x10f
 1350 058c E8040000 		.4byte	0x4e8
 1351 0590 20       		.byte	0x20
 1352 0591 00       		.byte	0
 1353 0592 0A       		.uleb128 0xa
 1354 0593 04       		.byte	0x4
 1355 0594 17050000 		.4byte	0x517
 1356 0598 13       		.uleb128 0x13
 1357 0599 04       		.byte	0x4
 1358 059a 0C       		.byte	0xc
 1359 059b 38       		.byte	0x38
 1360 059c AD050000 		.4byte	0x5ad
 1361 05a0 07       		.uleb128 0x7
 1362 05a1 00060000 		.4byte	.LASF89
 1363 05a5 0C       		.byte	0xc
 1364 05a6 3C       		.byte	0x3c
 1365 05a7 EE000000 		.4byte	0xee
 1366 05ab 00       		.byte	0
 1367 05ac 00       		.byte	0
 1368 05ad 03       		.uleb128 0x3
 1369 05ae A9030000 		.4byte	.LASF90
 1370 05b2 0C       		.byte	0xc
 1371 05b3 3D       		.byte	0x3d
 1372 05b4 98050000 		.4byte	0x598
 1373 05b8 14       		.uleb128 0x14
 1374 05b9 04       		.byte	0x4
 1375 05ba 08       		.byte	0x8
ARM GAS  /var/folders/c6/c789hm653lg9vtl73krp73tm0000gn/T//ccwnu7lN.s 			page 55


 1376 05bb FA       		.byte	0xfa
 1377 05bc 15060000 		.4byte	0x615
 1378 05c0 15       		.uleb128 0x15
 1379 05c1 1C000000 		.4byte	.LASF91
 1380 05c5 08       		.byte	0x8
 1381 05c6 0101     		.2byte	0x101
 1382 05c8 25010000 		.4byte	0x125
 1383 05cc 15       		.uleb128 0x15
 1384 05cd 88000000 		.4byte	.LASF92
 1385 05d1 08       		.byte	0x8
 1386 05d2 0801     		.2byte	0x108
 1387 05d4 25010000 		.4byte	0x125
 1388 05d8 15       		.uleb128 0x15
 1389 05d9 C5060000 		.4byte	.LASF93
 1390 05dd 08       		.byte	0x8
 1391 05de 0F01     		.2byte	0x10f
 1392 05e0 3C030000 		.4byte	0x33c
 1393 05e4 15       		.uleb128 0x15
 1394 05e5 89030000 		.4byte	.LASF94
 1395 05e9 08       		.byte	0x8
 1396 05ea 1601     		.2byte	0x116
 1397 05ec 15060000 		.4byte	0x615
 1398 05f0 15       		.uleb128 0x15
 1399 05f1 33020000 		.4byte	.LASF95
 1400 05f5 08       		.byte	0x8
 1401 05f6 1E01     		.2byte	0x11e
 1402 05f8 40060000 		.4byte	0x640
 1403 05fc 15       		.uleb128 0x15
 1404 05fd 0E050000 		.4byte	.LASF96
 1405 0601 08       		.byte	0x8
 1406 0602 2701     		.2byte	0x127
 1407 0604 77060000 		.4byte	0x677
 1408 0608 15       		.uleb128 0x15
 1409 0609 A8040000 		.4byte	.LASF97
 1410 060d 08       		.byte	0x8
 1411 060e 2F01     		.2byte	0x12f
 1412 0610 30010000 		.4byte	0x130
 1413 0614 00       		.byte	0
 1414 0615 0A       		.uleb128 0xa
 1415 0616 04       		.byte	0x4
 1416 0617 54020000 		.4byte	0x254
 1417 061b 06       		.uleb128 0x6
 1418 061c E2040000 		.4byte	.LASF98
 1419 0620 0C       		.byte	0xc
 1420 0621 0D       		.byte	0xd
 1421 0622 34       		.byte	0x34
 1422 0623 40060000 		.4byte	0x640
 1423 0627 07       		.uleb128 0x7
 1424 0628 94010000 		.4byte	.LASF99
 1425 062c 0D       		.byte	0xd
 1426 062d 35       		.byte	0x35
 1427 062e 89020000 		.4byte	0x289
 1428 0632 00       		.byte	0
 1429 0633 07       		.uleb128 0x7
 1430 0634 5E020000 		.4byte	.LASF100
 1431 0638 0D       		.byte	0xd
 1432 0639 37       		.byte	0x37
ARM GAS  /var/folders/c6/c789hm653lg9vtl73krp73tm0000gn/T//ccwnu7lN.s 			page 56


 1433 063a 46010000 		.4byte	0x146
 1434 063e 08       		.byte	0x8
 1435 063f 00       		.byte	0
 1436 0640 0A       		.uleb128 0xa
 1437 0641 04       		.byte	0x4
 1438 0642 1B060000 		.4byte	0x61b
 1439 0646 06       		.uleb128 0x6
 1440 0647 90060000 		.4byte	.LASF101
 1441 064b 10       		.byte	0x10
 1442 064c 0E       		.byte	0xe
 1443 064d 39       		.byte	0x39
 1444 064e 77060000 		.4byte	0x677
 1445 0652 07       		.uleb128 0x7
 1446 0653 3C010000 		.4byte	.LASF102
 1447 0657 0E       		.byte	0xe
 1448 0658 3A       		.byte	0x3a
 1449 0659 89020000 		.4byte	0x289
 1450 065d 00       		.byte	0
 1451 065e 07       		.uleb128 0x7
 1452 065f E2070000 		.4byte	.LASF103
 1453 0663 0E       		.byte	0xe
 1454 0664 3C       		.byte	0x3c
 1455 0665 5F020000 		.4byte	0x25f
 1456 0669 08       		.byte	0x8
 1457 066a 07       		.uleb128 0x7
 1458 066b C6050000 		.4byte	.LASF104
 1459 066f 0E       		.byte	0xe
 1460 0670 3E       		.byte	0x3e
 1461 0671 C0060000 		.4byte	0x6c0
 1462 0675 0C       		.byte	0xc
 1463 0676 00       		.byte	0
 1464 0677 0A       		.uleb128 0xa
 1465 0678 04       		.byte	0x4
 1466 0679 46060000 		.4byte	0x646
 1467 067d 0A       		.uleb128 0xa
 1468 067e 04       		.byte	0x4
 1469 067f 83060000 		.4byte	0x683
 1470 0683 16       		.uleb128 0x16
 1471 0684 88060000 		.4byte	0x688
 1472 0688 04       		.uleb128 0x4
 1473 0689 01       		.byte	0x1
 1474 068a 08       		.byte	0x8
 1475 068b A5050000 		.4byte	.LASF105
 1476 068f 0A       		.uleb128 0xa
 1477 0690 04       		.byte	0x4
 1478 0691 3E030000 		.4byte	0x33e
 1479 0695 05       		.uleb128 0x5
 1480 0696 7D060000 		.4byte	0x67d
 1481 069a 17       		.uleb128 0x17
 1482 069b F3040000 		.4byte	0x4f3
 1483 069f AA060000 		.4byte	0x6aa
 1484 06a3 18       		.uleb128 0x18
 1485 06a4 72040000 		.4byte	0x472
 1486 06a8 1A       		.byte	0x1a
 1487 06a9 00       		.byte	0
 1488 06aa 03       		.uleb128 0x3
 1489 06ab 00000000 		.4byte	.LASF106
ARM GAS  /var/folders/c6/c789hm653lg9vtl73krp73tm0000gn/T//ccwnu7lN.s 			page 57


 1490 06af 0F       		.byte	0xf
 1491 06b0 34       		.byte	0x34
 1492 06b1 2B030000 		.4byte	0x32b
 1493 06b5 03       		.uleb128 0x3
 1494 06b6 CA010000 		.4byte	.LASF107
 1495 06ba 0E       		.byte	0xe
 1496 06bb 34       		.byte	0x34
 1497 06bc 46060000 		.4byte	0x646
 1498 06c0 0A       		.uleb128 0xa
 1499 06c1 04       		.byte	0x4
 1500 06c2 B5060000 		.4byte	0x6b5
 1501 06c6 03       		.uleb128 0x3
 1502 06c7 12060000 		.4byte	.LASF108
 1503 06cb 10       		.byte	0x10
 1504 06cc 34       		.byte	0x34
 1505 06cd D1060000 		.4byte	0x6d1
 1506 06d1 06       		.uleb128 0x6
 1507 06d2 F8070000 		.4byte	.LASF109
 1508 06d6 14       		.byte	0x14
 1509 06d7 10       		.byte	0x10
 1510 06d8 39       		.byte	0x39
 1511 06d9 1A070000 		.4byte	0x71a
 1512 06dd 07       		.uleb128 0x7
 1513 06de 9E020000 		.4byte	.LASF110
 1514 06e2 10       		.byte	0x10
 1515 06e3 3A       		.byte	0x3a
 1516 06e4 1A070000 		.4byte	0x71a
 1517 06e8 00       		.byte	0
 1518 06e9 07       		.uleb128 0x7
 1519 06ea 70040000 		.4byte	.LASF111
 1520 06ee 10       		.byte	0x10
 1521 06ef 3D       		.byte	0x3d
 1522 06f0 5F020000 		.4byte	0x25f
 1523 06f4 04       		.byte	0x4
 1524 06f5 07       		.uleb128 0x7
 1525 06f6 D4030000 		.4byte	.LASF112
 1526 06fa 10       		.byte	0x10
 1527 06fb 3F       		.byte	0x3f
 1528 06fc 30010000 		.4byte	0x130
 1529 0700 08       		.byte	0x8
 1530 0701 07       		.uleb128 0x7
 1531 0702 7C040000 		.4byte	.LASF113
 1532 0706 10       		.byte	0x10
 1533 0707 41       		.byte	0x41
 1534 0708 3B010000 		.4byte	0x13b
 1535 070c 0C       		.byte	0xc
 1536 070d 07       		.uleb128 0x7
 1537 070e 87020000 		.4byte	.LASF114
 1538 0712 10       		.byte	0x10
 1539 0713 43       		.byte	0x43
 1540 0714 3B010000 		.4byte	0x13b
 1541 0718 10       		.byte	0x10
 1542 0719 00       		.byte	0
 1543 071a 0A       		.uleb128 0xa
 1544 071b 04       		.byte	0x4
 1545 071c C6060000 		.4byte	0x6c6
 1546 0720 06       		.uleb128 0x6
ARM GAS  /var/folders/c6/c789hm653lg9vtl73krp73tm0000gn/T//ccwnu7lN.s 			page 58


 1547 0721 B0060000 		.4byte	.LASF115
 1548 0725 04       		.byte	0x4
 1549 0726 10       		.byte	0x10
 1550 0727 4A       		.byte	0x4a
 1551 0728 39070000 		.4byte	0x739
 1552 072c 07       		.uleb128 0x7
 1553 072d 99060000 		.4byte	.LASF116
 1554 0731 10       		.byte	0x10
 1555 0732 4B       		.byte	0x4b
 1556 0733 1A070000 		.4byte	0x71a
 1557 0737 00       		.byte	0
 1558 0738 00       		.byte	0
 1559 0739 03       		.uleb128 0x3
 1560 073a DB010000 		.4byte	.LASF117
 1561 073e 10       		.byte	0x10
 1562 073f 4E       		.byte	0x4e
 1563 0740 20070000 		.4byte	0x720
 1564 0744 03       		.uleb128 0x3
 1565 0745 C9000000 		.4byte	.LASF118
 1566 0749 11       		.byte	0x11
 1567 074a 3F       		.byte	0x3f
 1568 074b 4F070000 		.4byte	0x74f
 1569 074f 06       		.uleb128 0x6
 1570 0750 D2010000 		.4byte	.LASF119
 1571 0754 24       		.byte	0x24
 1572 0755 11       		.byte	0x11
 1573 0756 4D       		.byte	0x4d
 1574 0757 BC070000 		.4byte	0x7bc
 1575 075b 07       		.uleb128 0x7
 1576 075c FC000000 		.4byte	.LASF120
 1577 0760 11       		.byte	0x11
 1578 0761 4E       		.byte	0x4e
 1579 0762 89020000 		.4byte	0x289
 1580 0766 00       		.byte	0
 1581 0767 07       		.uleb128 0x7
 1582 0768 04050000 		.4byte	.LASF121
 1583 076c 11       		.byte	0x11
 1584 076d 4F       		.byte	0x4f
 1585 076e DE070000 		.4byte	0x7de
 1586 0772 08       		.byte	0x8
 1587 0773 07       		.uleb128 0x7
 1588 0774 74010000 		.4byte	.LASF122
 1589 0778 11       		.byte	0x11
 1590 0779 50       		.byte	0x50
 1591 077a E3070000 		.4byte	0x7e3
 1592 077e 0C       		.byte	0xc
 1593 077f 07       		.uleb128 0x7
 1594 0780 8A060000 		.4byte	.LASF123
 1595 0784 11       		.byte	0x11
 1596 0785 51       		.byte	0x51
 1597 0786 E3070000 		.4byte	0x7e3
 1598 078a 10       		.byte	0x10
 1599 078b 07       		.uleb128 0x7
 1600 078c 7D010000 		.4byte	.LASF124
 1601 0790 11       		.byte	0x11
 1602 0791 53       		.byte	0x53
 1603 0792 E3070000 		.4byte	0x7e3
ARM GAS  /var/folders/c6/c789hm653lg9vtl73krp73tm0000gn/T//ccwnu7lN.s 			page 59


 1604 0796 14       		.byte	0x14
 1605 0797 07       		.uleb128 0x7
 1606 0798 31040000 		.4byte	.LASF125
 1607 079c 11       		.byte	0x11
 1608 079d 54       		.byte	0x54
 1609 079e E3070000 		.4byte	0x7e3
 1610 07a2 18       		.byte	0x18
 1611 07a3 07       		.uleb128 0x7
 1612 07a4 A1060000 		.4byte	.LASF126
 1613 07a8 11       		.byte	0x11
 1614 07a9 55       		.byte	0x55
 1615 07aa BC070000 		.4byte	0x7bc
 1616 07ae 1C       		.byte	0x1c
 1617 07af 07       		.uleb128 0x7
 1618 07b0 85010000 		.4byte	.LASF127
 1619 07b4 11       		.byte	0x11
 1620 07b5 56       		.byte	0x56
 1621 07b6 3C030000 		.4byte	0x33c
 1622 07ba 20       		.byte	0x20
 1623 07bb 00       		.byte	0
 1624 07bc 03       		.uleb128 0x3
 1625 07bd EF020000 		.4byte	.LASF128
 1626 07c1 11       		.byte	0x11
 1627 07c2 42       		.byte	0x42
 1628 07c3 C7070000 		.4byte	0x7c7
 1629 07c7 0A       		.uleb128 0xa
 1630 07c8 04       		.byte	0x4
 1631 07c9 CD070000 		.4byte	0x7cd
 1632 07cd 0C       		.uleb128 0xc
 1633 07ce D8070000 		.4byte	0x7d8
 1634 07d2 0D       		.uleb128 0xd
 1635 07d3 D8070000 		.4byte	0x7d8
 1636 07d7 00       		.byte	0
 1637 07d8 0A       		.uleb128 0xa
 1638 07d9 04       		.byte	0x4
 1639 07da 44070000 		.4byte	0x744
 1640 07de 05       		.uleb128 0x5
 1641 07df 2C000000 		.4byte	0x2c
 1642 07e3 0A       		.uleb128 0xa
 1643 07e4 04       		.byte	0x4
 1644 07e5 AD000000 		.4byte	0xad
 1645 07e9 03       		.uleb128 0x3
 1646 07ea 24030000 		.4byte	.LASF129
 1647 07ee 11       		.byte	0x11
 1648 07ef 64       		.byte	0x64
 1649 07f0 44070000 		.4byte	0x744
 1650 07f4 03       		.uleb128 0x3
 1651 07f5 37030000 		.4byte	.LASF130
 1652 07f9 11       		.byte	0x11
 1653 07fa 71       		.byte	0x71
 1654 07fb 44070000 		.4byte	0x744
 1655 07ff 19       		.uleb128 0x19
 1656 0800 2C000000 		.4byte	0x2c
 1657 0804 18080000 		.4byte	0x818
 1658 0808 0D       		.uleb128 0xd
 1659 0809 3C030000 		.4byte	0x33c
 1660 080d 0D       		.uleb128 0xd
ARM GAS  /var/folders/c6/c789hm653lg9vtl73krp73tm0000gn/T//ccwnu7lN.s 			page 60


 1661 080e 18080000 		.4byte	0x818
 1662 0812 0D       		.uleb128 0xd
 1663 0813 2C000000 		.4byte	0x2c
 1664 0817 00       		.byte	0
 1665 0818 0A       		.uleb128 0xa
 1666 0819 04       		.byte	0x4
 1667 081a 1E080000 		.4byte	0x81e
 1668 081e 16       		.uleb128 0x16
 1669 081f AD000000 		.4byte	0xad
 1670 0823 0A       		.uleb128 0xa
 1671 0824 04       		.byte	0x4
 1672 0825 FF070000 		.4byte	0x7ff
 1673 0829 19       		.uleb128 0x19
 1674 082a 2C000000 		.4byte	0x2c
 1675 082e 42080000 		.4byte	0x842
 1676 0832 0D       		.uleb128 0xd
 1677 0833 3C030000 		.4byte	0x33c
 1678 0837 0D       		.uleb128 0xd
 1679 0838 E3070000 		.4byte	0x7e3
 1680 083c 0D       		.uleb128 0xd
 1681 083d 2C000000 		.4byte	0x2c
 1682 0841 00       		.byte	0
 1683 0842 0A       		.uleb128 0xa
 1684 0843 04       		.byte	0x4
 1685 0844 29080000 		.4byte	0x829
 1686 0848 19       		.uleb128 0x19
 1687 0849 25010000 		.4byte	0x125
 1688 084d 5C080000 		.4byte	0x85c
 1689 0851 0D       		.uleb128 0xd
 1690 0852 3C030000 		.4byte	0x33c
 1691 0856 0D       		.uleb128 0xd
 1692 0857 AD000000 		.4byte	0xad
 1693 085b 00       		.byte	0
 1694 085c 0A       		.uleb128 0xa
 1695 085d 04       		.byte	0x4
 1696 085e 48080000 		.4byte	0x848
 1697 0862 19       		.uleb128 0x19
 1698 0863 25010000 		.4byte	0x125
 1699 0867 71080000 		.4byte	0x871
 1700 086b 0D       		.uleb128 0xd
 1701 086c 3C030000 		.4byte	0x33c
 1702 0870 00       		.byte	0
 1703 0871 0A       		.uleb128 0xa
 1704 0872 04       		.byte	0x4
 1705 0873 62080000 		.4byte	0x862
 1706 0877 19       		.uleb128 0x19
 1707 0878 25010000 		.4byte	0x125
 1708 087c 90080000 		.4byte	0x890
 1709 0880 0D       		.uleb128 0xd
 1710 0881 3C030000 		.4byte	0x33c
 1711 0885 0D       		.uleb128 0xd
 1712 0886 AD000000 		.4byte	0xad
 1713 088a 0D       		.uleb128 0xd
 1714 088b 51010000 		.4byte	0x151
 1715 088f 00       		.byte	0
 1716 0890 0A       		.uleb128 0xa
 1717 0891 04       		.byte	0x4
ARM GAS  /var/folders/c6/c789hm653lg9vtl73krp73tm0000gn/T//ccwnu7lN.s 			page 61


 1718 0892 77080000 		.4byte	0x877
 1719 0896 19       		.uleb128 0x19
 1720 0897 25010000 		.4byte	0x125
 1721 089b AA080000 		.4byte	0x8aa
 1722 089f 0D       		.uleb128 0xd
 1723 08a0 3C030000 		.4byte	0x33c
 1724 08a4 0D       		.uleb128 0xd
 1725 08a5 51010000 		.4byte	0x151
 1726 08a9 00       		.byte	0
 1727 08aa 0A       		.uleb128 0xa
 1728 08ab 04       		.byte	0x4
 1729 08ac 96080000 		.4byte	0x896
 1730 08b0 19       		.uleb128 0x19
 1731 08b1 2C000000 		.4byte	0x2c
 1732 08b5 CE080000 		.4byte	0x8ce
 1733 08b9 0D       		.uleb128 0xd
 1734 08ba 3C030000 		.4byte	0x33c
 1735 08be 0D       		.uleb128 0xd
 1736 08bf 18080000 		.4byte	0x818
 1737 08c3 0D       		.uleb128 0xd
 1738 08c4 2C000000 		.4byte	0x2c
 1739 08c8 0D       		.uleb128 0xd
 1740 08c9 51010000 		.4byte	0x151
 1741 08cd 00       		.byte	0
 1742 08ce 0A       		.uleb128 0xa
 1743 08cf 04       		.byte	0x4
 1744 08d0 B0080000 		.4byte	0x8b0
 1745 08d4 19       		.uleb128 0x19
 1746 08d5 2C000000 		.4byte	0x2c
 1747 08d9 F2080000 		.4byte	0x8f2
 1748 08dd 0D       		.uleb128 0xd
 1749 08de 3C030000 		.4byte	0x33c
 1750 08e2 0D       		.uleb128 0xd
 1751 08e3 E3070000 		.4byte	0x7e3
 1752 08e7 0D       		.uleb128 0xd
 1753 08e8 2C000000 		.4byte	0x2c
 1754 08ec 0D       		.uleb128 0xd
 1755 08ed 51010000 		.4byte	0x151
 1756 08f1 00       		.byte	0
 1757 08f2 0A       		.uleb128 0xa
 1758 08f3 04       		.byte	0x4
 1759 08f4 D4080000 		.4byte	0x8d4
 1760 08f8 04       		.uleb128 0x4
 1761 08f9 01       		.byte	0x1
 1762 08fa 02       		.byte	0x2
 1763 08fb 49040000 		.4byte	.LASF131
 1764 08ff 13       		.uleb128 0x13
 1765 0900 04       		.byte	0x4
 1766 0901 12       		.byte	0x12
 1767 0902 B3       		.byte	0xb3
 1768 0903 20090000 		.4byte	0x920
 1769 0907 12       		.uleb128 0x12
 1770 0908 73657400 		.ascii	"set\000"
 1771 090c 12       		.byte	0x12
 1772 090d B4       		.byte	0xb4
 1773 090e B8000000 		.4byte	0xb8
 1774 0912 00       		.byte	0
ARM GAS  /var/folders/c6/c789hm653lg9vtl73krp73tm0000gn/T//ccwnu7lN.s 			page 62


 1775 0913 07       		.uleb128 0x7
 1776 0914 83030000 		.4byte	.LASF132
 1777 0918 12       		.byte	0x12
 1778 0919 B5       		.byte	0xb5
 1779 091a B8000000 		.4byte	0xb8
 1780 091e 02       		.byte	0x2
 1781 091f 00       		.byte	0
 1782 0920 14       		.uleb128 0x14
 1783 0921 04       		.byte	0x4
 1784 0922 12       		.byte	0x12
 1785 0923 B1       		.byte	0xb1
 1786 0924 3B090000 		.4byte	0x93b
 1787 0928 1A       		.uleb128 0x1a
 1788 0929 5700     		.ascii	"W\000"
 1789 092b 12       		.byte	0x12
 1790 092c B2       		.byte	0xb2
 1791 092d CE000000 		.4byte	0xce
 1792 0931 1A       		.uleb128 0x1a
 1793 0932 4800     		.ascii	"H\000"
 1794 0934 12       		.byte	0x12
 1795 0935 B6       		.byte	0xb6
 1796 0936 FF080000 		.4byte	0x8ff
 1797 093a 00       		.byte	0
 1798 093b 13       		.uleb128 0x13
 1799 093c 2C       		.byte	0x2c
 1800 093d 12       		.byte	0x12
 1801 093e A9       		.byte	0xa9
 1802 093f C8090000 		.4byte	0x9c8
 1803 0943 07       		.uleb128 0x7
 1804 0944 65000000 		.4byte	.LASF133
 1805 0948 12       		.byte	0x12
 1806 0949 AB       		.byte	0xab
 1807 094a E9000000 		.4byte	0xe9
 1808 094e 00       		.byte	0
 1809 094f 07       		.uleb128 0x7
 1810 0950 36000000 		.4byte	.LASF134
 1811 0954 12       		.byte	0x12
 1812 0955 AC       		.byte	0xac
 1813 0956 E9000000 		.4byte	0xe9
 1814 095a 04       		.byte	0x4
 1815 095b 07       		.uleb128 0x7
 1816 095c 9C010000 		.4byte	.LASF135
 1817 0960 12       		.byte	0x12
 1818 0961 AD       		.byte	0xad
 1819 0962 E9000000 		.4byte	0xe9
 1820 0966 08       		.byte	0x8
 1821 0967 07       		.uleb128 0x7
 1822 0968 82000000 		.4byte	.LASF136
 1823 096c 12       		.byte	0x12
 1824 096d AE       		.byte	0xae
 1825 096e E9000000 		.4byte	0xe9
 1826 0972 0C       		.byte	0xc
 1827 0973 12       		.uleb128 0x12
 1828 0974 49445200 		.ascii	"IDR\000"
 1829 0978 12       		.byte	0x12
 1830 0979 AF       		.byte	0xaf
 1831 097a E9000000 		.4byte	0xe9
ARM GAS  /var/folders/c6/c789hm653lg9vtl73krp73tm0000gn/T//ccwnu7lN.s 			page 63


 1832 097e 10       		.byte	0x10
 1833 097f 12       		.uleb128 0x12
 1834 0980 4F445200 		.ascii	"ODR\000"
 1835 0984 12       		.byte	0x12
 1836 0985 B0       		.byte	0xb0
 1837 0986 E9000000 		.4byte	0xe9
 1838 098a 14       		.byte	0x14
 1839 098b 07       		.uleb128 0x7
 1840 098c 20010000 		.4byte	.LASF137
 1841 0990 12       		.byte	0x12
 1842 0991 B7       		.byte	0xb7
 1843 0992 C8090000 		.4byte	0x9c8
 1844 0996 18       		.byte	0x18
 1845 0997 07       		.uleb128 0x7
 1846 0998 DD040000 		.4byte	.LASF138
 1847 099c 12       		.byte	0x12
 1848 099d B8       		.byte	0xb8
 1849 099e E9000000 		.4byte	0xe9
 1850 09a2 1C       		.byte	0x1c
 1851 09a3 07       		.uleb128 0x7
 1852 09a4 FB030000 		.4byte	.LASF139
 1853 09a8 12       		.byte	0x12
 1854 09a9 B9       		.byte	0xb9
 1855 09aa E9000000 		.4byte	0xe9
 1856 09ae 20       		.byte	0x20
 1857 09af 07       		.uleb128 0x7
 1858 09b0 F6030000 		.4byte	.LASF140
 1859 09b4 12       		.byte	0x12
 1860 09b5 BA       		.byte	0xba
 1861 09b6 E9000000 		.4byte	0xe9
 1862 09ba 24       		.byte	0x24
 1863 09bb 12       		.uleb128 0x12
 1864 09bc 42525200 		.ascii	"BRR\000"
 1865 09c0 12       		.byte	0x12
 1866 09c1 BB       		.byte	0xbb
 1867 09c2 E9000000 		.4byte	0xe9
 1868 09c6 28       		.byte	0x28
 1869 09c7 00       		.byte	0
 1870 09c8 05       		.uleb128 0x5
 1871 09c9 20090000 		.4byte	0x920
 1872 09cd 03       		.uleb128 0x3
 1873 09ce BD010000 		.4byte	.LASF141
 1874 09d2 12       		.byte	0x12
 1875 09d3 BC       		.byte	0xbc
 1876 09d4 3B090000 		.4byte	0x93b
 1877 09d8 11       		.uleb128 0x11
 1878 09d9 58000000 		.4byte	.LASF142
 1879 09dd 12       		.byte	0x12
 1880 09de 0E01     		.2byte	0x10e
 1881 09e0 CE000000 		.4byte	0xce
 1882 09e4 11       		.uleb128 0x11
 1883 09e5 D9070000 		.4byte	.LASF143
 1884 09e9 12       		.byte	0x12
 1885 09ea 1301     		.2byte	0x113
 1886 09ec CE000000 		.4byte	0xce
 1887 09f0 11       		.uleb128 0x11
 1888 09f1 07060000 		.4byte	.LASF144
ARM GAS  /var/folders/c6/c789hm653lg9vtl73krp73tm0000gn/T//ccwnu7lN.s 			page 64


 1889 09f5 12       		.byte	0x12
 1890 09f6 1B01     		.2byte	0x11b
 1891 09f8 FC090000 		.4byte	0x9fc
 1892 09fc 0A       		.uleb128 0xa
 1893 09fd 04       		.byte	0x4
 1894 09fe CD090000 		.4byte	0x9cd
 1895 0a02 1B       		.uleb128 0x1b
 1896 0a03 01       		.byte	0x1
 1897 0a04 13       		.byte	0x13
 1898 0a05 55       		.byte	0x55
 1899 0a06 1D0A0000 		.4byte	0xa1d
 1900 0a0a 1C       		.uleb128 0x1c
 1901 0a0b FA040000 		.4byte	.LASF145
 1902 0a0f 00       		.sleb128 0
 1903 0a10 1C       		.uleb128 0x1c
 1904 0a11 C5040000 		.4byte	.LASF146
 1905 0a15 01       		.sleb128 1
 1906 0a16 1C       		.uleb128 0x1c
 1907 0a17 5A060000 		.4byte	.LASF147
 1908 0a1b 02       		.sleb128 2
 1909 0a1c 00       		.byte	0
 1910 0a1d 03       		.uleb128 0x3
 1911 0a1e 80060000 		.4byte	.LASF148
 1912 0a22 13       		.byte	0x13
 1913 0a23 59       		.byte	0x59
 1914 0a24 020A0000 		.4byte	0xa02
 1915 0a28 03       		.uleb128 0x3
 1916 0a29 36050000 		.4byte	.LASF149
 1917 0a2d 13       		.byte	0x13
 1918 0a2e 5E       		.byte	0x5e
 1919 0a2f 330A0000 		.4byte	0xa33
 1920 0a33 06       		.uleb128 0x6
 1921 0a34 36050000 		.4byte	.LASF149
 1922 0a38 78       		.byte	0x78
 1923 0a39 13       		.byte	0x13
 1924 0a3a 78       		.byte	0x78
 1925 0a3b 9E0A0000 		.4byte	0xa9e
 1926 0a3f 12       		.uleb128 0x12
 1927 0a40 766D7400 		.ascii	"vmt\000"
 1928 0a44 13       		.byte	0x13
 1929 0a45 7A       		.byte	0x7a
 1930 0a46 4F0B0000 		.4byte	0xb4f
 1931 0a4a 00       		.byte	0
 1932 0a4b 07       		.uleb128 0x7
 1933 0a4c 64020000 		.4byte	.LASF150
 1934 0a50 13       		.byte	0x13
 1935 0a51 7B       		.byte	0x7b
 1936 0a52 39070000 		.4byte	0x739
 1937 0a56 04       		.byte	0x4
 1938 0a57 07       		.uleb128 0x7
 1939 0a58 4B010000 		.4byte	.LASF151
 1940 0a5c 13       		.byte	0x13
 1941 0a5d 7B       		.byte	0x7b
 1942 0a5e 1D0A0000 		.4byte	0xa1d
 1943 0a62 08       		.byte	0x8
 1944 0a63 07       		.uleb128 0x7
 1945 0a64 3A020000 		.4byte	.LASF152
ARM GAS  /var/folders/c6/c789hm653lg9vtl73krp73tm0000gn/T//ccwnu7lN.s 			page 65


 1946 0a68 13       		.byte	0x13
 1947 0a69 7B       		.byte	0x7b
 1948 0a6a E9070000 		.4byte	0x7e9
 1949 0a6e 0C       		.byte	0xc
 1950 0a6f 07       		.uleb128 0x7
 1951 0a70 97020000 		.4byte	.LASF153
 1952 0a74 13       		.byte	0x13
 1953 0a75 7B       		.byte	0x7b
 1954 0a76 F4070000 		.4byte	0x7f4
 1955 0a7a 30       		.byte	0x30
 1956 0a7b 12       		.uleb128 0x12
 1957 0a7c 696200   		.ascii	"ib\000"
 1958 0a7f 13       		.byte	0x13
 1959 0a80 7B       		.byte	0x7b
 1960 0a81 5A0B0000 		.4byte	0xb5a
 1961 0a85 54       		.byte	0x54
 1962 0a86 12       		.uleb128 0x12
 1963 0a87 6F6200   		.ascii	"ob\000"
 1964 0a8a 13       		.byte	0x13
 1965 0a8b 7B       		.byte	0x7b
 1966 0a8c 5A0B0000 		.4byte	0xb5a
 1967 0a90 64       		.byte	0x64
 1968 0a91 07       		.uleb128 0x7
 1969 0a92 FF010000 		.4byte	.LASF154
 1970 0a96 13       		.byte	0x13
 1971 0a97 7B       		.byte	0x7b
 1972 0a98 6A0B0000 		.4byte	0xb6a
 1973 0a9c 74       		.byte	0x74
 1974 0a9d 00       		.byte	0
 1975 0a9e 13       		.uleb128 0x13
 1976 0a9f 0C       		.byte	0xc
 1977 0aa0 14       		.byte	0x14
 1978 0aa1 D7       		.byte	0xd7
 1979 0aa2 D70A0000 		.4byte	0xad7
 1980 0aa6 07       		.uleb128 0x7
 1981 0aa7 E9020000 		.4byte	.LASF155
 1982 0aab 14       		.byte	0x14
 1983 0aac DB       		.byte	0xdb
 1984 0aad CE000000 		.4byte	0xce
 1985 0ab1 00       		.byte	0
 1986 0ab2 12       		.uleb128 0x12
 1987 0ab3 63723100 		.ascii	"cr1\000"
 1988 0ab7 14       		.byte	0x14
 1989 0ab8 E0       		.byte	0xe0
 1990 0ab9 B8000000 		.4byte	0xb8
 1991 0abd 04       		.byte	0x4
 1992 0abe 12       		.uleb128 0x12
 1993 0abf 63723200 		.ascii	"cr2\000"
 1994 0ac3 14       		.byte	0x14
 1995 0ac4 E4       		.byte	0xe4
 1996 0ac5 B8000000 		.4byte	0xb8
 1997 0ac9 06       		.byte	0x6
 1998 0aca 12       		.uleb128 0x12
 1999 0acb 63723300 		.ascii	"cr3\000"
 2000 0acf 14       		.byte	0x14
 2001 0ad0 E8       		.byte	0xe8
 2002 0ad1 B8000000 		.4byte	0xb8
ARM GAS  /var/folders/c6/c789hm653lg9vtl73krp73tm0000gn/T//ccwnu7lN.s 			page 66


 2003 0ad5 08       		.byte	0x8
 2004 0ad6 00       		.byte	0
 2005 0ad7 03       		.uleb128 0x3
 2006 0ad8 DE030000 		.4byte	.LASF156
 2007 0adc 14       		.byte	0x14
 2008 0add E9       		.byte	0xe9
 2009 0ade 9E0A0000 		.4byte	0xa9e
 2010 0ae2 06       		.uleb128 0x6
 2011 0ae3 23020000 		.4byte	.LASF157
 2012 0ae7 20       		.byte	0x20
 2013 0ae8 13       		.byte	0x13
 2014 0ae9 6D       		.byte	0x6d
 2015 0aea 4F0B0000 		.4byte	0xb4f
 2016 0aee 07       		.uleb128 0x7
 2017 0aef 1E030000 		.4byte	.LASF158
 2018 0af3 13       		.byte	0x13
 2019 0af4 6E       		.byte	0x6e
 2020 0af5 23080000 		.4byte	0x823
 2021 0af9 00       		.byte	0
 2022 0afa 07       		.uleb128 0x7
 2023 0afb A0050000 		.4byte	.LASF159
 2024 0aff 13       		.byte	0x13
 2025 0b00 6E       		.byte	0x6e
 2026 0b01 42080000 		.4byte	0x842
 2027 0b05 04       		.byte	0x4
 2028 0b06 12       		.uleb128 0x12
 2029 0b07 70757400 		.ascii	"put\000"
 2030 0b0b 13       		.byte	0x13
 2031 0b0c 6E       		.byte	0x6e
 2032 0b0d 5C080000 		.4byte	0x85c
 2033 0b11 08       		.byte	0x8
 2034 0b12 12       		.uleb128 0x12
 2035 0b13 67657400 		.ascii	"get\000"
 2036 0b17 13       		.byte	0x13
 2037 0b18 6E       		.byte	0x6e
 2038 0b19 71080000 		.4byte	0x871
 2039 0b1d 0C       		.byte	0xc
 2040 0b1e 07       		.uleb128 0x7
 2041 0b1f 32030000 		.4byte	.LASF160
 2042 0b23 13       		.byte	0x13
 2043 0b24 6E       		.byte	0x6e
 2044 0b25 90080000 		.4byte	0x890
 2045 0b29 10       		.byte	0x10
 2046 0b2a 07       		.uleb128 0x7
 2047 0b2b 54020000 		.4byte	.LASF161
 2048 0b2f 13       		.byte	0x13
 2049 0b30 6E       		.byte	0x6e
 2050 0b31 AA080000 		.4byte	0x8aa
 2051 0b35 14       		.byte	0x14
 2052 0b36 07       		.uleb128 0x7
 2053 0b37 C0020000 		.4byte	.LASF162
 2054 0b3b 13       		.byte	0x13
 2055 0b3c 6E       		.byte	0x6e
 2056 0b3d CE080000 		.4byte	0x8ce
 2057 0b41 18       		.byte	0x18
 2058 0b42 07       		.uleb128 0x7
 2059 0b43 F6000000 		.4byte	.LASF163
ARM GAS  /var/folders/c6/c789hm653lg9vtl73krp73tm0000gn/T//ccwnu7lN.s 			page 67


 2060 0b47 13       		.byte	0x13
 2061 0b48 6E       		.byte	0x6e
 2062 0b49 F2080000 		.4byte	0x8f2
 2063 0b4d 1C       		.byte	0x1c
 2064 0b4e 00       		.byte	0
 2065 0b4f 0A       		.uleb128 0xa
 2066 0b50 04       		.byte	0x4
 2067 0b51 550B0000 		.4byte	0xb55
 2068 0b55 16       		.uleb128 0x16
 2069 0b56 E20A0000 		.4byte	0xae2
 2070 0b5a 17       		.uleb128 0x17
 2071 0b5b AD000000 		.4byte	0xad
 2072 0b5f 6A0B0000 		.4byte	0xb6a
 2073 0b63 18       		.uleb128 0x18
 2074 0b64 72040000 		.4byte	0x472
 2075 0b68 0F       		.byte	0xf
 2076 0b69 00       		.byte	0
 2077 0b6a 0A       		.uleb128 0xa
 2078 0b6b 04       		.byte	0x4
 2079 0b6c DC040000 		.4byte	0x4dc
 2080 0b70 17       		.uleb128 0x17
 2081 0b71 F3040000 		.4byte	0x4f3
 2082 0b75 800B0000 		.4byte	0xb80
 2083 0b79 18       		.uleb128 0x18
 2084 0b7a 72040000 		.4byte	0x472
 2085 0b7e 28       		.byte	0x28
 2086 0b7f 00       		.byte	0
 2087 0b80 1D       		.uleb128 0x1d
 2088 0b81 C6070000 		.4byte	.LASF173
 2089 0b85 02       		.byte	0x2
 2090 0b86 84       		.byte	0x84
 2091 0b87 03       		.byte	0x3
 2092 0b88 980B0000 		.4byte	0xb98
 2093 0b8c 1E       		.uleb128 0x1e
 2094 0b8d 59020000 		.4byte	.LASF174
 2095 0b91 02       		.byte	0x2
 2096 0b92 84       		.byte	0x84
 2097 0b93 7D060000 		.4byte	0x67d
 2098 0b97 00       		.byte	0
 2099 0b98 1F       		.uleb128 0x1f
 2100 0b99 04030000 		.4byte	.LASF175
 2101 0b9d 01       		.byte	0x1
 2102 0b9e 1A       		.byte	0x1a
 2103 0b9f 00000000 		.4byte	.LFB260
 2104 0ba3 34000000 		.4byte	.LFE260-.LFB260
 2105 0ba7 01       		.uleb128 0x1
 2106 0ba8 9C       		.byte	0x9c
 2107 0ba9 030C0000 		.4byte	0xc03
 2108 0bad 20       		.uleb128 0x20
 2109 0bae 61726700 		.ascii	"arg\000"
 2110 0bb2 01       		.byte	0x1
 2111 0bb3 1A       		.byte	0x1a
 2112 0bb4 3C030000 		.4byte	0x33c
 2113 0bb8 00000000 		.4byte	.LLST0
 2114 0bbc 21       		.uleb128 0x21
 2115 0bbd 800B0000 		.4byte	0xb80
 2116 0bc1 02000000 		.4byte	.LBB4
ARM GAS  /var/folders/c6/c789hm653lg9vtl73krp73tm0000gn/T//ccwnu7lN.s 			page 68


 2117 0bc5 00000000 		.4byte	.Ldebug_ranges0+0
 2118 0bc9 01       		.byte	0x1
 2119 0bca 1D       		.byte	0x1d
 2120 0bcb DC0B0000 		.4byte	0xbdc
 2121 0bcf 22       		.uleb128 0x22
 2122 0bd0 8C0B0000 		.4byte	0xb8c
 2123 0bd4 06       		.uleb128 0x6
 2124 0bd5 03       		.byte	0x3
 2125 0bd6 00000000 		.4byte	.LC0
 2126 0bda 9F       		.byte	0x9f
 2127 0bdb 00       		.byte	0
 2128 0bdc 23       		.uleb128 0x23
 2129 0bdd 1C000000 		.4byte	.LVL2
 2130 0be1 070D0000 		.4byte	0xd07
 2131 0be5 F10B0000 		.4byte	0xbf1
 2132 0be9 24       		.uleb128 0x24
 2133 0bea 01       		.uleb128 0x1
 2134 0beb 50       		.byte	0x50
 2135 0bec 03       		.uleb128 0x3
 2136 0bed 0A       		.byte	0xa
 2137 0bee 8813     		.2byte	0x1388
 2138 0bf0 00       		.byte	0
 2139 0bf1 25       		.uleb128 0x25
 2140 0bf2 26000000 		.4byte	.LVL3
 2141 0bf6 070D0000 		.4byte	0xd07
 2142 0bfa 24       		.uleb128 0x24
 2143 0bfb 01       		.uleb128 0x1
 2144 0bfc 50       		.byte	0x50
 2145 0bfd 03       		.uleb128 0x3
 2146 0bfe 0A       		.byte	0xa
 2147 0bff 8813     		.2byte	0x1388
 2148 0c01 00       		.byte	0
 2149 0c02 00       		.byte	0
 2150 0c03 26       		.uleb128 0x26
 2151 0c04 C1070000 		.4byte	.LASF176
 2152 0c08 01       		.byte	0x1
 2153 0c09 29       		.byte	0x29
 2154 0c0a 25000000 		.4byte	0x25
 2155 0c0e 00000000 		.4byte	.LFB261
 2156 0c12 68000000 		.4byte	.LFE261-.LFB261
 2157 0c16 01       		.uleb128 0x1
 2158 0c17 9C       		.byte	0x9c
 2159 0c18 D30C0000 		.4byte	0xcd3
 2160 0c1c 27       		.uleb128 0x27
 2161 0c1d 0A000000 		.4byte	.LVL4
 2162 0c21 180D0000 		.4byte	0xd18
 2163 0c25 27       		.uleb128 0x27
 2164 0c26 0E000000 		.4byte	.LVL5
 2165 0c2a 1F0D0000 		.4byte	0xd1f
 2166 0c2e 23       		.uleb128 0x23
 2167 0c2f 16000000 		.4byte	.LVL6
 2168 0c33 270D0000 		.4byte	0xd27
 2169 0c37 410C0000 		.4byte	0xc41
 2170 0c3b 24       		.uleb128 0x24
 2171 0c3c 01       		.uleb128 0x1
 2172 0c3d 51       		.byte	0x51
 2173 0c3e 01       		.uleb128 0x1
ARM GAS  /var/folders/c6/c789hm653lg9vtl73krp73tm0000gn/T//ccwnu7lN.s 			page 69


 2174 0c3f 30       		.byte	0x30
 2175 0c40 00       		.byte	0
 2176 0c41 23       		.uleb128 0x23
 2177 0c42 22000000 		.4byte	.LVL7
 2178 0c46 4F0D0000 		.4byte	0xd4f
 2179 0c4a 610C0000 		.4byte	0xc61
 2180 0c4e 24       		.uleb128 0x24
 2181 0c4f 01       		.uleb128 0x1
 2182 0c50 52       		.byte	0x52
 2183 0c51 03       		.uleb128 0x3
 2184 0c52 0A       		.byte	0xa
 2185 0c53 8203     		.2byte	0x382
 2186 0c55 24       		.uleb128 0x24
 2187 0c56 01       		.uleb128 0x1
 2188 0c57 51       		.byte	0x51
 2189 0c58 01       		.uleb128 0x1
 2190 0c59 34       		.byte	0x34
 2191 0c5a 24       		.uleb128 0x24
 2192 0c5b 01       		.uleb128 0x1
 2193 0c5c 50       		.byte	0x50
 2194 0c5d 02       		.uleb128 0x2
 2195 0c5e 74       		.byte	0x74
 2196 0c5f 00       		.sleb128 0
 2197 0c60 00       		.byte	0
 2198 0c61 23       		.uleb128 0x23
 2199 0c62 2E000000 		.4byte	.LVL8
 2200 0c66 4F0D0000 		.4byte	0xd4f
 2201 0c6a 810C0000 		.4byte	0xc81
 2202 0c6e 24       		.uleb128 0x24
 2203 0c6f 01       		.uleb128 0x1
 2204 0c70 52       		.byte	0x52
 2205 0c71 03       		.uleb128 0x3
 2206 0c72 0A       		.byte	0xa
 2207 0c73 8203     		.2byte	0x382
 2208 0c75 24       		.uleb128 0x24
 2209 0c76 01       		.uleb128 0x1
 2210 0c77 51       		.byte	0x51
 2211 0c78 01       		.uleb128 0x1
 2212 0c79 38       		.byte	0x38
 2213 0c7a 24       		.uleb128 0x24
 2214 0c7b 01       		.uleb128 0x1
 2215 0c7c 50       		.byte	0x50
 2216 0c7d 02       		.uleb128 0x2
 2217 0c7e 74       		.byte	0x74
 2218 0c7f 00       		.sleb128 0
 2219 0c80 00       		.byte	0
 2220 0c81 23       		.uleb128 0x23
 2221 0c82 40000000 		.4byte	.LVL9
 2222 0c86 6B0D0000 		.4byte	0xd6b
 2223 0c8a B40C0000 		.4byte	0xcb4
 2224 0c8e 24       		.uleb128 0x24
 2225 0c8f 01       		.uleb128 0x1
 2226 0c90 53       		.byte	0x53
 2227 0c91 05       		.uleb128 0x5
 2228 0c92 03       		.byte	0x3
 2229 0c93 00000000 		.4byte	Thread1
 2230 0c97 24       		.uleb128 0x24
ARM GAS  /var/folders/c6/c789hm653lg9vtl73krp73tm0000gn/T//ccwnu7lN.s 			page 70


 2231 0c98 01       		.uleb128 0x1
 2232 0c99 52       		.byte	0x52
 2233 0c9a 02       		.uleb128 0x2
 2234 0c9b 08       		.byte	0x8
 2235 0c9c 40       		.byte	0x40
 2236 0c9d 24       		.uleb128 0x24
 2237 0c9e 01       		.uleb128 0x1
 2238 0c9f 51       		.byte	0x51
 2239 0ca0 03       		.uleb128 0x3
 2240 0ca1 0A       		.byte	0xa
 2241 0ca2 4801     		.2byte	0x148
 2242 0ca4 24       		.uleb128 0x24
 2243 0ca5 01       		.uleb128 0x1
 2244 0ca6 50       		.byte	0x50
 2245 0ca7 05       		.uleb128 0x5
 2246 0ca8 03       		.byte	0x3
 2247 0ca9 00000000 		.4byte	.LANCHOR0
 2248 0cad 24       		.uleb128 0x24
 2249 0cae 02       		.uleb128 0x2
 2250 0caf 7D       		.byte	0x7d
 2251 0cb0 00       		.sleb128 0
 2252 0cb1 01       		.uleb128 0x1
 2253 0cb2 30       		.byte	0x30
 2254 0cb3 00       		.byte	0
 2255 0cb4 23       		.uleb128 0x23
 2256 0cb5 4A000000 		.4byte	.LVL10
 2257 0cb9 070D0000 		.4byte	0xd07
 2258 0cbd C90C0000 		.4byte	0xcc9
 2259 0cc1 24       		.uleb128 0x24
 2260 0cc2 01       		.uleb128 0x1
 2261 0cc3 50       		.byte	0x50
 2262 0cc4 03       		.uleb128 0x3
 2263 0cc5 0A       		.byte	0xa
 2264 0cc6 8813     		.2byte	0x1388
 2265 0cc8 00       		.byte	0
 2266 0cc9 27       		.uleb128 0x27
 2267 0cca 56000000 		.4byte	.LVL11
 2268 0cce 940D0000 		.4byte	0xd94
 2269 0cd2 00       		.byte	0
 2270 0cd3 28       		.uleb128 0x28
 2271 0cd4 00040000 		.4byte	.LASF177
 2272 0cd8 01       		.byte	0x1
 2273 0cd9 19       		.byte	0x19
 2274 0cda 700B0000 		.4byte	0xb70
 2275 0cde 05       		.uleb128 0x5
 2276 0cdf 03       		.byte	0x3
 2277 0ce0 00000000 		.4byte	waThread1
 2278 0ce4 29       		.uleb128 0x29
 2279 0ce5 BC000000 		.4byte	.LASF164
 2280 0ce9 17       		.byte	0x17
 2281 0cea A706     		.2byte	0x6a7
 2282 0cec E4000000 		.4byte	0xe4
 2283 0cf0 2A       		.uleb128 0x2a
 2284 0cf1 636800   		.ascii	"ch\000"
 2285 0cf4 08       		.byte	0x8
 2286 0cf5 0902     		.2byte	0x209
 2287 0cf7 0B040000 		.4byte	0x40b
ARM GAS  /var/folders/c6/c789hm653lg9vtl73krp73tm0000gn/T//ccwnu7lN.s 			page 71


 2288 0cfb 2A       		.uleb128 0x2a
 2289 0cfc 53443200 		.ascii	"SD2\000"
 2290 0d00 14       		.byte	0x14
 2291 0d01 1201     		.2byte	0x112
 2292 0d03 280A0000 		.4byte	0xa28
 2293 0d07 2B       		.uleb128 0x2b
 2294 0d08 C9030000 		.4byte	.LASF167
 2295 0d0c 0F       		.byte	0xf
 2296 0d0d 96       		.byte	0x96
 2297 0d0e 180D0000 		.4byte	0xd18
 2298 0d12 0D       		.uleb128 0xd
 2299 0d13 51010000 		.4byte	0x151
 2300 0d17 00       		.byte	0
 2301 0d18 2C       		.uleb128 0x2c
 2302 0d19 4C020000 		.4byte	.LASF165
 2303 0d1d 15       		.byte	0x15
 2304 0d1e 99       		.byte	0x99
 2305 0d1f 2D       		.uleb128 0x2d
 2306 0d20 25010000 		.4byte	.LASF166
 2307 0d24 16       		.byte	0x16
 2308 0d25 1501     		.2byte	0x115
 2309 0d27 2E       		.uleb128 0x2e
 2310 0d28 AA050000 		.4byte	.LASF168
 2311 0d2c 13       		.byte	0x13
 2312 0d2d 2801     		.2byte	0x128
 2313 0d2f 3E0D0000 		.4byte	0xd3e
 2314 0d33 0D       		.uleb128 0xd
 2315 0d34 3E0D0000 		.4byte	0xd3e
 2316 0d38 0D       		.uleb128 0xd
 2317 0d39 440D0000 		.4byte	0xd44
 2318 0d3d 00       		.byte	0
 2319 0d3e 0A       		.uleb128 0xa
 2320 0d3f 04       		.byte	0x4
 2321 0d40 280A0000 		.4byte	0xa28
 2322 0d44 0A       		.uleb128 0xa
 2323 0d45 04       		.byte	0x4
 2324 0d46 4A0D0000 		.4byte	0xd4a
 2325 0d4a 16       		.uleb128 0x16
 2326 0d4b D70A0000 		.4byte	0xad7
 2327 0d4f 2E       		.uleb128 0x2e
 2328 0d50 2B060000 		.4byte	.LASF169
 2329 0d54 12       		.byte	0x12
 2330 0d55 E001     		.2byte	0x1e0
 2331 0d57 6B0D0000 		.4byte	0xd6b
 2332 0d5b 0D       		.uleb128 0xd
 2333 0d5c F0090000 		.4byte	0x9f0
 2334 0d60 0D       		.uleb128 0xd
 2335 0d61 D8090000 		.4byte	0x9d8
 2336 0d65 0D       		.uleb128 0xd
 2337 0d66 E4090000 		.4byte	0x9e4
 2338 0d6a 00       		.byte	0
 2339 0d6b 2F       		.uleb128 0x2f
 2340 0d6c 0C030000 		.4byte	.LASF178
 2341 0d70 0F       		.byte	0xf
 2342 0d71 89       		.byte	0x89
 2343 0d72 5F020000 		.4byte	0x25f
 2344 0d76 940D0000 		.4byte	0xd94
ARM GAS  /var/folders/c6/c789hm653lg9vtl73krp73tm0000gn/T//ccwnu7lN.s 			page 72


 2345 0d7a 0D       		.uleb128 0xd
 2346 0d7b 3C030000 		.4byte	0x33c
 2347 0d7f 0D       		.uleb128 0xd
 2348 0d80 2C000000 		.4byte	0x2c
 2349 0d84 0D       		.uleb128 0xd
 2350 0d85 1A010000 		.4byte	0x11a
 2351 0d89 0D       		.uleb128 0xd
 2352 0d8a AA060000 		.4byte	0x6aa
 2353 0d8e 0D       		.uleb128 0xd
 2354 0d8f 3C030000 		.4byte	0x33c
 2355 0d93 00       		.byte	0
 2356 0d94 30       		.uleb128 0x30
 2357 0d95 65040000 		.4byte	.LASF179
 2358 0d99 18       		.byte	0x18
 2359 0d9a 54       		.byte	0x54
 2360 0d9b 0D       		.uleb128 0xd
 2361 0d9c 3C030000 		.4byte	0x33c
 2362 0da0 00       		.byte	0
 2363 0da1 00       		.byte	0
 2364              		.section	.debug_abbrev,"",%progbits
 2365              	.Ldebug_abbrev0:
 2366 0000 01       		.uleb128 0x1
 2367 0001 11       		.uleb128 0x11
 2368 0002 01       		.byte	0x1
 2369 0003 25       		.uleb128 0x25
 2370 0004 0E       		.uleb128 0xe
 2371 0005 13       		.uleb128 0x13
 2372 0006 0B       		.uleb128 0xb
 2373 0007 03       		.uleb128 0x3
 2374 0008 0E       		.uleb128 0xe
 2375 0009 1B       		.uleb128 0x1b
 2376 000a 0E       		.uleb128 0xe
 2377 000b 55       		.uleb128 0x55
 2378 000c 17       		.uleb128 0x17
 2379 000d 11       		.uleb128 0x11
 2380 000e 01       		.uleb128 0x1
 2381 000f 10       		.uleb128 0x10
 2382 0010 17       		.uleb128 0x17
 2383 0011 00       		.byte	0
 2384 0012 00       		.byte	0
 2385 0013 02       		.uleb128 0x2
 2386 0014 24       		.uleb128 0x24
 2387 0015 00       		.byte	0
 2388 0016 0B       		.uleb128 0xb
 2389 0017 0B       		.uleb128 0xb
 2390 0018 3E       		.uleb128 0x3e
 2391 0019 0B       		.uleb128 0xb
 2392 001a 03       		.uleb128 0x3
 2393 001b 08       		.uleb128 0x8
 2394 001c 00       		.byte	0
 2395 001d 00       		.byte	0
 2396 001e 03       		.uleb128 0x3
 2397 001f 16       		.uleb128 0x16
 2398 0020 00       		.byte	0
 2399 0021 03       		.uleb128 0x3
 2400 0022 0E       		.uleb128 0xe
 2401 0023 3A       		.uleb128 0x3a
ARM GAS  /var/folders/c6/c789hm653lg9vtl73krp73tm0000gn/T//ccwnu7lN.s 			page 73


 2402 0024 0B       		.uleb128 0xb
 2403 0025 3B       		.uleb128 0x3b
 2404 0026 0B       		.uleb128 0xb
 2405 0027 49       		.uleb128 0x49
 2406 0028 13       		.uleb128 0x13
 2407 0029 00       		.byte	0
 2408 002a 00       		.byte	0
 2409 002b 04       		.uleb128 0x4
 2410 002c 24       		.uleb128 0x24
 2411 002d 00       		.byte	0
 2412 002e 0B       		.uleb128 0xb
 2413 002f 0B       		.uleb128 0xb
 2414 0030 3E       		.uleb128 0x3e
 2415 0031 0B       		.uleb128 0xb
 2416 0032 03       		.uleb128 0x3
 2417 0033 0E       		.uleb128 0xe
 2418 0034 00       		.byte	0
 2419 0035 00       		.byte	0
 2420 0036 05       		.uleb128 0x5
 2421 0037 35       		.uleb128 0x35
 2422 0038 00       		.byte	0
 2423 0039 49       		.uleb128 0x49
 2424 003a 13       		.uleb128 0x13
 2425 003b 00       		.byte	0
 2426 003c 00       		.byte	0
 2427 003d 06       		.uleb128 0x6
 2428 003e 13       		.uleb128 0x13
 2429 003f 01       		.byte	0x1
 2430 0040 03       		.uleb128 0x3
 2431 0041 0E       		.uleb128 0xe
 2432 0042 0B       		.uleb128 0xb
 2433 0043 0B       		.uleb128 0xb
 2434 0044 3A       		.uleb128 0x3a
 2435 0045 0B       		.uleb128 0xb
 2436 0046 3B       		.uleb128 0x3b
 2437 0047 0B       		.uleb128 0xb
 2438 0048 01       		.uleb128 0x1
 2439 0049 13       		.uleb128 0x13
 2440 004a 00       		.byte	0
 2441 004b 00       		.byte	0
 2442 004c 07       		.uleb128 0x7
 2443 004d 0D       		.uleb128 0xd
 2444 004e 00       		.byte	0
 2445 004f 03       		.uleb128 0x3
 2446 0050 0E       		.uleb128 0xe
 2447 0051 3A       		.uleb128 0x3a
 2448 0052 0B       		.uleb128 0xb
 2449 0053 3B       		.uleb128 0x3b
 2450 0054 0B       		.uleb128 0xb
 2451 0055 49       		.uleb128 0x49
 2452 0056 13       		.uleb128 0x13
 2453 0057 38       		.uleb128 0x38
 2454 0058 0B       		.uleb128 0xb
 2455 0059 00       		.byte	0
 2456 005a 00       		.byte	0
 2457 005b 08       		.uleb128 0x8
 2458 005c 0D       		.uleb128 0xd
ARM GAS  /var/folders/c6/c789hm653lg9vtl73krp73tm0000gn/T//ccwnu7lN.s 			page 74


 2459 005d 00       		.byte	0
 2460 005e 03       		.uleb128 0x3
 2461 005f 08       		.uleb128 0x8
 2462 0060 3A       		.uleb128 0x3a
 2463 0061 0B       		.uleb128 0xb
 2464 0062 3B       		.uleb128 0x3b
 2465 0063 05       		.uleb128 0x5
 2466 0064 49       		.uleb128 0x49
 2467 0065 13       		.uleb128 0x13
 2468 0066 38       		.uleb128 0x38
 2469 0067 0B       		.uleb128 0xb
 2470 0068 00       		.byte	0
 2471 0069 00       		.byte	0
 2472 006a 09       		.uleb128 0x9
 2473 006b 0D       		.uleb128 0xd
 2474 006c 00       		.byte	0
 2475 006d 03       		.uleb128 0x3
 2476 006e 0E       		.uleb128 0xe
 2477 006f 3A       		.uleb128 0x3a
 2478 0070 0B       		.uleb128 0xb
 2479 0071 3B       		.uleb128 0x3b
 2480 0072 05       		.uleb128 0x5
 2481 0073 49       		.uleb128 0x49
 2482 0074 13       		.uleb128 0x13
 2483 0075 38       		.uleb128 0x38
 2484 0076 0B       		.uleb128 0xb
 2485 0077 00       		.byte	0
 2486 0078 00       		.byte	0
 2487 0079 0A       		.uleb128 0xa
 2488 007a 0F       		.uleb128 0xf
 2489 007b 00       		.byte	0
 2490 007c 0B       		.uleb128 0xb
 2491 007d 0B       		.uleb128 0xb
 2492 007e 49       		.uleb128 0x49
 2493 007f 13       		.uleb128 0x13
 2494 0080 00       		.byte	0
 2495 0081 00       		.byte	0
 2496 0082 0B       		.uleb128 0xb
 2497 0083 13       		.uleb128 0x13
 2498 0084 01       		.byte	0x1
 2499 0085 03       		.uleb128 0x3
 2500 0086 0E       		.uleb128 0xe
 2501 0087 0B       		.uleb128 0xb
 2502 0088 0B       		.uleb128 0xb
 2503 0089 3A       		.uleb128 0x3a
 2504 008a 0B       		.uleb128 0xb
 2505 008b 3B       		.uleb128 0x3b
 2506 008c 05       		.uleb128 0x5
 2507 008d 01       		.uleb128 0x1
 2508 008e 13       		.uleb128 0x13
 2509 008f 00       		.byte	0
 2510 0090 00       		.byte	0
 2511 0091 0C       		.uleb128 0xc
 2512 0092 15       		.uleb128 0x15
 2513 0093 01       		.byte	0x1
 2514 0094 27       		.uleb128 0x27
 2515 0095 19       		.uleb128 0x19
ARM GAS  /var/folders/c6/c789hm653lg9vtl73krp73tm0000gn/T//ccwnu7lN.s 			page 75


 2516 0096 01       		.uleb128 0x1
 2517 0097 13       		.uleb128 0x13
 2518 0098 00       		.byte	0
 2519 0099 00       		.byte	0
 2520 009a 0D       		.uleb128 0xd
 2521 009b 05       		.uleb128 0x5
 2522 009c 00       		.byte	0
 2523 009d 49       		.uleb128 0x49
 2524 009e 13       		.uleb128 0x13
 2525 009f 00       		.byte	0
 2526 00a0 00       		.byte	0
 2527 00a1 0E       		.uleb128 0xe
 2528 00a2 0F       		.uleb128 0xf
 2529 00a3 00       		.byte	0
 2530 00a4 0B       		.uleb128 0xb
 2531 00a5 0B       		.uleb128 0xb
 2532 00a6 00       		.byte	0
 2533 00a7 00       		.byte	0
 2534 00a8 0F       		.uleb128 0xf
 2535 00a9 13       		.uleb128 0x13
 2536 00aa 01       		.byte	0x1
 2537 00ab 03       		.uleb128 0x3
 2538 00ac 0E       		.uleb128 0xe
 2539 00ad 0B       		.uleb128 0xb
 2540 00ae 05       		.uleb128 0x5
 2541 00af 3A       		.uleb128 0x3a
 2542 00b0 0B       		.uleb128 0xb
 2543 00b1 3B       		.uleb128 0x3b
 2544 00b2 05       		.uleb128 0x5
 2545 00b3 01       		.uleb128 0x1
 2546 00b4 13       		.uleb128 0x13
 2547 00b5 00       		.byte	0
 2548 00b6 00       		.byte	0
 2549 00b7 10       		.uleb128 0x10
 2550 00b8 13       		.uleb128 0x13
 2551 00b9 01       		.byte	0x1
 2552 00ba 0B       		.uleb128 0xb
 2553 00bb 0B       		.uleb128 0xb
 2554 00bc 3A       		.uleb128 0x3a
 2555 00bd 0B       		.uleb128 0xb
 2556 00be 3B       		.uleb128 0x3b
 2557 00bf 05       		.uleb128 0x5
 2558 00c0 01       		.uleb128 0x1
 2559 00c1 13       		.uleb128 0x13
 2560 00c2 00       		.byte	0
 2561 00c3 00       		.byte	0
 2562 00c4 11       		.uleb128 0x11
 2563 00c5 16       		.uleb128 0x16
 2564 00c6 00       		.byte	0
 2565 00c7 03       		.uleb128 0x3
 2566 00c8 0E       		.uleb128 0xe
 2567 00c9 3A       		.uleb128 0x3a
 2568 00ca 0B       		.uleb128 0xb
 2569 00cb 3B       		.uleb128 0x3b
 2570 00cc 05       		.uleb128 0x5
 2571 00cd 49       		.uleb128 0x49
 2572 00ce 13       		.uleb128 0x13
ARM GAS  /var/folders/c6/c789hm653lg9vtl73krp73tm0000gn/T//ccwnu7lN.s 			page 76


 2573 00cf 00       		.byte	0
 2574 00d0 00       		.byte	0
 2575 00d1 12       		.uleb128 0x12
 2576 00d2 0D       		.uleb128 0xd
 2577 00d3 00       		.byte	0
 2578 00d4 03       		.uleb128 0x3
 2579 00d5 08       		.uleb128 0x8
 2580 00d6 3A       		.uleb128 0x3a
 2581 00d7 0B       		.uleb128 0xb
 2582 00d8 3B       		.uleb128 0x3b
 2583 00d9 0B       		.uleb128 0xb
 2584 00da 49       		.uleb128 0x49
 2585 00db 13       		.uleb128 0x13
 2586 00dc 38       		.uleb128 0x38
 2587 00dd 0B       		.uleb128 0xb
 2588 00de 00       		.byte	0
 2589 00df 00       		.byte	0
 2590 00e0 13       		.uleb128 0x13
 2591 00e1 13       		.uleb128 0x13
 2592 00e2 01       		.byte	0x1
 2593 00e3 0B       		.uleb128 0xb
 2594 00e4 0B       		.uleb128 0xb
 2595 00e5 3A       		.uleb128 0x3a
 2596 00e6 0B       		.uleb128 0xb
 2597 00e7 3B       		.uleb128 0x3b
 2598 00e8 0B       		.uleb128 0xb
 2599 00e9 01       		.uleb128 0x1
 2600 00ea 13       		.uleb128 0x13
 2601 00eb 00       		.byte	0
 2602 00ec 00       		.byte	0
 2603 00ed 14       		.uleb128 0x14
 2604 00ee 17       		.uleb128 0x17
 2605 00ef 01       		.byte	0x1
 2606 00f0 0B       		.uleb128 0xb
 2607 00f1 0B       		.uleb128 0xb
 2608 00f2 3A       		.uleb128 0x3a
 2609 00f3 0B       		.uleb128 0xb
 2610 00f4 3B       		.uleb128 0x3b
 2611 00f5 0B       		.uleb128 0xb
 2612 00f6 01       		.uleb128 0x1
 2613 00f7 13       		.uleb128 0x13
 2614 00f8 00       		.byte	0
 2615 00f9 00       		.byte	0
 2616 00fa 15       		.uleb128 0x15
 2617 00fb 0D       		.uleb128 0xd
 2618 00fc 00       		.byte	0
 2619 00fd 03       		.uleb128 0x3
 2620 00fe 0E       		.uleb128 0xe
 2621 00ff 3A       		.uleb128 0x3a
 2622 0100 0B       		.uleb128 0xb
 2623 0101 3B       		.uleb128 0x3b
 2624 0102 05       		.uleb128 0x5
 2625 0103 49       		.uleb128 0x49
 2626 0104 13       		.uleb128 0x13
 2627 0105 00       		.byte	0
 2628 0106 00       		.byte	0
 2629 0107 16       		.uleb128 0x16
ARM GAS  /var/folders/c6/c789hm653lg9vtl73krp73tm0000gn/T//ccwnu7lN.s 			page 77


 2630 0108 26       		.uleb128 0x26
 2631 0109 00       		.byte	0
 2632 010a 49       		.uleb128 0x49
 2633 010b 13       		.uleb128 0x13
 2634 010c 00       		.byte	0
 2635 010d 00       		.byte	0
 2636 010e 17       		.uleb128 0x17
 2637 010f 01       		.uleb128 0x1
 2638 0110 01       		.byte	0x1
 2639 0111 49       		.uleb128 0x49
 2640 0112 13       		.uleb128 0x13
 2641 0113 01       		.uleb128 0x1
 2642 0114 13       		.uleb128 0x13
 2643 0115 00       		.byte	0
 2644 0116 00       		.byte	0
 2645 0117 18       		.uleb128 0x18
 2646 0118 21       		.uleb128 0x21
 2647 0119 00       		.byte	0
 2648 011a 49       		.uleb128 0x49
 2649 011b 13       		.uleb128 0x13
 2650 011c 2F       		.uleb128 0x2f
 2651 011d 0B       		.uleb128 0xb
 2652 011e 00       		.byte	0
 2653 011f 00       		.byte	0
 2654 0120 19       		.uleb128 0x19
 2655 0121 15       		.uleb128 0x15
 2656 0122 01       		.byte	0x1
 2657 0123 27       		.uleb128 0x27
 2658 0124 19       		.uleb128 0x19
 2659 0125 49       		.uleb128 0x49
 2660 0126 13       		.uleb128 0x13
 2661 0127 01       		.uleb128 0x1
 2662 0128 13       		.uleb128 0x13
 2663 0129 00       		.byte	0
 2664 012a 00       		.byte	0
 2665 012b 1A       		.uleb128 0x1a
 2666 012c 0D       		.uleb128 0xd
 2667 012d 00       		.byte	0
 2668 012e 03       		.uleb128 0x3
 2669 012f 08       		.uleb128 0x8
 2670 0130 3A       		.uleb128 0x3a
 2671 0131 0B       		.uleb128 0xb
 2672 0132 3B       		.uleb128 0x3b
 2673 0133 0B       		.uleb128 0xb
 2674 0134 49       		.uleb128 0x49
 2675 0135 13       		.uleb128 0x13
 2676 0136 00       		.byte	0
 2677 0137 00       		.byte	0
 2678 0138 1B       		.uleb128 0x1b
 2679 0139 04       		.uleb128 0x4
 2680 013a 01       		.byte	0x1
 2681 013b 0B       		.uleb128 0xb
 2682 013c 0B       		.uleb128 0xb
 2683 013d 3A       		.uleb128 0x3a
 2684 013e 0B       		.uleb128 0xb
 2685 013f 3B       		.uleb128 0x3b
 2686 0140 0B       		.uleb128 0xb
ARM GAS  /var/folders/c6/c789hm653lg9vtl73krp73tm0000gn/T//ccwnu7lN.s 			page 78


 2687 0141 01       		.uleb128 0x1
 2688 0142 13       		.uleb128 0x13
 2689 0143 00       		.byte	0
 2690 0144 00       		.byte	0
 2691 0145 1C       		.uleb128 0x1c
 2692 0146 28       		.uleb128 0x28
 2693 0147 00       		.byte	0
 2694 0148 03       		.uleb128 0x3
 2695 0149 0E       		.uleb128 0xe
 2696 014a 1C       		.uleb128 0x1c
 2697 014b 0D       		.uleb128 0xd
 2698 014c 00       		.byte	0
 2699 014d 00       		.byte	0
 2700 014e 1D       		.uleb128 0x1d
 2701 014f 2E       		.uleb128 0x2e
 2702 0150 01       		.byte	0x1
 2703 0151 03       		.uleb128 0x3
 2704 0152 0E       		.uleb128 0xe
 2705 0153 3A       		.uleb128 0x3a
 2706 0154 0B       		.uleb128 0xb
 2707 0155 3B       		.uleb128 0x3b
 2708 0156 0B       		.uleb128 0xb
 2709 0157 27       		.uleb128 0x27
 2710 0158 19       		.uleb128 0x19
 2711 0159 20       		.uleb128 0x20
 2712 015a 0B       		.uleb128 0xb
 2713 015b 01       		.uleb128 0x1
 2714 015c 13       		.uleb128 0x13
 2715 015d 00       		.byte	0
 2716 015e 00       		.byte	0
 2717 015f 1E       		.uleb128 0x1e
 2718 0160 05       		.uleb128 0x5
 2719 0161 00       		.byte	0
 2720 0162 03       		.uleb128 0x3
 2721 0163 0E       		.uleb128 0xe
 2722 0164 3A       		.uleb128 0x3a
 2723 0165 0B       		.uleb128 0xb
 2724 0166 3B       		.uleb128 0x3b
 2725 0167 0B       		.uleb128 0xb
 2726 0168 49       		.uleb128 0x49
 2727 0169 13       		.uleb128 0x13
 2728 016a 00       		.byte	0
 2729 016b 00       		.byte	0
 2730 016c 1F       		.uleb128 0x1f
 2731 016d 2E       		.uleb128 0x2e
 2732 016e 01       		.byte	0x1
 2733 016f 03       		.uleb128 0x3
 2734 0170 0E       		.uleb128 0xe
 2735 0171 3A       		.uleb128 0x3a
 2736 0172 0B       		.uleb128 0xb
 2737 0173 3B       		.uleb128 0x3b
 2738 0174 0B       		.uleb128 0xb
 2739 0175 27       		.uleb128 0x27
 2740 0176 19       		.uleb128 0x19
 2741 0177 11       		.uleb128 0x11
 2742 0178 01       		.uleb128 0x1
 2743 0179 12       		.uleb128 0x12
ARM GAS  /var/folders/c6/c789hm653lg9vtl73krp73tm0000gn/T//ccwnu7lN.s 			page 79


 2744 017a 06       		.uleb128 0x6
 2745 017b 40       		.uleb128 0x40
 2746 017c 18       		.uleb128 0x18
 2747 017d 9742     		.uleb128 0x2117
 2748 017f 19       		.uleb128 0x19
 2749 0180 01       		.uleb128 0x1
 2750 0181 13       		.uleb128 0x13
 2751 0182 00       		.byte	0
 2752 0183 00       		.byte	0
 2753 0184 20       		.uleb128 0x20
 2754 0185 05       		.uleb128 0x5
 2755 0186 00       		.byte	0
 2756 0187 03       		.uleb128 0x3
 2757 0188 08       		.uleb128 0x8
 2758 0189 3A       		.uleb128 0x3a
 2759 018a 0B       		.uleb128 0xb
 2760 018b 3B       		.uleb128 0x3b
 2761 018c 0B       		.uleb128 0xb
 2762 018d 49       		.uleb128 0x49
 2763 018e 13       		.uleb128 0x13
 2764 018f 02       		.uleb128 0x2
 2765 0190 17       		.uleb128 0x17
 2766 0191 00       		.byte	0
 2767 0192 00       		.byte	0
 2768 0193 21       		.uleb128 0x21
 2769 0194 1D       		.uleb128 0x1d
 2770 0195 01       		.byte	0x1
 2771 0196 31       		.uleb128 0x31
 2772 0197 13       		.uleb128 0x13
 2773 0198 52       		.uleb128 0x52
 2774 0199 01       		.uleb128 0x1
 2775 019a 55       		.uleb128 0x55
 2776 019b 17       		.uleb128 0x17
 2777 019c 58       		.uleb128 0x58
 2778 019d 0B       		.uleb128 0xb
 2779 019e 59       		.uleb128 0x59
 2780 019f 0B       		.uleb128 0xb
 2781 01a0 01       		.uleb128 0x1
 2782 01a1 13       		.uleb128 0x13
 2783 01a2 00       		.byte	0
 2784 01a3 00       		.byte	0
 2785 01a4 22       		.uleb128 0x22
 2786 01a5 05       		.uleb128 0x5
 2787 01a6 00       		.byte	0
 2788 01a7 31       		.uleb128 0x31
 2789 01a8 13       		.uleb128 0x13
 2790 01a9 02       		.uleb128 0x2
 2791 01aa 18       		.uleb128 0x18
 2792 01ab 00       		.byte	0
 2793 01ac 00       		.byte	0
 2794 01ad 23       		.uleb128 0x23
 2795 01ae 898201   		.uleb128 0x4109
 2796 01b1 01       		.byte	0x1
 2797 01b2 11       		.uleb128 0x11
 2798 01b3 01       		.uleb128 0x1
 2799 01b4 31       		.uleb128 0x31
 2800 01b5 13       		.uleb128 0x13
ARM GAS  /var/folders/c6/c789hm653lg9vtl73krp73tm0000gn/T//ccwnu7lN.s 			page 80


 2801 01b6 01       		.uleb128 0x1
 2802 01b7 13       		.uleb128 0x13
 2803 01b8 00       		.byte	0
 2804 01b9 00       		.byte	0
 2805 01ba 24       		.uleb128 0x24
 2806 01bb 8A8201   		.uleb128 0x410a
 2807 01be 00       		.byte	0
 2808 01bf 02       		.uleb128 0x2
 2809 01c0 18       		.uleb128 0x18
 2810 01c1 9142     		.uleb128 0x2111
 2811 01c3 18       		.uleb128 0x18
 2812 01c4 00       		.byte	0
 2813 01c5 00       		.byte	0
 2814 01c6 25       		.uleb128 0x25
 2815 01c7 898201   		.uleb128 0x4109
 2816 01ca 01       		.byte	0x1
 2817 01cb 11       		.uleb128 0x11
 2818 01cc 01       		.uleb128 0x1
 2819 01cd 31       		.uleb128 0x31
 2820 01ce 13       		.uleb128 0x13
 2821 01cf 00       		.byte	0
 2822 01d0 00       		.byte	0
 2823 01d1 26       		.uleb128 0x26
 2824 01d2 2E       		.uleb128 0x2e
 2825 01d3 01       		.byte	0x1
 2826 01d4 3F       		.uleb128 0x3f
 2827 01d5 19       		.uleb128 0x19
 2828 01d6 03       		.uleb128 0x3
 2829 01d7 0E       		.uleb128 0xe
 2830 01d8 3A       		.uleb128 0x3a
 2831 01d9 0B       		.uleb128 0xb
 2832 01da 3B       		.uleb128 0x3b
 2833 01db 0B       		.uleb128 0xb
 2834 01dc 27       		.uleb128 0x27
 2835 01dd 19       		.uleb128 0x19
 2836 01de 49       		.uleb128 0x49
 2837 01df 13       		.uleb128 0x13
 2838 01e0 11       		.uleb128 0x11
 2839 01e1 01       		.uleb128 0x1
 2840 01e2 12       		.uleb128 0x12
 2841 01e3 06       		.uleb128 0x6
 2842 01e4 40       		.uleb128 0x40
 2843 01e5 18       		.uleb128 0x18
 2844 01e6 9742     		.uleb128 0x2117
 2845 01e8 19       		.uleb128 0x19
 2846 01e9 01       		.uleb128 0x1
 2847 01ea 13       		.uleb128 0x13
 2848 01eb 00       		.byte	0
 2849 01ec 00       		.byte	0
 2850 01ed 27       		.uleb128 0x27
 2851 01ee 898201   		.uleb128 0x4109
 2852 01f1 00       		.byte	0
 2853 01f2 11       		.uleb128 0x11
 2854 01f3 01       		.uleb128 0x1
 2855 01f4 31       		.uleb128 0x31
 2856 01f5 13       		.uleb128 0x13
 2857 01f6 00       		.byte	0
ARM GAS  /var/folders/c6/c789hm653lg9vtl73krp73tm0000gn/T//ccwnu7lN.s 			page 81


 2858 01f7 00       		.byte	0
 2859 01f8 28       		.uleb128 0x28
 2860 01f9 34       		.uleb128 0x34
 2861 01fa 00       		.byte	0
 2862 01fb 03       		.uleb128 0x3
 2863 01fc 0E       		.uleb128 0xe
 2864 01fd 3A       		.uleb128 0x3a
 2865 01fe 0B       		.uleb128 0xb
 2866 01ff 3B       		.uleb128 0x3b
 2867 0200 0B       		.uleb128 0xb
 2868 0201 49       		.uleb128 0x49
 2869 0202 13       		.uleb128 0x13
 2870 0203 02       		.uleb128 0x2
 2871 0204 18       		.uleb128 0x18
 2872 0205 00       		.byte	0
 2873 0206 00       		.byte	0
 2874 0207 29       		.uleb128 0x29
 2875 0208 34       		.uleb128 0x34
 2876 0209 00       		.byte	0
 2877 020a 03       		.uleb128 0x3
 2878 020b 0E       		.uleb128 0xe
 2879 020c 3A       		.uleb128 0x3a
 2880 020d 0B       		.uleb128 0xb
 2881 020e 3B       		.uleb128 0x3b
 2882 020f 05       		.uleb128 0x5
 2883 0210 49       		.uleb128 0x49
 2884 0211 13       		.uleb128 0x13
 2885 0212 3F       		.uleb128 0x3f
 2886 0213 19       		.uleb128 0x19
 2887 0214 3C       		.uleb128 0x3c
 2888 0215 19       		.uleb128 0x19
 2889 0216 00       		.byte	0
 2890 0217 00       		.byte	0
 2891 0218 2A       		.uleb128 0x2a
 2892 0219 34       		.uleb128 0x34
 2893 021a 00       		.byte	0
 2894 021b 03       		.uleb128 0x3
 2895 021c 08       		.uleb128 0x8
 2896 021d 3A       		.uleb128 0x3a
 2897 021e 0B       		.uleb128 0xb
 2898 021f 3B       		.uleb128 0x3b
 2899 0220 05       		.uleb128 0x5
 2900 0221 49       		.uleb128 0x49
 2901 0222 13       		.uleb128 0x13
 2902 0223 3F       		.uleb128 0x3f
 2903 0224 19       		.uleb128 0x19
 2904 0225 3C       		.uleb128 0x3c
 2905 0226 19       		.uleb128 0x19
 2906 0227 00       		.byte	0
 2907 0228 00       		.byte	0
 2908 0229 2B       		.uleb128 0x2b
 2909 022a 2E       		.uleb128 0x2e
 2910 022b 01       		.byte	0x1
 2911 022c 3F       		.uleb128 0x3f
 2912 022d 19       		.uleb128 0x19
 2913 022e 03       		.uleb128 0x3
 2914 022f 0E       		.uleb128 0xe
ARM GAS  /var/folders/c6/c789hm653lg9vtl73krp73tm0000gn/T//ccwnu7lN.s 			page 82


 2915 0230 3A       		.uleb128 0x3a
 2916 0231 0B       		.uleb128 0xb
 2917 0232 3B       		.uleb128 0x3b
 2918 0233 0B       		.uleb128 0xb
 2919 0234 27       		.uleb128 0x27
 2920 0235 19       		.uleb128 0x19
 2921 0236 3C       		.uleb128 0x3c
 2922 0237 19       		.uleb128 0x19
 2923 0238 01       		.uleb128 0x1
 2924 0239 13       		.uleb128 0x13
 2925 023a 00       		.byte	0
 2926 023b 00       		.byte	0
 2927 023c 2C       		.uleb128 0x2c
 2928 023d 2E       		.uleb128 0x2e
 2929 023e 00       		.byte	0
 2930 023f 3F       		.uleb128 0x3f
 2931 0240 19       		.uleb128 0x19
 2932 0241 03       		.uleb128 0x3
 2933 0242 0E       		.uleb128 0xe
 2934 0243 3A       		.uleb128 0x3a
 2935 0244 0B       		.uleb128 0xb
 2936 0245 3B       		.uleb128 0x3b
 2937 0246 0B       		.uleb128 0xb
 2938 0247 27       		.uleb128 0x27
 2939 0248 19       		.uleb128 0x19
 2940 0249 3C       		.uleb128 0x3c
 2941 024a 19       		.uleb128 0x19
 2942 024b 00       		.byte	0
 2943 024c 00       		.byte	0
 2944 024d 2D       		.uleb128 0x2d
 2945 024e 2E       		.uleb128 0x2e
 2946 024f 00       		.byte	0
 2947 0250 3F       		.uleb128 0x3f
 2948 0251 19       		.uleb128 0x19
 2949 0252 03       		.uleb128 0x3
 2950 0253 0E       		.uleb128 0xe
 2951 0254 3A       		.uleb128 0x3a
 2952 0255 0B       		.uleb128 0xb
 2953 0256 3B       		.uleb128 0x3b
 2954 0257 05       		.uleb128 0x5
 2955 0258 27       		.uleb128 0x27
 2956 0259 19       		.uleb128 0x19
 2957 025a 3C       		.uleb128 0x3c
 2958 025b 19       		.uleb128 0x19
 2959 025c 00       		.byte	0
 2960 025d 00       		.byte	0
 2961 025e 2E       		.uleb128 0x2e
 2962 025f 2E       		.uleb128 0x2e
 2963 0260 01       		.byte	0x1
 2964 0261 3F       		.uleb128 0x3f
 2965 0262 19       		.uleb128 0x19
 2966 0263 03       		.uleb128 0x3
 2967 0264 0E       		.uleb128 0xe
 2968 0265 3A       		.uleb128 0x3a
 2969 0266 0B       		.uleb128 0xb
 2970 0267 3B       		.uleb128 0x3b
 2971 0268 05       		.uleb128 0x5
ARM GAS  /var/folders/c6/c789hm653lg9vtl73krp73tm0000gn/T//ccwnu7lN.s 			page 83


 2972 0269 27       		.uleb128 0x27
 2973 026a 19       		.uleb128 0x19
 2974 026b 3C       		.uleb128 0x3c
 2975 026c 19       		.uleb128 0x19
 2976 026d 01       		.uleb128 0x1
 2977 026e 13       		.uleb128 0x13
 2978 026f 00       		.byte	0
 2979 0270 00       		.byte	0
 2980 0271 2F       		.uleb128 0x2f
 2981 0272 2E       		.uleb128 0x2e
 2982 0273 01       		.byte	0x1
 2983 0274 3F       		.uleb128 0x3f
 2984 0275 19       		.uleb128 0x19
 2985 0276 03       		.uleb128 0x3
 2986 0277 0E       		.uleb128 0xe
 2987 0278 3A       		.uleb128 0x3a
 2988 0279 0B       		.uleb128 0xb
 2989 027a 3B       		.uleb128 0x3b
 2990 027b 0B       		.uleb128 0xb
 2991 027c 27       		.uleb128 0x27
 2992 027d 19       		.uleb128 0x19
 2993 027e 49       		.uleb128 0x49
 2994 027f 13       		.uleb128 0x13
 2995 0280 3C       		.uleb128 0x3c
 2996 0281 19       		.uleb128 0x19
 2997 0282 01       		.uleb128 0x1
 2998 0283 13       		.uleb128 0x13
 2999 0284 00       		.byte	0
 3000 0285 00       		.byte	0
 3001 0286 30       		.uleb128 0x30
 3002 0287 2E       		.uleb128 0x2e
 3003 0288 01       		.byte	0x1
 3004 0289 3F       		.uleb128 0x3f
 3005 028a 19       		.uleb128 0x19
 3006 028b 03       		.uleb128 0x3
 3007 028c 0E       		.uleb128 0xe
 3008 028d 3A       		.uleb128 0x3a
 3009 028e 0B       		.uleb128 0xb
 3010 028f 3B       		.uleb128 0x3b
 3011 0290 0B       		.uleb128 0xb
 3012 0291 27       		.uleb128 0x27
 3013 0292 19       		.uleb128 0x19
 3014 0293 3C       		.uleb128 0x3c
 3015 0294 19       		.uleb128 0x19
 3016 0295 00       		.byte	0
 3017 0296 00       		.byte	0
 3018 0297 00       		.byte	0
 3019              		.section	.debug_loc,"",%progbits
 3020              	.Ldebug_loc0:
 3021              	.LLST0:
 3022 0000 00000000 		.4byte	.LVL0
 3023 0004 12000000 		.4byte	.LVL1
 3024 0008 0100     		.2byte	0x1
 3025 000a 50       		.byte	0x50
 3026 000b 12000000 		.4byte	.LVL1
 3027 000f 34000000 		.4byte	.LFE260
 3028 0013 0400     		.2byte	0x4
ARM GAS  /var/folders/c6/c789hm653lg9vtl73krp73tm0000gn/T//ccwnu7lN.s 			page 84


 3029 0015 F3       		.byte	0xf3
 3030 0016 01       		.uleb128 0x1
 3031 0017 50       		.byte	0x50
 3032 0018 9F       		.byte	0x9f
 3033 0019 00000000 		.4byte	0
 3034 001d 00000000 		.4byte	0
 3035              		.section	.debug_aranges,"",%progbits
 3036 0000 24000000 		.4byte	0x24
 3037 0004 0200     		.2byte	0x2
 3038 0006 00000000 		.4byte	.Ldebug_info0
 3039 000a 04       		.byte	0x4
 3040 000b 00       		.byte	0
 3041 000c 0000     		.2byte	0
 3042 000e 0000     		.2byte	0
 3043 0010 00000000 		.4byte	.LFB260
 3044 0014 34000000 		.4byte	.LFE260-.LFB260
 3045 0018 00000000 		.4byte	.LFB261
 3046 001c 68000000 		.4byte	.LFE261-.LFB261
 3047 0020 00000000 		.4byte	0
 3048 0024 00000000 		.4byte	0
 3049              		.section	.debug_ranges,"",%progbits
 3050              	.Ldebug_ranges0:
 3051 0000 02000000 		.4byte	.LBB4
 3052 0004 08000000 		.4byte	.LBE4
 3053 0008 0A000000 		.4byte	.LBB7
 3054 000c 0C000000 		.4byte	.LBE7
 3055 0010 00000000 		.4byte	0
 3056 0014 00000000 		.4byte	0
 3057 0018 00000000 		.4byte	.LFB260
 3058 001c 34000000 		.4byte	.LFE260
 3059 0020 00000000 		.4byte	.LFB261
 3060 0024 68000000 		.4byte	.LFE261
 3061 0028 00000000 		.4byte	0
 3062 002c 00000000 		.4byte	0
 3063              		.section	.debug_line,"",%progbits
 3064              	.Ldebug_line0:
 3065 0000 9F030000 		.section	.debug_str,"MS",%progbits,1
 3065      02003A03 
 3065      00000201 
 3065      FB0E0D00 
 3065      01010101 
 3066              	.LASF106:
 3067 0000 7466756E 		.ascii	"tfunc_t\000"
 3067      635F7400 
 3068              	.LASF54:
 3069 0008 72656164 		.ascii	"ready_list_t\000"
 3069      795F6C69 
 3069      73745F74 
 3069      00
 3070              	.LASF2:
 3071 0015 73697A65 		.ascii	"size_t\000"
 3071      5F7400
 3072              	.LASF91:
 3073 001c 7264796D 		.ascii	"rdymsg\000"
 3073      736700
 3074              	.LASF19:
 3075 0023 75696E74 		.ascii	"uint64_t\000"
ARM GAS  /var/folders/c6/c789hm653lg9vtl73krp73tm0000gn/T//ccwnu7lN.s 			page 85


 3075      36345F74 
 3075      00
 3076              	.LASF3:
 3077 002c 5F5F7569 		.ascii	"__uint8_t\000"
 3077      6E74385F 
 3077      7400
 3078              	.LASF134:
 3079 0036 4F545950 		.ascii	"OTYPER\000"
 3079      455200
 3080              	.LASF88:
 3081 003d 706F7274 		.ascii	"port_intctx\000"
 3081      5F696E74 
 3081      63747800 
 3082              	.LASF73:
 3083 0049 73797374 		.ascii	"system_debug_t\000"
 3083      656D5F64 
 3083      65627567 
 3083      5F7400
 3084              	.LASF142:
 3085 0058 696F706F 		.ascii	"ioportmask_t\000"
 3085      72746D61 
 3085      736B5F74 
 3085      00
 3086              	.LASF133:
 3087 0065 4D4F4445 		.ascii	"MODER\000"
 3087      5200
 3088              	.LASF14:
 3089 006b 6C6F6E67 		.ascii	"long long unsigned int\000"
 3089      206C6F6E 
 3089      6720756E 
 3089      7369676E 
 3089      65642069 
 3090              	.LASF136:
 3091 0082 50555044 		.ascii	"PUPDR\000"
 3091      5200
 3092              	.LASF92:
 3093 0088 65786974 		.ascii	"exitcode\000"
 3093      636F6465 
 3093      00
 3094              	.LASF80:
 3095 0091 6D61696E 		.ascii	"mainthread\000"
 3095      74687265 
 3095      616400
 3096              	.LASF8:
 3097 009c 5F5F696E 		.ascii	"__int32_t\000"
 3097      7433325F 
 3097      7400
 3098              	.LASF70:
 3099 00a6 76697274 		.ascii	"virtual_timers_list_t\000"
 3099      75616C5F 
 3099      74696D65 
 3099      72735F6C 
 3099      6973745F 
 3100              	.LASF164:
 3101 00bc 49544D5F 		.ascii	"ITM_RxBuffer\000"
 3101      52784275 
 3101      66666572 
ARM GAS  /var/folders/c6/c789hm653lg9vtl73krp73tm0000gn/T//ccwnu7lN.s 			page 86


 3101      00
 3102              	.LASF118:
 3103 00c9 696F5F71 		.ascii	"io_queue_t\000"
 3103      75657565 
 3103      5F7400
 3104              	.LASF53:
 3105 00d4 63685F74 		.ascii	"ch_threads_queue\000"
 3105      68726561 
 3105      64735F71 
 3105      75657565 
 3105      00
 3106              	.LASF61:
 3107 00e5 725F6375 		.ascii	"r_current\000"
 3107      7272656E 
 3107      7400
 3108              	.LASF33:
 3109 00ef 705F7072 		.ascii	"p_prio\000"
 3109      696F00
 3110              	.LASF163:
 3111 00f6 72656164 		.ascii	"readt\000"
 3111      7400
 3112              	.LASF120:
 3113 00fc 715F7761 		.ascii	"q_waiting\000"
 3113      6974696E 
 3113      6700
 3114              	.LASF12:
 3115 0106 6C6F6E67 		.ascii	"long long int\000"
 3115      206C6F6E 
 3115      6720696E 
 3115      7400
 3116              	.LASF1:
 3117 0114 7369676E 		.ascii	"signed char\000"
 3117      65642063 
 3117      68617200 
 3118              	.LASF137:
 3119 0120 42535252 		.ascii	"BSRR\000"
 3119      00
 3120              	.LASF166:
 3121 0125 63685379 		.ascii	"chSysInit\000"
 3121      73496E69 
 3121      7400
 3122              	.LASF83:
 3123 012f 47545052 		.ascii	"GTPR\000"
 3123      00
 3124              	.LASF47:
 3125 0134 705F6D70 		.ascii	"p_mpool\000"
 3125      6F6F6C00 
 3126              	.LASF102:
 3127 013c 6D5F7175 		.ascii	"m_queue\000"
 3127      65756500 
 3128              	.LASF79:
 3129 0144 76746C69 		.ascii	"vtlist\000"
 3129      737400
 3130              	.LASF151:
 3131 014b 73746174 		.ascii	"state\000"
 3131      6500
 3132              	.LASF77:
ARM GAS  /var/folders/c6/c789hm653lg9vtl73krp73tm0000gn/T//ccwnu7lN.s 			page 87


 3133 0151 63685F73 		.ascii	"ch_system\000"
 3133      79737465 
 3133      6D00
 3134              	.LASF9:
 3135 015b 6C6F6E67 		.ascii	"long int\000"
 3135      20696E74 
 3135      00
 3136              	.LASF22:
 3137 0164 74737461 		.ascii	"tstate_t\000"
 3137      74655F74 
 3137      00
 3138              	.LASF40:
 3139 016d 705F7265 		.ascii	"p_refs\000"
 3139      667300
 3140              	.LASF122:
 3141 0174 715F6275 		.ascii	"q_buffer\000"
 3141      66666572 
 3141      00
 3142              	.LASF124:
 3143 017d 715F7772 		.ascii	"q_wrptr\000"
 3143      70747200 
 3144              	.LASF127:
 3145 0185 715F6C69 		.ascii	"q_link\000"
 3145      6E6B00
 3146              	.LASF35:
 3147 018c 705F6E65 		.ascii	"p_newer\000"
 3147      77657200 
 3148              	.LASF99:
 3149 0194 735F7175 		.ascii	"s_queue\000"
 3149      65756500 
 3150              	.LASF135:
 3151 019c 4F535045 		.ascii	"OSPEEDR\000"
 3151      45445200 
 3152              	.LASF59:
 3153 01a4 725F6E65 		.ascii	"r_newer\000"
 3153      77657200 
 3154              	.LASF85:
 3155 01ac 72656761 		.ascii	"regarm_t\000"
 3155      726D5F74 
 3155      00
 3156              	.LASF66:
 3157 01b5 76745F70 		.ascii	"vt_prev\000"
 3157      72657600 
 3158              	.LASF141:
 3159 01bd 73746D33 		.ascii	"stm32_gpio_t\000"
 3159      325F6770 
 3159      696F5F74 
 3159      00
 3160              	.LASF107:
 3161 01ca 6D757465 		.ascii	"mutex_t\000"
 3161      785F7400 
 3162              	.LASF119:
 3163 01d2 696F5F71 		.ascii	"io_queue\000"
 3163      75657565 
 3163      00
 3164              	.LASF117:
 3165 01db 6576656E 		.ascii	"event_source_t\000"
ARM GAS  /var/folders/c6/c789hm653lg9vtl73krp73tm0000gn/T//ccwnu7lN.s 			page 88


 3165      745F736F 
 3165      75726365 
 3165      5F7400
 3166              	.LASF81:
 3167 01ea 69646C65 		.ascii	"idle_thread_wa\000"
 3167      5F746872 
 3167      6561645F 
 3167      776100
 3168              	.LASF28:
 3169 01f9 636E745F 		.ascii	"cnt_t\000"
 3169      7400
 3170              	.LASF154:
 3171 01ff 75736172 		.ascii	"usart\000"
 3171      7400
 3172              	.LASF0:
 3173 0205 756E7369 		.ascii	"unsigned int\000"
 3173      676E6564 
 3173      20696E74 
 3173      00
 3174              	.LASF65:
 3175 0212 76745F6E 		.ascii	"vt_next\000"
 3175      65787400 
 3176              	.LASF16:
 3177 021a 75696E74 		.ascii	"uint16_t\000"
 3177      31365F74 
 3177      00
 3178              	.LASF157:
 3179 0223 53657269 		.ascii	"SerialDriverVMT\000"
 3179      616C4472 
 3179      69766572 
 3179      564D5400 
 3180              	.LASF95:
 3181 0233 77747365 		.ascii	"wtsemp\000"
 3181      6D7000
 3182              	.LASF152:
 3183 023a 69717565 		.ascii	"iqueue\000"
 3183      756500
 3184              	.LASF42:
 3185 0241 705F6D73 		.ascii	"p_msgqueue\000"
 3185      67717565 
 3185      756500
 3186              	.LASF165:
 3187 024c 68616C49 		.ascii	"halInit\000"
 3187      6E697400 
 3188              	.LASF161:
 3189 0254 67657474 		.ascii	"gett\000"
 3189      00
 3190              	.LASF174:
 3191 0259 6E616D65 		.ascii	"name\000"
 3191      00
 3192              	.LASF100:
 3193 025e 735F636E 		.ascii	"s_cnt\000"
 3193      7400
 3194              	.LASF150:
 3195 0264 6576656E 		.ascii	"event\000"
 3195      7400
 3196              	.LASF7:
ARM GAS  /var/folders/c6/c789hm653lg9vtl73krp73tm0000gn/T//ccwnu7lN.s 			page 89


 3197 026a 73686F72 		.ascii	"short unsigned int\000"
 3197      7420756E 
 3197      7369676E 
 3197      65642069 
 3197      6E7400
 3198              	.LASF50:
 3199 027d 63685F74 		.ascii	"ch_thread\000"
 3199      68726561 
 3199      6400
 3200              	.LASF114:
 3201 0287 656C5F77 		.ascii	"el_wflags\000"
 3201      666C6167 
 3201      7300
 3202              	.LASF25:
 3203 0291 6D73675F 		.ascii	"msg_t\000"
 3203      7400
 3204              	.LASF153:
 3205 0297 6F717565 		.ascii	"oqueue\000"
 3205      756500
 3206              	.LASF110:
 3207 029e 656C5F6E 		.ascii	"el_next\000"
 3207      65787400 
 3208              	.LASF76:
 3209 02a6 63685F73 		.ascii	"ch_system_t\000"
 3209      79737465 
 3209      6D5F7400 
 3210              	.LASF84:
 3211 02b2 55534152 		.ascii	"USART_TypeDef\000"
 3211      545F5479 
 3211      70654465 
 3211      6600
 3212              	.LASF162:
 3213 02c0 77726974 		.ascii	"writet\000"
 3213      657400
 3214              	.LASF21:
 3215 02c7 746D6F64 		.ascii	"tmode_t\000"
 3215      655F7400 
 3216              	.LASF55:
 3217 02cf 63685F72 		.ascii	"ch_ready_list\000"
 3217      65616479 
 3217      5F6C6973 
 3217      7400
 3218              	.LASF26:
 3219 02dd 6576656E 		.ascii	"eventmask_t\000"
 3219      746D6173 
 3219      6B5F7400 
 3220              	.LASF155:
 3221 02e9 73706565 		.ascii	"speed\000"
 3221      6400
 3222              	.LASF128:
 3223 02ef 716E6F74 		.ascii	"qnotify_t\000"
 3223      6966795F 
 3223      7400
 3224              	.LASF86:
 3225 02f9 73746B61 		.ascii	"stkalign_t\000"
 3225      6C69676E 
 3225      5F7400
ARM GAS  /var/folders/c6/c789hm653lg9vtl73krp73tm0000gn/T//ccwnu7lN.s 			page 90


 3226              	.LASF175:
 3227 0304 54687265 		.ascii	"Thread1\000"
 3227      61643100 
 3228              	.LASF178:
 3229 030c 63685468 		.ascii	"chThdCreateStatic\000"
 3229      64437265 
 3229      61746553 
 3229      74617469 
 3229      6300
 3230              	.LASF158:
 3231 031e 77726974 		.ascii	"write\000"
 3231      6500
 3232              	.LASF129:
 3233 0324 696E7075 		.ascii	"input_queue_t\000"
 3233      745F7175 
 3233      6575655F 
 3233      7400
 3234              	.LASF160:
 3235 0332 70757474 		.ascii	"putt\000"
 3235      00
 3236              	.LASF130:
 3237 0337 6F757470 		.ascii	"output_queue_t\000"
 3237      75745F71 
 3237      75657565 
 3237      5F7400
 3238              	.LASF41:
 3239 0346 705F7761 		.ascii	"p_waiting\000"
 3239      6974696E 
 3239      6700
 3240              	.LASF82:
 3241 0350 73697A65 		.ascii	"sizetype\000"
 3241      74797065 
 3241      00
 3242              	.LASF48:
 3243 0359 74687265 		.ascii	"thread_reference_t\000"
 3243      61645F72 
 3243      65666572 
 3243      656E6365 
 3243      5F7400
 3244              	.LASF71:
 3245 036c 63685F76 		.ascii	"ch_virtual_timers_list\000"
 3245      69727475 
 3245      616C5F74 
 3245      696D6572 
 3245      735F6C69 
 3246              	.LASF132:
 3247 0383 636C6561 		.ascii	"clear\000"
 3247      7200
 3248              	.LASF94:
 3249 0389 77747472 		.ascii	"wttrp\000"
 3249      7000
 3250              	.LASF72:
 3251 038f 76745F6C 		.ascii	"vt_lasttime\000"
 3251      61737474 
 3251      696D6500 
 3252              	.LASF36:
 3253 039b 705F6F6C 		.ascii	"p_older\000"
ARM GAS  /var/folders/c6/c789hm653lg9vtl73krp73tm0000gn/T//ccwnu7lN.s 			page 91


 3253      64657200 
 3254              	.LASF58:
 3255 03a3 725F6374 		.ascii	"r_ctx\000"
 3255      7800
 3256              	.LASF90:
 3257 03a9 746D5F63 		.ascii	"tm_calibration_t\000"
 3257      616C6962 
 3257      72617469 
 3257      6F6E5F74 
 3257      00
 3258              	.LASF171:
 3259 03ba 6D61696E 		.ascii	"main.c\000"
 3259      2E6300
 3260              	.LASF60:
 3261 03c1 725F6F6C 		.ascii	"r_older\000"
 3261      64657200 
 3262              	.LASF167:
 3263 03c9 63685468 		.ascii	"chThdSleep\000"
 3263      64536C65 
 3263      657000
 3264              	.LASF112:
 3265 03d4 656C5F65 		.ascii	"el_events\000"
 3265      76656E74 
 3265      7300
 3266              	.LASF156:
 3267 03de 53657269 		.ascii	"SerialConfig\000"
 3267      616C436F 
 3267      6E666967 
 3267      00
 3268              	.LASF13:
 3269 03eb 5F5F7569 		.ascii	"__uint64_t\000"
 3269      6E743634 
 3269      5F7400
 3270              	.LASF140:
 3271 03f6 41465248 		.ascii	"AFRH\000"
 3271      00
 3272              	.LASF139:
 3273 03fb 4146524C 		.ascii	"AFRL\000"
 3273      00
 3274              	.LASF177:
 3275 0400 77615468 		.ascii	"waThread1\000"
 3275      72656164 
 3275      3100
 3276              	.LASF23:
 3277 040a 74726566 		.ascii	"trefs_t\000"
 3277      735F7400 
 3278              	.LASF63:
 3279 0412 76697274 		.ascii	"virtual_timer_t\000"
 3279      75616C5F 
 3279      74696D65 
 3279      725F7400 
 3280              	.LASF32:
 3281 0422 705F7072 		.ascii	"p_prev\000"
 3281      657600
 3282              	.LASF24:
 3283 0429 74707269 		.ascii	"tprio_t\000"
 3283      6F5F7400 
ARM GAS  /var/folders/c6/c789hm653lg9vtl73krp73tm0000gn/T//ccwnu7lN.s 			page 92


 3284              	.LASF125:
 3285 0431 715F7264 		.ascii	"q_rdptr\000"
 3285      70747200 
 3286              	.LASF74:
 3287 0439 63685F73 		.ascii	"ch_system_debug\000"
 3287      79737465 
 3287      6D5F6465 
 3287      62756700 
 3288              	.LASF131:
 3289 0449 5F426F6F 		.ascii	"_Bool\000"
 3289      6C00
 3290              	.LASF17:
 3291 044f 696E7433 		.ascii	"int32_t\000"
 3291      325F7400 
 3292              	.LASF4:
 3293 0457 756E7369 		.ascii	"unsigned char\000"
 3293      676E6564 
 3293      20636861 
 3293      7200
 3294              	.LASF179:
 3295 0465 54657374 		.ascii	"TestThread\000"
 3295      54687265 
 3295      616400
 3296              	.LASF111:
 3297 0470 656C5F6C 		.ascii	"el_listener\000"
 3297      69737465 
 3297      6E657200 
 3298              	.LASF113:
 3299 047c 656C5F66 		.ascii	"el_flags\000"
 3299      6C616773 
 3299      00
 3300              	.LASF45:
 3301 0485 705F6D74 		.ascii	"p_mtxlist\000"
 3301      786C6973 
 3301      7400
 3302              	.LASF5:
 3303 048f 73686F72 		.ascii	"short int\000"
 3303      7420696E 
 3303      7400
 3304              	.LASF38:
 3305 0499 705F7374 		.ascii	"p_state\000"
 3305      61746500 
 3306              	.LASF57:
 3307 04a1 725F7072 		.ascii	"r_prio\000"
 3307      696F00
 3308              	.LASF97:
 3309 04a8 65776D61 		.ascii	"ewmask\000"
 3309      736B00
 3310              	.LASF31:
 3311 04af 705F6E65 		.ascii	"p_next\000"
 3311      787400
 3312              	.LASF39:
 3313 04b6 705F666C 		.ascii	"p_flags\000"
 3313      61677300 
 3314              	.LASF37:
 3315 04be 705F6E61 		.ascii	"p_name\000"
 3315      6D6500
ARM GAS  /var/folders/c6/c789hm653lg9vtl73krp73tm0000gn/T//ccwnu7lN.s 			page 93


 3316              	.LASF146:
 3317 04c5 53445F53 		.ascii	"SD_STOP\000"
 3317      544F5000 
 3318              	.LASF52:
 3319 04cd 74687265 		.ascii	"threads_queue_t\000"
 3319      6164735F 
 3319      71756575 
 3319      655F7400 
 3320              	.LASF138:
 3321 04dd 4C434B52 		.ascii	"LCKR\000"
 3321      00
 3322              	.LASF98:
 3323 04e2 63685F73 		.ascii	"ch_semaphore\000"
 3323      656D6170 
 3323      686F7265 
 3323      00
 3324              	.LASF44:
 3325 04ef 705F6570 		.ascii	"p_epending\000"
 3325      656E6469 
 3325      6E6700
 3326              	.LASF145:
 3327 04fa 53445F55 		.ascii	"SD_UNINIT\000"
 3327      4E494E49 
 3327      5400
 3328              	.LASF121:
 3329 0504 715F636F 		.ascii	"q_counter\000"
 3329      756E7465 
 3329      7200
 3330              	.LASF96:
 3331 050e 77746D74 		.ascii	"wtmtxp\000"
 3331      787000
 3332              	.LASF56:
 3333 0515 725F7175 		.ascii	"r_queue\000"
 3333      65756500 
 3334              	.LASF67:
 3335 051d 76745F64 		.ascii	"vt_delta\000"
 3335      656C7461 
 3335      00
 3336              	.LASF51:
 3337 0526 63685F74 		.ascii	"ch_threads_list\000"
 3337      68726561 
 3337      64735F6C 
 3337      69737400 
 3338              	.LASF149:
 3339 0536 53657269 		.ascii	"SerialDriver\000"
 3339      616C4472 
 3339      69766572 
 3339      00
 3340              	.LASF11:
 3341 0543 6C6F6E67 		.ascii	"long unsigned int\000"
 3341      20756E73 
 3341      69676E65 
 3341      6420696E 
 3341      7400
 3342              	.LASF172:
 3343 0555 2F557365 		.ascii	"/Users/savonetj/Downloads/ChibiOS_3.0.2/demos/STM32"
 3343      72732F73 
ARM GAS  /var/folders/c6/c789hm653lg9vtl73krp73tm0000gn/T//ccwnu7lN.s 			page 94


 3343      61766F6E 
 3343      65746A2F 
 3343      446F776E 
 3344 0588 2F52542D 		.ascii	"/RT-STM32F407-DISCOVERY\000"
 3344      53544D33 
 3344      32463430 
 3344      372D4449 
 3344      53434F56 
 3345              	.LASF159:
 3346 05a0 72656164 		.ascii	"read\000"
 3346      00
 3347              	.LASF105:
 3348 05a5 63686172 		.ascii	"char\000"
 3348      00
 3349              	.LASF168:
 3350 05aa 73645374 		.ascii	"sdStart\000"
 3350      61727400 
 3351              	.LASF6:
 3352 05b2 5F5F7569 		.ascii	"__uint16_t\000"
 3352      6E743136 
 3352      5F7400
 3353              	.LASF30:
 3354 05bd 74687265 		.ascii	"thread_t\000"
 3354      61645F74 
 3354      00
 3355              	.LASF104:
 3356 05c6 6D5F6E65 		.ascii	"m_next\000"
 3356      787400
 3357              	.LASF29:
 3358 05cd 73797374 		.ascii	"systime_t\000"
 3358      696D655F 
 3358      7400
 3359              	.LASF46:
 3360 05d7 705F7265 		.ascii	"p_realprio\000"
 3360      616C7072 
 3360      696F00
 3361              	.LASF62:
 3362 05e2 76746675 		.ascii	"vtfunc_t\000"
 3362      6E635F74 
 3362      00
 3363              	.LASF10:
 3364 05eb 5F5F7569 		.ascii	"__uint32_t\000"
 3364      6E743332 
 3364      5F7400
 3365              	.LASF75:
 3366 05f6 70616E69 		.ascii	"panic_msg\000"
 3366      635F6D73 
 3366      6700
 3367              	.LASF89:
 3368 0600 6F666673 		.ascii	"offset\000"
 3368      657400
 3369              	.LASF144:
 3370 0607 696F706F 		.ascii	"ioportid_t\000"
 3370      72746964 
 3370      5F7400
 3371              	.LASF108:
 3372 0612 6576656E 		.ascii	"event_listener_t\000"
ARM GAS  /var/folders/c6/c789hm653lg9vtl73krp73tm0000gn/T//ccwnu7lN.s 			page 95


 3372      745F6C69 
 3372      7374656E 
 3372      65725F74 
 3372      00
 3373              	.LASF87:
 3374 0623 636F6E74 		.ascii	"context\000"
 3374      65787400 
 3375              	.LASF169:
 3376 062b 5F70616C 		.ascii	"_pal_lld_setgroupmode\000"
 3376      5F6C6C64 
 3376      5F736574 
 3376      67726F75 
 3376      706D6F64 
 3377              	.LASF64:
 3378 0641 63685F76 		.ascii	"ch_virtual_timer\000"
 3378      69727475 
 3378      616C5F74 
 3378      696D6572 
 3378      00
 3379              	.LASF20:
 3380 0652 7274636E 		.ascii	"rtcnt_t\000"
 3380      745F7400 
 3381              	.LASF147:
 3382 065a 53445F52 		.ascii	"SD_READY\000"
 3382      45414459 
 3382      00
 3383              	.LASF69:
 3384 0663 76745F70 		.ascii	"vt_par\000"
 3384      617200
 3385              	.LASF27:
 3386 066a 6576656E 		.ascii	"eventflags_t\000"
 3386      74666C61 
 3386      67735F74 
 3386      00
 3387              	.LASF18:
 3388 0677 75696E74 		.ascii	"uint32_t\000"
 3388      33325F74 
 3388      00
 3389              	.LASF148:
 3390 0680 73647374 		.ascii	"sdstate_t\000"
 3390      6174655F 
 3390      7400
 3391              	.LASF123:
 3392 068a 715F746F 		.ascii	"q_top\000"
 3392      7000
 3393              	.LASF101:
 3394 0690 63685F6D 		.ascii	"ch_mutex\000"
 3394      75746578 
 3394      00
 3395              	.LASF116:
 3396 0699 65735F6E 		.ascii	"es_next\000"
 3396      65787400 
 3397              	.LASF126:
 3398 06a1 715F6E6F 		.ascii	"q_notify\000"
 3398      74696679 
 3398      00
 3399              	.LASF78:
ARM GAS  /var/folders/c6/c789hm653lg9vtl73krp73tm0000gn/T//ccwnu7lN.s 			page 96


 3400 06aa 726C6973 		.ascii	"rlist\000"
 3400      7400
 3401              	.LASF115:
 3402 06b0 6576656E 		.ascii	"event_source\000"
 3402      745F736F 
 3402      75726365 
 3402      00
 3403              	.LASF15:
 3404 06bd 75696E74 		.ascii	"uint8_t\000"
 3404      385F7400 
 3405              	.LASF93:
 3406 06c5 77746F62 		.ascii	"wtobjp\000"
 3406      6A7000
 3407              	.LASF49:
 3408 06cc 74687265 		.ascii	"threads_list_t\000"
 3408      6164735F 
 3408      6C697374 
 3408      5F7400
 3409              	.LASF170:
 3410 06db 474E5520 		.ascii	"GNU C 4.8.4 20140725 (release) [ARM/embedded-4_8-br"
 3410      4320342E 
 3410      382E3420 
 3410      32303134 
 3410      30373235 
 3411 070e 616E6368 		.ascii	"anch revision 213147] -mcpu=cortex-m4 -mno-thumb-in"
 3411      20726576 
 3411      6973696F 
 3411      6E203231 
 3411      33313437 
 3412 0741 74657277 		.ascii	"terwork -mthumb -ggdb -O2 -fomit-frame-pointer -fal"
 3412      6F726B20 
 3412      2D6D7468 
 3412      756D6220 
 3412      2D676764 
 3413 0774 69676E2D 		.ascii	"ign-functions=16 -ffunction-sections -fdata-section"
 3413      66756E63 
 3413      74696F6E 
 3413      733D3136 
 3413      202D6666 
 3414 07a7 73202D66 		.ascii	"s -fno-common -flto\000"
 3414      6E6F2D63 
 3414      6F6D6D6F 
 3414      6E202D66 
 3414      6C746F00 
 3415              	.LASF43:
 3416 07bb 705F6D73 		.ascii	"p_msg\000"
 3416      6700
 3417              	.LASF176:
 3418 07c1 6D61696E 		.ascii	"main\000"
 3418      00
 3419              	.LASF173:
 3420 07c6 63685265 		.ascii	"chRegSetThreadName\000"
 3420      67536574 
 3420      54687265 
 3420      61644E61 
 3420      6D6500
 3421              	.LASF143:
ARM GAS  /var/folders/c6/c789hm653lg9vtl73krp73tm0000gn/T//ccwnu7lN.s 			page 97


 3422 07d9 696F6D6F 		.ascii	"iomode_t\000"
 3422      64655F74 
 3422      00
 3423              	.LASF103:
 3424 07e2 6D5F6F77 		.ascii	"m_owner\000"
 3424      6E657200 
 3425              	.LASF34:
 3426 07ea 705F6374 		.ascii	"p_ctx\000"
 3426      7800
 3427              	.LASF68:
 3428 07f0 76745F66 		.ascii	"vt_func\000"
 3428      756E6300 
 3429              	.LASF109:
 3430 07f8 6576656E 		.ascii	"event_listener\000"
 3430      745F6C69 
 3430      7374656E 
 3430      657200
 3431              		.comm	__gnu_lto_v1,1,1
 3432              		.ident	"GCC: (GNU Tools for ARM Embedded Processors) 4.8.4 20140725 (release) [ARM/embedded-4_8-br
ARM GAS  /var/folders/c6/c789hm653lg9vtl73krp73tm0000gn/T//ccwnu7lN.s 			page 98


DEFINED SYMBOLS
                            *ABS*:0000000000000000 main.c
/var/folders/c6/c789hm653lg9vtl73krp73tm0000gn/T//ccwnu7lN.s:495    .text.Thread1:0000000000000000 $t
/var/folders/c6/c789hm653lg9vtl73krp73tm0000gn/T//ccwnu7lN.s:500    .text.Thread1:0000000000000000 Thread1
/var/folders/c6/c789hm653lg9vtl73krp73tm0000gn/T//ccwnu7lN.s:551    .text.Thread1:0000000000000028 $d
/var/folders/c6/c789hm653lg9vtl73krp73tm0000gn/T//ccwnu7lN.s:558    .text.startup.main:0000000000000000 $t
/var/folders/c6/c789hm653lg9vtl73krp73tm0000gn/T//ccwnu7lN.s:564    .text.startup.main:0000000000000000 main
/var/folders/c6/c789hm653lg9vtl73krp73tm0000gn/T//ccwnu7lN.s:630    .text.startup.main:0000000000000058 $d
/var/folders/c6/c789hm653lg9vtl73krp73tm0000gn/T//ccwnu7lN.s:638    .bss.waThread1:0000000000000000 $d
/var/folders/c6/c789hm653lg9vtl73krp73tm0000gn/T//ccwnu7lN.s:642    .bss.waThread1:0000000000000000 waThread1
/var/folders/c6/c789hm653lg9vtl73krp73tm0000gn/T//ccwnu7lN.s:645    .rodata.str1.4:0000000000000000 $d
                            *COM*:0000000000000001 __gnu_lto_v1
                     .debug_frame:0000000000000010 $d
/var/folders/c6/c789hm653lg9vtl73krp73tm0000gn/T//ccwnu7lN.s:557    .text.Thread1:0000000000000034 $t
/var/folders/c6/c789hm653lg9vtl73krp73tm0000gn/T//ccwnu7lN.s:637    .text.startup.main:0000000000000068 $t

UNDEFINED SYMBOLS
chThdSleep
ch
halInit
chSysInit
sdStart
_pal_lld_setgroupmode
chThdCreateStatic
TestThread
SD2
