ARM GAS  /var/folders/c6/c789hm653lg9vtl73krp73tm0000gn/T//ccLd87C0.s 			page 1


   1              		.syntax unified
   2              		.cpu cortex-m4
   3              		.fpu softvfp
   4              		.eabi_attribute 20, 1
   5              		.eabi_attribute 21, 1
   6              		.eabi_attribute 23, 3
   7              		.eabi_attribute 24, 1
   8              		.eabi_attribute 25, 1
   9              		.eabi_attribute 26, 1
  10              		.eabi_attribute 30, 2
  11              		.eabi_attribute 34, 1
  12              		.eabi_attribute 18, 4
  13              		.thumb
  14              		.file	"nvic.c"
  15              		.text
  16              	.Ltext0:
  17              		.section	.gnu.lto_.jmpfuncs.e9a3f4365805eac3,"",%progbits
  18 0000 789C6362 		.ascii	"x\234cb`b\300\006\270\2404\013\0033##\02333#\003\000"
  18      6062C006 
  18      B8A0340B 
  18      03332323 
  18      13333323 
  19 0016 01F00021 		.ascii	"\001\360\000!"
  20              		.text
  21              		.section	.gnu.lto_.inline.e9a3f4365805eac3,"",%progbits
  22 0000 789C6D4C 		.ascii	"x\234mL\313\025\200 \014KK\205\352\305\021\330\300%"
  22      CB158020 
  22      0C4B4B85 
  22      EAC511D8 
  22      C025
  23 0012 5D84911C 		.ascii	"]\204\221\034\305\021LQy\036\354!}\371*\024\177\267"
  23      C5114C51 
  23      791EEC21 
  23      7DF92A14 
  23      7FB7
  24 0024 3FDF8065 		.ascii	"?\337\200e\026\025\011\022`\371\334\220[U\350\261\032"
  24      16150912 
  24      60F9DC90 
  24      5B55E8B1 
  24      1A
  25 0035 C89CAAD3 		.ascii	"\310\234\252\323\363\302TD\222\265zG\350Z\037QL&\322"
  25      F3C25444 
  25      92B57A47 
  25      E85A1F51 
  25      4C26D2
  26 0048 57127B9F 		.ascii	"W\022{\237\201PP\362[\035\346\250\342\002a/\015\002"
  26      815050F2 
  26      5B1DE6A8 
  26      E202612F 
  26      0D02
  27              		.text
  28              		.section	.gnu.lto_.pureconst.e9a3f4365805eac3,"",%progbits
  29 0000 789C6362 		.ascii	"x\234cb`b\340d\200\000\026\006)F)&)f)\000\002\326\000"
  29      6062E064 
  29      80001606 
  29      29462926 
  29      29662900 
ARM GAS  /var/folders/c6/c789hm653lg9vtl73krp73tm0000gn/T//ccLd87C0.s 			page 2


  30 0017 80       		.ascii	"\200"
  31              		.text
  32              		.section	.gnu.lto_nvicEnableVector.e9a3f4365805eac3,"",%progbits
  33 0000 789C9D51 		.ascii	"x\234\235Q\277O\302P\020\276{\245\266@\202#a\222\270"
  33      BF4FC250 
  33      10BE7BA5 
  33      B6408223 
  33      6192B8
  34 0013 125B9D1C 		.ascii	"\022[\235\034\234\214\223\003\213\301DG\254\0116\021"
  34      9C8C9303 
  34      8BC14447 
  34      AC093611 
  35 0023 6AC41837 		.ascii	"j\304\0307\012\305\305\211\0315H\334\214?V\243\213\301"
  35      0AC5C589 
  35      193548DC 
  35      8C3F56A3 
  35      8BC1
  36 0035 C9018DFF 		.ascii	"\311\001\215\377\001\263&:\2208\202w\017Z#!\016^\332"
  36      01B3263A 
  36      90388277 
  36      0F5A2321 
  36      0E5EDA
  37 0048 F7EEC777 		.ascii	"\367\356\307w\337\335\327\012\0200j\011z7)=G7*\200\242"
  37      DFDDD70A 
  37      10306A09 
  37      7A37293D 
  37      47372A80 
  38 005d F60C50D6 		.ascii	"\366\014P\326\005\";\200P\022XZG\206\34244]\267\326"
  38      05223B80 
  38      5012585A 
  38      4786E234 
  38      345DB7D6 
  39 0071 396C9C26 		.ascii	"9l\234&\216\316*5\267\327\357\243\215Dj X\010k\024`"
  39      8ECE2A35 
  39      B7D7EFA3 
  39      8D446A20 
  39      58086B14 
  40 0086 525E22F4 		.ascii	"R^\"\364{\312\215x\350\364\373'/\365\257x\0141\317="
  40      7BCA8D78 
  40      E8F4FB27 
  40      2FF5AF78 
  40      0C31CF3D 
  41 009a 362A0A1F 		.ascii	"6*\012\037*\205\250\221\027\322!\213M\032\022\246\000"
  41      2A85A891 
  41      17D2218B 
  41      4D1A12A6 
  41      00
  42 00ab 227C4439 		.ascii	"\"|D9M\355*Tip\022x\012Y\206N\336n\025\005\337J\033"
  42      4DED2A54 
  42      69701278 
  42      0A59864E 
  42      DE6E1505 
  43 00c2 2AEFDE67 		.ascii	"*\357\336gWd\361\034U\310\241\310!!\332\340])~J\241"
  43      5764F11C 
  43      55C8A1C8 
  43      2121DAE0 
  43      5D297E4A 
ARM GAS  /var/folders/c6/c789hm653lg9vtl73krp73tm0000gn/T//ccLd87C0.s 			page 3


  44 00d7 2C2FA632 		.ascii	",/\2462]\033Z\313\203\302\014\\\272\325\262;O\205\024"
  44      5D1B5ACB 
  44      83C20C5C 
  44      BAD5B23B 
  44      4F8514
  45 00ea 5CB03B69 		.ascii	"\\\260;i\343\3041\324\011\2521^w[\236\033\223\232t\251"
  45      E3C431D4 
  45      09AA315E 
  45      775B9E1B 
  45      939A74A9 
  46 00fe 6403078A 		.ascii	"d\003\007\212r\324\355{\212\034v\355u\037\203\0254\252"
  46      72D4ED7B 
  46      8A1C76ED 
  46      751F8315 
  46      34AA
  47 0110 7313A872 		.ascii	"s\023\250r^\345\303{C\277\246\313^\352\270\017\326\013"
  47      5EE5C37B 
  47      43BFA6CB 
  47      5EEAB80F 
  47      D60B
  48 0122 5356C2A7 		.ascii	"SV\302\247`d\361\210L#c\206Dw\001Q\224\312c\324,\330"
  48      6064F188 
  48      4C236386 
  48      44770151 
  48      94CA63D4 
  49 0138 18FE5113 		.ascii	"\030\376Q\023\371[\015\0165h\201\232\250\244|\272m\304"
  49      F95B0D0E 
  49      3568819A 
  49      A8A47CBA 
  49      6DC4
  50 014a FFCF2AC6 		.ascii	"\377\317*\306\261\276B\271\323\033~!\3372\264\000\375"
  50      B1BE42B9 
  50      D31B7E21 
  50      DF32B400 
  50      FD
  51 015b 42C6A70C 		.ascii	"B\306\247\014\303\034<N\321\334\312n\233;\316\356^\321"
  51      C31C3C4E 
  51      D1DCCA6E 
  51      9B3BCEEE 
  51      5ED1
  52 016d B49C7CDE 		.ascii	"\264\234|\336)\230\213+\351\245\364\201Y\330\267-\303"
  52      29988B2B 
  52      E9A5F481 
  52      59D8B72D 
  52      C3
  53 017e 02A560CC 		.ascii	"\002\245`\314~\003~\357\223\352"
  53      7E037EEF 
  53      93EA
  54              		.text
  55              		.section	.gnu.lto_nvicDisableVector.e9a3f4365805eac3,"",%progbits
  56 0000 789C7D90 		.ascii	"x\234}\220\277K\303P\020\307\357\373^\322V\007\305\321"
  56      BF4BC350 
  56      10C7EFFB 
  56      5ED25607 
  56      C5D1
  57 0012 C9A28B50 		.ascii	"\311\242\213PL\350\344\340$N\016]\244\202\2165C\015"
  57      4CE8E4E0 
ARM GAS  /var/folders/c6/c789hm653lg9vtl73krp73tm0000gn/T//ccLd87C0.s 			page 4


  57      244E0E5D 
  57      A4828E35 
  57      430D
  58 0024 D846AC88 		.ascii	"\330F\254\210[S\323\321\241\203\203\325\305\342&\376"
  58      5B53D3D1 
  58      A18383D5 
  58      C5E226FE 
  59 0034 DC44074B 		.ascii	"\334D\007K\367\212\316:\024E\007\007\361\017\020\342"
  59      F78ACE3A 
  59      14450707 
  59      F10F10E2 
  60 0044 BDA4A9D4 		.ascii	"\275\244\251\324\301G\362\356\336\367\356>w\234 A\177"
  60      C147F2EE 
  60      DEF7EE3E 
  60      779C2041 
  60      7F
  61 0055 CF28FF4F 		.ascii	"\317(\377O J\263\205$\210\332=Q%!\000\345\020\250,P"
  61      204AB385 
  61      2488DA3D 
  61      51252100 
  61      E510A82C 
  62 006a 5E864AC5 		.ascii	"^\206J\30585\\\267\326y{}\220\365\275f\365\310\375\366"
  62      38355CB7 
  62      D6797B7D 
  62      90F5BD66 
  62      F5C8FDF6 
  63 007e 7DC00663 		.ascii	"}\300\006c\015\220\005Z\342\007\222\201\021Z\177\237"
  63      0D90055A 
  63      E2079281 
  63      115A7F9F 
  64 008e 0BD1ECF8 		.ascii	"\013\321\354\370\376\363\325\345K\035#\203@AU\331\220"
  64      FEF3D5E5 
  64      4B1D2383 
  64      404155D9 
  64      90
  65 009f 92726830 		.ascii	"\222rh0Y\343\007\351\352\212)\231+t\252r\267$)0\237"
  65      59E307E9 
  65      EA8A2999 
  65      2B74AA72 
  65      B7242930 
  66 00b4 2CDF6AA4 		.ascii	",\337j\244E\010ee\233\274s\357nw2\207c\350\224\207\310"
  66      45086565 
  66      9BBC73EF 
  66      6E773287 
  66      63E89487 
  67 00c9 03AA31D7 		.ascii	"\003\2521\327\021\265i\347\323\373@\024\223\034S\242"
  67      11B569E7 
  67      D3FB4014 
  67      931C53A2 
  68 00d9 772B2349 		.ascii	"w+#Ic5H\037\013\322\275\263^D\017d\250\234.\350\246"
  68      6335481F 
  68      0BD2BDB3 
  68      5E440F64 
  68      A89C2EE8 
  69 00ee 078A7158 		.ascii	"\007\212qX\211\255\371P\231\242S\267Zqglh):Q\356\260"
  69      89ADF950 
  69      99A253B7 
ARM GAS  /var/folders/c6/c789hm653lg9vtl73krp73tm0000gn/T//ccLd87C0.s 			page 5


  69      5A71676C 
  69      68293A51 
  70 0104 0DFD900E 		.ascii	"\015\375\220\016\030\021S\234\270\333\362\334\241`#"
  70      1811539C 
  70      B8DBF2DC 
  70      A16023
  71 0113 F1600F2B 		.ascii	"\361`\017+\010\367\301\003S\344\305\002\344\365\376"
  71      08F7C103 
  71      53E4C502 
  71      E4F5FE
  72 0122 FB97E8C3 		.ascii	"\373\227\350\303N\333H\374b\007\376\307\242\013\353"
  72      4EDB48FC 
  72      6207FEC7 
  72      A20BEB
  73 0131 F2835842 		.ascii	"\362\203XB9\217T\351\324'Bpt\262\234\306KT#\244\014"
  73      398F54E9 
  73      D4274270 
  73      74B29CC6 
  73      4B5423A4 
  74 0146 C30C3FA7 		.ascii	"\303\014?\247d\256\346\326\314ugc\263dZN\241\340\024"
  74      64AEE6D6 
  74      CC756763 
  74      B3645A4E 
  74      A1E014
  75 0159 CDD985CC 		.ascii	"\315\331\205\314\\f\333,n\331\226a\221,\032\351\037"
  75      5C66DB2C 
  75      6ED99661 
  75      912C1AE9 
  75      1F
  76 016a 32EC79ED 		.ascii	"2\354y\355"
  77              		.text
  78              		.section	.gnu.lto_nvicSetSystemHandlerPriority.e9a3f4365805eac3,"",%progbits
  79 0000 789C6362 		.ascii	"x\234cb`b@\007\222@\374\001\210u\201\230\221\231\201"
  79      60624007 
  79      9240FC01 
  79      88758198 
  79      919981
  80 0013 9169C239 		.ascii	"\221i\3029\006\206F\016&FF\020\203\201\221\241\236\211"
  80      0686460E 
  80      26464610 
  80      838191A1 
  80      9E89
  81 0025 B13E9211 		.ascii	"\261>\222\021\254v=\323\201\007\377\377\257\273\324"
  81      AC763DD3 
  81      8107FFFF 
  81      AFBBD4
  82 0034 76EC20E3 		.ascii	"v\354 \343:evF\306\\F\240\211\231\214\014\314 \202\025"
  82      3A657646 
  82      C65C46A0 
  82      89998C0C 
  82      CC208215 
  83 0048 C805A963 		.ascii	"\310\005\251cehih\230\240\220\313\010\264,\031\2541"
  83      65686968 
  83      98A090CB 
  83      08B42C19 
  83      AC31
  84 005a 0448824C 		.ascii	"\004H\202L\013\005\012\001i\346\263\014M\257\233\267"
ARM GAS  /var/folders/c6/c789hm653lg9vtl73krp73tm0000gn/T//ccLd87C0.s 			page 6


  84      0B050A01 
  84      69E6B30C 
  84      4DAF9BB7 
  85 006a F7EA2632 		.ascii	"\367\352&2.ddeHgdJ\007i<\313\320\274\226\031&\304\014"
  85      2E646465 
  85      4867644A 
  85      07693CCB 
  85      D0BC9619 
  86 0081 148D60CC 		.ascii	"\024\215`\314ddda\000\311\034\362\204H\3502\254ihil"
  86      64646461 
  86      00C91CF2 
  86      8448E832 
  86      AC696869 
  87 0096 30074A68 		.ascii	"0\007Jh3\254\0021y3\031\231f3\314\002*e\006\251gi\270"
  87      33AC0231 
  87      79331999 
  87      6633CC02 
  87      2A6506A9 
  88 00ad D5DCC0C7 		.ascii	"\325\334\300\307\000f\202\335\234\004q:\320HV\006\030"
  88      006682DD 
  88      9C04713A 
  88      D0485606 
  88      18
  89 00be 8B9981E1 		.ascii	"\213\231\201\341\"C\343\203u\312\020Ca \004\350\012"
  89      2243E383 
  89      75CA1043 
  89      612004E8 
  89      0A
  90 00cf A0F34061 		.ascii	"\240\363@a\244\255\247\247\017A\371\305\372\031\211"
  90      A4ADA7A7 
  90      0F41F9C5 
  90      FA1989
  91 00de 39FA05F9 		.ascii	"9\372\005\371E%\305\372\311\371\271\271\371y\372\216"
  91      4525C5FA 
  91      C9F9B9B9 
  91      F979FA8E 
  92 00ee 41BECEBE 		.ascii	"A\276\316\276\025\372ye\231\311z\311\014\000\203\372"
  92      15FA7965 
  92      99C97AC9 
  92      0C0083FA 
  93 00fe 4588     		.ascii	"E\210"
  94              		.text
  95              		.section	.gnu.lto_nvicClearPending.e9a3f4365805eac3,"",%progbits
  96 0000 789C5D50 		.ascii	"x\234]P1K\303P\020\276\357\275\244\325Eqt\262\350\""
  96      314BC350 
  96      10BEEFBD 
  96      A4D54571 
  96      74B2E822 
  97 0014 14137475 		.ascii	"\024\023tu\022'\207.RA\307\232\241\006l#V\304\255\257"
  97      1227872E 
  97      5241C79A 
  97      A1066C23 
  97      56C4ADAF 
  98 0028 A6ABD0C1 		.ascii	"\246\253\320\301E],nRu\024t)\235\272Ttw(\202\213\203"
  98      455D2C6E 
  98      52751474 
  98      299DBA54 
ARM GAS  /var/folders/c6/c789hm653lg9vtl73krp73tm0000gn/T//ccLd87C0.s 			page 7


  98      74772882 
  99 003e FE0121DE 		.ascii	"\376\001!\336%\246\240\307\313\273{\337}\367\335\345"
  99      25A6A0C7 
  99      CBBB7BDF 
  99      7DF7DDE5 
 100 004e 1429FA6F 		.ascii	"\024)\372o\323\374\031\020-\262\207&\250\326\023QcL"
 100      D3FC1910 
 100      2DB28726 
 100      A8D61351 
 100      634C
 101 0060 011210A8 		.ascii	"\001\022\020\250\256P\337\202P1KmcZ\303\367\257g}v\332"
 101      AE50DF82 
 101      50314B6D 
 101      635AC3F7 
 101      AF677D76 
 102 0075 6D5E9AEF 		.ascii	"m^\232\357(\002|\260\254\003\362@\233\374@.v\312\372"
 102      28027CB0 
 102      AC03F240 
 102      9BFC402E 
 102      76CAFA
 103 0088 DBE74E75 		.ascii	"\333\347Nu\207Q\364z\337y\353cj\034\250H\225\017\255"
 103      8751F47A 
 103      DF79EB63 
 103      6A1CA848 
 103      950FAD
 104 009b A984362B 		.ascii	"\251\2046+[\374 [\256\214\300\\aS\223\273\345H\204\331"
 104      5BFC205B 
 104      AE8CC05C 
 104      615393BB 
 104      E54884D9 
 105 00af 8A7CCB48 		.ascii	"\212|\313H\033P\342\365\200\302\3330:\231/\341\0126"
 105      1B50E2F5 
 105      80C2DB30 
 105      3A992FE1 
 105      0A36
 106 00c1 95A1CA80 		.ascii	"\225\241\312\2004\346:\242\001\035\177\206\037Hs\232"
 106      34E63AA2 
 106      011D7F86 
 106      1F48739A 
 107 00d1 7302868F 		.ascii	"s\002\206\217:\205,Fc\372LL\017oF\031;\206!\234_\241"
 107      3A852C46 
 107      63FA4C4C 
 107      0F6F4619 
 107      3B86219C 
 108 00e7 87915086 		.ascii	"\207\221P\206\323\002\366\326\022d\201:\246\3310\313"
 108      D302F6D6 
 108      1264813A 
 108      A6D930CB 
 109 00f7 3EAC3C5D 		.ascii	">\254<]K8\351\303\276\240s\226\310\210N\326\364B3\021"
 109      4B38E9C3 
 109      BEA07396 
 109      C8884ED6 
 109      F4423311 
 110 010b 6F241BEF 		.ascii	"o$\033\357a\033\311>x`J\243\014\321\0135\206\375\271"
 110      611BC93E 
 110      78604AA3 
 110      0CD10B35 
ARM GAS  /var/folders/c6/c789hm653lg9vtl73krp73tm0000gn/T//ccLd87C0.s 			page 8


 110      86FDB9
 111 011e 4434B522 		.ascii	"D4\265\"\017\315\177*\274\274\343\270\311\011j\356N"
 111      0FCD7F2A 
 111      BCBCE3B8 
 111      C9096AEE 
 111      4E
 112 012f 69D7DD0B 		.ascii	"i\327\335\013\366\017j\256\027T*A\325]Y/\254\026\216"
 112      F60F6AAE 
 112      17542A41 
 112      D55D592F 
 112      AC168E
 113 0142 DCEAA1EF 		.ascii	"\334\352\241\3579\036\351\252\263\364\003(\344fu"
 113      391EE9AA 
 113      B3F40328 
 113      E46675
 114              		.text
 115              		.section	.gnu.lto_.symbol_nodes.e9a3f4365805eac3,"",%progbits
 116 0000 789C6362 		.ascii	"x\234cb`b\260c\200\002\246\026\246z\006\206\011\347"
 116      6062B063 
 116      8002A616 
 116      A67A0686 
 116      09E7
 117 0012 1818EAEB 		.ascii	"\030\030\352\353\347u02\2652\3253\"q\333\230\352\231"
 117      E7753032 
 117      B532D533 
 117      2271DB98 
 117      EA99
 118 0024 90B8ED4C 		.ascii	"\220\270\355L\365\314\010.\003\000?^\022w"
 118      F5CC082E 
 118      03003F5E 
 118      1277
 119              		.text
 120              		.section	.gnu.lto_.refs.e9a3f4365805eac3,"",%progbits
 121 0000 789C6362 		.ascii	"x\234cb`b`d\200\002\000\000F\000\006"
 121      60626064 
 121      80020000 
 121      460006
 122              		.text
 123              		.section	.gnu.lto_.decls.e9a3f4365805eac3,"",%progbits
 124 0000 789CAD59 		.ascii	"x\234\255Y}l\034\305\025\237\331;\307\276\3045\011\242"
 124      7D6C1CC5 
 124      159FD93B 
 124      C7BEC435 
 124      09A2
 125 0012 3454A962 		.ascii	"4T\251b\332R\265\264\3619&\210\364\037\024\347\354\324"
 125      DA52B5B4 
 125      F1392688 
 125      F41F14E7 
 125      ECD4
 126 0024 27D5D4BA 		.ascii	"'\325\324\272K\334*\252t\031.\007\266t\276\213\316\347"
 126      4BDC2AAA 
 126      74192E07 
 126      B674BE8B 
 126      CEE7
 127 0036 8AA8FD63 		.ascii	"\212\250\375c]\033\032\276\212\023Lk\276\334\013u\200"
 127      5D1B1ABE 
 127      8A134C6B 
ARM GAS  /var/folders/c6/c789hm653lg9vtl73krp73tm0000gn/T//ccLd87C0.s 			page 9


 127      BEDC0B75 
 127      80
 128 0047 88006950 		.ascii	"\210\000iPR\007hzJ)\"@\325|\020;8\024\016EP\240BI\201"
 128      5207687A 
 128      4A292240 
 128      D57C103B 
 128      38140E45 
 129 0060 A4496472 		.ascii	"\244Idr}\363n?f\366n\316\273\210\225\347\355\354\356"
 129      7DF36E3F 
 129      66F66ECE 
 129      BB8895E7 
 129      EDECEE
 130 0073 9BDFFC7E 		.ascii	"\233\337\374~o>\366\335Z#\032\031\246\204\024\341\350"
 130      6F3EF6DD 
 130      5A231A19 
 130      A68414E1 
 130      E8
 131 0084 FB3A21BF 		.ascii	"\373:!\277\322\010\251!\204\334H\354\303\017e;\224="
 131      D208A921 
 131      84DC48EC 
 131      C30F653B 
 131      943D
 132 0096 5026A11C 		.ascii	"P&\241\034 \345\007\177\276\300\360m\200R\017\005`I"
 132      20E5077F 
 132      BEC0F06D 
 132      80520F05 
 132      6049
 133 00a8 2D948350 		.ascii	"-\224\203P\016Ay\035\312Y(\307\240\034\205\342\203\362"
 133      0E41791D 
 133      CA5928C7 
 133      A01C85E2 
 133      83F2
 134 00ba 31945350 		.ascii	"1\224SP\216\030\376\034\007(\220g\241<\355\350\203\367"
 134      8E18FE1C 
 134      07289067 
 134      A13CEDE8 
 134      83F7
 135 00cc 3FDFD147 		.ascii	"?\337\321G\255\200g\342\233\375q\234\223F\037\324h\317"
 135      AD8067E2 
 135      9BFD719C 
 135      93461FD4 
 135      68CF
 136 00de CFFB1CB8 		.ascii	"\317\373\034\270\\S\215\361\214\267=\007\345\002\224"
 136      5C538DF1 
 136      8CB73D07 
 136      E50294
 137 00ed E5B4746F 		.ascii	"\345\264to\201q\23648\277\010\345y(-T\306\341q\251s"
 137      81719E34 
 137      38BF08E5 
 137      79282D54 
 137      C6E171A9 
 138 0102 C18F1A9A 		.ascii	"\301\217\032\232\251\321\206\237\363\016NK\311\270\236"
 138      A9D1869F 
 138      F30E4E4B 
 138      C9B89E
 139 0111 2B14768C 		.ascii	"+\024v\214\277F\365m\372l\261\350#W\222\007t8rw\350"
 139      BF46F56D 
ARM GAS  /var/folders/c6/c789hm653lg9vtl73krp73tm0000gn/T//ccLd87C0.s 			page 10


 139      FA6CB1E8 
 139      23579207 
 139      74387277 
 140 0126 3ACD327A 		.ascii	":\3152z\343W\311\317(\243\015\001\322\210\225\372\000"
 140      E357C9CF 
 140      28A30D01 
 140      D28895FA 
 140      00
 141 0137 764C08A3 		.ascii	"vL\010\243\217\321+\261\346\303\020\220\000\331\242"
 141      8FD12BB1 
 141      E6C31090 
 141      00D9A2
 142 0146 EBBFE60D 		.ascii	"\353\277\346\015;^\001^\225Z]C&t}\244\360\227\235\367"
 142      3B5E015E 
 142      955A5D43 
 142      26747DA4 
 142      F0979DF7 
 143 015a FC40D7EB 		.ascii	"\374@\327\353\030\235\240\001h\373KJ\256%;\241\317\021"
 143      189DA001 
 143      68FB4B4A 
 143      AE253BA1 
 143      CF11
 144 016c 68FF2D8D 		.ascii	"h\377-\215\224\037\356\241\377|\327\213?D\350'\021\372"
 144      941FEEA1 
 144      FF7CD78B 
 144      3F44E827 
 144      11FA
 145 017e 034A81E8 		.ascii	"\003J\201\350\023\364Z\003\210\321\332\200\010\214\327"
 145      13F45A03 
 145      88D1DA80 
 145      088CD7
 146 018d A60347C3 		.ascii	"\246\003G\303\307F\205O\326\313\210Ww#\032%qXY\347\263"
 146      C746854F 
 146      D6CB8857 
 146      77231A25 
 146      715859E7 
 147 01a2 0034F2A9 		.ascii	"\0004\362\251\203\321\267\311\037u}\033\214\300\304"
 147      83D1B7C9 
 147      1F757D1B 
 147      8CC0C4
 148 01b1 557A4E33 		.ascii	"UzN3C2\254q\257\355tiE\255\006v\251\251\276?\321a6\273"
 148      4332AC71 
 148      AFED7469 
 148      45AD0676 
 148      A9A9BE3F 
 149 01c9 C34D3342 		.ascii	"\303M3B\276Cv\360!\276W\277}!\305\021&F+I\352.*\015"
 149      BE4376F0 
 149      21BE57BF 
 149      7D21C511 
 149      26462B49 
 150 01e1 4569AAE4 		.ascii	"Ei\252\344\037z\271~d\260P,.u?O\236\223\347I\211\206"
 150      1F7AB97E 
 150      64B0502C 
 150      2E753F4F 
 150      9E93E749 
 151 01f7 232C776B 		.ascii	"#,wk\225\302\242\337ojc\364\031\240\303\350\236/\244"
 151      95C2A2DF 
ARM GAS  /var/folders/c6/c789hm653lg9vtl73krp73tm0000gn/T//ccLd87C0.s 			page 11


 151      6F6A63F4 
 151      19A0C3E8 
 151      9E2FA4
 152 020a 6D8F53DB 		.ascii	"m\217S\333\336\212\332\216\232\332Js[#\217Vf%D\374y"
 152      DE8ADA8E 
 152      9ADA4A73 
 152      5B238F56 
 152      662544FC 
 153 021f F4987435 		.ascii	"\364\230t5P\237\333bv\243\2309\232)\304L:\305\354\257"
 153      509FDB62 
 153      76A39839 
 153      9A29C44C 
 153      3AC5ECAF 
 154 0233 28E6A22D 		.ascii	"(\346\242-\3469\024s\260\262\230\255\316\020\037\370"
 154      E6391473 
 154      B0B298AD 
 154      CE101FF8 
 155 0243 42AC0E38 		.ascii	"B\254\0168Y\375Uf\205KxH/\354\320\027\217\331K\270\316"
 155      59FD5566 
 155      854B7848 
 155      2FECD017 
 155      8FD94BB8 
 156 0258 EC806F4E 		.ascii	"\354\200oN\346\356\360\341\214\006K\330X\363\325\032"
 156      E6EEF0E1 
 156      8C064BD8 
 156      58F3D51A 
 157 0268 30FA377A 		.ascii	"0\3727z\015X*/J\032\260+E\312g\3271\207t\027\330\326"
 157      0D582A2F 
 157      4A1AB02B 
 157      45CA67D7 
 157      31877417 
 158 027e 7E32BE12 		.ascii	"~2\276\022\367\223\227q\270Oj\316\375\204:\366\2239"
 158      F7939771 
 158      B84F6ACE 
 158      FD843AF6 
 158      9339
 159 0290 B878F15D 		.ascii	"\270x\361]DFx\234\033\307\032\030=\010\367\014\232\372"
 159      4446789C 
 159      1BC71A18 
 159      3D08F70C 
 159      9AFA
 160 02a2 6526CF33 		.ascii	"e&\3173%@\321\357\245*~\214\276J\027\331\372uc?E\027"
 160      2540D1EF 
 160      A52A7E8C 
 160      BE4A17D9 
 160      FA75633F 
 161 02b8 D5DA7DCD 		.ascii	"\325\332}\315\320g\334\266*\247\251\244\304t#\227\223"
 161      D067DCB6 
 161      2AA7A9A4 
 161      C4742397 
 161      93
 162 02c9 ADC845D8 		.ascii	"\255\310E\330\246s\005j\266\032^bG\366\341\351w\332"
 162      A673056A 
 162      B61A5E62 
 162      47F6E1E9 
 162      77DA
 163 02db 31B2AFD3 		.ascii	"1\262\257\323\313!\262\367\371\344\310\272\000\342\035"
ARM GAS  /var/folders/c6/c789hm653lg9vtl73krp73tm0000gn/T//ccLd87C0.s 			page 12


 163      CB21B2F7 
 163      F9E4C8BA 
 163      00E21D
 164 02ea FF131A97 		.ascii	"\377\023\032\227\232!\254\236?2U\257\373K\367\211\004"
 164      9A21AC9E 
 164      3F3255AF 
 164      FB4BF789 
 164      04
 165 02fb 281D5793 		.ascii	"(\035W\223\234><\230?>5J\365\334AjF\360\225\006c\232"
 165      9C3E3C98 
 165      3F3E354A 
 165      F5DC416A 
 165      46F09506 
 166 0311 567BD330 		.ascii	"V{\3230\272\003g\335\334\257\002s 4\263y\2434^<\364"
 166      BA0367DD 
 166      DCAF0273 
 166      2034B379 
 166      A3345E3C 
 167 0326 13C27839 		.ascii	"\023\302x9\334\030}\303\363p\035W\014W\2554Z\246\027"
 167      DC187DC3 
 167      F3701D57 
 167      0C57AD34 
 167      5AA617
 168 0339 84FD410C 		.ascii	"\204\375A\014;\217VE\026\026\216\011\332`Mw\036B\210"
 168      3B8F5645 
 168      16168E09 
 168      DA604D77 
 168      1E4288
 169 034c F754F708 		.ascii	"\367T\367\010S\011\232g\266\337`t|\302\263\2407\025"
 169      53099A67 
 169      B6DF6074 
 169      7CC2B3A0 
 169      3715
 170 035e 82BE464C 		.ascii	"\202\276FL\005\343e\012\244n\245\220\226+\200Ip\002"
 170      05E3650A 
 170      A46EA590 
 170      962B8049 
 170      7002
 171 0370 14307A14 		.ascii	"\0240z\024\250i\344IW\341\320\251:\0363\210v\002\321"
 171      A869E449 
 171      57E1D0A9 
 171      3A1E3388 
 171      7602D1
 172 0383 9E76452D 		.ascii	"\236vE-\247B\003no\011\334\366\271\343\246\251\271\275"
 172      A742036E 
 172      6F09DCF6 
 172      B9E3A6A9 
 172      B9BD
 173 0395 2D707BC1 		.ascii	"-p{\301\0357\025\032p;#p\373\273;n>5\267O\004n\257\272"
 173      1D37151A 
 173      703B2370 
 173      FBBB3B6E 
 173      3E35B74F 
 174 03ad E3A64203 		.ascii	"\343\246B\003n\237\011\334\336p\307\315\257\346v\256"
 174      6E9F09DC 
 174      DE70C7CD 
 174      AFE676AE 
ARM GAS  /var/folders/c6/c789hm653lg9vtl73krp73tm0000gn/T//ccLd87C0.s 			page 13


 175 03bd CA1C6F30 		.ascii	"\312\034o0\001\012\346&\373\221\347I\376\037\305$\277"
 175      010AE626 
 175      FB91E749 
 175      FE1FC524 
 175      BF
 176 03ce C19AE46F 		.ascii	"\301\232\344o\226i\220\3735C\242\022\001!9\337\275{"
 176      966990FB 
 176      3543A212 
 176      012139DF 
 176      BD7B
 177 03e0 03A38730 		.ascii	"\003\243\2070$\247\312\340\344w\205\031\223y\352\230"
 177      24A7CAE0 
 177      E4778519 
 177      9379EA98 
 178 03f0 5CAC1293 		.ascii	"\\\254\022\223\355\326>=r\205!\361\214\347\240\374W"
 178      EDD63E3D 
 178      728521F1 
 178      8CE7A0FC 
 178      57
 179 0401 1194A11A 		.ascii	"\021\224\241\032+*\357\227\311p\364lj\252U\205e(?;U"
 179      2B2AEF97 
 179      C970F46C 
 179      6AAA5585 
 179      65283F3B 
 180 0416 CFA7CA31 		.ascii	"\317\247\3121|\275\237q\002J\254\314\250,\251\200V\351"
 180      7CBD9F71 
 180      024AACCC 
 180      A82CA980 
 180      56E9
 181 0428 10DF4E8C 		.ascii	"\020\337N\214\036\306\227\306\021z5\330i\264'\321\376"
 181      1EC697C6 
 181      117A35D8 
 181      69B427D1 
 181      FE
 182 0439 0BED3B68 		.ascii	"\013\355;h\337E{\012\355{h\377\215\366C\264\037\243"
 182      DF457B0A 
 182      ED7B68FF 
 182      8DF643B4 
 182      1FA3
 183 044b 3D8DF653 		.ascii	"=\215\366S\260\326\261\200\334e\377<*\275PUQ=K\027\230"
 183      B0D6B180 
 183      DC65FF3C 
 183      2ABD5055 
 183      513D4B17 
 184 0460 AD14E9C5 		.ascii	"\255\024\351\305\006\263I}\231\327KJ/F\377\347y\200"
 184      06B3497D 
 184      99D74B4A 
 184      2F46FFE7 
 184      7980
 185 0472 CF2B06D8 		.ascii	"\317+\006\330\"(yUJ\010\012V\306v\217\235\262\345\377"
 185      22287955 
 185      4A080A56 
 185      C6768F9D 
 185      B2E5FF
 186 0485 30431B19 		.ascii	"0C\033\031\275\200Y\305\331\271\263\012\007\010\357"
 186      BD8059C5 
 186      D9B9B30A 
ARM GAS  /var/folders/c6/c789hm653lg9vtl73krp73tm0000gn/T//ccLd87C0.s 			page 14


 186      0708EF
 187 0494 73B62CA9 		.ascii	"s\266,\251\230\306\244bv\356\244bt(\177|z\364*\236T"
 187      98C6A462 
 187      76EEA462 
 187      74287F7C 
 187      7AF42A9E 
 188 04a9 58A944FE 		.ascii	"X\251D\376KH%4r\011\245\314V\237\233D=\321\247\246\205"
 188      4B482534 
 188      7209A5CC 
 188      569F9B44 
 188      3DD1A7A6 
 189 04be 893EECF7 		.ascii	"\211>\354\367\012\326(\201\235\020\301\356t\003V\247"
 189      0AD62881 
 189      9D10C1EE 
 189      740356A7 
 190 04ce 66362382 		.ascii	"f6#\202\375\3263\230\314\354-\021l\324\015\330B5\263"
 190      FDD63398 
 190      CCEC2D11 
 190      6CD40DD8 
 190      4235B3
 191 04e1 B745B031 		.ascii	"\267E\2601\317`\"3x_\376\224o\300\347p\003~\304\211"
 191      CF602233 
 191      785FFE94 
 191      6FC0E770 
 191      037EC489 
 192 04f5 25AD27A3 		.ascii	"%\255'\243\272XM\354\023\221X\316\015\261Fu\310>\023"
 192      BA584DEC 
 192      139158CE 
 192      0DB14675 
 192      C83E13
 193 0508 C11E7703 		.ascii	"\301\036w\003\366]5\263s\"\330S\236\301df\347E\260\335"
 193      F65D35B3 
 193      7322D853 
 193      9EC16466 
 193      E745B0DD 
 194 051c 6EC09AD5 		.ascii	"n\300\232\325\314.\212`{=\203\311\314fE\260\027\334"
 194      CC2E8A60 
 194      7B3D83C9 
 194      CC6645B0 
 194      17DC
 195 052e 80AD5433 		.ascii	"\200\255T3\273$\202\345=\203\011\314F\007\363#\353\255"
 195      BB2482E5 
 195      3D8309CC 
 195      4607F323 
 195      EBAD
 196 0540 17736E15 		.ascii	"\027sn\025\337\202\213\366\256\275J^@\222\333\204\322"
 196      DF828BF6 
 196      AEBD4A5E 
 196      4092DB84 
 196      D2
 197 0551 8DD14735 		.ascii	"\215\321G5\257\233\373\270Vys\227\1776\232^<\203t\312"
 197      AF9BFBB8 
 197      56797397 
 197      7F369A5E 
 197      3C8374CA 
 198 0565 964818D5 		.ascii	"\226H\030\325U\212\030\302\256\273m\006cX\304\030\036"
 198      558A18C2 
ARM GAS  /var/folders/c6/c789hm653lg9vtl73krp73tm0000gn/T//ccLd87C0.s 			page 15


 198      AEBB6D06 
 198      6358C418 
 198      1E
 199 0576 7213C30E 		.ascii	"r\023\303\0165\330\250\010\366\017\317`\362\200\374"
 199      35D8A808 
 199      F60FCF60 
 199      F280FC
 200 0585 6EBD9C29 		.ascii	"n\275\234)\011\343\241[\351\312Bq@\312\022*\207\033"
 200      09E3A15B 
 200      E9CA4271 
 200      40CA122A 
 200      871B
 201 0597 A38F7B1E 		.ascii	"\243\217{\036\220'\024\003b\177\204\023\275@\366\021"
 201      90271403 
 201      627F8413 
 201      BD40F611 
 202 05a7 A76C9985 		.ascii	"\247l\231\205Q\355R\005q0?\246\326\235\263\240\256\250"
 202      51ED5205 
 202      71303FA6 
 202      D69DB3A0 
 202      AEA8
 203 05b9 A6DBE9C6 		.ascii	"\246\333\351\306\350S\236u\357R\350\366K\272w\331\272"
 203      E8539E75 
 203      EF52E8F6 
 203      4BBA77D9 
 203      BA
 204 05ca A79CBA65 		.ascii	"\247\234\272e\026Fu\203B7$\013\017\255\347s\2073et\006"
 204      16467583 
 204      4237240B 
 204      0FADE773 
 204      87336574 
 205 05df BFA8CD05 		.ascii	"\277\250\315\005\266I1y`kxdF\330\032N\272\231\211[*"
 205      B6493179 
 205      606B7864 
 205      46D81A4E 
 205      BA99895B 
 206 05f4 FD9CAC74 		.ascii	"\375\234\254t\210y\016\243\237c\"r\011\223\313A\215"
 206      88790EA3 
 206      9F632272 
 206      0993CB41 
 206      8D
 207 0605 DB21B4B7 		.ascii	"\333!\264\267\243\375\015\332;\321\336\215\366^\264"
 207      A3FD0DDA 
 207      3BD1DE8D 
 207      F65EB4
 208 0614 F7A1DD8A 		.ascii	"\367\241\335\212\366~\264\017\240\375=\332\007\321>"
 208      F67EB40F 
 208      A0FD3DDA 
 208      07D13E
 209 0623 8C3687F6 		.ascii	"\2146\207\3661\264\023hw\242}\006\355\263\232:\235\275"
 209      31B41368 
 209      77A27D06 
 209      EDB39A3A 
 209      9DBD
 210 0635 50259DFD 		.ascii	"P%\235\375\223fe\213\337$\333\365\303\207\013\357}4"
 210      9366658B 
 210      DF24DBF5 
ARM GAS  /var/folders/c6/c789hm653lg9vtl73krp73tm0000gn/T//ccLd87C0.s 			page 16


 210      C3870BEF 
 210      7D34
 211 0647 46B714F4 		.ascii	"F\267\024\364\021\375R\261H\355\344\325\372\342\227"
 211      11FD52B1 
 211      48EDE4D5 
 211      FAE297
 212 0656 AFFEC58F 		.ascii	"\257\376\305\217\377\017B\023>\017.\256\354\313\350"
 212      FF0F4213 
 212      3E0F2EAE 
 212      ECCBE8
 213 0665 5E8DC76B 		.ascii	"^\215\307k\2370\273Ju\263V\372\360\370\256\337\361\317"
 213      9F30BB4A 
 213      75B356FA 
 213      F0F8AEDF 
 213      F1CF
 214 0677 1B3BF8D5 		.ascii	"\033;\370\325\233\032\235~`M\227oH\013\205g\343\334"
 214      9B1A9D7E 
 214      604D976F 
 214      480B8567 
 214      E3DC
 215 0689 55E1C6E8 		.ascii	"U\341\306\350\244\347\205\262_\261P\226H\254\367\333"
 215      A4E785B2 
 215      5FB15096 
 215      48ACF7DB 
 216 0699 0BE57DBF 		.ascii	"\013\345}\277\343\323\267\223\205FN\373\315\224z>\257"
 216      E3D3B793 
 216      85464EFB 
 216      CD947A3E 
 216      AF
 217 06aa 7CBFA929 		.ascii	"|\277\251)X\372K\367\007{X2\270)\235\311\366\007\343"
 217      58FA4BF7 
 217      077B5832 
 217      B8299DC9 
 217      F607E3
 218 06bd E9BEBE74 		.ascii	"\351\276\276t*\330\032\351\014u\336\026L\375\2427\336"
 218      2AD81AE9 
 218      0C75DE16 
 218      4CFDA237 
 218      DE
 219 06ce 14273F0E 		.ascii	"\024'?\016\016\364g\202\311t\034\334B\211d\222e\202"
 219      0EF46782 
 219      C9741CDC 
 219      42896492 
 219      6582
 220 06e0 B7C6E3CB 		.ascii	"\267\306\343\313X\246oY*\235J,K\260\233{\203-\315\313"
 220      58A66F59 
 220      2A9D4A2C 
 220      4BB09B7B 
 220      832DCDCB 
 221 06f4 5734AF6C 		.ascii	"W4\257l\276>(\337\356M\305\223\003\033\023\301\376\354"
 221      BE3E28DF 
 221      EE4DC593 
 221      031B13C1 
 221      FEEC
 222 0706 C6DE54B6 		.ascii	"\306\336T\266\251\207\324\015\300\371\272\226Xv\336"
 222      A987D40D 
 222      C0F9BA96 
ARM GAS  /var/folders/c6/c789hm653lg9vtl73krp73tm0000gn/T//ccLd87C0.s 			page 17


 222      5876DE
 223 0715 8F6E5AD7 		.ascii	"\217nZ\327\030\"?\377\022\300\373X\274\2477\225\010"
 223      18223FFF 
 223      12C0FB58 
 223      BCA73795 
 223      08
 224 0726 C636266E 		.ascii	"\3066&na\003\311l,\273yS\242\037:\233\037\213\231\335"
 224      6103C96C 
 224      2CBB7953 
 224      A21F3A9B 
 224      1F8B99DD 
 225 073a 2DE462DA 		.ascii	"-\344b\332S\354\346d\242;\021\317\24634\345\337\224"
 225      53ECE664 
 225      A23B11CF 
 225      A63334E5 
 225      DF94
 226 074c E94D2FE2 		.ascii	"\351M/\342\367\333z\373\355\007K\370\235h\"\033\335"
 226      F7DB7AFB 
 226      ED074BF8 
 226      9D68221B 
 226      DD
 227 075d DC9F4DF4 		.ascii	"\334\237M\364u\260\324\306d\"\323\005\256\231\336\354"
 227      75B0D4C6 
 227      6422D305 
 227      AE99DEEC 
 228 076d E6DA9ED2 		.ascii	"\346\332\236\3225\302\205\222\011\226\351J\244@\332"
 228      35C28592 
 228      0996E94A 
 228      A440DA
 229 077c ADB5BCA3 		.ascii	"\255\265\274\243\225\261l\240\324%\324\276'\2068q[6"
 229      95B16CA0 
 229      D425D4BE 
 229      27863871 
 229      5B36
 230 078e 18EA8C86 		.ascii	"\030\352\214\206\243\026\351x:\223\210\305\373V\000"
 230      A316E978 
 230      3A9388C5 
 230      FB5600
 231 079d CDC04DDD 		.ascii	"\315\300M\335\341Pl-\220\366\207\243\355\221@\244\035"
 231      E1506C2D 
 231      90F687A3 
 231      ED9140A4 
 231      1D
 232 07ae 6C777B5B 		.ascii	"lw{[\263?\034j\217\324EJW\313\341a\227\375\260\005\036"
 232      B33F1C6A 
 232      8FD4454A 
 232      57CBE161 
 232      97FDB005 
 233 07c3 0A97D7F9 		.ascii	"\012\227\327\371\303\255\253\355\313\025Z\270\313"
 233      C3ADABED 
 233      CB155AB8 
 233      CB
 234 07d0 BAB8DE1F 		.ascii	"\272\270\336\037]\033\216\324EC\253\261\223\232P\327"
 234      5D1B8ED4 
 234      4543ABB1 
 234      939A50D7 
 235 07e0 BA701B34 		.ascii	"\272p\0334\217F\374\335k\177\022\251i\015GB\021_\024"
ARM GAS  /var/folders/c6/c789hm653lg9vtl73krp73tm0000gn/T//ccLd87C0.s 			page 18


 235      8F46FCDD 
 235      6B7F12A9 
 235      690D4742 
 235      115F14
 236 07f3 4A889F3B 		.ascii	"J\210\237;\272j\242\035\374ah\015\230\016n\332\300\324"
 236      BA6AA21D 
 236      FC61680D 
 236      980E6EDA 
 236      C0D4
 237 0805 7476AE69 		.ascii	"tv\256i\215\370Ws\323\012\327\276\2565\021_\033\224"
 237      8DF85773 
 237      D30AD7BE 
 237      AE35115F 
 237      1B94
 238 0817 D6B6881F 		.ascii	"\326\266\210\037\236E\200_k\004\300[C\021\177\274\207"
 238      9E45805F 
 238      6B04C05B 
 238      43117FBC 
 238      87
 239 0828 65EA62B1 		.ascii	"e\352b\261[\006R\361X\354+f\245\351\206\226\025-\377"
 239      5B0652F1 
 239      58EC2B66 
 239      A5E98696 
 239      152DFF
 240 083b 0716F37C 		.ascii	"\007\026\363|\017"
 240      0F
 241              		.text
 242              		.section	.gnu.lto_.symtab.e9a3f4365805eac3,"",%progbits
 243 0000 6E766963 		.ascii	"nvicEnableVector\000\000\000\000\000\000\000\000\000"
 243      456E6162 
 243      6C655665 
 243      63746F72 
 243      00000000 
 244 0019 000000A1 		.ascii	"\000\000\000\241\000\000\000nvicDisableVector\000\000"
 244      0000006E 
 244      76696344 
 244      69736162 
 244      6C655665 
 245 0033 00000000 		.ascii	"\000\000\000\000\000\000\000\000\000\000\262\000\000"
 245      00000000 
 245      0000B200 
 245      00
 246 0040 006E7669 		.ascii	"\000nvicSetSystemHandlerPriority\000\000\000\000\000"
 246      63536574 
 246      53797374 
 246      656D4861 
 246      6E646C65 
 247 0062 00000000 		.ascii	"\000\000\000\000\000\000\000\270\000\000\000nvicCle"
 247      000000B8 
 247      0000006E 
 247      76696343 
 247      6C65
 248 0074 61725065 		.ascii	"arPending\000\000\000\000\000\000\000\000\000\000\000"
 248      6E64696E 
 248      67000000 
 248      00000000 
 248      00000000 
ARM GAS  /var/folders/c6/c789hm653lg9vtl73krp73tm0000gn/T//ccLd87C0.s 			page 19


 249 0088 00BE0000 		.ascii	"\000\276\000\000\000"
 249      00
 250              		.text
 251              		.section	.gnu.lto_.opts,"",%progbits
 252 0000 272D6D63 		.ascii	"'-mcpu=cortex-m4' '-mno-thumb-interwork' '-mthumb' "
 252      70753D63 
 252      6F727465 
 252      782D6D34 
 252      2720272D 
 253 0033 272D6767 		.ascii	"'-ggdb' '-O2' '-fomit-frame-pointer' '-falign-funct"
 253      64622720 
 253      272D4F32 
 253      2720272D 
 253      666F6D69 
 254 0066 696F6E73 		.ascii	"ions=16' '-ffunction-sections' '-fdata-sections' '-"
 254      3D313627 
 254      20272D66 
 254      66756E63 
 254      74696F6E 
 255 0099 666E6F2D 		.ascii	"fno-common' '-flto'\000"
 255      636F6D6D 
 255      6F6E2720 
 255      272D666C 
 255      746F2700 
 256              		.text
 257              		.cfi_sections	.debug_frame
 258              		.section	.text.nvicEnableVector,"ax",%progbits
 259              		.align	2
 260              		.p2align 4,,15
 261              		.global	nvicEnableVector
 262              		.thumb
 263              		.thumb_func
 264              		.type	nvicEnableVector, %function
 265              	nvicEnableVector:
 266              	.LFB260:
 267              		.file 1 "../../../os/hal/ports/common/ARMCMx/nvic.c"
 268              		.loc 1 57 0
 269              		.cfi_startproc
 270              		@ args = 0, pretend = 0, frame = 0
 271              		@ frame_needed = 0, uses_anonymous_args = 0
 272              		@ link register save eliminated.
 273              	.LVL0:
 274              		.loc 1 60 0
 275 0000 4309     		lsrs	r3, r0, #5
 276 0002 9B00     		lsls	r3, r3, #2
 277              		.loc 1 59 0
 278 0004 00F16042 		add	r2, r0, #-536870912
 279 0008 03F16043 		add	r3, r3, #-536870912
 280              		.loc 1 57 0
 281 000c 10B4     		push	{r4}
 282              		.cfi_def_cfa_offset 4
 283              		.cfi_offset 4, -4
 284 000e 03F56143 		add	r3, r3, #57600
 285              		.loc 1 60 0
 286 0012 0124     		movs	r4, #1
 287              		.loc 1 59 0
 288 0014 0901     		lsls	r1, r1, #4
ARM GAS  /var/folders/c6/c789hm653lg9vtl73krp73tm0000gn/T//ccLd87C0.s 			page 20


 289              	.LVL1:
 290 0016 02F56142 		add	r2, r2, #57600
 291              		.loc 1 60 0
 292 001a 00F01F00 		and	r0, r0, #31
 293              	.LVL2:
 294 001e 04FA00F0 		lsl	r0, r4, r0
 295              		.loc 1 59 0
 296 0022 C9B2     		uxtb	r1, r1
 297 0024 82F80013 		strb	r1, [r2, #768]
 298              		.loc 1 60 0
 299 0028 C3F88001 		str	r0, [r3, #384]
 300              		.loc 1 61 0
 301 002c 1860     		str	r0, [r3]
 302              		.loc 1 62 0
 303 002e 5DF8044B 		ldr	r4, [sp], #4
 304 0032 7047     		bx	lr
 305              		.cfi_endproc
 306              	.LFE260:
 307              		.size	nvicEnableVector, .-nvicEnableVector
 308 0034 AFF30080 		.section	.text.nvicDisableVector,"ax",%progbits
 308      AFF30080 
 308      AFF30080 
 309              		.align	2
 310              		.p2align 4,,15
 311              		.global	nvicDisableVector
 312              		.thumb
 313              		.thumb_func
 314              		.type	nvicDisableVector, %function
 315              	nvicDisableVector:
 316              	.LFB261:
 317              		.loc 1 69 0
 318              		.cfi_startproc
 319              		@ args = 0, pretend = 0, frame = 0
 320              		@ frame_needed = 0, uses_anonymous_args = 0
 321              		@ link register save eliminated.
 322              	.LVL3:
 323              		.loc 1 71 0
 324 0000 084B     		ldr	r3, .L3
 325 0002 4109     		lsrs	r1, r0, #5
 326              		.loc 1 69 0
 327 0004 10B4     		push	{r4}
 328              		.cfi_def_cfa_offset 4
 329              		.cfi_offset 4, -4
 330              		.loc 1 71 0
 331 0006 00F01F02 		and	r2, r0, #31
 332 000a 2031     		adds	r1, r1, #32
 333 000c 0124     		movs	r4, #1
 334              		.loc 1 72 0
 335 000e 1844     		add	r0, r0, r3
 336              	.LVL4:
 337              		.loc 1 71 0
 338 0010 9440     		lsls	r4, r4, r2
 339              		.loc 1 72 0
 340 0012 0022     		movs	r2, #0
 341              		.loc 1 71 0
 342 0014 43F82140 		str	r4, [r3, r1, lsl #2]
 343              		.loc 1 72 0
ARM GAS  /var/folders/c6/c789hm653lg9vtl73krp73tm0000gn/T//ccLd87C0.s 			page 21


 344 0018 80F80023 		strb	r2, [r0, #768]
 345              		.loc 1 73 0
 346 001c 5DF8044B 		ldr	r4, [sp], #4
 347 0020 7047     		bx	lr
 348              	.L4:
 349 0022 00BF     		.align	2
 350              	.L3:
 351 0024 00E100E0 		.word	-536813312
 352              		.cfi_endproc
 353              	.LFE261:
 354              		.size	nvicDisableVector, .-nvicDisableVector
 355 0028 AFF30080 		.section	.text.nvicSetSystemHandlerPriority,"ax",%progbits
 355      AFF30080 
 356              		.align	2
 357              		.p2align 4,,15
 358              		.global	nvicSetSystemHandlerPriority
 359              		.thumb
 360              		.thumb_func
 361              		.type	nvicSetSystemHandlerPriority, %function
 362              	nvicSetSystemHandlerPriority:
 363              	.LFB262:
 364              		.loc 1 81 0
 365              		.cfi_startproc
 366              		@ args = 0, pretend = 0, frame = 0
 367              		@ frame_needed = 0, uses_anonymous_args = 0
 368              		@ link register save eliminated.
 369              	.LVL5:
 370              		.loc 1 85 0
 371 0000 00F16040 		add	r0, r0, #-536870912
 372              	.LVL6:
 373 0004 00F56D40 		add	r0, r0, #60672
 374              	.LVL7:
 375 0008 0901     		lsls	r1, r1, #4
 376              	.LVL8:
 377 000a C9B2     		uxtb	r1, r1
 378 000c 0176     		strb	r1, [r0, #24]
 379 000e 7047     		bx	lr
 380              		.cfi_endproc
 381              	.LFE262:
 382              		.size	nvicSetSystemHandlerPriority, .-nvicSetSystemHandlerPriority
 383              		.section	.text.nvicClearPending,"ax",%progbits
 384              		.align	2
 385              		.p2align 4,,15
 386              		.global	nvicClearPending
 387              		.thumb
 388              		.thumb_func
 389              		.type	nvicClearPending, %function
 390              	nvicClearPending:
 391              	.LFB263:
 392              		.loc 1 93 0
 393              		.cfi_startproc
 394              		@ args = 0, pretend = 0, frame = 0
 395              		@ frame_needed = 0, uses_anonymous_args = 0
 396              		@ link register save eliminated.
 397              	.LVL9:
 398              		.loc 1 95 0
 399 0000 4209     		lsrs	r2, r0, #5
ARM GAS  /var/folders/c6/c789hm653lg9vtl73krp73tm0000gn/T//ccLd87C0.s 			page 22


 400 0002 6032     		adds	r2, r2, #96
 401 0004 00F01F00 		and	r0, r0, #31
 402              	.LVL10:
 403 0008 0121     		movs	r1, #1
 404 000a 034B     		ldr	r3, .L7
 405 000c 01FA00F0 		lsl	r0, r1, r0
 406 0010 43F82200 		str	r0, [r3, r2, lsl #2]
 407 0014 7047     		bx	lr
 408              	.L8:
 409 0016 00BF     		.align	2
 410              	.L7:
 411 0018 00E100E0 		.word	-536813312
 412              		.cfi_endproc
 413              	.LFE263:
 414              		.size	nvicClearPending, .-nvicClearPending
 415 001c AFF30080 		.text
 416              	.Letext0:
 417              		.file 2 "/usr/local/Cellar/gcc-arm-none-eabi/20140805/arm-none-eabi/include/machine/_default_types
 418              		.file 3 "/usr/local/Cellar/gcc-arm-none-eabi/20140805/arm-none-eabi/include/stdint.h"
 419              		.file 4 "../../../os/rt/ports/ARMCMx/compilers/GCC/chtypes.h"
 420              		.file 5 "../../../os/rt/include/chsystypes.h"
 421              		.file 6 "../../../os/rt/include/chschd.h"
 422              		.file 7 "../../../os/ext/CMSIS/include/core_cm4.h"
 423              		.file 8 "../../../os/rt/ports/ARMCMx/chcore.h"
 424              		.file 9 "../../../os/rt/ports/ARMCMx/chcore_v7m.h"
 425              		.file 10 "../../../os/rt/include/chtm.h"
 426              		.file 11 "../../../os/rt/include/chsem.h"
 427              		.file 12 "../../../os/rt/include/chmtx.h"
 428              		.section	.debug_info,"",%progbits
 429              	.Ldebug_info0:
 430 0000 CB090000 		.4byte	0x9cb
 431 0004 0400     		.2byte	0x4
 432 0006 00000000 		.4byte	.Ldebug_abbrev0
 433 000a 04       		.byte	0x4
 434 000b 01       		.uleb128 0x1
 435 000c 90050000 		.4byte	.LASF137
 436 0010 01       		.byte	0x1
 437 0011 05050000 		.4byte	.LASF138
 438 0015 5B040000 		.4byte	.LASF139
 439 0019 00000000 		.4byte	.Ldebug_ranges0+0
 440 001d 00000000 		.4byte	0
 441 0021 00000000 		.4byte	.Ldebug_line0
 442 0025 02       		.uleb128 0x2
 443 0026 04       		.byte	0x4
 444 0027 05       		.byte	0x5
 445 0028 696E7400 		.ascii	"int\000"
 446 002c 03       		.uleb128 0x3
 447 002d 04       		.byte	0x4
 448 002e 07       		.byte	0x7
 449 002f 9B010000 		.4byte	.LASF0
 450 0033 03       		.uleb128 0x3
 451 0034 01       		.byte	0x1
 452 0035 06       		.byte	0x6
 453 0036 F2000000 		.4byte	.LASF1
 454 003a 04       		.uleb128 0x4
 455 003b 45000000 		.4byte	.LASF5
 456 003f 02       		.byte	0x2
ARM GAS  /var/folders/c6/c789hm653lg9vtl73krp73tm0000gn/T//ccLd87C0.s 			page 23


 457 0040 1C       		.byte	0x1c
 458 0041 45000000 		.4byte	0x45
 459 0045 03       		.uleb128 0x3
 460 0046 01       		.byte	0x1
 461 0047 08       		.byte	0x8
 462 0048 4C030000 		.4byte	.LASF2
 463 004c 03       		.uleb128 0x3
 464 004d 02       		.byte	0x2
 465 004e 05       		.byte	0x5
 466 004f 7F030000 		.4byte	.LASF3
 467 0053 03       		.uleb128 0x3
 468 0054 02       		.byte	0x2
 469 0055 07       		.byte	0x7
 470 0056 D2030000 		.4byte	.LASF4
 471 005a 04       		.uleb128 0x4
 472 005b 33020000 		.4byte	.LASF6
 473 005f 02       		.byte	0x2
 474 0060 37       		.byte	0x37
 475 0061 65000000 		.4byte	0x65
 476 0065 03       		.uleb128 0x3
 477 0066 04       		.byte	0x4
 478 0067 05       		.byte	0x5
 479 0068 30010000 		.4byte	.LASF7
 480 006c 04       		.uleb128 0x4
 481 006d D9040000 		.4byte	.LASF8
 482 0071 02       		.byte	0x2
 483 0072 38       		.byte	0x38
 484 0073 77000000 		.4byte	0x77
 485 0077 03       		.uleb128 0x3
 486 0078 04       		.byte	0x4
 487 0079 07       		.byte	0x7
 488 007a 49040000 		.4byte	.LASF9
 489 007e 03       		.uleb128 0x3
 490 007f 08       		.byte	0x8
 491 0080 05       		.byte	0x5
 492 0081 E4000000 		.4byte	.LASF10
 493 0085 04       		.uleb128 0x4
 494 0086 E4020000 		.4byte	.LASF11
 495 008a 02       		.byte	0x2
 496 008b 4E       		.byte	0x4e
 497 008c 90000000 		.4byte	0x90
 498 0090 03       		.uleb128 0x3
 499 0091 08       		.byte	0x8
 500 0092 07       		.byte	0x7
 501 0093 6A000000 		.4byte	.LASF12
 502 0097 04       		.uleb128 0x4
 503 0098 62050000 		.4byte	.LASF13
 504 009c 03       		.byte	0x3
 505 009d 2A       		.byte	0x2a
 506 009e 3A000000 		.4byte	0x3a
 507 00a2 04       		.uleb128 0x4
 508 00a3 44030000 		.4byte	.LASF14
 509 00a7 03       		.byte	0x3
 510 00a8 41       		.byte	0x41
 511 00a9 5A000000 		.4byte	0x5a
 512 00ad 04       		.uleb128 0x4
 513 00ae 18040000 		.4byte	.LASF15
ARM GAS  /var/folders/c6/c789hm653lg9vtl73krp73tm0000gn/T//ccLd87C0.s 			page 24


 514 00b2 03       		.byte	0x3
 515 00b3 42       		.byte	0x42
 516 00b4 6C000000 		.4byte	0x6c
 517 00b8 04       		.uleb128 0x4
 518 00b9 3C000000 		.4byte	.LASF16
 519 00bd 03       		.byte	0x3
 520 00be 4E       		.byte	0x4e
 521 00bf 85000000 		.4byte	0x85
 522 00c3 05       		.uleb128 0x5
 523 00c4 A2000000 		.4byte	0xa2
 524 00c8 05       		.uleb128 0x5
 525 00c9 AD000000 		.4byte	0xad
 526 00cd 04       		.uleb128 0x4
 527 00ce FD040000 		.4byte	.LASF17
 528 00d2 04       		.byte	0x4
 529 00d3 45       		.byte	0x45
 530 00d4 AD000000 		.4byte	0xad
 531 00d8 04       		.uleb128 0x4
 532 00d9 11020000 		.4byte	.LASF18
 533 00dd 04       		.byte	0x4
 534 00de 48       		.byte	0x48
 535 00df 97000000 		.4byte	0x97
 536 00e3 04       		.uleb128 0x4
 537 00e4 39010000 		.4byte	.LASF19
 538 00e8 04       		.byte	0x4
 539 00e9 49       		.byte	0x49
 540 00ea 97000000 		.4byte	0x97
 541 00ee 04       		.uleb128 0x4
 542 00ef EF020000 		.4byte	.LASF20
 543 00f3 04       		.byte	0x4
 544 00f4 4A       		.byte	0x4a
 545 00f5 97000000 		.4byte	0x97
 546 00f9 04       		.uleb128 0x4
 547 00fa 26030000 		.4byte	.LASF21
 548 00fe 04       		.byte	0x4
 549 00ff 4C       		.byte	0x4c
 550 0100 AD000000 		.4byte	0xad
 551 0104 04       		.uleb128 0x4
 552 0105 EE010000 		.4byte	.LASF22
 553 0109 04       		.byte	0x4
 554 010a 4D       		.byte	0x4d
 555 010b A2000000 		.4byte	0xa2
 556 010f 04       		.uleb128 0x4
 557 0110 27020000 		.4byte	.LASF23
 558 0114 04       		.byte	0x4
 559 0115 4F       		.byte	0x4f
 560 0116 AD000000 		.4byte	0xad
 561 011a 04       		.uleb128 0x4
 562 011b 95010000 		.4byte	.LASF24
 563 011f 04       		.byte	0x4
 564 0120 51       		.byte	0x51
 565 0121 A2000000 		.4byte	0xa2
 566 0125 04       		.uleb128 0x4
 567 0126 BB040000 		.4byte	.LASF25
 568 012a 05       		.byte	0x5
 569 012b 33       		.byte	0x33
 570 012c AD000000 		.4byte	0xad
ARM GAS  /var/folders/c6/c789hm653lg9vtl73krp73tm0000gn/T//ccLd87C0.s 			page 25


 571 0130 04       		.uleb128 0x4
 572 0131 AB040000 		.4byte	.LASF26
 573 0135 05       		.byte	0x5
 574 0136 3F       		.byte	0x3f
 575 0137 3B010000 		.4byte	0x13b
 576 013b 06       		.uleb128 0x6
 577 013c DF010000 		.4byte	.LASF46
 578 0140 44       		.byte	0x44
 579 0141 06       		.byte	0x6
 580 0142 C2       		.byte	0xc2
 581 0143 28020000 		.4byte	0x228
 582 0147 07       		.uleb128 0x7
 583 0148 C3030000 		.4byte	.LASF27
 584 014c 06       		.byte	0x6
 585 014d C3       		.byte	0xc3
 586 014e 33020000 		.4byte	0x233
 587 0152 00       		.byte	0
 588 0153 07       		.uleb128 0x7
 589 0154 1F030000 		.4byte	.LASF28
 590 0158 06       		.byte	0x6
 591 0159 C5       		.byte	0xc5
 592 015a 33020000 		.4byte	0x233
 593 015e 04       		.byte	0x4
 594 015f 07       		.uleb128 0x7
 595 0160 C7000000 		.4byte	.LASF29
 596 0164 06       		.byte	0x6
 597 0165 C7       		.byte	0xc7
 598 0166 F9000000 		.4byte	0xf9
 599 016a 08       		.byte	0x8
 600 016b 07       		.uleb128 0x7
 601 016c 89060000 		.4byte	.LASF30
 602 0170 06       		.byte	0x6
 603 0171 C8       		.byte	0xc8
 604 0172 29070000 		.4byte	0x729
 605 0176 0C       		.byte	0xc
 606 0177 07       		.uleb128 0x7
 607 0178 42010000 		.4byte	.LASF31
 608 017c 06       		.byte	0x6
 609 017d CA       		.byte	0xca
 610 017e 33020000 		.4byte	0x233
 611 0182 10       		.byte	0x10
 612 0183 07       		.uleb128 0x7
 613 0184 B3020000 		.4byte	.LASF32
 614 0188 06       		.byte	0x6
 615 0189 CB       		.byte	0xcb
 616 018a 33020000 		.4byte	0x233
 617 018e 14       		.byte	0x14
 618 018f 07       		.uleb128 0x7
 619 0190 7F050000 		.4byte	.LASF33
 620 0194 06       		.byte	0x6
 621 0195 D2       		.byte	0xd2
 622 0196 A8080000 		.4byte	0x8a8
 623 019a 18       		.byte	0x18
 624 019b 07       		.uleb128 0x7
 625 019c 6D030000 		.4byte	.LASF34
 626 01a0 06       		.byte	0x6
 627 01a1 DD       		.byte	0xdd
ARM GAS  /var/folders/c6/c789hm653lg9vtl73krp73tm0000gn/T//ccLd87C0.s 			page 26


 628 01a2 E3000000 		.4byte	0xe3
 629 01a6 1C       		.byte	0x1c
 630 01a7 07       		.uleb128 0x7
 631 01a8 CA030000 		.4byte	.LASF35
 632 01ac 06       		.byte	0x6
 633 01ad E1       		.byte	0xe1
 634 01ae D8000000 		.4byte	0xd8
 635 01b2 1D       		.byte	0x1d
 636 01b3 07       		.uleb128 0x7
 637 01b4 50050000 		.4byte	.LASF36
 638 01b8 06       		.byte	0x6
 639 01b9 E6       		.byte	0xe6
 640 01ba EE000000 		.4byte	0xee
 641 01be 1E       		.byte	0x1e
 642 01bf 08       		.uleb128 0x8
 643 01c0 705F7500 		.ascii	"p_u\000"
 644 01c4 06       		.byte	0x6
 645 01c5 3101     		.2byte	0x131
 646 01c7 E3070000 		.4byte	0x7e3
 647 01cb 20       		.byte	0x20
 648 01cc 09       		.uleb128 0x9
 649 01cd 60020000 		.4byte	.LASF37
 650 01d1 06       		.byte	0x6
 651 01d2 3601     		.2byte	0x136
 652 01d4 39020000 		.4byte	0x239
 653 01d8 24       		.byte	0x24
 654 01d9 09       		.uleb128 0x9
 655 01da C9010000 		.4byte	.LASF38
 656 01de 06       		.byte	0x6
 657 01df 3C01     		.2byte	0x13c
 658 01e1 5D020000 		.4byte	0x25d
 659 01e5 28       		.byte	0x28
 660 01e6 09       		.uleb128 0x9
 661 01e7 70060000 		.4byte	.LASF39
 662 01eb 06       		.byte	0x6
 663 01ec 4001     		.2byte	0x140
 664 01ee 04010000 		.4byte	0x104
 665 01f2 30       		.byte	0x30
 666 01f3 09       		.uleb128 0x9
 667 01f4 03040000 		.4byte	.LASF40
 668 01f8 06       		.byte	0x6
 669 01f9 4601     		.2byte	0x146
 670 01fb 0F010000 		.4byte	0x10f
 671 01ff 34       		.byte	0x34
 672 0200 09       		.uleb128 0x9
 673 0201 75030000 		.4byte	.LASF41
 674 0205 06       		.byte	0x6
 675 0206 4D01     		.2byte	0x14d
 676 0208 A2080000 		.4byte	0x8a2
 677 020c 38       		.byte	0x38
 678 020d 09       		.uleb128 0x9
 679 020e C5040000 		.4byte	.LASF42
 680 0212 06       		.byte	0x6
 681 0213 5101     		.2byte	0x151
 682 0215 F9000000 		.4byte	0xf9
 683 0219 3C       		.byte	0x3c
 684 021a 09       		.uleb128 0x9
ARM GAS  /var/folders/c6/c789hm653lg9vtl73krp73tm0000gn/T//ccLd87C0.s 			page 27


 685 021b FE000000 		.4byte	.LASF43
 686 021f 06       		.byte	0x6
 687 0220 5801     		.2byte	0x158
 688 0222 10030000 		.4byte	0x310
 689 0226 40       		.byte	0x40
 690 0227 00       		.byte	0
 691 0228 04       		.uleb128 0x4
 692 0229 73020000 		.4byte	.LASF44
 693 022d 05       		.byte	0x5
 694 022e 44       		.byte	0x44
 695 022f 33020000 		.4byte	0x233
 696 0233 0A       		.uleb128 0xa
 697 0234 04       		.byte	0x4
 698 0235 30010000 		.4byte	0x130
 699 0239 04       		.uleb128 0x4
 700 023a 00000000 		.4byte	.LASF45
 701 023e 05       		.byte	0x5
 702 023f 49       		.byte	0x49
 703 0240 44020000 		.4byte	0x244
 704 0244 06       		.uleb128 0x6
 705 0245 39040000 		.4byte	.LASF47
 706 0249 04       		.byte	0x4
 707 024a 06       		.byte	0x6
 708 024b B0       		.byte	0xb0
 709 024c 5D020000 		.4byte	0x25d
 710 0250 07       		.uleb128 0x7
 711 0251 C3030000 		.4byte	.LASF27
 712 0255 06       		.byte	0x6
 713 0256 B1       		.byte	0xb1
 714 0257 33020000 		.4byte	0x233
 715 025b 00       		.byte	0
 716 025c 00       		.byte	0
 717 025d 04       		.uleb128 0x4
 718 025e 37050000 		.4byte	.LASF48
 719 0262 05       		.byte	0x5
 720 0263 50       		.byte	0x50
 721 0264 68020000 		.4byte	0x268
 722 0268 06       		.uleb128 0x6
 723 0269 B1000000 		.4byte	.LASF49
 724 026d 08       		.byte	0x8
 725 026e 06       		.byte	0x6
 726 026f B7       		.byte	0xb7
 727 0270 8D020000 		.4byte	0x28d
 728 0274 07       		.uleb128 0x7
 729 0275 C3030000 		.4byte	.LASF27
 730 0279 06       		.byte	0x6
 731 027a B8       		.byte	0xb8
 732 027b 33020000 		.4byte	0x233
 733 027f 00       		.byte	0
 734 0280 07       		.uleb128 0x7
 735 0281 1F030000 		.4byte	.LASF28
 736 0285 06       		.byte	0x6
 737 0286 B9       		.byte	0xb9
 738 0287 33020000 		.4byte	0x233
 739 028b 04       		.byte	0x4
 740 028c 00       		.byte	0
 741 028d 04       		.uleb128 0x4
ARM GAS  /var/folders/c6/c789hm653lg9vtl73krp73tm0000gn/T//ccLd87C0.s 			page 28


 742 028e 14000000 		.4byte	.LASF50
 743 0292 05       		.byte	0x5
 744 0293 57       		.byte	0x57
 745 0294 98020000 		.4byte	0x298
 746 0298 0B       		.uleb128 0xb
 747 0299 19020000 		.4byte	.LASF51
 748 029d 1C       		.byte	0x1c
 749 029e 06       		.byte	0x6
 750 029f 9001     		.2byte	0x190
 751 02a1 F4020000 		.4byte	0x2f4
 752 02a5 09       		.uleb128 0x9
 753 02a6 28040000 		.4byte	.LASF52
 754 02aa 06       		.byte	0x6
 755 02ab 9101     		.2byte	0x191
 756 02ad 5D020000 		.4byte	0x25d
 757 02b1 00       		.byte	0
 758 02b2 09       		.uleb128 0x9
 759 02b3 B5030000 		.4byte	.LASF53
 760 02b7 06       		.byte	0x6
 761 02b8 9201     		.2byte	0x192
 762 02ba F9000000 		.4byte	0xf9
 763 02be 08       		.byte	0x8
 764 02bf 09       		.uleb128 0x9
 765 02c0 BB020000 		.4byte	.LASF54
 766 02c4 06       		.byte	0x6
 767 02c5 9401     		.2byte	0x194
 768 02c7 29070000 		.4byte	0x729
 769 02cb 0C       		.byte	0xc
 770 02cc 09       		.uleb128 0x9
 771 02cd 5C010000 		.4byte	.LASF55
 772 02d1 06       		.byte	0x6
 773 02d2 9701     		.2byte	0x197
 774 02d4 33020000 		.4byte	0x233
 775 02d8 10       		.byte	0x10
 776 02d9 09       		.uleb128 0x9
 777 02da DC020000 		.4byte	.LASF56
 778 02de 06       		.byte	0x6
 779 02df 9801     		.2byte	0x198
 780 02e1 33020000 		.4byte	0x233
 781 02e5 14       		.byte	0x14
 782 02e6 09       		.uleb128 0x9
 783 02e7 86050000 		.4byte	.LASF57
 784 02eb 06       		.byte	0x6
 785 02ec 9B01     		.2byte	0x19b
 786 02ee 33020000 		.4byte	0x233
 787 02f2 18       		.byte	0x18
 788 02f3 00       		.byte	0
 789 02f4 04       		.uleb128 0x4
 790 02f5 D0040000 		.4byte	.LASF58
 791 02f9 05       		.byte	0x5
 792 02fa 5C       		.byte	0x5c
 793 02fb FF020000 		.4byte	0x2ff
 794 02ff 0A       		.uleb128 0xa
 795 0300 04       		.byte	0x4
 796 0301 05030000 		.4byte	0x305
 797 0305 0C       		.uleb128 0xc
 798 0306 10030000 		.4byte	0x310
ARM GAS  /var/folders/c6/c789hm653lg9vtl73krp73tm0000gn/T//ccLd87C0.s 			page 29


 799 030a 0D       		.uleb128 0xd
 800 030b 10030000 		.4byte	0x310
 801 030f 00       		.byte	0
 802 0310 0E       		.uleb128 0xe
 803 0311 04       		.byte	0x4
 804 0312 04       		.uleb128 0x4
 805 0313 50020000 		.4byte	.LASF59
 806 0317 05       		.byte	0x5
 807 0318 61       		.byte	0x61
 808 0319 1D030000 		.4byte	0x31d
 809 031d 0B       		.uleb128 0xb
 810 031e E5030000 		.4byte	.LASF60
 811 0322 14       		.byte	0x14
 812 0323 06       		.byte	0x6
 813 0324 6B01     		.2byte	0x16b
 814 0326 6C030000 		.4byte	0x36c
 815 032a 09       		.uleb128 0x9
 816 032b A8010000 		.4byte	.LASF61
 817 032f 06       		.byte	0x6
 818 0330 6C01     		.2byte	0x16c
 819 0332 BA080000 		.4byte	0x8ba
 820 0336 00       		.byte	0
 821 0337 09       		.uleb128 0x9
 822 0338 6D010000 		.4byte	.LASF62
 823 033c 06       		.byte	0x6
 824 033d 6D01     		.2byte	0x16d
 825 033f BA080000 		.4byte	0x8ba
 826 0343 04       		.byte	0x4
 827 0344 09       		.uleb128 0x9
 828 0345 30040000 		.4byte	.LASF63
 829 0349 06       		.byte	0x6
 830 034a 6E01     		.2byte	0x16e
 831 034c 25010000 		.4byte	0x125
 832 0350 08       		.byte	0x8
 833 0351 09       		.uleb128 0x9
 834 0352 8F060000 		.4byte	.LASF64
 835 0356 06       		.byte	0x6
 836 0357 6F01     		.2byte	0x16f
 837 0359 F4020000 		.4byte	0x2f4
 838 035d 0C       		.byte	0xc
 839 035e 09       		.uleb128 0x9
 840 035f 30050000 		.4byte	.LASF65
 841 0363 06       		.byte	0x6
 842 0364 7101     		.2byte	0x171
 843 0366 10030000 		.4byte	0x310
 844 036a 10       		.byte	0x10
 845 036b 00       		.byte	0
 846 036c 04       		.uleb128 0x4
 847 036d 95000000 		.4byte	.LASF66
 848 0371 05       		.byte	0x5
 849 0372 66       		.byte	0x66
 850 0373 77030000 		.4byte	0x377
 851 0377 0B       		.uleb128 0xb
 852 0378 86020000 		.4byte	.LASF67
 853 037c 10       		.byte	0x10
 854 037d 06       		.byte	0x6
 855 037e 7B01     		.2byte	0x17b
ARM GAS  /var/folders/c6/c789hm653lg9vtl73krp73tm0000gn/T//ccLd87C0.s 			page 30


 856 0380 B9030000 		.4byte	0x3b9
 857 0384 09       		.uleb128 0x9
 858 0385 A8010000 		.4byte	.LASF61
 859 0389 06       		.byte	0x6
 860 038a 7C01     		.2byte	0x17c
 861 038c BA080000 		.4byte	0x8ba
 862 0390 00       		.byte	0
 863 0391 09       		.uleb128 0x9
 864 0392 6D010000 		.4byte	.LASF62
 865 0396 06       		.byte	0x6
 866 0397 7E01     		.2byte	0x17e
 867 0399 BA080000 		.4byte	0x8ba
 868 039d 04       		.byte	0x4
 869 039e 09       		.uleb128 0x9
 870 039f 30040000 		.4byte	.LASF63
 871 03a3 06       		.byte	0x6
 872 03a4 8001     		.2byte	0x180
 873 03a6 25010000 		.4byte	0x125
 874 03aa 08       		.byte	0x8
 875 03ab 09       		.uleb128 0x9
 876 03ac A7020000 		.4byte	.LASF68
 877 03b0 06       		.byte	0x6
 878 03b1 8801     		.2byte	0x188
 879 03b3 25010000 		.4byte	0x125
 880 03b7 0C       		.byte	0xc
 881 03b8 00       		.byte	0
 882 03b9 04       		.uleb128 0x4
 883 03ba 5B000000 		.4byte	.LASF69
 884 03be 05       		.byte	0x5
 885 03bf 6B       		.byte	0x6b
 886 03c0 C4030000 		.4byte	0x3c4
 887 03c4 0B       		.uleb128 0xb
 888 03c5 2E030000 		.4byte	.LASF70
 889 03c9 04       		.byte	0x4
 890 03ca 06       		.byte	0x6
 891 03cb A201     		.2byte	0x1a2
 892 03cd DF030000 		.4byte	0x3df
 893 03d1 09       		.uleb128 0x9
 894 03d2 E4040000 		.4byte	.LASF71
 895 03d6 06       		.byte	0x6
 896 03d7 AA01     		.2byte	0x1aa
 897 03d9 C0080000 		.4byte	0x8c0
 898 03dd 00       		.byte	0
 899 03de 00       		.byte	0
 900 03df 04       		.uleb128 0x4
 901 03e0 05020000 		.4byte	.LASF72
 902 03e4 05       		.byte	0x5
 903 03e5 70       		.byte	0x70
 904 03e6 EA030000 		.4byte	0x3ea
 905 03ea 0F       		.uleb128 0xf
 906 03eb 26010000 		.4byte	.LASF73
 907 03ef 5001     		.2byte	0x150
 908 03f1 06       		.byte	0x6
 909 03f2 C201     		.2byte	0x1c2
 910 03f4 46040000 		.4byte	0x446
 911 03f8 09       		.uleb128 0x9
 912 03f9 5C050000 		.4byte	.LASF74
ARM GAS  /var/folders/c6/c789hm653lg9vtl73krp73tm0000gn/T//ccLd87C0.s 			page 31


 913 03fd 06       		.byte	0x6
 914 03fe C601     		.2byte	0x1c6
 915 0400 8D020000 		.4byte	0x28d
 916 0404 00       		.byte	0
 917 0405 09       		.uleb128 0x9
 918 0406 1F010000 		.4byte	.LASF75
 919 040a 06       		.byte	0x6
 920 040b CA01     		.2byte	0x1ca
 921 040d 6C030000 		.4byte	0x36c
 922 0411 1C       		.byte	0x1c
 923 0412 08       		.uleb128 0x8
 924 0413 64626700 		.ascii	"dbg\000"
 925 0417 06       		.byte	0x6
 926 0418 CE01     		.2byte	0x1ce
 927 041a B9030000 		.4byte	0x3b9
 928 041e 2C       		.byte	0x2c
 929 041f 09       		.uleb128 0x9
 930 0420 8A000000 		.4byte	.LASF76
 931 0424 06       		.byte	0x6
 932 0425 D201     		.2byte	0x1d2
 933 0427 30010000 		.4byte	0x130
 934 042b 30       		.byte	0x30
 935 042c 08       		.uleb128 0x8
 936 042d 746D00   		.ascii	"tm\000"
 937 0430 06       		.byte	0x6
 938 0431 D701     		.2byte	0x1d7
 939 0433 D8070000 		.4byte	0x7d8
 940 0437 74       		.byte	0x74
 941 0438 09       		.uleb128 0x9
 942 0439 86010000 		.4byte	.LASF77
 943 043d 06       		.byte	0x6
 944 043e E301     		.2byte	0x1e3
 945 0440 C5080000 		.4byte	0x8c5
 946 0444 78       		.byte	0x78
 947 0445 00       		.byte	0
 948 0446 10       		.uleb128 0x10
 949 0447 040E     		.2byte	0xe04
 950 0449 07       		.byte	0x7
 951 044a 5001     		.2byte	0x150
 952 044c 02050000 		.4byte	0x502
 953 0450 09       		.uleb128 0x9
 954 0451 89030000 		.4byte	.LASF78
 955 0455 07       		.byte	0x7
 956 0456 5201     		.2byte	0x152
 957 0458 19050000 		.4byte	0x519
 958 045c 00       		.byte	0
 959 045d 09       		.uleb128 0x9
 960 045e F7020000 		.4byte	.LASF79
 961 0462 07       		.byte	0x7
 962 0463 5301     		.2byte	0x153
 963 0465 1E050000 		.4byte	0x51e
 964 0469 20       		.byte	0x20
 965 046a 09       		.uleb128 0x9
 966 046b D2020000 		.4byte	.LASF80
 967 046f 07       		.byte	0x7
 968 0470 5401     		.2byte	0x154
 969 0472 2E050000 		.4byte	0x52e
ARM GAS  /var/folders/c6/c789hm653lg9vtl73krp73tm0000gn/T//ccLd87C0.s 			page 32


 970 0476 80       		.byte	0x80
 971 0477 09       		.uleb128 0x9
 972 0478 6A050000 		.4byte	.LASF81
 973 047c 07       		.byte	0x7
 974 047d 5501     		.2byte	0x155
 975 047f 1E050000 		.4byte	0x51e
 976 0483 A0       		.byte	0xa0
 977 0484 11       		.uleb128 0x11
 978 0485 C2000000 		.4byte	.LASF82
 979 0489 07       		.byte	0x7
 980 048a 5601     		.2byte	0x156
 981 048c 33050000 		.4byte	0x533
 982 0490 0001     		.2byte	0x100
 983 0492 11       		.uleb128 0x11
 984 0493 01030000 		.4byte	.LASF83
 985 0497 07       		.byte	0x7
 986 0498 5701     		.2byte	0x157
 987 049a 1E050000 		.4byte	0x51e
 988 049e 2001     		.2byte	0x120
 989 04a0 11       		.uleb128 0x11
 990 04a1 0F000000 		.4byte	.LASF84
 991 04a5 07       		.byte	0x7
 992 04a6 5801     		.2byte	0x158
 993 04a8 38050000 		.4byte	0x538
 994 04ac 8001     		.2byte	0x180
 995 04ae 11       		.uleb128 0x11
 996 04af 0B030000 		.4byte	.LASF85
 997 04b3 07       		.byte	0x7
 998 04b4 5901     		.2byte	0x159
 999 04b6 1E050000 		.4byte	0x51e
 1000 04ba A001     		.2byte	0x1a0
 1001 04bc 11       		.uleb128 0x11
 1002 04bd A2020000 		.4byte	.LASF86
 1003 04c1 07       		.byte	0x7
 1004 04c2 5A01     		.2byte	0x15a
 1005 04c4 3D050000 		.4byte	0x53d
 1006 04c8 0002     		.2byte	0x200
 1007 04ca 11       		.uleb128 0x11
 1008 04cb 15030000 		.4byte	.LASF87
 1009 04cf 07       		.byte	0x7
 1010 04d0 5B01     		.2byte	0x15b
 1011 04d2 42050000 		.4byte	0x542
 1012 04d6 2002     		.2byte	0x220
 1013 04d8 12       		.uleb128 0x12
 1014 04d9 495000   		.ascii	"IP\000"
 1015 04dc 07       		.byte	0x7
 1016 04dd 5C01     		.2byte	0x15c
 1017 04df 62050000 		.4byte	0x562
 1018 04e3 0003     		.2byte	0x300
 1019 04e5 11       		.uleb128 0x11
 1020 04e6 0E040000 		.4byte	.LASF88
 1021 04ea 07       		.byte	0x7
 1022 04eb 5D01     		.2byte	0x15d
 1023 04ed 67050000 		.4byte	0x567
 1024 04f1 F003     		.2byte	0x3f0
 1025 04f3 11       		.uleb128 0x11
 1026 04f4 73050000 		.4byte	.LASF89
ARM GAS  /var/folders/c6/c789hm653lg9vtl73krp73tm0000gn/T//ccLd87C0.s 			page 33


 1027 04f8 07       		.byte	0x7
 1028 04f9 5E01     		.2byte	0x15e
 1029 04fb C8000000 		.4byte	0xc8
 1030 04ff 000E     		.2byte	0xe00
 1031 0501 00       		.byte	0
 1032 0502 13       		.uleb128 0x13
 1033 0503 AD000000 		.4byte	0xad
 1034 0507 12050000 		.4byte	0x512
 1035 050b 14       		.uleb128 0x14
 1036 050c 12050000 		.4byte	0x512
 1037 0510 07       		.byte	0x7
 1038 0511 00       		.byte	0
 1039 0512 03       		.uleb128 0x3
 1040 0513 04       		.byte	0x4
 1041 0514 07       		.byte	0x7
 1042 0515 6A020000 		.4byte	.LASF90
 1043 0519 05       		.uleb128 0x5
 1044 051a 02050000 		.4byte	0x502
 1045 051e 13       		.uleb128 0x13
 1046 051f AD000000 		.4byte	0xad
 1047 0523 2E050000 		.4byte	0x52e
 1048 0527 14       		.uleb128 0x14
 1049 0528 12050000 		.4byte	0x512
 1050 052c 17       		.byte	0x17
 1051 052d 00       		.byte	0
 1052 052e 05       		.uleb128 0x5
 1053 052f 02050000 		.4byte	0x502
 1054 0533 05       		.uleb128 0x5
 1055 0534 02050000 		.4byte	0x502
 1056 0538 05       		.uleb128 0x5
 1057 0539 02050000 		.4byte	0x502
 1058 053d 05       		.uleb128 0x5
 1059 053e 02050000 		.4byte	0x502
 1060 0542 13       		.uleb128 0x13
 1061 0543 AD000000 		.4byte	0xad
 1062 0547 52050000 		.4byte	0x552
 1063 054b 14       		.uleb128 0x14
 1064 054c 12050000 		.4byte	0x512
 1065 0550 37       		.byte	0x37
 1066 0551 00       		.byte	0
 1067 0552 13       		.uleb128 0x13
 1068 0553 97000000 		.4byte	0x97
 1069 0557 62050000 		.4byte	0x562
 1070 055b 14       		.uleb128 0x14
 1071 055c 12050000 		.4byte	0x512
 1072 0560 EF       		.byte	0xef
 1073 0561 00       		.byte	0
 1074 0562 05       		.uleb128 0x5
 1075 0563 52050000 		.4byte	0x552
 1076 0567 13       		.uleb128 0x13
 1077 0568 AD000000 		.4byte	0xad
 1078 056c 78050000 		.4byte	0x578
 1079 0570 15       		.uleb128 0x15
 1080 0571 12050000 		.4byte	0x512
 1081 0575 8302     		.2byte	0x283
 1082 0577 00       		.byte	0
 1083 0578 16       		.uleb128 0x16
ARM GAS  /var/folders/c6/c789hm653lg9vtl73krp73tm0000gn/T//ccLd87C0.s 			page 34


 1084 0579 8E030000 		.4byte	.LASF91
 1085 057d 07       		.byte	0x7
 1086 057e 5F01     		.2byte	0x15f
 1087 0580 46040000 		.4byte	0x446
 1088 0584 17       		.uleb128 0x17
 1089 0585 8C       		.byte	0x8c
 1090 0586 07       		.byte	0x7
 1091 0587 7001     		.2byte	0x170
 1092 0589 9F060000 		.4byte	0x69f
 1093 058d 09       		.uleb128 0x9
 1094 058e AB000000 		.4byte	.LASF92
 1095 0592 07       		.byte	0x7
 1096 0593 7201     		.2byte	0x172
 1097 0595 9F060000 		.4byte	0x69f
 1098 0599 00       		.byte	0
 1099 059a 09       		.uleb128 0x9
 1100 059b E9010000 		.4byte	.LASF93
 1101 059f 07       		.byte	0x7
 1102 05a0 7301     		.2byte	0x173
 1103 05a2 C8000000 		.4byte	0xc8
 1104 05a6 04       		.byte	0x4
 1105 05a7 09       		.uleb128 0x9
 1106 05a8 D4010000 		.4byte	.LASF94
 1107 05ac 07       		.byte	0x7
 1108 05ad 7401     		.2byte	0x174
 1109 05af C8000000 		.4byte	0xc8
 1110 05b3 08       		.byte	0x8
 1111 05b4 09       		.uleb128 0x9
 1112 05b5 F4010000 		.4byte	.LASF95
 1113 05b9 07       		.byte	0x7
 1114 05ba 7501     		.2byte	0x175
 1115 05bc C8000000 		.4byte	0xc8
 1116 05c0 0C       		.byte	0xc
 1117 05c1 08       		.uleb128 0x8
 1118 05c2 53435200 		.ascii	"SCR\000"
 1119 05c6 07       		.byte	0x7
 1120 05c7 7601     		.2byte	0x176
 1121 05c9 C8000000 		.4byte	0xc8
 1122 05cd 10       		.byte	0x10
 1123 05ce 08       		.uleb128 0x8
 1124 05cf 43435200 		.ascii	"CCR\000"
 1125 05d3 07       		.byte	0x7
 1126 05d4 7701     		.2byte	0x177
 1127 05d6 C8000000 		.4byte	0xc8
 1128 05da 14       		.byte	0x14
 1129 05db 08       		.uleb128 0x8
 1130 05dc 53485000 		.ascii	"SHP\000"
 1131 05e0 07       		.byte	0x7
 1132 05e1 7801     		.2byte	0x178
 1133 05e3 B4060000 		.4byte	0x6b4
 1134 05e7 18       		.byte	0x18
 1135 05e8 09       		.uleb128 0x9
 1136 05e9 5A030000 		.4byte	.LASF96
 1137 05ed 07       		.byte	0x7
 1138 05ee 7901     		.2byte	0x179
 1139 05f0 C8000000 		.4byte	0xc8
 1140 05f4 24       		.byte	0x24
ARM GAS  /var/folders/c6/c789hm653lg9vtl73krp73tm0000gn/T//ccLd87C0.s 			page 35


 1141 05f5 09       		.uleb128 0x9
 1142 05f6 9D020000 		.4byte	.LASF97
 1143 05fa 07       		.byte	0x7
 1144 05fb 7A01     		.2byte	0x17a
 1145 05fd C8000000 		.4byte	0xc8
 1146 0601 28       		.byte	0x28
 1147 0602 09       		.uleb128 0x9
 1148 0603 7C060000 		.4byte	.LASF98
 1149 0607 07       		.byte	0x7
 1150 0608 7B01     		.2byte	0x17b
 1151 060a C8000000 		.4byte	0xc8
 1152 060e 2C       		.byte	0x2c
 1153 060f 09       		.uleb128 0x9
 1154 0610 FA010000 		.4byte	.LASF99
 1155 0614 07       		.byte	0x7
 1156 0615 7C01     		.2byte	0x17c
 1157 0617 C8000000 		.4byte	0xc8
 1158 061b 30       		.byte	0x30
 1159 061c 09       		.uleb128 0x9
 1160 061d FF010000 		.4byte	.LASF100
 1161 0621 07       		.byte	0x7
 1162 0622 7D01     		.2byte	0x17d
 1163 0624 C8000000 		.4byte	0xc8
 1164 0628 34       		.byte	0x34
 1165 0629 09       		.uleb128 0x9
 1166 062a 52010000 		.4byte	.LASF101
 1167 062e 07       		.byte	0x7
 1168 062f 7E01     		.2byte	0x17e
 1169 0631 C8000000 		.4byte	0xc8
 1170 0635 38       		.byte	0x38
 1171 0636 09       		.uleb128 0x9
 1172 0637 57010000 		.4byte	.LASF102
 1173 063b 07       		.byte	0x7
 1174 063c 7F01     		.2byte	0x17f
 1175 063e C8000000 		.4byte	0xc8
 1176 0642 3C       		.byte	0x3c
 1177 0643 08       		.uleb128 0x8
 1178 0644 50465200 		.ascii	"PFR\000"
 1179 0648 07       		.byte	0x7
 1180 0649 8001     		.2byte	0x180
 1181 064b C9060000 		.4byte	0x6c9
 1182 064f 40       		.byte	0x40
 1183 0650 08       		.uleb128 0x8
 1184 0651 44465200 		.ascii	"DFR\000"
 1185 0655 07       		.byte	0x7
 1186 0656 8101     		.2byte	0x181
 1187 0658 9F060000 		.4byte	0x69f
 1188 065c 48       		.byte	0x48
 1189 065d 08       		.uleb128 0x8
 1190 065e 41445200 		.ascii	"ADR\000"
 1191 0662 07       		.byte	0x7
 1192 0663 8201     		.2byte	0x182
 1193 0665 9F060000 		.4byte	0x69f
 1194 0669 4C       		.byte	0x4c
 1195 066a 09       		.uleb128 0x9
 1196 066b 57050000 		.4byte	.LASF103
 1197 066f 07       		.byte	0x7
ARM GAS  /var/folders/c6/c789hm653lg9vtl73krp73tm0000gn/T//ccLd87C0.s 			page 36


 1198 0670 8301     		.2byte	0x183
 1199 0672 E3060000 		.4byte	0x6e3
 1200 0676 50       		.byte	0x50
 1201 0677 09       		.uleb128 0x9
 1202 0678 DF000000 		.4byte	.LASF104
 1203 067c 07       		.byte	0x7
 1204 067d 8401     		.2byte	0x184
 1205 067f FD060000 		.4byte	0x6fd
 1206 0683 60       		.byte	0x60
 1207 0684 09       		.uleb128 0x9
 1208 0685 F7020000 		.4byte	.LASF79
 1209 0689 07       		.byte	0x7
 1210 068a 8501     		.2byte	0x185
 1211 068c ED060000 		.4byte	0x6ed
 1212 0690 74       		.byte	0x74
 1213 0691 09       		.uleb128 0x9
 1214 0692 76060000 		.4byte	.LASF105
 1215 0696 07       		.byte	0x7
 1216 0697 8601     		.2byte	0x186
 1217 0699 C8000000 		.4byte	0xc8
 1218 069d 88       		.byte	0x88
 1219 069e 00       		.byte	0
 1220 069f 18       		.uleb128 0x18
 1221 06a0 C8000000 		.4byte	0xc8
 1222 06a4 13       		.uleb128 0x13
 1223 06a5 97000000 		.4byte	0x97
 1224 06a9 B4060000 		.4byte	0x6b4
 1225 06ad 14       		.uleb128 0x14
 1226 06ae 12050000 		.4byte	0x512
 1227 06b2 0B       		.byte	0xb
 1228 06b3 00       		.byte	0
 1229 06b4 05       		.uleb128 0x5
 1230 06b5 A4060000 		.4byte	0x6a4
 1231 06b9 13       		.uleb128 0x13
 1232 06ba AD000000 		.4byte	0xad
 1233 06be C9060000 		.4byte	0x6c9
 1234 06c2 14       		.uleb128 0x14
 1235 06c3 12050000 		.4byte	0x512
 1236 06c7 01       		.byte	0x1
 1237 06c8 00       		.byte	0
 1238 06c9 18       		.uleb128 0x18
 1239 06ca CE060000 		.4byte	0x6ce
 1240 06ce 05       		.uleb128 0x5
 1241 06cf B9060000 		.4byte	0x6b9
 1242 06d3 13       		.uleb128 0x13
 1243 06d4 AD000000 		.4byte	0xad
 1244 06d8 E3060000 		.4byte	0x6e3
 1245 06dc 14       		.uleb128 0x14
 1246 06dd 12050000 		.4byte	0x512
 1247 06e1 03       		.byte	0x3
 1248 06e2 00       		.byte	0
 1249 06e3 18       		.uleb128 0x18
 1250 06e4 E8060000 		.4byte	0x6e8
 1251 06e8 05       		.uleb128 0x5
 1252 06e9 D3060000 		.4byte	0x6d3
 1253 06ed 13       		.uleb128 0x13
 1254 06ee AD000000 		.4byte	0xad
ARM GAS  /var/folders/c6/c789hm653lg9vtl73krp73tm0000gn/T//ccLd87C0.s 			page 37


 1255 06f2 FD060000 		.4byte	0x6fd
 1256 06f6 14       		.uleb128 0x14
 1257 06f7 12050000 		.4byte	0x512
 1258 06fb 04       		.byte	0x4
 1259 06fc 00       		.byte	0
 1260 06fd 18       		.uleb128 0x18
 1261 06fe 02070000 		.4byte	0x702
 1262 0702 05       		.uleb128 0x5
 1263 0703 ED060000 		.4byte	0x6ed
 1264 0707 16       		.uleb128 0x16
 1265 0708 75010000 		.4byte	.LASF106
 1266 070c 07       		.byte	0x7
 1267 070d 8701     		.2byte	0x187
 1268 070f 84050000 		.4byte	0x584
 1269 0713 04       		.uleb128 0x4
 1270 0714 64010000 		.4byte	.LASF107
 1271 0718 08       		.byte	0x8
 1272 0719 65       		.byte	0x65
 1273 071a 10030000 		.4byte	0x310
 1274 071e 04       		.uleb128 0x4
 1275 071f 3D020000 		.4byte	.LASF108
 1276 0723 08       		.byte	0x8
 1277 0724 6D       		.byte	0x6d
 1278 0725 B8000000 		.4byte	0xb8
 1279 0729 06       		.uleb128 0x6
 1280 072a F5040000 		.4byte	.LASF109
 1281 072e 04       		.byte	0x4
 1282 072f 08       		.byte	0x8
 1283 0730 89       		.byte	0x89
 1284 0731 42070000 		.4byte	0x742
 1285 0735 19       		.uleb128 0x19
 1286 0736 72313300 		.ascii	"r13\000"
 1287 073a 08       		.byte	0x8
 1288 073b 8A       		.byte	0x8a
 1289 073c BD070000 		.4byte	0x7bd
 1290 0740 00       		.byte	0
 1291 0741 00       		.byte	0
 1292 0742 06       		.uleb128 0x6
 1293 0743 4F000000 		.4byte	.LASF110
 1294 0747 24       		.byte	0x24
 1295 0748 09       		.byte	0x9
 1296 0749 F4       		.byte	0xf4
 1297 074a BD070000 		.4byte	0x7bd
 1298 074e 08       		.uleb128 0x8
 1299 074f 723400   		.ascii	"r4\000"
 1300 0752 09       		.byte	0x9
 1301 0753 0701     		.2byte	0x107
 1302 0755 13070000 		.4byte	0x713
 1303 0759 00       		.byte	0
 1304 075a 08       		.uleb128 0x8
 1305 075b 723500   		.ascii	"r5\000"
 1306 075e 09       		.byte	0x9
 1307 075f 0801     		.2byte	0x108
 1308 0761 13070000 		.4byte	0x713
 1309 0765 04       		.byte	0x4
 1310 0766 08       		.uleb128 0x8
 1311 0767 723600   		.ascii	"r6\000"
ARM GAS  /var/folders/c6/c789hm653lg9vtl73krp73tm0000gn/T//ccLd87C0.s 			page 38


 1312 076a 09       		.byte	0x9
 1313 076b 0901     		.2byte	0x109
 1314 076d 13070000 		.4byte	0x713
 1315 0771 08       		.byte	0x8
 1316 0772 08       		.uleb128 0x8
 1317 0773 723700   		.ascii	"r7\000"
 1318 0776 09       		.byte	0x9
 1319 0777 0A01     		.2byte	0x10a
 1320 0779 13070000 		.4byte	0x713
 1321 077d 0C       		.byte	0xc
 1322 077e 08       		.uleb128 0x8
 1323 077f 723800   		.ascii	"r8\000"
 1324 0782 09       		.byte	0x9
 1325 0783 0B01     		.2byte	0x10b
 1326 0785 13070000 		.4byte	0x713
 1327 0789 10       		.byte	0x10
 1328 078a 08       		.uleb128 0x8
 1329 078b 723900   		.ascii	"r9\000"
 1330 078e 09       		.byte	0x9
 1331 078f 0C01     		.2byte	0x10c
 1332 0791 13070000 		.4byte	0x713
 1333 0795 14       		.byte	0x14
 1334 0796 08       		.uleb128 0x8
 1335 0797 72313000 		.ascii	"r10\000"
 1336 079b 09       		.byte	0x9
 1337 079c 0D01     		.2byte	0x10d
 1338 079e 13070000 		.4byte	0x713
 1339 07a2 18       		.byte	0x18
 1340 07a3 08       		.uleb128 0x8
 1341 07a4 72313100 		.ascii	"r11\000"
 1342 07a8 09       		.byte	0x9
 1343 07a9 0E01     		.2byte	0x10e
 1344 07ab 13070000 		.4byte	0x713
 1345 07af 1C       		.byte	0x1c
 1346 07b0 08       		.uleb128 0x8
 1347 07b1 6C7200   		.ascii	"lr\000"
 1348 07b4 09       		.byte	0x9
 1349 07b5 0F01     		.2byte	0x10f
 1350 07b7 13070000 		.4byte	0x713
 1351 07bb 20       		.byte	0x20
 1352 07bc 00       		.byte	0
 1353 07bd 0A       		.uleb128 0xa
 1354 07be 04       		.byte	0x4
 1355 07bf 42070000 		.4byte	0x742
 1356 07c3 1A       		.uleb128 0x1a
 1357 07c4 04       		.byte	0x4
 1358 07c5 0A       		.byte	0xa
 1359 07c6 38       		.byte	0x38
 1360 07c7 D8070000 		.4byte	0x7d8
 1361 07cb 07       		.uleb128 0x7
 1362 07cc EE040000 		.4byte	.LASF111
 1363 07d0 0A       		.byte	0xa
 1364 07d1 3C       		.byte	0x3c
 1365 07d2 CD000000 		.4byte	0xcd
 1366 07d6 00       		.byte	0
 1367 07d7 00       		.byte	0
 1368 07d8 04       		.uleb128 0x4
ARM GAS  /var/folders/c6/c789hm653lg9vtl73krp73tm0000gn/T//ccLd87C0.s 			page 39


 1369 07d9 C1020000 		.4byte	.LASF112
 1370 07dd 0A       		.byte	0xa
 1371 07de 3D       		.byte	0x3d
 1372 07df C3070000 		.4byte	0x7c3
 1373 07e3 1B       		.uleb128 0x1b
 1374 07e4 04       		.byte	0x4
 1375 07e5 06       		.byte	0x6
 1376 07e6 FA       		.byte	0xfa
 1377 07e7 40080000 		.4byte	0x840
 1378 07eb 1C       		.uleb128 0x1c
 1379 07ec 27000000 		.4byte	.LASF113
 1380 07f0 06       		.byte	0x6
 1381 07f1 0101     		.2byte	0x101
 1382 07f3 04010000 		.4byte	0x104
 1383 07f7 1C       		.uleb128 0x1c
 1384 07f8 81000000 		.4byte	.LASF114
 1385 07fc 06       		.byte	0x6
 1386 07fd 0801     		.2byte	0x108
 1387 07ff 04010000 		.4byte	0x104
 1388 0803 1C       		.uleb128 0x1c
 1389 0804 78050000 		.4byte	.LASF115
 1390 0808 06       		.byte	0x6
 1391 0809 0F01     		.2byte	0x10f
 1392 080b 10030000 		.4byte	0x310
 1393 080f 1C       		.uleb128 0x1c
 1394 0810 21000000 		.4byte	.LASF116
 1395 0814 06       		.byte	0x6
 1396 0815 1601     		.2byte	0x116
 1397 0817 40080000 		.4byte	0x840
 1398 081b 1C       		.uleb128 0x1c
 1399 081c C2010000 		.4byte	.LASF117
 1400 0820 06       		.byte	0x6
 1401 0821 1E01     		.2byte	0x11e
 1402 0823 6B080000 		.4byte	0x86b
 1403 0827 1C       		.uleb128 0x1c
 1404 0828 21040000 		.4byte	.LASF118
 1405 082c 06       		.byte	0x6
 1406 082d 2701     		.2byte	0x127
 1407 082f A2080000 		.4byte	0x8a2
 1408 0833 1C       		.uleb128 0x1c
 1409 0834 BC030000 		.4byte	.LASF119
 1410 0838 06       		.byte	0x6
 1411 0839 2F01     		.2byte	0x12f
 1412 083b 0F010000 		.4byte	0x10f
 1413 083f 00       		.byte	0
 1414 0840 0A       		.uleb128 0xa
 1415 0841 04       		.byte	0x4
 1416 0842 28020000 		.4byte	0x228
 1417 0846 06       		.uleb128 0x6
 1418 0847 F6030000 		.4byte	.LASF120
 1419 084b 0C       		.byte	0xc
 1420 084c 0B       		.byte	0xb
 1421 084d 34       		.byte	0x34
 1422 084e 6B080000 		.4byte	0x86b
 1423 0852 07       		.uleb128 0x7
 1424 0853 4A010000 		.4byte	.LASF121
 1425 0857 0B       		.byte	0xb
ARM GAS  /var/folders/c6/c789hm653lg9vtl73krp73tm0000gn/T//ccLd87C0.s 			page 40


 1426 0858 35       		.byte	0x35
 1427 0859 5D020000 		.4byte	0x25d
 1428 085d 00       		.byte	0
 1429 085e 07       		.uleb128 0x7
 1430 085f D9010000 		.4byte	.LASF122
 1431 0863 0B       		.byte	0xb
 1432 0864 37       		.byte	0x37
 1433 0865 1A010000 		.4byte	0x11a
 1434 0869 08       		.byte	0x8
 1435 086a 00       		.byte	0
 1436 086b 0A       		.uleb128 0xa
 1437 086c 04       		.byte	0x4
 1438 086d 46080000 		.4byte	0x846
 1439 0871 06       		.uleb128 0x6
 1440 0872 47050000 		.4byte	.LASF123
 1441 0876 10       		.byte	0x10
 1442 0877 0C       		.byte	0xc
 1443 0878 39       		.byte	0x39
 1444 0879 A2080000 		.4byte	0x8a2
 1445 087d 07       		.uleb128 0x7
 1446 087e 06010000 		.4byte	.LASF124
 1447 0882 0C       		.byte	0xc
 1448 0883 3A       		.byte	0x3a
 1449 0884 5D020000 		.4byte	0x25d
 1450 0888 00       		.byte	0
 1451 0889 07       		.uleb128 0x7
 1452 088a 81060000 		.4byte	.LASF125
 1453 088e 0C       		.byte	0xc
 1454 088f 3C       		.byte	0x3c
 1455 0890 33020000 		.4byte	0x233
 1456 0894 08       		.byte	0x8
 1457 0895 07       		.uleb128 0x7
 1458 0896 B4040000 		.4byte	.LASF126
 1459 089a 0C       		.byte	0xc
 1460 089b 3E       		.byte	0x3e
 1461 089c E0080000 		.4byte	0x8e0
 1462 08a0 0C       		.byte	0xc
 1463 08a1 00       		.byte	0
 1464 08a2 0A       		.uleb128 0xa
 1465 08a3 04       		.byte	0x4
 1466 08a4 71080000 		.4byte	0x871
 1467 08a8 0A       		.uleb128 0xa
 1468 08a9 04       		.byte	0x4
 1469 08aa AE080000 		.4byte	0x8ae
 1470 08ae 18       		.uleb128 0x18
 1471 08af B3080000 		.4byte	0x8b3
 1472 08b3 03       		.uleb128 0x3
 1473 08b4 01       		.byte	0x1
 1474 08b5 08       		.byte	0x8
 1475 08b6 A6040000 		.4byte	.LASF127
 1476 08ba 0A       		.uleb128 0xa
 1477 08bb 04       		.byte	0x4
 1478 08bc 12030000 		.4byte	0x312
 1479 08c0 05       		.uleb128 0x5
 1480 08c1 A8080000 		.4byte	0x8a8
 1481 08c5 13       		.uleb128 0x13
 1482 08c6 1E070000 		.4byte	0x71e
ARM GAS  /var/folders/c6/c789hm653lg9vtl73krp73tm0000gn/T//ccLd87C0.s 			page 41


 1483 08ca D5080000 		.4byte	0x8d5
 1484 08ce 14       		.uleb128 0x14
 1485 08cf 12050000 		.4byte	0x512
 1486 08d3 1A       		.byte	0x1a
 1487 08d4 00       		.byte	0
 1488 08d5 04       		.uleb128 0x4
 1489 08d6 7E010000 		.4byte	.LASF128
 1490 08da 0C       		.byte	0xc
 1491 08db 34       		.byte	0x34
 1492 08dc 71080000 		.4byte	0x871
 1493 08e0 0A       		.uleb128 0xa
 1494 08e1 04       		.byte	0x4
 1495 08e2 D5080000 		.4byte	0x8d5
 1496 08e6 03       		.uleb128 0x3
 1497 08e7 01       		.byte	0x1
 1498 08e8 02       		.byte	0x2
 1499 08e9 3E030000 		.4byte	.LASF129
 1500 08ed 1D       		.uleb128 0x1d
 1501 08ee CE000000 		.4byte	.LASF131
 1502 08f2 01       		.byte	0x1
 1503 08f3 39       		.byte	0x39
 1504 08f4 00000000 		.4byte	.LFB260
 1505 08f8 34000000 		.4byte	.LFE260-.LFB260
 1506 08fc 01       		.uleb128 0x1
 1507 08fd 9C       		.byte	0x9c
 1508 08fe 1F090000 		.4byte	0x91f
 1509 0902 1E       		.uleb128 0x1e
 1510 0903 6E00     		.ascii	"n\000"
 1511 0905 01       		.byte	0x1
 1512 0906 39       		.byte	0x39
 1513 0907 AD000000 		.4byte	0xad
 1514 090b 00000000 		.4byte	.LLST0
 1515 090f 1F       		.uleb128 0x1f
 1516 0910 D7020000 		.4byte	.LASF130
 1517 0914 01       		.byte	0x1
 1518 0915 39       		.byte	0x39
 1519 0916 AD000000 		.4byte	0xad
 1520 091a 24000000 		.4byte	.LLST1
 1521 091e 00       		.byte	0
 1522 091f 1D       		.uleb128 0x1d
 1523 0920 B0010000 		.4byte	.LASF132
 1524 0924 01       		.byte	0x1
 1525 0925 45       		.byte	0x45
 1526 0926 00000000 		.4byte	.LFB261
 1527 092a 28000000 		.4byte	.LFE261-.LFB261
 1528 092e 01       		.uleb128 0x1
 1529 092f 9C       		.byte	0x9c
 1530 0930 42090000 		.4byte	0x942
 1531 0934 1E       		.uleb128 0x1e
 1532 0935 6E00     		.ascii	"n\000"
 1533 0937 01       		.byte	0x1
 1534 0938 45       		.byte	0x45
 1535 0939 AD000000 		.4byte	0xad
 1536 093d 45000000 		.4byte	.LLST2
 1537 0941 00       		.byte	0
 1538 0942 1D       		.uleb128 0x1d
 1539 0943 98030000 		.4byte	.LASF133
ARM GAS  /var/folders/c6/c789hm653lg9vtl73krp73tm0000gn/T//ccLd87C0.s 			page 42


 1540 0947 01       		.byte	0x1
 1541 0948 51       		.byte	0x51
 1542 0949 00000000 		.4byte	.LFB262
 1543 094d 10000000 		.4byte	.LFE262-.LFB262
 1544 0951 01       		.uleb128 0x1
 1545 0952 9C       		.byte	0x9c
 1546 0953 7F090000 		.4byte	0x97f
 1547 0957 1F       		.uleb128 0x1f
 1548 0958 48020000 		.4byte	.LASF134
 1549 095c 01       		.byte	0x1
 1550 095d 51       		.byte	0x51
 1551 095e AD000000 		.4byte	0xad
 1552 0962 69000000 		.4byte	.LLST3
 1553 0966 1F       		.uleb128 0x1f
 1554 0967 D7020000 		.4byte	.LASF130
 1555 096b 01       		.byte	0x1
 1556 096c 51       		.byte	0x51
 1557 096d AD000000 		.4byte	0xad
 1558 0971 9E000000 		.4byte	.LLST4
 1559 0975 20       		.uleb128 0x20
 1560 0976 2E000000 		.4byte	.LASF140
 1561 097a 8F090000 		.4byte	0x98f
 1562 097e 00       		.byte	0
 1563 097f 13       		.uleb128 0x13
 1564 0980 B3080000 		.4byte	0x8b3
 1565 0984 8F090000 		.4byte	0x98f
 1566 0988 14       		.uleb128 0x14
 1567 0989 12050000 		.4byte	0x512
 1568 098d 1C       		.byte	0x1c
 1569 098e 00       		.byte	0
 1570 098f 18       		.uleb128 0x18
 1571 0990 7F090000 		.4byte	0x97f
 1572 0994 1D       		.uleb128 0x1d
 1573 0995 0E010000 		.4byte	.LASF135
 1574 0999 01       		.byte	0x1
 1575 099a 5D       		.byte	0x5d
 1576 099b 00000000 		.4byte	.LFB263
 1577 099f 1C000000 		.4byte	.LFE263-.LFB263
 1578 09a3 01       		.uleb128 0x1
 1579 09a4 9C       		.byte	0x9c
 1580 09a5 B7090000 		.4byte	0x9b7
 1581 09a9 1E       		.uleb128 0x1e
 1582 09aa 6E00     		.ascii	"n\000"
 1583 09ac 01       		.byte	0x1
 1584 09ad 5D       		.byte	0x5d
 1585 09ae AD000000 		.4byte	0xad
 1586 09b2 BF000000 		.4byte	.LLST5
 1587 09b6 00       		.byte	0
 1588 09b7 21       		.uleb128 0x21
 1589 09b8 60030000 		.4byte	.LASF136
 1590 09bc 07       		.byte	0x7
 1591 09bd A706     		.2byte	0x6a7
 1592 09bf C3000000 		.4byte	0xc3
 1593 09c3 22       		.uleb128 0x22
 1594 09c4 636800   		.ascii	"ch\000"
 1595 09c7 06       		.byte	0x6
 1596 09c8 0902     		.2byte	0x209
ARM GAS  /var/folders/c6/c789hm653lg9vtl73krp73tm0000gn/T//ccLd87C0.s 			page 43


 1597 09ca DF030000 		.4byte	0x3df
 1598 09ce 00       		.byte	0
 1599              		.section	.debug_abbrev,"",%progbits
 1600              	.Ldebug_abbrev0:
 1601 0000 01       		.uleb128 0x1
 1602 0001 11       		.uleb128 0x11
 1603 0002 01       		.byte	0x1
 1604 0003 25       		.uleb128 0x25
 1605 0004 0E       		.uleb128 0xe
 1606 0005 13       		.uleb128 0x13
 1607 0006 0B       		.uleb128 0xb
 1608 0007 03       		.uleb128 0x3
 1609 0008 0E       		.uleb128 0xe
 1610 0009 1B       		.uleb128 0x1b
 1611 000a 0E       		.uleb128 0xe
 1612 000b 55       		.uleb128 0x55
 1613 000c 17       		.uleb128 0x17
 1614 000d 11       		.uleb128 0x11
 1615 000e 01       		.uleb128 0x1
 1616 000f 10       		.uleb128 0x10
 1617 0010 17       		.uleb128 0x17
 1618 0011 00       		.byte	0
 1619 0012 00       		.byte	0
 1620 0013 02       		.uleb128 0x2
 1621 0014 24       		.uleb128 0x24
 1622 0015 00       		.byte	0
 1623 0016 0B       		.uleb128 0xb
 1624 0017 0B       		.uleb128 0xb
 1625 0018 3E       		.uleb128 0x3e
 1626 0019 0B       		.uleb128 0xb
 1627 001a 03       		.uleb128 0x3
 1628 001b 08       		.uleb128 0x8
 1629 001c 00       		.byte	0
 1630 001d 00       		.byte	0
 1631 001e 03       		.uleb128 0x3
 1632 001f 24       		.uleb128 0x24
 1633 0020 00       		.byte	0
 1634 0021 0B       		.uleb128 0xb
 1635 0022 0B       		.uleb128 0xb
 1636 0023 3E       		.uleb128 0x3e
 1637 0024 0B       		.uleb128 0xb
 1638 0025 03       		.uleb128 0x3
 1639 0026 0E       		.uleb128 0xe
 1640 0027 00       		.byte	0
 1641 0028 00       		.byte	0
 1642 0029 04       		.uleb128 0x4
 1643 002a 16       		.uleb128 0x16
 1644 002b 00       		.byte	0
 1645 002c 03       		.uleb128 0x3
 1646 002d 0E       		.uleb128 0xe
 1647 002e 3A       		.uleb128 0x3a
 1648 002f 0B       		.uleb128 0xb
 1649 0030 3B       		.uleb128 0x3b
 1650 0031 0B       		.uleb128 0xb
 1651 0032 49       		.uleb128 0x49
 1652 0033 13       		.uleb128 0x13
 1653 0034 00       		.byte	0
ARM GAS  /var/folders/c6/c789hm653lg9vtl73krp73tm0000gn/T//ccLd87C0.s 			page 44


 1654 0035 00       		.byte	0
 1655 0036 05       		.uleb128 0x5
 1656 0037 35       		.uleb128 0x35
 1657 0038 00       		.byte	0
 1658 0039 49       		.uleb128 0x49
 1659 003a 13       		.uleb128 0x13
 1660 003b 00       		.byte	0
 1661 003c 00       		.byte	0
 1662 003d 06       		.uleb128 0x6
 1663 003e 13       		.uleb128 0x13
 1664 003f 01       		.byte	0x1
 1665 0040 03       		.uleb128 0x3
 1666 0041 0E       		.uleb128 0xe
 1667 0042 0B       		.uleb128 0xb
 1668 0043 0B       		.uleb128 0xb
 1669 0044 3A       		.uleb128 0x3a
 1670 0045 0B       		.uleb128 0xb
 1671 0046 3B       		.uleb128 0x3b
 1672 0047 0B       		.uleb128 0xb
 1673 0048 01       		.uleb128 0x1
 1674 0049 13       		.uleb128 0x13
 1675 004a 00       		.byte	0
 1676 004b 00       		.byte	0
 1677 004c 07       		.uleb128 0x7
 1678 004d 0D       		.uleb128 0xd
 1679 004e 00       		.byte	0
 1680 004f 03       		.uleb128 0x3
 1681 0050 0E       		.uleb128 0xe
 1682 0051 3A       		.uleb128 0x3a
 1683 0052 0B       		.uleb128 0xb
 1684 0053 3B       		.uleb128 0x3b
 1685 0054 0B       		.uleb128 0xb
 1686 0055 49       		.uleb128 0x49
 1687 0056 13       		.uleb128 0x13
 1688 0057 38       		.uleb128 0x38
 1689 0058 0B       		.uleb128 0xb
 1690 0059 00       		.byte	0
 1691 005a 00       		.byte	0
 1692 005b 08       		.uleb128 0x8
 1693 005c 0D       		.uleb128 0xd
 1694 005d 00       		.byte	0
 1695 005e 03       		.uleb128 0x3
 1696 005f 08       		.uleb128 0x8
 1697 0060 3A       		.uleb128 0x3a
 1698 0061 0B       		.uleb128 0xb
 1699 0062 3B       		.uleb128 0x3b
 1700 0063 05       		.uleb128 0x5
 1701 0064 49       		.uleb128 0x49
 1702 0065 13       		.uleb128 0x13
 1703 0066 38       		.uleb128 0x38
 1704 0067 0B       		.uleb128 0xb
 1705 0068 00       		.byte	0
 1706 0069 00       		.byte	0
 1707 006a 09       		.uleb128 0x9
 1708 006b 0D       		.uleb128 0xd
 1709 006c 00       		.byte	0
 1710 006d 03       		.uleb128 0x3
ARM GAS  /var/folders/c6/c789hm653lg9vtl73krp73tm0000gn/T//ccLd87C0.s 			page 45


 1711 006e 0E       		.uleb128 0xe
 1712 006f 3A       		.uleb128 0x3a
 1713 0070 0B       		.uleb128 0xb
 1714 0071 3B       		.uleb128 0x3b
 1715 0072 05       		.uleb128 0x5
 1716 0073 49       		.uleb128 0x49
 1717 0074 13       		.uleb128 0x13
 1718 0075 38       		.uleb128 0x38
 1719 0076 0B       		.uleb128 0xb
 1720 0077 00       		.byte	0
 1721 0078 00       		.byte	0
 1722 0079 0A       		.uleb128 0xa
 1723 007a 0F       		.uleb128 0xf
 1724 007b 00       		.byte	0
 1725 007c 0B       		.uleb128 0xb
 1726 007d 0B       		.uleb128 0xb
 1727 007e 49       		.uleb128 0x49
 1728 007f 13       		.uleb128 0x13
 1729 0080 00       		.byte	0
 1730 0081 00       		.byte	0
 1731 0082 0B       		.uleb128 0xb
 1732 0083 13       		.uleb128 0x13
 1733 0084 01       		.byte	0x1
 1734 0085 03       		.uleb128 0x3
 1735 0086 0E       		.uleb128 0xe
 1736 0087 0B       		.uleb128 0xb
 1737 0088 0B       		.uleb128 0xb
 1738 0089 3A       		.uleb128 0x3a
 1739 008a 0B       		.uleb128 0xb
 1740 008b 3B       		.uleb128 0x3b
 1741 008c 05       		.uleb128 0x5
 1742 008d 01       		.uleb128 0x1
 1743 008e 13       		.uleb128 0x13
 1744 008f 00       		.byte	0
 1745 0090 00       		.byte	0
 1746 0091 0C       		.uleb128 0xc
 1747 0092 15       		.uleb128 0x15
 1748 0093 01       		.byte	0x1
 1749 0094 27       		.uleb128 0x27
 1750 0095 19       		.uleb128 0x19
 1751 0096 01       		.uleb128 0x1
 1752 0097 13       		.uleb128 0x13
 1753 0098 00       		.byte	0
 1754 0099 00       		.byte	0
 1755 009a 0D       		.uleb128 0xd
 1756 009b 05       		.uleb128 0x5
 1757 009c 00       		.byte	0
 1758 009d 49       		.uleb128 0x49
 1759 009e 13       		.uleb128 0x13
 1760 009f 00       		.byte	0
 1761 00a0 00       		.byte	0
 1762 00a1 0E       		.uleb128 0xe
 1763 00a2 0F       		.uleb128 0xf
 1764 00a3 00       		.byte	0
 1765 00a4 0B       		.uleb128 0xb
 1766 00a5 0B       		.uleb128 0xb
 1767 00a6 00       		.byte	0
ARM GAS  /var/folders/c6/c789hm653lg9vtl73krp73tm0000gn/T//ccLd87C0.s 			page 46


 1768 00a7 00       		.byte	0
 1769 00a8 0F       		.uleb128 0xf
 1770 00a9 13       		.uleb128 0x13
 1771 00aa 01       		.byte	0x1
 1772 00ab 03       		.uleb128 0x3
 1773 00ac 0E       		.uleb128 0xe
 1774 00ad 0B       		.uleb128 0xb
 1775 00ae 05       		.uleb128 0x5
 1776 00af 3A       		.uleb128 0x3a
 1777 00b0 0B       		.uleb128 0xb
 1778 00b1 3B       		.uleb128 0x3b
 1779 00b2 05       		.uleb128 0x5
 1780 00b3 01       		.uleb128 0x1
 1781 00b4 13       		.uleb128 0x13
 1782 00b5 00       		.byte	0
 1783 00b6 00       		.byte	0
 1784 00b7 10       		.uleb128 0x10
 1785 00b8 13       		.uleb128 0x13
 1786 00b9 01       		.byte	0x1
 1787 00ba 0B       		.uleb128 0xb
 1788 00bb 05       		.uleb128 0x5
 1789 00bc 3A       		.uleb128 0x3a
 1790 00bd 0B       		.uleb128 0xb
 1791 00be 3B       		.uleb128 0x3b
 1792 00bf 05       		.uleb128 0x5
 1793 00c0 01       		.uleb128 0x1
 1794 00c1 13       		.uleb128 0x13
 1795 00c2 00       		.byte	0
 1796 00c3 00       		.byte	0
 1797 00c4 11       		.uleb128 0x11
 1798 00c5 0D       		.uleb128 0xd
 1799 00c6 00       		.byte	0
 1800 00c7 03       		.uleb128 0x3
 1801 00c8 0E       		.uleb128 0xe
 1802 00c9 3A       		.uleb128 0x3a
 1803 00ca 0B       		.uleb128 0xb
 1804 00cb 3B       		.uleb128 0x3b
 1805 00cc 05       		.uleb128 0x5
 1806 00cd 49       		.uleb128 0x49
 1807 00ce 13       		.uleb128 0x13
 1808 00cf 38       		.uleb128 0x38
 1809 00d0 05       		.uleb128 0x5
 1810 00d1 00       		.byte	0
 1811 00d2 00       		.byte	0
 1812 00d3 12       		.uleb128 0x12
 1813 00d4 0D       		.uleb128 0xd
 1814 00d5 00       		.byte	0
 1815 00d6 03       		.uleb128 0x3
 1816 00d7 08       		.uleb128 0x8
 1817 00d8 3A       		.uleb128 0x3a
 1818 00d9 0B       		.uleb128 0xb
 1819 00da 3B       		.uleb128 0x3b
 1820 00db 05       		.uleb128 0x5
 1821 00dc 49       		.uleb128 0x49
 1822 00dd 13       		.uleb128 0x13
 1823 00de 38       		.uleb128 0x38
 1824 00df 05       		.uleb128 0x5
ARM GAS  /var/folders/c6/c789hm653lg9vtl73krp73tm0000gn/T//ccLd87C0.s 			page 47


 1825 00e0 00       		.byte	0
 1826 00e1 00       		.byte	0
 1827 00e2 13       		.uleb128 0x13
 1828 00e3 01       		.uleb128 0x1
 1829 00e4 01       		.byte	0x1
 1830 00e5 49       		.uleb128 0x49
 1831 00e6 13       		.uleb128 0x13
 1832 00e7 01       		.uleb128 0x1
 1833 00e8 13       		.uleb128 0x13
 1834 00e9 00       		.byte	0
 1835 00ea 00       		.byte	0
 1836 00eb 14       		.uleb128 0x14
 1837 00ec 21       		.uleb128 0x21
 1838 00ed 00       		.byte	0
 1839 00ee 49       		.uleb128 0x49
 1840 00ef 13       		.uleb128 0x13
 1841 00f0 2F       		.uleb128 0x2f
 1842 00f1 0B       		.uleb128 0xb
 1843 00f2 00       		.byte	0
 1844 00f3 00       		.byte	0
 1845 00f4 15       		.uleb128 0x15
 1846 00f5 21       		.uleb128 0x21
 1847 00f6 00       		.byte	0
 1848 00f7 49       		.uleb128 0x49
 1849 00f8 13       		.uleb128 0x13
 1850 00f9 2F       		.uleb128 0x2f
 1851 00fa 05       		.uleb128 0x5
 1852 00fb 00       		.byte	0
 1853 00fc 00       		.byte	0
 1854 00fd 16       		.uleb128 0x16
 1855 00fe 16       		.uleb128 0x16
 1856 00ff 00       		.byte	0
 1857 0100 03       		.uleb128 0x3
 1858 0101 0E       		.uleb128 0xe
 1859 0102 3A       		.uleb128 0x3a
 1860 0103 0B       		.uleb128 0xb
 1861 0104 3B       		.uleb128 0x3b
 1862 0105 05       		.uleb128 0x5
 1863 0106 49       		.uleb128 0x49
 1864 0107 13       		.uleb128 0x13
 1865 0108 00       		.byte	0
 1866 0109 00       		.byte	0
 1867 010a 17       		.uleb128 0x17
 1868 010b 13       		.uleb128 0x13
 1869 010c 01       		.byte	0x1
 1870 010d 0B       		.uleb128 0xb
 1871 010e 0B       		.uleb128 0xb
 1872 010f 3A       		.uleb128 0x3a
 1873 0110 0B       		.uleb128 0xb
 1874 0111 3B       		.uleb128 0x3b
 1875 0112 05       		.uleb128 0x5
 1876 0113 01       		.uleb128 0x1
 1877 0114 13       		.uleb128 0x13
 1878 0115 00       		.byte	0
 1879 0116 00       		.byte	0
 1880 0117 18       		.uleb128 0x18
 1881 0118 26       		.uleb128 0x26
ARM GAS  /var/folders/c6/c789hm653lg9vtl73krp73tm0000gn/T//ccLd87C0.s 			page 48


 1882 0119 00       		.byte	0
 1883 011a 49       		.uleb128 0x49
 1884 011b 13       		.uleb128 0x13
 1885 011c 00       		.byte	0
 1886 011d 00       		.byte	0
 1887 011e 19       		.uleb128 0x19
 1888 011f 0D       		.uleb128 0xd
 1889 0120 00       		.byte	0
 1890 0121 03       		.uleb128 0x3
 1891 0122 08       		.uleb128 0x8
 1892 0123 3A       		.uleb128 0x3a
 1893 0124 0B       		.uleb128 0xb
 1894 0125 3B       		.uleb128 0x3b
 1895 0126 0B       		.uleb128 0xb
 1896 0127 49       		.uleb128 0x49
 1897 0128 13       		.uleb128 0x13
 1898 0129 38       		.uleb128 0x38
 1899 012a 0B       		.uleb128 0xb
 1900 012b 00       		.byte	0
 1901 012c 00       		.byte	0
 1902 012d 1A       		.uleb128 0x1a
 1903 012e 13       		.uleb128 0x13
 1904 012f 01       		.byte	0x1
 1905 0130 0B       		.uleb128 0xb
 1906 0131 0B       		.uleb128 0xb
 1907 0132 3A       		.uleb128 0x3a
 1908 0133 0B       		.uleb128 0xb
 1909 0134 3B       		.uleb128 0x3b
 1910 0135 0B       		.uleb128 0xb
 1911 0136 01       		.uleb128 0x1
 1912 0137 13       		.uleb128 0x13
 1913 0138 00       		.byte	0
 1914 0139 00       		.byte	0
 1915 013a 1B       		.uleb128 0x1b
 1916 013b 17       		.uleb128 0x17
 1917 013c 01       		.byte	0x1
 1918 013d 0B       		.uleb128 0xb
 1919 013e 0B       		.uleb128 0xb
 1920 013f 3A       		.uleb128 0x3a
 1921 0140 0B       		.uleb128 0xb
 1922 0141 3B       		.uleb128 0x3b
 1923 0142 0B       		.uleb128 0xb
 1924 0143 01       		.uleb128 0x1
 1925 0144 13       		.uleb128 0x13
 1926 0145 00       		.byte	0
 1927 0146 00       		.byte	0
 1928 0147 1C       		.uleb128 0x1c
 1929 0148 0D       		.uleb128 0xd
 1930 0149 00       		.byte	0
 1931 014a 03       		.uleb128 0x3
 1932 014b 0E       		.uleb128 0xe
 1933 014c 3A       		.uleb128 0x3a
 1934 014d 0B       		.uleb128 0xb
 1935 014e 3B       		.uleb128 0x3b
 1936 014f 05       		.uleb128 0x5
 1937 0150 49       		.uleb128 0x49
 1938 0151 13       		.uleb128 0x13
ARM GAS  /var/folders/c6/c789hm653lg9vtl73krp73tm0000gn/T//ccLd87C0.s 			page 49


 1939 0152 00       		.byte	0
 1940 0153 00       		.byte	0
 1941 0154 1D       		.uleb128 0x1d
 1942 0155 2E       		.uleb128 0x2e
 1943 0156 01       		.byte	0x1
 1944 0157 3F       		.uleb128 0x3f
 1945 0158 19       		.uleb128 0x19
 1946 0159 03       		.uleb128 0x3
 1947 015a 0E       		.uleb128 0xe
 1948 015b 3A       		.uleb128 0x3a
 1949 015c 0B       		.uleb128 0xb
 1950 015d 3B       		.uleb128 0x3b
 1951 015e 0B       		.uleb128 0xb
 1952 015f 27       		.uleb128 0x27
 1953 0160 19       		.uleb128 0x19
 1954 0161 11       		.uleb128 0x11
 1955 0162 01       		.uleb128 0x1
 1956 0163 12       		.uleb128 0x12
 1957 0164 06       		.uleb128 0x6
 1958 0165 40       		.uleb128 0x40
 1959 0166 18       		.uleb128 0x18
 1960 0167 9742     		.uleb128 0x2117
 1961 0169 19       		.uleb128 0x19
 1962 016a 01       		.uleb128 0x1
 1963 016b 13       		.uleb128 0x13
 1964 016c 00       		.byte	0
 1965 016d 00       		.byte	0
 1966 016e 1E       		.uleb128 0x1e
 1967 016f 05       		.uleb128 0x5
 1968 0170 00       		.byte	0
 1969 0171 03       		.uleb128 0x3
 1970 0172 08       		.uleb128 0x8
 1971 0173 3A       		.uleb128 0x3a
 1972 0174 0B       		.uleb128 0xb
 1973 0175 3B       		.uleb128 0x3b
 1974 0176 0B       		.uleb128 0xb
 1975 0177 49       		.uleb128 0x49
 1976 0178 13       		.uleb128 0x13
 1977 0179 02       		.uleb128 0x2
 1978 017a 17       		.uleb128 0x17
 1979 017b 00       		.byte	0
 1980 017c 00       		.byte	0
 1981 017d 1F       		.uleb128 0x1f
 1982 017e 05       		.uleb128 0x5
 1983 017f 00       		.byte	0
 1984 0180 03       		.uleb128 0x3
 1985 0181 0E       		.uleb128 0xe
 1986 0182 3A       		.uleb128 0x3a
 1987 0183 0B       		.uleb128 0xb
 1988 0184 3B       		.uleb128 0x3b
 1989 0185 0B       		.uleb128 0xb
 1990 0186 49       		.uleb128 0x49
 1991 0187 13       		.uleb128 0x13
 1992 0188 02       		.uleb128 0x2
 1993 0189 17       		.uleb128 0x17
 1994 018a 00       		.byte	0
 1995 018b 00       		.byte	0
ARM GAS  /var/folders/c6/c789hm653lg9vtl73krp73tm0000gn/T//ccLd87C0.s 			page 50


 1996 018c 20       		.uleb128 0x20
 1997 018d 34       		.uleb128 0x34
 1998 018e 00       		.byte	0
 1999 018f 03       		.uleb128 0x3
 2000 0190 0E       		.uleb128 0xe
 2001 0191 49       		.uleb128 0x49
 2002 0192 13       		.uleb128 0x13
 2003 0193 34       		.uleb128 0x34
 2004 0194 19       		.uleb128 0x19
 2005 0195 00       		.byte	0
 2006 0196 00       		.byte	0
 2007 0197 21       		.uleb128 0x21
 2008 0198 34       		.uleb128 0x34
 2009 0199 00       		.byte	0
 2010 019a 03       		.uleb128 0x3
 2011 019b 0E       		.uleb128 0xe
 2012 019c 3A       		.uleb128 0x3a
 2013 019d 0B       		.uleb128 0xb
 2014 019e 3B       		.uleb128 0x3b
 2015 019f 05       		.uleb128 0x5
 2016 01a0 49       		.uleb128 0x49
 2017 01a1 13       		.uleb128 0x13
 2018 01a2 3F       		.uleb128 0x3f
 2019 01a3 19       		.uleb128 0x19
 2020 01a4 3C       		.uleb128 0x3c
 2021 01a5 19       		.uleb128 0x19
 2022 01a6 00       		.byte	0
 2023 01a7 00       		.byte	0
 2024 01a8 22       		.uleb128 0x22
 2025 01a9 34       		.uleb128 0x34
 2026 01aa 00       		.byte	0
 2027 01ab 03       		.uleb128 0x3
 2028 01ac 08       		.uleb128 0x8
 2029 01ad 3A       		.uleb128 0x3a
 2030 01ae 0B       		.uleb128 0xb
 2031 01af 3B       		.uleb128 0x3b
 2032 01b0 05       		.uleb128 0x5
 2033 01b1 49       		.uleb128 0x49
 2034 01b2 13       		.uleb128 0x13
 2035 01b3 3F       		.uleb128 0x3f
 2036 01b4 19       		.uleb128 0x19
 2037 01b5 3C       		.uleb128 0x3c
 2038 01b6 19       		.uleb128 0x19
 2039 01b7 00       		.byte	0
 2040 01b8 00       		.byte	0
 2041 01b9 00       		.byte	0
 2042              		.section	.debug_loc,"",%progbits
 2043              	.Ldebug_loc0:
 2044              	.LLST0:
 2045 0000 00000000 		.4byte	.LVL0
 2046 0004 1E000000 		.4byte	.LVL2
 2047 0008 0100     		.2byte	0x1
 2048 000a 50       		.byte	0x50
 2049 000b 1E000000 		.4byte	.LVL2
 2050 000f 34000000 		.4byte	.LFE260
 2051 0013 0700     		.2byte	0x7
 2052 0015 72       		.byte	0x72
ARM GAS  /var/folders/c6/c789hm653lg9vtl73krp73tm0000gn/T//ccLd87C0.s 			page 51


 2053 0016 80BEFCFF 		.sleb128 536813312
 2053      01
 2054 001b 9F       		.byte	0x9f
 2055 001c 00000000 		.4byte	0
 2056 0020 00000000 		.4byte	0
 2057              	.LLST1:
 2058 0024 00000000 		.4byte	.LVL0
 2059 0028 16000000 		.4byte	.LVL1
 2060 002c 0100     		.2byte	0x1
 2061 002e 51       		.byte	0x51
 2062 002f 16000000 		.4byte	.LVL1
 2063 0033 34000000 		.4byte	.LFE260
 2064 0037 0400     		.2byte	0x4
 2065 0039 F3       		.byte	0xf3
 2066 003a 01       		.uleb128 0x1
 2067 003b 51       		.byte	0x51
 2068 003c 9F       		.byte	0x9f
 2069 003d 00000000 		.4byte	0
 2070 0041 00000000 		.4byte	0
 2071              	.LLST2:
 2072 0045 00000000 		.4byte	.LVL3
 2073 0049 10000000 		.4byte	.LVL4
 2074 004d 0100     		.2byte	0x1
 2075 004f 50       		.byte	0x50
 2076 0050 10000000 		.4byte	.LVL4
 2077 0054 28000000 		.4byte	.LFE261
 2078 0058 0700     		.2byte	0x7
 2079 005a 70       		.byte	0x70
 2080 005b 80BEFCFF 		.sleb128 536813312
 2080      01
 2081 0060 9F       		.byte	0x9f
 2082 0061 00000000 		.4byte	0
 2083 0065 00000000 		.4byte	0
 2084              	.LLST3:
 2085 0069 00000000 		.4byte	.LVL5
 2086 006d 04000000 		.4byte	.LVL6
 2087 0071 0100     		.2byte	0x1
 2088 0073 50       		.byte	0x50
 2089 0074 04000000 		.4byte	.LVL6
 2090 0078 08000000 		.4byte	.LVL7
 2091 007c 0700     		.2byte	0x7
 2092 007e 70       		.byte	0x70
 2093 007f 80808080 		.sleb128 536870912
 2093      02
 2094 0084 9F       		.byte	0x9f
 2095 0085 08000000 		.4byte	.LVL7
 2096 0089 10000000 		.4byte	.LFE262
 2097 008d 0700     		.2byte	0x7
 2098 008f 70       		.byte	0x70
 2099 0090 80A6FCFF 		.sleb128 536810240
 2099      01
 2100 0095 9F       		.byte	0x9f
 2101 0096 00000000 		.4byte	0
 2102 009a 00000000 		.4byte	0
 2103              	.LLST4:
 2104 009e 00000000 		.4byte	.LVL5
 2105 00a2 0A000000 		.4byte	.LVL8
ARM GAS  /var/folders/c6/c789hm653lg9vtl73krp73tm0000gn/T//ccLd87C0.s 			page 52


 2106 00a6 0100     		.2byte	0x1
 2107 00a8 51       		.byte	0x51
 2108 00a9 0A000000 		.4byte	.LVL8
 2109 00ad 10000000 		.4byte	.LFE262
 2110 00b1 0400     		.2byte	0x4
 2111 00b3 F3       		.byte	0xf3
 2112 00b4 01       		.uleb128 0x1
 2113 00b5 51       		.byte	0x51
 2114 00b6 9F       		.byte	0x9f
 2115 00b7 00000000 		.4byte	0
 2116 00bb 00000000 		.4byte	0
 2117              	.LLST5:
 2118 00bf 00000000 		.4byte	.LVL9
 2119 00c3 08000000 		.4byte	.LVL10
 2120 00c7 0100     		.2byte	0x1
 2121 00c9 50       		.byte	0x50
 2122 00ca 08000000 		.4byte	.LVL10
 2123 00ce 1C000000 		.4byte	.LFE263
 2124 00d2 0400     		.2byte	0x4
 2125 00d4 F3       		.byte	0xf3
 2126 00d5 01       		.uleb128 0x1
 2127 00d6 50       		.byte	0x50
 2128 00d7 9F       		.byte	0x9f
 2129 00d8 00000000 		.4byte	0
 2130 00dc 00000000 		.4byte	0
 2131              		.section	.debug_aranges,"",%progbits
 2132 0000 34000000 		.4byte	0x34
 2133 0004 0200     		.2byte	0x2
 2134 0006 00000000 		.4byte	.Ldebug_info0
 2135 000a 04       		.byte	0x4
 2136 000b 00       		.byte	0
 2137 000c 0000     		.2byte	0
 2138 000e 0000     		.2byte	0
 2139 0010 00000000 		.4byte	.LFB260
 2140 0014 34000000 		.4byte	.LFE260-.LFB260
 2141 0018 00000000 		.4byte	.LFB261
 2142 001c 28000000 		.4byte	.LFE261-.LFB261
 2143 0020 00000000 		.4byte	.LFB262
 2144 0024 10000000 		.4byte	.LFE262-.LFB262
 2145 0028 00000000 		.4byte	.LFB263
 2146 002c 1C000000 		.4byte	.LFE263-.LFB263
 2147 0030 00000000 		.4byte	0
 2148 0034 00000000 		.4byte	0
 2149              		.section	.debug_ranges,"",%progbits
 2150              	.Ldebug_ranges0:
 2151 0000 00000000 		.4byte	.LFB260
 2152 0004 34000000 		.4byte	.LFE260
 2153 0008 00000000 		.4byte	.LFB261
 2154 000c 28000000 		.4byte	.LFE261
 2155 0010 00000000 		.4byte	.LFB262
 2156 0014 10000000 		.4byte	.LFE262
 2157 0018 00000000 		.4byte	.LFB263
 2158 001c 1C000000 		.4byte	.LFE263
 2159 0020 00000000 		.4byte	0
 2160 0024 00000000 		.4byte	0
 2161              		.section	.debug_line,"",%progbits
 2162              	.Ldebug_line0:
ARM GAS  /var/folders/c6/c789hm653lg9vtl73krp73tm0000gn/T//ccLd87C0.s 			page 53


 2163 0000 37020000 		.section	.debug_str,"MS",%progbits,1
 2163      0200DD01 
 2163      00000201 
 2163      FB0E0D00 
 2163      01010101 
 2164              	.LASF45:
 2165 0000 74687265 		.ascii	"threads_list_t\000"
 2165      6164735F 
 2165      6C697374 
 2165      5F7400
 2166              	.LASF84:
 2167 000f 49435052 		.ascii	"ICPR\000"
 2167      00
 2168              	.LASF50:
 2169 0014 72656164 		.ascii	"ready_list_t\000"
 2169      795F6C69 
 2169      73745F74 
 2169      00
 2170              	.LASF116:
 2171 0021 77747472 		.ascii	"wttrp\000"
 2171      7000
 2172              	.LASF113:
 2173 0027 7264796D 		.ascii	"rdymsg\000"
 2173      736700
 2174              	.LASF140:
 2175 002e 5F5F6675 		.ascii	"__func__.7242\000"
 2175      6E635F5F 
 2175      2E373234 
 2175      3200
 2176              	.LASF16:
 2177 003c 75696E74 		.ascii	"uint64_t\000"
 2177      36345F74 
 2177      00
 2178              	.LASF5:
 2179 0045 5F5F7569 		.ascii	"__uint8_t\000"
 2179      6E74385F 
 2179      7400
 2180              	.LASF110:
 2181 004f 706F7274 		.ascii	"port_intctx\000"
 2181      5F696E74 
 2181      63747800 
 2182              	.LASF69:
 2183 005b 73797374 		.ascii	"system_debug_t\000"
 2183      656D5F64 
 2183      65627567 
 2183      5F7400
 2184              	.LASF12:
 2185 006a 6C6F6E67 		.ascii	"long long unsigned int\000"
 2185      206C6F6E 
 2185      6720756E 
 2185      7369676E 
 2185      65642069 
 2186              	.LASF114:
 2187 0081 65786974 		.ascii	"exitcode\000"
 2187      636F6465 
 2187      00
 2188              	.LASF76:
ARM GAS  /var/folders/c6/c789hm653lg9vtl73krp73tm0000gn/T//ccLd87C0.s 			page 54


 2189 008a 6D61696E 		.ascii	"mainthread\000"
 2189      74687265 
 2189      616400
 2190              	.LASF66:
 2191 0095 76697274 		.ascii	"virtual_timers_list_t\000"
 2191      75616C5F 
 2191      74696D65 
 2191      72735F6C 
 2191      6973745F 
 2192              	.LASF92:
 2193 00ab 43505549 		.ascii	"CPUID\000"
 2193      4400
 2194              	.LASF49:
 2195 00b1 63685F74 		.ascii	"ch_threads_queue\000"
 2195      68726561 
 2195      64735F71 
 2195      75657565 
 2195      00
 2196              	.LASF82:
 2197 00c2 49535052 		.ascii	"ISPR\000"
 2197      00
 2198              	.LASF29:
 2199 00c7 705F7072 		.ascii	"p_prio\000"
 2199      696F00
 2200              	.LASF131:
 2201 00ce 6E766963 		.ascii	"nvicEnableVector\000"
 2201      456E6162 
 2201      6C655665 
 2201      63746F72 
 2201      00
 2202              	.LASF104:
 2203 00df 49534152 		.ascii	"ISAR\000"
 2203      00
 2204              	.LASF10:
 2205 00e4 6C6F6E67 		.ascii	"long long int\000"
 2205      206C6F6E 
 2205      6720696E 
 2205      7400
 2206              	.LASF1:
 2207 00f2 7369676E 		.ascii	"signed char\000"
 2207      65642063 
 2207      68617200 
 2208              	.LASF43:
 2209 00fe 705F6D70 		.ascii	"p_mpool\000"
 2209      6F6F6C00 
 2210              	.LASF124:
 2211 0106 6D5F7175 		.ascii	"m_queue\000"
 2211      65756500 
 2212              	.LASF135:
 2213 010e 6E766963 		.ascii	"nvicClearPending\000"
 2213      436C6561 
 2213      7250656E 
 2213      64696E67 
 2213      00
 2214              	.LASF75:
 2215 011f 76746C69 		.ascii	"vtlist\000"
 2215      737400
ARM GAS  /var/folders/c6/c789hm653lg9vtl73krp73tm0000gn/T//ccLd87C0.s 			page 55


 2216              	.LASF73:
 2217 0126 63685F73 		.ascii	"ch_system\000"
 2217      79737465 
 2217      6D00
 2218              	.LASF7:
 2219 0130 6C6F6E67 		.ascii	"long int\000"
 2219      20696E74 
 2219      00
 2220              	.LASF19:
 2221 0139 74737461 		.ascii	"tstate_t\000"
 2221      74655F74 
 2221      00
 2222              	.LASF31:
 2223 0142 705F6E65 		.ascii	"p_newer\000"
 2223      77657200 
 2224              	.LASF121:
 2225 014a 735F7175 		.ascii	"s_queue\000"
 2225      65756500 
 2226              	.LASF101:
 2227 0152 42464152 		.ascii	"BFAR\000"
 2227      00
 2228              	.LASF102:
 2229 0157 41465352 		.ascii	"AFSR\000"
 2229      00
 2230              	.LASF55:
 2231 015c 725F6E65 		.ascii	"r_newer\000"
 2231      77657200 
 2232              	.LASF107:
 2233 0164 72656761 		.ascii	"regarm_t\000"
 2233      726D5F74 
 2233      00
 2234              	.LASF62:
 2235 016d 76745F70 		.ascii	"vt_prev\000"
 2235      72657600 
 2236              	.LASF106:
 2237 0175 5343425F 		.ascii	"SCB_Type\000"
 2237      54797065 
 2237      00
 2238              	.LASF128:
 2239 017e 6D757465 		.ascii	"mutex_t\000"
 2239      785F7400 
 2240              	.LASF77:
 2241 0186 69646C65 		.ascii	"idle_thread_wa\000"
 2241      5F746872 
 2241      6561645F 
 2241      776100
 2242              	.LASF24:
 2243 0195 636E745F 		.ascii	"cnt_t\000"
 2243      7400
 2244              	.LASF0:
 2245 019b 756E7369 		.ascii	"unsigned int\000"
 2245      676E6564 
 2245      20696E74 
 2245      00
 2246              	.LASF61:
 2247 01a8 76745F6E 		.ascii	"vt_next\000"
 2247      65787400 
ARM GAS  /var/folders/c6/c789hm653lg9vtl73krp73tm0000gn/T//ccLd87C0.s 			page 56


 2248              	.LASF132:
 2249 01b0 6E766963 		.ascii	"nvicDisableVector\000"
 2249      44697361 
 2249      626C6556 
 2249      6563746F 
 2249      7200
 2250              	.LASF117:
 2251 01c2 77747365 		.ascii	"wtsemp\000"
 2251      6D7000
 2252              	.LASF38:
 2253 01c9 705F6D73 		.ascii	"p_msgqueue\000"
 2253      67717565 
 2253      756500
 2254              	.LASF94:
 2255 01d4 56544F52 		.ascii	"VTOR\000"
 2255      00
 2256              	.LASF122:
 2257 01d9 735F636E 		.ascii	"s_cnt\000"
 2257      7400
 2258              	.LASF46:
 2259 01df 63685F74 		.ascii	"ch_thread\000"
 2259      68726561 
 2259      6400
 2260              	.LASF93:
 2261 01e9 49435352 		.ascii	"ICSR\000"
 2261      00
 2262              	.LASF22:
 2263 01ee 6D73675F 		.ascii	"msg_t\000"
 2263      7400
 2264              	.LASF95:
 2265 01f4 41495243 		.ascii	"AIRCR\000"
 2265      5200
 2266              	.LASF99:
 2267 01fa 44465352 		.ascii	"DFSR\000"
 2267      00
 2268              	.LASF100:
 2269 01ff 4D4D4641 		.ascii	"MMFAR\000"
 2269      5200
 2270              	.LASF72:
 2271 0205 63685F73 		.ascii	"ch_system_t\000"
 2271      79737465 
 2271      6D5F7400 
 2272              	.LASF18:
 2273 0211 746D6F64 		.ascii	"tmode_t\000"
 2273      655F7400 
 2274              	.LASF51:
 2275 0219 63685F72 		.ascii	"ch_ready_list\000"
 2275      65616479 
 2275      5F6C6973 
 2275      7400
 2276              	.LASF23:
 2277 0227 6576656E 		.ascii	"eventmask_t\000"
 2277      746D6173 
 2277      6B5F7400 
 2278              	.LASF6:
 2279 0233 5F5F696E 		.ascii	"__int32_t\000"
 2279      7433325F 
ARM GAS  /var/folders/c6/c789hm653lg9vtl73krp73tm0000gn/T//ccLd87C0.s 			page 57


 2279      7400
 2280              	.LASF108:
 2281 023d 73746B61 		.ascii	"stkalign_t\000"
 2281      6C69676E 
 2281      5F7400
 2282              	.LASF134:
 2283 0248 68616E64 		.ascii	"handler\000"
 2283      6C657200 
 2284              	.LASF59:
 2285 0250 76697274 		.ascii	"virtual_timer_t\000"
 2285      75616C5F 
 2285      74696D65 
 2285      725F7400 
 2286              	.LASF37:
 2287 0260 705F7761 		.ascii	"p_waiting\000"
 2287      6974696E 
 2287      6700
 2288              	.LASF90:
 2289 026a 73697A65 		.ascii	"sizetype\000"
 2289      74797065 
 2289      00
 2290              	.LASF44:
 2291 0273 74687265 		.ascii	"thread_reference_t\000"
 2291      61645F72 
 2291      65666572 
 2291      656E6365 
 2291      5F7400
 2292              	.LASF67:
 2293 0286 63685F76 		.ascii	"ch_virtual_timers_list\000"
 2293      69727475 
 2293      616C5F74 
 2293      696D6572 
 2293      735F6C69 
 2294              	.LASF97:
 2295 029d 43465352 		.ascii	"CFSR\000"
 2295      00
 2296              	.LASF86:
 2297 02a2 49414252 		.ascii	"IABR\000"
 2297      00
 2298              	.LASF68:
 2299 02a7 76745F6C 		.ascii	"vt_lasttime\000"
 2299      61737474 
 2299      696D6500 
 2300              	.LASF32:
 2301 02b3 705F6F6C 		.ascii	"p_older\000"
 2301      64657200 
 2302              	.LASF54:
 2303 02bb 725F6374 		.ascii	"r_ctx\000"
 2303      7800
 2304              	.LASF112:
 2305 02c1 746D5F63 		.ascii	"tm_calibration_t\000"
 2305      616C6962 
 2305      72617469 
 2305      6F6E5F74 
 2305      00
 2306              	.LASF80:
 2307 02d2 49434552 		.ascii	"ICER\000"
ARM GAS  /var/folders/c6/c789hm653lg9vtl73krp73tm0000gn/T//ccLd87C0.s 			page 58


 2307      00
 2308              	.LASF130:
 2309 02d7 7072696F 		.ascii	"prio\000"
 2309      00
 2310              	.LASF56:
 2311 02dc 725F6F6C 		.ascii	"r_older\000"
 2311      64657200 
 2312              	.LASF11:
 2313 02e4 5F5F7569 		.ascii	"__uint64_t\000"
 2313      6E743634 
 2313      5F7400
 2314              	.LASF20:
 2315 02ef 74726566 		.ascii	"trefs_t\000"
 2315      735F7400 
 2316              	.LASF79:
 2317 02f7 52455345 		.ascii	"RESERVED0\000"
 2317      52564544 
 2317      3000
 2318              	.LASF83:
 2319 0301 52455345 		.ascii	"RESERVED2\000"
 2319      52564544 
 2319      3200
 2320              	.LASF85:
 2321 030b 52455345 		.ascii	"RESERVED3\000"
 2321      52564544 
 2321      3300
 2322              	.LASF87:
 2323 0315 52455345 		.ascii	"RESERVED4\000"
 2323      52564544 
 2323      3400
 2324              	.LASF28:
 2325 031f 705F7072 		.ascii	"p_prev\000"
 2325      657600
 2326              	.LASF21:
 2327 0326 74707269 		.ascii	"tprio_t\000"
 2327      6F5F7400 
 2328              	.LASF70:
 2329 032e 63685F73 		.ascii	"ch_system_debug\000"
 2329      79737465 
 2329      6D5F6465 
 2329      62756700 
 2330              	.LASF129:
 2331 033e 5F426F6F 		.ascii	"_Bool\000"
 2331      6C00
 2332              	.LASF14:
 2333 0344 696E7433 		.ascii	"int32_t\000"
 2333      325F7400 
 2334              	.LASF2:
 2335 034c 756E7369 		.ascii	"unsigned char\000"
 2335      676E6564 
 2335      20636861 
 2335      7200
 2336              	.LASF96:
 2337 035a 53484353 		.ascii	"SHCSR\000"
 2337      5200
 2338              	.LASF136:
 2339 0360 49544D5F 		.ascii	"ITM_RxBuffer\000"
ARM GAS  /var/folders/c6/c789hm653lg9vtl73krp73tm0000gn/T//ccLd87C0.s 			page 59


 2339      52784275 
 2339      66666572 
 2339      00
 2340              	.LASF34:
 2341 036d 705F7374 		.ascii	"p_state\000"
 2341      61746500 
 2342              	.LASF41:
 2343 0375 705F6D74 		.ascii	"p_mtxlist\000"
 2343      786C6973 
 2343      7400
 2344              	.LASF3:
 2345 037f 73686F72 		.ascii	"short int\000"
 2345      7420696E 
 2345      7400
 2346              	.LASF78:
 2347 0389 49534552 		.ascii	"ISER\000"
 2347      00
 2348              	.LASF91:
 2349 038e 4E564943 		.ascii	"NVIC_Type\000"
 2349      5F547970 
 2349      6500
 2350              	.LASF133:
 2351 0398 6E766963 		.ascii	"nvicSetSystemHandlerPriority\000"
 2351      53657453 
 2351      79737465 
 2351      6D48616E 
 2351      646C6572 
 2352              	.LASF53:
 2353 03b5 725F7072 		.ascii	"r_prio\000"
 2353      696F00
 2354              	.LASF119:
 2355 03bc 65776D61 		.ascii	"ewmask\000"
 2355      736B00
 2356              	.LASF27:
 2357 03c3 705F6E65 		.ascii	"p_next\000"
 2357      787400
 2358              	.LASF35:
 2359 03ca 705F666C 		.ascii	"p_flags\000"
 2359      61677300 
 2360              	.LASF4:
 2361 03d2 73686F72 		.ascii	"short unsigned int\000"
 2361      7420756E 
 2361      7369676E 
 2361      65642069 
 2361      6E7400
 2362              	.LASF60:
 2363 03e5 63685F76 		.ascii	"ch_virtual_timer\000"
 2363      69727475 
 2363      616C5F74 
 2363      696D6572 
 2363      00
 2364              	.LASF120:
 2365 03f6 63685F73 		.ascii	"ch_semaphore\000"
 2365      656D6170 
 2365      686F7265 
 2365      00
 2366              	.LASF40:
ARM GAS  /var/folders/c6/c789hm653lg9vtl73krp73tm0000gn/T//ccLd87C0.s 			page 60


 2367 0403 705F6570 		.ascii	"p_epending\000"
 2367      656E6469 
 2367      6E6700
 2368              	.LASF88:
 2369 040e 52455345 		.ascii	"RESERVED5\000"
 2369      52564544 
 2369      3500
 2370              	.LASF15:
 2371 0418 75696E74 		.ascii	"uint32_t\000"
 2371      33325F74 
 2371      00
 2372              	.LASF118:
 2373 0421 77746D74 		.ascii	"wtmtxp\000"
 2373      787000
 2374              	.LASF52:
 2375 0428 725F7175 		.ascii	"r_queue\000"
 2375      65756500 
 2376              	.LASF63:
 2377 0430 76745F64 		.ascii	"vt_delta\000"
 2377      656C7461 
 2377      00
 2378              	.LASF47:
 2379 0439 63685F74 		.ascii	"ch_threads_list\000"
 2379      68726561 
 2379      64735F6C 
 2379      69737400 
 2380              	.LASF9:
 2381 0449 6C6F6E67 		.ascii	"long unsigned int\000"
 2381      20756E73 
 2381      69676E65 
 2381      6420696E 
 2381      7400
 2382              	.LASF139:
 2383 045b 2F557365 		.ascii	"/Users/savonetj/Downloads/ChibiOS_3.0.2/demos/STM32"
 2383      72732F73 
 2383      61766F6E 
 2383      65746A2F 
 2383      446F776E 
 2384 048e 2F52542D 		.ascii	"/RT-STM32F407-DISCOVERY\000"
 2384      53544D33 
 2384      32463430 
 2384      372D4449 
 2384      53434F56 
 2385              	.LASF127:
 2386 04a6 63686172 		.ascii	"char\000"
 2386      00
 2387              	.LASF26:
 2388 04ab 74687265 		.ascii	"thread_t\000"
 2388      61645F74 
 2388      00
 2389              	.LASF126:
 2390 04b4 6D5F6E65 		.ascii	"m_next\000"
 2390      787400
 2391              	.LASF25:
 2392 04bb 73797374 		.ascii	"systime_t\000"
 2392      696D655F 
 2392      7400
ARM GAS  /var/folders/c6/c789hm653lg9vtl73krp73tm0000gn/T//ccLd87C0.s 			page 61


 2393              	.LASF42:
 2394 04c5 705F7265 		.ascii	"p_realprio\000"
 2394      616C7072 
 2394      696F00
 2395              	.LASF58:
 2396 04d0 76746675 		.ascii	"vtfunc_t\000"
 2396      6E635F74 
 2396      00
 2397              	.LASF8:
 2398 04d9 5F5F7569 		.ascii	"__uint32_t\000"
 2398      6E743332 
 2398      5F7400
 2399              	.LASF71:
 2400 04e4 70616E69 		.ascii	"panic_msg\000"
 2400      635F6D73 
 2400      6700
 2401              	.LASF111:
 2402 04ee 6F666673 		.ascii	"offset\000"
 2402      657400
 2403              	.LASF109:
 2404 04f5 636F6E74 		.ascii	"context\000"
 2404      65787400 
 2405              	.LASF17:
 2406 04fd 7274636E 		.ascii	"rtcnt_t\000"
 2406      745F7400 
 2407              	.LASF138:
 2408 0505 2E2E2F2E 		.ascii	"../../../os/hal/ports/common/ARMCMx/nvic.c\000"
 2408      2E2F2E2E 
 2408      2F6F732F 
 2408      68616C2F 
 2408      706F7274 
 2409              	.LASF65:
 2410 0530 76745F70 		.ascii	"vt_par\000"
 2410      617200
 2411              	.LASF48:
 2412 0537 74687265 		.ascii	"threads_queue_t\000"
 2412      6164735F 
 2412      71756575 
 2412      655F7400 
 2413              	.LASF123:
 2414 0547 63685F6D 		.ascii	"ch_mutex\000"
 2414      75746578 
 2414      00
 2415              	.LASF36:
 2416 0550 705F7265 		.ascii	"p_refs\000"
 2416      667300
 2417              	.LASF103:
 2418 0557 4D4D4652 		.ascii	"MMFR\000"
 2418      00
 2419              	.LASF74:
 2420 055c 726C6973 		.ascii	"rlist\000"
 2420      7400
 2421              	.LASF13:
 2422 0562 75696E74 		.ascii	"uint8_t\000"
 2422      385F7400 
 2423              	.LASF81:
 2424 056a 52534552 		.ascii	"RSERVED1\000"
ARM GAS  /var/folders/c6/c789hm653lg9vtl73krp73tm0000gn/T//ccLd87C0.s 			page 62


 2424      56454431 
 2424      00
 2425              	.LASF89:
 2426 0573 53544952 		.ascii	"STIR\000"
 2426      00
 2427              	.LASF115:
 2428 0578 77746F62 		.ascii	"wtobjp\000"
 2428      6A7000
 2429              	.LASF33:
 2430 057f 705F6E61 		.ascii	"p_name\000"
 2430      6D6500
 2431              	.LASF57:
 2432 0586 725F6375 		.ascii	"r_current\000"
 2432      7272656E 
 2432      7400
 2433              	.LASF137:
 2434 0590 474E5520 		.ascii	"GNU C 4.8.4 20140725 (release) [ARM/embedded-4_8-br"
 2434      4320342E 
 2434      382E3420 
 2434      32303134 
 2434      30373235 
 2435 05c3 616E6368 		.ascii	"anch revision 213147] -mcpu=cortex-m4 -mno-thumb-in"
 2435      20726576 
 2435      6973696F 
 2435      6E203231 
 2435      33313437 
 2436 05f6 74657277 		.ascii	"terwork -mthumb -ggdb -O2 -fomit-frame-pointer -fal"
 2436      6F726B20 
 2436      2D6D7468 
 2436      756D6220 
 2436      2D676764 
 2437 0629 69676E2D 		.ascii	"ign-functions=16 -ffunction-sections -fdata-section"
 2437      66756E63 
 2437      74696F6E 
 2437      733D3136 
 2437      202D6666 
 2438 065c 73202D66 		.ascii	"s -fno-common -flto\000"
 2438      6E6F2D63 
 2438      6F6D6D6F 
 2438      6E202D66 
 2438      6C746F00 
 2439              	.LASF39:
 2440 0670 705F6D73 		.ascii	"p_msg\000"
 2440      6700
 2441              	.LASF105:
 2442 0676 43504143 		.ascii	"CPACR\000"
 2442      5200
 2443              	.LASF98:
 2444 067c 48465352 		.ascii	"HFSR\000"
 2444      00
 2445              	.LASF125:
 2446 0681 6D5F6F77 		.ascii	"m_owner\000"
 2446      6E657200 
 2447              	.LASF30:
 2448 0689 705F6374 		.ascii	"p_ctx\000"
 2448      7800
 2449              	.LASF64:
ARM GAS  /var/folders/c6/c789hm653lg9vtl73krp73tm0000gn/T//ccLd87C0.s 			page 63


 2450 068f 76745F66 		.ascii	"vt_func\000"
 2450      756E6300 
 2451              		.comm	__gnu_lto_v1,1,1
 2452              		.ident	"GCC: (GNU Tools for ARM Embedded Processors) 4.8.4 20140725 (release) [ARM/embedded-4_8-br
ARM GAS  /var/folders/c6/c789hm653lg9vtl73krp73tm0000gn/T//ccLd87C0.s 			page 64


DEFINED SYMBOLS
                            *ABS*:0000000000000000 nvic.c
/var/folders/c6/c789hm653lg9vtl73krp73tm0000gn/T//ccLd87C0.s:259    .text.nvicEnableVector:0000000000000000 $t
/var/folders/c6/c789hm653lg9vtl73krp73tm0000gn/T//ccLd87C0.s:265    .text.nvicEnableVector:0000000000000000 nvicEnableVector
/var/folders/c6/c789hm653lg9vtl73krp73tm0000gn/T//ccLd87C0.s:309    .text.nvicDisableVector:0000000000000000 $t
/var/folders/c6/c789hm653lg9vtl73krp73tm0000gn/T//ccLd87C0.s:315    .text.nvicDisableVector:0000000000000000 nvicDisableVector
/var/folders/c6/c789hm653lg9vtl73krp73tm0000gn/T//ccLd87C0.s:351    .text.nvicDisableVector:0000000000000024 $d
/var/folders/c6/c789hm653lg9vtl73krp73tm0000gn/T//ccLd87C0.s:356    .text.nvicSetSystemHandlerPriority:0000000000000000 $t
/var/folders/c6/c789hm653lg9vtl73krp73tm0000gn/T//ccLd87C0.s:362    .text.nvicSetSystemHandlerPriority:0000000000000000 nvicSetSystemHandlerPriority
/var/folders/c6/c789hm653lg9vtl73krp73tm0000gn/T//ccLd87C0.s:384    .text.nvicClearPending:0000000000000000 $t
/var/folders/c6/c789hm653lg9vtl73krp73tm0000gn/T//ccLd87C0.s:390    .text.nvicClearPending:0000000000000000 nvicClearPending
/var/folders/c6/c789hm653lg9vtl73krp73tm0000gn/T//ccLd87C0.s:411    .text.nvicClearPending:0000000000000018 $d
                            *COM*:0000000000000001 __gnu_lto_v1
                     .debug_frame:0000000000000010 $d
/var/folders/c6/c789hm653lg9vtl73krp73tm0000gn/T//ccLd87C0.s:355    .text.nvicDisableVector:0000000000000028 $t
/var/folders/c6/c789hm653lg9vtl73krp73tm0000gn/T//ccLd87C0.s:415    .text.nvicClearPending:000000000000001c $t

NO UNDEFINED SYMBOLS
