ARM GAS  /var/folders/c6/c789hm653lg9vtl73krp73tm0000gn/T//ccLd87C0.s 			page 1


   1              		.syntax unified
   2              		.cpu cortex-m4
   3              		.fpu softvfp
   4              		.eabi_attribute 20, 1
   5              		.eabi_attribute 21, 1
   6              		.eabi_attribute 23, 3
   7              		.eabi_attribute 24, 1
   8              		.eabi_attribute 25, 1
   9              		.eabi_attribute 26, 1
  10              		.eabi_attribute 30, 2
  11              		.eabi_attribute 34, 1
  12              		.eabi_attribute 18, 4
  13              		.thumb
  14              		.file	"nvic.c"
  15              		.text
  16              	.Ltext0:
  17              		.section	.gnu.lto_.jmpfuncs.e9a3f4365805eac3,"",%progbits
  18 0000 789C6362 		.ascii	"x\234cb`b\300\006\270\2404\013\0033##\02333#\003\000"
  18      6062C006 
  18      B8A0340B 
  18      03332323 
  18      13333323 
  19 0016 01F00021 		.ascii	"\001\360\000!"
  20              		.text
  21              		.section	.gnu.lto_.inline.e9a3f4365805eac3,"",%progbits
  22 0000 789C6D4C 		.ascii	"x\234mL\313\025\200 \014KK\205\352\305\021\330\300%"
  22      CB158020 
  22      0C4B4B85 
  22      EAC511D8 
  22      C025
  23 0012 5D84911C 		.ascii	"]\204\221\034\305\021LQy\036\354!}\371*\024\177\267"
  23      C5114C51 
  23      791EEC21 
  23      7DF92A14 
  23      7FB7
  24 0024 3FDF8065 		.ascii	"?\337\200e\026\025\011\022`\371\334\220[U\350\261\032"
  24      16150912 
  24      60F9DC90 
  24      5B55E8B1 
  24      1A
  25 0035 C89CAAD3 		.ascii	"\310\234\252\323\363\302TD\222\265zG\350Z\037QL&\322"
  25      F3C25444 
  25      92B57A47 
  25      E85A1F51 
  25      4C26D2
  26 0048 57127B9F 		.ascii	"W\022{\237\201PP\362[\035\346\250\342\002a/\015\002"
  26      815050F2 
  26      5B1DE6A8 
  26      E202612F 
  26      0D02
  27              		.text
  28              		.section	.gnu.lto_.pureconst.e9a3f4365805eac3,"",%progbits
  29 0000 789C6362 		.ascii	"x\234cb`b\340d\200\000\026\006)F)&)f)\000\002\326\000"
  29      6062E064 
  29      80001606 
  29      29462926 
  29      29662900 
ARM GAS  /var/folders/c6/c789hm653lg9vtl73krp73tm0000gn/T//ccLd87C0.s 			page 2


  30 0017 80       		.ascii	"\200"
  31              		.text
  32              		.section	.gnu.lto_nvicEnableVector.e9a3f4365805eac3,"",%progbits
  33 0000 789C9D51 		.ascii	"x\234\235Q\277O\302P\020\276{\245\266@\202#a\222\270"
  33      BF4FC250 
  33      10BE7BA5 
  33      B6408223 
  33      6192B8
  34 0013 125B9D1C 		.ascii	"\022[\235\034\234\214\223\003\213\301DG\254\0116\021"
  34      9C8C9303 
  34      8BC14447 
  34      AC093611 
  35 0023 6AC41837 		.ascii	"j\304\0307\012\305\305\211\0315H\334\214?V\243\213\301"
  35      0AC5C589 
  35      193548DC 
  35      8C3F56A3 
  35      8BC1
  36 0035 C9018DFF 		.ascii	"\311\001\215\377\001\263&:\2208\202w\017Z#!\016^\332"
  36      01B3263A 
  36      90388277 
  36      0F5A2321 
  36      0E5EDA
  37 0048 F7EEC777 		.ascii	"\367\356\307w\337\335\327\012\0200j\011z7)=G7*\200\242"
  37      DFDDD70A 
  37      10306A09 
  37      7A37293D 
  37      47372A80 
  38 005d F60C50D6 		.ascii	"\366\014P\326\005\";\200P\022XZG\206\34244]\267\326"
  38      05223B80 
  38      5012585A 
  38      4786E234 
  38      345DB7D6 
  39 0071 396C9C26 		.ascii	"9l\234&\216\316*5\267\327\357\243\215Dj X\010k\024`"
  39      8ECE2A35 
  39      B7D7EFA3 
  39      8D446A20 
  39      58086B14 
  40 0086 525E22F4 		.ascii	"R^\"\364{\312\215x\350\364\373'/\365\257x\0141\317="
  40      7BCA8D78 
  40      E8F4FB27 
  40      2FF5AF78 
  40      0C31CF3D 
  41 009a 362A0A1F 		.ascii	"6*\012\037*\205\250\221\027\322!\213M\032\022\246\000"
  41      2A85A891 
  41      17D2218B 
  41      4D1A12A6 
  41      00
  42 00ab 227C4439 		.ascii	"\"|D9M\355*Tip\022x\012Y\206N\336n\025\005\337J\033"
  42      4DED2A54 
  42      69701278 
  42      0A59864E 
  42      DE6E1505 
  43 00c2 2AEFDE67 		.ascii	"*\357\336gWd\361\034U\310\241\310!!\332\340])~J\241"
  43      5764F11C 
  43      55C8A1C8 
  43      2121DAE0 
  43      5D297E4A 
ARM GAS  /var/folders/c6/c789hm653lg9vtl73krp73tm0000gn/T//ccLd87C0.s 			page 3


  44 00d7 2C2FA632 		.ascii	",/\2462]\033Z\313\203\302\014\\\272\325\262;O\205\024"
  44      5D1B5ACB 
  44      83C20C5C 
  44      BAD5B23B 
  44      4F8514
  45 00ea 5CB03B69 		.ascii	"\\\260;i\343\3041\324\011\2521^w[\236\033\223\232t\251"
  45      E3C431D4 
  45      09AA315E 
  45      775B9E1B 
  45      939A74A9 
  46 00fe 6403078A 		.ascii	"d\003\007\212r\324\355{\212\034v\355u\037\203\0254\252"
  46      72D4ED7B 
  46      8A1C76ED 
  46      751F8315 
  46      34AA
  47 0110 7313A872 		.ascii	"s\023\250r^\345\303{C\277\246\313^\352\270\017\326\013"
  47      5EE5C37B 
  47      43BFA6CB 
  47      5EEAB80F 
  47      D60B
  48 0122 5356C2A7 		.ascii	"SV\302\247`d\361\210L#c\206Dw\001Q\224\312c\324,\330"
  48      6064F188 
  48      4C236386 
  48      44770151 
  48      94CA63D4 
  49 0138 18FE5113 		.ascii	"\030\376Q\023\371[\015\0165h\201\232\250\244|\272m\304"
  49      F95B0D0E 
  49      3568819A 
  49      A8A47CBA 
  49      6DC4
  50 014a FFCF2AC6 		.ascii	"\377\317*\306\261\276B\271\323\033~!\3372\264\000\375"
  50      B1BE42B9 
  50      D31B7E21 
  50      DF32B400 
  50      FD
  51 015b 42C6A70C 		.ascii	"B\306\247\014\303\034<N\321\334\312n\233;\316\356^\321"
  51      C31C3C4E 
  51      D1DCCA6E 
  51      9B3BCEEE 
  51      5ED1
  52 016d B49C7CDE 		.ascii	"\264\234|\336)\230\213+\351\245\364\201Y\330\267-\303"
  52      29988B2B 
  52      E9A5F481 
  52      59D8B72D 
  52      C3
  53 017e 02A560CC 		.ascii	"\002\245`\314~\003~\357\223\352"
  53      7E037EEF 
  53      93EA
  54              		.text
  55              		.section	.gnu.lto_nvicDisableVector.e9a3f4365805eac3,"",%progbits
  56 0000 789C7D90 		.ascii	"x\234}\220\277K\303P\020\307\357\373^\322V\007\305\321"
  56      BF4BC350 
  56      10C7EFFB 
  56      5ED25607 
  56      C5D1
  57 0012 C9A28B50 		.ascii	"\311\242\213PL\350\344\340$N\016]\244\202\2165C\015"
  57      4CE8E4E0 
ARM GAS  /var/folders/c6/c789hm653lg9vtl73krp73tm0000gn/T//ccLd87C0.s 			page 4


  57      244E0E5D 
  57      A4828E35 
  57      430D
  58 0024 D846AC88 		.ascii	"\330F\254\210[S\323\321\241\203\203\325\305\342&\376"
  58      5B53D3D1 
  58      A18383D5 
  58      C5E226FE 
  59 0034 DC44074B 		.ascii	"\334D\007K\367\212\316:\024E\007\007\361\017\020\342"
  59      F78ACE3A 
  59      14450707 
  59      F10F10E2 
  60 0044 BDA4A9D4 		.ascii	"\275\244\251\324\301G\362\356\336\367\356>w\234 A\177"
  60      C147F2EE 
  60      DEF7EE3E 
  60      779C2041 
  60      7F
  61 0055 CF28FF4F 		.ascii	"\317(\377O J\263\205$\210\332=Q%!\000\345\020\250,P"
  61      204AB385 
  61      2488DA3D 
  61      51252100 
  61      E510A82C 
  62 006a 5E864AC5 		.ascii	"^\206J\30585\\\267\326y{}\220\365\275f\365\310\375\366"
  62      38355CB7 
  62      D6797B7D 
  62      90F5BD66 
  62      F5C8FDF6 
  63 007e 7DC00663 		.ascii	"}\300\006c\015\220\005Z\342\007\222\201\021Z\177\237"
  63      0D90055A 
  63      E2079281 
  63      115A7F9F 
  64 008e 0BD1ECF8 		.ascii	"\013\321\354\370\376\363\325\345K\035#\203@AU\331\220"
  64      FEF3D5E5 
  64      4B1D2383 
  64      404155D9 
  64      90
  65 009f 92726830 		.ascii	"\222rh0Y\343\007\351\352\212)\231+t\252r\267$)0\237"
  65      59E307E9 
  65      EA8A2999 
  65      2B74AA72 
  65      B7242930 
  66 00b4 2CDF6AA4 		.ascii	",\337j\244E\010ee\233\274s\357nw2\207c\350\224\207\310"
  66      45086565 
  66      9BBC73EF 
  66      6E773287 
  66      63E89487 
  67 00c9 03AA31D7 		.ascii	"\003\2521\327\021\265i\347\323\373@\024\223\034S\242"
  67      11B569E7 
  67      D3FB4014 
  67      931C53A2 
  68 00d9 772B2349 		.ascii	"w+#Ic5H\037\013\322\275\263^D\017d\250\234.\350\246"
  68      6335481F 
  68      0BD2BDB3 
  68      5E440F64 
  68      A89C2EE8 
  69 00ee 078A7158 		.ascii	"\007\212qX\211\255\371P\231\242S\267Zqglh):Q\356\260"
  69      89ADF950 
  69      99A253B7 
ARM GAS  /var/folders/c6/c789hm653lg9vtl73krp73tm0000gn/T//ccLd87C0.s 			page 5


  69      5A71676C 
  69      68293A51 
  70 0104 0DFD900E 		.ascii	"\015\375\220\016\030\021S\234\270\333\362\334\241`#"
  70      1811539C 
  70      B8DBF2DC 
  70      A16023
  71 0113 F1600F2B 		.ascii	"\361`\017+\010\367\301\003S\344\305\002\344\365\376"
  71      08F7C103 
  71      53E4C502 
  71      E4F5FE
  72 0122 FB97E8C3 		.ascii	"\373\227\350\303N\333H\374b\007\376\307\242\013\353"
  72      4EDB48FC 
  72      6207FEC7 
  72      A20BEB
  73 0131 F2835842 		.ascii	"\362\203XB9\217T\351\324'Bpt\262\234\306KT#\244\014"
  73      398F54E9 
  73      D4274270 
  73      74B29CC6 
  73      4B5423A4 
  74 0146 C30C3FA7 		.ascii	"\303\014?\247d\256\346\326\314ugc\263dZN\241\340\024"
  74      64AEE6D6 
  74      CC756763 
  74      B3645A4E 
  74      A1E014
  75 0159 CDD985CC 		.ascii	"\315\331\205\314\\f\333,n\331\226a\221,\032\351\037"
  75      5C66DB2C 
  75      6ED99661 
  75      912C1AE9 
  75      1F
  76 016a 32EC79ED 		.ascii	"2\354y\355"
  77              		.text
  78              		.section	.gnu.lto_nvicSetSystemHandlerPriority.e9a3f4365805eac3,"",%progbits
  79 0000 789C6362 		.ascii	"x\234cb`b@\007\222@\374\001\210u\201\230\221\231\201"
  79      60624007 
  79      9240FC01 
  79      88758198 
  79      919981
  80 0013 9169C239 		.ascii	"\221i\3029\006\206F\016&FF\020\203\201\221\241\236\211"
  80      0686460E 
  80      26464610 
  80      838191A1 
  80      9E89
  81 0025 B13E9211 		.ascii	"\261>\222\021\254v=\323\201\007\377\377\257\273\324"
  81      AC763DD3 
  81      8107FFFF 
  81      AFBBD4
  82 0034 76EC20E3 		.ascii	"v\354 \343:evF\306\\F\240\211\231\214\014\314 \202\025"
  82      3A657646 
  82      C65C46A0 
  82      89998C0C 
  82      CC208215 
  83 0048 C805A963 		.ascii	"\310\005\251cehih\230\240\220\313\010\264,\031\2541"
  83      65686968 
  83      98A090CB 
  83      08B42C19 
  83      AC31
  84 005a 0448824C 		.ascii	"\004H\202L\013\005\012\001i\346\263\014M\257\233\267"
ARM GAS  /var/folders/c6/c789hm653lg9vtl73krp73tm0000gn/T//ccLd87C0.s 			page 6


  84      0B050A01 
  84      69E6B30C 
  84      4DAF9BB7 
  85 006a F7EA2632 		.ascii	"\367\352&2.ddeHgdJ\007i<\313\320\274\226\031&\304\014"
  85      2E646465 
  85      4867644A 
  85      07693CCB 
  85      D0BC9619 
  86 0081 148D60CC 		.ascii	"\024\215`\314ddda\000\311\034\362\204H\3502\254ihil"
  86      64646461 
  86      00C91CF2 
  86      8448E832 
  86      AC696869 
  87 0096 30074A68 		.ascii	"0\007Jh3\254\0021y3\031\231f3\314\002*e\006\251gi\270"
  87      33AC0231 
  87      79331999 
  87      6633CC02 
  87      2A6506A9 
  88 00ad D5DCC0C7 		.ascii	"\325\334\300\307\000f\202\335\234\004q:\320HV\006\030"
  88      006682DD 
  88      9C04713A 
  88      D0485606 
  88      18
  89 00be 8B9981E1 		.ascii	"\213\231\201\341\"C\343\203u\312\020Ca \004\350\012"
  89      2243E383 
  89      75CA1043 
  89      612004E8 
  89      0A
  90 00cf A0F34061 		.ascii	"\240\363@a\244\255\247\247\017A\371\305\372\031\211"
  90      A4ADA7A7 
  90      0F41F9C5 
  90      FA1989
  91 00de 39FA05F9 		.ascii	"9\372\005\371E%\305\372\311\371\271\271\371y\372\216"
  91      4525C5FA 
  91      C9F9B9B9 
  91      F979FA8E 
  92 00ee 41BECEBE 		.ascii	"A\276\316\276\025\372ye\231\311z\311\014\000\203\372"
  92      15FA7965 
  92      99C97AC9 
  92      0C0083FA 
  93 00fe 4588     		.ascii	"E\210"
  94              		.text
  95              		.section	.gnu.lto_nvicClearPending.e9a3f4365805eac3,"",%progbits
  96 0000 789C5D50 		.ascii	"x\234]P1K\303P\020\276\357\275\244\325Eqt\262\350\""
  96      314BC350 
  96      10BEEFBD 
  96      A4D54571 
  96      74B2E822 
  97 0014 14137475 		.ascii	"\024\023tu\022'\207.RA\307\232\241\006l#V\304\255\257"
  97      1227872E 
  97      5241C79A 
  97      A1066C23 
  97      56C4ADAF 
  98 0028 A6ABD0C1 		.ascii	"\246\253\320\301E],nRu\024t)\235\272Ttw(\202\213\203"
  98      455D2C6E 
  98      52751474 
  98      299DBA54 
ARM GAS  /var/folders/c6/c789hm653lg9vtl73krp73tm0000gn/T//ccLd87C0.s 			page 7


  98      74772882 
  99 003e FE0121DE 		.ascii	"\376\001!\336%\246\240\307\313\273{\337}\367\335\345"
  99      25A6A0C7 
  99      CBBB7BDF 
  99      7DF7DDE5 
 100 004e 1429FA6F 		.ascii	"\024)\372o\323\374\031\020-\262\207&\250\326\023QcL"
 100      D3FC1910 
 100      2DB28726 
 100      A8D61351 
 100      634C
 101 0060 011210A8 		.ascii	"\001\022\020\250\256P\337\202P1KmcZ\303\367\257g}v\332"
 101      AE50DF82 
 101      50314B6D 
 101      635AC3F7 
 101      AF677D76 
 102 0075 6D5E9AEF 		.ascii	"m^\232\357(\002|\260\254\003\362@\233\374@.v\312\372"
 102      28027CB0 
 102      AC03F240 
 102      9BFC402E 
 102      76CAFA
 103 0088 DBE74E75 		.ascii	"\333\347Nu\207Q\364z\337y\353cj\034\250H\225\017\255"
 103      8751F47A 
 103      DF79EB63 
 103      6A1CA848 
 103      950FAD
 104 009b A984362B 		.ascii	"\251\2046+[\374 [\256\214\300\\aS\223\273\345H\204\331"
 104      5BFC205B 
 104      AE8CC05C 
 104      615393BB 
 104      E54884D9 
 105 00af 8A7CCB48 		.ascii	"\212|\313H\033P\342\365\200\302\3330:\231/\341\0126"
 105      1B50E2F5 
 105      80C2DB30 
 105      3A992FE1 
 105      0A36
 106 00c1 95A1CA80 		.ascii	"\225\241\312\2004\346:\242\001\035\177\206\037Hs\232"
 106      34E63AA2 
 106      011D7F86 
 106      1F48739A 
 107 00d1 7302868F 		.ascii	"s\002\206\217:\205,Fc\372LL\017oF\031;\206!\234_\241"
 107      3A852C46 
 107      63FA4C4C 
 107      0F6F4619 
 107      3B86219C 
 108 00e7 87915086 		.ascii	"\207\221P\206\323\002\366\326\022d\201:\246\3310\313"
 108      D302F6D6 
 108      1264813A 
 108      A6D930CB 
 109 00f7 3EAC3C5D 		.ascii	">\254<]K8\351\303\276\240s\226\310\210N\326\364B3\021"
 109      4B38E9C3 
 109      BEA07396 
 109      C8884ED6 
 109      F4423311 
 110 010b 6F241BEF 		.ascii	"o$\033\357a\033\311>x`J\243\014\321\0135\206\375\271"
 110      611BC93E 
 110      78604AA3 
 110      0CD10B35 
ARM GAS  /var/folders/c6/c789hm653lg9vtl73krp73tm0000gn/T//ccLd87C0.s 			page 8


 110      86FDB9
 111 011e 4434B522 		.ascii	"D4\265\"\017\315\177*\274\274\343\270\311\011j\356N"
 111      0FCD7F2A 
 111      BCBCE3B8 
 111      C9096AEE 
 111      4E
 112 012f 69D7DD0B 		.ascii	"i\327\335\013\366\017j\256\027T*A\325]Y/\254\026\216"
 112      F60F6AAE 
 112      17542A41 
 112      D55D592F 
 112      AC168E
 113 0142 DCEAA1EF 		.ascii	"\334\352\241\3579\036\351\252\263\364\003(\344fu"
 113      391EE9AA 
 113      B3F40328 
 113      E46675
 114              		.text
 115              		.section	.gnu.lto_.symbol_nodes.e9a3f4365805eac3,"",%progbits
 116 0000 789C6362 		.ascii	"x\234cb`b\260c\200\002\246\026\246z\006\206\011\347"
 116      6062B063 
 116      8002A616 
 116      A67A0686 
 116      09E7
 117 0012 1818EAEB 		.ascii	"\030\030\352\353\347u02\2652\3253\"q\333\230\352\231"
 117      E7753032 
 117      B532D533 
 117      2271DB98 
 117      EA99
 118 0024 90B8ED4C 		.ascii	"\220\270\355L\365\314\010.\003\000?^\022w"
 118      F5CC082E 
 118      03003F5E 
 118      1277
 119              		.text
 120              		.section	.gnu.lto_.refs.e9a3f4365805eac3,"",%progbits
 121 0000 789C6362 		.ascii	"x\234cb`b`d\200\002\000\000F\000\006"
 121      60626064 
 121      80020000 
 121      460006
 122              		.text
 123              		.section	.gnu.lto_.decls.e9a3f4365805eac3,"",%progbits
 124 0000 789CAD59 		.ascii	"x\234\255Y}l\034\305\025\237\331;\307\276\3045\011\242"
 124      7D6C1CC5 
 124      159FD93B 
 124      C7BEC435 
 124      09A2
 125 0012 3454A962 		.ascii	"4T\251b\332R\265\264\3619&\210\364\037\024\347\354\324"
 125      DA52B5B4 
 125      F1392688 
 125      F41F14E7 
 125      ECD4
 126 0024 27D5D4BA 		.ascii	"'\325\324\272K\334*\252t\031.\007\266t\276\213\316\347"
 126      4BDC2AAA 
 126      74192E07 
 126      B674BE8B 
 126      CEE7
 127 0036 8AA8FD63 		.ascii	"\212\250\375c]\033\032\276\212\023Lk\276\334\013u\200"
 127      5D1B1ABE 
 127      8A134C6B 
ARM GAS  /var/folders/c6/c789hm653lg9vtl73krp73tm0000gn/T//ccLd87C0.s 			page 9


 127      BEDC0B75 
 127      80
 128 0047 88006950 		.ascii	"\210\000iPR\007hzJ)\"@\325|\020;8\024\016EP\240BI\201"
 128      5207687A 
 128      4A292240 
 128      D57C103B 
 128      38140E45 
 129 0060 A4496472 		.ascii	"\244Idr}\363n?f\366n\316\273\210\225\347\355\354\356"
 129      7DF36E3F 
 129      66F66ECE 
 129      BB8895E7 
 129      EDECEE
 130 0073 9BDFFC7E 		.ascii	"\233\337\374~o>\366\335Z#\032\031\246\204\024\341\350"
 130      6F3EF6DD 
 130      5A231A19 
 130      A68414E1 
 130      E8
 131 0084 FB3A21BF 		.ascii	"\373:!\277\322\010\251!\204\334H\354\303\017e;\224="
 131      D208A921 
 131      84DC48EC 
 131      C30F653B 
 131      943D
 132 0096 5026A11C 		.ascii	"P&\241\034 \345\007\177\276\300\360m\200R\017\005`I"
 132      20E5077F 
 132      BEC0F06D 
 132      80520F05 
 132      6049
 133 00a8 2D948350 		.ascii	"-\224\203P\016Ay\035\312Y(\307\240\034\205\342\203\362"
 133      0E41791D 
 133      CA5928C7 
 133      A01C85E2 
 133      83F2
 134 00ba 31945350 		.ascii	"1\224SP\216\030\376\034\007(\220g\241<\355\350\203\367"
 134      8E18FE1C 
 134      07289067 
 134      A13CEDE8 
 134      83F7
 135 00cc 3FDFD147 		.ascii	"?\337\321G\255\200g\342\233\375q\234\223F\037\324h\317"
 135      AD8067E2 
 135      9BFD719C 
 135      93461FD4 
 135      68CF
 136 00de CFFB1CB8 		.ascii	"\317\373\034\270\\S\215\361\214\267=\007\345\002\224"
 136      5C538DF1 
 136      8CB73D07 
 136      E50294
 137 00ed E5B4746F 		.ascii	"\345\264to\201q\23648\277\010\345y(-T\306\341q\251s"
 137      81719E34 
 137      38BF08E5 
 137      79282D54 
 137      C6E171A9 
 138 0102 C18F1A9A 		.ascii	"\301\217\032\232\251\321\206\237\363\016NK\311\270\236"
 138      A9D1869F 
 138      F30E4E4B 
 138      C9B89E
 139 0111 2B14768C 		.ascii	"+\024v\214\277F\365m\372l\261\350#W\222\007t8rw\350"
 139      BF46F56D 
ARM GAS  /var/folders/c6/c789hm653lg9vtl73krp73tm0000gn/T//ccLd87C0.s 			page 10


 139      FA6CB1E8 
 139      23579207 
 139      74387277 
 140 0126 3ACD327A 		.ascii	":\3152z\343W\311\317(\243\015\001\322\210\225\372\000"
 140      E357C9CF 
 140      28A30D01 
 140      D28895FA 
 140      00
 141 0137 764C08A3 		.ascii	"vL\010\243\217\321+\261\346\303\020\220\000\331\242"
 141      8FD12BB1 
 141      E6C31090 
 141      00D9A2
 142 0146 EBBFE60D 		.ascii	"\353\277\346\015;^\001^\225Z]C&t}\244\360\227\235\367"
 142      3B5E015E 
 142      955A5D43 
 142      26747DA4 
 142      F0979DF7 
 143 015a FC40D7EB 		.ascii	"\374@\327\353\030\235\240\001h\373KJ\256%;\241\317\021"
 143      189DA001 
 143      68FB4B4A 
 143      AE253BA1 
 143      CF11
 144 016c 68FF2D8D 		.ascii	"h\377-\215\224\037\356\241\377|\327\213?D\350'\021\372"
 144      941FEEA1 
 144      FF7CD78B 
 144      3F44E827 
 144      11FA
 145 017e 034A81E8 		.ascii	"\003J\201\350\023\364Z\003\210\321\332\200\010\214\327"
 145      13F45A03 
 145      88D1DA80 
 145      088CD7
 146 018d A60347C3 		.ascii	"\246\003G\303\307F\205O\326\313\210Ww#\032%qXY\347\263"
 146      C746854F 
 146      D6CB8857 
 146      77231A25 
 146      715859E7 
 147 01a2 0034F2A9 		.ascii	"\0004\362\251\203\321\267\311\037u}\033\214\300\304"
 147      83D1B7C9 
 147      1F757D1B 
 147      8CC0C4
 148 01b1 557A4E33 		.ascii	"UzN3C2\254q\257\355tiE\255\006v\251\251\276?\321a6\273"
 148      4332AC71 
 148      AFED7469 
 148      45AD0676 
 148      A9A9BE3F 
 149 01c9 C34D3342 		.ascii	"\303M3B\276Cv\360!\276W\277}!\305\021&F+I\352.*\015"
 149      BE4376F0 
 149      21BE57BF 
 149      7D21C511 
 149      26462B49 
 150 01e1 4569AAE4 		.ascii	"Ei\252\344\037z\271~d\260P,.u?O\236\223\347I\211\206"
 150      1F7AB97E 
 150      64B0502C 
 150      2E753F4F 
 150      9E93E749 
 151 01f7 232C776B 		.ascii	"#,wk\225\302\242\337ojc\364\031\240\303\350\236/\244"
 151      95C2A2DF 
ARM GAS  /var/folders/c6/c789hm653lg9vtl73krp73tm0000gn/T//ccLd87C0.s 			page 11


 151      6F6A63F4 
 151      19A0C3E8 
 151      9E2FA4
 152 020a 6D8F53DB 		.ascii	"m\217S\333\336\212\332\216\232\332Js[#\217Vf%D\374y"
 152      DE8ADA8E 
 152      9ADA4A73 
 152      5B238F56 
 152      662544FC 
 153 021f F4987435 		.ascii	"\364\230t5P\237\333bv\243\2309\232)\304L:\305\354\257"
 153      509FDB62 
 153      76A39839 
 153      9A29C44C 
 153      3AC5ECAF 
 154 0233 28E6A22D 		.ascii	"(\346\242-\3469\024s\260\262\230\255\316\020\037\370"
 154      E6391473 
 154      B0B298AD 
 154      CE101FF8 
 155 0243 42AC0E38 		.ascii	"B\254\0168Y\375Uf\205KxH/\354\320\027\217\331K\270\316"
 155      59FD5566 
 155      854B7848 
 155      2FECD017 
 155      8FD94BB8 
 156 0258 EC806F4E 		.ascii	"\354\200oN\346\356\360\341\214\006K\330X\363\325\032"
 156      E6EEF0E1 
 156      8C064BD8 
 156      58F3D51A 
 157 0268 30FA377A 		.ascii	"0\3727z\015X*/J\032\260+E\312g\3271\207t\027\330\326"
 157      0D582A2F 
 157      4A1AB02B 
 157      45CA67D7 
 157      31877417 
 158 027e 7E32BE12 		.ascii	"~2\276\022\367\223\227q\270Oj\316\375\204:\366\2239"
 158      F7939771 
 158      B84F6ACE 
 158      FD843AF6 
 158      9339
 159 0290 B878F15D 		.ascii	"\270x\361]DFx\234\033\307\032\030=\010\367\014\232\372"
 159      4446789C 
 159      1BC71A18 
 159      3D08F70C 
 159      9AFA
 160 02a2 6526CF33 		.ascii	"e&\3173%@\321\357\245*~\214\276J\027\331\372uc?E\027"
 160      2540D1EF 
 160      A52A7E8C 
 160      BE4A17D9 
 160      FA75633F 
 161 02b8 D5DA7DCD 		.ascii	"\325\332}\315\320g\334\266*\247\251\244\304t#\227\223"
 161      D067DCB6 
 161      2AA7A9A4 
 161      C4742397 
 161      93
 162 02c9 ADC845D8 		.ascii	"\255\310E\330\246s\005j\266\032^bG\366\341\351w\332"
 162      A673056A 
 162      B61A5E62 
 162      47F6E1E9 
 162      77DA
 163 02db 31B2AFD3 		.ascii	"1\262\257\323\313!\262\367\371\344\310\272\000\342\035"
ARM GAS  /var/folders/c6/c789hm653lg9vtl73krp73tm0000gn/T//ccLd87C0.s 			page 12


 163      CB21B2F7 
 163      F9E4C8BA 
 163      00E21D
 164 02ea FF131A97 		.ascii	"\377\023\032\227\232!\254\236?2U\257\373K\367\211\004"
 164      9A21AC9E 
 164      3F3255AF 
 164      FB4BF789 
 164      04
 165 02fb 281D5793 		.ascii	"(\035W\223\234><\230?>5J\365\334AjF\360\225\006c\232"
 165      9C3E3C98 
 165      3F3E354A 
 165      F5DC416A 
 165      46F09506 
 166 0311 567BD330 		.ascii	"V{\3230\272\003g\335\334\257\002s 4\263y\2434^<\364"
 166      BA0367DD 
 166      DCAF0273 
 166      2034B379 
 166      A3345E3C 
 167 0326 13C27839 		.ascii	"\023\302x9\334\030}\303\363p\035W\014W\2554Z\246\027"
 167      DC187DC3 
 167      F3701D57 
 167      0C57AD34 
 167      5AA617
 168 0339 84FD410C 		.ascii	"\204\375A\014;\217VE\026\026\216\011\332`Mw\036B\210"
 168      3B8F5645 
 168      16168E09 
 168      DA604D77 
 168      1E4288
 169 034c F754F708 		.ascii	"\367T\367\010S\011\232g\266\337`t|\302\263\2407\025"
 169      53099A67 
 169      B6DF6074 
 169      7CC2B3A0 
 169      3715
 170 035e 82BE464C 		.ascii	"\202\276FL\005\343e\012\244n\245\220\226+\200Ip\002"
 170      05E3650A 
 170      A46EA590 
 170      962B8049 
 170      7002
 171 0370 14307A14 		.ascii	"\0240z\024\250i\344IW\341\320\251:\0363\210v\002\321"
 171      A869E449 
 171      57E1D0A9 
 171      3A1E3388 
 171      7602D1
 172 0383 9E76452D 		.ascii	"\236vE-\247B\003no\011\334\366\271\343\246\251\271\275"
 172      A742036E 
 172      6F09DCF6 
 172      B9E3A6A9 
 172      B9BD
 173 0395 2D707BC1 		.ascii	"-p{\301\0357\025\032p;#p\373\273;n>5\267O\004n\257\272"
 173      1D37151A 
 173      703B2370 
 173      FBBB3B6E 
 173      3E35B74F 
 174 03ad E3A64203 		.ascii	"\343\246B\003n\237\011\334\336p\307\315\257\346v\256"
 174      6E9F09DC 
 174      DE70C7CD 
 174      AFE676AE 
ARM GAS  /var/folders/c6/c789hm653lg9vtl73krp73tm0000gn/T//ccLd87C0.s 			page 13


 175 03bd CA1C6F30 		.ascii	"\312\034o0\001\012\346&\373\221\347I\376\037\305$\277"
 175      010AE626 
 175      FB91E749 
 175      FE1FC524 
 175      BF
 176 03ce C19AE46F 		.ascii	"\301\232\344o\226i\220\3735C\242\022\001!9\337\275{"
 176      966990FB 
 176      3543A212 
 176      012139DF 
 176      BD7B
 177 03e0 03A38730 		.ascii	"\003\243\2070$\247\312\340\344w\205\031\223y\352\230"
 177      24A7CAE0 
 177      E4778519 
 177      9379EA98 
 178 03f0 5CAC1293 		.ascii	"\\\254\022\223\355\326>=r\205!\361\214\347\240\374W"
 178      EDD63E3D 
 178      728521F1 
 178      8CE7A0FC 
 178      57
 179 0401 1194A11A 		.ascii	"\021\224\241\032+*\357\227\311p\364lj\252U\205e(?;U"
 179      2B2AEF97 
 179      C970F46C 
 179      6AAA5585 
 179      65283F3B 
 180 0416 CFA7CA31 		.ascii	"\317\247\3121|\275\237q\002J\254\314\250,\251\200V\351"
 180      7CBD9F71 
 180      024AACCC 
 180      A82CA980 
 180      56E9
 181 0428 10DF4E8C 		.ascii	"\020\337N\214\036\306\227\306\021z5\330i\264'\321\376"
 181      1EC697C6 
 181      117A35D8 
 181      69B427D1 
 181      FE
 182 0439 0BED3B68 		.ascii	"\013\355;h\337E{\012\355{h\377\215\366C\264\037\243"
 182      DF457B0A 
 182      ED7B68FF 
 182      8DF643B4 
 182      1FA3
 183 044b 3D8DF653 		.ascii	"=\215\366S\260\326\261\200\334e\377<*\275PUQ=K\027\230"
 183      B0D6B180 
 183      DC65FF3C 
 183      2ABD5055 
 183      513D4B17 
 184 0460 AD14E9C5 		.ascii	"\255\024\351\305\006\263I}\231\327KJ/F\377\347y\200"
 184      06B3497D 
 184      99D74B4A 
 184      2F46FFE7 
 184      7980
 185 0472 CF2B06D8 		.ascii	"\317+\006\330\"(yUJ\010\012V\306v\217\235\262\345\377"
 185      22287955 
 185      4A080A56 
 185      C6768F9D 
 185      B2E5FF
 186 0485 30431B19 		.ascii	"0C\033\031\275\200Y\305\331\271\263\012\007\010\357"
 186      BD8059C5 
 186      D9B9B30A 
ARM GAS  /var/folders/c6/c789hm653lg9vtl73krp73tm0000gn/T//ccLd87C0.s 			page 14


 186      0708EF
 187 0494 73B62CA9 		.ascii	"s\266,\251\230\306\244bv\356\244bt(\177|z\364*\236T"
 187      98C6A462 
 187      76EEA462 
 187      74287F7C 
 187      7AF42A9E 
 188 04a9 58A944FE 		.ascii	"X\251D\376KH%4r\011\245\314V\237\233D=\321\247\246\205"
 188      4B482534 
 188      7209A5CC 
 188      569F9B44 
 188      3DD1A7A6 
 189 04be 893EECF7 		.ascii	"\211>\354\367\012\326(\201\235\020\301\356t\003V\247"
 189      0AD62881 
 189      9D10C1EE 
 189      740356A7 
 190 04ce 66362382 		.ascii	"f6#\202\375\3263\230\314\354-\021l\324\015\330B5\263"
 190      FDD63398 
 190      CCEC2D11 
 190      6CD40DD8 
 190      4235B3
 191 04e1 B745B031 		.ascii	"\267E\2601\317`\"3x_\376\224o\300\347p\003~\304\211"
 191      CF602233 
 191      785FFE94 
 191      6FC0E770 
 191      037EC489 
 192 04f5 25AD27A3 		.ascii	"%\255'\243\272XM\354\023\221X\316\015\261Fu\310>\023"
 192      BA584DEC 
 192      139158CE 
 192      0DB14675 
 192      C83E13
 193 0508 C11E7703 		.ascii	"\301\036w\003\366]5\263s\"\330S\236\301df\347E\260\335"
 193      F65D35B3 
 193      7322D853 
 193      9EC16466 
 193      E745B0DD 
 194 051c 6EC09AD5 		.ascii	"n\300\232\325\314.\212`{=\203\311\314fE\260\027\334"
 194      CC2E8A60 
 194      7B3D83C9 
 194      CC6645B0 
 194      17DC
 195 052e 80AD5433 		.ascii	"\200\255T3\273$\202\345=\203\011\314F\007\363#\353\255"
 195      BB2482E5 
 195      3D8309CC 
 195      4607F323 
 195      EBAD
 196 0540 17736E15 		.ascii	"\027sn\025\337\202\213\366\256\275J^@\222\333\204\322"
 196      DF828BF6 
 196      AEBD4A5E 
 196      4092DB84 
 196      D2
 197 0551 8DD14735 		.ascii	"\215\321G5\257\233\373\270Vys\227\1776\232^<\203t\312"
 197      AF9BFBB8 
 197      56797397 
 197      7F369A5E 
 197      3C8374CA 
 198 0565 964818D5 		.ascii	"\226H\030\325U\212\030\302\256\273m\006cX\304\030\036"
 198      558A18C2 
ARM GAS  /var/folders/c6/c789hm653lg9vtl73krp73tm0000gn/T//ccLd87C0.s 			page 15


 198      AEBB6D06 
 198      6358C418 
 198      1E
 199 0576 7213C30E 		.ascii	"r\023\303\0165\330\250\010\366\017\317`\362\200\374"
 199      35D8A808 
 199      F60FCF60 
 199      F280FC
 200 0585 6EBD9C29 		.ascii	"n\275\234)\011\343\241[\351\312Bq@\312\022*\207\033"
 200      09E3A15B 
 200      E9CA4271 
 200      40CA122A 
 200      871B
 201 0597 A38F7B1E 		.ascii	"\243\217{\036\220'\024\003b\177\204\023\275@\366\021"
 201      90271403 
 201      627F8413 
 201      BD40F611 
 202 05a7 A76C9985 		.ascii	"\247l\231\205Q\355R\005q0?\246\326\235\263\240\256\250"
 202      51ED5205 
 202      71303FA6 
 202      D69DB3A0 
 202      AEA8
 203 05b9 A6DBE9C6 		.ascii	"\246\333\351\306\350S\236u\357R\350\366K\272w\331\272"
 203      E8539E75 
 203      EF52E8F6 
 203      4BBA77D9 
 203      BA
 204 05ca A79CBA65 		.ascii	"\247\234\272e\026Fu\203B7$\013\017\255\347s\2073et\006"
 204      16467583 
 204      4237240B 
 204      0FADE773 
 204      87336574 
 205 05df BFA8CD05 		.ascii	"\277\250\315\005\266I1y`kxdF\330\032N\272\231\211[*"
 205      B6493179 
 205      606B7864 
 205      46D81A4E 
 205      BA99895B 
 206 05f4 FD9CAC74 		.ascii	"\375\234\254t\210y\016\243\237c\"r\011\223\313A\215"
 206      88790EA3 
 206      9F632272 
 206      0993CB41 
 206      8D
 207 0605 DB21B4B7 		.ascii	"\333!\264\267\243\375\015\332;\321\336\215\366^\264"
 207      A3FD0DDA 
 207      3BD1DE8D 
 207      F65EB4
 208 0614 F7A1DD8A 		.ascii	"\367\241\335\212\366~\264\017\240\375=\332\007\321>"
 208      F67EB40F 
 208      A0FD3DDA 
 208      07D13E
 209 0623 8C3687F6 		.ascii	"\2146\207\3661\264\023hw\242}\006\355\263\232:\235\275"
 209      31B41368 
 209      77A27D06 
 209      EDB39A3A 
 209      9DBD
 210 0635 50259DFD 		.ascii	"P%\235\375\223fe\213\337$\333\365\303\207\013\357}4"
 210      9366658B 
 210      DF24DBF5 
ARM GAS  /var/folders/c6/c789hm653lg9vtl73krp73tm0000gn/T//ccLd87C0.s 			page 16


 210      C3870BEF 
 210      7D34
 211 0647 46B714F4 		.ascii	"F\267\024\364\021\375R\261H\355\344\325\372\342\227"
 211      11FD52B1 
 211      48EDE4D5 
 211      FAE297
 212 0656 AFFEC58F 		.ascii	"\257\376\305\217\377\017B\023>\017.\256\354\313\350"
 212      FF0F4213 
 212      3E0F2EAE 
 212      ECCBE8
 213 0665 5E8DC76B 		.ascii	"^\215\307k\2370\273Ju\263V\372\360\370\256\337\361\317"
 213      9F30BB4A 
 213      75B356FA 
 213      F0F8AEDF 
 213      F1CF
 214 0677 1B3BF8D5 		.ascii	"\033;\370\325\233\032\235~`M\227oH\013\205g\343\334"
 214      9B1A9D7E 
 214      604D976F 
 214      480B8567 
 214      E3DC
 215 0689 55E1C6E8 		.ascii	"U\341\306\350\244\347\205\262_\261P\226H\254\367\333"
 215      A4E785B2 
 215      5FB15096 
 215      48ACF7DB 
 216 0699 0BE57DBF 		.ascii	"\013\345}\277\343\323\267\223\205FN\373\315\224z>\257"
 216      E3D3B793 
 216      85464EFB 
 216      CD947A3E 
 216      AF
 217 06aa 7CBFA929 		.ascii	"|\277\251)X\372K\367\007{X2\270)\235\311\366\007\343"
 217      58FA4BF7 
 217      077B5832 
 217      B8299DC9 
 217      F607E3
 218 06bd E9BEBE74 		.ascii	"\351\276\276t*\330\032\351\014u\336\026L\375\2427\336"
 218      2AD81AE9 
 218      0C75DE16 
 218      4CFDA237 
 218      DE
 219 06ce 14273F0E 		.ascii	"\024'?\016\016\364g\202\311t\034\334B\211d\222e\202"
 219      0EF46782 
 219      C9741CDC 
 219      42896492 
 219      6582
 220 06e0 B7C6E3CB 		.ascii	"\267\306\343\313X\246oY*\235J,K\260\233{\203-\315\313"
 220      58A66F59 
 220      2A9D4A2C 
 220      4BB09B7B 
 220      832DCDCB 
 221 06f4 5734AF6C 		.ascii	"W4\257l\276>(\337\356M\305\223\003\033\023\301\376\354"
 221      BE3E28DF 
 221      EE4DC593 
 221      031B13C1 
 221      FEEC
 222 0706 C6DE54B6 		.ascii	"\306\336T\266\251\207\324\015\300\371\272\226Xv\336"
 222      A987D40D 
 222      C0F9BA96 
ARM GAS  /var/folders/c6/c789hm653lg9vtl73krp73tm0000gn/T//ccLd87C0.s 			page 17


 222      5876DE
 223 0715 8F6E5AD7 		.ascii	"\217nZ\327\030\"?\377\022\300\373X\274\2477\225\010"
 223      18223FFF 
 223      12C0FB58 
 223      BCA73795 
 223      08
 224 0726 C636266E 		.ascii	"\3066&na\003\311l,\273yS\242\037:\233\037\213\231\335"
 224      6103C96C 
 224      2CBB7953 
 224      A21F3A9B 
 224      1F8B99DD 
 225 073a 2DE462DA 		.ascii	"-\344b\332S\354\346d\242;\021\317\24634\345\337\224"
 225      53ECE664 
 225      A23B11CF 
 225      A63334E5 
 225      DF94
 226 074c E94D2FE2 		.ascii	"\351M/\342\367\333z\373\355\007K\370\235h\"\033\335"
 226      F7DB7AFB 
 226      ED074BF8 
 226      9D68221B 
 226      DD
 227 075d DC9F4DF4 		.ascii	"\334\237M\364u\260\324\306d\"\323\005\256\231\336\354"
 227      75B0D4C6 
 227      6422D305 
 227      AE99DEEC 
 228 076d E6DA9ED2 		.ascii	"\346\332\236\3225\302\205\222\011\226\351J\244@\332"
 228      35C28592 
 228      0996E94A 
 228      A440DA
 229 077c ADB5BCA3 		.ascii	"\255\265\274\243\225\261l\240\324%\324\276'\2068q[6"
 229      95B16CA0 
 229      D425D4BE 
 229      27863871 
 229      5B36
 230 078e 18EA8C86 		.ascii	"\030\352\214\206\243\026\351x:\223\210\305\373V\000"
 230      A316E978 
 230      3A9388C5 
 230      FB5600
 231 079d CDC04DDD 		.ascii	"\315\300M\335\341Pl-\220\366\207\243\355\221@\244\035"
 231      E1506C2D 
 231      90F687A3 
 231      ED9140A4 
 231      1D
 232 07ae 6C777B5B 		.ascii	"lw{[\263?\034j\217\324EJW\313\341a\227\375\260\005\036"
 232      B33F1C6A 
 232      8FD4454A 
 232      57CBE161 
 232      97FDB005 
 233 07c3 0A97D7F9 		.ascii	"\012\227\327\371\303\255\253\355\313\025Z\270\313"
 233      C3ADABED 
 233      CB155AB8 
 233      CB
 234 07d0 BAB8DE1F 		.ascii	"\272\270\336\037]\033\216\324EC\253\261\223\232P\327"
 234      5D1B8ED4 
 234      4543ABB1 
 234      939A50D7 
 235 07e0 BA701B34 		.ascii	"\272p\0334\217F\374\335k\177\022\251i\015GB\021_\024"
ARM GAS  /var/folders/c6/c789hm653lg9vtl73krp73tm0000gn/T//ccLd87C0.s 			page 18


 235      8F46FCDD 
 235      6B7F12A9 
 235      690D4742 
 235      115F14
 236 07f3 4A889F3B 		.ascii	"J\210\237;\272j\242\035\374ah\015\230\016n\332\300\324"
 236      BA6AA21D 
 236      FC61680D 
 236      980E6EDA 
 236      C0D4
 237 0805 7476AE69 		.ascii	"tv\256i\215\370Ws\323\012\327\276\2565\021_\033\224"
 237      8DF85773 
 237      D30AD7BE 
 237      AE35115F 
 237      1B94
 238 0817 D6B6881F 		.ascii	"\326\266\210\037\236E\200_k\004\300[C\021\177\274\207"
 238      9E45805F 
 238      6B04C05B 
 238      43117FBC 
 238      87
 239 0828 65EA62B1 		.ascii	"e\352b\261[\006R\361X\354+f\245\351\206\226\025-\377"
 239      5B0652F1 
 239      58EC2B66 
 239      A5E98696 
 239      152DFF
 240 083b 0716F37C 		.ascii	"\007\026\363|\017"
 240      0F
 241              		.text
 242              		.section	.gnu.lto_.symtab.e9a3f4365805eac3,"",%progbits
 243 0000 6E766963 		.ascii	"nvicEnableVector\000\000\000\000\000\000\000\000\000"
 243      456E6162 
 243      6C655665 
 243      63746F72 
 243      00000000 
 244 0019 000000A1 		.ascii	"\000\000\000\241\000\000\000nvicDisableVector\000\000"
 244      0000006E 
 244      76696344 
 244      69736162 
 244      6C655665 
 245 0033 00000000 		.ascii	"\000\000\000\000\000\000\000\000\000\000\262\000\000"
 245      00000000 
 245      0000B200 
 245      00
 246 0040 006E7669 		.ascii	"\000nvicSetSystemHandlerPriority\000\000\000\000\000"
 246      63536574 
 246      53797374 
 246      656D4861 
 246      6E646C65 
 247 0062 00000000 		.ascii	"\000\000\000\000\000\000\000\270\000\000\000nvicCle"
 247      000000B8 
 247      0000006E 
 247      76696343 
 247      6C65
 248 0074 61725065 		.ascii	"arPending\000\000\000\000\000\000\000\000\000\000\000"
 248      6E64696E 
 248      67000000 
 248      00000000 
 248      00000000 
ARM GAS  /var/folders/c6/c789hm653lg9vtl73krp73tm0000gn/T//ccLd87C0.s 			page 19


 249 0088 00BE0000 		.ascii	"\000\276\000\000\000"
 249      00
 250              		.text
 251              		.section	.gnu.lto_.opts,"",%progbits
 252 0000 272D6D63 		.ascii	"'-mcpu=cortex-m4' '-mno-thumb-interwork' '-mthumb' "
 252      70753D63 
 252      6F727465 
 252      782D6D34 
 252      2720272D 
 253 0033 272D6767 		.ascii	"'-ggdb' '-O2' '-fomit-frame-pointer' '-falign-funct"
 253      64622720 
 253      272D4F32 
 253      2720272D 
 253      666F6D69 
 254 0066 696F6E73 		.ascii	"ions=16' '-ffunction-sections' '-fdata-sections' '-"
 254      3D313627 
 254      20272D66 
 254      66756E63 
 254      74696F6E 
 255 0099 666E6F2D 		.ascii	"fno-common' '-flto'\000"
 255      636F6D6D 
 255      6F6E2720 
 255      272D666C 
 255      746F2700 
 256              		.text
 257              		.cfi_sections	.debug_frame
 258              		.section	.text.nvicEnableVector,"ax",%progbits
 259              		.align	2
 260              		.p2align 4,,15
 261              		.global	nvicEnableVector
 262              		.thumb
 263              		.thumb_func
 264              		.type	nvicEnableVector, %function
 265              	nvicEnableVector:
 266              	.LFB260:
 267              		.file 1 "../../../os/hal/ports/common/ARMCMx/nvic.c"
 268              		.loc 1 57 0
 269              		.cfi_startproc
 270              		@ args = 0, pretend = 0, frame = 0
 271              		@ frame_needed = 0, uses_anonymous_args = 0
 272              		@ link register save eliminated.
 273              	.LVL0:
 274              		.loc 1 60 0
 275 0000 4309     		lsrs	r3, r0, #5
 276 0002 9B00     		lsls	r3, r3, #2
 277              		.loc 1 59 0
 278 0004 00F16042 		add	r2, r0, #-536870912
 279 0008 03F16043 		add	r3, r3, #-536870912
 280              		.loc 1 57 0
 281 000c 10B4     		push	{r4}
 282              		.cfi_def_cfa_offset 4
 283              		.cfi_offset 4, -4
 284 000e 03F56143 		add	r3, r3, #57600
 285              		.loc 1 60 0
 286 0012 0124     		movs	r4, #1
 287              		.loc 1 59 0
 288 0014 0901     		lsls	r1, r1, #4
ARM GAS  /var/folders/c6/c789hm653lg9vtl73krp73tm0000gn/T//ccLd87C0.s 			page 20


 289              	.LVL1:
 290 0016 02F56142 		add	r2, r2, #57600
 291              		.loc 1 60 0
 292 001a 00F01F00 		and	r0, r0, #31
 293              	.LVL2:
 294 001e 04FA00F0 		lsl	r0, r4, r0
 295              		.loc 1 59 0
 296 0022 C9B2     		uxtb	r1, r1
 297 0024 82F80013 		strb	r1, [r2, #768]
 298              		.loc 1 60 0
 299 0028 C3F88001 		str	r0, [r3, #384]
 300              		.loc 1 61 0
 301 002c 1860     		str	r0, [r3]
 302              		.loc 1 62 0
 303 002e 5DF8044B 		ldr	r4, [sp], #4
 304 0032 7047     		bx	lr
 305              		.cfi_endproc
 306              	.LFE260:
 307              		.size	nvicEnableVector, .-nvicEnableVector
 308 0034 AFF30080 		.section	.text.nvicDisableVector,"ax",%progbits
 308      AFF30080 
 308      AFF30080 
 309              		.align	2
 310              		.p2align 4,,15
 311              		.global	nvicDisableVector
 312              		.thumb
 313              		.thumb_func
 314              		.type	nvicDisableVector, %function
 315              	nvicDisableVector:
 316              	.LFB261:
 317              		.loc 1 69 0
 318              		.cfi_startproc
 319              		@ args = 0, pretend = 0, frame = 0
 320              		@ frame_needed = 0, uses_anonymous_args = 0
 321              		@ link register save eliminated.
 322              	.LVL3:
 323              		.loc 1 71 0
 324 0000 084B     		ldr	r3, .L3
 325 0002 4109     		lsrs	r1, r0, #5
 326              		.loc 1 69 0
 327 0004 10B4     		push	{r4}
 328              		.cfi_def_cfa_offset 4
 329              		.cfi_offset 4, -4
 330              		.loc 1 71 0
 331 0006 00F01F02 		and	r2, r0, #31
 332 000a 2031     		adds	r1, r1, #32
 333 000c 0124     		movs	r4, #1
 334              		.loc 1 72 0
 335 000e 1844     		add	r0, r0, r3
 336              	.LVL4:
 337              		.loc 1 71 0
 338 0010 9440     		lsls	r4, r4, r2
 339              		.loc 1 72 0
 340 0012 0022     		movs	r2, #0
 341              		.loc 1 71 0
 342 0014 43F82140 		str	r4, [r3, r1, lsl #2]
 343              		.loc 1 72 0
ARM GAS  /var/folders/c6/c789hm653lg9vtl73krp73tm0000gn/T//ccLd87C0.s 			page 21


 344 0018 80F80023 		strb	r2, [r0, #768]
 345              		.loc 1 73 0
 346 001c 5DF8044B 		ldr	r4, [sp], #4
 347 0020 7047     		bx	lr
 348              	.L4:
 349 0022 00BF     		.align	2
 350              	.L3:
 351 0024 00E100E0 		.word	-536813312
 352              		.cfi_endproc
 353              	.LFE261:
 354              		.size	nvicDisableVector, .-nvicDisableVector
 355 0028 AFF30080 		.section	.text.nvicSetSystemHandlerPriority,"ax",%progbits
 355      AFF30080 
 356              		.align	2
 357              		.p2align 4,,15
 358              		.global	nvicSetSystemHandlerPriority
 359              		.thumb
 360              		.thumb_func
 361              		.type	nvicSetSystemHandlerPriority, %function
 362              	nvicSetSystemHandlerPriority:
 363              	.LFB262:
 364              		.loc 1 81 0
 365              		.cfi_startproc
 366              		@ args = 0, pretend = 0, frame = 0
 367              		@ frame_needed = 0, uses_anonymous_args = 0
 368              		@ link register save eliminated.
 369              	.LVL5:
 370              		.loc 1 85 0
 371 0000 00F16040 		add	r0, r0, #-536870912
 372              	.LVL6:
 373 0004 00F56D40 		add	r0, r0, #60672
 374              	.LVL7:
 375 0008 0901     		lsls	r1, r1, #4
 376              	.LVL8:
 377 000a C9B2     		uxtb	r1, r1
 378 000c 0176     		strb	r1, [r0, #24]
 379 000e 7047     		bx	lr
 380              		.cfi_endproc
 381              	.LFE262:
 382              		.size	nvicSetSystemHandlerPriority, .-nvicSetSystemHandlerPriority
 383              		.section	.text.nvicClearPending,"ax",%progbits
 384              		.align	2
 385              		.p2align 4,,15
 386              		.global	nvicClearPending
 387              		.thumb
 388              		.thumb_func
 389              		.type	nvicClearPending, %function
 390              	nvicClearPending:
 391              	.LFB263:
 392              		.loc 1 93 0
 393              		.cfi_startproc
 394              		@ args = 0, pretend = 0, frame = 0
 395              		@ frame_needed = 0, uses_anonymous_args = 0
 396              		@ link register save eliminated.
 397              	.LVL9:
 398              		.loc 1 95 0
 399 0000 4209     		lsrs	r2, r0, #5
ARM GAS  /var/folders/c6/c789hm653lg9vtl73krp73tm0000gn/T//ccLd87C0.s 			page 22


 400 0002 6032     		adds	r2, r2, #96
 401 0004 00F01F00 		and	r0, r0, #31
 402              	.LVL10:
 403 0008 0121     		movs	r1, #1
 404 000a 034B     		ldr	r3, .L7
 405 000c 01FA00F0 		lsl	r0, r1, r0
 406 0010 43F82200 		str	r0, [r3, r2, lsl #2]
 407 0014 7047     		bx	lr
 408              	.L8:
 409 0016 00BF     		.align	2
 410              	.L7:
 411 0018 00E100E0 		.word	-536813312
 412              		.cfi_endproc
 413              	.LFE263:
 414              		.size	nvicClearPending, .-nvicClearPending
 415 001c AFF30080 		.text
 416              	.Letext0:
 417              		.file 2 "/usr/local/Cellar/gcc-arm-none-eabi/20140805/arm-none-eabi/include/machine/_default_types
 418              		.file 3 "/usr/local/Cellar/gcc-arm-none-eabi/20140805/arm-none-eabi/include/stdint.h"
 419              		.file 4 "../../../os/rt/ports/ARMCMx/compilers/GCC/chtypes.h"
 420              		.file 5 "../../../os/rt/include/chsystypes.h"
 421              		.file 6 "../../../os/rt/include/chschd.h"
 422              		.file 7 "../../../os/ext/CMSIS/include/core_cm4.h"
 423              		.file 8 "../../../os/rt/ports/ARMCMx/chcore.h"
 424              		.file 9 "../../../os/rt/ports/ARMCMx/chcore_v7m.h"
 425              		.file 10 "../../../os/rt/include/chtm.h"
 426              		.file 11 "../../../os/rt/include/chsem.h"
 427              		.file 12 "../../../os/rt/include/chmtx.h"