ARM GAS  /var/folders/c6/c789hm653lg9vtl73krp73tm0000gn/T//ccdT9yKN.s 			page 1


   1              		.syntax unified
   2              		.cpu cortex-m4
   3              		.fpu softvfp
   4              		.eabi_attribute 20, 1
   5              		.eabi_attribute 21, 1
   6              		.eabi_attribute 23, 3
   7              		.eabi_attribute 24, 1
   8              		.eabi_attribute 25, 1
   9              		.eabi_attribute 26, 1
  10              		.eabi_attribute 30, 2
  11              		.eabi_attribute 34, 1
  12              		.eabi_attribute 18, 4
  13              		.thumb
  14              		.file	"pal.c"
  15              		.text
  16              	.Ltext0:
  17              		.section	.gnu.lto_.jmpfuncs.1525fc6a6f4e4c6,"",%progbits
  18 0000 789C6362 		.ascii	"x\234cb`b\300\006D\24043\003##3\02333\204\315\300X\006"
  18      6062C006 
  18      44A03433 
  18      03232333 
  18      13333384 
  19 0018 A4010623 		.ascii	"\244\001\006#\000\243"
  19      00A3
  20              		.text
  21              		.section	.gnu.lto_.inline.1525fc6a6f4e4c6,"",%progbits
  22 0000 789C6362 		.ascii	"x\234cb`b\300\006\276Cif\006\006N\016Ff\006F0\023D:"
  22      6062C006 
  22      BE436966 
  22      06064E0E 
  22      46660646 
  23 0018 8049050E 		.ascii	"\200I\005\016\266\017z\014l\013\344\231\030\030_\260"
  23      B60F7A0C 
  23      6C0BE499 
  23      18185FB0 
  24 0028 B3404810 		.ascii	"\263@H\020\301\001fr\200\010\0010S\000d\014#\003\037"
  24      C1016672 
  24      80080130 
  24      5300640C 
  24      23031F
  25 003b 2F230BC4 		.ascii	"/#\013\304\024FF\210\010\320\020\210\201\334L\027\370"
  25      14464688 
  25      08D01088 
  25      81DC4C17 
  25      F8
  26 004c 318C028A 		.ascii	"1\214\002\212\241\030\302\262@^\002\304R`b`\336!\256"
  26      A118C2B2 
  26      405E02C4 
  26      52606260 
  26      DE21AE
  27 005f C000B4DE 		.ascii	"\300\000\264\336\002d\016\023\003\2670\212\373\240\206"
  27      02640E13 
  27      03B7308A 
  27      FBA086
  28 006e 7202E588 		.ascii	"r\002\345\210s\036\320&\011\220I,\274@}\023\374@\220"
  28      731ED026 
  28      0990492C 
ARM GAS  /var/folders/c6/c789hm653lg9vtl73krp73tm0000gn/T//ccdT9yKN.s 			page 2


  28      BC407D13 
  28      FC4090
  29 0081 01003C62 		.ascii	"\001\000<b\037\210"
  29      1F88
  30              		.text
  31              		.section	.gnu.lto_.pureconst.1525fc6a6f4e4c6,"",%progbits
  32 0000 789C6362 		.ascii	"x\234cb`b`g\200\000f\006)F)&I\000\001\312\000_"
  32      60626067 
  32      80006606 
  32      29462926 
  32      490001CA 
  33              		.text
  34              		.section	.gnu.lto_palReadBus.1525fc6a6f4e4c6,"",%progbits
  35 0000 789C6D90 		.ascii	"x\234m\220\275N\303@\020\204g\366\354\330NA\017\242"
  35      BD4EC340 
  35      108467F6 
  35      ECD84E41 
  35      0FA2
  36 0012 A02692FD 		.ascii	"\240&\222\3752A\002:\343\"XJ\004\"\017\020\023\247\242"
  36      3241023A 
  36      E322584A 
  36      04220F10 
  36      13A7A2
  37 0025 8AA81054 		.ascii	"\212\250\020T4\024\024\241E\242A\024tA\320RE\242E\274"
  37      341414A1 
  37      45A24114 
  37      7441D052 
  37      45A245BC 
  38 0039 42D83B63 		.ascii	"B\330;c#PNw\263\367\263\337\354\352\004\202\377c]\327"
  38      23504E77 
  38      B3F7B3DF 
  38      ECEA0482 
  38      FF635DD7 
  39 004d 19814D8D 		.ascii	"\031\201M\2154\240L_\200\323PH\273\0011\022\216\366"
  39      34A04C5F 
  39      80D35048 
  39      BB013112 
  39      8EF6
  40 005f E872EFE4 		.ascii	"\350r\357\344q\261\\\316\316\237o>y!m\341\2000\310\011"
  40      71B15CCE 
  40      CE9F6F3E 
  40      79216DE1 
  40      8030C809 
  41 0073 4F85BE8A 		.ascii	"O\205\276\212\264TL`\217\241\225H\305S\322\307\244("
  41      B4544C60 
  41      8FA19548 
  41      C553D2C7 
  41      A428
  42 0085 A65B03AA 		.ascii	"\246[\003\252Q\346\314\272\252\266\302\016\305F3\307"
  42      51E6CCBA 
  42      AAB6C20E 
  42      C54633C7 
  43 0095 F8FDFEE3 		.ascii	"\370\375\376\343\225)\257\325\251G\323\301vN\377\012"
  43      9529AFD5 
  43      A947D3C1 
  43      764EFF0A 
  44 00a5 97CCD9EA 		.ascii	"\227\314\331\352Qv5\006\256\215\003\326\315\317\361"
ARM GAS  /var/folders/c6/c789hm653lg9vtl73krp73tm0000gn/T//ccdT9yKN.s 			page 3


  44      51763506 
  44      AE8D03D6 
  44      CDCFF1
  45 00b4 B45F035E 		.ascii	"\264_\003^\007\267\305D\223\302\212\211\324\3032\376"
  45      07B7C544 
  45      93C28A89 
  45      D4C332FE 
  46 00c4 0FC38619 		.ascii	"\017\303\206\0317\214\357\212\264W\027\221_\340\313"
  46      378CEF8A 
  46      B4571791 
  46      5FE0CB
  47 00d3 D48426F9 		.ascii	"\324\204&\371\366\252\2345W\201\326\326\207\277\316"
  47      F6AA9C35 
  47      5781D6D6 
  47      87BFCE
  48 00e2 A173F656 		.ascii	"\241s\366V;\233\306\271|(\327j$rV!\360\206\346\027\242"
  48      3B9BC6B9 
  48      7C28D76A 
  48      24725621 
  48      F086E617 
  49 00f7 2AB1ABDD 		.ascii	"*\261\253\335\353'\331\2166\3428\251\346\32109L\373"
  49      EB27D98E 
  49      36E238A9 
  49      E6D13039 
  49      4CFB
  50 0109 C9F0244B 		.ascii	"\311\360$K\216\323~\234\341\033&\236R%"
  50      8ED37E9C 
  50      E11B269E 
  50      5225
  51              		.text
  52              		.section	.gnu.lto_palWriteBus.1525fc6a6f4e4c6,"",%progbits
  53 0000 789C6D51 		.ascii	"x\234mQ\273N\303@\020\334\275\363+\316\013:@\024HtD"
  53      BB4EC340 
  53      10DCBDF3 
  53      2BCE0B3A 
  53      40144874 
  54 0015 B23F802F 		.ascii	"\262?\200/\240\017\022\320\005\027\301R\"\020\371\200"
  54      A00F12D0 
  54      0517C152 
  54      2210F980 
  55 0025 38908232 		.ascii	"8\220\20225\251h\221\200\206\006\201\004\242\240\003"
  55      35A96891 
  55      80860681 
  55      04A2A003 
  56 0035 890E51E5 		.ascii	"\211\016Q\345\013\240\241D\012\263\347\330\021QN\366"
  56      0BA0A144 
  56      0AB3E7D8 
  56      11514EF6 
  57 0045 ECDEDCEE 		.ascii	"\354\336\334\356\334\254\255H\321\354Z\306\273\011z"
  57      DCACAD48 
  57      D1EC5AC6 
  57      BB097A
  58 0054 159135B1 		.ascii	"\025\2215\261\032\274\021\365<\305,\0111u\025ww\331"
  58      1ABC11F5 
  58      3CC52C09 
  58      31751577 
  58      77D9
ARM GAS  /var/folders/c6/c789hm653lg9vtl73krp73tm0000gn/T//ccdT9yKN.s 			page 4


  59 0066 D4DEA8A7 		.ascii	"\324\336\250\247\321x|\375\363r\373\313C\265\250\270"
  59      D1787CFD 
  59      F372FBCB 
  59      43B5A8B8 
  60 0076 CDA42966 		.ascii	"\315\244)f\262\220\261\215\214\035\001W\300\003\250"
  60      B290B18D 
  60      8C1D0157 
  60      C003A8
  61 0085 82800FD0 		.ascii	"\202\200\017\320E\341J\002e\331V$\253\012@\327\246~"
  61      45E14A02 
  61      65D95624 
  61      AB0A40D7 
  61      A67E
  62 0097 920CD6DA 		.ascii	"\222\014\326\332\014\037\221\271\252\016\224\373\267"
  62      0C1F91B9 
  62      AA0E94FB 
  62      B7
  63 00a4 4121EA57 		.ascii	"A!\352W:\371\374\370^j\360\005\256i\262\256\321F\314"
  63      3AF9FCF8 
  63      5E6AF005 
  63      AE69B2AE 
  63      D146CC
  64 00b7 D690CE39 		.ascii	"\326\220\3169f\273\311j\007\3211\036\3679\233\014=\017"
  64      66BBC96A 
  64      07D1311E 
  64      F7399B0C 
  64      3D0F
  65 00c9 3AEB4091 		.ascii	":\353@\221e\250\275\214q\214\206;_\203s\215\323\373"
  65      65A8BD8C 
  65      718C863B 
  65      5F83738D 
  65      D3FB
  66 00db 5CC33532 		.ascii	"\\\30352\316\177\031\317\310x\363e\324T\346,\227)\240"
  66      CE7F19CF 
  66      C878F365 
  66      D454E62C 
  66      9729A0
  67 00ee 498AD442 		.ascii	"I\212\324Bj\362+?\361qh\212\257r\252h\256\365g\234\224"
  67      6AF22B3F 
  67      F171688A 
  67      AF72AA68 
  67      AEF5679C 
  68 0103 304DE664 		.ascii	"0M\346d\332^\206\360L{\305\324\226\015{\227\263U\243"
  68      DA5E86F0 
  68      4C7BC5D4 
  68      960D7B97 
  68      B355A3
  69 0116 5B11F679 		.ascii	"[\021\366y+%kt\231\364a\252\220%~:\021\352\264\230\265"
  69      2B256B74 
  69      99F461AA 
  69      90257E3A 
  69      11EAB498 
  70 012b 2613E949 		.ascii	"&\023\351IL\367\220\"z\247\336\350q=\225\311V\035_\020"
  70      4CF79022 
  70      7AA7DEE8 
  70      713D95C9 
  70      561D5F10 
ARM GAS  /var/folders/c6/c789hm653lg9vtl73krp73tm0000gn/T//ccdT9yKN.s 			page 5


  71 013f FF4DE65F 		.ascii	"\377M\346_\011\2020}\016;\341A\243\025v\216\243\360"
  71      0982307D 
  71      0E3BE141 
  71      A315768E 
  71      A3F0
  72 0151 A8D10A22 		.ascii	"\250\321\012\"\372\003[\"r\234"
  72      FA035B22 
  72      729C
  73              		.text
  74              		.section	.gnu.lto_palSetBusMode.1525fc6a6f4e4c6,"",%progbits
  75 0000 789C6D90 		.ascii	"x\234m\220\277J\0041\020\306\277o\262\377\274\312R\305"
  75      BF4A0431 
  75      10C6BF6F 
  75      B2FFBCCA 
  75      52C5
  76 0012 42B053D8 		.ascii	"B\260S\330}\231\023\324n]p\015\334\241x\245\305\355"
  76      7D9913D4 
  76      6E5D700D 
  76      DCA178A5 
  76      C5ED
  77 0024 A985E5D5 		.ascii	"\251\205\345\325\012\202\017\240\327Z\332Y\251hiu\017"
  77      0A820FA0 
  77      D75ADA59 
  77      A9686975 
  77      0F
  78 0035 20F7005A 		.ascii	" \367\000Z\234\223\254\253 \033\222\231\344\313\374"
  78      9C93ACAB 
  78      201B9299 
  78      E4CBFC
  79 0044 66261108 		.ascii	"f&\021\010\376\217e]\373\004V\325\323\2002~\006F\211"
  79      FE8F655D 
  79      FB0456D5 
  79      D380327E 
  79      064689
  80 0057 906E0362 		.ascii	"\220n\003b(\034\356\320\307N\344a:\237\337\275=N>x-"
  80      281CEED0 
  80      C74EE461 
  80      3A9FDFBD 
  80      3D4E3E78 
  81 006c 1D619F30 		.ascii	"\035a\2370\260D\240\206\241\032\211\324\230\330\035"
  81      B044A086 
  81      A11A89D4 
  81      98D81D
  82 007b 13BD7558 		.ascii	"\023\275uX\210\363\252\032\257\365\251\265\013\237\247"
  82      88F3AA1A 
  82      AFF5A9B5 
  82      0B9FA7
  83 008a ABD625DF 		.ascii	"\253\326%\337RI\275y\302\351\373\375\327R\316\033\315"
  83      5249BD79 
  83      C2E9FBFD 
  83      D752CE1B 
  83      CD
  84 009b 51D26C62 		.ascii	"Q\322lb\3032\270\302%-\303\222\262\255>\362\015\354"
  84      C332B8C2 
  84      252DC392 
  84      B2AD3EF2 
  84      0DEC
ARM GAS  /var/folders/c6/c789hm653lg9vtl73krp73tm0000gn/T//ccdT9yKN.s 			page 6


  85 00ad B1695B99 		.ascii	"\261i[\231\335\006\010<\020\267\003l\001B\017$\355\200"
  85      DD06083C 
  85      10B7036C 
  85      01420F24 
  85      ED80
  86 00bf FC0133D3 		.ascii	"\374\0013\323\020\221BN:\273\375\225b-\\:\352\005Q\255"
  86      1091424E 
  86      3ABBFD95 
  86      622D5C3A 
  86      EA0551AD 
  87 00d3 0127F8AC 		.ascii	"\001'\370\254.\252E\313\205\342\247\260>\307\207&\226"
  87      2EAA45CB 
  87      85E2A7B0 
  87      3EC78726 
  87      96
  88 00e4 1DE015A3 		.ascii	"\035\340\025\243\351l\275\211\256GW#\365\027\\\331\225"
  88      E96CBD89 
  88      AE475723 
  88      F5175CD9 
  88      95
  89 00f5 34CDEA79 		.ascii	"4\315\352y8\310\016\362^68.\262\243\274\227\026\370"
  89      38C80EF2 
  89      5E36382E 
  89      B2A3BC97 
  89      16F8
  90 0107 06C99D4C 		.ascii	"\006\311\235L\324"
  90      D4
  91              		.text
  92              		.section	.gnu.lto_.symbol_nodes.1525fc6a6f4e4c6,"",%progbits
  93 0000 789C6362 		.ascii	"x\234cb`bpe\200\002\246\026\246z\006\206\011\347\030"
  93      60627065 
  93      8002A616 
  93      A67A0686 
  93      09E718
  94 0013 18EAEBE7 		.ascii	"\030\352\353\347u02\2652\3253\"q\333\230\352\231\020"
  94      753032B5 
  94      32D53322 
  94      71DB98EA 
  94      9910
  95 0025 5CC64EA6 		.ascii	"\\\306N\246zf\010\267\241\201\221\231\211\231a\361\303"
  95      7A6608B7 
  95      A1819199 
  95      899961F1 
  95      C3
  96 0036 7F8C0C00 		.ascii	"\177\214\014\000\3061\024e"
  96      C6311465 
  97              		.text
  98              		.section	.gnu.lto_.refs.1525fc6a6f4e4c6,"",%progbits
  99 0000 789C6362 		.ascii	"x\234cb`b`d\200\002\000\000F\000\006"
  99      60626064 
  99      80020000 
  99      460006
 100              		.text
 101              		.section	.gnu.lto_.decls.1525fc6a6f4e4c6,"",%progbits
 102 0000 789CB558 		.ascii	"x\234\265X{l\024E\030\237\331\273\203^{\224\227\220"
 102      7B6C1445 
 102      189FD9BB 
ARM GAS  /var/folders/c6/c789hm653lg9vtl73krp73tm0000gn/T//ccdT9yKN.s 			page 7


 102      835E7B94 
 102      9790
 103 0012 620C5423 		.ascii	"b\014T#\206\020\350A\251\012\377\020\205VJ,\2669 `b"
 103      8610E841 
 103      A90AFF10 
 103      85564A2C 
 103      B6392060 
 104 0027 B22E7757 		.ascii	"\262.wWz\361\332k\356\266\032\023\023\247\264\"\001"
 104      7AF1DA6B 
 104      EEB61A13 
 104      13A7B422 
 104      01
 105 0038 35A50DB4 		.ascii	"5\245\015\264D$\345Q\213\006\201\224\227@%\007\301\266"
 105      4424E551 
 105      8B068194 
 105      97402507 
 105      C1B6
 106 004a 70440888 		.ascii	"pD\010\210H\014\341D\024\021b\312\323\012\226\363\233"
 106      480CE144 
 106      141162CA 
 106      D30A96F3 
 106      9B
 107 005b D9DDDEEE 		.ascii	"\331\335\336\356v\367\036D7\367\315\315\354\316\374"
 107      76F71E44 
 107      37F7CDCD 
 107      ECCEFC
 108 006a BEDFF798 		.ascii	"\276\337\367\230\307.\2078\364\036F(\006\327;O \344"
 108      C72E8738 
 108      F41E4628 
 108      06D73B4F 
 108      20E4
 109 007c E110B222 		.ascii	"\341\020\262\"\204f\243\370E\333\233A\356\202\364\203"
 109      8466A3F8 
 109      45DB9B41 
 109      EE82F483 
 110 008c D8311A74 		.ascii	"\3301\032t\321\347Y \327@\206\202\330\344q[A\366\201"
 110      D1E75920 
 110      D7408682 
 110      D8E4715B 
 110      41F681
 111 009f EC02D909 		.ascii	"\354\002\331\011\322\011\262\037\344\246\374|/\310q"
 111      D209B21F 
 111      E4A6FC7C 
 111      2FC871
 112 00ae 901B20D7 		.ascii	"\220\033 \327A\260\214\0054\320-\220\341:]\224\203\303"
 112      41B08C05 
 112      34D02D90 
 112      E13A5D94 
 112      83C3
 113 00c0 408F5AC7 		.ascii	"@\217Z\307V\031\237\352:!\353\263\311\272\256\313\272"
 113      56199FEA 
 113      3A21EBB3 
 113      C9BAAECB 
 113      BA
 114 00d1 7A404EC9 		.ascii	"z@N\311\372(\246\005\344o\220\007 \343t:\373Ml3\322"
 114      FA28A605 
 114      E46F9007 
ARM GAS  /var/folders/c6/c789hm653lg9vtl73krp73tm0000gn/T//ccdT9yKN.s 			page 8


 114      20E3743A 
 114      FB4D6C33 
 115 00e6 391EC666 		.ascii	"9\036\306fb\011O\255\217S\371\216>\263\301\377\020\220"
 115      62094FAD 
 115      8F53F98E 
 115      3EB3C1FF 
 115      1090
 116 00f8 093A5D13 		.ascii	"\011:]\023\320&\322\032\215\266]\351\305\033H\270\236"
 116      D026D21A 
 116      8DB65DE9 
 116      C51B48B8 
 116      9E
 117 0109 C462EFA3 		.ascii	"\304b\357\243\261h\035\201\253u%!X\264\243U\204\254"
 117      B1681D81 
 117      AB752521 
 117      58B4A355 
 117      84AC
 118 011b A08DE29E 		.ascii	"\240\215\342\236l\204\226b\001g\333Q.\2538\354\214\327"
 118      6C849662 
 118      0167DB51 
 118      2EAB38EC 
 118      8CD7
 119 012d 44B48D90 		.ascii	"D\264\215\220\206\350\303\276m\223\011\311\020\360V"
 119      86E8C3BE 
 119      6D9309C9 
 119      10F056
 120 013c 6C07FDA5 		.ascii	"l\007\375\245\030MF_\000N\003\214w\032\204\020\245\016"
 120      184D465F 
 120      004E038C 
 120      771A8410 
 120      A50E
 121 014e DDFCE1B7 		.ascii	"\335\374\341\267G\361\012\240#\340v\006\276\033c$\340"
 121      47F10AA0 
 121      23E07606 
 121      BE1B6324 
 121      E0
 122 015f CFF1E4B4 		.ascii	"\317\361\344\264\241\356\254\351\234\305X~\311\200\326"
 122      A1EEACE9 
 122      9CC5587E 
 122      C980D6
 123 016e 735A2001 		.ascii	"sZ \001\017\265\2539\262\266\322\201\242\261\307r\205"
 123      0FB5AB39 
 123      B2B6D281 
 123      A2B1C772 
 123      85
 124 017f 26F170F4 		.ascii	"&\361p\364?w7\262\205\216\334\202\307\262\232\205\305"
 124      3F7737B2 
 124      858EDC82 
 124      C7B29A85 
 124      C5
 125 0190 1A126675 		.ascii	"\032\022fu\334\003\243\320Z\032\301\\\225/\336T\306"
 125      DC03A3D0 
 125      5A1AC15C 
 125      952FDE54 
 125      C6
 126 01a1 3BE2BE68 		.ascii	";\342\276h:w*\237\371b\027\036\005(a\235/\222\241P\026"
 126      3A772A9F 
ARM GAS  /var/folders/c6/c789hm653lg9vtl73krp73tm0000gn/T//ccdT9yKN.s 			page 9


 126      F962171E 
 126      0528619D 
 126      2F92A150 
 127 01b6 1D30521A 		.ascii	"\0350R\032\3030I\370^\267\203X\245\373H\203\246\271"
 127      C33049F8 
 127      5EB78358 
 127      A5FB4883 
 127      A6B9
 128 01c8 9E46ADC0 		.ascii	"\236F\255\3006\334\337\275q\034i=\206\223\221\217r\212"
 128      36DCDFBD 
 128      711C693D 
 128      8693918F 
 128      728A
 129 01da DE29AA7C 		.ascii	"\336)\252|\353m\2660\366\373\031\373\256\344\354\265"
 129      EB6DB630 
 129      F6FB19FB 
 129      AEE4ECB5 
 130 01ea 3094DE41 		.ascii	"0\224\336A=\375=\021F\377`r\372\365u\341\003\021\211"
 130      3DFD3D11 
 130      46FF6072 
 130      FAF575E1 
 130      031189
 131 01fd 3ECBBEBA 		.ascii	">\313\276\272\204\331'\340\355xbJ\361\346\3209f\011"
 131      84D927E0 
 131      ED78624A 
 131      F1E6D039 
 131      6609
 132 020f A5608424 		.ascii	"\245`\204$W\245K\356\240\245\365u\304\321 \010\270\223"
 132      57A54BEE 
 132      A0A5F575 
 132      C4D12008 
 132      B893
 133 0221 25F8C5B4 		.ascii	"%\370\305\264\301r5`\207\324`\321T\3002\314\231u\252"
 133      C1723560 
 133      87D460D1 
 133      54C032CC 
 133      9975AA
 134 0234 C17E4F1B 		.ascii	"\301~O\033L\313\354\210\032\354\317T\300F\2303;\243"
 134      4CCBEC88 
 134      1AECCF54 
 134      C0469833 
 134      3BA3
 135 0246 06BB9D36 		.ascii	"\006\273\2356\230\232Ym\370r\344$&\215\216\321\250\221"
 135      989A596D 
 135      F872E424 
 135      268D8ED1 
 135      A891
 136 0258 905AD23A 		.ascii	"\220Z\322:\304,)\020b]H\302.\002>\211Gk\223\364\334"
 136      C42C2910 
 136      625D48C2 
 136      2E023E89 
 136      476B93F4 
 137 026d 9A6C9AA4 		.ascii	"\232l\232\244\364~\3629v^NRe\351\274\317\214\243c\037"
 137      F47EF239 
 137      765E4E52 
 137      65E9BCCF 
 137      8CA3631F 
ARM GAS  /var/folders/c6/c789hm653lg9vtl73krp73tm0000gn/T//ccdT9yKN.s 			page 10


 138 0281 23BB40F9 		.ascii	"#\273@\371\245H\026Y\355\220gW\353K\333\023\020?\255"
 138      A5481659 
 138      ED906757 
 138      EB4BDB13 
 138      103FAD
 139 0294 9F5D1722 		.ascii	"\237]\027\"\\\256t;9\357\213\221\2159\244\365(\226\227"
 139      5CAE743B 
 139      39EF8B91 
 139      8D39A4F5 
 139      289697
 140 02a7 76B2924C 		.ascii	"v\262\222LR\351\032\241\350\242\213\337\300.q`\012["
 140      52E91AA1 
 140      E8A28BDF 
 140      C02E7160 
 140      0A5B
 141 02b9 10CE3243 		.ascii	"\020\3162C\3738\303=\"\005\240;k\332\245=\342<\003\252"
 141      FB38C33D 
 141      2205A03B 
 141      6BDAA53D 
 141      E23C03AA 
 142 02cd B5E8F708 		.ascii	"\265\350\367\010\213n\217\260hg\265\305\036\257\304"
 142      8B6E8FB0 
 142      6867B5C5 
 142      1EAFC4
 143 02dc 6216945E 		.ascii	"b\026\224^g\016}\304\024\236\216\347\237\206d\262\020"
 143      670E7DC4 
 143      149E8EE7 
 143      9F8664B2 
 143      10
 144 02ed AD883ED8 		.ascii	"\255\210>\330\333\314\\\247x\242!m\274\021\272\230\300"
 144      DBCC5CA7 
 144      78A2216D 
 144      BC11BA98 
 144      C0
 145 02fe 466979CC 		.ascii	"Fiy\314\264QY.\031-\340S\370i(\277\203R\245\240\305"
 145      B451592E 
 145      192DE053 
 145      F86928BF 
 145      8352A5A0 
 146 0313 92C2A4CB 		.ascii	"\222\302\244\31311\032fp\257z\006\177\2266X\256\006"
 146      31311A66 
 146      70AF7A06 
 146      7F963658 
 146      AE06
 147 0325 ECB61A6C 		.ascii	"\354\266\032lK*`\271\346\314\356\252\301\332\323\006"
 147      4B2A60B9 
 147      E6CCEEAA 
 147      C1DAD306 
 148 0335 D332BBAF 		.ascii	"\3232\273\257\006\333\221\012\330\244DA\321\304'\276"
 148      06DB910A 
 148      D8A44441 
 148      D1C427BE 
 149 0345 1B0AF810 		.ascii	"\033\012\370\020\333\256\016\263H\035ae\230\225\307"
 149      DBAE0EB3 
 149      481D6165 
 149      9895C7
 150 0354 58799C95 		.ascii	"Xy\234\225]\254\354a\345%V^f\345\317\254\374E\035_\363"
ARM GAS  /var/folders/c6/c789hm653lg9vtl73krp73tm0000gn/T//ccdT9yKN.s 			page 11


 150      5DACEC61 
 150      E525565E 
 150      66E5CFAC 
 150      FC451D5F 
 151 0369 1359F8AF 		.ascii	"\023Y\370\257\306\247\350j\266\017N\001p\260\323\315"
 151      C6A7E86A 
 151      B60F4E01 
 151      70B0D3CD 
 152 0379 35CDC940 		.ascii	"5\315\311@\332\352\315V\233k\000`\274\250\014z\306\241"
 152      DAEACD56 
 152      9B6B0060 
 152      BCA80C7A 
 152      C6A1
 153 038b C34C4FC7 		.ascii	"\303LO\307\343\355\2610\305\232\232\272\032qS\035\351"
 153      E3EDB130 
 153      C59A9ABA 
 153      1A71531D 
 153      E9
 154 039c 99A69C77 		.ascii	"\231\246\234w\217\245\215\230\253F\014\357>\011\201"
 154      8FA58D98 
 154      AB460CEF 
 154      3E0981
 155 03ab 4DE7487C 		.ascii	"M\347H|\365\026\256cG\342\233L\177\367\240U\312\246"
 155      F516AE63 
 155      47E29B4C 
 155      7FF7A055 
 155      CAA6
 156 03bd 5BA56CDA 		.ascii	"[\245l\332\205\307f\217W\006\316\036\337\247b\205\321"
 156      85C7668F 
 156      5706CE1E 
 156      DFA76285 
 156      D1
 157 03ce 0E6F9C51 		.ascii	"\016o\234Q\035\252\214\332\3032j/\313\215\353\254\274"
 157      1DAA8CDA 
 157      C3326A2F 
 157      CB8DEBAC 
 157      BC
 158 03df 912C4328 		.ascii	"\221,C(\304N\234\025\307[\034_L9\364\223\316\342g\321"
 158      C44E9C15 
 158      C75B1C5F 
 158      4C39F493 
 158      CEE267D1 
 159 03f3 56421AE1 		.ascii	"VB\032\341]&l\205w\031\2534\224C\277\261n\233\361\004"
 159      5D266C85 
 159      7719AB34 
 159      9443BFB1 
 159      6E9BF104 
 160 0407 938399AC 		.ascii	"\223\203\231\254\3409\324F]\377\315\325\262b)\244(\301"
 160      E039D446 
 160      5DFFCDD5 
 160      B26229A4 
 160      28C1
 161 0419 28994E2F 		.ascii	"(\231N/\346\324\366J/S\341{+#\260\375\223\177\350j\256"
 161      E6D4F64A 
 161      2F53E17B 
 161      2B23B0FD 
 161      937FE86A 
ARM GAS  /var/folders/c6/c789hm653lg9vtl73krp73tm0000gn/T//ccdT9yKN.s 			page 12


 162 042e 799712F0 		.ascii	"y\227\022\360\3541\246v\336\323\236\347%^\003\015\211"
 162      EC31A676 
 162      DED39EE7 
 162      255E030D 
 162      89
 163 043f 90DE037F 		.ascii	"\220\336\003\177\030z\200\334\361\024K\303\005|\033"
 163      187A80DC 
 163      F1144BC3 
 163      057C1B
 164 044e 180AF86E 		.ascii	"\030\012\370nb\343\345a\007\274\305J2\337g\300\346\303"
 164      62E3E561 
 164      07BCC54A 
 164      32DF67C0 
 164      E6C3
 165 0460 643ACC67 		.ascii	"d:\314g\204|L>\030\201\231qH\036\245I\202>C/\235\355"
 165      847C4C3E 
 165      18819971 
 165      481EA549 
 165      823E432F 
 166 0476 7634D446 		.ascii	"v4\324Fc\261\011\251\273\350Q\002\027\245\361\236\272"
 166      63B109A9 
 166      BBE85102 
 166      17A5F19E 
 166      BA
 167 0487 A34D7A4F 		.ascii	"\243MzO\255\345\250\251\017\007\315\233v\3748\257\200"
 167      ADE5A8A9 
 167      0F07CD9B 
 167      76FC38AF 
 167      80
 168 0498 BAD0D45B 		.ascii	"\272\320\324[\215\223\363\301\217\226xr*\361\351O)>"
 168      8D93F3C1 
 168      8F967872 
 168      2AF1E94F 
 168      293E
 169 04aa 7B687C24 		.ascii	"{h|$\322\215\014\335|\030\355e\026\237~}|\352\271A\361"
 169      D28D0CDD 
 169      7C18ED65 
 169      169F7E7D 
 169      7CEAB941 
 170 04bf 89829B5A 		.ascii	"\211\202\233Z\217\344l \307\014>\011$\214\321jN\027"
 170      8FE46C20 
 170      C70C3E09 
 170      248CD16A 
 170      4E17
 171 04d1 A37D0669 		.ascii	"\243}\006i<\320\226y\352|\327\254\363\235B\364\023-"
 171      3CD09679 
 171      EA7CD7AC 
 171      F39D42F4 
 171      132D
 172 04e3 D167D066 		.ascii	"\321g\320fr\346L\364\327+-xU\2244\220G\261\030\036\211"
 172      72E64CF4 
 172      D72B2D78 
 172      55943490 
 172      47B1181E 
 173 04f8 1AD85B5F 		.ascii	"\032\330[_K\266\234\020\321\266pNK<!2\024\276XI\010"
 173      4BB69C10 
 173      D1B6704E 
ARM GAS  /var/folders/c6/c789hm653lg9vtl73krp73tm0000gn/T//ccdT9yKN.s 			page 13


 173      4B3C2132 
 173      14BE5849 
 174 050d FA7D821B 		.ascii	"\372}\202\033\350Lrr\214\373\012\270\221\243\353W\223"
 174      E84C7272 
 174      8CFB0AB8 
 174      91A3EB57 
 174      93
 175 051e C4983D92 		.ascii	"\304\230=\222\352J-\206)\367\257\254F\237:\030@\342"
 175      EA4A2D86 
 175      29F7AFAC 
 175      469F3A18 
 175      40E2
 176 0530 A1B2D2A5 		.ascii	"\241\262\322\245\212Ri\325\213\333#\3654\356%\340u\334"
 176      8A5269D5 
 176      8BDB23F5 
 176      34EE25E0 
 176      75DC
 177 0542 48566386 		.ascii	"HVc\206\220\201\375\322a7\015\324z\025\033\207=^\311"
 177      9081FDD2 
 177      61370DD4 
 177      7A151B87 
 177      3D5EC9
 178 0555 D470567A 		.ascii	"\324pVz\201e\035V\335:\252#\001\233\252l\273\200\351"
 178      81651D56 
 178      DD3AAA23 
 178      019BAA6C 
 178      BB80E9
 179 0568 2729293C 		.ascii	"'))<\341\276.\222\261\233\254\242i\2446fm\334\030\335"
 179      E1BE2E92 
 179      B19BACA2 
 179      69A43666 
 179      6DDC18DD 
 180 057c 47051393 		.ascii	"G\005\023\223\007}z\3704m\2237\232\230<\260\301hzA\265"
 180      077D7AF8 
 180      346D9337 
 180      9A983CB0 
 180      C1687A41 
 181 0591 99D3AD9E 		.ascii	"\231\323\255\236:\022\034:\2411YwZ\241s\301\214\313"
 181      3A121C3A 
 181      A1315977 
 181      5AA173C1 
 181      8CCB
 182 05a3 266E40AB 		.ascii	"&n@\253\354\250\037\272\2239\252Z\001\311N\344(]/\010"
 182      ECA81FBA 
 182      9339AA5A 
 182      01C94EE4 
 182      285D2F08 
 183 05b7 59DA8EDA 		.ascii	"Y\332\216\332b\342\250a\032Gm\321;J\265\036\351Hp\350"
 183      62E2A861 
 183      1A476DD1 
 183      3B4AB51E 
 183      E94870E8 
 184 05cb 82C651E8 		.ascii	"\202\306Q\350\311\274<\247\364\013\204\234\025\202\337"
 184      C9BC3CA7 
 184      F40B849C 
 184      1582DF
 185 05da 190ABA9D 		.ascii	"\031\012\272\235\325\202?\317\215\246\353\037U\007\202"
ARM GAS  /var/folders/c6/c789hm653lg9vtl73krp73tm0000gn/T//ccdT9yKN.s 			page 14


 185      D5823FCF 
 185      8DA6EB1F 
 185      550782
 186 05e9 62C8B970 		.ascii	"b\310\271p\321\202\031\371\316\222\222B\347\274\262"
 186      D18219F9 
 186      CE929242 
 186      E7BCB2
 187 05f8 F9A56FE7 		.ascii	"\371\245o\347\323\336\274\337\357\311\253@\016_\200"
 187      D3DEBCDF 
 187      EFC9AB40 
 187      0E5F80
 188 0607 F6A91442 		.ascii	"\366\251\024Bo\361\342\220y\257-\316\235\213J\2345\241"
 188      6FF1E290 
 188      79AF2DCE 
 188      9D8B4A9C 
 188      35A1
 189 0619 A0D31F70 		.ascii	"\240\323\037p\003\300\\\257\337/\004\235\313\335\356"
 189      03C05CAF 
 189      DF2F049D 
 189      CBDDEE
 190 0628 A942B072 		.ascii	"\251B\260rjU\240\312;\325+,\3639\363\247M/\2306s\332"
 190      6A55A0CA 
 190      3BD52B2C 
 190      F339F3A7 
 190      4D2F9836 
 191 063e F34EED6D 		.ascii	"\363N\355m_\225\333_\343\361:C\242\307W%\202\202\214"
 191      5F95DB5F 
 191      E3F13A43 
 191      A2C75725 
 191      82828C
 192 0651 1AF89F91 		.ascii	"\032\370\237\221\317\213o\374\007\250\225\202\273\302"
 192      CF8B6FFC 
 192      07A89582 
 192      BBC2
 193 065f 57E575F2 		.ascii	"W\345u\362\036o\271P\343\027y\361\335jo\010\264d\362"
 193      1E6FB950 
 193      E31779F1 
 193      DD6A6F08 
 193      B464F2
 194 0672 BCA267BC 		.ascii	"\274\242g\274\336\007\312`\352\242\012d\233_:\247&\344"
 194      DE07CA60 
 194      EAA20A64 
 194      9B5F3AA7 
 194      26E4
 195 0684 088995D0 		.ascii	"\010\211\225\320yy\265/\300\213\266\005\245\205E\256"
 195      7979B52F 
 195      C08BB605 
 195      A58545AE 
 196 0694 21A58B5E 		.ascii	"!\245\213^/+r\015-]XVTT\350\262\225-.+tY\346\203\224"
 196      2F2B720D 
 196      2D5D5856 
 196      5454E8B2 
 196      952D2E2B 
 197 06ad 16BAF012 		.ascii	"\026\272\360\022f\307\364\027xQVE\253\226\220W\264\271"
 197      66C7F417 
 197      78515645 
 197      AB969057 
ARM GAS  /var/folders/c6/c789hm653lg9vtl73krp73tm0000gn/T//ccdT9yKN.s 			page 15


 197      B4B9
 198 06bf FD5E2188 		.ascii	"\375^!\210\213\255s\026\272\\\326\222\271\257\272\254"
 198      8BAD7316 
 198      BA5CD692 
 198      B9AFBAAC 
 199 06cf 2FBFE22A 		.ascii	"/\277\342*\241E\261e\216\313\225)9\330\347\001\367J"
 199      A145B165 
 199      8ECB9529 
 199      39D8E701 
 199      F74A
 200 06e1 152B75B6 		.ascii	"\025+u\266\203b\360\345BH\234\011\017\002\345\345\000"
 200      8362F0E5 
 200      42489C09 
 200      0F02E5E5 
 200      00
 201 06f2 95090C5D 		.ascii	"\225\011\014]^\301\003\374,\313jBY\320\\\022\364\211"
 201      5EC103FC 
 201      2CCB6A42 
 201      59D05C12 
 201      F489
 202 0704 5E685B97 		.ascii	"^h[\227\371\304P\206/P\031\360xyq\030<Y\350\025\341"
 202      F9C45086 
 202      2F5019F0 
 202      78797118 
 202      3C59E815 
 203 0719 FE02685B 		.ascii	"\376\002h[\351\3151\274\034S\036\200\226\007\0035\325"
 203      E9CD31BC 
 203      1C531E80 
 203      96070335 
 203      D5
 204 072a F4AED55D 		.ascii	"\364\256\325]!\0043x\276\274\246\312\315\363\303\224"
 204      21043378 
 204      BEBCA6CA 
 204      CDF3C394 
 205 073a 4ADE8BF9 		.ascii	"J\336\213\3713\0124\255Y\352VA\301\277!:\216\300"
 205      330A34AD 
 205      59EA5641 
 205      C1BF213A 
 205      8EC0
 206              		.text
 207              		.section	.gnu.lto_.symtab.1525fc6a6f4e4c6,"",%progbits
 208 0000 70616C52 		.ascii	"palReadBus\000\000\000\000\000\000\000\000\000\000\000"
 208      65616442 
 208      75730000 
 208      00000000 
 208      00000000 
 209 0015 00A10000 		.ascii	"\000\241\000\000\000palWriteBus\000\000\000\000\000"
 209      0070616C 
 209      57726974 
 209      65427573 
 209      00000000 
 210 002a 00000000 		.ascii	"\000\000\000\000\000\000\000\364\000\000\000palSetB"
 210      000000F4 
 210      00000070 
 210      616C5365 
 210      7442
 211 003c 75734D6F 		.ascii	"usMode\000\000\000\000\000\000\000\000\000\000\000\000"
ARM GAS  /var/folders/c6/c789hm653lg9vtl73krp73tm0000gn/T//ccdT9yKN.s 			page 16


 211      64650000 
 211      00000000 
 211      00000000 
 211      0000
 212 004e FD000000 		.ascii	"\375\000\000\000_pal_lld_setgroupmode\000\000\002\000"
 212      5F70616C 
 212      5F6C6C64 
 212      5F736574 
 212      67726F75 
 213 006b 00000000 		.ascii	"\000\000\000\000\000\000\000\000\011\001\000\000"
 213      00000000 
 213      09010000 
 214              		.text
 215              		.section	.gnu.lto_.opts,"",%progbits
 216 0000 272D6D63 		.ascii	"'-mcpu=cortex-m4' '-mno-thumb-interwork' '-mthumb' "
 216      70753D63 
 216      6F727465 
 216      782D6D34 
 216      2720272D 
 217 0033 272D6767 		.ascii	"'-ggdb' '-O2' '-fomit-frame-pointer' '-falign-funct"
 217      64622720 
 217      272D4F32 
 217      2720272D 
 217      666F6D69 
 218 0066 696F6E73 		.ascii	"ions=16' '-ffunction-sections' '-fdata-sections' '-"
 218      3D313627 
 218      20272D66 
 218      66756E63 
 218      74696F6E 
 219 0099 666E6F2D 		.ascii	"fno-common' '-flto'\000"
 219      636F6D6D 
 219      6F6E2720 
 219      272D666C 
 219      746F2700 
 220              		.text
 221              		.cfi_sections	.debug_frame
 222              		.section	.text.palReadBus,"ax",%progbits
 223              		.align	2
 224              		.p2align 4,,15
 225              		.global	palReadBus
 226              		.thumb
 227              		.thumb_func
 228              		.type	palReadBus, %function
 229              	palReadBus:
 230              	.LFB260:
 231              		.file 1 "../../../os/hal/src/pal.c"
 232              		.loc 1 65 0
 233              		.cfi_startproc
 234              		@ args = 0, pretend = 0, frame = 0
 235              		@ frame_needed = 0, uses_anonymous_args = 0
 236              		@ link register save eliminated.
 237              	.LVL0:
 238              		.loc 1 69 0
 239 0000 0368     		ldr	r3, [r0]
 240 0002 8268     		ldr	r2, [r0, #8]
 241 0004 1969     		ldr	r1, [r3, #16]
 242 0006 4368     		ldr	r3, [r0, #4]
ARM GAS  /var/folders/c6/c789hm653lg9vtl73krp73tm0000gn/T//ccdT9yKN.s 			page 17


 243 0008 21FA02F0 		lsr	r0, r1, r2
 244              	.LVL1:
 245              		.loc 1 70 0
 246 000c 1840     		ands	r0, r0, r3
 247 000e 7047     		bx	lr
 248              		.cfi_endproc
 249              	.LFE260:
 250              		.size	palReadBus, .-palReadBus
 251              		.section	.text.palWriteBus,"ax",%progbits
 252              		.align	2
 253              		.p2align 4,,15
 254              		.global	palWriteBus
 255              		.thumb
 256              		.thumb_func
 257              		.type	palWriteBus, %function
 258              	palWriteBus:
 259              	.LFB261:
 260              		.loc 1 90 0
 261              		.cfi_startproc
 262              		@ args = 0, pretend = 0, frame = 0
 263              		@ frame_needed = 0, uses_anonymous_args = 0
 264              		@ link register save eliminated.
 265              	.LVL2:
 266              		.loc 1 94 0
 267 0000 0DC8     		ldmia	r0, {r0, r2, r3}
 268              	.LVL3:
 269              		.loc 1 90 0
 270 0002 30B4     		push	{r4, r5}
 271              		.cfi_def_cfa_offset 8
 272              		.cfi_offset 4, -8
 273              		.cfi_offset 5, -4
 274              		.loc 1 94 0
 275 0004 22EA0105 		bic	r5, r2, r1
 276 0008 03F11004 		add	r4, r3, #16
 277 000c 0A40     		ands	r2, r2, r1
 278 000e 02FA03F3 		lsl	r3, r2, r3
 279 0012 05FA04F2 		lsl	r2, r5, r4
 280 0016 1343     		orrs	r3, r3, r2
 281 0018 8361     		str	r3, [r0, #24]
 282              		.loc 1 95 0
 283 001a 30BC     		pop	{r4, r5}
 284 001c 7047     		bx	lr
 285              		.cfi_endproc
 286              	.LFE261:
 287              		.size	palWriteBus, .-palWriteBus
 288 001e 00BF     		.section	.text.palSetBusMode,"ax",%progbits
 289              		.align	2
 290              		.p2align 4,,15
 291              		.global	palSetBusMode
 292              		.thumb
 293              		.thumb_func
 294              		.type	palSetBusMode, %function
 295              	palSetBusMode:
 296              	.LFB262:
 297              		.loc 1 113 0
 298              		.cfi_startproc
 299              		@ args = 0, pretend = 0, frame = 0
ARM GAS  /var/folders/c6/c789hm653lg9vtl73krp73tm0000gn/T//ccdT9yKN.s 			page 18


 300              		@ frame_needed = 0, uses_anonymous_args = 0
 301              		@ link register save eliminated.
 302              	.LVL4:
 303 0000 10B4     		push	{r4}
 304              		.cfi_def_cfa_offset 4
 305              		.cfi_offset 4, -4
 306              		.loc 1 113 0
 307 0002 0A46     		mov	r2, r1
 308              		.loc 1 117 0
 309 0004 4468     		ldr	r4, [r0, #4]
 310 0006 8168     		ldr	r1, [r0, #8]
 311              	.LVL5:
 312 0008 0068     		ldr	r0, [r0]
 313              	.LVL6:
 314 000a 04FA01F1 		lsl	r1, r4, r1
 315              		.loc 1 118 0
 316 000e 5DF8044B 		ldr	r4, [sp], #4
 317              		.loc 1 117 0
 318 0012 FFF7FEBF 		b	_pal_lld_setgroupmode
 319              	.LVL7:
 320              		.cfi_endproc
 321              	.LFE262:
 322              		.size	palSetBusMode, .-palSetBusMode
 323 0016 00BFAFF3 		.text
 323      0080AFF3 
 323      0080
 324              	.Letext0:
 325              		.file 2 "/usr/local/Cellar/gcc-arm-none-eabi/20140805/arm-none-eabi/include/machine/_default_types
 326              		.file 3 "/usr/local/Cellar/gcc-arm-none-eabi/20140805/arm-none-eabi/include/stdint.h"
 327              		.file 4 "../../../os/rt/ports/ARMCMx/compilers/GCC/chtypes.h"
 328              		.file 5 "../../../os/rt/include/chsystypes.h"
 329              		.file 6 "../../../os/rt/include/chschd.h"
 330              		.file 7 "../../../os/rt/ports/ARMCMx/chcore.h"
 331              		.file 8 "../../../os/rt/ports/ARMCMx/chcore_v7m.h"
 332              		.file 9 "../../../os/rt/include/chtm.h"
 333              		.file 10 "../../../os/rt/include/chsem.h"
 334              		.file 11 "../../../os/rt/include/chmtx.h"
 335              		.file 12 "../../../os/hal/ports/STM32/LLD/GPIOv2/pal_lld.h"
 336              		.file 13 "../../../os/hal/include/pal.h"
 337              		.file 14 "../../../os/ext/CMSIS/include/core_cm4.h"