ARM GAS  /var/folders/c6/c789hm653lg9vtl73krp73tm0000gn/T//ccdT9yKN.s 			page 1


   1              		.syntax unified
   2              		.cpu cortex-m4
   3              		.fpu softvfp
   4              		.eabi_attribute 20, 1
   5              		.eabi_attribute 21, 1
   6              		.eabi_attribute 23, 3
   7              		.eabi_attribute 24, 1
   8              		.eabi_attribute 25, 1
   9              		.eabi_attribute 26, 1
  10              		.eabi_attribute 30, 2
  11              		.eabi_attribute 34, 1
  12              		.eabi_attribute 18, 4
  13              		.thumb
  14              		.file	"pal.c"
  15              		.text
  16              	.Ltext0:
  17              		.section	.gnu.lto_.jmpfuncs.1525fc6a6f4e4c6,"",%progbits
  18 0000 789C6362 		.ascii	"x\234cb`b\300\006D\24043\003##3\02333\204\315\300X\006"
  18      6062C006 
  18      44A03433 
  18      03232333 
  18      13333384 
  19 0018 A4010623 		.ascii	"\244\001\006#\000\243"
  19      00A3
  20              		.text
  21              		.section	.gnu.lto_.inline.1525fc6a6f4e4c6,"",%progbits
  22 0000 789C6362 		.ascii	"x\234cb`b\300\006\276Cif\006\006N\016Ff\006F0\023D:"
  22      6062C006 
  22      BE436966 
  22      06064E0E 
  22      46660646 
  23 0018 8049050E 		.ascii	"\200I\005\016\266\017z\014l\013\344\231\030\030_\260"
  23      B60F7A0C 
  23      6C0BE499 
  23      18185FB0 
  24 0028 B3404810 		.ascii	"\263@H\020\301\001fr\200\010\0010S\000d\014#\003\037"
  24      C1016672 
  24      80080130 
  24      5300640C 
  24      23031F
  25 003b 2F230BC4 		.ascii	"/#\013\304\024FF\210\010\320\020\210\201\334L\027\370"
  25      14464688 
  25      08D01088 
  25      81DC4C17 
  25      F8
  26 004c 318C028A 		.ascii	"1\214\002\212\241\030\302\262@^\002\304R`b`\336!\256"
  26      A118C2B2 
  26      405E02C4 
  26      52606260 
  26      DE21AE
  27 005f C000B4DE 		.ascii	"\300\000\264\336\002d\016\023\003\2670\212\373\240\206"
  27      02640E13 
  27      03B7308A 
  27      FBA086
  28 006e 7202E588 		.ascii	"r\002\345\210s\036\320&\011\220I,\274@}\023\374@\220"
  28      731ED026 
  28      0990492C 
ARM GAS  /var/folders/c6/c789hm653lg9vtl73krp73tm0000gn/T//ccdT9yKN.s 			page 2


  28      BC407D13 
  28      FC4090
  29 0081 01003C62 		.ascii	"\001\000<b\037\210"
  29      1F88
  30              		.text
  31              		.section	.gnu.lto_.pureconst.1525fc6a6f4e4c6,"",%progbits
  32 0000 789C6362 		.ascii	"x\234cb`b`g\200\000f\006)F)&I\000\001\312\000_"
  32      60626067 
  32      80006606 
  32      29462926 
  32      490001CA 
  33              		.text
  34              		.section	.gnu.lto_palReadBus.1525fc6a6f4e4c6,"",%progbits
  35 0000 789C6D90 		.ascii	"x\234m\220\275N\303@\020\204g\366\354\330NA\017\242"
  35      BD4EC340 
  35      108467F6 
  35      ECD84E41 
  35      0FA2
  36 0012 A02692FD 		.ascii	"\240&\222\3752A\002:\343\"XJ\004\"\017\020\023\247\242"
  36      3241023A 
  36      E322584A 
  36      04220F10 
  36      13A7A2
  37 0025 8AA81054 		.ascii	"\212\250\020T4\024\024\241E\242A\024tA\320RE\242E\274"
  37      341414A1 
  37      45A24114 
  37      7441D052 
  37      45A245BC 
  38 0039 42D83B63 		.ascii	"B\330;c#PNw\263\367\263\337\354\352\004\202\377c]\327"
  38      23504E77 
  38      B3F7B3DF 
  38      ECEA0482 
  38      FF635DD7 
  39 004d 19814D8D 		.ascii	"\031\201M\2154\240L_\200\323PH\273\0011\022\216\366"
  39      34A04C5F 
  39      80D35048 
  39      BB013112 
  39      8EF6
  40 005f E872EFE4 		.ascii	"\350r\357\344q\261\\\316\316\237o>y!m\341\2000\310\011"
  40      71B15CCE 
  40      CE9F6F3E 
  40      79216DE1 
  40      8030C809 
  41 0073 4F85BE8A 		.ascii	"O\205\276\212\264TL`\217\241\225H\305S\322\307\244("
  41      B4544C60 
  41      8FA19548 
  41      C553D2C7 
  41      A428
  42 0085 A65B03AA 		.ascii	"\246[\003\252Q\346\314\272\252\266\302\016\305F3\307"
  42      51E6CCBA 
  42      AAB6C20E 
  42      C54633C7 
  43 0095 F8FDFEE3 		.ascii	"\370\375\376\343\225)\257\325\251G\323\301vN\377\012"
  43      9529AFD5 
  43      A947D3C1 
  43      764EFF0A 
  44 00a5 97CCD9EA 		.ascii	"\227\314\331\352Qv5\006\256\215\003\326\315\317\361"
ARM GAS  /var/folders/c6/c789hm653lg9vtl73krp73tm0000gn/T//ccdT9yKN.s 			page 3


  44      51763506 
  44      AE8D03D6 
  44      CDCFF1
  45 00b4 B45F035E 		.ascii	"\264_\003^\007\267\305D\223\302\212\211\324\3032\376"
  45      07B7C544 
  45      93C28A89 
  45      D4C332FE 
  46 00c4 0FC38619 		.ascii	"\017\303\206\0317\214\357\212\264W\027\221_\340\313"
  46      378CEF8A 
  46      B4571791 
  46      5FE0CB
  47 00d3 D48426F9 		.ascii	"\324\204&\371\366\252\2345W\201\326\326\207\277\316"
  47      F6AA9C35 
  47      5781D6D6 
  47      87BFCE
  48 00e2 A173F656 		.ascii	"\241s\366V;\233\306\271|(\327j$rV!\360\206\346\027\242"
  48      3B9BC6B9 
  48      7C28D76A 
  48      24725621 
  48      F086E617 
  49 00f7 2AB1ABDD 		.ascii	"*\261\253\335\353'\331\2166\3428\251\346\32109L\373"
  49      EB27D98E 
  49      36E238A9 
  49      E6D13039 
  49      4CFB
  50 0109 C9F0244B 		.ascii	"\311\360$K\216\323~\234\341\033&\236R%"
  50      8ED37E9C 
  50      E11B269E 
  50      5225
  51              		.text
  52              		.section	.gnu.lto_palWriteBus.1525fc6a6f4e4c6,"",%progbits
  53 0000 789C6D51 		.ascii	"x\234mQ\273N\303@\020\334\275\363+\316\013:@\024HtD"
  53      BB4EC340 
  53      10DCBDF3 
  53      2BCE0B3A 
  53      40144874 
  54 0015 B23F802F 		.ascii	"\262?\200/\240\017\022\320\005\027\301R\"\020\371\200"
  54      A00F12D0 
  54      0517C152 
  54      2210F980 
  55 0025 38908232 		.ascii	"8\220\20225\251h\221\200\206\006\201\004\242\240\003"
  55      35A96891 
  55      80860681 
  55      04A2A003 
  56 0035 890E51E5 		.ascii	"\211\016Q\345\013\240\241D\012\263\347\330\021QN\366"
  56      0BA0A144 
  56      0AB3E7D8 
  56      11514EF6 
  57 0045 ECDEDCEE 		.ascii	"\354\336\334\356\334\254\255H\321\354Z\306\273\011z"
  57      DCACAD48 
  57      D1EC5AC6 
  57      BB097A
  58 0054 159135B1 		.ascii	"\025\2215\261\032\274\021\365<\305,\0111u\025ww\331"
  58      1ABC11F5 
  58      3CC52C09 
  58      31751577 
  58      77D9
ARM GAS  /var/folders/c6/c789hm653lg9vtl73krp73tm0000gn/T//ccdT9yKN.s 			page 4


  59 0066 D4DEA8A7 		.ascii	"\324\336\250\247\321x|\375\363r\373\313C\265\250\270"
  59      D1787CFD 
  59      F372FBCB 
  59      43B5A8B8 
  60 0076 CDA42966 		.ascii	"\315\244)f\262\220\261\215\214\035\001W\300\003\250"
  60      B290B18D 
  60      8C1D0157 
  60      C003A8
  61 0085 82800FD0 		.ascii	"\202\200\017\320E\341J\002e\331V$\253\012@\327\246~"
  61      45E14A02 
  61      65D95624 
  61      AB0A40D7 
  61      A67E
  62 0097 920CD6DA 		.ascii	"\222\014\326\332\014\037\221\271\252\016\224\373\267"
  62      0C1F91B9 
  62      AA0E94FB 
  62      B7
  63 00a4 4121EA57 		.ascii	"A!\352W:\371\374\370^j\360\005\256i\262\256\321F\314"
  63      3AF9FCF8 
  63      5E6AF005 
  63      AE69B2AE 
  63      D146CC
  64 00b7 D690CE39 		.ascii	"\326\220\3169f\273\311j\007\3211\036\3679\233\014=\017"
  64      66BBC96A 
  64      07D1311E 
  64      F7399B0C 
  64      3D0F
  65 00c9 3AEB4091 		.ascii	":\353@\221e\250\275\214q\214\206;_\203s\215\323\373"
  65      65A8BD8C 
  65      718C863B 
  65      5F83738D 
  65      D3FB
  66 00db 5CC33532 		.ascii	"\\\30352\316\177\031\317\310x\363e\324T\346,\227)\240"
  66      CE7F19CF 
  66      C878F365 
  66      D454E62C 
  66      9729A0
  67 00ee 498AD442 		.ascii	"I\212\324Bj\362+?\361qh\212\257r\252h\256\365g\234\224"
  67      6AF22B3F 
  67      F171688A 
  67      AF72AA68 
  67      AEF5679C 
  68 0103 304DE664 		.ascii	"0M\346d\332^\206\360L{\305\324\226\015{\227\263U\243"
  68      DA5E86F0 
  68      4C7BC5D4 
  68      960D7B97 
  68      B355A3
  69 0116 5B11F679 		.ascii	"[\021\366y+%kt\231\364a\252\220%~:\021\352\264\230\265"
  69      2B256B74 
  69      99F461AA 
  69      90257E3A 
  69      11EAB498 
  70 012b 2613E949 		.ascii	"&\023\351IL\367\220\"z\247\336\350q=\225\311V\035_\020"
  70      4CF79022 
  70      7AA7DEE8 
  70      713D95C9 
  70      561D5F10 
ARM GAS  /var/folders/c6/c789hm653lg9vtl73krp73tm0000gn/T//ccdT9yKN.s 			page 5


  71 013f FF4DE65F 		.ascii	"\377M\346_\011\2020}\016;\341A\243\025v\216\243\360"
  71      0982307D 
  71      0E3BE141 
  71      A315768E 
  71      A3F0
  72 0151 A8D10A22 		.ascii	"\250\321\012\"\372\003[\"r\234"
  72      FA035B22 
  72      729C
  73              		.text
  74              		.section	.gnu.lto_palSetBusMode.1525fc6a6f4e4c6,"",%progbits
  75 0000 789C6D90 		.ascii	"x\234m\220\277J\0041\020\306\277o\262\377\274\312R\305"
  75      BF4A0431 
  75      10C6BF6F 
  75      B2FFBCCA 
  75      52C5
  76 0012 42B053D8 		.ascii	"B\260S\330}\231\023\324n]p\015\334\241x\245\305\355"
  76      7D9913D4 
  76      6E5D700D 
  76      DCA178A5 
  76      C5ED
  77 0024 A985E5D5 		.ascii	"\251\205\345\325\012\202\017\240\327Z\332Y\251hiu\017"
  77      0A820FA0 
  77      D75ADA59 
  77      A9686975 
  77      0F
  78 0035 20F7005A 		.ascii	" \367\000Z\234\223\254\253 \033\222\231\344\313\374"
  78      9C93ACAB 
  78      201B9299 
  78      E4CBFC
  79 0044 66261108 		.ascii	"f&\021\010\376\217e]\373\004V\325\323\2002~\006F\211"
  79      FE8F655D 
  79      FB0456D5 
  79      D380327E 
  79      064689
  80 0057 906E0362 		.ascii	"\220n\003b(\034\356\320\307N\344a:\237\337\275=N>x-"
  80      281CEED0 
  80      C74EE461 
  80      3A9FDFBD 
  80      3D4E3E78 
  81 006c 1D619F30 		.ascii	"\035a\2370\260D\240\206\241\032\211\324\230\330\035"
  81      B044A086 
  81      A11A89D4 
  81      98D81D
  82 007b 13BD7558 		.ascii	"\023\275uX\210\363\252\032\257\365\251\265\013\237\247"
  82      88F3AA1A 
  82      AFF5A9B5 
  82      0B9FA7
  83 008a ABD625DF 		.ascii	"\253\326%\337RI\275y\302\351\373\375\327R\316\033\315"
  83      5249BD79 
  83      C2E9FBFD 
  83      D752CE1B 
  83      CD
  84 009b 51D26C62 		.ascii	"Q\322lb\3032\270\302%-\303\222\262\255>\362\015\354"
  84      C332B8C2 
  84      252DC392 
  84      B2AD3EF2 
  84      0DEC
ARM GAS  /var/folders/c6/c789hm653lg9vtl73krp73tm0000gn/T//ccdT9yKN.s 			page 6


  85 00ad B1695B99 		.ascii	"\261i[\231\335\006\010<\020\267\003l\001B\017$\355\200"
  85      DD06083C 
  85      10B7036C 
  85      01420F24 
  85      ED80
  86 00bf FC0133D3 		.ascii	"\374\0013\323\020\221BN:\273\375\225b-\\:\352\005Q\255"
  86      1091424E 
  86      3ABBFD95 
  86      622D5C3A 
  86      EA0551AD 
  87 00d3 0127F8AC 		.ascii	"\001'\370\254.\252E\313\205\342\247\260>\307\207&\226"
  87      2EAA45CB 
  87      85E2A7B0 
  87      3EC78726 
  87      96
  88 00e4 1DE015A3 		.ascii	"\035\340\025\243\351l\275\211\256GW#\365\027\\\331\225"
  88      E96CBD89 
  88      AE475723 
  88      F5175CD9 
  88      95
  89 00f5 34CDEA79 		.ascii	"4\315\352y8\310\016\362^68.\262\243\274\227\026\370"
  89      38C80EF2 
  89      5E36382E 
  89      B2A3BC97 
  89      16F8
  90 0107 06C99D4C 		.ascii	"\006\311\235L\324"
  90      D4
  91              		.text
  92              		.section	.gnu.lto_.symbol_nodes.1525fc6a6f4e4c6,"",%progbits
  93 0000 789C6362 		.ascii	"x\234cb`bpe\200\002\246\026\246z\006\206\011\347\030"
  93      60627065 
  93      8002A616 
  93      A67A0686 
  93      09E718
  94 0013 18EAEBE7 		.ascii	"\030\352\353\347u02\2652\3253\"q\333\230\352\231\020"
  94      753032B5 
  94      32D53322 
  94      71DB98EA 
  94      9910
  95 0025 5CC64EA6 		.ascii	"\\\306N\246zf\010\267\241\201\221\231\211\231a\361\303"
  95      7A6608B7 
  95      A1819199 
  95      899961F1 
  95      C3
  96 0036 7F8C0C00 		.ascii	"\177\214\014\000\3061\024e"
  96      C6311465 
  97              		.text
  98              		.section	.gnu.lto_.refs.1525fc6a6f4e4c6,"",%progbits
  99 0000 789C6362 		.ascii	"x\234cb`b`d\200\002\000\000F\000\006"
  99      60626064 
  99      80020000 
  99      460006
 100              		.text
 101              		.section	.gnu.lto_.decls.1525fc6a6f4e4c6,"",%progbits
 102 0000 789CB558 		.ascii	"x\234\265X{l\024E\030\237\331\273\203^{\224\227\220"
 102      7B6C1445 
 102      189FD9BB 
ARM GAS  /var/folders/c6/c789hm653lg9vtl73krp73tm0000gn/T//ccdT9yKN.s 			page 7


 102      835E7B94 
 102      9790
 103 0012 620C5423 		.ascii	"b\014T#\206\020\350A\251\012\377\020\205VJ,\2669 `b"
 103      8610E841 
 103      A90AFF10 
 103      85564A2C 
 103      B6392060 
 104 0027 B22E7757 		.ascii	"\262.wWz\361\332k\356\266\032\023\023\247\264\"\001"
 104      7AF1DA6B 
 104      EEB61A13 
 104      13A7B422 
 104      01
 105 0038 35A50DB4 		.ascii	"5\245\015\264D$\345Q\213\006\201\224\227@%\007\301\266"
 105      4424E551 
 105      8B068194 
 105      97402507 
 105      C1B6
 106 004a 70440888 		.ascii	"pD\010\210H\014\341D\024\021b\312\323\012\226\363\233"
 106      480CE144 
 106      141162CA 
 106      D30A96F3 
 106      9B
 107 005b D9DDDEEE 		.ascii	"\331\335\336\356v\367\036D7\367\315\315\354\316\374"
 107      76F71E44 
 107      37F7CDCD 
 107      ECCEFC
 108 006a BEDFF798 		.ascii	"\276\337\367\230\307.\2078\364\036F(\006\327;O \344"
 108      C72E8738 
 108      F41E4628 
 108      06D73B4F 
 108      20E4
 109 007c E110B222 		.ascii	"\341\020\262\"\204f\243\370E\333\233A\356\202\364\203"
 109      8466A3F8 
 109      45DB9B41 
 109      EE82F483 
 110 008c D8311A74 		.ascii	"\3301\032t\321\347Y \327@\206\202\330\344q[A\366\201"
 110      D1E75920 
 110      D7408682 
 110      D8E4715B 
 110      41F681
 111 009f EC02D909 		.ascii	"\354\002\331\011\322\011\262\037\344\246\374|/\310q"
 111      D209B21F 
 111      E4A6FC7C 
 111      2FC871
 112 00ae 901B20D7 		.ascii	"\220\033 \327A\260\214\0054\320-\220\341:]\224\203\303"
 112      41B08C05 
 112      34D02D90 
 112      E13A5D94 
 112      83C3
 113 00c0 408F5AC7 		.ascii	"@\217Z\307V\031\237\352:!\353\263\311\272\256\313\272"
 113      56199FEA 
 113      3A21EBB3 
 113      C9BAAECB 
 113      BA
 114 00d1 7A404EC9 		.ascii	"z@N\311\372(\246\005\344o\220\007 \343t:\373Ml3\322"
 114      FA28A605 
 114      E46F9007 
ARM GAS  /var/folders/c6/c789hm653lg9vtl73krp73tm0000gn/T//ccdT9yKN.s 			page 8


 114      20E3743A 
 114      FB4D6C33 
 115 00e6 391EC666 		.ascii	"9\036\306fb\011O\255\217S\371\216>\263\301\377\020\220"
 115      62094FAD 
 115      8F53F98E 
 115      3EB3C1FF 
 115      1090
 116 00f8 093A5D13 		.ascii	"\011:]\023\320&\322\032\215\266]\351\305\033H\270\236"
 116      D026D21A 
 116      8DB65DE9 
 116      C51B48B8 
 116      9E
 117 0109 C462EFA3 		.ascii	"\304b\357\243\261h\035\201\253u%!X\264\243U\204\254"
 117      B1681D81 
 117      AB752521 
 117      58B4A355 
 117      84AC
 118 011b A08DE29E 		.ascii	"\240\215\342\236l\204\226b\001g\333Q.\2538\354\214\327"
 118      6C849662 
 118      0167DB51 
 118      2EAB38EC 
 118      8CD7
 119 012d 44B48D90 		.ascii	"D\264\215\220\206\350\303\276m\223\011\311\020\360V"
 119      86E8C3BE 
 119      6D9309C9 
 119      10F056
 120 013c 6C07FDA5 		.ascii	"l\007\375\245\030MF_\000N\003\214w\032\204\020\245\016"
 120      184D465F 
 120      004E038C 
 120      771A8410 
 120      A50E
 121 014e DDFCE1B7 		.ascii	"\335\374\341\267G\361\012\240#\340v\006\276\033c$\340"
 121      47F10AA0 
 121      23E07606 
 121      BE1B6324 
 121      E0
 122 015f CFF1E4B4 		.ascii	"\317\361\344\264\241\356\254\351\234\305X~\311\200\326"
 122      A1EEACE9 
 122      9CC5587E 
 122      C980D6
 123 016e 735A2001 		.ascii	"sZ \001\017\265\2539\262\266\322\201\242\261\307r\205"
 123      0FB5AB39 
 123      B2B6D281 
 123      A2B1C772 
 123      85
 124 017f 26F170F4 		.ascii	"&\361p\364?w7\262\205\216\334\202\307\262\232\205\305"
 124      3F7737B2 
 124      858EDC82 
 124      C7B29A85 
 124      C5
 125 0190 1A126675 		.ascii	"\032\022fu\334\003\243\320Z\032\301\\\225/\336T\306"
 125      DC03A3D0 
 125      5A1AC15C 
 125      952FDE54 
 125      C6
 126 01a1 3BE2BE68 		.ascii	";\342\276h:w*\237\371b\027\036\005(a\235/\222\241P\026"
 126      3A772A9F 
ARM GAS  /var/folders/c6/c789hm653lg9vtl73krp73tm0000gn/T//ccdT9yKN.s 			page 9


 126      F962171E 
 126      0528619D 
 126      2F92A150 
 127 01b6 1D30521A 		.ascii	"\0350R\032\3030I\370^\267\203X\245\373H\203\246\271"
 127      C33049F8 
 127      5EB78358 
 127      A5FB4883 
 127      A6B9
 128 01c8 9E46ADC0 		.ascii	"\236F\255\3006\334\337\275q\034i=\206\223\221\217r\212"
 128      36DCDFBD 
 128      711C693D 
 128      8693918F 
 128      728A
 129 01da DE29AA7C 		.ascii	"\336)\252|\353m\2660\366\373\031\373\256\344\354\265"
 129      EB6DB630 
 129      F6FB19FB 
 129      AEE4ECB5 
 130 01ea 3094DE41 		.ascii	"0\224\336A=\375=\021F\377`r\372\365u\341\003\021\211"
 130      3DFD3D11 
 130      46FF6072 
 130      FAF575E1 
 130      031189
 131 01fd 3ECBBEBA 		.ascii	">\313\276\272\204\331'\340\355xbJ\361\346\3209f\011"
 131      84D927E0 
 131      ED78624A 
 131      F1E6D039 
 131      6609
 132 020f A5608424 		.ascii	"\245`\204$W\245K\356\240\245\365u\304\321 \010\270\223"
 132      57A54BEE 
 132      A0A5F575 
 132      C4D12008 
 132      B893
 133 0221 25F8C5B4 		.ascii	"%\370\305\264\301r5`\207\324`\321T\3002\314\231u\252"
 133      C1723560 
 133      87D460D1 
 133      54C032CC 
 133      9975AA
 134 0234 C17E4F1B 		.ascii	"\301~O\033L\313\354\210\032\354\317T\300F\2303;\243"
 134      4CCBEC88 
 134      1AECCF54 
 134      C0469833 
 134      3BA3
 135 0246 06BB9D36 		.ascii	"\006\273\2356\230\232Ym\370r\344$&\215\216\321\250\221"
 135      989A596D 
 135      F872E424 
 135      268D8ED1 
 135      A891
 136 0258 905AD23A 		.ascii	"\220Z\322:\304,)\020b]H\302.\002>\211Gk\223\364\334"
 136      C42C2910 
 136      625D48C2 
 136      2E023E89 
 136      476B93F4 
 137 026d 9A6C9AA4 		.ascii	"\232l\232\244\364~\3629v^NRe\351\274\317\214\243c\037"
 137      F47EF239 
 137      765E4E52 
 137      65E9BCCF 
 137      8CA3631F 
ARM GAS  /var/folders/c6/c789hm653lg9vtl73krp73tm0000gn/T//ccdT9yKN.s 			page 10


 138 0281 23BB40F9 		.ascii	"#\273@\371\245H\026Y\355\220gW\353K\333\023\020?\255"
 138      A5481659 
 138      ED906757 
 138      EB4BDB13 
 138      103FAD
 139 0294 9F5D1722 		.ascii	"\237]\027\"\\\256t;9\357\213\221\2159\244\365(\226\227"
 139      5CAE743B 
 139      39EF8B91 
 139      8D39A4F5 
 139      289697
 140 02a7 76B2924C 		.ascii	"v\262\222LR\351\032\241\350\242\213\337\300.q`\012["
 140      52E91AA1 
 140      E8A28BDF 
 140      C02E7160 
 140      0A5B
 141 02b9 10CE3243 		.ascii	"\020\3162C\3738\303=\"\005\240;k\332\245=\342<\003\252"
 141      FB38C33D 
 141      2205A03B 
 141      6BDAA53D 
 141      E23C03AA 
 142 02cd B5E8F708 		.ascii	"\265\350\367\010\213n\217\260hg\265\305\036\257\304"
 142      8B6E8FB0 
 142      6867B5C5 
 142      1EAFC4
 143 02dc 6216945E 		.ascii	"b\026\224^g\016}\304\024\236\216\347\237\206d\262\020"
 143      670E7DC4 
 143      149E8EE7 
 143      9F8664B2 
 143      10
 144 02ed AD883ED8 		.ascii	"\255\210>\330\333\314\\\247x\242!m\274\021\272\230\300"
 144      DBCC5CA7 
 144      78A2216D 
 144      BC11BA98 
 144      C0
 145 02fe 466979CC 		.ascii	"Fiy\314\264QY.\031-\340S\370i(\277\203R\245\240\305"
 145      B451592E 
 145      192DE053 
 145      F86928BF 
 145      8352A5A0 
 146 0313 92C2A4CB 		.ascii	"\222\302\244\31311\032fp\257z\006\177\2266X\256\006"
 146      31311A66 
 146      70AF7A06 
 146      7F963658 
 146      AE06
 147 0325 ECB61A6C 		.ascii	"\354\266\032lK*`\271\346\314\356\252\301\332\323\006"
 147      4B2A60B9 
 147      E6CCEEAA 
 147      C1DAD306 
 148 0335 D332BBAF 		.ascii	"\3232\273\257\006\333\221\012\330\244DA\321\304'\276"
 148      06DB910A 
 148      D8A44441 
 148      D1C427BE 
 149 0345 1B0AF810 		.ascii	"\033\012\370\020\333\256\016\263H\035ae\230\225\307"
 149      DBAE0EB3 
 149      481D6165 
 149      9895C7
 150 0354 58799C95 		.ascii	"Xy\234\225]\254\354a\345%V^f\345\317\254\374E\035_\363"
ARM GAS  /var/folders/c6/c789hm653lg9vtl73krp73tm0000gn/T//ccdT9yKN.s 			page 11


 150      5DACEC61 
 150      E525565E 
 150      66E5CFAC 
 150      FC451D5F 
 151 0369 1359F8AF 		.ascii	"\023Y\370\257\306\247\350j\266\017N\001p\260\323\315"
 151      C6A7E86A 
 151      B60F4E01 
 151      70B0D3CD 
 152 0379 35CDC940 		.ascii	"5\315\311@\332\352\315V\233k\000`\274\250\014z\306\241"
 152      DAEACD56 
 152      9B6B0060 
 152      BCA80C7A 
 152      C6A1
 153 038b C34C4FC7 		.ascii	"\303LO\307\343\355\2610\305\232\232\272\032qS\035\351"
 153      E3EDB130 
 153      C59A9ABA 
 153      1A71531D 
 153      E9
 154 039c 99A69C77 		.ascii	"\231\246\234w\217\245\215\230\253F\014\357>\011\201"
 154      8FA58D98 
 154      AB460CEF 
 154      3E0981
 155 03ab 4DE7487C 		.ascii	"M\347H|\365\026\256cG\342\233L\177\367\240U\312\246"
 155      F516AE63 
 155      47E29B4C 
 155      7FF7A055 
 155      CAA6
 156 03bd 5BA56CDA 		.ascii	"[\245l\332\205\307f\217W\006\316\036\337\247b\205\321"
 156      85C7668F 
 156      5706CE1E 
 156      DFA76285 
 156      D1
 157 03ce 0E6F9C51 		.ascii	"\016o\234Q\035\252\214\332\3032j/\313\215\353\254\274"
 157      1DAA8CDA 
 157      C3326A2F 
 157      CB8DEBAC 
 157      BC
 158 03df 912C4328 		.ascii	"\221,C(\304N\234\025\307[\034_L9\364\223\316\342g\321"
 158      C44E9C15 
 158      C75B1C5F 
 158      4C39F493 
 158      CEE267D1 
 159 03f3 56421AE1 		.ascii	"VB\032\341]&l\205w\031\2534\224C\277\261n\233\361\004"
 159      5D266C85 
 159      7719AB34 
 159      9443BFB1 
 159      6E9BF104 
 160 0407 938399AC 		.ascii	"\223\203\231\254\3409\324F]\377\315\325\262b)\244(\301"
 160      E039D446 
 160      5DFFCDD5 
 160      B26229A4 
 160      28C1
 161 0419 28994E2F 		.ascii	"(\231N/\346\324\366J/S\341{+#\260\375\223\177\350j\256"
 161      E6D4F64A 
 161      2F53E17B 
 161      2B23B0FD 
 161      937FE86A 
ARM GAS  /var/folders/c6/c789hm653lg9vtl73krp73tm0000gn/T//ccdT9yKN.s 			page 12


 162 042e 799712F0 		.ascii	"y\227\022\360\3541\246v\336\323\236\347%^\003\015\211"
 162      EC31A676 
 162      DED39EE7 
 162      255E030D 
 162      89
 163 043f 90DE037F 		.ascii	"\220\336\003\177\030z\200\334\361\024K\303\005|\033"
 163      187A80DC 
 163      F1144BC3 
 163      057C1B
 164 044e 180AF86E 		.ascii	"\030\012\370nb\343\345a\007\274\305J2\337g\300\346\303"
 164      62E3E561 
 164      07BCC54A 
 164      32DF67C0 
 164      E6C3
 165 0460 643ACC67 		.ascii	"d:\314g\204|L>\030\201\231qH\036\245I\202>C/\235\355"
 165      847C4C3E 
 165      18819971 
 165      481EA549 
 165      823E432F 
 166 0476 7634D446 		.ascii	"v4\324Fc\261\011\251\273\350Q\002\027\245\361\236\272"
 166      63B109A9 
 166      BBE85102 
 166      17A5F19E 
 166      BA
 167 0487 A34D7A4F 		.ascii	"\243MzO\255\345\250\251\017\007\315\233v\3748\257\200"
 167      ADE5A8A9 
 167      0F07CD9B 
 167      76FC38AF 
 167      80
 168 0498 BAD0D45B 		.ascii	"\272\320\324[\215\223\363\301\217\226xr*\361\351O)>"
 168      8D93F3C1 
 168      8F967872 
 168      2AF1E94F 
 168      293E
 169 04aa 7B687C24 		.ascii	"{h|$\322\215\014\335|\030\355e\026\237~}|\352\271A\361"
 169      D28D0CDD 
 169      7C18ED65 
 169      169F7E7D 
 169      7CEAB941 
 170 04bf 89829B5A 		.ascii	"\211\202\233Z\217\344l \307\014>\011$\214\321jN\027"
 170      8FE46C20 
 170      C70C3E09 
 170      248CD16A 
 170      4E17
 171 04d1 A37D0669 		.ascii	"\243}\006i<\320\226y\352|\327\254\363\235B\364\023-"
 171      3CD09679 
 171      EA7CD7AC 
 171      F39D42F4 
 171      132D
 172 04e3 D167D066 		.ascii	"\321g\320fr\346L\364\327+-xU\2244\220G\261\030\036\211"
 172      72E64CF4 
 172      D72B2D78 
 172      55943490 
 172      47B1181E 
 173 04f8 1AD85B5F 		.ascii	"\032\330[_K\266\234\020\321\266pNK<!2\024\276XI\010"
 173      4BB69C10 
 173      D1B6704E 
ARM GAS  /var/folders/c6/c789hm653lg9vtl73krp73tm0000gn/T//ccdT9yKN.s 			page 13


 173      4B3C2132 
 173      14BE5849 
 174 050d FA7D821B 		.ascii	"\372}\202\033\350Lrr\214\373\012\270\221\243\353W\223"
 174      E84C7272 
 174      8CFB0AB8 
 174      91A3EB57 
 174      93
 175 051e C4983D92 		.ascii	"\304\230=\222\352J-\206)\367\257\254F\237:\030@\342"
 175      EA4A2D86 
 175      29F7AFAC 
 175      469F3A18 
 175      40E2
 176 0530 A1B2D2A5 		.ascii	"\241\262\322\245\212Ri\325\213\333#\3654\356%\340u\334"
 176      8A5269D5 
 176      8BDB23F5 
 176      34EE25E0 
 176      75DC
 177 0542 48566386 		.ascii	"HVc\206\220\201\375\322a7\015\324z\025\033\207=^\311"
 177      9081FDD2 
 177      61370DD4 
 177      7A151B87 
 177      3D5EC9
 178 0555 D470567A 		.ascii	"\324pVz\201e\035V\335:\252#\001\233\252l\273\200\351"
 178      81651D56 
 178      DD3AAA23 
 178      019BAA6C 
 178      BB80E9
 179 0568 2729293C 		.ascii	"'))<\341\276.\222\261\233\254\242i\2446fm\334\030\335"
 179      E1BE2E92 
 179      B19BACA2 
 179      69A43666 
 179      6DDC18DD 
 180 057c 47051393 		.ascii	"G\005\023\223\007}z\3704m\2237\232\230<\260\301hzA\265"
 180      077D7AF8 
 180      346D9337 
 180      9A983CB0 
 180      C1687A41 
 181 0591 99D3AD9E 		.ascii	"\231\323\255\236:\022\034:\2411YwZ\241s\301\214\313"
 181      3A121C3A 
 181      A1315977 
 181      5AA173C1 
 181      8CCB
 182 05a3 266E40AB 		.ascii	"&n@\253\354\250\037\272\2239\252Z\001\311N\344(]/\010"
 182      ECA81FBA 
 182      9339AA5A 
 182      01C94EE4 
 182      285D2F08 
 183 05b7 59DA8EDA 		.ascii	"Y\332\216\332b\342\250a\032Gm\321;J\265\036\351Hp\350"
 183      62E2A861 
 183      1A476DD1 
 183      3B4AB51E 
 183      E94870E8 
 184 05cb 82C651E8 		.ascii	"\202\306Q\350\311\274<\247\364\013\204\234\025\202\337"
 184      C9BC3CA7 
 184      F40B849C 
 184      1582DF
 185 05da 190ABA9D 		.ascii	"\031\012\272\235\325\202?\317\215\246\353\037U\007\202"
ARM GAS  /var/folders/c6/c789hm653lg9vtl73krp73tm0000gn/T//ccdT9yKN.s 			page 14


 185      D5823FCF 
 185      8DA6EB1F 
 185      550782
 186 05e9 62C8B970 		.ascii	"b\310\271p\321\202\031\371\316\222\222B\347\274\262"
 186      D18219F9 
 186      CE929242 
 186      E7BCB2
 187 05f8 F9A56FE7 		.ascii	"\371\245o\347\323\336\274\337\357\311\253@\016_\200"
 187      D3DEBCDF 
 187      EFC9AB40 
 187      0E5F80
 188 0607 F6A91442 		.ascii	"\366\251\024Bo\361\342\220y\257-\316\235\213J\2345\241"
 188      6FF1E290 
 188      79AF2DCE 
 188      9D8B4A9C 
 188      35A1
 189 0619 A0D31F70 		.ascii	"\240\323\037p\003\300\\\257\337/\004\235\313\335\356"
 189      03C05CAF 
 189      DF2F049D 
 189      CBDDEE
 190 0628 A942B072 		.ascii	"\251B\260rjU\240\312;\325+,\3639\363\247M/\2306s\332"
 190      6A55A0CA 
 190      3BD52B2C 
 190      F339F3A7 
 190      4D2F9836 
 191 063e F34EED6D 		.ascii	"\363N\355m_\225\333_\343\361:C\242\307W%\202\202\214"
 191      5F95DB5F 
 191      E3F13A43 
 191      A2C75725 
 191      82828C
 192 0651 1AF89F91 		.ascii	"\032\370\237\221\317\213o\374\007\250\225\202\273\302"
 192      CF8B6FFC 
 192      07A89582 
 192      BBC2
 193 065f 57E575F2 		.ascii	"W\345u\362\036o\271P\343\027y\361\335jo\010\264d\362"
 193      1E6FB950 
 193      E31779F1 
 193      DD6A6F08 
 193      B464F2
 194 0672 BCA267BC 		.ascii	"\274\242g\274\336\007\312`\352\242\012d\233_:\247&\344"
 194      DE07CA60 
 194      EAA20A64 
 194      9B5F3AA7 
 194      26E4
 195 0684 088995D0 		.ascii	"\010\211\225\320yy\265/\300\213\266\005\245\205E\256"
 195      7979B52F 
 195      C08BB605 
 195      A58545AE 
 196 0694 21A58B5E 		.ascii	"!\245\213^/+r\015-]XVTT\350\262\225-.+tY\346\203\224"
 196      2F2B720D 
 196      2D5D5856 
 196      5454E8B2 
 196      952D2E2B 
 197 06ad 16BAF012 		.ascii	"\026\272\360\022f\307\364\027xQVE\253\226\220W\264\271"
 197      66C7F417 
 197      78515645 
 197      AB969057 
ARM GAS  /var/folders/c6/c789hm653lg9vtl73krp73tm0000gn/T//ccdT9yKN.s 			page 15


 197      B4B9
 198 06bf FD5E2188 		.ascii	"\375^!\210\213\255s\026\272\\\326\222\271\257\272\254"
 198      8BAD7316 
 198      BA5CD692 
 198      B9AFBAAC 
 199 06cf 2FBFE22A 		.ascii	"/\277\342*\241E\261e\216\313\225)9\330\347\001\367J"
 199      A145B165 
 199      8ECB9529 
 199      39D8E701 
 199      F74A
 200 06e1 152B75B6 		.ascii	"\025+u\266\203b\360\345BH\234\011\017\002\345\345\000"
 200      8362F0E5 
 200      42489C09 
 200      0F02E5E5 
 200      00
 201 06f2 95090C5D 		.ascii	"\225\011\014]^\301\003\374,\313jBY\320\\\022\364\211"
 201      5EC103FC 
 201      2CCB6A42 
 201      59D05C12 
 201      F489
 202 0704 5E685B97 		.ascii	"^h[\227\371\304P\206/P\031\360xyq\030<Y\350\025\341"
 202      F9C45086 
 202      2F5019F0 
 202      78797118 
 202      3C59E815 
 203 0719 FE02685B 		.ascii	"\376\002h[\351\3151\274\034S\036\200\226\007\0035\325"
 203      E9CD31BC 
 203      1C531E80 
 203      96070335 
 203      D5
 204 072a F4AED55D 		.ascii	"\364\256\325]!\0043x\276\274\246\312\315\363\303\224"
 204      21043378 
 204      BEBCA6CA 
 204      CDF3C394 
 205 073a 4ADE8BF9 		.ascii	"J\336\213\3713\0124\255Y\352VA\301\277!:\216\300"
 205      330A34AD 
 205      59EA5641 
 205      C1BF213A 
 205      8EC0
 206              		.text
 207              		.section	.gnu.lto_.symtab.1525fc6a6f4e4c6,"",%progbits
 208 0000 70616C52 		.ascii	"palReadBus\000\000\000\000\000\000\000\000\000\000\000"
 208      65616442 
 208      75730000 
 208      00000000 
 208      00000000 
 209 0015 00A10000 		.ascii	"\000\241\000\000\000palWriteBus\000\000\000\000\000"
 209      0070616C 
 209      57726974 
 209      65427573 
 209      00000000 
 210 002a 00000000 		.ascii	"\000\000\000\000\000\000\000\364\000\000\000palSetB"
 210      000000F4 
 210      00000070 
 210      616C5365 
 210      7442
 211 003c 75734D6F 		.ascii	"usMode\000\000\000\000\000\000\000\000\000\000\000\000"
ARM GAS  /var/folders/c6/c789hm653lg9vtl73krp73tm0000gn/T//ccdT9yKN.s 			page 16


 211      64650000 
 211      00000000 
 211      00000000 
 211      0000
 212 004e FD000000 		.ascii	"\375\000\000\000_pal_lld_setgroupmode\000\000\002\000"
 212      5F70616C 
 212      5F6C6C64 
 212      5F736574 
 212      67726F75 
 213 006b 00000000 		.ascii	"\000\000\000\000\000\000\000\000\011\001\000\000"
 213      00000000 
 213      09010000 
 214              		.text
 215              		.section	.gnu.lto_.opts,"",%progbits
 216 0000 272D6D63 		.ascii	"'-mcpu=cortex-m4' '-mno-thumb-interwork' '-mthumb' "
 216      70753D63 
 216      6F727465 
 216      782D6D34 
 216      2720272D 
 217 0033 272D6767 		.ascii	"'-ggdb' '-O2' '-fomit-frame-pointer' '-falign-funct"
 217      64622720 
 217      272D4F32 
 217      2720272D 
 217      666F6D69 
 218 0066 696F6E73 		.ascii	"ions=16' '-ffunction-sections' '-fdata-sections' '-"
 218      3D313627 
 218      20272D66 
 218      66756E63 
 218      74696F6E 
 219 0099 666E6F2D 		.ascii	"fno-common' '-flto'\000"
 219      636F6D6D 
 219      6F6E2720 
 219      272D666C 
 219      746F2700 
 220              		.text
 221              		.cfi_sections	.debug_frame
 222              		.section	.text.palReadBus,"ax",%progbits
 223              		.align	2
 224              		.p2align 4,,15
 225              		.global	palReadBus
 226              		.thumb
 227              		.thumb_func
 228              		.type	palReadBus, %function
 229              	palReadBus:
 230              	.LFB260:
 231              		.file 1 "../../../os/hal/src/pal.c"
 232              		.loc 1 65 0
 233              		.cfi_startproc
 234              		@ args = 0, pretend = 0, frame = 0
 235              		@ frame_needed = 0, uses_anonymous_args = 0
 236              		@ link register save eliminated.
 237              	.LVL0:
 238              		.loc 1 69 0
 239 0000 0368     		ldr	r3, [r0]
 240 0002 8268     		ldr	r2, [r0, #8]
 241 0004 1969     		ldr	r1, [r3, #16]
 242 0006 4368     		ldr	r3, [r0, #4]
ARM GAS  /var/folders/c6/c789hm653lg9vtl73krp73tm0000gn/T//ccdT9yKN.s 			page 17


 243 0008 21FA02F0 		lsr	r0, r1, r2
 244              	.LVL1:
 245              		.loc 1 70 0
 246 000c 1840     		ands	r0, r0, r3
 247 000e 7047     		bx	lr
 248              		.cfi_endproc
 249              	.LFE260:
 250              		.size	palReadBus, .-palReadBus
 251              		.section	.text.palWriteBus,"ax",%progbits
 252              		.align	2
 253              		.p2align 4,,15
 254              		.global	palWriteBus
 255              		.thumb
 256              		.thumb_func
 257              		.type	palWriteBus, %function
 258              	palWriteBus:
 259              	.LFB261:
 260              		.loc 1 90 0
 261              		.cfi_startproc
 262              		@ args = 0, pretend = 0, frame = 0
 263              		@ frame_needed = 0, uses_anonymous_args = 0
 264              		@ link register save eliminated.
 265              	.LVL2:
 266              		.loc 1 94 0
 267 0000 0DC8     		ldmia	r0, {r0, r2, r3}
 268              	.LVL3:
 269              		.loc 1 90 0
 270 0002 30B4     		push	{r4, r5}
 271              		.cfi_def_cfa_offset 8
 272              		.cfi_offset 4, -8
 273              		.cfi_offset 5, -4
 274              		.loc 1 94 0
 275 0004 22EA0105 		bic	r5, r2, r1
 276 0008 03F11004 		add	r4, r3, #16
 277 000c 0A40     		ands	r2, r2, r1
 278 000e 02FA03F3 		lsl	r3, r2, r3
 279 0012 05FA04F2 		lsl	r2, r5, r4
 280 0016 1343     		orrs	r3, r3, r2
 281 0018 8361     		str	r3, [r0, #24]
 282              		.loc 1 95 0
 283 001a 30BC     		pop	{r4, r5}
 284 001c 7047     		bx	lr
 285              		.cfi_endproc
 286              	.LFE261:
 287              		.size	palWriteBus, .-palWriteBus
 288 001e 00BF     		.section	.text.palSetBusMode,"ax",%progbits
 289              		.align	2
 290              		.p2align 4,,15
 291              		.global	palSetBusMode
 292              		.thumb
 293              		.thumb_func
 294              		.type	palSetBusMode, %function
 295              	palSetBusMode:
 296              	.LFB262:
 297              		.loc 1 113 0
 298              		.cfi_startproc
 299              		@ args = 0, pretend = 0, frame = 0
ARM GAS  /var/folders/c6/c789hm653lg9vtl73krp73tm0000gn/T//ccdT9yKN.s 			page 18


 300              		@ frame_needed = 0, uses_anonymous_args = 0
 301              		@ link register save eliminated.
 302              	.LVL4:
 303 0000 10B4     		push	{r4}
 304              		.cfi_def_cfa_offset 4
 305              		.cfi_offset 4, -4
 306              		.loc 1 113 0
 307 0002 0A46     		mov	r2, r1
 308              		.loc 1 117 0
 309 0004 4468     		ldr	r4, [r0, #4]
 310 0006 8168     		ldr	r1, [r0, #8]
 311              	.LVL5:
 312 0008 0068     		ldr	r0, [r0]
 313              	.LVL6:
 314 000a 04FA01F1 		lsl	r1, r4, r1
 315              		.loc 1 118 0
 316 000e 5DF8044B 		ldr	r4, [sp], #4
 317              		.loc 1 117 0
 318 0012 FFF7FEBF 		b	_pal_lld_setgroupmode
 319              	.LVL7:
 320              		.cfi_endproc
 321              	.LFE262:
 322              		.size	palSetBusMode, .-palSetBusMode
 323 0016 00BFAFF3 		.text
 323      0080AFF3 
 323      0080
 324              	.Letext0:
 325              		.file 2 "/usr/local/Cellar/gcc-arm-none-eabi/20140805/arm-none-eabi/include/machine/_default_types
 326              		.file 3 "/usr/local/Cellar/gcc-arm-none-eabi/20140805/arm-none-eabi/include/stdint.h"
 327              		.file 4 "../../../os/rt/ports/ARMCMx/compilers/GCC/chtypes.h"
 328              		.file 5 "../../../os/rt/include/chsystypes.h"
 329              		.file 6 "../../../os/rt/include/chschd.h"
 330              		.file 7 "../../../os/rt/ports/ARMCMx/chcore.h"
 331              		.file 8 "../../../os/rt/ports/ARMCMx/chcore_v7m.h"
 332              		.file 9 "../../../os/rt/include/chtm.h"
 333              		.file 10 "../../../os/rt/include/chsem.h"
 334              		.file 11 "../../../os/rt/include/chmtx.h"
 335              		.file 12 "../../../os/hal/ports/STM32/LLD/GPIOv2/pal_lld.h"
 336              		.file 13 "../../../os/hal/include/pal.h"
 337              		.file 14 "../../../os/ext/CMSIS/include/core_cm4.h"
 338              		.section	.debug_info,"",%progbits
 339              	.Ldebug_info0:
 340 0000 AF080000 		.4byte	0x8af
 341 0004 0400     		.2byte	0x4
 342 0006 00000000 		.4byte	.Ldebug_abbrev0
 343 000a 04       		.byte	0x4
 344 000b 01       		.uleb128 0x1
 345 000c 00000000 		.4byte	.LASF129
 346 0010 01       		.byte	0x1
 347 0011 22020000 		.4byte	.LASF130
 348 0015 E3040000 		.4byte	.LASF131
 349 0019 00000000 		.4byte	.Ldebug_ranges0+0
 350 001d 00000000 		.4byte	0
 351 0021 00000000 		.4byte	.Ldebug_line0
 352 0025 02       		.uleb128 0x2
 353 0026 04       		.byte	0x4
 354 0027 05       		.byte	0x5
ARM GAS  /var/folders/c6/c789hm653lg9vtl73krp73tm0000gn/T//ccdT9yKN.s 			page 19


 355 0028 696E7400 		.ascii	"int\000"
 356 002c 03       		.uleb128 0x3
 357 002d 04       		.byte	0x4
 358 002e 07       		.byte	0x7
 359 002f 83020000 		.4byte	.LASF0
 360 0033 03       		.uleb128 0x3
 361 0034 01       		.byte	0x1
 362 0035 06       		.byte	0x6
 363 0036 BC010000 		.4byte	.LASF1
 364 003a 04       		.uleb128 0x4
 365 003b 03010000 		.4byte	.LASF4
 366 003f 02       		.byte	0x2
 367 0040 1C       		.byte	0x1c
 368 0041 45000000 		.4byte	0x45
 369 0045 03       		.uleb128 0x3
 370 0046 01       		.byte	0x1
 371 0047 08       		.byte	0x8
 372 0048 0A040000 		.4byte	.LASF2
 373 004c 03       		.uleb128 0x3
 374 004d 02       		.byte	0x2
 375 004e 05       		.byte	0x5
 376 004f 22040000 		.4byte	.LASF3
 377 0053 04       		.uleb128 0x4
 378 0054 43050000 		.4byte	.LASF5
 379 0058 02       		.byte	0x2
 380 0059 26       		.byte	0x26
 381 005a 5E000000 		.4byte	0x5e
 382 005e 03       		.uleb128 0x3
 383 005f 02       		.byte	0x2
 384 0060 07       		.byte	0x7
 385 0061 B5020000 		.4byte	.LASF6
 386 0065 04       		.uleb128 0x4
 387 0066 06030000 		.4byte	.LASF7
 388 006a 02       		.byte	0x2
 389 006b 37       		.byte	0x37
 390 006c 70000000 		.4byte	0x70
 391 0070 03       		.uleb128 0x3
 392 0071 04       		.byte	0x4
 393 0072 05       		.byte	0x5
 394 0073 E9010000 		.4byte	.LASF8
 395 0077 04       		.uleb128 0x4
 396 0078 7C050000 		.4byte	.LASF9
 397 007c 02       		.byte	0x2
 398 007d 38       		.byte	0x38
 399 007e 82000000 		.4byte	0x82
 400 0082 03       		.uleb128 0x3
 401 0083 04       		.byte	0x4
 402 0084 07       		.byte	0x7
 403 0085 D1040000 		.4byte	.LASF10
 404 0089 03       		.uleb128 0x3
 405 008a 08       		.byte	0x8
 406 008b 05       		.byte	0x5
 407 008c AE010000 		.4byte	.LASF11
 408 0090 04       		.uleb128 0x4
 409 0091 1B030000 		.4byte	.LASF12
 410 0095 02       		.byte	0x2
 411 0096 4E       		.byte	0x4e
ARM GAS  /var/folders/c6/c789hm653lg9vtl73krp73tm0000gn/T//ccdT9yKN.s 			page 20


 412 0097 9B000000 		.4byte	0x9b
 413 009b 03       		.uleb128 0x3
 414 009c 08       		.byte	0x8
 415 009d 07       		.byte	0x7
 416 009e 42010000 		.4byte	.LASF13
 417 00a2 04       		.uleb128 0x4
 418 00a3 02060000 		.4byte	.LASF14
 419 00a7 03       		.byte	0x3
 420 00a8 2A       		.byte	0x2a
 421 00a9 3A000000 		.4byte	0x3a
 422 00ad 04       		.uleb128 0x4
 423 00ae 09020000 		.4byte	.LASF15
 424 00b2 03       		.byte	0x3
 425 00b3 36       		.byte	0x36
 426 00b4 53000000 		.4byte	0x53
 427 00b8 04       		.uleb128 0x4
 428 00b9 02040000 		.4byte	.LASF16
 429 00bd 03       		.byte	0x3
 430 00be 41       		.byte	0x41
 431 00bf 65000000 		.4byte	0x65
 432 00c3 04       		.uleb128 0x4
 433 00c4 A0040000 		.4byte	.LASF17
 434 00c8 03       		.byte	0x3
 435 00c9 42       		.byte	0x42
 436 00ca 77000000 		.4byte	0x77
 437 00ce 04       		.uleb128 0x4
 438 00cf FA000000 		.4byte	.LASF18
 439 00d3 03       		.byte	0x3
 440 00d4 4E       		.byte	0x4e
 441 00d5 90000000 		.4byte	0x90
 442 00d9 04       		.uleb128 0x4
 443 00da 49040000 		.4byte	.LASF19
 444 00de 03       		.byte	0x3
 445 00df 60       		.byte	0x60
 446 00e0 2C000000 		.4byte	0x2c
 447 00e4 05       		.uleb128 0x5
 448 00e5 B8000000 		.4byte	0xb8
 449 00e9 05       		.uleb128 0x5
 450 00ea C3000000 		.4byte	0xc3
 451 00ee 04       		.uleb128 0x4
 452 00ef C1050000 		.4byte	.LASF20
 453 00f3 04       		.byte	0x4
 454 00f4 45       		.byte	0x45
 455 00f5 C3000000 		.4byte	0xc3
 456 00f9 04       		.uleb128 0x4
 457 00fa E4020000 		.4byte	.LASF21
 458 00fe 04       		.byte	0x4
 459 00ff 48       		.byte	0x48
 460 0100 A2000000 		.4byte	0xa2
 461 0104 04       		.uleb128 0x4
 462 0105 00020000 		.4byte	.LASF22
 463 0109 04       		.byte	0x4
 464 010a 49       		.byte	0x49
 465 010b A2000000 		.4byte	0xa2
 466 010f 04       		.uleb128 0x4
 467 0110 C5030000 		.4byte	.LASF23
 468 0114 04       		.byte	0x4
ARM GAS  /var/folders/c6/c789hm653lg9vtl73krp73tm0000gn/T//ccdT9yKN.s 			page 21


 469 0115 4A       		.byte	0x4a
 470 0116 A2000000 		.4byte	0xa2
 471 011a 04       		.uleb128 0x4
 472 011b E4030000 		.4byte	.LASF24
 473 011f 04       		.byte	0x4
 474 0120 4C       		.byte	0x4c
 475 0121 C3000000 		.4byte	0xc3
 476 0125 04       		.uleb128 0x4
 477 0126 D2020000 		.4byte	.LASF25
 478 012a 04       		.byte	0x4
 479 012b 4D       		.byte	0x4d
 480 012c B8000000 		.4byte	0xb8
 481 0130 04       		.uleb128 0x4
 482 0131 FA020000 		.4byte	.LASF26
 483 0135 04       		.byte	0x4
 484 0136 4F       		.byte	0x4f
 485 0137 C3000000 		.4byte	0xc3
 486 013b 04       		.uleb128 0x4
 487 013c 7D020000 		.4byte	.LASF27
 488 0140 04       		.byte	0x4
 489 0141 51       		.byte	0x51
 490 0142 B8000000 		.4byte	0xb8
 491 0146 04       		.uleb128 0x4
 492 0147 5E050000 		.4byte	.LASF28
 493 014b 05       		.byte	0x5
 494 014c 33       		.byte	0x33
 495 014d C3000000 		.4byte	0xc3
 496 0151 04       		.uleb128 0x4
 497 0152 4E050000 		.4byte	.LASF29
 498 0156 05       		.byte	0x5
 499 0157 3F       		.byte	0x3f
 500 0158 5C010000 		.4byte	0x15c
 501 015c 06       		.uleb128 0x6
 502 015d C8020000 		.4byte	.LASF49
 503 0161 44       		.byte	0x44
 504 0162 06       		.byte	0x6
 505 0163 C2       		.byte	0xc2
 506 0164 49020000 		.4byte	0x249
 507 0168 07       		.uleb128 0x7
 508 0169 42040000 		.4byte	.LASF30
 509 016d 06       		.byte	0x6
 510 016e C3       		.byte	0xc3
 511 016f 54020000 		.4byte	0x254
 512 0173 00       		.byte	0
 513 0174 07       		.uleb128 0x7
 514 0175 DD030000 		.4byte	.LASF31
 515 0179 06       		.byte	0x6
 516 017a C5       		.byte	0xc5
 517 017b 54020000 		.4byte	0x254
 518 017f 04       		.byte	0x4
 519 0180 07       		.uleb128 0x7
 520 0181 A7010000 		.4byte	.LASF32
 521 0185 06       		.byte	0x6
 522 0186 C7       		.byte	0xc7
 523 0187 1A010000 		.4byte	0x11a
 524 018b 08       		.byte	0x8
 525 018c 07       		.uleb128 0x7
ARM GAS  /var/folders/c6/c789hm653lg9vtl73krp73tm0000gn/T//ccdT9yKN.s 			page 22


 526 018d 5A060000 		.4byte	.LASF33
 527 0191 06       		.byte	0x6
 528 0192 C8       		.byte	0xc8
 529 0193 84040000 		.4byte	0x484
 530 0197 0C       		.byte	0xc
 531 0198 07       		.uleb128 0x7
 532 0199 12020000 		.4byte	.LASF34
 533 019d 06       		.byte	0x6
 534 019e CA       		.byte	0xca
 535 019f 54020000 		.4byte	0x254
 536 01a3 10       		.byte	0x10
 537 01a4 07       		.uleb128 0x7
 538 01a5 75030000 		.4byte	.LASF35
 539 01a9 06       		.byte	0x6
 540 01aa CB       		.byte	0xcb
 541 01ab 54020000 		.4byte	0x254
 542 01af 14       		.byte	0x14
 543 01b0 07       		.uleb128 0x7
 544 01b1 2D060000 		.4byte	.LASF36
 545 01b5 06       		.byte	0x6
 546 01b6 D2       		.byte	0xd2
 547 01b7 03060000 		.4byte	0x603
 548 01bb 18       		.byte	0x18
 549 01bc 07       		.uleb128 0x7
 550 01bd 2C040000 		.4byte	.LASF37
 551 01c1 06       		.byte	0x6
 552 01c2 DD       		.byte	0xdd
 553 01c3 04010000 		.4byte	0x104
 554 01c7 1C       		.byte	0x1c
 555 01c8 07       		.uleb128 0x7
 556 01c9 56040000 		.4byte	.LASF38
 557 01cd 06       		.byte	0x6
 558 01ce E1       		.byte	0xe1
 559 01cf F9000000 		.4byte	0xf9
 560 01d3 1D       		.byte	0x1d
 561 01d4 07       		.uleb128 0x7
 562 01d5 F5050000 		.4byte	.LASF39
 563 01d9 06       		.byte	0x6
 564 01da E6       		.byte	0xe6
 565 01db 0F010000 		.4byte	0x10f
 566 01df 1E       		.byte	0x1e
 567 01e0 08       		.uleb128 0x8
 568 01e1 705F7500 		.ascii	"p_u\000"
 569 01e5 06       		.byte	0x6
 570 01e6 3101     		.2byte	0x131
 571 01e8 3E050000 		.4byte	0x53e
 572 01ec 20       		.byte	0x20
 573 01ed 09       		.uleb128 0x9
 574 01ee 26030000 		.4byte	.LASF40
 575 01f2 06       		.byte	0x6
 576 01f3 3601     		.2byte	0x136
 577 01f5 5A020000 		.4byte	0x25a
 578 01f9 24       		.byte	0x24
 579 01fa 09       		.uleb128 0x9
 580 01fb 9F020000 		.4byte	.LASF41
 581 01ff 06       		.byte	0x6
 582 0200 3C01     		.2byte	0x13c
ARM GAS  /var/folders/c6/c789hm653lg9vtl73krp73tm0000gn/T//ccdT9yKN.s 			page 23


 583 0202 7E020000 		.4byte	0x27e
 584 0206 28       		.byte	0x28
 585 0207 09       		.uleb128 0x9
 586 0208 43060000 		.4byte	.LASF42
 587 020c 06       		.byte	0x6
 588 020d 4001     		.2byte	0x140
 589 020f 25010000 		.4byte	0x125
 590 0213 30       		.byte	0x30
 591 0214 09       		.uleb128 0x9
 592 0215 95040000 		.4byte	.LASF43
 593 0219 06       		.byte	0x6
 594 021a 4601     		.2byte	0x146
 595 021c 30010000 		.4byte	0x130
 596 0220 34       		.byte	0x34
 597 0221 09       		.uleb128 0x9
 598 0222 18040000 		.4byte	.LASF44
 599 0226 06       		.byte	0x6
 600 0227 4D01     		.2byte	0x14d
 601 0229 FD050000 		.4byte	0x5fd
 602 022d 38       		.byte	0x38
 603 022e 09       		.uleb128 0x9
 604 022f 68050000 		.4byte	.LASF45
 605 0233 06       		.byte	0x6
 606 0234 5101     		.2byte	0x151
 607 0236 1A010000 		.4byte	0x11a
 608 023a 3C       		.byte	0x3c
 609 023b 09       		.uleb128 0x9
 610 023c CD010000 		.4byte	.LASF46
 611 0240 06       		.byte	0x6
 612 0241 5801     		.2byte	0x158
 613 0243 31030000 		.4byte	0x331
 614 0247 40       		.byte	0x40
 615 0248 00       		.byte	0
 616 0249 04       		.uleb128 0x4
 617 024a 39030000 		.4byte	.LASF47
 618 024e 05       		.byte	0x5
 619 024f 44       		.byte	0x44
 620 0250 54020000 		.4byte	0x254
 621 0254 0A       		.uleb128 0xa
 622 0255 04       		.byte	0x4
 623 0256 51010000 		.4byte	0x151
 624 025a 04       		.uleb128 0x4
 625 025b 34060000 		.4byte	.LASF48
 626 025f 05       		.byte	0x5
 627 0260 49       		.byte	0x49
 628 0261 65020000 		.4byte	0x265
 629 0265 06       		.uleb128 0x6
 630 0266 C1040000 		.4byte	.LASF50
 631 026a 04       		.byte	0x4
 632 026b 06       		.byte	0x6
 633 026c B0       		.byte	0xb0
 634 026d 7E020000 		.4byte	0x27e
 635 0271 07       		.uleb128 0x7
 636 0272 42040000 		.4byte	.LASF30
 637 0276 06       		.byte	0x6
 638 0277 B1       		.byte	0xb1
 639 0278 54020000 		.4byte	0x254
ARM GAS  /var/folders/c6/c789hm653lg9vtl73krp73tm0000gn/T//ccdT9yKN.s 			page 24


 640 027c 00       		.byte	0
 641 027d 00       		.byte	0
 642 027e 04       		.uleb128 0x4
 643 027f DC050000 		.4byte	.LASF51
 644 0283 05       		.byte	0x5
 645 0284 50       		.byte	0x50
 646 0285 89020000 		.4byte	0x289
 647 0289 06       		.uleb128 0x6
 648 028a 96010000 		.4byte	.LASF52
 649 028e 08       		.byte	0x8
 650 028f 06       		.byte	0x6
 651 0290 B7       		.byte	0xb7
 652 0291 AE020000 		.4byte	0x2ae
 653 0295 07       		.uleb128 0x7
 654 0296 42040000 		.4byte	.LASF30
 655 029a 06       		.byte	0x6
 656 029b B8       		.byte	0xb8
 657 029c 54020000 		.4byte	0x254
 658 02a0 00       		.byte	0
 659 02a1 07       		.uleb128 0x7
 660 02a2 DD030000 		.4byte	.LASF31
 661 02a6 06       		.byte	0x6
 662 02a7 B9       		.byte	0xb9
 663 02a8 54020000 		.4byte	0x254
 664 02ac 04       		.byte	0x4
 665 02ad 00       		.byte	0
 666 02ae 04       		.uleb128 0x4
 667 02af E0000000 		.4byte	.LASF53
 668 02b3 05       		.byte	0x5
 669 02b4 57       		.byte	0x57
 670 02b5 B9020000 		.4byte	0x2b9
 671 02b9 0B       		.uleb128 0xb
 672 02ba EC020000 		.4byte	.LASF54
 673 02be 1C       		.byte	0x1c
 674 02bf 06       		.byte	0x6
 675 02c0 9001     		.2byte	0x190
 676 02c2 15030000 		.4byte	0x315
 677 02c6 09       		.uleb128 0x9
 678 02c7 B0040000 		.4byte	.LASF55
 679 02cb 06       		.byte	0x6
 680 02cc 9101     		.2byte	0x191
 681 02ce 7E020000 		.4byte	0x27e
 682 02d2 00       		.byte	0
 683 02d3 09       		.uleb128 0x9
 684 02d4 34040000 		.4byte	.LASF56
 685 02d8 06       		.byte	0x6
 686 02d9 9201     		.2byte	0x192
 687 02db 1A010000 		.4byte	0x11a
 688 02df 08       		.byte	0x8
 689 02e0 09       		.uleb128 0x9
 690 02e1 7D030000 		.4byte	.LASF57
 691 02e5 06       		.byte	0x6
 692 02e6 9401     		.2byte	0x194
 693 02e8 84040000 		.4byte	0x484
 694 02ec 0C       		.byte	0xc
 695 02ed 09       		.uleb128 0x9
 696 02ee 44020000 		.4byte	.LASF58
ARM GAS  /var/folders/c6/c789hm653lg9vtl73krp73tm0000gn/T//ccdT9yKN.s 			page 25


 697 02f2 06       		.byte	0x6
 698 02f3 9701     		.2byte	0x197
 699 02f5 54020000 		.4byte	0x254
 700 02f9 10       		.byte	0x10
 701 02fa 09       		.uleb128 0x9
 702 02fb 9E030000 		.4byte	.LASF59
 703 02ff 06       		.byte	0x6
 704 0300 9801     		.2byte	0x198
 705 0302 54020000 		.4byte	0x254
 706 0306 14       		.byte	0x14
 707 0307 09       		.uleb128 0x9
 708 0308 94030000 		.4byte	.LASF60
 709 030c 06       		.byte	0x6
 710 030d 9B01     		.2byte	0x19b
 711 030f 54020000 		.4byte	0x254
 712 0313 18       		.byte	0x18
 713 0314 00       		.byte	0
 714 0315 04       		.uleb128 0x4
 715 0316 73050000 		.4byte	.LASF61
 716 031a 05       		.byte	0x5
 717 031b 5C       		.byte	0x5c
 718 031c 20030000 		.4byte	0x320
 719 0320 0A       		.uleb128 0xa
 720 0321 04       		.byte	0x4
 721 0322 26030000 		.4byte	0x326
 722 0326 0C       		.uleb128 0xc
 723 0327 31030000 		.4byte	0x331
 724 032b 0D       		.uleb128 0xd
 725 032c 31030000 		.4byte	0x331
 726 0330 00       		.byte	0
 727 0331 0E       		.uleb128 0xe
 728 0332 04       		.byte	0x4
 729 0333 04       		.uleb128 0x4
 730 0334 CD030000 		.4byte	.LASF62
 731 0338 05       		.byte	0x5
 732 0339 61       		.byte	0x61
 733 033a 3E030000 		.4byte	0x33e
 734 033e 0B       		.uleb128 0xb
 735 033f 77040000 		.4byte	.LASF63
 736 0343 14       		.byte	0x14
 737 0344 06       		.byte	0x6
 738 0345 6B01     		.2byte	0x16b
 739 0347 8D030000 		.4byte	0x38d
 740 034b 09       		.uleb128 0x9
 741 034c 90020000 		.4byte	.LASF64
 742 0350 06       		.byte	0x6
 743 0351 6C01     		.2byte	0x16c
 744 0353 15060000 		.4byte	0x615
 745 0357 00       		.byte	0
 746 0358 09       		.uleb128 0x9
 747 0359 5A020000 		.4byte	.LASF65
 748 035d 06       		.byte	0x6
 749 035e 6D01     		.2byte	0x16d
 750 0360 15060000 		.4byte	0x615
 751 0364 04       		.byte	0x4
 752 0365 09       		.uleb128 0x9
 753 0366 B8040000 		.4byte	.LASF66
ARM GAS  /var/folders/c6/c789hm653lg9vtl73krp73tm0000gn/T//ccdT9yKN.s 			page 26


 754 036a 06       		.byte	0x6
 755 036b 6E01     		.2byte	0x16e
 756 036d 46010000 		.4byte	0x146
 757 0371 08       		.byte	0x8
 758 0372 09       		.uleb128 0x9
 759 0373 60060000 		.4byte	.LASF67
 760 0377 06       		.byte	0x6
 761 0378 6F01     		.2byte	0x16f
 762 037a 15030000 		.4byte	0x315
 763 037e 0C       		.byte	0xc
 764 037f 09       		.uleb128 0x9
 765 0380 C9050000 		.4byte	.LASF68
 766 0384 06       		.byte	0x6
 767 0385 7101     		.2byte	0x171
 768 0387 31030000 		.4byte	0x331
 769 038b 10       		.byte	0x10
 770 038c 00       		.byte	0
 771 038d 04       		.uleb128 0x4
 772 038e 73010000 		.4byte	.LASF69
 773 0392 05       		.byte	0x5
 774 0393 66       		.byte	0x66
 775 0394 98030000 		.4byte	0x398
 776 0398 0B       		.uleb128 0xb
 777 0399 4C030000 		.4byte	.LASF70
 778 039d 10       		.byte	0x10
 779 039e 06       		.byte	0x6
 780 039f 7B01     		.2byte	0x17b
 781 03a1 DA030000 		.4byte	0x3da
 782 03a5 09       		.uleb128 0x9
 783 03a6 90020000 		.4byte	.LASF64
 784 03aa 06       		.byte	0x6
 785 03ab 7C01     		.2byte	0x17c
 786 03ad 15060000 		.4byte	0x615
 787 03b1 00       		.byte	0
 788 03b2 09       		.uleb128 0x9
 789 03b3 5A020000 		.4byte	.LASF65
 790 03b7 06       		.byte	0x6
 791 03b8 7E01     		.2byte	0x17e
 792 03ba 15060000 		.4byte	0x615
 793 03be 04       		.byte	0x4
 794 03bf 09       		.uleb128 0x9
 795 03c0 B8040000 		.4byte	.LASF66
 796 03c4 06       		.byte	0x6
 797 03c5 8001     		.2byte	0x180
 798 03c7 46010000 		.4byte	0x146
 799 03cb 08       		.byte	0x8
 800 03cc 09       		.uleb128 0x9
 801 03cd 69030000 		.4byte	.LASF71
 802 03d1 06       		.byte	0x6
 803 03d2 8801     		.2byte	0x188
 804 03d4 46010000 		.4byte	0x146
 805 03d8 0C       		.byte	0xc
 806 03d9 00       		.byte	0
 807 03da 04       		.uleb128 0x4
 808 03db 20010000 		.4byte	.LASF72
 809 03df 05       		.byte	0x5
 810 03e0 6B       		.byte	0x6b
ARM GAS  /var/folders/c6/c789hm653lg9vtl73krp73tm0000gn/T//ccdT9yKN.s 			page 27


 811 03e1 E5030000 		.4byte	0x3e5
 812 03e5 0B       		.uleb128 0xb
 813 03e6 EC030000 		.4byte	.LASF73
 814 03ea 04       		.byte	0x4
 815 03eb 06       		.byte	0x6
 816 03ec A201     		.2byte	0x1a2
 817 03ee 00040000 		.4byte	0x400
 818 03f2 09       		.uleb128 0x9
 819 03f3 87050000 		.4byte	.LASF74
 820 03f7 06       		.byte	0x6
 821 03f8 AA01     		.2byte	0x1aa
 822 03fa 1B060000 		.4byte	0x61b
 823 03fe 00       		.byte	0
 824 03ff 00       		.byte	0
 825 0400 04       		.uleb128 0x4
 826 0401 D8020000 		.4byte	.LASF75
 827 0405 05       		.byte	0x5
 828 0406 70       		.byte	0x70
 829 0407 0B040000 		.4byte	0x40b
 830 040b 0F       		.uleb128 0xf
 831 040c 6D040000 		.4byte	.LASF76
 832 0410 5001     		.2byte	0x150
 833 0412 06       		.byte	0x6
 834 0413 C201     		.2byte	0x1c2
 835 0415 67040000 		.4byte	0x467
 836 0419 09       		.uleb128 0x9
 837 041a FC050000 		.4byte	.LASF77
 838 041e 06       		.byte	0x6
 839 041f C601     		.2byte	0x1c6
 840 0421 AE020000 		.4byte	0x2ae
 841 0425 00       		.byte	0
 842 0426 09       		.uleb128 0x9
 843 0427 DD010000 		.4byte	.LASF78
 844 042b 06       		.byte	0x6
 845 042c CA01     		.2byte	0x1ca
 846 042e 8D030000 		.4byte	0x38d
 847 0432 1C       		.byte	0x1c
 848 0433 08       		.uleb128 0x8
 849 0434 64626700 		.ascii	"dbg\000"
 850 0438 06       		.byte	0x6
 851 0439 CE01     		.2byte	0x1ce
 852 043b DA030000 		.4byte	0x3da
 853 043f 2C       		.byte	0x2c
 854 0440 09       		.uleb128 0x9
 855 0441 68010000 		.4byte	.LASF79
 856 0445 06       		.byte	0x6
 857 0446 D201     		.2byte	0x1d2
 858 0448 51010000 		.4byte	0x151
 859 044c 30       		.byte	0x30
 860 044d 08       		.uleb128 0x8
 861 044e 746D00   		.ascii	"tm\000"
 862 0451 06       		.byte	0x6
 863 0452 D701     		.2byte	0x1d7
 864 0454 33050000 		.4byte	0x533
 865 0458 74       		.byte	0x74
 866 0459 09       		.uleb128 0x9
 867 045a 5E040000 		.4byte	.LASF80
ARM GAS  /var/folders/c6/c789hm653lg9vtl73krp73tm0000gn/T//ccdT9yKN.s 			page 28


 868 045e 06       		.byte	0x6
 869 045f E301     		.2byte	0x1e3
 870 0461 20060000 		.4byte	0x620
 871 0465 78       		.byte	0x78
 872 0466 00       		.byte	0
 873 0467 03       		.uleb128 0x3
 874 0468 04       		.byte	0x4
 875 0469 07       		.byte	0x7
 876 046a 30030000 		.4byte	.LASF81
 877 046e 04       		.uleb128 0x4
 878 046f 51020000 		.4byte	.LASF82
 879 0473 07       		.byte	0x7
 880 0474 65       		.byte	0x65
 881 0475 31030000 		.4byte	0x331
 882 0479 04       		.uleb128 0x4
 883 047a 10030000 		.4byte	.LASF83
 884 047e 07       		.byte	0x7
 885 047f 6D       		.byte	0x6d
 886 0480 CE000000 		.4byte	0xce
 887 0484 06       		.uleb128 0x6
 888 0485 A3050000 		.4byte	.LASF84
 889 0489 04       		.byte	0x4
 890 048a 07       		.byte	0x7
 891 048b 89       		.byte	0x89
 892 048c 9D040000 		.4byte	0x49d
 893 0490 10       		.uleb128 0x10
 894 0491 72313300 		.ascii	"r13\000"
 895 0495 07       		.byte	0x7
 896 0496 8A       		.byte	0x8a
 897 0497 18050000 		.4byte	0x518
 898 049b 00       		.byte	0
 899 049c 00       		.byte	0
 900 049d 06       		.uleb128 0x6
 901 049e 14010000 		.4byte	.LASF85
 902 04a2 24       		.byte	0x24
 903 04a3 08       		.byte	0x8
 904 04a4 F4       		.byte	0xf4
 905 04a5 18050000 		.4byte	0x518
 906 04a9 08       		.uleb128 0x8
 907 04aa 723400   		.ascii	"r4\000"
 908 04ad 08       		.byte	0x8
 909 04ae 0701     		.2byte	0x107
 910 04b0 6E040000 		.4byte	0x46e
 911 04b4 00       		.byte	0
 912 04b5 08       		.uleb128 0x8
 913 04b6 723500   		.ascii	"r5\000"
 914 04b9 08       		.byte	0x8
 915 04ba 0801     		.2byte	0x108
 916 04bc 6E040000 		.4byte	0x46e
 917 04c0 04       		.byte	0x4
 918 04c1 08       		.uleb128 0x8
 919 04c2 723600   		.ascii	"r6\000"
 920 04c5 08       		.byte	0x8
 921 04c6 0901     		.2byte	0x109
 922 04c8 6E040000 		.4byte	0x46e
 923 04cc 08       		.byte	0x8
 924 04cd 08       		.uleb128 0x8
ARM GAS  /var/folders/c6/c789hm653lg9vtl73krp73tm0000gn/T//ccdT9yKN.s 			page 29


 925 04ce 723700   		.ascii	"r7\000"
 926 04d1 08       		.byte	0x8
 927 04d2 0A01     		.2byte	0x10a
 928 04d4 6E040000 		.4byte	0x46e
 929 04d8 0C       		.byte	0xc
 930 04d9 08       		.uleb128 0x8
 931 04da 723800   		.ascii	"r8\000"
 932 04dd 08       		.byte	0x8
 933 04de 0B01     		.2byte	0x10b
 934 04e0 6E040000 		.4byte	0x46e
 935 04e4 10       		.byte	0x10
 936 04e5 08       		.uleb128 0x8
 937 04e6 723900   		.ascii	"r9\000"
 938 04e9 08       		.byte	0x8
 939 04ea 0C01     		.2byte	0x10c
 940 04ec 6E040000 		.4byte	0x46e
 941 04f0 14       		.byte	0x14
 942 04f1 08       		.uleb128 0x8
 943 04f2 72313000 		.ascii	"r10\000"
 944 04f6 08       		.byte	0x8
 945 04f7 0D01     		.2byte	0x10d
 946 04f9 6E040000 		.4byte	0x46e
 947 04fd 18       		.byte	0x18
 948 04fe 08       		.uleb128 0x8
 949 04ff 72313100 		.ascii	"r11\000"
 950 0503 08       		.byte	0x8
 951 0504 0E01     		.2byte	0x10e
 952 0506 6E040000 		.4byte	0x46e
 953 050a 1C       		.byte	0x1c
 954 050b 08       		.uleb128 0x8
 955 050c 6C7200   		.ascii	"lr\000"
 956 050f 08       		.byte	0x8
 957 0510 0F01     		.2byte	0x10f
 958 0512 6E040000 		.4byte	0x46e
 959 0516 20       		.byte	0x20
 960 0517 00       		.byte	0
 961 0518 0A       		.uleb128 0xa
 962 0519 04       		.byte	0x4
 963 051a 9D040000 		.4byte	0x49d
 964 051e 11       		.uleb128 0x11
 965 051f 04       		.byte	0x4
 966 0520 09       		.byte	0x9
 967 0521 38       		.byte	0x38
 968 0522 33050000 		.4byte	0x533
 969 0526 07       		.uleb128 0x7
 970 0527 91050000 		.4byte	.LASF86
 971 052b 09       		.byte	0x9
 972 052c 3C       		.byte	0x3c
 973 052d EE000000 		.4byte	0xee
 974 0531 00       		.byte	0
 975 0532 00       		.byte	0
 976 0533 04       		.uleb128 0x4
 977 0534 83030000 		.4byte	.LASF87
 978 0538 09       		.byte	0x9
 979 0539 3D       		.byte	0x3d
 980 053a 1E050000 		.4byte	0x51e
 981 053e 12       		.uleb128 0x12
ARM GAS  /var/folders/c6/c789hm653lg9vtl73krp73tm0000gn/T//ccdT9yKN.s 			page 30


 982 053f 04       		.byte	0x4
 983 0540 06       		.byte	0x6
 984 0541 FA       		.byte	0xfa
 985 0542 9B050000 		.4byte	0x59b
 986 0546 13       		.uleb128 0x13
 987 0547 F3000000 		.4byte	.LASF88
 988 054b 06       		.byte	0x6
 989 054c 0101     		.2byte	0x101
 990 054e 25010000 		.4byte	0x125
 991 0552 13       		.uleb128 0x13
 992 0553 5F010000 		.4byte	.LASF89
 993 0557 06       		.byte	0x6
 994 0558 0801     		.2byte	0x108
 995 055a 25010000 		.4byte	0x125
 996 055e 13       		.uleb128 0x13
 997 055f 26060000 		.4byte	.LASF90
 998 0563 06       		.byte	0x6
 999 0564 0F01     		.2byte	0x10f
 1000 0566 31030000 		.4byte	0x331
 1001 056a 13       		.uleb128 0x13
 1002 056b ED000000 		.4byte	.LASF91
 1003 056f 06       		.byte	0x6
 1004 0570 1601     		.2byte	0x116
 1005 0572 9B050000 		.4byte	0x59b
 1006 0576 13       		.uleb128 0x13
 1007 0577 98020000 		.4byte	.LASF92
 1008 057b 06       		.byte	0x6
 1009 057c 1E01     		.2byte	0x11e
 1010 057e C6050000 		.4byte	0x5c6
 1011 0582 13       		.uleb128 0x13
 1012 0583 A9040000 		.4byte	.LASF93
 1013 0587 06       		.byte	0x6
 1014 0588 2701     		.2byte	0x127
 1015 058a FD050000 		.4byte	0x5fd
 1016 058e 13       		.uleb128 0x13
 1017 058f 3B040000 		.4byte	.LASF94
 1018 0593 06       		.byte	0x6
 1019 0594 2F01     		.2byte	0x12f
 1020 0596 30010000 		.4byte	0x130
 1021 059a 00       		.byte	0
 1022 059b 0A       		.uleb128 0xa
 1023 059c 04       		.byte	0x4
 1024 059d 49020000 		.4byte	0x249
 1025 05a1 06       		.uleb128 0x6
 1026 05a2 88040000 		.4byte	.LASF95
 1027 05a6 0C       		.byte	0xc
 1028 05a7 0A       		.byte	0xa
 1029 05a8 34       		.byte	0x34
 1030 05a9 C6050000 		.4byte	0x5c6
 1031 05ad 07       		.uleb128 0x7
 1032 05ae 1A020000 		.4byte	.LASF96
 1033 05b2 0A       		.byte	0xa
 1034 05b3 35       		.byte	0x35
 1035 05b4 7E020000 		.4byte	0x27e
 1036 05b8 00       		.byte	0
 1037 05b9 07       		.uleb128 0x7
 1038 05ba AF020000 		.4byte	.LASF97
ARM GAS  /var/folders/c6/c789hm653lg9vtl73krp73tm0000gn/T//ccdT9yKN.s 			page 31


 1039 05be 0A       		.byte	0xa
 1040 05bf 37       		.byte	0x37
 1041 05c0 3B010000 		.4byte	0x13b
 1042 05c4 08       		.byte	0x8
 1043 05c5 00       		.byte	0
 1044 05c6 0A       		.uleb128 0xa
 1045 05c7 04       		.byte	0x4
 1046 05c8 A1050000 		.4byte	0x5a1
 1047 05cc 06       		.uleb128 0x6
 1048 05cd EC050000 		.4byte	.LASF98
 1049 05d1 10       		.byte	0x10
 1050 05d2 0B       		.byte	0xb
 1051 05d3 39       		.byte	0x39
 1052 05d4 FD050000 		.4byte	0x5fd
 1053 05d8 07       		.uleb128 0x7
 1054 05d9 D5010000 		.4byte	.LASF99
 1055 05dd 0B       		.byte	0xb
 1056 05de 3A       		.byte	0x3a
 1057 05df 7E020000 		.4byte	0x27e
 1058 05e3 00       		.byte	0
 1059 05e4 07       		.uleb128 0x7
 1060 05e5 52060000 		.4byte	.LASF100
 1061 05e9 0B       		.byte	0xb
 1062 05ea 3C       		.byte	0x3c
 1063 05eb 54020000 		.4byte	0x254
 1064 05ef 08       		.byte	0x8
 1065 05f0 07       		.uleb128 0x7
 1066 05f1 57050000 		.4byte	.LASF101
 1067 05f5 0B       		.byte	0xb
 1068 05f6 3E       		.byte	0x3e
 1069 05f7 3B060000 		.4byte	0x63b
 1070 05fb 0C       		.byte	0xc
 1071 05fc 00       		.byte	0
 1072 05fd 0A       		.uleb128 0xa
 1073 05fe 04       		.byte	0x4
 1074 05ff CC050000 		.4byte	0x5cc
 1075 0603 0A       		.uleb128 0xa
 1076 0604 04       		.byte	0x4
 1077 0605 09060000 		.4byte	0x609
 1078 0609 14       		.uleb128 0x14
 1079 060a 0E060000 		.4byte	0x60e
 1080 060e 03       		.uleb128 0x3
 1081 060f 01       		.byte	0x1
 1082 0610 08       		.byte	0x8
 1083 0611 2E050000 		.4byte	.LASF102
 1084 0615 0A       		.uleb128 0xa
 1085 0616 04       		.byte	0x4
 1086 0617 33030000 		.4byte	0x333
 1087 061b 05       		.uleb128 0x5
 1088 061c 03060000 		.4byte	0x603
 1089 0620 15       		.uleb128 0x15
 1090 0621 79040000 		.4byte	0x479
 1091 0625 30060000 		.4byte	0x630
 1092 0629 16       		.uleb128 0x16
 1093 062a 67040000 		.4byte	0x467
 1094 062e 1A       		.byte	0x1a
 1095 062f 00       		.byte	0
ARM GAS  /var/folders/c6/c789hm653lg9vtl73krp73tm0000gn/T//ccdT9yKN.s 			page 32


 1096 0630 04       		.uleb128 0x4
 1097 0631 6F020000 		.4byte	.LASF103
 1098 0635 0B       		.byte	0xb
 1099 0636 34       		.byte	0x34
 1100 0637 CC050000 		.4byte	0x5cc
 1101 063b 0A       		.uleb128 0xa
 1102 063c 04       		.byte	0x4
 1103 063d 30060000 		.4byte	0x630
 1104 0641 03       		.uleb128 0x3
 1105 0642 01       		.byte	0x1
 1106 0643 02       		.byte	0x2
 1107 0644 FC030000 		.4byte	.LASF104
 1108 0648 11       		.uleb128 0x11
 1109 0649 04       		.byte	0x4
 1110 064a 0C       		.byte	0xc
 1111 064b B3       		.byte	0xb3
 1112 064c 69060000 		.4byte	0x669
 1113 0650 10       		.uleb128 0x10
 1114 0651 73657400 		.ascii	"set\000"
 1115 0655 0C       		.byte	0xc
 1116 0656 B4       		.byte	0xb4
 1117 0657 AD000000 		.4byte	0xad
 1118 065b 00       		.byte	0
 1119 065c 07       		.uleb128 0x7
 1120 065d 63030000 		.4byte	.LASF105
 1121 0661 0C       		.byte	0xc
 1122 0662 B5       		.byte	0xb5
 1123 0663 AD000000 		.4byte	0xad
 1124 0667 02       		.byte	0x2
 1125 0668 00       		.byte	0
 1126 0669 12       		.uleb128 0x12
 1127 066a 04       		.byte	0x4
 1128 066b 0C       		.byte	0xc
 1129 066c B1       		.byte	0xb1
 1130 066d 84060000 		.4byte	0x684
 1131 0671 17       		.uleb128 0x17
 1132 0672 5700     		.ascii	"W\000"
 1133 0674 0C       		.byte	0xc
 1134 0675 B2       		.byte	0xb2
 1135 0676 C3000000 		.4byte	0xc3
 1136 067a 17       		.uleb128 0x17
 1137 067b 4800     		.ascii	"H\000"
 1138 067d 0C       		.byte	0xc
 1139 067e B6       		.byte	0xb6
 1140 067f 48060000 		.4byte	0x648
 1141 0683 00       		.byte	0
 1142 0684 11       		.uleb128 0x11
 1143 0685 2C       		.byte	0x2c
 1144 0686 0C       		.byte	0xc
 1145 0687 A9       		.byte	0xa9
 1146 0688 11070000 		.4byte	0x711
 1147 068c 07       		.uleb128 0x7
 1148 068d 3C010000 		.4byte	.LASF106
 1149 0691 0C       		.byte	0xc
 1150 0692 AB       		.byte	0xab
 1151 0693 E9000000 		.4byte	0xe9
 1152 0697 00       		.byte	0
ARM GAS  /var/folders/c6/c789hm653lg9vtl73krp73tm0000gn/T//ccdT9yKN.s 			page 33


 1153 0698 07       		.uleb128 0x7
 1154 0699 0D010000 		.4byte	.LASF107
 1155 069d 0C       		.byte	0xc
 1156 069e AC       		.byte	0xac
 1157 069f E9000000 		.4byte	0xe9
 1158 06a3 04       		.byte	0x4
 1159 06a4 07       		.uleb128 0x7
 1160 06a5 3C020000 		.4byte	.LASF108
 1161 06a9 0C       		.byte	0xc
 1162 06aa AD       		.byte	0xad
 1163 06ab E9000000 		.4byte	0xe9
 1164 06af 08       		.byte	0x8
 1165 06b0 07       		.uleb128 0x7
 1166 06b1 59010000 		.4byte	.LASF109
 1167 06b5 0C       		.byte	0xc
 1168 06b6 AE       		.byte	0xae
 1169 06b7 E9000000 		.4byte	0xe9
 1170 06bb 0C       		.byte	0xc
 1171 06bc 10       		.uleb128 0x10
 1172 06bd 49445200 		.ascii	"IDR\000"
 1173 06c1 0C       		.byte	0xc
 1174 06c2 AF       		.byte	0xaf
 1175 06c3 E9000000 		.4byte	0xe9
 1176 06c7 10       		.byte	0x10
 1177 06c8 10       		.uleb128 0x10
 1178 06c9 4F445200 		.ascii	"ODR\000"
 1179 06cd 0C       		.byte	0xc
 1180 06ce B0       		.byte	0xb0
 1181 06cf E9000000 		.4byte	0xe9
 1182 06d3 14       		.byte	0x14
 1183 06d4 07       		.uleb128 0x7
 1184 06d5 C8010000 		.4byte	.LASF110
 1185 06d9 0C       		.byte	0xc
 1186 06da B7       		.byte	0xb7
 1187 06db 11070000 		.4byte	0x711
 1188 06df 18       		.byte	0x18
 1189 06e0 07       		.uleb128 0x7
 1190 06e1 AA020000 		.4byte	.LASF111
 1191 06e5 0C       		.byte	0xc
 1192 06e6 B8       		.byte	0xb8
 1193 06e7 E9000000 		.4byte	0xe9
 1194 06eb 1C       		.byte	0x1c
 1195 06ec 07       		.uleb128 0x7
 1196 06ed C0030000 		.4byte	.LASF112
 1197 06f1 0C       		.byte	0xc
 1198 06f2 B9       		.byte	0xb9
 1199 06f3 E9000000 		.4byte	0xe9
 1200 06f7 20       		.byte	0x20
 1201 06f8 07       		.uleb128 0x7
 1202 06f9 AD030000 		.4byte	.LASF113
 1203 06fd 0C       		.byte	0xc
 1204 06fe BA       		.byte	0xba
 1205 06ff E9000000 		.4byte	0xe9
 1206 0703 24       		.byte	0x24
 1207 0704 10       		.uleb128 0x10
 1208 0705 42525200 		.ascii	"BRR\000"
 1209 0709 0C       		.byte	0xc
ARM GAS  /var/folders/c6/c789hm653lg9vtl73krp73tm0000gn/T//ccdT9yKN.s 			page 34


 1210 070a BB       		.byte	0xbb
 1211 070b E9000000 		.4byte	0xe9
 1212 070f 28       		.byte	0x28
 1213 0710 00       		.byte	0
 1214 0711 05       		.uleb128 0x5
 1215 0712 69060000 		.4byte	0x669
 1216 0716 04       		.uleb128 0x4
 1217 0717 62020000 		.4byte	.LASF114
 1218 071b 0C       		.byte	0xc
 1219 071c BC       		.byte	0xbc
 1220 071d 84060000 		.4byte	0x684
 1221 0721 18       		.uleb128 0x18
 1222 0722 2F010000 		.4byte	.LASF115
 1223 0726 0C       		.byte	0xc
 1224 0727 0E01     		.2byte	0x10e
 1225 0729 C3000000 		.4byte	0xc3
 1226 072d 18       		.uleb128 0x18
 1227 072e 49060000 		.4byte	.LASF116
 1228 0732 0C       		.byte	0xc
 1229 0733 1301     		.2byte	0x113
 1230 0735 C3000000 		.4byte	0xc3
 1231 0739 18       		.uleb128 0x18
 1232 073a 98050000 		.4byte	.LASF117
 1233 073e 0C       		.byte	0xc
 1234 073f 1B01     		.2byte	0x11b
 1235 0741 45070000 		.4byte	0x745
 1236 0745 0A       		.uleb128 0xa
 1237 0746 04       		.byte	0x4
 1238 0747 16070000 		.4byte	0x716
 1239 074b 11       		.uleb128 0x11
 1240 074c 0C       		.byte	0xc
 1241 074d 0D       		.byte	0xd
 1242 074e 7A       		.byte	0x7a
 1243 074f 78070000 		.4byte	0x778
 1244 0753 07       		.uleb128 0x7
 1245 0754 A6030000 		.4byte	.LASF118
 1246 0758 0D       		.byte	0xd
 1247 0759 7E       		.byte	0x7e
 1248 075a 39070000 		.4byte	0x739
 1249 075e 00       		.byte	0
 1250 075f 07       		.uleb128 0x7
 1251 0760 4C020000 		.4byte	.LASF119
 1252 0764 0D       		.byte	0xd
 1253 0765 84       		.byte	0x84
 1254 0766 21070000 		.4byte	0x721
 1255 076a 04       		.byte	0x4
 1256 076b 07       		.uleb128 0x7
 1257 076c 91050000 		.4byte	.LASF86
 1258 0770 0D       		.byte	0xd
 1259 0771 88       		.byte	0x88
 1260 0772 D9000000 		.4byte	0xd9
 1261 0776 08       		.byte	0x8
 1262 0777 00       		.byte	0
 1263 0778 04       		.uleb128 0x4
 1264 0779 77020000 		.4byte	.LASF120
 1265 077d 0D       		.byte	0xd
 1266 077e 89       		.byte	0x89
ARM GAS  /var/folders/c6/c789hm653lg9vtl73krp73tm0000gn/T//ccdT9yKN.s 			page 35


 1267 077f 4B070000 		.4byte	0x74b
 1268 0783 19       		.uleb128 0x19
 1269 0784 38050000 		.4byte	.LASF132
 1270 0788 01       		.byte	0x1
 1271 0789 41       		.byte	0x41
 1272 078a 21070000 		.4byte	0x721
 1273 078e 00000000 		.4byte	.LFB260
 1274 0792 10000000 		.4byte	.LFE260-.LFB260
 1275 0796 01       		.uleb128 0x1
 1276 0797 9C       		.byte	0x9c
 1277 0798 B5070000 		.4byte	0x7b5
 1278 079c 1A       		.uleb128 0x1a
 1279 079d 62757300 		.ascii	"bus\000"
 1280 07a1 01       		.byte	0x1
 1281 07a2 41       		.byte	0x41
 1282 07a3 B5070000 		.4byte	0x7b5
 1283 07a7 00000000 		.4byte	.LLST0
 1284 07ab 1B       		.uleb128 0x1b
 1285 07ac 0A060000 		.4byte	.LASF122
 1286 07b0 CB070000 		.4byte	0x7cb
 1287 07b4 00       		.byte	0
 1288 07b5 0A       		.uleb128 0xa
 1289 07b6 04       		.byte	0x4
 1290 07b7 78070000 		.4byte	0x778
 1291 07bb 15       		.uleb128 0x15
 1292 07bc 0E060000 		.4byte	0x60e
 1293 07c0 CB070000 		.4byte	0x7cb
 1294 07c4 16       		.uleb128 0x16
 1295 07c5 67040000 		.4byte	0x467
 1296 07c9 0A       		.byte	0xa
 1297 07ca 00       		.byte	0
 1298 07cb 14       		.uleb128 0x14
 1299 07cc BB070000 		.4byte	0x7bb
 1300 07d0 1C       		.uleb128 0x1c
 1301 07d1 D0050000 		.4byte	.LASF124
 1302 07d5 01       		.byte	0x1
 1303 07d6 5A       		.byte	0x5a
 1304 07d7 00000000 		.4byte	.LFB261
 1305 07db 1E000000 		.4byte	.LFE261-.LFB261
 1306 07df 01       		.uleb128 0x1
 1307 07e0 9C       		.byte	0x9c
 1308 07e1 0B080000 		.4byte	0x80b
 1309 07e5 1A       		.uleb128 0x1a
 1310 07e6 62757300 		.ascii	"bus\000"
 1311 07ea 01       		.byte	0x1
 1312 07eb 5A       		.byte	0x5a
 1313 07ec B5070000 		.4byte	0x7b5
 1314 07f0 21000000 		.4byte	.LLST1
 1315 07f4 1D       		.uleb128 0x1d
 1316 07f5 E4010000 		.4byte	.LASF121
 1317 07f9 01       		.byte	0x1
 1318 07fa 5A       		.byte	0x5a
 1319 07fb 21070000 		.4byte	0x721
 1320 07ff 01       		.uleb128 0x1
 1321 0800 51       		.byte	0x51
 1322 0801 1B       		.uleb128 0x1b
 1323 0802 18060000 		.4byte	.LASF123
ARM GAS  /var/folders/c6/c789hm653lg9vtl73krp73tm0000gn/T//ccdT9yKN.s 			page 36


 1324 0806 1B080000 		.4byte	0x81b
 1325 080a 00       		.byte	0
 1326 080b 15       		.uleb128 0x15
 1327 080c 0E060000 		.4byte	0x60e
 1328 0810 1B080000 		.4byte	0x81b
 1329 0814 16       		.uleb128 0x16
 1330 0815 67040000 		.4byte	0x467
 1331 0819 0B       		.byte	0xb
 1332 081a 00       		.byte	0
 1333 081b 14       		.uleb128 0x14
 1334 081c 0B080000 		.4byte	0x80b
 1335 0820 1C       		.uleb128 0x1c
 1336 0821 B2030000 		.4byte	.LASF125
 1337 0825 01       		.byte	0x1
 1338 0826 71       		.byte	0x71
 1339 0827 00000000 		.4byte	.LFB262
 1340 082b 16000000 		.4byte	.LFE262-.LFB262
 1341 082f 01       		.uleb128 0x1
 1342 0830 9C       		.byte	0x9c
 1343 0831 6E080000 		.4byte	0x86e
 1344 0835 1A       		.uleb128 0x1a
 1345 0836 62757300 		.ascii	"bus\000"
 1346 083a 01       		.byte	0x1
 1347 083b 71       		.byte	0x71
 1348 083c B5070000 		.4byte	0x7b5
 1349 0840 42000000 		.4byte	.LLST2
 1350 0844 1E       		.uleb128 0x1e
 1351 0845 33050000 		.4byte	.LASF126
 1352 0849 01       		.byte	0x1
 1353 084a 71       		.byte	0x71
 1354 084b 2D070000 		.4byte	0x72d
 1355 084f 63000000 		.4byte	.LLST3
 1356 0853 1B       		.uleb128 0x1b
 1357 0854 F2010000 		.4byte	.LASF127
 1358 0858 7E080000 		.4byte	0x87e
 1359 085c 1F       		.uleb128 0x1f
 1360 085d 16000000 		.4byte	.LVL7
 1361 0861 9A080000 		.4byte	0x89a
 1362 0865 20       		.uleb128 0x20
 1363 0866 01       		.uleb128 0x1
 1364 0867 52       		.byte	0x52
 1365 0868 03       		.uleb128 0x3
 1366 0869 F3       		.byte	0xf3
 1367 086a 01       		.uleb128 0x1
 1368 086b 51       		.byte	0x51
 1369 086c 00       		.byte	0
 1370 086d 00       		.byte	0
 1371 086e 15       		.uleb128 0x15
 1372 086f 0E060000 		.4byte	0x60e
 1373 0873 7E080000 		.4byte	0x87e
 1374 0877 16       		.uleb128 0x16
 1375 0878 67040000 		.4byte	0x467
 1376 087c 0D       		.byte	0xd
 1377 087d 00       		.byte	0
 1378 087e 14       		.uleb128 0x14
 1379 087f 6E080000 		.4byte	0x86e
 1380 0883 21       		.uleb128 0x21
ARM GAS  /var/folders/c6/c789hm653lg9vtl73krp73tm0000gn/T//ccdT9yKN.s 			page 37


 1381 0884 89010000 		.4byte	.LASF128
 1382 0888 0E       		.byte	0xe
 1383 0889 A706     		.2byte	0x6a7
 1384 088b E4000000 		.4byte	0xe4
 1385 088f 22       		.uleb128 0x22
 1386 0890 636800   		.ascii	"ch\000"
 1387 0893 06       		.byte	0x6
 1388 0894 0902     		.2byte	0x209
 1389 0896 00040000 		.4byte	0x400
 1390 089a 23       		.uleb128 0x23
 1391 089b AB050000 		.4byte	.LASF133
 1392 089f 0C       		.byte	0xc
 1393 08a0 E001     		.2byte	0x1e0
 1394 08a2 0D       		.uleb128 0xd
 1395 08a3 39070000 		.4byte	0x739
 1396 08a7 0D       		.uleb128 0xd
 1397 08a8 21070000 		.4byte	0x721
 1398 08ac 0D       		.uleb128 0xd
 1399 08ad 2D070000 		.4byte	0x72d
 1400 08b1 00       		.byte	0
 1401 08b2 00       		.byte	0
 1402              		.section	.debug_abbrev,"",%progbits
 1403              	.Ldebug_abbrev0:
 1404 0000 01       		.uleb128 0x1
 1405 0001 11       		.uleb128 0x11
 1406 0002 01       		.byte	0x1
 1407 0003 25       		.uleb128 0x25
 1408 0004 0E       		.uleb128 0xe
 1409 0005 13       		.uleb128 0x13
 1410 0006 0B       		.uleb128 0xb
 1411 0007 03       		.uleb128 0x3
 1412 0008 0E       		.uleb128 0xe
 1413 0009 1B       		.uleb128 0x1b
 1414 000a 0E       		.uleb128 0xe
 1415 000b 55       		.uleb128 0x55
 1416 000c 17       		.uleb128 0x17
 1417 000d 11       		.uleb128 0x11
 1418 000e 01       		.uleb128 0x1
 1419 000f 10       		.uleb128 0x10
 1420 0010 17       		.uleb128 0x17
 1421 0011 00       		.byte	0
 1422 0012 00       		.byte	0
 1423 0013 02       		.uleb128 0x2
 1424 0014 24       		.uleb128 0x24
 1425 0015 00       		.byte	0
 1426 0016 0B       		.uleb128 0xb
 1427 0017 0B       		.uleb128 0xb
 1428 0018 3E       		.uleb128 0x3e
 1429 0019 0B       		.uleb128 0xb
 1430 001a 03       		.uleb128 0x3
 1431 001b 08       		.uleb128 0x8
 1432 001c 00       		.byte	0
 1433 001d 00       		.byte	0
 1434 001e 03       		.uleb128 0x3
 1435 001f 24       		.uleb128 0x24
 1436 0020 00       		.byte	0
 1437 0021 0B       		.uleb128 0xb
ARM GAS  /var/folders/c6/c789hm653lg9vtl73krp73tm0000gn/T//ccdT9yKN.s 			page 38


 1438 0022 0B       		.uleb128 0xb
 1439 0023 3E       		.uleb128 0x3e
 1440 0024 0B       		.uleb128 0xb
 1441 0025 03       		.uleb128 0x3
 1442 0026 0E       		.uleb128 0xe
 1443 0027 00       		.byte	0
 1444 0028 00       		.byte	0
 1445 0029 04       		.uleb128 0x4
 1446 002a 16       		.uleb128 0x16
 1447 002b 00       		.byte	0
 1448 002c 03       		.uleb128 0x3
 1449 002d 0E       		.uleb128 0xe
 1450 002e 3A       		.uleb128 0x3a
 1451 002f 0B       		.uleb128 0xb
 1452 0030 3B       		.uleb128 0x3b
 1453 0031 0B       		.uleb128 0xb
 1454 0032 49       		.uleb128 0x49
 1455 0033 13       		.uleb128 0x13
 1456 0034 00       		.byte	0
 1457 0035 00       		.byte	0
 1458 0036 05       		.uleb128 0x5
 1459 0037 35       		.uleb128 0x35
 1460 0038 00       		.byte	0
 1461 0039 49       		.uleb128 0x49
 1462 003a 13       		.uleb128 0x13
 1463 003b 00       		.byte	0
 1464 003c 00       		.byte	0
 1465 003d 06       		.uleb128 0x6
 1466 003e 13       		.uleb128 0x13
 1467 003f 01       		.byte	0x1
 1468 0040 03       		.uleb128 0x3
 1469 0041 0E       		.uleb128 0xe
 1470 0042 0B       		.uleb128 0xb
 1471 0043 0B       		.uleb128 0xb
 1472 0044 3A       		.uleb128 0x3a
 1473 0045 0B       		.uleb128 0xb
 1474 0046 3B       		.uleb128 0x3b
 1475 0047 0B       		.uleb128 0xb
 1476 0048 01       		.uleb128 0x1
 1477 0049 13       		.uleb128 0x13
 1478 004a 00       		.byte	0
 1479 004b 00       		.byte	0
 1480 004c 07       		.uleb128 0x7
 1481 004d 0D       		.uleb128 0xd
 1482 004e 00       		.byte	0
 1483 004f 03       		.uleb128 0x3
 1484 0050 0E       		.uleb128 0xe
 1485 0051 3A       		.uleb128 0x3a
 1486 0052 0B       		.uleb128 0xb
 1487 0053 3B       		.uleb128 0x3b
 1488 0054 0B       		.uleb128 0xb
 1489 0055 49       		.uleb128 0x49
 1490 0056 13       		.uleb128 0x13
 1491 0057 38       		.uleb128 0x38
 1492 0058 0B       		.uleb128 0xb
 1493 0059 00       		.byte	0
 1494 005a 00       		.byte	0
ARM GAS  /var/folders/c6/c789hm653lg9vtl73krp73tm0000gn/T//ccdT9yKN.s 			page 39


 1495 005b 08       		.uleb128 0x8
 1496 005c 0D       		.uleb128 0xd
 1497 005d 00       		.byte	0
 1498 005e 03       		.uleb128 0x3
 1499 005f 08       		.uleb128 0x8
 1500 0060 3A       		.uleb128 0x3a
 1501 0061 0B       		.uleb128 0xb
 1502 0062 3B       		.uleb128 0x3b
 1503 0063 05       		.uleb128 0x5
 1504 0064 49       		.uleb128 0x49
 1505 0065 13       		.uleb128 0x13
 1506 0066 38       		.uleb128 0x38
 1507 0067 0B       		.uleb128 0xb
 1508 0068 00       		.byte	0
 1509 0069 00       		.byte	0
 1510 006a 09       		.uleb128 0x9
 1511 006b 0D       		.uleb128 0xd
 1512 006c 00       		.byte	0
 1513 006d 03       		.uleb128 0x3
 1514 006e 0E       		.uleb128 0xe
 1515 006f 3A       		.uleb128 0x3a
 1516 0070 0B       		.uleb128 0xb
 1517 0071 3B       		.uleb128 0x3b
 1518 0072 05       		.uleb128 0x5
 1519 0073 49       		.uleb128 0x49
 1520 0074 13       		.uleb128 0x13
 1521 0075 38       		.uleb128 0x38
 1522 0076 0B       		.uleb128 0xb
 1523 0077 00       		.byte	0
 1524 0078 00       		.byte	0
 1525 0079 0A       		.uleb128 0xa
 1526 007a 0F       		.uleb128 0xf
 1527 007b 00       		.byte	0
 1528 007c 0B       		.uleb128 0xb
 1529 007d 0B       		.uleb128 0xb
 1530 007e 49       		.uleb128 0x49
 1531 007f 13       		.uleb128 0x13
 1532 0080 00       		.byte	0
 1533 0081 00       		.byte	0
 1534 0082 0B       		.uleb128 0xb
 1535 0083 13       		.uleb128 0x13
 1536 0084 01       		.byte	0x1
 1537 0085 03       		.uleb128 0x3
 1538 0086 0E       		.uleb128 0xe
 1539 0087 0B       		.uleb128 0xb
 1540 0088 0B       		.uleb128 0xb
 1541 0089 3A       		.uleb128 0x3a
 1542 008a 0B       		.uleb128 0xb
 1543 008b 3B       		.uleb128 0x3b
 1544 008c 05       		.uleb128 0x5
 1545 008d 01       		.uleb128 0x1
 1546 008e 13       		.uleb128 0x13
 1547 008f 00       		.byte	0
 1548 0090 00       		.byte	0
 1549 0091 0C       		.uleb128 0xc
 1550 0092 15       		.uleb128 0x15
 1551 0093 01       		.byte	0x1
ARM GAS  /var/folders/c6/c789hm653lg9vtl73krp73tm0000gn/T//ccdT9yKN.s 			page 40


 1552 0094 27       		.uleb128 0x27
 1553 0095 19       		.uleb128 0x19
 1554 0096 01       		.uleb128 0x1
 1555 0097 13       		.uleb128 0x13
 1556 0098 00       		.byte	0
 1557 0099 00       		.byte	0
 1558 009a 0D       		.uleb128 0xd
 1559 009b 05       		.uleb128 0x5
 1560 009c 00       		.byte	0
 1561 009d 49       		.uleb128 0x49
 1562 009e 13       		.uleb128 0x13
 1563 009f 00       		.byte	0
 1564 00a0 00       		.byte	0
 1565 00a1 0E       		.uleb128 0xe
 1566 00a2 0F       		.uleb128 0xf
 1567 00a3 00       		.byte	0
 1568 00a4 0B       		.uleb128 0xb
 1569 00a5 0B       		.uleb128 0xb
 1570 00a6 00       		.byte	0
 1571 00a7 00       		.byte	0
 1572 00a8 0F       		.uleb128 0xf
 1573 00a9 13       		.uleb128 0x13
 1574 00aa 01       		.byte	0x1
 1575 00ab 03       		.uleb128 0x3
 1576 00ac 0E       		.uleb128 0xe
 1577 00ad 0B       		.uleb128 0xb
 1578 00ae 05       		.uleb128 0x5
 1579 00af 3A       		.uleb128 0x3a
 1580 00b0 0B       		.uleb128 0xb
 1581 00b1 3B       		.uleb128 0x3b
 1582 00b2 05       		.uleb128 0x5
 1583 00b3 01       		.uleb128 0x1
 1584 00b4 13       		.uleb128 0x13
 1585 00b5 00       		.byte	0
 1586 00b6 00       		.byte	0
 1587 00b7 10       		.uleb128 0x10
 1588 00b8 0D       		.uleb128 0xd
 1589 00b9 00       		.byte	0
 1590 00ba 03       		.uleb128 0x3
 1591 00bb 08       		.uleb128 0x8
 1592 00bc 3A       		.uleb128 0x3a
 1593 00bd 0B       		.uleb128 0xb
 1594 00be 3B       		.uleb128 0x3b
 1595 00bf 0B       		.uleb128 0xb
 1596 00c0 49       		.uleb128 0x49
 1597 00c1 13       		.uleb128 0x13
 1598 00c2 38       		.uleb128 0x38
 1599 00c3 0B       		.uleb128 0xb
 1600 00c4 00       		.byte	0
 1601 00c5 00       		.byte	0
 1602 00c6 11       		.uleb128 0x11
 1603 00c7 13       		.uleb128 0x13
 1604 00c8 01       		.byte	0x1
 1605 00c9 0B       		.uleb128 0xb
 1606 00ca 0B       		.uleb128 0xb
 1607 00cb 3A       		.uleb128 0x3a
 1608 00cc 0B       		.uleb128 0xb
ARM GAS  /var/folders/c6/c789hm653lg9vtl73krp73tm0000gn/T//ccdT9yKN.s 			page 41


 1609 00cd 3B       		.uleb128 0x3b
 1610 00ce 0B       		.uleb128 0xb
 1611 00cf 01       		.uleb128 0x1
 1612 00d0 13       		.uleb128 0x13
 1613 00d1 00       		.byte	0
 1614 00d2 00       		.byte	0
 1615 00d3 12       		.uleb128 0x12
 1616 00d4 17       		.uleb128 0x17
 1617 00d5 01       		.byte	0x1
 1618 00d6 0B       		.uleb128 0xb
 1619 00d7 0B       		.uleb128 0xb
 1620 00d8 3A       		.uleb128 0x3a
 1621 00d9 0B       		.uleb128 0xb
 1622 00da 3B       		.uleb128 0x3b
 1623 00db 0B       		.uleb128 0xb
 1624 00dc 01       		.uleb128 0x1
 1625 00dd 13       		.uleb128 0x13
 1626 00de 00       		.byte	0
 1627 00df 00       		.byte	0
 1628 00e0 13       		.uleb128 0x13
 1629 00e1 0D       		.uleb128 0xd
 1630 00e2 00       		.byte	0
 1631 00e3 03       		.uleb128 0x3
 1632 00e4 0E       		.uleb128 0xe
 1633 00e5 3A       		.uleb128 0x3a
 1634 00e6 0B       		.uleb128 0xb
 1635 00e7 3B       		.uleb128 0x3b
 1636 00e8 05       		.uleb128 0x5
 1637 00e9 49       		.uleb128 0x49
 1638 00ea 13       		.uleb128 0x13
 1639 00eb 00       		.byte	0
 1640 00ec 00       		.byte	0
 1641 00ed 14       		.uleb128 0x14
 1642 00ee 26       		.uleb128 0x26
 1643 00ef 00       		.byte	0
 1644 00f0 49       		.uleb128 0x49
 1645 00f1 13       		.uleb128 0x13
 1646 00f2 00       		.byte	0
 1647 00f3 00       		.byte	0
 1648 00f4 15       		.uleb128 0x15
 1649 00f5 01       		.uleb128 0x1
 1650 00f6 01       		.byte	0x1
 1651 00f7 49       		.uleb128 0x49
 1652 00f8 13       		.uleb128 0x13
 1653 00f9 01       		.uleb128 0x1
 1654 00fa 13       		.uleb128 0x13
 1655 00fb 00       		.byte	0
 1656 00fc 00       		.byte	0
 1657 00fd 16       		.uleb128 0x16
 1658 00fe 21       		.uleb128 0x21
 1659 00ff 00       		.byte	0
 1660 0100 49       		.uleb128 0x49
 1661 0101 13       		.uleb128 0x13
 1662 0102 2F       		.uleb128 0x2f
 1663 0103 0B       		.uleb128 0xb
 1664 0104 00       		.byte	0
 1665 0105 00       		.byte	0
ARM GAS  /var/folders/c6/c789hm653lg9vtl73krp73tm0000gn/T//ccdT9yKN.s 			page 42


 1666 0106 17       		.uleb128 0x17
 1667 0107 0D       		.uleb128 0xd
 1668 0108 00       		.byte	0
 1669 0109 03       		.uleb128 0x3
 1670 010a 08       		.uleb128 0x8
 1671 010b 3A       		.uleb128 0x3a
 1672 010c 0B       		.uleb128 0xb
 1673 010d 3B       		.uleb128 0x3b
 1674 010e 0B       		.uleb128 0xb
 1675 010f 49       		.uleb128 0x49
 1676 0110 13       		.uleb128 0x13
 1677 0111 00       		.byte	0
 1678 0112 00       		.byte	0
 1679 0113 18       		.uleb128 0x18
 1680 0114 16       		.uleb128 0x16
 1681 0115 00       		.byte	0
 1682 0116 03       		.uleb128 0x3
 1683 0117 0E       		.uleb128 0xe
 1684 0118 3A       		.uleb128 0x3a
 1685 0119 0B       		.uleb128 0xb
 1686 011a 3B       		.uleb128 0x3b
 1687 011b 05       		.uleb128 0x5
 1688 011c 49       		.uleb128 0x49
 1689 011d 13       		.uleb128 0x13
 1690 011e 00       		.byte	0
 1691 011f 00       		.byte	0
 1692 0120 19       		.uleb128 0x19
 1693 0121 2E       		.uleb128 0x2e
 1694 0122 01       		.byte	0x1
 1695 0123 3F       		.uleb128 0x3f
 1696 0124 19       		.uleb128 0x19
 1697 0125 03       		.uleb128 0x3
 1698 0126 0E       		.uleb128 0xe
 1699 0127 3A       		.uleb128 0x3a
 1700 0128 0B       		.uleb128 0xb
 1701 0129 3B       		.uleb128 0x3b
 1702 012a 0B       		.uleb128 0xb
 1703 012b 27       		.uleb128 0x27
 1704 012c 19       		.uleb128 0x19
 1705 012d 49       		.uleb128 0x49
 1706 012e 13       		.uleb128 0x13
 1707 012f 11       		.uleb128 0x11
 1708 0130 01       		.uleb128 0x1
 1709 0131 12       		.uleb128 0x12
 1710 0132 06       		.uleb128 0x6
 1711 0133 40       		.uleb128 0x40
 1712 0134 18       		.uleb128 0x18
 1713 0135 9742     		.uleb128 0x2117
 1714 0137 19       		.uleb128 0x19
 1715 0138 01       		.uleb128 0x1
 1716 0139 13       		.uleb128 0x13
 1717 013a 00       		.byte	0
 1718 013b 00       		.byte	0
 1719 013c 1A       		.uleb128 0x1a
 1720 013d 05       		.uleb128 0x5
 1721 013e 00       		.byte	0
 1722 013f 03       		.uleb128 0x3
ARM GAS  /var/folders/c6/c789hm653lg9vtl73krp73tm0000gn/T//ccdT9yKN.s 			page 43


 1723 0140 08       		.uleb128 0x8
 1724 0141 3A       		.uleb128 0x3a
 1725 0142 0B       		.uleb128 0xb
 1726 0143 3B       		.uleb128 0x3b
 1727 0144 0B       		.uleb128 0xb
 1728 0145 49       		.uleb128 0x49
 1729 0146 13       		.uleb128 0x13
 1730 0147 02       		.uleb128 0x2
 1731 0148 17       		.uleb128 0x17
 1732 0149 00       		.byte	0
 1733 014a 00       		.byte	0
 1734 014b 1B       		.uleb128 0x1b
 1735 014c 34       		.uleb128 0x34
 1736 014d 00       		.byte	0
 1737 014e 03       		.uleb128 0x3
 1738 014f 0E       		.uleb128 0xe
 1739 0150 49       		.uleb128 0x49
 1740 0151 13       		.uleb128 0x13
 1741 0152 34       		.uleb128 0x34
 1742 0153 19       		.uleb128 0x19
 1743 0154 00       		.byte	0
 1744 0155 00       		.byte	0
 1745 0156 1C       		.uleb128 0x1c
 1746 0157 2E       		.uleb128 0x2e
 1747 0158 01       		.byte	0x1
 1748 0159 3F       		.uleb128 0x3f
 1749 015a 19       		.uleb128 0x19
 1750 015b 03       		.uleb128 0x3
 1751 015c 0E       		.uleb128 0xe
 1752 015d 3A       		.uleb128 0x3a
 1753 015e 0B       		.uleb128 0xb
 1754 015f 3B       		.uleb128 0x3b
 1755 0160 0B       		.uleb128 0xb
 1756 0161 27       		.uleb128 0x27
 1757 0162 19       		.uleb128 0x19
 1758 0163 11       		.uleb128 0x11
 1759 0164 01       		.uleb128 0x1
 1760 0165 12       		.uleb128 0x12
 1761 0166 06       		.uleb128 0x6
 1762 0167 40       		.uleb128 0x40
 1763 0168 18       		.uleb128 0x18
 1764 0169 9742     		.uleb128 0x2117
 1765 016b 19       		.uleb128 0x19
 1766 016c 01       		.uleb128 0x1
 1767 016d 13       		.uleb128 0x13
 1768 016e 00       		.byte	0
 1769 016f 00       		.byte	0
 1770 0170 1D       		.uleb128 0x1d
 1771 0171 05       		.uleb128 0x5
 1772 0172 00       		.byte	0
 1773 0173 03       		.uleb128 0x3
 1774 0174 0E       		.uleb128 0xe
 1775 0175 3A       		.uleb128 0x3a
 1776 0176 0B       		.uleb128 0xb
 1777 0177 3B       		.uleb128 0x3b
 1778 0178 0B       		.uleb128 0xb
 1779 0179 49       		.uleb128 0x49
ARM GAS  /var/folders/c6/c789hm653lg9vtl73krp73tm0000gn/T//ccdT9yKN.s 			page 44


 1780 017a 13       		.uleb128 0x13
 1781 017b 02       		.uleb128 0x2
 1782 017c 18       		.uleb128 0x18
 1783 017d 00       		.byte	0
 1784 017e 00       		.byte	0
 1785 017f 1E       		.uleb128 0x1e
 1786 0180 05       		.uleb128 0x5
 1787 0181 00       		.byte	0
 1788 0182 03       		.uleb128 0x3
 1789 0183 0E       		.uleb128 0xe
 1790 0184 3A       		.uleb128 0x3a
 1791 0185 0B       		.uleb128 0xb
 1792 0186 3B       		.uleb128 0x3b
 1793 0187 0B       		.uleb128 0xb
 1794 0188 49       		.uleb128 0x49
 1795 0189 13       		.uleb128 0x13
 1796 018a 02       		.uleb128 0x2
 1797 018b 17       		.uleb128 0x17
 1798 018c 00       		.byte	0
 1799 018d 00       		.byte	0
 1800 018e 1F       		.uleb128 0x1f
 1801 018f 898201   		.uleb128 0x4109
 1802 0192 01       		.byte	0x1
 1803 0193 11       		.uleb128 0x11
 1804 0194 01       		.uleb128 0x1
 1805 0195 9542     		.uleb128 0x2115
 1806 0197 19       		.uleb128 0x19
 1807 0198 31       		.uleb128 0x31
 1808 0199 13       		.uleb128 0x13
 1809 019a 00       		.byte	0
 1810 019b 00       		.byte	0
 1811 019c 20       		.uleb128 0x20
 1812 019d 8A8201   		.uleb128 0x410a
 1813 01a0 00       		.byte	0
 1814 01a1 02       		.uleb128 0x2
 1815 01a2 18       		.uleb128 0x18
 1816 01a3 9142     		.uleb128 0x2111
 1817 01a5 18       		.uleb128 0x18
 1818 01a6 00       		.byte	0
 1819 01a7 00       		.byte	0
 1820 01a8 21       		.uleb128 0x21
 1821 01a9 34       		.uleb128 0x34
 1822 01aa 00       		.byte	0
 1823 01ab 03       		.uleb128 0x3
 1824 01ac 0E       		.uleb128 0xe
 1825 01ad 3A       		.uleb128 0x3a
 1826 01ae 0B       		.uleb128 0xb
 1827 01af 3B       		.uleb128 0x3b
 1828 01b0 05       		.uleb128 0x5
 1829 01b1 49       		.uleb128 0x49
 1830 01b2 13       		.uleb128 0x13
 1831 01b3 3F       		.uleb128 0x3f
 1832 01b4 19       		.uleb128 0x19
 1833 01b5 3C       		.uleb128 0x3c
 1834 01b6 19       		.uleb128 0x19
 1835 01b7 00       		.byte	0
 1836 01b8 00       		.byte	0
ARM GAS  /var/folders/c6/c789hm653lg9vtl73krp73tm0000gn/T//ccdT9yKN.s 			page 45


 1837 01b9 22       		.uleb128 0x22
 1838 01ba 34       		.uleb128 0x34
 1839 01bb 00       		.byte	0
 1840 01bc 03       		.uleb128 0x3
 1841 01bd 08       		.uleb128 0x8
 1842 01be 3A       		.uleb128 0x3a
 1843 01bf 0B       		.uleb128 0xb
 1844 01c0 3B       		.uleb128 0x3b
 1845 01c1 05       		.uleb128 0x5
 1846 01c2 49       		.uleb128 0x49
 1847 01c3 13       		.uleb128 0x13
 1848 01c4 3F       		.uleb128 0x3f
 1849 01c5 19       		.uleb128 0x19
 1850 01c6 3C       		.uleb128 0x3c
 1851 01c7 19       		.uleb128 0x19
 1852 01c8 00       		.byte	0
 1853 01c9 00       		.byte	0
 1854 01ca 23       		.uleb128 0x23
 1855 01cb 2E       		.uleb128 0x2e
 1856 01cc 01       		.byte	0x1
 1857 01cd 3F       		.uleb128 0x3f
 1858 01ce 19       		.uleb128 0x19
 1859 01cf 03       		.uleb128 0x3
 1860 01d0 0E       		.uleb128 0xe
 1861 01d1 3A       		.uleb128 0x3a
 1862 01d2 0B       		.uleb128 0xb
 1863 01d3 3B       		.uleb128 0x3b
 1864 01d4 05       		.uleb128 0x5
 1865 01d5 27       		.uleb128 0x27
 1866 01d6 19       		.uleb128 0x19
 1867 01d7 3C       		.uleb128 0x3c
 1868 01d8 19       		.uleb128 0x19
 1869 01d9 00       		.byte	0
 1870 01da 00       		.byte	0
 1871 01db 00       		.byte	0
 1872              		.section	.debug_loc,"",%progbits
 1873              	.Ldebug_loc0:
 1874              	.LLST0:
 1875 0000 00000000 		.4byte	.LVL0
 1876 0004 0C000000 		.4byte	.LVL1
 1877 0008 0100     		.2byte	0x1
 1878 000a 50       		.byte	0x50
 1879 000b 0C000000 		.4byte	.LVL1
 1880 000f 10000000 		.4byte	.LFE260
 1881 0013 0400     		.2byte	0x4
 1882 0015 F3       		.byte	0xf3
 1883 0016 01       		.uleb128 0x1
 1884 0017 50       		.byte	0x50
 1885 0018 9F       		.byte	0x9f
 1886 0019 00000000 		.4byte	0
 1887 001d 00000000 		.4byte	0
 1888              	.LLST1:
 1889 0021 00000000 		.4byte	.LVL2
 1890 0025 02000000 		.4byte	.LVL3
 1891 0029 0100     		.2byte	0x1
 1892 002b 50       		.byte	0x50
 1893 002c 02000000 		.4byte	.LVL3
ARM GAS  /var/folders/c6/c789hm653lg9vtl73krp73tm0000gn/T//ccdT9yKN.s 			page 46


 1894 0030 1E000000 		.4byte	.LFE261
 1895 0034 0400     		.2byte	0x4
 1896 0036 F3       		.byte	0xf3
 1897 0037 01       		.uleb128 0x1
 1898 0038 50       		.byte	0x50
 1899 0039 9F       		.byte	0x9f
 1900 003a 00000000 		.4byte	0
 1901 003e 00000000 		.4byte	0
 1902              	.LLST2:
 1903 0042 00000000 		.4byte	.LVL4
 1904 0046 0A000000 		.4byte	.LVL6
 1905 004a 0100     		.2byte	0x1
 1906 004c 50       		.byte	0x50
 1907 004d 0A000000 		.4byte	.LVL6
 1908 0051 16000000 		.4byte	.LFE262
 1909 0055 0400     		.2byte	0x4
 1910 0057 F3       		.byte	0xf3
 1911 0058 01       		.uleb128 0x1
 1912 0059 50       		.byte	0x50
 1913 005a 9F       		.byte	0x9f
 1914 005b 00000000 		.4byte	0
 1915 005f 00000000 		.4byte	0
 1916              	.LLST3:
 1917 0063 00000000 		.4byte	.LVL4
 1918 0067 08000000 		.4byte	.LVL5
 1919 006b 0100     		.2byte	0x1
 1920 006d 51       		.byte	0x51
 1921 006e 08000000 		.4byte	.LVL5
 1922 0072 15000000 		.4byte	.LVL7-1
 1923 0076 0100     		.2byte	0x1
 1924 0078 52       		.byte	0x52
 1925 0079 15000000 		.4byte	.LVL7-1
 1926 007d 16000000 		.4byte	.LFE262
 1927 0081 0400     		.2byte	0x4
 1928 0083 F3       		.byte	0xf3
 1929 0084 01       		.uleb128 0x1
 1930 0085 51       		.byte	0x51
 1931 0086 9F       		.byte	0x9f
 1932 0087 00000000 		.4byte	0
 1933 008b 00000000 		.4byte	0
 1934              		.section	.debug_aranges,"",%progbits
 1935 0000 2C000000 		.4byte	0x2c
 1936 0004 0200     		.2byte	0x2
 1937 0006 00000000 		.4byte	.Ldebug_info0
 1938 000a 04       		.byte	0x4
 1939 000b 00       		.byte	0
 1940 000c 0000     		.2byte	0
 1941 000e 0000     		.2byte	0
 1942 0010 00000000 		.4byte	.LFB260
 1943 0014 10000000 		.4byte	.LFE260-.LFB260
 1944 0018 00000000 		.4byte	.LFB261
 1945 001c 1E000000 		.4byte	.LFE261-.LFB261
 1946 0020 00000000 		.4byte	.LFB262
 1947 0024 16000000 		.4byte	.LFE262-.LFB262
 1948 0028 00000000 		.4byte	0
 1949 002c 00000000 		.4byte	0
 1950              		.section	.debug_ranges,"",%progbits
ARM GAS  /var/folders/c6/c789hm653lg9vtl73krp73tm0000gn/T//ccdT9yKN.s 			page 47


 1951              	.Ldebug_ranges0:
 1952 0000 00000000 		.4byte	.LFB260
 1953 0004 10000000 		.4byte	.LFE260
 1954 0008 00000000 		.4byte	.LFB261
 1955 000c 1E000000 		.4byte	.LFE261
 1956 0010 00000000 		.4byte	.LFB262
 1957 0014 16000000 		.4byte	.LFE262
 1958 0018 00000000 		.4byte	0
 1959 001c 00000000 		.4byte	0
 1960              		.section	.debug_line,"",%progbits
 1961              	.Ldebug_line0:
 1962 0000 61020000 		.section	.debug_str,"MS",%progbits,1
 1962      02002102 
 1962      00000201 
 1962      FB0E0D00 
 1962      01010101 
 1963              	.LASF129:
 1964 0000 474E5520 		.ascii	"GNU C 4.8.4 20140725 (release) [ARM/embedded-4_8-br"
 1964      4320342E 
 1964      382E3420 
 1964      32303134 
 1964      30373235 
 1965 0033 616E6368 		.ascii	"anch revision 213147] -mcpu=cortex-m4 -mno-thumb-in"
 1965      20726576 
 1965      6973696F 
 1965      6E203231 
 1965      33313437 
 1966 0066 74657277 		.ascii	"terwork -mthumb -ggdb -O2 -fomit-frame-pointer -fal"
 1966      6F726B20 
 1966      2D6D7468 
 1966      756D6220 
 1966      2D676764 
 1967 0099 69676E2D 		.ascii	"ign-functions=16 -ffunction-sections -fdata-section"
 1967      66756E63 
 1967      74696F6E 
 1967      733D3136 
 1967      202D6666 
 1968 00cc 73202D66 		.ascii	"s -fno-common -flto\000"
 1968      6E6F2D63 
 1968      6F6D6D6F 
 1968      6E202D66 
 1968      6C746F00 
 1969              	.LASF53:
 1970 00e0 72656164 		.ascii	"ready_list_t\000"
 1970      795F6C69 
 1970      73745F74 
 1970      00
 1971              	.LASF91:
 1972 00ed 77747472 		.ascii	"wttrp\000"
 1972      7000
 1973              	.LASF88:
 1974 00f3 7264796D 		.ascii	"rdymsg\000"
 1974      736700
 1975              	.LASF18:
 1976 00fa 75696E74 		.ascii	"uint64_t\000"
 1976      36345F74 
 1976      00
ARM GAS  /var/folders/c6/c789hm653lg9vtl73krp73tm0000gn/T//ccdT9yKN.s 			page 48


 1977              	.LASF4:
 1978 0103 5F5F7569 		.ascii	"__uint8_t\000"
 1978      6E74385F 
 1978      7400
 1979              	.LASF107:
 1980 010d 4F545950 		.ascii	"OTYPER\000"
 1980      455200
 1981              	.LASF85:
 1982 0114 706F7274 		.ascii	"port_intctx\000"
 1982      5F696E74 
 1982      63747800 
 1983              	.LASF72:
 1984 0120 73797374 		.ascii	"system_debug_t\000"
 1984      656D5F64 
 1984      65627567 
 1984      5F7400
 1985              	.LASF115:
 1986 012f 696F706F 		.ascii	"ioportmask_t\000"
 1986      72746D61 
 1986      736B5F74 
 1986      00
 1987              	.LASF106:
 1988 013c 4D4F4445 		.ascii	"MODER\000"
 1988      5200
 1989              	.LASF13:
 1990 0142 6C6F6E67 		.ascii	"long long unsigned int\000"
 1990      206C6F6E 
 1990      6720756E 
 1990      7369676E 
 1990      65642069 
 1991              	.LASF109:
 1992 0159 50555044 		.ascii	"PUPDR\000"
 1992      5200
 1993              	.LASF89:
 1994 015f 65786974 		.ascii	"exitcode\000"
 1994      636F6465 
 1994      00
 1995              	.LASF79:
 1996 0168 6D61696E 		.ascii	"mainthread\000"
 1996      74687265 
 1996      616400
 1997              	.LASF69:
 1998 0173 76697274 		.ascii	"virtual_timers_list_t\000"
 1998      75616C5F 
 1998      74696D65 
 1998      72735F6C 
 1998      6973745F 
 1999              	.LASF128:
 2000 0189 49544D5F 		.ascii	"ITM_RxBuffer\000"
 2000      52784275 
 2000      66666572 
 2000      00
 2001              	.LASF52:
 2002 0196 63685F74 		.ascii	"ch_threads_queue\000"
 2002      68726561 
 2002      64735F71 
 2002      75657565 
ARM GAS  /var/folders/c6/c789hm653lg9vtl73krp73tm0000gn/T//ccdT9yKN.s 			page 49


 2002      00
 2003              	.LASF32:
 2004 01a7 705F7072 		.ascii	"p_prio\000"
 2004      696F00
 2005              	.LASF11:
 2006 01ae 6C6F6E67 		.ascii	"long long int\000"
 2006      206C6F6E 
 2006      6720696E 
 2006      7400
 2007              	.LASF1:
 2008 01bc 7369676E 		.ascii	"signed char\000"
 2008      65642063 
 2008      68617200 
 2009              	.LASF110:
 2010 01c8 42535252 		.ascii	"BSRR\000"
 2010      00
 2011              	.LASF46:
 2012 01cd 705F6D70 		.ascii	"p_mpool\000"
 2012      6F6F6C00 
 2013              	.LASF99:
 2014 01d5 6D5F7175 		.ascii	"m_queue\000"
 2014      65756500 
 2015              	.LASF78:
 2016 01dd 76746C69 		.ascii	"vtlist\000"
 2016      737400
 2017              	.LASF121:
 2018 01e4 62697473 		.ascii	"bits\000"
 2018      00
 2019              	.LASF8:
 2020 01e9 6C6F6E67 		.ascii	"long int\000"
 2020      20696E74 
 2020      00
 2021              	.LASF127:
 2022 01f2 5F5F6675 		.ascii	"__func__.7244\000"
 2022      6E635F5F 
 2022      2E373234 
 2022      3400
 2023              	.LASF22:
 2024 0200 74737461 		.ascii	"tstate_t\000"
 2024      74655F74 
 2024      00
 2025              	.LASF15:
 2026 0209 75696E74 		.ascii	"uint16_t\000"
 2026      31365F74 
 2026      00
 2027              	.LASF34:
 2028 0212 705F6E65 		.ascii	"p_newer\000"
 2028      77657200 
 2029              	.LASF96:
 2030 021a 735F7175 		.ascii	"s_queue\000"
 2030      65756500 
 2031              	.LASF130:
 2032 0222 2E2E2F2E 		.ascii	"../../../os/hal/src/pal.c\000"
 2032      2E2F2E2E 
 2032      2F6F732F 
 2032      68616C2F 
 2032      7372632F 
ARM GAS  /var/folders/c6/c789hm653lg9vtl73krp73tm0000gn/T//ccdT9yKN.s 			page 50


 2033              	.LASF108:
 2034 023c 4F535045 		.ascii	"OSPEEDR\000"
 2034      45445200 
 2035              	.LASF58:
 2036 0244 725F6E65 		.ascii	"r_newer\000"
 2036      77657200 
 2037              	.LASF119:
 2038 024c 6D61736B 		.ascii	"mask\000"
 2038      00
 2039              	.LASF82:
 2040 0251 72656761 		.ascii	"regarm_t\000"
 2040      726D5F74 
 2040      00
 2041              	.LASF65:
 2042 025a 76745F70 		.ascii	"vt_prev\000"
 2042      72657600 
 2043              	.LASF114:
 2044 0262 73746D33 		.ascii	"stm32_gpio_t\000"
 2044      325F6770 
 2044      696F5F74 
 2044      00
 2045              	.LASF103:
 2046 026f 6D757465 		.ascii	"mutex_t\000"
 2046      785F7400 
 2047              	.LASF120:
 2048 0277 494F4275 		.ascii	"IOBus\000"
 2048      7300
 2049              	.LASF27:
 2050 027d 636E745F 		.ascii	"cnt_t\000"
 2050      7400
 2051              	.LASF0:
 2052 0283 756E7369 		.ascii	"unsigned int\000"
 2052      676E6564 
 2052      20696E74 
 2052      00
 2053              	.LASF64:
 2054 0290 76745F6E 		.ascii	"vt_next\000"
 2054      65787400 
 2055              	.LASF92:
 2056 0298 77747365 		.ascii	"wtsemp\000"
 2056      6D7000
 2057              	.LASF41:
 2058 029f 705F6D73 		.ascii	"p_msgqueue\000"
 2058      67717565 
 2058      756500
 2059              	.LASF111:
 2060 02aa 4C434B52 		.ascii	"LCKR\000"
 2060      00
 2061              	.LASF97:
 2062 02af 735F636E 		.ascii	"s_cnt\000"
 2062      7400
 2063              	.LASF6:
 2064 02b5 73686F72 		.ascii	"short unsigned int\000"
 2064      7420756E 
 2064      7369676E 
 2064      65642069 
 2064      6E7400
ARM GAS  /var/folders/c6/c789hm653lg9vtl73krp73tm0000gn/T//ccdT9yKN.s 			page 51


 2065              	.LASF49:
 2066 02c8 63685F74 		.ascii	"ch_thread\000"
 2066      68726561 
 2066      6400
 2067              	.LASF25:
 2068 02d2 6D73675F 		.ascii	"msg_t\000"
 2068      7400
 2069              	.LASF75:
 2070 02d8 63685F73 		.ascii	"ch_system_t\000"
 2070      79737465 
 2070      6D5F7400 
 2071              	.LASF21:
 2072 02e4 746D6F64 		.ascii	"tmode_t\000"
 2072      655F7400 
 2073              	.LASF54:
 2074 02ec 63685F72 		.ascii	"ch_ready_list\000"
 2074      65616479 
 2074      5F6C6973 
 2074      7400
 2075              	.LASF26:
 2076 02fa 6576656E 		.ascii	"eventmask_t\000"
 2076      746D6173 
 2076      6B5F7400 
 2077              	.LASF7:
 2078 0306 5F5F696E 		.ascii	"__int32_t\000"
 2078      7433325F 
 2078      7400
 2079              	.LASF83:
 2080 0310 73746B61 		.ascii	"stkalign_t\000"
 2080      6C69676E 
 2080      5F7400
 2081              	.LASF12:
 2082 031b 5F5F7569 		.ascii	"__uint64_t\000"
 2082      6E743634 
 2082      5F7400
 2083              	.LASF40:
 2084 0326 705F7761 		.ascii	"p_waiting\000"
 2084      6974696E 
 2084      6700
 2085              	.LASF81:
 2086 0330 73697A65 		.ascii	"sizetype\000"
 2086      74797065 
 2086      00
 2087              	.LASF47:
 2088 0339 74687265 		.ascii	"thread_reference_t\000"
 2088      61645F72 
 2088      65666572 
 2088      656E6365 
 2088      5F7400
 2089              	.LASF70:
 2090 034c 63685F76 		.ascii	"ch_virtual_timers_list\000"
 2090      69727475 
 2090      616C5F74 
 2090      696D6572 
 2090      735F6C69 
 2091              	.LASF105:
 2092 0363 636C6561 		.ascii	"clear\000"
ARM GAS  /var/folders/c6/c789hm653lg9vtl73krp73tm0000gn/T//ccdT9yKN.s 			page 52


 2092      7200
 2093              	.LASF71:
 2094 0369 76745F6C 		.ascii	"vt_lasttime\000"
 2094      61737474 
 2094      696D6500 
 2095              	.LASF35:
 2096 0375 705F6F6C 		.ascii	"p_older\000"
 2096      64657200 
 2097              	.LASF57:
 2098 037d 725F6374 		.ascii	"r_ctx\000"
 2098      7800
 2099              	.LASF87:
 2100 0383 746D5F63 		.ascii	"tm_calibration_t\000"
 2100      616C6962 
 2100      72617469 
 2100      6F6E5F74 
 2100      00
 2101              	.LASF60:
 2102 0394 725F6375 		.ascii	"r_current\000"
 2102      7272656E 
 2102      7400
 2103              	.LASF59:
 2104 039e 725F6F6C 		.ascii	"r_older\000"
 2104      64657200 
 2105              	.LASF118:
 2106 03a6 706F7274 		.ascii	"portid\000"
 2106      696400
 2107              	.LASF113:
 2108 03ad 41465248 		.ascii	"AFRH\000"
 2108      00
 2109              	.LASF125:
 2110 03b2 70616C53 		.ascii	"palSetBusMode\000"
 2110      65744275 
 2110      734D6F64 
 2110      6500
 2111              	.LASF112:
 2112 03c0 4146524C 		.ascii	"AFRL\000"
 2112      00
 2113              	.LASF23:
 2114 03c5 74726566 		.ascii	"trefs_t\000"
 2114      735F7400 
 2115              	.LASF62:
 2116 03cd 76697274 		.ascii	"virtual_timer_t\000"
 2116      75616C5F 
 2116      74696D65 
 2116      725F7400 
 2117              	.LASF31:
 2118 03dd 705F7072 		.ascii	"p_prev\000"
 2118      657600
 2119              	.LASF24:
 2120 03e4 74707269 		.ascii	"tprio_t\000"
 2120      6F5F7400 
 2121              	.LASF73:
 2122 03ec 63685F73 		.ascii	"ch_system_debug\000"
 2122      79737465 
 2122      6D5F6465 
 2122      62756700 
ARM GAS  /var/folders/c6/c789hm653lg9vtl73krp73tm0000gn/T//ccdT9yKN.s 			page 53


 2123              	.LASF104:
 2124 03fc 5F426F6F 		.ascii	"_Bool\000"
 2124      6C00
 2125              	.LASF16:
 2126 0402 696E7433 		.ascii	"int32_t\000"
 2126      325F7400 
 2127              	.LASF2:
 2128 040a 756E7369 		.ascii	"unsigned char\000"
 2128      676E6564 
 2128      20636861 
 2128      7200
 2129              	.LASF44:
 2130 0418 705F6D74 		.ascii	"p_mtxlist\000"
 2130      786C6973 
 2130      7400
 2131              	.LASF3:
 2132 0422 73686F72 		.ascii	"short int\000"
 2132      7420696E 
 2132      7400
 2133              	.LASF37:
 2134 042c 705F7374 		.ascii	"p_state\000"
 2134      61746500 
 2135              	.LASF56:
 2136 0434 725F7072 		.ascii	"r_prio\000"
 2136      696F00
 2137              	.LASF94:
 2138 043b 65776D61 		.ascii	"ewmask\000"
 2138      736B00
 2139              	.LASF30:
 2140 0442 705F6E65 		.ascii	"p_next\000"
 2140      787400
 2141              	.LASF19:
 2142 0449 75696E74 		.ascii	"uint_fast8_t\000"
 2142      5F666173 
 2142      74385F74 
 2142      00
 2143              	.LASF38:
 2144 0456 705F666C 		.ascii	"p_flags\000"
 2144      61677300 
 2145              	.LASF80:
 2146 045e 69646C65 		.ascii	"idle_thread_wa\000"
 2146      5F746872 
 2146      6561645F 
 2146      776100
 2147              	.LASF76:
 2148 046d 63685F73 		.ascii	"ch_system\000"
 2148      79737465 
 2148      6D00
 2149              	.LASF63:
 2150 0477 63685F76 		.ascii	"ch_virtual_timer\000"
 2150      69727475 
 2150      616C5F74 
 2150      696D6572 
 2150      00
 2151              	.LASF95:
 2152 0488 63685F73 		.ascii	"ch_semaphore\000"
 2152      656D6170 
ARM GAS  /var/folders/c6/c789hm653lg9vtl73krp73tm0000gn/T//ccdT9yKN.s 			page 54


 2152      686F7265 
 2152      00
 2153              	.LASF43:
 2154 0495 705F6570 		.ascii	"p_epending\000"
 2154      656E6469 
 2154      6E6700
 2155              	.LASF17:
 2156 04a0 75696E74 		.ascii	"uint32_t\000"
 2156      33325F74 
 2156      00
 2157              	.LASF93:
 2158 04a9 77746D74 		.ascii	"wtmtxp\000"
 2158      787000
 2159              	.LASF55:
 2160 04b0 725F7175 		.ascii	"r_queue\000"
 2160      65756500 
 2161              	.LASF66:
 2162 04b8 76745F64 		.ascii	"vt_delta\000"
 2162      656C7461 
 2162      00
 2163              	.LASF50:
 2164 04c1 63685F74 		.ascii	"ch_threads_list\000"
 2164      68726561 
 2164      64735F6C 
 2164      69737400 
 2165              	.LASF10:
 2166 04d1 6C6F6E67 		.ascii	"long unsigned int\000"
 2166      20756E73 
 2166      69676E65 
 2166      6420696E 
 2166      7400
 2167              	.LASF131:
 2168 04e3 2F557365 		.ascii	"/Users/savonetj/Downloads/ChibiOS_3.0.2/demos/STM32"
 2168      72732F73 
 2168      61766F6E 
 2168      65746A2F 
 2168      446F776E 
 2169 0516 2F52542D 		.ascii	"/RT-STM32F407-DISCOVERY\000"
 2169      53544D33 
 2169      32463430 
 2169      372D4449 
 2169      53434F56 
 2170              	.LASF102:
 2171 052e 63686172 		.ascii	"char\000"
 2171      00
 2172              	.LASF126:
 2173 0533 6D6F6465 		.ascii	"mode\000"
 2173      00
 2174              	.LASF132:
 2175 0538 70616C52 		.ascii	"palReadBus\000"
 2175      65616442 
 2175      757300
 2176              	.LASF5:
 2177 0543 5F5F7569 		.ascii	"__uint16_t\000"
 2177      6E743136 
 2177      5F7400
 2178              	.LASF29:
ARM GAS  /var/folders/c6/c789hm653lg9vtl73krp73tm0000gn/T//ccdT9yKN.s 			page 55


 2179 054e 74687265 		.ascii	"thread_t\000"
 2179      61645F74 
 2179      00
 2180              	.LASF101:
 2181 0557 6D5F6E65 		.ascii	"m_next\000"
 2181      787400
 2182              	.LASF28:
 2183 055e 73797374 		.ascii	"systime_t\000"
 2183      696D655F 
 2183      7400
 2184              	.LASF45:
 2185 0568 705F7265 		.ascii	"p_realprio\000"
 2185      616C7072 
 2185      696F00
 2186              	.LASF61:
 2187 0573 76746675 		.ascii	"vtfunc_t\000"
 2187      6E635F74 
 2187      00
 2188              	.LASF9:
 2189 057c 5F5F7569 		.ascii	"__uint32_t\000"
 2189      6E743332 
 2189      5F7400
 2190              	.LASF74:
 2191 0587 70616E69 		.ascii	"panic_msg\000"
 2191      635F6D73 
 2191      6700
 2192              	.LASF86:
 2193 0591 6F666673 		.ascii	"offset\000"
 2193      657400
 2194              	.LASF117:
 2195 0598 696F706F 		.ascii	"ioportid_t\000"
 2195      72746964 
 2195      5F7400
 2196              	.LASF84:
 2197 05a3 636F6E74 		.ascii	"context\000"
 2197      65787400 
 2198              	.LASF133:
 2199 05ab 5F70616C 		.ascii	"_pal_lld_setgroupmode\000"
 2199      5F6C6C64 
 2199      5F736574 
 2199      67726F75 
 2199      706D6F64 
 2200              	.LASF20:
 2201 05c1 7274636E 		.ascii	"rtcnt_t\000"
 2201      745F7400 
 2202              	.LASF68:
 2203 05c9 76745F70 		.ascii	"vt_par\000"
 2203      617200
 2204              	.LASF124:
 2205 05d0 70616C57 		.ascii	"palWriteBus\000"
 2205      72697465 
 2205      42757300 
 2206              	.LASF51:
 2207 05dc 74687265 		.ascii	"threads_queue_t\000"
 2207      6164735F 
 2207      71756575 
 2207      655F7400 
ARM GAS  /var/folders/c6/c789hm653lg9vtl73krp73tm0000gn/T//ccdT9yKN.s 			page 56


 2208              	.LASF98:
 2209 05ec 63685F6D 		.ascii	"ch_mutex\000"
 2209      75746578 
 2209      00
 2210              	.LASF39:
 2211 05f5 705F7265 		.ascii	"p_refs\000"
 2211      667300
 2212              	.LASF77:
 2213 05fc 726C6973 		.ascii	"rlist\000"
 2213      7400
 2214              	.LASF14:
 2215 0602 75696E74 		.ascii	"uint8_t\000"
 2215      385F7400 
 2216              	.LASF122:
 2217 060a 5F5F6675 		.ascii	"__func__.7234\000"
 2217      6E635F5F 
 2217      2E373233 
 2217      3400
 2218              	.LASF123:
 2219 0618 5F5F6675 		.ascii	"__func__.7239\000"
 2219      6E635F5F 
 2219      2E373233 
 2219      3900
 2220              	.LASF90:
 2221 0626 77746F62 		.ascii	"wtobjp\000"
 2221      6A7000
 2222              	.LASF36:
 2223 062d 705F6E61 		.ascii	"p_name\000"
 2223      6D6500
 2224              	.LASF48:
 2225 0634 74687265 		.ascii	"threads_list_t\000"
 2225      6164735F 
 2225      6C697374 
 2225      5F7400
 2226              	.LASF42:
 2227 0643 705F6D73 		.ascii	"p_msg\000"
 2227      6700
 2228              	.LASF116:
 2229 0649 696F6D6F 		.ascii	"iomode_t\000"
 2229      64655F74 
 2229      00
 2230              	.LASF100:
 2231 0652 6D5F6F77 		.ascii	"m_owner\000"
 2231      6E657200 
 2232              	.LASF33:
 2233 065a 705F6374 		.ascii	"p_ctx\000"
 2233      7800
 2234              	.LASF67:
 2235 0660 76745F66 		.ascii	"vt_func\000"
 2235      756E6300 
 2236              		.comm	__gnu_lto_v1,1,1
 2237              		.ident	"GCC: (GNU Tools for ARM Embedded Processors) 4.8.4 20140725 (release) [ARM/embedded-4_8-br
ARM GAS  /var/folders/c6/c789hm653lg9vtl73krp73tm0000gn/T//ccdT9yKN.s 			page 57


DEFINED SYMBOLS
                            *ABS*:0000000000000000 pal.c
/var/folders/c6/c789hm653lg9vtl73krp73tm0000gn/T//ccdT9yKN.s:223    .text.palReadBus:0000000000000000 $t
/var/folders/c6/c789hm653lg9vtl73krp73tm0000gn/T//ccdT9yKN.s:229    .text.palReadBus:0000000000000000 palReadBus
/var/folders/c6/c789hm653lg9vtl73krp73tm0000gn/T//ccdT9yKN.s:252    .text.palWriteBus:0000000000000000 $t
/var/folders/c6/c789hm653lg9vtl73krp73tm0000gn/T//ccdT9yKN.s:258    .text.palWriteBus:0000000000000000 palWriteBus
/var/folders/c6/c789hm653lg9vtl73krp73tm0000gn/T//ccdT9yKN.s:289    .text.palSetBusMode:0000000000000000 $t
/var/folders/c6/c789hm653lg9vtl73krp73tm0000gn/T//ccdT9yKN.s:295    .text.palSetBusMode:0000000000000000 palSetBusMode
                            *COM*:0000000000000001 __gnu_lto_v1
                     .debug_frame:0000000000000010 $d

UNDEFINED SYMBOLS
_pal_lld_setgroupmode
