ARM GAS  /var/folders/c6/c789hm653lg9vtl73krp73tm0000gn/T//ccOmq6Sx.s 			page 1


   1              		.syntax unified
   2              		.cpu cortex-m4
   3              		.fpu softvfp
   4              		.eabi_attribute 20, 1
   5              		.eabi_attribute 21, 1
   6              		.eabi_attribute 23, 3
   7              		.eabi_attribute 24, 1
   8              		.eabi_attribute 25, 1
   9              		.eabi_attribute 26, 1
  10              		.eabi_attribute 30, 2
  11              		.eabi_attribute 34, 1
  12              		.eabi_attribute 18, 4
  13              		.thumb
  14              		.file	"pal_lld.c"
  15              		.text
  16              	.Ltext0:
  17              		.section	.gnu.lto_.jmpfuncs.25f6712759b6a374,"",%progbits
  18 0000 789C6362 		.ascii	"x\234cb`b\300\006\330\2404\023\003##;\003\000\001/\000"
  18      6062C006 
  18      D8A03413 
  18      0323233B 
  18      0300012F 
  19 0015 16       		.ascii	"\026"
  20              		.text
  21              		.section	.gnu.lto_.inline.25f6712759b6a374,"",%progbits
  22 0000 789C6362 		.ascii	"x\234cb`b\300\006vBi\240l;c\033##;\003#\003\003\263"
  22      6062C006 
  22      764269A0 
  22      6C3B631B 
  22      23233B03 
  23 0018 02987400 		.ascii	"\002\230t\000\223\011`\262\201\021L-\200P\007 \024\203"
  23      930960B2 
  23      81114C2D 
  23      80500720 
  23      1483
  24 002a C021C60B 		.ascii	"\300!\306\013\257\271\031\354\036\\afb`|\301\316\002"
  24      AFB919EC 
  24      1E5C6166 
  24      62607CC1 
  24      CE02
  25 003c 21410407 		.ascii	"!A\004\007\230\311\001\"\004\300L\001\020\241\000f*"
  25      98C90122 
  25      04C04C01 
  25      10A10066 
  25      2A
  26 004d 80080730 		.ascii	"\200\010\0070\323\001D402A(0\311\004\341\200\335\313"
  26      D3014434 
  26      30324128 
  26      30C904E1 
  26      80DDCB
  27 0060 C860B389 		.ascii	"\310`\263\211\211\221\221\011h\033\003sH\313y\005\006"
  27      89919109 
  27      681B0373 
  27      48CB7905 
  27      06
  28 0071 A1391781 		.ascii	"\2419\027\201v\011]\350ad\001;\034\000j\333\037\011"
  28      76095DE8 
ARM GAS  /var/folders/c6/c789hm653lg9vtl73krp73tm0000gn/T//ccOmq6Sx.s 			page 2


  28      6164013B 
  28      1C006ADB 
  28      1F09
  29              		.text
  30              		.section	.gnu.lto_.pureconst.25f6712759b6a374,"",%progbits
  31 0000 789C6362 		.ascii	"x\234cb`b`e\200\000&\006)F)\000\001\006\000A"
  31      60626065 
  31      80002606 
  31      29462900 
  31      01060041 
  32              		.text
  33              		.section	.gnu.lto__pal_lld_init.25f6712759b6a374,"",%progbits
  34 0000 789CB5DA 		.ascii	"x\234\265\332[l\024U\034\307\361sfwgg\357+\275\323\026"
  34      5B6C1455 
  34      1CC7F173 
  34      66776767 
  34      EF2BBDD3 
  35 0015 4AA1DC4A 		.ascii	"J\241\334J\273\364\002\224r+P(\205\2266\261&\032\037"
  35      BBF40294 
  35      722B5028 
  35      859636B1 
  35      261A1F
  36 0028 4CAD71DD 		.ascii	"L\255q\335\244\265\215(/>0\005B\232`\260!&\026y\201"
  36      A4B58D28 
  36      2F3E3005 
  36      429A60B0 
  36      21261679 
  37 003d A8504D04 		.ascii	"\250PM\004\324\227\032.6\204(\305@\252Bbx\320\"Qc$\201"
  37      D4971A2E 
  37      368428C5 
  37      40AA4262 
  37      78D02251 
  38 0054 17A19290 		.ascii	"\027\241\222\220:\377\371o;\377%\263{\226\354i\243\277"
  38      3AFFF96F 
  38      3BFF25B3 
  38      7B96EC69 
  38      A3BF
  39 0066 B6424F3F 		.ascii	"\266BO?\3353\375>\2510\205=\375V`\374\373r\005c\015"
  39      DD33FD3E 
  39      A930853D 
  39      FD5660FC 
  39      FB720563 
  40 007b C67BEE60 		.ascii	"\306{\356`\\\031\274\301X\277\246p\016\0370\316\366"
  40      5C19BCC1 
  40      58BFA670 
  40      0E1F30CE 
  40      F6
  41 008c 297CDF4B 		.ascii	")|\337K\334\374\273g\225\321\211\251\2513\223\337\235"
  41      DCFCBB67 
  41      95D189A9 
  41      A93393DF 
  41      9D
  42 009d B9C03F53 		.ascii	"\271\300?S\006\271\302b\2349`\\0*\214\306{8\233\003"
  42      06B9C262 
  42      9C39605C 
  42      302A8CC6 
  42      7B389B03 
ARM GAS  /var/folders/c6/c789hm653lg9vtl73krp73tm0000gn/T//ccOmq6Sx.s 			page 3


  43 00b1 1F65C164 		.ascii	"\037e\301d\303\344\300\344\302\344\301\344\303\024\300"
  43      C3E4C0E4 
  43      C2E4C1E4 
  43      C314C0
  44 00c0 CC852984 		.ascii	"\314\205)\204)\202)\206\231\0073\037\246\004f\001L)"
  44      29822986 
  44      9907331F 
  44      A6046601 
  44      4C29
  45 00d2 CC429845 		.ascii	"\314B\230E0e0\213a\226\300,\205Y\006\263\034\246\034"
  45      3065308B 
  45      6196C02C 
  45      855906B3 
  45      1CA61C
  46 00e5 66054C05 		.ascii	"f\005L\005L%L\004f%L\025L5L\015L-\314*\230\3250k`\352"
  46      4C254C04 
  46      66254C15 
  46      4C354C0D 
  46      4C2DCC2A 
  47 00ff 60D6C2D4 		.ascii	"`\326\302\324\303\254\203Y\017\263\001f#\314&\230\006"
  47      C3AC8359 
  47      0FB30166 
  47      23CC2698 
  47      06
  48 0110 98CD305B 		.ascii	"\230\3150[`\266\3024\302l\203\331\016\323\004\263\003"
  48      60B6C234 
  48      C26C83D9 
  48      0ED304B3 
  48      03
  49 0121 A6196627 		.ascii	"\246\031f'\314.\230\026\230V\230\3350m0\3550\306\233"
  49      CC2E9816 
  49      985698DD 
  49      306D30ED 
  49      30C69B
  50 0134 8B1DD4F5 		.ascii	"\213\035\324\365\301\022\306\272\314O;\214\205\273x"
  50      C112C6BA 
  50      CC4F3B8C 
  50      85BB78
  51 0143 C178BD8D 		.ascii	"\301x\275\215\367\216\353\354\362\355\221\207\343J'"
  51      F78EEBEC 
  51      F2ED9187 
  51      E34A27
  52 0152 3FC95D2C 		.ascii	"?\311],\312\225r\366\271~\260?\034\343\3748\373\210"
  52      CA9572F6 
  52      B97EB03F 
  52      1CE3FC38 
  52      FB88
  53 0164 C7B8F2A2 		.ascii	"\307\270\362\2421\016\375\301\200\356d\346\207\346\345"
  53      310EFDC1 
  53      80EE64E6 
  53      87E6E5
  54 0173 BDCAA7AF 		.ascii	"\275\312\247\257\374:;\360\215c\372\253\035Q\374\373"
  54      FC3A3BF0 
  54      8D63FAAB 
  54      1D51FCFB 
  55 0183 6CCA61FE 		.ascii	"l\312a\376\321\345f\374\223g;4\012\237\003\354\352\336"
  55      D1E566FC 
ARM GAS  /var/folders/c6/c789hm653lg9vtl73krp73tm0000gn/T//ccOmq6Sx.s 			page 4


  55      93673B34 
  55      0A9F03EC 
  55      EADE
  56 0195 E9835DE9 		.ascii	"\351\203]\351\236\300\355X\252q@&,\036g\251\214\215"
  56      9EC0ED58 
  56      AA714026 
  56      2C1E67A9 
  56      8C8D
  57 01a7 B1FD137F 		.ascii	"\261\375\023\177\337U\361\353{8\177\227=\326\215\003"
  57      DF55F1EB 
  57      7B387F97 
  57      3DD68D03 
  58 01b7 9C70D4A0 		.ascii	"\234p\324\240\256\277\023\343.<\313\370\236\032\234"
  58      AEBF13E3 
  58      2E3CCBF8 
  58      9E1A9C
  59 01c6 E18E9F81 		.ascii	"\341\216\237\201\277,\370u\314<g\264\020?+e'u\375\350"
  59      BF2CF875 
  59      CC3C67B4 
  59      103F2B65 
  59      2775FDE8 
  60 01da E87F877E 		.ascii	"\350\177\207~\340\372Q\275\377\301\324T(\3065\205\325"
  60      E0FA51BD 
  60      FFC1D454 
  60      28C63585 
  60      D5
  61 01eb 72B83338 		.ascii	"r\27038\303Sb\276\363:\023\177\333\340\277i\272\016"
  61      C35362BE 
  61      F33A137F 
  61      DBE0BF69 
  61      BA0E
  62 01fd DAA760B6 		.ascii	"\332\247`\266G:\025V/:\262\007~\326\353l\377\355\311"
  62      473A1556 
  62      2F3AB207 
  62      7ED6EB6C 
  62      FFEDC9
  63 0210 DFC71D33 		.ascii	"\337\307\0353\217\016~\240\237~\337\020\237\345\245"
  63      8F0E7EA0 
  63      9F7EDF10 
  63      9FE5A5
  64 021f C64FF185 		.ascii	"\306O\361\205\261\323?M\027\276>Q>\007_\204\321\017"
  64      B1D33F4D 
  64      17BE3E51 
  64      3E075F84 
  64      D10F
  65 0231 0F15C7B8 		.ascii	"\017\025\307\270\317x\031\372uxm\374\361W\302\031\177"
  65      CF7819FA 
  65      75786DFC 
  65      F157C219 
  65      7F
  66 0242 251CF085 		.ascii	"%\034\360\205_\341\313`\334\305\330\270\267\223\177"
  66      5FE1CB60 
  66      DCC5D8B8 
  66      B7937F
  67 0251 39731B7A 		.ascii	"9s\033z\025^G\377 |m\200\374\214\346\207\3613\2343g"
  67      155E47FF 
  67      207C6D80 
ARM GAS  /var/folders/c6/c789hm653lg9vtl73krp73tm0000gn/T//ccOmq6Sx.s 			page 5


  67      FC8CE687 
  67      F1339C33 
  68 0266 18DF16C5 		.ascii	"\030\337\026\305Cw\307\035xP\224g\301Y\341T\010\227"
  68      4377C71D 
  68      78509467 
  68      C159E154 
  68      0897
  69 0278 04844A10 		.ascii	"\004\204J\020Y\210\030!\210l!\302-\001\241\021D6\"~"
  69      59881821 
  69      886C21C2 
  69      2D01A111 
  69      4436227E 
  70 028c 21881C21 		.ascii	"!\210\034!\302#\001\341%\210\234\370\003D\020\271B\204"
  70      C22301E1 
  70      25889CF8 
  70      034410B9 
  70      4284
  71 029e 4F02C24F 		.ascii	"O\002\302O\020\271\361g\342O\013\221'D\004$ \202\004"
  71      10B9F167 
  71      E24F0B91 
  71      27440424 
  71      208204
  72 02b1 91177F26 		.ascii	"\221\027\177&\010\"_\210\010I@\204\011\"\037\323p\317"
  72      08225F88 
  72      08494084 
  72      09221FD3 
  72      70CF
  73 02c3 6A969276 		.ascii	"j\226\222v\263\236{\306fu\3623F\347\322\211\326\200"
  73      B39E7BC6 
  73      6675F233 
  73      46E7D289 
  73      D680
  74 02d5 15AD7BA9 		.ascii	"\025\255{\251\243\325\311\317\011\317\354\201\272&\253"
  74      A3D5C9CF 
  74      09CFEC81 
  74      BA26AB
  75 02e4 D6D750AD 		.ascii	"\326\327P\255\237\315j\375dW\255\002A\265\212H\265n"
  75      9FCD6AFD 
  75      6457AD02 
  75      41B58A48 
  75      B56E
  76 02f6 25DECBCD 		.ascii	"%\336\313\315\324\3672`[\255[x/\005\264Z7\315\207cn"
  76      D4F73260 
  76      5BAD5B78 
  76      2F05B45A 
  76      37CD8763 
  77 030b F287A388 		.ascii	"\362\207\243\210T+C\204J\020si\265\020Q(D\270% 4\202"
  77      542B4384 
  77      4A107369 
  77      B5105128 
  77      44B82520 
  78 0321 28A4D542 		.ascii	"(\244\325BD\221\020\341\221\200\360\022D\021\255\026"
  78      449110E1 
  78      9180F012 
  78      4411AD16 
  79 0331 228A8508 		.ascii	"\"\212\205\010\237\004\204\237 \212i\265\0201O\210\010"
  79      9F04849F 
ARM GAS  /var/folders/c6/c789hm653lg9vtl73krp73tm0000gn/T//ccOmq6Sx.s 			page 6


  79      208A69B5 
  79      10314F88 
  79      08
  80 0342 48400409 		.ascii	"H@\004\011b\036\255\026\"\346\013\021!\011\2100A\314"
  80      621EAD16 
  80      22E60B11 
  80      21098830 
  80      41CC
  81 0354 C736DCB7 		.ascii	"\3076\334\267\252\345H\273Zsf\255Z\203V\265\356\313"
  81      AAE548BB 
  81      5A7366AD 
  81      5A8356B5 
  81      EECB
  82 0366 A8962379 		.ascii	"\250\226#y\265\276\205j=4\253\365\257]\265J\004\325"
  82      B5BE856A 
  82      3D34ABF5 
  82      AF5DB54A 
  82      04D5
  83 0378 AA23D59A 		.ascii	"\252#\325\232L\274\227G\251\357e\320\266Z\223x/%\264"
  83      4CBC9747 
  83      A9EF65D0 
  83      B65A9378 
  83      2F25B4
  84 038b 5A8FCC87 		.ascii	"Z\217\314\207cA\362\207\243\216T+C\204J\020\013h\265"
  84      6341F287 
  84      A38E542B 
  84      43844A10 
  84      0B68B5
  85 039e 10512A44 		.ascii	"\020Q*D\270% 4\202(\245\325B\304B!\302#\001\341%\210"
  85      B8252034 
  85      8228A5D5 
  85      42C44221 
  85      C22301E1 
  86 03b4 85B45A88 		.ascii	"\205\264Z\210X$D\370$ \374\004\261\210V\013\021eBD@"
  86      582444F8 
  86      2420FC04 
  86      B188560B 
  86      11654244 
  87 03c9 02224810 		.ascii	"\002\"H\020e\264Z\210X,D\204$ \302\004\261\030\333\360"
  87      65B45A88 
  87      582C4484 
  87      2420C204 
  87      B118DBF0 
  88 03dd D8AA9633 		.ascii	"\330\252\2263\355je\315Z\265\206\254j=\226Q-g\362j\375"
  88      ED6A65CD 
  88      5AB586AC 
  88      6A3D9651 
  88      2D67F26A 
  89 03f2 03D53AA6 		.ascii	"\003\325:\246@\265\206\024\233j-\021T\253\203T\353\270"
  89      40B58614 
  89      9B6A2D11 
  89      54AB8354 
  89      EBB8
  90 0404 92702F1F 		.ascii	"\222p/\037))\357e\310\266Z\346\031\306\267\245\325\202"
  90      2929EF65 
  90      C8B65AE6 
  90      19C6B7A5 
ARM GAS  /var/folders/c6/c789hm653lg9vtl73krp73tm0000gn/T//ccOmq6Sx.s 			page 7


  90      D582
  91 0416 83A27C69 		.ascii	"\203\242|i\362\207\243\203T+C\204J\020Ki\265\020\261"
  91      F287A383 
  91      542B4384 
  91      4A104B69 
  91      B510B1
  92 0429 4C88704B 		.ascii	"L\210pK@h\004\261\214V\013\021\313\205\010\217\004\204"
  92      406804B1 
  92      8C560B11 
  92      CB85088F 
  92      0484
  93 043b 972096D3 		.ascii	"\227 \226\323j!\242\\\210\360I@\370\011\242\234V\013"
  93      6A21A25C 
  93      88F04940 
  93      F809A29C 
  93      560B
  94 044d 112B8488 		.ascii	"\021+\204\210\200\004D\220 V\320j!\242B\210\010I@\204"
  94      80044490 
  94      2056D06A 
  94      21A24288 
  94      08494084 
  95 0461 09A202DB 		.ascii	"\011\242\002\333\360\304\252\226+\355je\317Z\265NX\325"
  95      F0C4AA96 
  95      2BED6A65 
  95      CF5AB54E 
  95      58D5
  96 0473 7A22A35A 		.ascii	"z\"\243Z\256\344\325z\004\325\272`V\353\274]\265*\005"
  96      AEE4D57A 
  96      04D5BA60 
  96      56EBBC5D 
  96      B52A05
  97 0486 D5EA23D5 		.ascii	"\325\352#\325\272\224x/\027S\337\313\011\333j]\302{"
  97      BA94782F 
  97      1753DFCB 
  97      09DB6A5D 
  97      C27B
  98 0498 A9A4D5BA 		.ascii	"\251\244\325\272h>\034\221\344\017G\037\251V\206\010"
  98      683E1C91 
  98      E40F471F 
  98      A9568608 
  99 04a8 952022B4 		.ascii	"\225 \"\264Z\210X)D\270% 4\202XI\253\205\210*!\302#"
  99      5A885829 
  99      44B82520 
  99      34825849 
  99      AB85882A 
 100 04bf 01E12588 		.ascii	"\001\341%\210*Z-DT\013\021>\011\010?AT\323j!\242F\210"
 100      2A5A2D44 
 100      540B113E 
 100      09083F41 
 100      54D36A21 
 101 04d6 08484004 		.ascii	"\010H@\004\011\242\206V\013\021\265BDH\002\"L\020\265"
 101      09A28656 
 101      0B11B542 
 101      44480222 
 101      4C10B5
 102 04e9 D886813F 		.ascii	"\330\206\201?f\252\245\246]\255\234Y\253\326\260U\255"
 102      66AAA5A6 
ARM GAS  /var/folders/c6/c789hm653lg9vtl73krp73tm0000gn/T//ccOmq6Sx.s 			page 8


 102      5DAD9C59 
 102      ABD6B055 
 102      AD
 103 04fa 195926D5 		.ascii	"\031Y&\325R\223W\353\343\017\014\363of\265~\265\253"
 103      529357EB 
 103      E30F0CF3 
 103      6F66B57E 
 103      B5AB
 104 050c D62A41B5 		.ascii	"\326*A\265\336\343$[w\022/f\"\365\305\014\333f\353\016"
 104      DEE3245B 
 104      77122F66 
 104      22F5C50C 
 104      DB66EB0E 
 105 0520 5ECC2A9A 		.ascii	"^\314*\232\255\011\363\351X\235\374\351\230V\270$(T"
 105      AD09F3E9 
 105      589DFCE9 
 105      9856B824 
 105      2854
 106 0532 A2584DBB 		.ascii	"\242XM\273\205\2125b\205[\202B#\21254\\\250\250\023"
 106      858A3562 
 106      855B8242 
 106      238A3534 
 106      5CA8A813 
 107 0546 2B3C1214 		.ascii	"+<\022\024^\242\250\243\345B\305Z\261\302'A\341'\212"
 107      5EA2A8A3 
 107      E542C55A 
 107      B1C22741 
 107      E1278A
 108 0559 B5345DA8 		.ascii	"\2654]\250\250\027+\002\022\024A\242\250\247\355B\305"
 108      A8172B02 
 108      121441A2 
 108      A8A7ED42 
 108      C5
 109 056a 3AB12224 		.ascii	":\261\"$A\021&\212u\230\210\303V\274\334i\307+w\326"
 109      4111268A 
 109      759888C3 
 109      56BCDC69 
 109      C72B77D6 
 110 057e E275CE8A 		.ascii	"\342u\316\212\327a\031\361r'\217\327Y\210\327~\007\304"
 110      D76119F1 
 110      72278FD7 
 110      5988D77E 
 110      07C4
 111 0590 ABDF6113 		.ascii	"\253\337a\023\257\365\202x\015\323x\035t$\\\314\001"
 111      AFF58278 
 111      0DD3781D 
 111      74245CCC 
 111      01
 112 05a1 47CA8B39 		.ascii	"G\312\2139g\033/\363\014\343\373\322x\301AQ\276!\371"
 112      671B2FF3 
 112      0CE3FBD2 
 112      78C14151 
 112      BE21F9
 113 05b4 E3314CE3 		.ascii	"\3431L\343\225\241B%\212\0154^\250\330(V\270%(4\242"
 113      95A14225 
 113      8A0D345E 
 113      A8D82856 
ARM GAS  /var/folders/c6/c789hm653lg9vtl73krp73tm0000gn/T//ccOmq6Sx.s 			page 9


 113      B8252834 
 114 05c9 D848E385 		.ascii	"\330H\343\205\212Mb\205G\202\302K\024\233h\274P\321"
 114      8A4D6285 
 114      4782C24B 
 114      149B68BC 
 114      50D1
 115 05db 2056F824 		.ascii	" V\370$(\374D\321@\343\205\212\315bE@\202\"H\024\233"
 115      28FC44D1 
 115      40E3858A 
 115      CD624540 
 115      82224814 
 116 05f0 69BC50B1 		.ascii	"i\274P\261E\254\010IP\204\211b\013&\342\210\025/-\355"
 116      45AC0849 
 116      50848962 
 116      0B26E288 
 116      152F2DED 
 117 0604 78E5CD5A 		.ascii	"x\345\315Z\274F\254x\035\221\021/-y\274\316C\274>5\343"
 117      BC46AC78 
 117      1D91112F 
 117      2D79BCCE 
 117      43BC3E35 
 118 0619 F5895DBC 		.ascii	"\365\211]\274\266\012\342u\205\306\353t\342\305\234"
 118      B60AE275 
 118      85C6EB74 
 118      E2C59C
 119 0628 4A7D3123 		.ascii	"J}1#\266\361:\215\027\263\225\306\353\224\371x4&\177"
 119      B6F13A8D 
 119      17B395C6 
 119      EB94F978 
 119      34267F
 120 063b 3CAED078 		.ascii	"<\256\320xe\250P\211\242\221\306\013\025\333\304\012"
 120      65A85089 
 120      A291C60B 
 120      15DBC40A 
 121 064b B7048546 		.ascii	"\267\004\205F\024\333h\274P\261]\254\360HPx\211b;\215"
 121      14DB68BC 
 121      50B15DAC 
 121      F0485078 
 121      89623B8D 
 122 065f 172A9AC4 		.ascii	"\027*\232\304\012\237\004\205\237(\232h\274P\261C\254"
 122      0A9F0485 
 122      9F289A68 
 122      BC50B143 
 122      AC
 123 0670 08485004 		.ascii	"\010HP\004\211b\007\215\027*\232\305\212\220\004E\230"
 123      8962078D 
 123      172A9AC5 
 123      8A900445 
 123      98
 124 0681 289A3111 		.ascii	"(\2321\021\307\254xy\322\216W\376\254\305k\324\212\327"
 124      C7AC7879 
 124      D28E57FE 
 124      ACC56BD4 
 124      8AD7
 125 0693 3119F1F2 		.ascii	"1\031\361\362$\217\327_\020\257\253f\274\276\267\213"
 125      248FD75F 
 125      10AFAB66 
ARM GAS  /var/folders/c6/c789hm653lg9vtl73krp73tm0000gn/T//ccOmq6Sx.s 			page 10


 125      BCBEB78B 
 126 06a3 D74E41BC 		.ascii	"\327NA\274&h\274\256%^\314X\352\213\031\265\215\327"
 126      2668BCAE 
 126      255ECC58 
 126      EA8B19B5 
 126      8DD7
 127 06b5 35BC989D 		.ascii	"5\274\230\2354^c\346\343\261+\371\3431A\343\225\241"
 127      345E63E6 
 127      E3B12BF9 
 127      E33141E3 
 127      95A1
 128 06c7 42258A5D 		.ascii	"B%\212]4^\250h\021+\334\022\024\032Q\264\320x\241\242"
 128      345EA868 
 128      112BDC12 
 128      141A51B4 
 128      D078A1A2 
 129 06db 55ACF048 		.ascii	"U\254\360HPx\211\242\225\306\013\025\273\305\012\237"
 129      507889A2 
 129      95C60B15 
 129      BBC50A9F 
 130 06eb 04859F28 		.ascii	"\004\205\237(v\323x\241\242M\254\010HP\004\211\242\215"
 130      76D378A1 
 130      A24DAC08 
 130      48500489 
 130      A28D
 131 06fd C60B15ED 		.ascii	"\306\013\025\355bEH\202\"L\024\355\214\375\310\372'"
 131      62454882 
 131      224C14ED 
 131      8CFDC8FA 
 131      27
 132 070e 8E97CD34 		.ascii	"\216\227\3154\310|\3530~w\007o\230\377;vUee\004\377"
 132      C87CEB30 
 132      7E77076F 
 132      98FF3B76 
 132      55656504 
 133 0723 E9DD1379 		.ascii	"\351\335\023y\243\263;\322\327\373\326\333{\"\317w\264"
 133      A3B33BD2 
 133      D7FBD6DB 
 133      7B22CF77 
 133      B4
 134 0734 D654475A 		.ascii	"\326TGZZ\032#M\355\315m{\253#}\235\335\257tw\277V\331"
 134      5A1A234D 
 134      EDCD6D7B 
 134      AB237D9D 
 134      DDAF7477 
 135 074b C55CD1BE 		.ascii	"\305\\\321\276Xo\237\332\325\373\346\353\261\350\377"
 135      586F9FDA 
 135      D5FBE6EB 
 135      B1E8FF
 136 075a 57DAC6D0 		.ascii	"W\332\306\320"
 137              		.text
 138              		.section	.gnu.lto__pal_lld_setgroupmode.25f6712759b6a374,"",%progbits
 139 0000 789C9557 		.ascii	"x\234\225W[hTW\024=\347\334{\347\225h\324\210&1j|\277"
 139      5B685457 
 139      143DE7DC 
 139      7BE79568 
 139      D4882631 
ARM GAS  /var/folders/c6/c789hm653lg9vtl73krp73tm0000gn/T//ccOmq6Sx.s 			page 11


 140 0017 27E6A141 		.ascii	"'\346\241A\323\230\346i\013\026\0135\240\375\250F\023"
 140      D398E669 
 140      0B160B35 
 140      A0FDA846 
 140      13
 141 0028 C6D80C19 		.ascii	"\306\330\014\031&i\301\3768q\346#\250\224 1\261\355"
 141      2669C1FE 
 141      3871E623 
 141      A8942031 
 141      B1ED
 142 003a 875A91E0 		.ascii	"\207Z\221\340\253\251\025\0375\"Q\204*\265\205~\351"
 142      ABA9151F 
 142      35225184 
 142      2AB5857E 
 142      E9
 143 004b 88255650 		.ascii	"\210%VP?*\026\013m\375\260\235\356\275\3179w\036\011"
 143      3F2A160B 
 143      6DFDB09D 
 143      EEBDCF39 
 143      771E09
 144 005e CC64D07D 		.ascii	"\314d\320}\356\331{\257u\367Y\347u#\230`\251\277\275"
 144      EED97BAF 
 144      75F759E7 
 144      75239860 
 144      A9BFBD
 145 0071 F0BF6A32 		.ascii	"\360\277j2c\035\320\362,\306E\357\317\214u\273\0047"
 145      631DD0F2 
 145      2CC645EF 
 145      CF8C75BB 
 145      0437
 146 0083 E48321CC 		.ascii	"\344\203!\314\236%,\344q\241\3156\205E=\007\365,\356"
 146      9E252CE4 
 146      71A1CD36 
 146      85453D07 
 146      F52CEE
 147 0096 94490EFD 		.ascii	"\224I\016\375\340\344.\371\340\022\236\210\023\022\335"
 147      E0E42EF9 
 147      E0129E88 
 147      1312DD
 148 00a5 877E6090 		.ascii	"\207~`\220\351\226t7]\036\316\361\201q\266O\030\246"
 148      E9967437 
 148      5D1ECEF1 
 148      8171B64F 
 148      18A6
 149 00b7 E570BADC 		.ascii	"\345p\272\334\036\276o\033\307R\262\346\263\023\241"
 149      1EBE6F1B 
 149      C752B2E6 
 149      B313A1
 150 00c6 50EFE3A7 		.ascii	"P\357\343\247W^\361/\372F\"\307Cob1\316\3338\224]\316"
 150      575EF12F 
 150      FA4622C7 
 150      436F6231 
 150      CEDB3894 
 151 00dc D92ECEB6 		.ascii	"\331.\316\266B\207\027Q#\314\344q\020\366\360H\354\300"
 151      42871751 
 151      23CCE471 
 151      10F6F048 
ARM GAS  /var/folders/c6/c789hm653lg9vtl73krp73tm0000gn/T//ccOmq6Sx.s 			page 12


 151      ECC0
 152 00ee E7F9A1E3 		.ascii	"\347\371\241\343\373{C\377\001\264\215\033\202\255\317"
 152      FB7B43FF 
 152      01B48D1B 
 152      82ADCF
 153 00fd 10D9FB63 		.ascii	"\020\331\373cvowO(\026\333G\260\2673\204\035N\206m\314"
 153      766F774F 
 153      2816DB47 
 153      B0B73384 
 153      1D4E866D 
 154 0112 10D6970C 		.ascii	"\020\326\227\014\333\234!\254?\031\326\224!\354h2\354"
 154      DB9C21AC 
 154      3F19D694 
 154      21EC6832 
 154      EC
 155 0123 C30C61C7 		.ascii	"\303\014a\307\016\366\245\210\371Qf\310\320_-wB\221"
 155      0EF6A588 
 155      F95166C8 
 155      D05F2D77 
 155      4291
 156 0135 9158AC9A 		.ascii	"\221X\254\232P\276\014Q\377&\241\366d\210:\322\232\210"
 156      50BE0C51 
 156      FF26A1F6 
 156      64883AD2 
 156      9A88
 157 0147 F2A7430D 		.ascii	"\362\247C\015\211\221\307\261\330\243\373/\236\304\370"
 157      8991C7B1 
 157      D8A3FB2F 
 157      9EC4F8
 158 0156 34982E3F 		.ascii	"4\230.?.\257f~\222\317g\006\264\247\2405\241\035\204"
 158      2EAF667E 
 158      92CF6706 
 158      B4A7A035 
 158      A11D84
 159 0169 D682F634 		.ascii	"\326\202\3664\264\016h\317C\353\341~\016{D&g\2636nN"
 159      B40E68CF 
 159      43EBE17E 
 159      0E7B4426 
 159      67B3366E 
 160 017e 5288C9D8 		.ascii	"R\210\311\330\311Q\260)\330\231\252\260\323\260\223"
 160      C951B029 
 160      D899AAB0 
 160      D3B093
 161 018d 0B9DB3D0 		.ascii	"\013\235\263\320\231\016\004l\006zf\242\311C\223\017"
 161      990E046C 
 161      067A66A2 
 161      C943930F 
 162 019d 861540C2 		.ascii	"\206\025@\302\020$\314\302N!t.Ag6d\2139\2303\027M\021"
 162      1024CCC2 
 162      4E21742E 
 162      41673664 
 162      8B399833 
 163 01b4 9A796816 		.ascii	"\232yh\026\240Y\210f\021\232\305h\226\002\350\004\200"
 163      A0598866 
 163      119AC568 
 163      9602E804 
 163      80
ARM GAS  /var/folders/c6/c789hm653lg9vtl73krp73tm0000gn/T//ccOmq6Sx.s 			page 13


 164 01c5 9621C372 		.ascii	"\226!\303r\350\\\200\316\012\214\254D\263\012\215\027"
 164      E85C80CE 
 164      0A8CAC44 
 164      B30A8D17 
 165 01d5 CD6A3425 		.ascii	"\315j4%\230U\212\246\014R/Bj9\272\327\240Y\213\246\002"
 165      98558AA6 
 165      0C522F42 
 165      6A39BAD7 
 165      A0598BA6 
 166 01ea CD3A34EB 		.ascii	"\315:4\353\321T\242\251B\263\001M5\232\032\224\256V"
 166      D154A2A9 
 166      42B3014D 
 166      359A1A94 
 166      AE56
 167 01fc 0950A7C6 		.ascii	"\011P\247\306^\257\206\335\240TjT\322\301\317b\021\330"
 167      5EAF86DD 
 167      A0546A54 
 167      D2C1CF62 
 167      11D8
 168 020e DD45D22F 		.ascii	"\335E\322/Q\022#\021R!\235\275\213N\204-`\341\030i\342"
 168      51122311 
 168      52219DBD 
 168      8B4E842D 
 168      60E11869 
 169 0223 021AE327 		.ascii	"\002\032\343'\026\036\016\307\216\0246\363+\334\202"
 169      161E0EC7 
 169      8E1436F3 
 169      2BDC82
 170 0232 4595E5E3 		.ascii	"E\225\345\343\036\234a\323\200\324\273LH\277\344\207"
 170      1E9C61D3 
 170      80D4BB4C 
 170      48BFE487 
 171 0242 28630438 		.ascii	"(c\0048\331\377\226\006dk\000.\011\010~\023\016\352"
 171      D9FF9606 
 171      646B002E 
 171      09087E13 
 171      0EEA
 172 0254 D024886E 		.ascii	"\320$\210n\225GM\022\327)\342\232\244\270\006\343\\"
 172      95474D12 
 172      D729E29A 
 172      A4B806E3 
 172      5C
 173 0265 933557DE 		.ascii	"\2235W\336\030\256\034\210\022WJ]\203\304\225\243\270"
 173      18AE1C88 
 173      12574A5D 
 173      83C495A3 
 173      B8
 174 0276 CEC6B9A6 		.ascii	"\316\306\271\246h\256\035c\270\246B\224\270\254d\256"
 174      68AE1D63 
 174      B8A64294 
 174      B8AC64AE 
 175 0286 D3C43555 		.ascii	"\323\3045Uq\015\305\271\246i\256P\316\030\262\\\010"
 175      710DC5B9 
 175      A669AE50 
 175      CE18B25C 
 175      08
 176 0297 13993399 		.ascii	"\023\2313\231\354,\221\345\242o\377\361{\226v\343L`"
ARM GAS  /var/folders/c6/c789hm653lg9vtl73krp73tm0000gn/T//ccOmq6Sx.s 			page 14


 176      EC2C91E5 
 176      A26FFFF1 
 176      7B9676E3 
 176      4C60
 177 02a9 BAA1B74E 		.ascii	"\272\241\267N\023<\302\351m@\232\213\251\004\037w\020"
 177      133CC2E9 
 177      6D409A8B 
 177      A9041F77 
 177      10
 178 02ba 8E1CB22A 		.ascii	"\216\034\262*+\356\220C6\343\016\251\247\021w\310\311"
 178      2BEE9043 
 178      36E30EA9 
 178      A71177C8 
 178      C9
 179 02cb 12DA014B 		.ascii	"\022\332\001K\312\307\271\032\326p\377\\]\372\014\360"
 179      CAC7B91A 
 179      D670FF5C 
 179      5DFA0CF0 
 180 02db D2B0705D 		.ascii	"\322\260p]\334a\221\027\335%v\210\374\361\015\036e\334"
 180      DC619117 
 180      DD257688 
 180      FCF10D1E 
 180      65DC
 181 02ed C7A70B30 		.ascii	"\307\247\01305\356\027\277\356\2162\001\213A\274\271"
 181      35EE17BF 
 181      EE8E3201 
 181      8B41BCB9 
 182 02fd 1FF0F106 		.ascii	"\037\360\361\006\367\275\321\366(3`F\305\241(8j\335"
 182      F7BDD1F6 
 182      28336046 
 182      C5A12838 
 182      6ADD
 183 030f 7DDBA3CC 		.ascii	"}\333\243\314\204Y\021}\333|\274\316}n\264+\312,PV\234"
 183      8459117D 
 183      DB7CBCCE 
 183      7D6EB42B 
 183      CA2C5056 
 184 0324 C378BDFB 		.ascii	"\303x\275\373:\002\034J\006q\017\235\215\356G\243;P"
 184      3A021C4A 
 184      06710F9D 
 184      8DEE47A3 
 184      3B50
 185 0336 0D93F52C 		.ascii	"\015\223\365,\221\253\362y\377;\366\362\036\242e|\201"
 185      91ABF279 
 185      FF3BF6F2 
 185      1EA2657C 
 185      81
 186 0347 EC45B297 		.ascii	"\354E\262\227hI\313z\341\347\3433A5\252\332)\347\350"
 186      6849CB7A 
 186      E1E7E333 
 186      4135AADA 
 186      29E7E8
 187 035a 40F8324C 		.ascii	"@\3702L\306U\032N\036\204\023\026\351\376\227\341\033"
 187      C6551A4E 
 187      1E841316 
 187      E9FE97E1 
 187      1B
ARM GAS  /var/folders/c6/c789hm653lg9vtl73krp73tm0000gn/T//ccOmq6Sx.s 			page 15


 188 036b 5CC7F221 		.ascii	"\\\307\362!L\200\363\341\257mg\001Ml\276\232\321\253"
 188      4C80F3E1 
 188      AF6D6701 
 188      4D6CBE9A 
 188      D1AB
 189 037d 347543A4 		.ascii	"4uC\244j\201\312\375\035u\224\311\263h\376s\030\001"
 189      6A81CAFD 
 189      1D7594C9 
 189      B368FE73 
 189      1801
 190 038f 887D8F0E 		.ascii	"\210}\217\016\025B4\211\344\022\221\024\222\336\317"
 190      15423489 
 190      E4129114 
 190      92DECF
 191 039e 6E5ECED2 		.ascii	"n^\316\322\211R\015g\302\231\332\004\376\333\271 \305"
 191      89520D67 
 191      C299DA04 
 191      FEDBB920 
 191      C5
 192 03af AD8747AF 		.ascii	"\255\207G\257D\015\2358g\005;\023\212@\262\365\025\373"
 192      440D9D38 
 192      67053B13 
 192      8A40B2F5 
 192      15FB
 193 03c1 121A878F 		.ascii	"\022\032\207\217\317F\254\204\356\344\032\016u\\\017"
 193      CF46AC84 
 193      EEE41A0E 
 193      755C0F
 194 03d0 7F672B30 		.ascii	"\177g+0\227^J\272\236\261\235E@\007!\362\177\037~f\373"
 194      975E4ABA 
 194      9EB19D45 
 194      400721F2 
 194      7F1F7E66 
 195 03e5 E7518846 		.ascii	"\347Q\210Fz\353n\257\252\221\336\333\035\252L\363f@"
 195      7AEB6EAF 
 195      AA91DEDB 
 195      1DAA4CF3 
 195      6640
 196 03f7 EBFA1DBA 		.ascii	"\353\372\035\272\376\007\011\365/HS?\037\277\376\205"
 196      FE0709F5 
 196      2F48533F 
 196      1FBFFE85 
 197 0407 E3D5BF08 		.ascii	"\343\325\277\010\350 4\246\376\305\024\232h\375\\\325"
 197      E82034A6 
 197      FEC5149A 
 197      68FD5CD5 
 198 0417 BF58D7EF 		.ascii	"\277X\327\357\224K\021\3463\326?Gs/\245\315\211K\300"
 198      944B11E6 
 198      33D63F47 
 198      732FA5CD 
 198      894BC0
 199 042a 1ED2329A 		.ascii	"\036\3222\232\177\334dKS\347\1779D\223\346\377\002\315"
 199      7FDC644B 
 199      53E77F39 
 199      4493E6FF 
 199      02CD
 200 043c FF722AED 		.ascii	"\377r*\355\341\321k\277\331$+\322\350\"\022u\271a\017"
ARM GAS  /var/folders/c6/c789hm653lg9vtl73krp73tm0000gn/T//ccOmq6Sx.s 			page 16


 200      E1D16BBF 
 200      D9242BD2 
 200      E8221275 
 200      B9610F
 201 044f 75A52203 		.ascii	"u\245\"\003]\342\313}\025\320AH\351\362\247\355\367"
 201      5DE2CB7D 
 201      15D04148 
 201      E9F2A7ED 
 201      F7
 202 0460 52C890BA 		.ascii	"R\310\220\272|\233\254KE\2327\003Zm\253\301\001\257"
 202      7C9BAC4B 
 202      459A3703 
 202      5A6DABC1 
 202      01AF
 203 0472 265CADF7 		.ascii	"&\\\255\367\234\320\373\3523\035*\201h\212N\245\352"
 203      9CD0FBEA 
 203      331D2A81 
 203      688A4EA5 
 203      EA
 204 0483 008760AA 		.ascii	"\000\207`\252Ne\020M\322\351\"\351T&uz\220\240Sy\032"
 204      4E65104D 
 204      D2E922E9 
 204      5426757A 
 204      90A05379 
 205 0498 9D8C449D 		.ascii	"\235\214D\235\236\330C_\243\310@\247k\266s-\320AH\351"
 205      9ED8435F 
 205      A3C840A7 
 205      6BB6732D 
 205      D04148E9 
 206 04ac F4B7EDAF 		.ascii	"\364\267\355\257\240\2209A\235\014\245S\205,\372uB\321"
 206      A0903941 
 206      9D0CA553 
 206      852CFA75 
 206      42D1
 207 04be EBD2146D 		.ascii	"\353\322\024m\332EC}\361E\277\236\352^\247\352{i\373"
 207      DA45437D 
 207      F145BF9E 
 207      EA5EA7EA 
 207      7B69FB
 208 04d1 2B29644D 		.ascii	"+)dM\260>S\325W\251\026\337p\274\276\2524\365Y\343\327"
 208      B03E53D5 
 208      57A916DF 
 208      70BCBEAA 
 208      34F559E3 
 209 04e6 B781EAAB 		.ascii	"\267\201\352\253\032S_5\205\304\004\353\263T}\325z\377"
 209      1A535F35 
 209      85C404EB 
 209      B3547DD5 
 209      7AFF
 210 04f8 B9E862A4 		.ascii	"\271\350b\244\353vx\240@_M5\352\326b\270_\355\013\227"
 210      EB7678A0 
 210      405F4D35 
 210      EAD662B8 
 210      5FED0B97 
 211 050c EEB81A3C 		.ascii	"\356\270\032<Vo?\2779z0\333\316N\271\310\220\327\315"
 211      566F3FBF 
 211      397A30DB 
ARM GAS  /var/folders/c6/c789hm653lg9vtl73krp73tm0000gn/T//ccOmq6Sx.s 			page 17


 211      CE4EB9C8 
 211      90D7CD
 212 051f E00F2883 		.ascii	"\340\017(\203N\361\347\003\366\227O-\354\214\261\274"
 212      4EF1E703 
 212      F6974F2D 
 212      EC8CB1BC 
 213 052f FA76ADD5 		.ascii	"\372v\255\325\307\376\300l\015\250\203%2\336\347\215"
 213      C7FEC06C 
 213      0DA88325 
 213      32DEE78D 
 214 053f BC9FEB14 		.ascii	"\274\237\353\024\340\217\201Y\032P\017s6\036@\336\360"
 214      E08F8159 
 214      1A500F73 
 214      361E40DE 
 214      F0
 215 0550 F50AF06A 		.ascii	"\365\012\360j\246\316o\000\015\307\313\227\327{\003"
 215      A6CE6F00 
 215      0DC7CB97 
 215      D77B03
 216 055f E5F784FF 		.ascii	"\345\367\204\377\031\310\323\200F}\217\244\014A~S4\352"
 216      19C8D380 
 216      467D8FA4 
 216      0C417E53 
 216      34EA
 217 0571 F17BF0C3 		.ascii	"\361{\360\303\357\027\326\375\370\365Sn_\240\364\333"
 217      EF17D6FD 
 217      F8F5536E 
 217      5FA0F4DB 
 218 0581 028760C4 		.ascii	"\002\207`\304\211\257+\361z\213\345\277\216\316\342"
 218      89AF2BF1 
 218      7A8BE5BF 
 218      8ECEE2
 219 0590 DDCDEDC5 		.ascii	"\335\315\355\305\201\216`Wg\361\007[\336++-\336\264"
 219      818E6057 
 219      67F1075B 
 219      DE2B2B2D 
 219      DEB4
 220 05a2 A9BE78E3 		.ascii	"\251\276x\343\373\357n\376\264\2648\320\334\276\275"
 220      FBEF6EFE 
 220      B4B438D0 
 220      DCBEBD
 221 05b1 BDBDC5BB 		.ascii	"\275\275\305\273\213Y;\333\272\274\253-\177GKk\320\321"
 221      8B593BDB 
 221      BABCAB2D 
 221      7F474B6B 
 221      D0D1
 222 05c3 D1B537D0 		.ascii	"\321\2657\320\032tvt\006Z[[\202V\340\223@K\320ln\357"
 222      1A747674 
 222      065A5B5B 
 222      8256E093 
 222      404BD06C 
 223 05d9 0A1A90E5 		.ascii	"\012\032\220\345\302\007\177s\347\307\302_\"\374\245"
 223      C2077F73 
 223      E7C7C25F 
 223      22FCA5
 224 05e8 C25FFE3F 		.ascii	"\302_\376?\032`H\244"
 224      1A6048A4 
ARM GAS  /var/folders/c6/c789hm653lg9vtl73krp73tm0000gn/T//ccOmq6Sx.s 			page 18


 225              		.text
 226              		.section	.gnu.lto_.symbol_nodes.25f6712759b6a374,"",%progbits
 227 0000 789C6362 		.ascii	"x\234cb`bP`\200\002\246V\246z\006\206\011\347\030\030"
 227      60625060 
 227      8002A656 
 227      A67A0686 
 227      09E71818 
 228 0014 EAEBE775 		.ascii	"\352\353\347u02\2651\3253\"\270\014\000\223\326\011"
 228      3032B531 
 228      D53322B8 
 228      0C0093D6 
 228      09
 229 0025 3D       		.ascii	"="
 230              		.text
 231              		.section	.gnu.lto_.refs.25f6712759b6a374,"",%progbits
 232 0000 789C6362 		.ascii	"x\234cb`b`d\200\002\000\000F\000\006"
 232      60626064 
 232      80020000 
 232      460006
 233              		.text
 234              		.section	.gnu.lto_.decls.25f6712759b6a374,"",%progbits
 235 0000 789CDD5A 		.ascii	"x\234\335Z}p\023\307\025\337=\311\266\214U\342\220!"
 235      7D7013C7 
 235      15DF3DC9 
 235      B68C55E2 
 235      9021
 236 0012 031DA688 		.ascii	"\003\035\246\210I\323d2\001\031\233\244\351?) \033\354"
 236      49D36432 
 236      01199BA4 
 236      E93F2920 
 236      1BEC
 237 0024 A9893512 		.ascii	"\251\2115\022\264\351Lg\324\253-cMeK#\313)\351?= 0\324"
 237      B4E94C67 
 237      D4AB2D63 
 237      4D654B23 
 237      CB29E93F 
 238 003c 69A9711A 		.ascii	"i\251q\032>Z\032L\013\256\011$\030C\010\230\217\010"
 238      3E5A1A4C 
 238      0BAE0924 
 238      18430898 
 238      8F08
 239 004e 42A8C7A6 		.ascii	"B\250\307\246\256K(1\341\313\343B\035\240\024H\370l"
 239      AE4B2831 
 239      E1CBE342 
 239      1DA01448 
 239      F86C
 240 0060 18DCB7EF 		.ascii	"\030\334\267\357\356\244\333Cg\335\021\376\352\015\357"
 240      EEA4DB43 
 240      67DD11FE 
 240      EA0DEF
 241 006f EDFAEEED 		.ascii	"\355\372\356\355o\177o\367\335\356\333\023\002\021\210"
 241      6F7F6FF7 
 241      DDEEDB13 
 241      021188
 242 007e 44091986 		.ascii	"D\011\031\206\353\211'\010\351\260\021\002\377\310\213"
 242      EB892708 
 242      E9B01102 
ARM GAS  /var/folders/c6/c789hm653lg9vtl73krp73tm0000gn/T//ccOmq6Sx.s 			page 19


 242      FFC88B
 243 008d 24750920 		.ascii	"$u\011 \353AN\222\373/v\1774H\016\310y\220I\200U\005"
 243      EB414E92 
 243      FB2F767F 
 243      34480EC8 
 243      79904980 
 244 00a3 1204990F 		.ascii	"\022\004\231\017\262\021\356m\000\311\247\262\235\023"
 244      B211EE6D 
 244      00C9A7B2 
 244      9D13
 245 00b1 A406EAD5 		.ascii	"\244\006\352\325 g\241>\236\365\005\365r\220\315P\337"
 245      2067A13E 
 245      9EF505F5 
 245      7290CD50 
 245      DF
 246 00c2 0D3204B2 		.ascii	"\0152\004\262\007\344\002\310>\220K \037\200\\\0019"
 246      07E402C8 
 246      3E904B20 
 246      1F805C01 
 246      39
 247 00d3 00E200DB 		.ascii	"\000\342\000\333\017\241\034\005\3456(\317\201\034\006"
 247      0FA11C05 
 247      E53628CF 
 247      811C06
 248 00e2 E902E906 		.ascii	"\351\002\351\0069\002\322\013\322\007r\024\344\230\306"
 248      3902D20B 
 248      D2077214 
 248      E498C6
 249 00f1 8710B419 		.ascii	"\207\020\264\031\005e?H\014\352\365 q\220\006\220W@"
 249      05653F48 
 249      0CEAF520 
 249      71900690 
 249      5740
 250 0103 7E06B200 		.ascii	"~\006\262\000\344U\220\237S\336W\346\277\003\304NR\276"
 250      E455909F 
 250      53DE57E6 
 250      BF03C44E 
 250      52BE
 251 0115 74687C67 		.ascii	"th|g\376\234\001\311V82~C\212\037\227\024\236T\301a"
 251      FE9C01C9 
 251      5638327E 
 251      438A1F97 
 251      149E54C1 
 252 012a 633C01FE 		.ascii	"c<\001\376\370\006\310\327u\375L$oI-\003\003K\256\264"
 252      F806C8D7 
 252      75FD4C24 
 252      6F492D03 
 252      034BAEB4 
 253 013e 8F975A16 		.ascii	"\217\227Z\026%\206\207\277K\036'oJp\265,\225$\032\027"
 253      258687BF 
 253      4B1E276F 
 253      4A70B52C 
 253      95241A17 
 254 0152 E98B63C9 		.ascii	"\351\213c\311\313T\244\243s\211\013+\316\\$E\210H\377"
 254      CB54A4A3 
 254      73890B2B 
 254      CE5C2445 
ARM GAS  /var/folders/c6/c789hm653lg9vtl73krp73tm0000gn/T//ccOmq6Sx.s 			page 20


 254      8848FF
 255 0165 481FC79A 		.ascii	"H\037\307\232\015]&y\244Q\222\026\261\206\245]\243\307"
 255      0D5D2679 
 255      A4519216 
 255      B186A55D 
 255      A3C7
 256 0177 90158802 		.ascii	"\220\025\210\002 ]\340\200\0021\360\210\212q\227\021"
 256      205DE080 
 256      0231F088 
 256      8A719711 
 257 0187 79926C90 		.ascii	"y\222l\220\244\246\201\023w\326\331$\311\2414q\031\333"
 257      A4A68113 
 257      77D6D924 
 257      C9A13471 
 257      19DB
 258 0199 8BB4953E 		.ascii	"\213\264\225>I2\3331\3136:\206<C6\201a\223$\035,\342"
 258      4932DB31 
 258      CB363A86 
 258      3C433681 
 258      6193241D 
 259 01af FDC68EA5 		.ascii	"\375\306\216\245\304\027\275N\311.\233\262&\233\350"
 259      C417BD4E 
 259      C92E9BB2 
 259      269BE8
 260 01be 3369C28E 		.ascii	"3i\302\216L\"-\314\370N\357Z*\265\034\244\351\272\247"
 260      4C222DCC 
 260      F84EEF5A 
 260      2AB51CA4 
 260      E9BAA7
 261 01d1 6AF71392 		.ascii	"j\367\023\222^%\376\336K]\"\335\002\366\002\251\245"
 261      5E25FEDE 
 261      4B5D22DD 
 261      02F602A9 
 261      A5
 262 01e2 1C7C4608 		.ascii	"\034|F\010\306f+\264\224\033)l\337\220\331n5\301vQb"
 262      C6662BB4 
 262      941B296C 
 262      DF90D96E 
 262      35C17651 
 263 01f7 55EFDAF1 		.ascii	"U\357\332\361\214m.Y\226\232\024\222v*\225YX\321\370"
 263      8C6D2E59 
 263      969A1492 
 263      762A9559 
 263      58D1F8
 264 020a D101BA08 		.ascii	"\321\001\272\010\346K\244\035\320L \177\245<k\363P\247"
 264      E64BA41D 
 264      D04C207F 
 264      A53C6BF3 
 264      50A7
 265 021c 97EFFD0E 		.ascii	"\227\357\375\016L\250H\337C\240\355\002\017$\322\234"
 265      4CA848DF 
 265      43A0ED02 
 265      0F24D29C 
 266 022c 5C2D65FC 		.ascii	"\\-e\374[5`h\370X\251\260\325\342\021b\325\\ \373\261"
 266      5B356068 
 266      F858A9B0 
 266      D5E21162 
ARM GAS  /var/folders/c6/c789hm653lg9vtl73krp73tm0000gn/T//ccOmq6Sx.s 			page 21


 266      D55C20FB 
 267 0241 533658E9 		.ascii	"S6X\351\210*U\371R\014\270\001\034\350\177O\036@u4\016"
 267      882A55F9 
 267      520CB801 
 267      1CE87F4F 
 267      1E407534 
 268 0256 59C67371 		.ascii	"Y\306sq\023\362V\257\263IT\301z\314\2009\014\311%:\264"
 268      13F256AF 
 268      B34954C1 
 268      7ACC8039 
 268      0CC9253A 
 269 026b 601F5B06 		.ascii	"`\037[\006\343\231\355\324\202\2350\003\226o\314\254"
 269      E399EDD4 
 269      829D3003 
 269      966FCCAC 
 270 027b 530B76DA 		.ascii	"S\013v\3322\030\317l\277\026l\320\014\330\2704\314\322"
 270      3218CF6C 
 270      BF166CD0 
 270      0CD8B834 
 270      CCD2
 271 028d 5DDAD74B 		.ascii	"]\332\327K\244\355\260\252\210t\033\235\004z7\352=\250"
 271      A4EDB0AA 
 271      88741B9D 
 271      047A37EA 
 271      3DA8
 272 029f F7A1FE00 		.ascii	"\367\241\376\000\365\001\324\037\202N^\002\031BNm)N"
 272      F501D41F 
 272      824E5E02 
 272      19424E6D 
 272      294E
 273 02b1 FC6B9C29 		.ascii	"\374k\234)\312\244DS\005sP^$\376c\012\214\363\320\305"
 273      CAA44453 
 273      0573505E 
 273      24FE630A 
 273      8CF3D0C5 
 274 02c5 81ADD680 		.ascii	"\201\255\326\200\3350\005\366\2021\263v\015\330]S`^"
 274      DD3005F6 
 274      8231B376 
 274      0DD85D53 
 274      605E
 275 02d7 6366BB34 		.ascii	"cf\2734`\213mf\300\242\306\314\3724`\215\246\300\226"
 275      608B6D66 
 275      C0A2C6CC 
 275      FA34608D 
 275      A6C096
 276 02ea 51636AFD 		.ascii	"Qcj\375\032\264\025\246\320\332\2501\267\253\032\264"
 276      1AB415A6 
 276      D0DAA831 
 276      B7AB1AB4 
 277 02fa D5A6D012 		.ascii	"\325\246\320\022#p\273\255A[g\012m \0357M\324\313\361"
 277      2370BBAD 
 277      415B670A 
 277      6D201D37 
 277      4DD4CBF1 
 278 030e FE36C6FB 		.ascii	"\3766\306\373f\214\350\303\250\273Pw\243>\202\272\027"
 278      668CE8C3 
 278      A8BB5077 
ARM GAS  /var/folders/c6/c789hm653lg9vtl73krp73tm0000gn/T//ccOmq6Sx.s 			page 22


 278      A33E82BA 
 278      17
 279 031f 751FEAA3 		.ascii	"u\037\352\243\250\217\361\261\337j\323\257\352\362>"
 279      A88FF1B1 
 279      DF6AD3AF 
 279      EAF23E
 280 032e AAE9AD2D 		.ascii	"\252\351\255-\371\216\221\257\332\237Q\016\262\201\346"
 280      F98E91AF 
 280      DA9F510E 
 280      B281E6
 281 033d A5FA9B67 		.ascii	"\245\372\233g\323\360k\327\361\373&\371\223$5C\252\363"
 281      D3F06BD7 
 281      F1FB26F9 
 281      93243543 
 281      AAF3
 282 034f 997D8D94 		.ascii	"\231}\215\224\260\313Ma\237@\263\365tb\332.\222\035"
 282      B0CB4D61 
 282      9F40B3F5 
 282      7462DA2E 
 282      921D
 283 0361 7C8B6C64 		.ascii	"|\213ld[\366\257\245%\371\024\223\"\242\264\342\034"
 283      5BF6AFA5 
 283      25F91493 
 283      22A2B4E2 
 283      1C
 284 0372 FE840ADA 		.ascii	"\376\204\012\332\033rv\225\270\331\355lZ80<<\321|ju"
 284      1B727695 
 284      B8D9ED6C 
 284      5A38303C 
 284      3CD17C6A 
 285 0387 2A736AC5 		.ascii	"*sj\305e\017\202\012\360,I\245U\327V\331p\027>\213\001"
 285      650F820A 
 285      F02C49A5 
 285      55D756D9 
 285      70173E8B 
 286 039c F4916E3C 		.ascii	"\364\221n<2\3020\036\203\372$d{\017&!\203\231\223\220"
 286      32C2301E 
 286      83FA2464 
 286      7B0F2621 
 286      83999390 
 287 03b0 D71627DE 		.ascii	"\327\026'\336\357\321$!\213G\314\034D\272\035\203\322"
 287      EFD12421 
 287      8B47CC1C 
 287      44BA1D83 
 287      D2
 288 03c1 CCD67E14 		.ascii	"\314\326~\024=\031|\260\255\035h\355\352\301m\345<n"
 288      3D197CB0 
 288      AD1D68ED 
 288      EAC16DE5 
 288      3C6E
 289 03d3 2BFD96C1 		.ascii	"+\375\226\301\\\034X\247\026\354\254\0310\243}\035\300"
 289      5C1C58A7 
 289      16ECAC19 
 289      30A37D1D 
 289      C0
 290 03e4 F66AC186 		.ascii	"\366j\301\206,\203\361\314\366k\301.\233\0013\332\327"
 290      2C83F1CC 
ARM GAS  /var/folders/c6/c789hm653lg9vtl73krp73tm0000gn/T//ccOmq6Sx.s 			page 23


 290      F66BC12E 
 290      9B0133DA 
 290      D7
 291 03f5 01AC4F0B 		.ascii	"\001\254O\013v\3152\230\226\331\302\304\331\236n*5;"
 291      76CD3298 
 291      96D9C2C4 
 291      D99E6E2A 
 291      353B
 292 0407 1F23CD92 		.ascii	"\037#\315\222\264Pj\3116\012\012B\320D\032\321D\244"
 292      B4506AC9 
 292      360A0A42 
 292      D0441AD1 
 292      44A4
 293 0419 5FD0C7F8 		.ascii	"_\320\307\370 \375\370\365\321,H\331\375\314\231\362"
 293      20FDF8F5 
 293      D12C48D9 
 293      FDCC99F2 
 294 0429 3F7AF844 		.ascii	"?z\370D\357\006:\307\332>H\342(%N\367\344I\215N\365"
 294      EF063AC7 
 294      DA3E48E2 
 294      28254EF7 
 294      E4498D4E 
 295 043e FC33BD6D 		.ascii	"\3743\275m\004\342\267\365o\327'=\202K\276\235\231\367"
 295      04E2B7F5 
 295      6FD7273D 
 295      824BBE9D 
 295      99F7
 296 0450 899EB5E3 		.ascii	"\211\236\265\343\244\226\003j\206/-\225\236\326\364"
 296      A496036A 
 296      862F2D95 
 296      9ED6F4
 297 045f 95AFF6C5 		.ascii	"\225\257\366\305\326\217d\206\377\376\263\270 |\211"
 297      D68F6486 
 297      FFFEB3B8 
 297      207C89
 298 046e 8EDED22D 		.ascii	"\216\336\322-\010\346\201N/\377\263\234\337\337C \311"
 298      08E6814E 
 298      2FFFB39C 
 298      DFDF4320 
 298      C9
 299 047f AEDF096C 		.ascii	"\256\337\011l\272\374\336\306\277\325\266\334Tex\330"
 299      BAFCDEC6 
 299      BFD5B6DC 
 299      546578D8 
 300 048f 46AC190B 		.ascii	"F\254\031\013\344u\354\360v*\3768\222fr\373U8t\352H"
 300      E475ECF0 
 300      762AFE38 
 300      926672FB 
 300      553874EA 
 301 04a4 FCC6325E 		.ascii	"\374\3062^\276nN\004\362\246\375\001\303F\343\271\272"
 301      BE6E4E04 
 301      F2A6FD01 
 301      C346E3B9 
 301      BA
 302 04b5 53DEC0FD 		.ascii	"S\336\300\375\357\026\277\337\256\262\233x\351\322\345"
 302      EF16BFDF 
 302      AEB29B78 
ARM GAS  /var/folders/c6/c789hm653lg9vtl73krp73tm0000gn/T//ccOmq6Sx.s 			page 24


 302      E9D2E5
 303 04c4 BFCA1B7C 		.ascii	"\277\312\033|U\373\006\257\265\014\346\342\300>\327"
 303      55FB06AF 
 303      B50CE6E2 
 303      C03ED7
 304 04d3 82AD3703 		.ascii	"\202\2557\003\3462fv]\013\326j\031\214gvS\013\266\331"
 304      E6326676 
 304      5D0BD66A 
 304      198C6776 
 304      530BB6D9 
 305 04e7 0CD8D323 		.ascii	"\014\330\323#M\0127?\251\335P\244\377\304\355\352\034"
 305      4D0A373F 
 305      A9DD50A4 
 305      FFC4EDEA 
 305      1C
 306 04f8 CED410EA 		.ascii	"\316\324\020\352\013\250/\241\276\214\372\012\352k\250"
 306      0BA82FA1 
 306      BE8CFA0A 
 306      EA6BA8
 307 0507 970A4C2F 		.ascii	"\227\012L/C\335\210\372WB\206\374F\371\220p\253y\002"
 307      43DD88FA 
 307      574286FC 
 307      46F99070 
 307      AB7902
 308 051a 5BCDCE60 		.ascii	"[\315\316`\272\262U\367\256q\231\201\274\325\033\255"
 308      BAB255F7 
 308      AE719981 
 308      BCD51BAD 
 309 052a 364D429E 		.ascii	"6MB\236\301\242r\3373%\3550}\342O\354k\036\31386\013"
 309      C1A272DF 
 309      3325ED30 
 309      7DE24FEC 
 309      6B1ECB38 
 310 0540 6CD43BEF 		.ascii	"l\324;\357[\017\330\312\312\365g\352\300o\231\305\361"
 310      5B0FD8CA 
 310      CAF567EA 
 310      C06F99C5 
 310      F1
 311 0551 31824857 		.ascii	"1\202HW\"\207\277<$\016\272\244\262O\007\253$\225\347"
 311      2287BF3C 
 311      240EBAA4 
 311      B24F07AB 
 311      2495E7
 312 0564 DFBDA324 		.ascii	"\337\275\243$\225\362,\375\013\315N\032&\225\314Ji\233"
 312      95F22CFD 
 312      0BCD4E1A 
 312      2695CC4A 
 312      699B
 313 0576 B8D3BD05 		.ascii	"\270\323\275\005\366\037A\035\274K\031\2322+\265\351"
 313      F61F411D 
 313      BC4B199A 
 313      322BB5E9 
 314 0586 97DDAD72 		.ascii	"\227\335\255rS\331\347\253\031\2322+\242\246\262\211"
 314      53D9E7AB 
 314      199A322B 
 314      A2A6B289 
 315 0596 5B8D8B5B 		.ascii	"[\215\213[\250\224\235LfO\352\223\3315\002\227\314\246"
ARM GAS  /var/folders/c6/c789hm653lg9vtl73krp73tm0000gn/T//ccOmq6Sx.s 			page 25


 315      A8949D4C 
 315      664FEA93 
 315      D9350297 
 315      CCA6
 316 05a8 C917130E 		.ascii	"\311\027\023\016\356\204\245\354\016'\207\022\233\350"
 316      EE84A5EC 
 316      0E278712 
 316      9BE8
 317 05b6 3649CA87 		.ascii	"6I\312\207\004Y`\231\347\037\2622f\236:$L\274\005\335"
 317      04596099 
 317      E71FB232 
 317      669E3A24 
 317      4CBC05DD 
 318 05ca E6B86EA8 		.ascii	"\346\270n\250\213\342\256\303\236dN>\267\017u\0110'"
 318      8BE2AEC3 
 318      9E644E3E 
 318      B70F7509 
 318      3027
 319 05dc AFD9D4C5 		.ascii	"\257\331\324\305`\023\322`\215\037,m\334\301\372ov\252"
 319      6013D260 
 319      8D1F2C6D 
 319      DCC1FA6F 
 319      76AA
 320 05ee 705B2CC3 		.ascii	"p[,\303\2718\270\235<\334\0163p#\244\216\273x\270\335"
 320      B938B89D 
 320      3CDC0E33 
 320      7023A48E 
 320      BB78B8DD 
 321 0602 96E17876 		.ascii	"\226\341xv\235<\334>3p#\244\217{y\270\303\226\341xv"
 321      9D3CDC3E 
 321      337023A4 
 321      8F7B79B8 
 321      C396E178 
 322 0617 FB79B8BF 		.ascii	"\373y\270\277\231\2013\332\032!\225\352S\341\344\014"
 322      998133DA 
 322      1A2195EA 
 322      53E1E40C 
 323 0627 B0DF321C 		.ascii	"\260\3372\034\317\356(\317n\320\014\234\313x\354\216"
 323      CFEE28CF 
 323      6ED00C9C 
 323      CB78EC8E 
 324 0637 F170972C 		.ascii	"\361p\227,\303i\330\301kt|\310\001h\217\222&9?e\273"
 324      C369D8C1 
 324      6B747CC8 
 324      01688F92 
 324      26393F65 
 325 064c 06735BB1 		.ascii	"\006s[\261\235\316\307\206H\367\010\217b\015Wa)\271"
 325      9DCEC786 
 325      48F7088F 
 325      620D5761 
 325      29B9
 326 065e D13873D3 		.ascii	"\3218s\323v\317Z\354\225\227\231\324+\240T\324O\360"
 326      76CF5AEC 
 326      959799D4 
 326      2BA054D4 
 326      4FF0
 327 0670 02B9AE77 		.ascii	"\002\271\256w\201\353u\204mY\031\221~~D\356\231\031"
ARM GAS  /var/folders/c6/c789hm653lg9vtl73krp73tm0000gn/T//ccOmq6Sx.s 			page 26


 327      81EB7584 
 327      6D591991 
 327      7E7E44EE 
 327      9919
 328 0682 910263B8 		.ascii	"\221\002c\270Oy\270\245\331V\341\370\351?\305\303-7"
 328      4F79B8A5 
 328      D956E1F8 
 328      E93FC5C3 
 328      2D37
 329 0694 0367F821 		.ascii	"\003g\370!nQ\342\014\037\234+-\303\361\354\256\362\354"
 329      6E51E20C 
 329      1F9C2B2D 
 329      C3F1ECAE 
 329      F2EC
 330 06a6 5ACCC04D 		.ascii	"Z\314\300M7\036\273\317y\2706\313p|p^\307\340\224\243"
 330      371EBBCF 
 330      79B836CB 
 330      707C705E 
 330      C7E094A3 
 331 06ba 4E20ED7A 		.ascii	"N \355z\264tqRjL\356&O\256\323\0149\2571\334m\036\356"
 331      B4747152 
 331      6A4CEE26 
 331      4FAED30C 
 331      39AF31DC 
 332 06d1 9065387E 		.ascii	"\220e8~&\376\313\303\365\232\201{\3318N\356\352\026"
 332      26FECBC3 
 332      F59A817B 
 332      D9384EEE 
 332      EA16
 333 06e3 31CB703C 		.ascii	"1\313p<\273{\272E\314\014\334\217\215\307\256\351\""
 333      BB7BBA45 
 333      CC0CDC8F 
 333      8DC7AEE9 
 333      22
 334 06f4 07F76FCB 		.ascii	"\007\367o\313p|\2344_\324\306\311M3qRcL\356\267<9)\307"
 334      707C9C34 
 334      5FD4C6C9 
 334      4D337152 
 334      634CEEB7 
 335 070c 0439A30F 		.ascii	"\0049\243\017\324\000\267\222\207[b\031\216\367u5\347"
 335      D400B792 
 335      875B6219 
 335      8EF77535 
 335      E7
 336 071d EB2FF568 		.ascii	"\353/\365h\351|]`L\356w<\2717\314\220\223\214\276x\003"
 336      E97C5D60 
 336      4CEE773C 
 336      B937CC90 
 336      938CBE78 
 337 0732 DE5A1E6F 		.ascii	"\336Z\036o\215u<\0271\274\264Y\240H7\012\354\310\325"
 337      8D753C17 
 337      31BCB459 
 337      A048370A 
 337      ECC8D5
 338 0745 8A87A736 		.ascii	"\212\207\2476\324o\243\336\202\372]\324\355\250;P\357"
 338      D46FA3DE 
 338      82FA5DD4 
ARM GAS  /var/folders/c6/c789hm653lg9vtl73krp73tm0000gn/T//ccOmq6Sx.s 			page 27


 338      EDA83B50 
 338      EF
 339 0756 40BD13F5 		.ascii	"@\275\023\365.\324\235\250\367\243N\240>\210\372\020"
 339      2ED49DA8 
 339      F7A34EA0 
 339      3E88FA10 
 340 0766 EAC3A8BB 		.ascii	"\352\303\250\273Pw\243>\202\272\027u\037\352\243\250"
 340      5077A33E 
 340      82BA1775 
 340      1FEAA3A8 
 341 0776 8FA13E8E 		.ascii	"\217\241>\216\272\037\365\247\250O\241>\203z\000\365"
 341      BA1FF5A7 
 341      A84FA13E 
 341      837A00F5 
 342 0786 A0F690A7 		.ascii	"\240\366\220\247;\254\2557\030%\346\3679!/m+\203\337"
 342      3BACAD37 
 342      1825E6F7 
 342      39212F6D 
 342      2B83DF
 343 0799 D5B9DF02 		.ascii	"\325\271\337\002D\372\016\036N\267r\237\337-\377\274"
 343      44FA0E1E 
 343      4EB7729F 
 343      DF2DFFBC 
 344 07a9 6544ED7C 		.ascii	"eD\355|\212\232\0316\344\2533I\236\000\023\017\341\373"
 344      8A9A1936 
 344      E4AB3349 
 344      9E00130F 
 344      E1FB
 345 07bb 31FB289F 		.ascii	"1\373(\237\270:\260q\3603\312\216\007\322\360\360/\250"
 345      B83AB071 
 345      F033CA8E 
 345      07D2F0F0 
 345      2FA8
 346 07cd F90FF3   		.ascii	"\371\017\363"
 347 07d0 1705EEC3 		.ascii	"\027\005\356\303\274|rN\376\241\014\215\356\320\270"
 347      BC7C724E 
 347      FEA10C8D 
 347      EED0B8
 348 07df 2127DDA1 		.ascii	"!'\335\241QZ\023,\225\233\013\344\035\264\270 \030\235"
 348      515A132C 
 348      959B0BE4 
 348      1DB4B820 
 348      189D
 349 07f1 DC9895DA 		.ascii	"\334\230\225\332\354\367\207\235MT\356J\244'\2500bC"
 349      ECF7879D 
 349      4D54EE4A 
 349      A427A830 
 349      6243
 350 0803 8590F2EB 		.ascii	"\205\220\362\353\305\036\311;.y\336c\215\270W\3552\177"
 350      C51EC93B 
 350      2E79DE63 
 350      8DB857ED 
 350      327F
 351 0815 DE7B8AB4 		.ascii	"\336{\212\264\262\325g\270\247k!\373\217\014\232Y\327"
 351      B2D567B8 
 351      A76B21FB 
 351      8F0C9A59 
ARM GAS  /var/folders/c6/c789hm653lg9vtl73krp73tm0000gn/T//ccOmq6Sx.s 			page 28


 351      D7
 352 0826 3E973A5A 		.ascii	">\227:Z\362\377\277\037\222\251S\246\270\345\177\221"
 352      F2FFBF1F 
 352      92A953A6 
 352      B8E57F91 
 353 0836 7A778D18 		.ascii	"zw\215\030vG#\261x\275\333?wNQ\241\273\274\274\330="
 353      764723B1 
 353      78BDDB3F 
 353      774E51A1 
 353      BBBCBCD8 
 354 084b DB5B56F1 		.ascii	"\333[V\361J\241;*\206\003\341p\325\224J\313-jH\366\354"
 354      4AA13B2A 
 354      8603E170 
 354      D5944ACB 
 354      2D6A48F6 
 355 0860 97E6B93C 		.ascii	"\227\346\271<dL}\274\266\25000?\032\212\004\352\203"
 355      644C7DBC 
 355      B6A83030 
 355      3F1A8A04 
 355      EA83
 356 0872 F1866820 		.ascii	"\361\206h ^\356n\250\217\271\303\221J\200\361\004\303"
 356      5EEE6EA8 
 356      8FB9C391 
 356      4A80F104 
 356      C3
 357 0883 6131E69E 		.ascii	"a1\346\236_Y9Y\214\325N\256\213\324\005'\007\305\237"
 357      5F593959 
 357      8CD54EAE 
 357      8BD40527 
 357      07C59F
 358 0896 84DC8505 		.ascii	"\204\334\205\005S\247\025\274P\360\234\233\277\035\252"
 358      53A715BC 
 358      50F09C9B 
 358      BF1DAA
 359 08a5 AB0C3754 		.ascii	"\253\0147T\005\335\365\361\252P]\034\272q4@\011\035"
 359      05DDF5F1 
 359      AA505D1C 
 359      BA713440 
 359      091D
 360 08b7 C47FF410 		.ascii	"\304\177\364\020Pk\305\312\232P]\320\035\250\012V\213"
 360      506BC5CA 
 360      9A505DD0 
 360      1DA80A56 
 360      8B
 361 08c8 0DE17820 		.ascii	"\015\341x \376j4X\017\275\214\012\004\324~\262j#U\301"
 361      FE6A3458 
 361      0FBD8C0A 
 361      04D47EB2 
 361      6A2355C1 
 362 08dc 5876843D 		.ascii	"Xv\204=\212\345D\352\243\301`U,+\332\020\255\212\331"
 362      8AE544EA 
 362      A3C16055 
 362      2C2BDA10 
 362      AD8AD9
 363 08ef 225531BB 		.ascii	"\"U1\273X\035\0133U\223\355\235Q,\306\305l\357L\271"
 363      581D0B33 
 363      5593ED9D 
ARM GAS  /var/folders/c6/c789hm653lg9vtl73krp73tm0000gn/T//ccOmq6Sx.s 			page 29


 363      512CC6C5 
 363      6CEF4CB9 
 364 0903 F0C845B1 		.ascii	"\360\310E\261\\\224\310\305,\271\230-\027\245rQ\306"
 364      5C94C8C5 
 364      2CB9982D 
 364      17A57251 
 364      C6
 365 0914 8A5CEF8C 		.ascii	"\212\\\357\214rO\244\256:4\377k\001eT\003\241\272P<"
 365      724FA4AE 
 365      3A34FF6B 
 365      01655403 
 365      A1BA503C 
 366 0928 BB126F3A 		.ascii	"\273\022o:5\343\032\317\232SQ\\\342\313\256\230\373"
 366      35E31ACF 
 366      9A53515C 
 366      E2CBAE98 
 366      FB
 367 0939 436F892F 		.ascii	"Co\211/\247\302\357-))\366ey\347y\213}\2662\220\212"
 367      A7C2EF2D 
 367      2929F665 
 367      79E7798B 
 367      7DB63290 
 368 094e 621FFD01 		.ascii	"b\037\375\001\216\324\324\347\003q\305\031V\265\301"
 368      8ED4D4E7 
 368      0371C519 
 368      56B5C1
 369 095d 94645586 		.ascii	"\224dU\206\203b\214\226\332g\372}>{\271\347{>\373\214"
 369      83628C96 
 369      DA67FA7D 
 369      3E7BB9E7 
 369      7B3EFB8C 
 370 0971 59BE72A6 		.ascii	"Y\276r\246Jm3}\276Q\241\010\233\354PU \356\224\253\265"
 370      4A6D337D 
 370      BE51A108 
 370      9BEC5055 
 370      20EE94AB 
 371 0986 62FD4F03 		.ascii	"b\375O\003qG(\302\206\"\020\037\233\344\007h\363c\221"
 371      714728C2 
 371      8622101F 
 371      9BE40768 
 371      F36391
 372 0999 8628BB6F 		.ascii	"\206(\273og\226vfjg\177>\245\015\240\340\202\270\333"
 372      67967666 
 372      6A677F3E 
 372      A50DA0E0 
 372      82B8DB
 373 09ac 33C75FE6 		.ascii	"3\307_\346\207\000r\243#\325\323\012\276\275`\001\214"
 373      870072A3 
 373      23D5D30A 
 373      BEBD6001 
 373      8C
 374 09bd 749ECFE3 		.ascii	"t\236\317\343\011\314\205\261-\016V\013\036_\216\267"
 374      09CC85B1 
 374      2D0E560B 
 374      1E5F8EB7 
 375 09cd BCDC336B 		.ascii	"\274\3343k\266\317\316\224\315S\346s\314(\2359\325\347"
 375      B6CFCE94 
ARM GAS  /var/folders/c6/c789hm653lg9vtl73krp73tm0000gn/T//ccOmq6Sx.s 			page 30


 375      CD53E673 
 375      CC289D39 
 375      D5E7
 376 09df 9F8B9542 		.ascii	"\237\213\225B\265R\304*\271\276\022\177\211\357\373"
 376      B552C42A 
 376      B9BE127F 
 376      89EFFB
 377 09ee 25C5058E 		.ascii	"%\305\005\216\031^\325\310+\033%\237M\315a\000%/\371"
 377      195ED5C8 
 377      2B1B259F 
 377      4DCD6100 
 377      252FF9
 378 0a01 5859A894 		.ascii	"XY\250\224EP&-\012sXk|\342E\213\344\223\242\\\326\266"
 378      4550262D 
 378      0A73586B 
 378      7CE2458B 
 378      E493A25C 
 379 0a17 DCCBEEB1 		.ascii	"\334\313\356\261\326\311Z\221\\S\355\246\3452\004\345"
 379      D6C95A91 
 379      5C53EDA6 
 379      E53204E5 
 380 0a27 A957B553 		.ascii	"\251W\265S\237>g\237Y\354\001_\374\251[\317g\371\375"
 380      9F3E679F 
 380      59EC015F 
 380      FCA95BCF 
 380      67F9FD
 381 0a3a 9ED9BE51 		.ascii	"\236\331\276Q\340lY\241\237\271\352`S\315&7\213\251"
 381      E06C59A1 
 381      9FB9EA60 
 381      53CD2637 
 381      8BA9
 382 0a4c E8FF005E 		.ascii	"\350\377\000^\316\201\357"
 382      CE81EF
 383              		.text
 384              		.section	.gnu.lto_.symtab.25f6712759b6a374,"",%progbits
 385 0000 5F70616C 		.ascii	"_pal_lld_init\000\000\000\000\000\000\000\000\000\000"
 385      5F6C6C64 
 385      5F696E69 
 385      74000000 
 385      00000000 
 386 0017 0000A100 		.ascii	"\000\000\241\000\000\000_pal_lld_setgroupmode\000\000"
 386      00005F70 
 386      616C5F6C 
 386      6C645F73 
 386      65746772 
 387 0034 00000000 		.ascii	"\000\000\000\000\000\000\000\000\000\000\333\000\000"
 387      00000000 
 387      0000DB00 
 387      00
 388 0041 00       		.ascii	"\000"
 389              		.text
 390              		.section	.gnu.lto_.opts,"",%progbits
 391 0000 272D6D63 		.ascii	"'-mcpu=cortex-m4' '-mno-thumb-interwork' '-mthumb' "
 391      70753D63 
 391      6F727465 
 391      782D6D34 
 391      2720272D 
ARM GAS  /var/folders/c6/c789hm653lg9vtl73krp73tm0000gn/T//ccOmq6Sx.s 			page 31


 392 0033 272D6767 		.ascii	"'-ggdb' '-O2' '-fomit-frame-pointer' '-falign-funct"
 392      64622720 
 392      272D4F32 
 392      2720272D 
 392      666F6D69 
 393 0066 696F6E73 		.ascii	"ions=16' '-ffunction-sections' '-fdata-sections' '-"
 393      3D313627 
 393      20272D66 
 393      66756E63 
 393      74696F6E 
 394 0099 666E6F2D 		.ascii	"fno-common' '-flto'\000"
 394      636F6D6D 
 394      6F6E2720 
 394      272D666C 
 394      746F2700 
 395              		.text
 396              		.cfi_sections	.debug_frame
 397              		.section	.text._pal_lld_init,"ax",%progbits
 398              		.align	2
 399              		.p2align 4,,15
 400              		.global	_pal_lld_init
 401              		.thumb
 402              		.thumb_func
 403              		.type	_pal_lld_init, %function
 404              	_pal_lld_init:
 405              	.LFB261:
 406              		.file 1 "../../../os/hal/ports/STM32/LLD/GPIOv2/pal_lld.c"
 407              		.loc 1 92 0
 408              		.cfi_startproc
 409              		@ args = 0, pretend = 0, frame = 0
 410              		@ frame_needed = 0, uses_anonymous_args = 0
 411              		@ link register save eliminated.
 412              	.LVL0:
 413 0000 2DE9F00F 		push	{r4, r5, r6, r7, r8, r9, r10, fp}
 414              		.cfi_def_cfa_offset 32
 415              		.cfi_offset 4, -32
 416              		.cfi_offset 5, -28
 417              		.cfi_offset 6, -24
 418              		.cfi_offset 7, -20
 419              		.cfi_offset 8, -16
 420              		.cfi_offset 9, -12
 421              		.cfi_offset 10, -8
 422              		.cfi_offset 11, -4
 423              		.loc 1 105 0
 424 0004 DFF8AC91 		ldr	r9, .L2+28
 425              	.LBB20:
 426              	.LBB21:
 427              		.loc 1 67 0
 428 0008 DFF8AC81 		ldr	r8, .L2+32
 429              	.LBE21:
 430              	.LBE20:
 431              		.loc 1 105 0
 432 000c D9F830B0 		ldr	fp, [r9, #48]
 433              	.LBB23:
 434              	.LBB24:
 435              		.loc 1 67 0
 436 0010 DFF8A8C1 		ldr	ip, .L2+36
ARM GAS  /var/folders/c6/c789hm653lg9vtl73krp73tm0000gn/T//ccOmq6Sx.s 			page 32


 437              	.LBE24:
 438              	.LBE23:
 439              	.LBB26:
 440              	.LBB27:
 441 0014 604F     		ldr	r7, .L2
 442              	.LBE27:
 443              	.LBE26:
 444              	.LBB29:
 445              	.LBB30:
 446 0016 614E     		ldr	r6, .L2+4
 447              	.LBE30:
 448              	.LBE29:
 449              	.LBB32:
 450              	.LBB33:
 451 0018 614D     		ldr	r5, .L2+8
 452              	.LBE33:
 453              	.LBE32:
 454              	.LBB35:
 455              	.LBB36:
 456 001a 624C     		ldr	r4, .L2+12
 457              	.LBE36:
 458              	.LBE35:
 459              	.LBB38:
 460              	.LBB39:
 461 001c 6249     		ldr	r1, .L2+16
 462              	.LBE39:
 463              	.LBE38:
 464              	.LBB41:
 465              	.LBB42:
 466 001e 634A     		ldr	r2, .L2+20
 467              	.LBE42:
 468              	.LBE41:
 469              		.loc 1 105 0
 470 0020 40F2FF1A 		movw	r10, #511
 471 0024 4BEA0A0B 		orr	fp, fp, r10
 472 0028 C9F830B0 		str	fp, [r9, #48]
 473              		.loc 1 106 0
 474 002c D9F850B0 		ldr	fp, [r9, #80]
 475 0030 4BEA0A0A 		orr	r10, fp, r10
 476 0034 C9F850A0 		str	r10, [r9, #80]
 477              	.LVL1:
 478              	.LBB44:
 479              	.LBB22:
 480              		.loc 1 67 0
 481 0038 4368     		ldr	r3, [r0, #4]
 482 003a C8F80430 		str	r3, [r8, #4]
 483              		.loc 1 68 0
 484 003e 8368     		ldr	r3, [r0, #8]
 485 0040 C8F80830 		str	r3, [r8, #8]
 486              		.loc 1 69 0
 487 0044 C368     		ldr	r3, [r0, #12]
 488 0046 C8F80C30 		str	r3, [r8, #12]
 489              		.loc 1 70 0
 490 004a 0369     		ldr	r3, [r0, #16]
 491 004c C8F81430 		str	r3, [r8, #20]
 492              		.loc 1 71 0
 493 0050 4369     		ldr	r3, [r0, #20]
ARM GAS  /var/folders/c6/c789hm653lg9vtl73krp73tm0000gn/T//ccOmq6Sx.s 			page 33


 494 0052 C8F82030 		str	r3, [r8, #32]
 495              		.loc 1 72 0
 496 0056 8369     		ldr	r3, [r0, #24]
 497 0058 C8F82430 		str	r3, [r8, #36]
 498              		.loc 1 73 0
 499 005c 0368     		ldr	r3, [r0]
 500 005e C8F80030 		str	r3, [r8]
 501              	.LVL2:
 502              	.LBE22:
 503              	.LBE44:
 504              	.LBB45:
 505              	.LBB25:
 506              		.loc 1 67 0
 507 0062 036A     		ldr	r3, [r0, #32]
 508 0064 CCF80430 		str	r3, [ip, #4]
 509              		.loc 1 68 0
 510 0068 436A     		ldr	r3, [r0, #36]
 511 006a CCF80830 		str	r3, [ip, #8]
 512              		.loc 1 69 0
 513 006e 836A     		ldr	r3, [r0, #40]
 514 0070 CCF80C30 		str	r3, [ip, #12]
 515              		.loc 1 70 0
 516 0074 C36A     		ldr	r3, [r0, #44]
 517 0076 CCF81430 		str	r3, [ip, #20]
 518              		.loc 1 71 0
 519 007a 036B     		ldr	r3, [r0, #48]
 520 007c CCF82030 		str	r3, [ip, #32]
 521              		.loc 1 72 0
 522 0080 436B     		ldr	r3, [r0, #52]
 523 0082 CCF82430 		str	r3, [ip, #36]
 524              		.loc 1 73 0
 525 0086 C369     		ldr	r3, [r0, #28]
 526 0088 CCF80030 		str	r3, [ip]
 527              	.LVL3:
 528              	.LBE25:
 529              	.LBE45:
 530              	.LBB46:
 531              	.LBB28:
 532              		.loc 1 67 0
 533 008c C36B     		ldr	r3, [r0, #60]
 534 008e 7B60     		str	r3, [r7, #4]
 535              		.loc 1 68 0
 536 0090 036C     		ldr	r3, [r0, #64]
 537 0092 BB60     		str	r3, [r7, #8]
 538              		.loc 1 69 0
 539 0094 436C     		ldr	r3, [r0, #68]
 540 0096 FB60     		str	r3, [r7, #12]
 541              		.loc 1 70 0
 542 0098 836C     		ldr	r3, [r0, #72]
 543 009a 7B61     		str	r3, [r7, #20]
 544              		.loc 1 71 0
 545 009c C36C     		ldr	r3, [r0, #76]
 546 009e 3B62     		str	r3, [r7, #32]
 547              		.loc 1 72 0
 548 00a0 036D     		ldr	r3, [r0, #80]
 549 00a2 7B62     		str	r3, [r7, #36]
 550              		.loc 1 73 0
ARM GAS  /var/folders/c6/c789hm653lg9vtl73krp73tm0000gn/T//ccOmq6Sx.s 			page 34


 551 00a4 836B     		ldr	r3, [r0, #56]
 552 00a6 3B60     		str	r3, [r7]
 553              	.LVL4:
 554              	.LBE28:
 555              	.LBE46:
 556              	.LBB47:
 557              	.LBB31:
 558              		.loc 1 67 0
 559 00a8 876D     		ldr	r7, [r0, #88]
 560 00aa 7760     		str	r7, [r6, #4]
 561              		.loc 1 68 0
 562 00ac C76D     		ldr	r7, [r0, #92]
 563 00ae B760     		str	r7, [r6, #8]
 564              		.loc 1 69 0
 565 00b0 076E     		ldr	r7, [r0, #96]
 566 00b2 F760     		str	r7, [r6, #12]
 567              		.loc 1 70 0
 568 00b4 476E     		ldr	r7, [r0, #100]
 569 00b6 7761     		str	r7, [r6, #20]
 570              		.loc 1 71 0
 571 00b8 876E     		ldr	r7, [r0, #104]
 572 00ba 3762     		str	r7, [r6, #32]
 573              		.loc 1 72 0
 574 00bc C76E     		ldr	r7, [r0, #108]
 575 00be 7762     		str	r7, [r6, #36]
 576              		.loc 1 73 0
 577 00c0 476D     		ldr	r7, [r0, #84]
 578 00c2 3760     		str	r7, [r6]
 579              	.LVL5:
 580              	.LBE31:
 581              	.LBE47:
 582              	.LBB48:
 583              	.LBB34:
 584              		.loc 1 67 0
 585 00c4 466F     		ldr	r6, [r0, #116]
 586 00c6 6E60     		str	r6, [r5, #4]
 587              		.loc 1 68 0
 588 00c8 866F     		ldr	r6, [r0, #120]
 589 00ca AE60     		str	r6, [r5, #8]
 590              		.loc 1 69 0
 591 00cc C66F     		ldr	r6, [r0, #124]
 592 00ce EE60     		str	r6, [r5, #12]
 593              		.loc 1 70 0
 594 00d0 D0F88060 		ldr	r6, [r0, #128]
 595 00d4 6E61     		str	r6, [r5, #20]
 596              		.loc 1 71 0
 597 00d6 D0F88460 		ldr	r6, [r0, #132]
 598 00da 2E62     		str	r6, [r5, #32]
 599              		.loc 1 72 0
 600 00dc D0F88860 		ldr	r6, [r0, #136]
 601 00e0 6E62     		str	r6, [r5, #36]
 602              		.loc 1 73 0
 603 00e2 066F     		ldr	r6, [r0, #112]
 604 00e4 2E60     		str	r6, [r5]
 605              	.LVL6:
 606              	.LBE34:
 607              	.LBE48:
ARM GAS  /var/folders/c6/c789hm653lg9vtl73krp73tm0000gn/T//ccOmq6Sx.s 			page 35


 608              	.LBB49:
 609              	.LBB37:
 610              		.loc 1 67 0
 611 00e6 D0F89050 		ldr	r5, [r0, #144]
 612 00ea 6560     		str	r5, [r4, #4]
 613              		.loc 1 68 0
 614 00ec D0F89450 		ldr	r5, [r0, #148]
 615 00f0 A560     		str	r5, [r4, #8]
 616              		.loc 1 69 0
 617 00f2 D0F89850 		ldr	r5, [r0, #152]
 618 00f6 E560     		str	r5, [r4, #12]
 619              		.loc 1 70 0
 620 00f8 D0F89C50 		ldr	r5, [r0, #156]
 621 00fc 6561     		str	r5, [r4, #20]
 622              		.loc 1 71 0
 623 00fe D0F8A050 		ldr	r5, [r0, #160]
 624 0102 2562     		str	r5, [r4, #32]
 625              		.loc 1 72 0
 626 0104 D0F8A450 		ldr	r5, [r0, #164]
 627 0108 6562     		str	r5, [r4, #36]
 628              		.loc 1 73 0
 629 010a D0F88C50 		ldr	r5, [r0, #140]
 630 010e 2560     		str	r5, [r4]
 631              	.LVL7:
 632              	.LBE37:
 633              	.LBE49:
 634              	.LBB50:
 635              	.LBB40:
 636              		.loc 1 67 0
 637 0110 D0F8AC40 		ldr	r4, [r0, #172]
 638 0114 4C60     		str	r4, [r1, #4]
 639              		.loc 1 68 0
 640 0116 D0F8B040 		ldr	r4, [r0, #176]
 641 011a 8C60     		str	r4, [r1, #8]
 642              		.loc 1 69 0
 643 011c D0F8B440 		ldr	r4, [r0, #180]
 644 0120 CC60     		str	r4, [r1, #12]
 645              		.loc 1 70 0
 646 0122 D0F8B840 		ldr	r4, [r0, #184]
 647 0126 4C61     		str	r4, [r1, #20]
 648              		.loc 1 71 0
 649 0128 D0F8BC40 		ldr	r4, [r0, #188]
 650 012c 0C62     		str	r4, [r1, #32]
 651              		.loc 1 72 0
 652 012e D0F8C040 		ldr	r4, [r0, #192]
 653 0132 4C62     		str	r4, [r1, #36]
 654              		.loc 1 73 0
 655 0134 D0F8A840 		ldr	r4, [r0, #168]
 656 0138 0C60     		str	r4, [r1]
 657              	.LVL8:
 658              	.LBE40:
 659              	.LBE50:
 660              	.LBB51:
 661              	.LBB43:
 662              		.loc 1 67 0
 663 013a D0F8C810 		ldr	r1, [r0, #200]
 664 013e 5160     		str	r1, [r2, #4]
ARM GAS  /var/folders/c6/c789hm653lg9vtl73krp73tm0000gn/T//ccOmq6Sx.s 			page 36


 665              		.loc 1 68 0
 666 0140 D0F8CC10 		ldr	r1, [r0, #204]
 667 0144 9160     		str	r1, [r2, #8]
 668              		.loc 1 69 0
 669 0146 D0F8D010 		ldr	r1, [r0, #208]
 670 014a D160     		str	r1, [r2, #12]
 671              		.loc 1 70 0
 672 014c D0F8D410 		ldr	r1, [r0, #212]
 673 0150 5161     		str	r1, [r2, #20]
 674              		.loc 1 71 0
 675 0152 D0F8D810 		ldr	r1, [r0, #216]
 676 0156 1162     		str	r1, [r2, #32]
 677              		.loc 1 72 0
 678 0158 D0F8DC10 		ldr	r1, [r0, #220]
 679 015c 5162     		str	r1, [r2, #36]
 680              		.loc 1 73 0
 681 015e D0F8C410 		ldr	r1, [r0, #196]
 682 0162 1160     		str	r1, [r2]
 683              	.LVL9:
 684              	.LBE43:
 685              	.LBE51:
 686              	.LBB52:
 687              	.LBB53:
 688              		.loc 1 67 0
 689 0164 124B     		ldr	r3, .L2+24
 690 0166 D0F8E420 		ldr	r2, [r0, #228]
 691 016a 5A60     		str	r2, [r3, #4]
 692              		.loc 1 68 0
 693 016c D0F8E820 		ldr	r2, [r0, #232]
 694 0170 9A60     		str	r2, [r3, #8]
 695              		.loc 1 69 0
 696 0172 D0F8EC20 		ldr	r2, [r0, #236]
 697 0176 DA60     		str	r2, [r3, #12]
 698              		.loc 1 70 0
 699 0178 D0F8F020 		ldr	r2, [r0, #240]
 700 017c 5A61     		str	r2, [r3, #20]
 701              		.loc 1 71 0
 702 017e D0F8F420 		ldr	r2, [r0, #244]
 703 0182 1A62     		str	r2, [r3, #32]
 704              		.loc 1 72 0
 705 0184 D0F8F820 		ldr	r2, [r0, #248]
 706 0188 5A62     		str	r2, [r3, #36]
 707              		.loc 1 73 0
 708 018a D0F8E020 		ldr	r2, [r0, #224]
 709 018e 1A60     		str	r2, [r3]
 710              	.LBE53:
 711              	.LBE52:
 712              		.loc 1 139 0
 713 0190 BDE8F00F 		pop	{r4, r5, r6, r7, r8, r9, r10, fp}
 714 0194 7047     		bx	lr
 715              	.L3:
 716 0196 00BF     		.align	2
 717              	.L2:
 718 0198 00080240 		.word	1073874944
 719 019c 000C0240 		.word	1073875968
 720 01a0 00100240 		.word	1073876992
 721 01a4 00140240 		.word	1073878016
ARM GAS  /var/folders/c6/c789hm653lg9vtl73krp73tm0000gn/T//ccOmq6Sx.s 			page 37


 722 01a8 00180240 		.word	1073879040
 723 01ac 001C0240 		.word	1073880064
 724 01b0 00200240 		.word	1073881088
 725 01b4 00380240 		.word	1073887232
 726 01b8 00000240 		.word	1073872896
 727 01bc 00040240 		.word	1073873920
 728              		.cfi_endproc
 729              	.LFE261:
 730              		.size	_pal_lld_init, .-_pal_lld_init
 731              		.section	.text._pal_lld_setgroupmode,"ax",%progbits
 732              		.align	2
 733              		.p2align 4,,15
 734              		.global	_pal_lld_setgroupmode
 735              		.thumb
 736              		.thumb_func
 737              		.type	_pal_lld_setgroupmode, %function
 738              	_pal_lld_setgroupmode:
 739              	.LFB262:
 740              		.loc 1 157 0
 741              		.cfi_startproc
 742              		@ args = 0, pretend = 0, frame = 0
 743              		@ frame_needed = 0, uses_anonymous_args = 0
 744              		@ link register save eliminated.
 745              	.LVL10:
 746 0000 2DE9F00F 		push	{r4, r5, r6, r7, r8, r9, r10, fp}
 747              		.cfi_def_cfa_offset 32
 748              		.cfi_offset 4, -32
 749              		.cfi_offset 5, -28
 750              		.cfi_offset 6, -24
 751              		.cfi_offset 7, -20
 752              		.cfi_offset 8, -16
 753              		.cfi_offset 9, -12
 754              		.cfi_offset 10, -8
 755              		.cfi_offset 11, -4
 756              		.loc 1 164 0
 757 0004 0023     		movs	r3, #0
 758              		.loc 1 159 0
 759 0006 02F00307 		and	r7, r2, #3
 760              	.LVL11:
 761              		.loc 1 160 0
 762 000a C2F38006 		ubfx	r6, r2, #2, #1
 763              	.LVL12:
 764              		.loc 1 161 0
 765 000e C2F3C105 		ubfx	r5, r2, #3, #2
 766              	.LVL13:
 767              		.loc 1 162 0
 768 0012 C2F34114 		ubfx	r4, r2, #5, #2
 769              	.LVL14:
 770              	.LBB54:
 771              		.loc 1 170 0
 772 0016 4FF00F09 		mov	r9, #15
 773              	.LBE54:
 774              		.loc 1 163 0
 775 001a C2F3C312 		ubfx	r2, r2, #7, #4
 776              	.LVL15:
 777              	.LBB55:
 778              		.loc 1 175 0
ARM GAS  /var/folders/c6/c789hm653lg9vtl73krp73tm0000gn/T//ccOmq6Sx.s 			page 38


 779 001e 4FF0010A 		mov	r10, #1
 780 0022 38E0     		b	.L9
 781              	.LVL16:
 782              	.L14:
 783              		.loc 1 172 0
 784 0024 D0F820B0 		ldr	fp, [r0, #32]
 785 0028 2BEA0C0C 		bic	ip, fp, ip
 786              	.LVL17:
 787 002c 4CEA0808 		orr	r8, ip, r8
 788              	.LVL18:
 789 0030 C0F82080 		str	r8, [r0, #32]
 790              	.L7:
 791              	.LVL19:
 792              		.loc 1 176 0
 793 0034 D0F804C0 		ldr	ip, [r0, #4]
 794              		.loc 1 175 0
 795 0038 0AFA03F8 		lsl	r8, r10, r3
 796              		.loc 1 176 0
 797 003c 2CEA080C 		bic	ip, ip, r8
 798 0040 4CEA060C 		orr	ip, ip, r6
 799 0044 C0F804C0 		str	ip, [r0, #4]
 800              	.LVL20:
 801              		.loc 1 177 0
 802 0048 4FF0030B 		mov	fp, #3
 803 004c 4FEA430C 		lsl	ip, r3, #1
 804              		.loc 1 178 0
 805 0050 D0F80880 		ldr	r8, [r0, #8]
 806              		.loc 1 177 0
 807 0054 0BFA0CFC 		lsl	ip, fp, ip
 808              	.LVL21:
 809              		.loc 1 178 0
 810 0058 6FEA0C0C 		mvn	ip, ip
 811              	.LVL22:
 812 005c 0CEA0808 		and	r8, ip, r8
 813 0060 48EA0508 		orr	r8, r8, r5
 814 0064 C0F80880 		str	r8, [r0, #8]
 815              		.loc 1 179 0
 816 0068 D0F80C80 		ldr	r8, [r0, #12]
 817 006c 0CEA0808 		and	r8, ip, r8
 818 0070 48EA0408 		orr	r8, r8, r4
 819 0074 C0F80C80 		str	r8, [r0, #12]
 820              		.loc 1 180 0
 821 0078 D0F80080 		ldr	r8, [r0]
 822 007c 0CEA080C 		and	ip, ip, r8
 823              	.LVL23:
 824 0080 4CEA070C 		orr	ip, ip, r7
 825 0084 C0F800C0 		str	ip, [r0]
 826              	.LVL24:
 827              	.L5:
 828              	.LBE55:
 829              		.loc 1 183 0
 830 0088 4908     		lsrs	r1, r1, #1
 831              	.LVL25:
 832 008a 1AD0     		beq	.L4
 833              		.loc 1 185 0
 834 008c 7600     		lsls	r6, r6, #1
 835              	.LVL26:
ARM GAS  /var/folders/c6/c789hm653lg9vtl73krp73tm0000gn/T//ccOmq6Sx.s 			page 39


 836              		.loc 1 186 0
 837 008e AD00     		lsls	r5, r5, #2
 838              	.LVL27:
 839              		.loc 1 187 0
 840 0090 A400     		lsls	r4, r4, #2
 841              	.LVL28:
 842              		.loc 1 188 0
 843 0092 BF00     		lsls	r7, r7, #2
 844              	.LVL29:
 845              		.loc 1 189 0
 846 0094 0133     		adds	r3, r3, #1
 847              	.LVL30:
 848              	.L9:
 849              	.LBB56:
 850              		.loc 1 169 0
 851 0096 03F0070C 		and	ip, r3, #7
 852 009a 4FEA8C0C 		lsl	ip, ip, #2
 853              	.LBE56:
 854              		.loc 1 166 0
 855 009e 11F0010F 		tst	r1, #1
 856              	.LBB57:
 857              		.loc 1 169 0
 858 00a2 02FA0CF8 		lsl	r8, r2, ip
 859              	.LVL31:
 860              		.loc 1 170 0
 861 00a6 09FA0CFC 		lsl	ip, r9, ip
 862              	.LVL32:
 863              	.LBE57:
 864              		.loc 1 166 0
 865 00aa EDD0     		beq	.L5
 866              	.LBB58:
 867              		.loc 1 171 0
 868 00ac 072B     		cmp	r3, #7
 869 00ae B9D9     		bls	.L14
 870              		.loc 1 174 0
 871 00b0 D0F824B0 		ldr	fp, [r0, #36]
 872 00b4 2BEA0C0C 		bic	ip, fp, ip
 873              	.LVL33:
 874 00b8 4CEA0808 		orr	r8, ip, r8
 875              	.LVL34:
 876 00bc C0F82480 		str	r8, [r0, #36]
 877 00c0 B8E7     		b	.L7
 878              	.L4:
 879              	.LBE58:
 880              		.loc 1 191 0
 881 00c2 BDE8F00F 		pop	{r4, r5, r6, r7, r8, r9, r10, fp}
 882              	.LVL35:
 883 00c6 7047     		bx	lr
 884              		.cfi_endproc
 885              	.LFE262:
 886              		.size	_pal_lld_setgroupmode, .-_pal_lld_setgroupmode
 887 00c8 AFF30080 		.text
 887      AFF30080 
 888              	.Letext0:
 889              		.file 2 "/usr/local/Cellar/gcc-arm-none-eabi/20140805/arm-none-eabi/include/machine/_default_types
 890              		.file 3 "/usr/local/Cellar/gcc-arm-none-eabi/20140805/arm-none-eabi/include/stdint.h"
 891              		.file 4 "../../../os/rt/ports/ARMCMx/compilers/GCC/chtypes.h"
ARM GAS  /var/folders/c6/c789hm653lg9vtl73krp73tm0000gn/T//ccOmq6Sx.s 			page 40


 892              		.file 5 "../../../os/rt/include/chsystypes.h"
 893              		.file 6 "../../../os/rt/include/chschd.h"
 894              		.file 7 "../../../os/ext/CMSIS/ST/stm32f407xx.h"
 895              		.file 8 "../../../os/rt/ports/ARMCMx/chcore.h"
 896              		.file 9 "../../../os/rt/ports/ARMCMx/chcore_v7m.h"
 897              		.file 10 "../../../os/rt/include/chtm.h"
 898              		.file 11 "../../../os/rt/include/chsem.h"
 899              		.file 12 "../../../os/rt/include/chmtx.h"
 900              		.file 13 "../../../os/hal/ports/STM32/LLD/GPIOv2/pal_lld.h"
 901              		.file 14 "../../../os/ext/CMSIS/include/core_cm4.h"
 902              		.section	.debug_info,"",%progbits
 903              	.Ldebug_info0:
 904 0000 710C0000 		.4byte	0xc71
 905 0004 0400     		.2byte	0x4
 906 0006 00000000 		.4byte	.Ldebug_abbrev0
 907 000a 04       		.byte	0x4
 908 000b 01       		.uleb128 0x1
 909 000c 85060000 		.4byte	.LASF172
 910 0010 01       		.byte	0x1
 911 0011 6B070000 		.4byte	.LASF173
 912 0015 F6040000 		.4byte	.LASF174
 913 0019 F0000000 		.4byte	.Ldebug_ranges0+0xf0
 914 001d 00000000 		.4byte	0
 915 0021 00000000 		.4byte	.Ldebug_line0
 916 0025 02       		.uleb128 0x2
 917 0026 04       		.byte	0x4
 918 0027 05       		.byte	0x5
 919 0028 696E7400 		.ascii	"int\000"
 920 002c 03       		.uleb128 0x3
 921 002d 04       		.byte	0x4
 922 002e 07       		.byte	0x7
 923 002f F7010000 		.4byte	.LASF0
 924 0033 03       		.uleb128 0x3
 925 0034 01       		.byte	0x1
 926 0035 06       		.byte	0x6
 927 0036 00010000 		.4byte	.LASF1
 928 003a 04       		.uleb128 0x4
 929 003b 36000000 		.4byte	.LASF4
 930 003f 02       		.byte	0x2
 931 0040 1C       		.byte	0x1c
 932 0041 45000000 		.4byte	0x45
 933 0045 03       		.uleb128 0x3
 934 0046 01       		.byte	0x1
 935 0047 08       		.byte	0x8
 936 0048 0F040000 		.4byte	.LASF2
 937 004c 03       		.uleb128 0x3
 938 004d 02       		.byte	0x2
 939 004e 05       		.byte	0x5
 940 004f 32040000 		.4byte	.LASF3
 941 0053 04       		.uleb128 0x4
 942 0054 57050000 		.4byte	.LASF5
 943 0058 02       		.byte	0x2
 944 0059 26       		.byte	0x26
 945 005a 5E000000 		.4byte	0x5e
 946 005e 03       		.uleb128 0x3
 947 005f 02       		.byte	0x2
 948 0060 07       		.byte	0x7
ARM GAS  /var/folders/c6/c789hm653lg9vtl73krp73tm0000gn/T//ccOmq6Sx.s 			page 41


 949 0061 32020000 		.4byte	.LASF6
 950 0065 04       		.uleb128 0x4
 951 0066 A8020000 		.4byte	.LASF7
 952 006a 02       		.byte	0x2
 953 006b 37       		.byte	0x37
 954 006c 70000000 		.4byte	0x70
 955 0070 03       		.uleb128 0x3
 956 0071 04       		.byte	0x4
 957 0072 05       		.byte	0x5
 958 0073 46010000 		.4byte	.LASF8
 959 0077 04       		.uleb128 0x4
 960 0078 99050000 		.4byte	.LASF9
 961 007c 02       		.byte	0x2
 962 007d 38       		.byte	0x38
 963 007e 82000000 		.4byte	0x82
 964 0082 03       		.uleb128 0x3
 965 0083 04       		.byte	0x4
 966 0084 07       		.byte	0x7
 967 0085 E4040000 		.4byte	.LASF10
 968 0089 03       		.uleb128 0x3
 969 008a 08       		.byte	0x8
 970 008b 05       		.byte	0x5
 971 008c F2000000 		.4byte	.LASF11
 972 0090 04       		.uleb128 0x4
 973 0091 89030000 		.4byte	.LASF12
 974 0095 02       		.byte	0x2
 975 0096 4E       		.byte	0x4e
 976 0097 9B000000 		.4byte	0x9b
 977 009b 03       		.uleb128 0x3
 978 009c 08       		.byte	0x8
 979 009d 07       		.byte	0x7
 980 009e 7C000000 		.4byte	.LASF13
 981 00a2 04       		.uleb128 0x4
 982 00a3 4D060000 		.4byte	.LASF14
 983 00a7 03       		.byte	0x3
 984 00a8 2A       		.byte	0x2a
 985 00a9 3A000000 		.4byte	0x3a
 986 00ad 04       		.uleb128 0x4
 987 00ae 72010000 		.4byte	.LASF15
 988 00b2 03       		.byte	0x3
 989 00b3 36       		.byte	0x36
 990 00b4 53000000 		.4byte	0x53
 991 00b8 04       		.uleb128 0x4
 992 00b9 07040000 		.4byte	.LASF16
 993 00bd 03       		.byte	0x3
 994 00be 41       		.byte	0x41
 995 00bf 65000000 		.4byte	0x65
 996 00c3 04       		.uleb128 0x4
 997 00c4 B3040000 		.4byte	.LASF17
 998 00c8 03       		.byte	0x3
 999 00c9 42       		.byte	0x42
 1000 00ca 77000000 		.4byte	0x77
 1001 00ce 04       		.uleb128 0x4
 1002 00cf 2D000000 		.4byte	.LASF18
 1003 00d3 03       		.byte	0x3
 1004 00d4 4E       		.byte	0x4e
 1005 00d5 90000000 		.4byte	0x90
ARM GAS  /var/folders/c6/c789hm653lg9vtl73krp73tm0000gn/T//ccOmq6Sx.s 			page 42


 1006 00d9 05       		.uleb128 0x5
 1007 00da B8000000 		.4byte	0xb8
 1008 00de 05       		.uleb128 0x5
 1009 00df C3000000 		.4byte	0xc3
 1010 00e3 04       		.uleb128 0x4
 1011 00e4 FF050000 		.4byte	.LASF19
 1012 00e8 04       		.byte	0x4
 1013 00e9 45       		.byte	0x45
 1014 00ea C3000000 		.4byte	0xc3
 1015 00ee 04       		.uleb128 0x4
 1016 00ef 7C020000 		.4byte	.LASF20
 1017 00f3 04       		.byte	0x4
 1018 00f4 48       		.byte	0x48
 1019 00f5 A2000000 		.4byte	0xa2
 1020 00f9 04       		.uleb128 0x4
 1021 00fa 69010000 		.4byte	.LASF21
 1022 00fe 04       		.byte	0x4
 1023 00ff 49       		.byte	0x49
 1024 0100 A2000000 		.4byte	0xa2
 1025 0104 04       		.uleb128 0x4
 1026 0105 9E030000 		.4byte	.LASF22
 1027 0109 04       		.byte	0x4
 1028 010a 4A       		.byte	0x4a
 1029 010b A2000000 		.4byte	0xa2
 1030 010f 04       		.uleb128 0x4
 1031 0110 E9030000 		.4byte	.LASF23
 1032 0114 04       		.byte	0x4
 1033 0115 4C       		.byte	0x4c
 1034 0116 C3000000 		.4byte	0xc3
 1035 011a 04       		.uleb128 0x4
 1036 011b 61020000 		.4byte	.LASF24
 1037 011f 04       		.byte	0x4
 1038 0120 4D       		.byte	0x4d
 1039 0121 B8000000 		.4byte	0xb8
 1040 0125 04       		.uleb128 0x4
 1041 0126 9C020000 		.4byte	.LASF25
 1042 012a 04       		.byte	0x4
 1043 012b 4F       		.byte	0x4f
 1044 012c C3000000 		.4byte	0xc3
 1045 0130 04       		.uleb128 0x4
 1046 0131 F1010000 		.4byte	.LASF26
 1047 0135 04       		.byte	0x4
 1048 0136 51       		.byte	0x51
 1049 0137 B8000000 		.4byte	0xb8
 1050 013b 04       		.uleb128 0x4
 1051 013c 7B050000 		.4byte	.LASF27
 1052 0140 05       		.byte	0x5
 1053 0141 33       		.byte	0x33
 1054 0142 C3000000 		.4byte	0xc3
 1055 0146 04       		.uleb128 0x4
 1056 0147 6B050000 		.4byte	.LASF28
 1057 014b 05       		.byte	0x5
 1058 014c 3F       		.byte	0x3f
 1059 014d 51010000 		.4byte	0x151
 1060 0151 06       		.uleb128 0x6
 1061 0152 4C020000 		.4byte	.LASF48
 1062 0156 44       		.byte	0x44
ARM GAS  /var/folders/c6/c789hm653lg9vtl73krp73tm0000gn/T//ccOmq6Sx.s 			page 43


 1063 0157 06       		.byte	0x6
 1064 0158 C2       		.byte	0xc2
 1065 0159 3E020000 		.4byte	0x23e
 1066 015d 07       		.uleb128 0x7
 1067 015e 26030000 		.4byte	.LASF29
 1068 0162 06       		.byte	0x6
 1069 0163 C3       		.byte	0xc3
 1070 0164 49020000 		.4byte	0x249
 1071 0168 00       		.byte	0
 1072 0169 07       		.uleb128 0x7
 1073 016a D8030000 		.4byte	.LASF30
 1074 016e 06       		.byte	0x6
 1075 016f C5       		.byte	0xc5
 1076 0170 49020000 		.4byte	0x249
 1077 0174 04       		.byte	0x4
 1078 0175 07       		.uleb128 0x7
 1079 0176 EB000000 		.4byte	.LASF31
 1080 017a 06       		.byte	0x6
 1081 017b C7       		.byte	0xc7
 1082 017c 0F010000 		.4byte	0x10f
 1083 0180 08       		.byte	0x8
 1084 0181 07       		.uleb128 0x7
 1085 0182 B7070000 		.4byte	.LASF32
 1086 0186 06       		.byte	0x6
 1087 0187 C8       		.byte	0xc8
 1088 0188 24060000 		.4byte	0x624
 1089 018c 0C       		.byte	0xc
 1090 018d 07       		.uleb128 0x7
 1091 018e 84010000 		.4byte	.LASF33
 1092 0192 06       		.byte	0x6
 1093 0193 CA       		.byte	0xca
 1094 0194 49020000 		.4byte	0x249
 1095 0198 10       		.byte	0x10
 1096 0199 07       		.uleb128 0x7
 1097 019a 41030000 		.4byte	.LASF34
 1098 019e 06       		.byte	0x6
 1099 019f CB       		.byte	0xcb
 1100 01a0 49020000 		.4byte	0x249
 1101 01a4 14       		.byte	0x14
 1102 01a5 07       		.uleb128 0x7
 1103 01a6 62060000 		.4byte	.LASF35
 1104 01aa 06       		.byte	0x6
 1105 01ab D2       		.byte	0xd2
 1106 01ac A3070000 		.4byte	0x7a3
 1107 01b0 18       		.byte	0x18
 1108 01b1 07       		.uleb128 0x7
 1109 01b2 3C040000 		.4byte	.LASF36
 1110 01b6 06       		.byte	0x6
 1111 01b7 DD       		.byte	0xdd
 1112 01b8 F9000000 		.4byte	0xf9
 1113 01bc 1C       		.byte	0x1c
 1114 01bd 07       		.uleb128 0x7
 1115 01be 63040000 		.4byte	.LASF37
 1116 01c2 06       		.byte	0x6
 1117 01c3 E1       		.byte	0xe1
 1118 01c4 EE000000 		.4byte	0xee
 1119 01c8 1D       		.byte	0x1d
ARM GAS  /var/folders/c6/c789hm653lg9vtl73krp73tm0000gn/T//ccOmq6Sx.s 			page 44


 1120 01c9 07       		.uleb128 0x7
 1121 01ca 2D060000 		.4byte	.LASF38
 1122 01ce 06       		.byte	0x6
 1123 01cf E6       		.byte	0xe6
 1124 01d0 04010000 		.4byte	0x104
 1125 01d4 1E       		.byte	0x1e
 1126 01d5 08       		.uleb128 0x8
 1127 01d6 705F7500 		.ascii	"p_u\000"
 1128 01da 06       		.byte	0x6
 1129 01db 3101     		.2byte	0x131
 1130 01dd DE060000 		.4byte	0x6de
 1131 01e1 20       		.byte	0x20
 1132 01e2 09       		.uleb128 0x9
 1133 01e3 E3020000 		.4byte	.LASF39
 1134 01e7 06       		.byte	0x6
 1135 01e8 3601     		.2byte	0x136
 1136 01ea 4F020000 		.4byte	0x24f
 1137 01ee 24       		.byte	0x24
 1138 01ef 09       		.uleb128 0x9
 1139 01f0 13020000 		.4byte	.LASF40
 1140 01f4 06       		.byte	0x6
 1141 01f5 3C01     		.2byte	0x13c
 1142 01f7 73020000 		.4byte	0x273
 1143 01fb 28       		.byte	0x28
 1144 01fc 09       		.uleb128 0x9
 1145 01fd 65070000 		.4byte	.LASF41
 1146 0201 06       		.byte	0x6
 1147 0202 4001     		.2byte	0x140
 1148 0204 1A010000 		.4byte	0x11a
 1149 0208 30       		.byte	0x30
 1150 0209 09       		.uleb128 0x9
 1151 020a 9E040000 		.4byte	.LASF42
 1152 020e 06       		.byte	0x6
 1153 020f 4601     		.2byte	0x146
 1154 0211 25010000 		.4byte	0x125
 1155 0215 34       		.byte	0x34
 1156 0216 09       		.uleb128 0x9
 1157 0217 28040000 		.4byte	.LASF43
 1158 021b 06       		.byte	0x6
 1159 021c 4D01     		.2byte	0x14d
 1160 021e 9D070000 		.4byte	0x79d
 1161 0222 38       		.byte	0x38
 1162 0223 09       		.uleb128 0x9
 1163 0224 85050000 		.4byte	.LASF44
 1164 0228 06       		.byte	0x6
 1165 0229 5101     		.2byte	0x151
 1166 022b 0F010000 		.4byte	0x10f
 1167 022f 3C       		.byte	0x3c
 1168 0230 09       		.uleb128 0x9
 1169 0231 1A010000 		.4byte	.LASF45
 1170 0235 06       		.byte	0x6
 1171 0236 5801     		.2byte	0x158
 1172 0238 26030000 		.4byte	0x326
 1173 023c 40       		.byte	0x40
 1174 023d 00       		.byte	0
 1175 023e 04       		.uleb128 0x4
 1176 023f F6020000 		.4byte	.LASF46
ARM GAS  /var/folders/c6/c789hm653lg9vtl73krp73tm0000gn/T//ccOmq6Sx.s 			page 45


 1177 0243 05       		.byte	0x5
 1178 0244 44       		.byte	0x44
 1179 0245 49020000 		.4byte	0x249
 1180 0249 0A       		.uleb128 0xa
 1181 024a 04       		.byte	0x4
 1182 024b 46010000 		.4byte	0x146
 1183 024f 04       		.uleb128 0x4
 1184 0250 C4020000 		.4byte	.LASF47
 1185 0254 05       		.byte	0x5
 1186 0255 49       		.byte	0x49
 1187 0256 5A020000 		.4byte	0x25a
 1188 025a 06       		.uleb128 0x6
 1189 025b D4040000 		.4byte	.LASF49
 1190 025f 04       		.byte	0x4
 1191 0260 06       		.byte	0x6
 1192 0261 B0       		.byte	0xb0
 1193 0262 73020000 		.4byte	0x273
 1194 0266 07       		.uleb128 0x7
 1195 0267 26030000 		.4byte	.LASF29
 1196 026b 06       		.byte	0x6
 1197 026c B1       		.byte	0xb1
 1198 026d 49020000 		.4byte	0x249
 1199 0271 00       		.byte	0
 1200 0272 00       		.byte	0
 1201 0273 04       		.uleb128 0x4
 1202 0274 14060000 		.4byte	.LASF50
 1203 0278 05       		.byte	0x5
 1204 0279 50       		.byte	0x50
 1205 027a 7E020000 		.4byte	0x27e
 1206 027e 06       		.uleb128 0x6
 1207 027f D0000000 		.4byte	.LASF51
 1208 0283 08       		.byte	0x8
 1209 0284 06       		.byte	0x6
 1210 0285 B7       		.byte	0xb7
 1211 0286 A3020000 		.4byte	0x2a3
 1212 028a 07       		.uleb128 0x7
 1213 028b 26030000 		.4byte	.LASF29
 1214 028f 06       		.byte	0x6
 1215 0290 B8       		.byte	0xb8
 1216 0291 49020000 		.4byte	0x249
 1217 0295 00       		.byte	0
 1218 0296 07       		.uleb128 0x7
 1219 0297 D8030000 		.4byte	.LASF30
 1220 029b 06       		.byte	0x6
 1221 029c B9       		.byte	0xb9
 1222 029d 49020000 		.4byte	0x249
 1223 02a1 04       		.byte	0x4
 1224 02a2 00       		.byte	0
 1225 02a3 04       		.uleb128 0x4
 1226 02a4 13000000 		.4byte	.LASF52
 1227 02a8 05       		.byte	0x5
 1228 02a9 57       		.byte	0x57
 1229 02aa AE020000 		.4byte	0x2ae
 1230 02ae 0B       		.uleb128 0xb
 1231 02af 8E020000 		.4byte	.LASF53
 1232 02b3 1C       		.byte	0x1c
 1233 02b4 06       		.byte	0x6
ARM GAS  /var/folders/c6/c789hm653lg9vtl73krp73tm0000gn/T//ccOmq6Sx.s 			page 46


 1234 02b5 9001     		.2byte	0x190
 1235 02b7 0A030000 		.4byte	0x30a
 1236 02bb 09       		.uleb128 0x9
 1237 02bc C3040000 		.4byte	.LASF54
 1238 02c0 06       		.byte	0x6
 1239 02c1 9101     		.2byte	0x191
 1240 02c3 73020000 		.4byte	0x273
 1241 02c7 00       		.byte	0
 1242 02c8 09       		.uleb128 0x9
 1243 02c9 4E040000 		.4byte	.LASF55
 1244 02cd 06       		.byte	0x6
 1245 02ce 9201     		.2byte	0x192
 1246 02d0 0F010000 		.4byte	0x10f
 1247 02d4 08       		.byte	0x8
 1248 02d5 09       		.uleb128 0x9
 1249 02d6 49030000 		.4byte	.LASF56
 1250 02da 06       		.byte	0x6
 1251 02db 9401     		.2byte	0x194
 1252 02dd 24060000 		.4byte	0x624
 1253 02e1 0C       		.byte	0xc
 1254 02e2 09       		.uleb128 0x9
 1255 02e3 9C010000 		.4byte	.LASF57
 1256 02e7 06       		.byte	0x6
 1257 02e8 9701     		.2byte	0x197
 1258 02ea 49020000 		.4byte	0x249
 1259 02ee 10       		.byte	0x10
 1260 02ef 09       		.uleb128 0x9
 1261 02f0 E1050000 		.4byte	.LASF58
 1262 02f4 06       		.byte	0x6
 1263 02f5 9801     		.2byte	0x198
 1264 02f7 49020000 		.4byte	0x249
 1265 02fb 14       		.byte	0x14
 1266 02fc 09       		.uleb128 0x9
 1267 02fd 76030000 		.4byte	.LASF59
 1268 0301 06       		.byte	0x6
 1269 0302 9B01     		.2byte	0x19b
 1270 0304 49020000 		.4byte	0x249
 1271 0308 18       		.byte	0x18
 1272 0309 00       		.byte	0
 1273 030a 04       		.uleb128 0x4
 1274 030b 90050000 		.4byte	.LASF60
 1275 030f 05       		.byte	0x5
 1276 0310 5C       		.byte	0x5c
 1277 0311 15030000 		.4byte	0x315
 1278 0315 0A       		.uleb128 0xa
 1279 0316 04       		.byte	0x4
 1280 0317 1B030000 		.4byte	0x31b
 1281 031b 0C       		.uleb128 0xc
 1282 031c 26030000 		.4byte	0x326
 1283 0320 0D       		.uleb128 0xd
 1284 0321 26030000 		.4byte	0x326
 1285 0325 00       		.byte	0
 1286 0326 0E       		.uleb128 0xe
 1287 0327 04       		.byte	0x4
 1288 0328 04       		.uleb128 0x4
 1289 0329 D3020000 		.4byte	.LASF61
 1290 032d 05       		.byte	0x5
ARM GAS  /var/folders/c6/c789hm653lg9vtl73krp73tm0000gn/T//ccOmq6Sx.s 			page 47


 1291 032e 61       		.byte	0x61
 1292 032f 33030000 		.4byte	0x333
 1293 0333 0B       		.uleb128 0xb
 1294 0334 80040000 		.4byte	.LASF62
 1295 0338 14       		.byte	0x14
 1296 0339 06       		.byte	0x6
 1297 033a 6B01     		.2byte	0x16b
 1298 033c 82030000 		.4byte	0x382
 1299 0340 09       		.uleb128 0x9
 1300 0341 04020000 		.4byte	.LASF63
 1301 0345 06       		.byte	0x6
 1302 0346 6C01     		.2byte	0x16c
 1303 0348 B5070000 		.4byte	0x7b5
 1304 034c 00       		.byte	0
 1305 034d 09       		.uleb128 0x9
 1306 034e B2010000 		.4byte	.LASF64
 1307 0352 06       		.byte	0x6
 1308 0353 6D01     		.2byte	0x16d
 1309 0355 B5070000 		.4byte	0x7b5
 1310 0359 04       		.byte	0x4
 1311 035a 09       		.uleb128 0x9
 1312 035b CB040000 		.4byte	.LASF65
 1313 035f 06       		.byte	0x6
 1314 0360 6E01     		.2byte	0x16e
 1315 0362 3B010000 		.4byte	0x13b
 1316 0366 08       		.byte	0x8
 1317 0367 09       		.uleb128 0x9
 1318 0368 BD070000 		.4byte	.LASF66
 1319 036c 06       		.byte	0x6
 1320 036d 6F01     		.2byte	0x16f
 1321 036f 0A030000 		.4byte	0x30a
 1322 0373 0C       		.byte	0xc
 1323 0374 09       		.uleb128 0x9
 1324 0375 07060000 		.4byte	.LASF67
 1325 0379 06       		.byte	0x6
 1326 037a 7101     		.2byte	0x171
 1327 037c 26030000 		.4byte	0x326
 1328 0380 10       		.byte	0x10
 1329 0381 00       		.byte	0
 1330 0382 04       		.uleb128 0x4
 1331 0383 AD000000 		.4byte	.LASF68
 1332 0387 05       		.byte	0x5
 1333 0388 66       		.byte	0x66
 1334 0389 8D030000 		.4byte	0x38d
 1335 038d 0B       		.uleb128 0xb
 1336 038e 09030000 		.4byte	.LASF69
 1337 0392 10       		.byte	0x10
 1338 0393 06       		.byte	0x6
 1339 0394 7B01     		.2byte	0x17b
 1340 0396 CF030000 		.4byte	0x3cf
 1341 039a 09       		.uleb128 0x9
 1342 039b 04020000 		.4byte	.LASF63
 1343 039f 06       		.byte	0x6
 1344 03a0 7C01     		.2byte	0x17c
 1345 03a2 B5070000 		.4byte	0x7b5
 1346 03a6 00       		.byte	0
 1347 03a7 09       		.uleb128 0x9
ARM GAS  /var/folders/c6/c789hm653lg9vtl73krp73tm0000gn/T//ccOmq6Sx.s 			page 48


 1348 03a8 B2010000 		.4byte	.LASF64
 1349 03ac 06       		.byte	0x6
 1350 03ad 7E01     		.2byte	0x17e
 1351 03af B5070000 		.4byte	0x7b5
 1352 03b3 04       		.byte	0x4
 1353 03b4 09       		.uleb128 0x9
 1354 03b5 CB040000 		.4byte	.LASF65
 1355 03b9 06       		.byte	0x6
 1356 03ba 8001     		.2byte	0x180
 1357 03bc 3B010000 		.4byte	0x13b
 1358 03c0 08       		.byte	0x8
 1359 03c1 09       		.uleb128 0x9
 1360 03c2 35030000 		.4byte	.LASF70
 1361 03c6 06       		.byte	0x6
 1362 03c7 8801     		.2byte	0x188
 1363 03c9 3B010000 		.4byte	0x13b
 1364 03cd 0C       		.byte	0xc
 1365 03ce 00       		.byte	0
 1366 03cf 04       		.uleb128 0x4
 1367 03d0 53000000 		.4byte	.LASF71
 1368 03d4 05       		.byte	0x5
 1369 03d5 6B       		.byte	0x6b
 1370 03d6 DA030000 		.4byte	0x3da
 1371 03da 0B       		.uleb128 0xb
 1372 03db F1030000 		.4byte	.LASF72
 1373 03df 04       		.byte	0x4
 1374 03e0 06       		.byte	0x6
 1375 03e1 A201     		.2byte	0x1a2
 1376 03e3 F5030000 		.4byte	0x3f5
 1377 03e7 09       		.uleb128 0x9
 1378 03e8 AD050000 		.4byte	.LASF73
 1379 03ec 06       		.byte	0x6
 1380 03ed AA01     		.2byte	0x1aa
 1381 03ef BB070000 		.4byte	0x7bb
 1382 03f3 00       		.byte	0
 1383 03f4 00       		.byte	0
 1384 03f5 04       		.uleb128 0x4
 1385 03f6 70020000 		.4byte	.LASF74
 1386 03fa 05       		.byte	0x5
 1387 03fb 70       		.byte	0x70
 1388 03fc 00040000 		.4byte	0x400
 1389 0400 0F       		.uleb128 0xf
 1390 0401 3C010000 		.4byte	.LASF75
 1391 0405 5001     		.2byte	0x150
 1392 0407 06       		.byte	0x6
 1393 0408 C201     		.2byte	0x1c2
 1394 040a 5C040000 		.4byte	0x45c
 1395 040e 09       		.uleb128 0x9
 1396 040f 47060000 		.4byte	.LASF76
 1397 0413 06       		.byte	0x6
 1398 0414 C601     		.2byte	0x1c6
 1399 0416 A3020000 		.4byte	0x2a3
 1400 041a 00       		.byte	0
 1401 041b 09       		.uleb128 0x9
 1402 041c BA010000 		.4byte	.LASF77
 1403 0420 06       		.byte	0x6
 1404 0421 CA01     		.2byte	0x1ca
ARM GAS  /var/folders/c6/c789hm653lg9vtl73krp73tm0000gn/T//ccOmq6Sx.s 			page 49


 1405 0423 82030000 		.4byte	0x382
 1406 0427 1C       		.byte	0x1c
 1407 0428 08       		.uleb128 0x8
 1408 0429 64626700 		.ascii	"dbg\000"
 1409 042d 06       		.byte	0x6
 1410 042e CE01     		.2byte	0x1ce
 1411 0430 CF030000 		.4byte	0x3cf
 1412 0434 2C       		.byte	0x2c
 1413 0435 09       		.uleb128 0x9
 1414 0436 A2000000 		.4byte	.LASF78
 1415 043a 06       		.byte	0x6
 1416 043b D201     		.2byte	0x1d2
 1417 043d 46010000 		.4byte	0x146
 1418 0441 30       		.byte	0x30
 1419 0442 08       		.uleb128 0x8
 1420 0443 746D00   		.ascii	"tm\000"
 1421 0446 06       		.byte	0x6
 1422 0447 D701     		.2byte	0x1d7
 1423 0449 D3060000 		.4byte	0x6d3
 1424 044d 74       		.byte	0x74
 1425 044e 09       		.uleb128 0x9
 1426 044f E2010000 		.4byte	.LASF79
 1427 0453 06       		.byte	0x6
 1428 0454 E301     		.2byte	0x1e3
 1429 0456 C0070000 		.4byte	0x7c0
 1430 045a 78       		.byte	0x78
 1431 045b 00       		.byte	0
 1432 045c 03       		.uleb128 0x3
 1433 045d 04       		.byte	0x4
 1434 045e 07       		.byte	0x7
 1435 045f ED020000 		.4byte	.LASF80
 1436 0463 10       		.uleb128 0x10
 1437 0464 C3000000 		.4byte	0xc3
 1438 0468 73040000 		.4byte	0x473
 1439 046c 11       		.uleb128 0x11
 1440 046d 5C040000 		.4byte	0x45c
 1441 0471 01       		.byte	0x1
 1442 0472 00       		.byte	0
 1443 0473 12       		.uleb128 0x12
 1444 0474 88       		.byte	0x88
 1445 0475 07       		.byte	0x7
 1446 0476 6702     		.2byte	0x267
 1447 0478 02060000 		.4byte	0x602
 1448 047c 08       		.uleb128 0x8
 1449 047d 435200   		.ascii	"CR\000"
 1450 0480 07       		.byte	0x7
 1451 0481 6902     		.2byte	0x269
 1452 0483 DE000000 		.4byte	0xde
 1453 0487 00       		.byte	0
 1454 0488 09       		.uleb128 0x9
 1455 0489 8C010000 		.4byte	.LASF81
 1456 048d 07       		.byte	0x7
 1457 048e 6A02     		.2byte	0x26a
 1458 0490 DE000000 		.4byte	0xde
 1459 0494 04       		.byte	0x4
 1460 0495 09       		.uleb128 0x9
 1461 0496 78060000 		.4byte	.LASF82
ARM GAS  /var/folders/c6/c789hm653lg9vtl73krp73tm0000gn/T//ccOmq6Sx.s 			page 50


 1462 049a 07       		.byte	0x7
 1463 049b 6B02     		.2byte	0x26b
 1464 049d DE000000 		.4byte	0xde
 1465 04a1 08       		.byte	0x8
 1466 04a2 08       		.uleb128 0x8
 1467 04a3 43495200 		.ascii	"CIR\000"
 1468 04a7 07       		.byte	0x7
 1469 04a8 6C02     		.2byte	0x26c
 1470 04aa DE000000 		.4byte	0xde
 1471 04ae 0C       		.byte	0xc
 1472 04af 09       		.uleb128 0x9
 1473 04b0 11010000 		.4byte	.LASF83
 1474 04b4 07       		.byte	0x7
 1475 04b5 6D02     		.2byte	0x26d
 1476 04b7 DE000000 		.4byte	0xde
 1477 04bb 10       		.byte	0x10
 1478 04bc 09       		.uleb128 0x9
 1479 04bd 62050000 		.4byte	.LASF84
 1480 04c1 07       		.byte	0x7
 1481 04c2 6E02     		.2byte	0x26e
 1482 04c4 DE000000 		.4byte	0xde
 1483 04c8 14       		.byte	0x14
 1484 04c9 09       		.uleb128 0x9
 1485 04ca 67020000 		.4byte	.LASF85
 1486 04ce 07       		.byte	0x7
 1487 04cf 6F02     		.2byte	0x26f
 1488 04d1 DE000000 		.4byte	0xde
 1489 04d5 18       		.byte	0x18
 1490 04d6 09       		.uleb128 0x9
 1491 04d7 A6030000 		.4byte	.LASF86
 1492 04db 07       		.byte	0x7
 1493 04dc 7002     		.2byte	0x270
 1494 04de C3000000 		.4byte	0xc3
 1495 04e2 1C       		.byte	0x1c
 1496 04e3 09       		.uleb128 0x9
 1497 04e4 80030000 		.4byte	.LASF87
 1498 04e8 07       		.byte	0x7
 1499 04e9 7102     		.2byte	0x271
 1500 04eb DE000000 		.4byte	0xde
 1501 04ef 20       		.byte	0x20
 1502 04f0 09       		.uleb128 0x9
 1503 04f1 56010000 		.4byte	.LASF88
 1504 04f5 07       		.byte	0x7
 1505 04f6 7202     		.2byte	0x272
 1506 04f8 DE000000 		.4byte	0xde
 1507 04fc 24       		.byte	0x24
 1508 04fd 09       		.uleb128 0x9
 1509 04fe B0030000 		.4byte	.LASF89
 1510 0502 07       		.byte	0x7
 1511 0503 7302     		.2byte	0x273
 1512 0505 63040000 		.4byte	0x463
 1513 0509 28       		.byte	0x28
 1514 050a 09       		.uleb128 0x9
 1515 050b 69060000 		.4byte	.LASF90
 1516 050f 07       		.byte	0x7
 1517 0510 7402     		.2byte	0x274
 1518 0512 DE000000 		.4byte	0xde
ARM GAS  /var/folders/c6/c789hm653lg9vtl73krp73tm0000gn/T//ccOmq6Sx.s 			page 51


 1519 0516 30       		.byte	0x30
 1520 0517 09       		.uleb128 0x9
 1521 0518 D1050000 		.4byte	.LASF91
 1522 051c 07       		.byte	0x7
 1523 051d 7502     		.2byte	0x275
 1524 051f DE000000 		.4byte	0xde
 1525 0523 34       		.byte	0x34
 1526 0524 09       		.uleb128 0x9
 1527 0525 2D030000 		.4byte	.LASF92
 1528 0529 07       		.byte	0x7
 1529 052a 7602     		.2byte	0x276
 1530 052c DE000000 		.4byte	0xde
 1531 0530 38       		.byte	0x38
 1532 0531 09       		.uleb128 0x9
 1533 0532 BA030000 		.4byte	.LASF93
 1534 0536 07       		.byte	0x7
 1535 0537 7702     		.2byte	0x277
 1536 0539 C3000000 		.4byte	0xc3
 1537 053d 3C       		.byte	0x3c
 1538 053e 09       		.uleb128 0x9
 1539 053f BE050000 		.4byte	.LASF94
 1540 0543 07       		.byte	0x7
 1541 0544 7802     		.2byte	0x278
 1542 0546 DE000000 		.4byte	0xde
 1543 054a 40       		.byte	0x40
 1544 054b 09       		.uleb128 0x9
 1545 054c 71040000 		.4byte	.LASF95
 1546 0550 07       		.byte	0x7
 1547 0551 7902     		.2byte	0x279
 1548 0553 DE000000 		.4byte	0xde
 1549 0557 44       		.byte	0x44
 1550 0558 09       		.uleb128 0x9
 1551 0559 C4030000 		.4byte	.LASF96
 1552 055d 07       		.byte	0x7
 1553 055e 7A02     		.2byte	0x27a
 1554 0560 63040000 		.4byte	0x463
 1555 0564 48       		.byte	0x48
 1556 0565 09       		.uleb128 0x9
 1557 0566 E1000000 		.4byte	.LASF97
 1558 056a 07       		.byte	0x7
 1559 056b 7B02     		.2byte	0x27b
 1560 056d DE000000 		.4byte	0xde
 1561 0571 50       		.byte	0x50
 1562 0572 09       		.uleb128 0x9
 1563 0573 4F030000 		.4byte	.LASF98
 1564 0577 07       		.byte	0x7
 1565 0578 7C02     		.2byte	0x27c
 1566 057a DE000000 		.4byte	0xde
 1567 057e 54       		.byte	0x54
 1568 057f 09       		.uleb128 0x9
 1569 0580 44040000 		.4byte	.LASF99
 1570 0584 07       		.byte	0x7
 1571 0585 7D02     		.2byte	0x27d
 1572 0587 DE000000 		.4byte	0xde
 1573 058b 58       		.byte	0x58
 1574 058c 09       		.uleb128 0x9
 1575 058d CE030000 		.4byte	.LASF100
ARM GAS  /var/folders/c6/c789hm653lg9vtl73krp73tm0000gn/T//ccOmq6Sx.s 			page 52


 1576 0591 07       		.byte	0x7
 1577 0592 7E02     		.2byte	0x27e
 1578 0594 C3000000 		.4byte	0xc3
 1579 0598 5C       		.byte	0x5c
 1580 0599 09       		.uleb128 0x9
 1581 059a 5F010000 		.4byte	.LASF101
 1582 059e 07       		.byte	0x7
 1583 059f 7F02     		.2byte	0x27f
 1584 05a1 DE000000 		.4byte	0xde
 1585 05a5 60       		.byte	0x60
 1586 05a6 09       		.uleb128 0x9
 1587 05a7 84020000 		.4byte	.LASF102
 1588 05ab 07       		.byte	0x7
 1589 05ac 8002     		.2byte	0x280
 1590 05ae DE000000 		.4byte	0xde
 1591 05b2 64       		.byte	0x64
 1592 05b3 09       		.uleb128 0x9
 1593 05b4 A9040000 		.4byte	.LASF103
 1594 05b8 07       		.byte	0x7
 1595 05b9 8102     		.2byte	0x281
 1596 05bb 63040000 		.4byte	0x463
 1597 05bf 68       		.byte	0x68
 1598 05c0 09       		.uleb128 0x9
 1599 05c1 42060000 		.4byte	.LASF104
 1600 05c5 07       		.byte	0x7
 1601 05c6 8202     		.2byte	0x282
 1602 05c8 DE000000 		.4byte	0xde
 1603 05cc 70       		.byte	0x70
 1604 05cd 08       		.uleb128 0x8
 1605 05ce 43535200 		.ascii	"CSR\000"
 1606 05d2 07       		.byte	0x7
 1607 05d3 8302     		.2byte	0x283
 1608 05d5 DE000000 		.4byte	0xde
 1609 05d9 74       		.byte	0x74
 1610 05da 09       		.uleb128 0x9
 1611 05db DF030000 		.4byte	.LASF105
 1612 05df 07       		.byte	0x7
 1613 05e0 8402     		.2byte	0x284
 1614 05e2 63040000 		.4byte	0x463
 1615 05e6 78       		.byte	0x78
 1616 05e7 09       		.uleb128 0x9
 1617 05e8 0E060000 		.4byte	.LASF106
 1618 05ec 07       		.byte	0x7
 1619 05ed 8502     		.2byte	0x285
 1620 05ef DE000000 		.4byte	0xde
 1621 05f3 80       		.byte	0x80
 1622 05f4 09       		.uleb128 0x9
 1623 05f5 56020000 		.4byte	.LASF107
 1624 05f9 07       		.byte	0x7
 1625 05fa 8602     		.2byte	0x286
 1626 05fc DE000000 		.4byte	0xde
 1627 0600 84       		.byte	0x84
 1628 0601 00       		.byte	0
 1629 0602 13       		.uleb128 0x13
 1630 0603 30010000 		.4byte	.LASF108
 1631 0607 07       		.byte	0x7
 1632 0608 8802     		.2byte	0x288
ARM GAS  /var/folders/c6/c789hm653lg9vtl73krp73tm0000gn/T//ccOmq6Sx.s 			page 53


 1633 060a 73040000 		.4byte	0x473
 1634 060e 04       		.uleb128 0x4
 1635 060f A9010000 		.4byte	.LASF109
 1636 0613 08       		.byte	0x8
 1637 0614 65       		.byte	0x65
 1638 0615 26030000 		.4byte	0x326
 1639 0619 04       		.uleb128 0x4
 1640 061a B9020000 		.4byte	.LASF110
 1641 061e 08       		.byte	0x8
 1642 061f 6D       		.byte	0x6d
 1643 0620 CE000000 		.4byte	0xce
 1644 0624 06       		.uleb128 0x6
 1645 0625 D9050000 		.4byte	.LASF111
 1646 0629 04       		.byte	0x4
 1647 062a 08       		.byte	0x8
 1648 062b 89       		.byte	0x89
 1649 062c 3D060000 		.4byte	0x63d
 1650 0630 14       		.uleb128 0x14
 1651 0631 72313300 		.ascii	"r13\000"
 1652 0635 08       		.byte	0x8
 1653 0636 8A       		.byte	0x8a
 1654 0637 B8060000 		.4byte	0x6b8
 1655 063b 00       		.byte	0
 1656 063c 00       		.byte	0
 1657 063d 06       		.uleb128 0x6
 1658 063e 47000000 		.4byte	.LASF112
 1659 0642 24       		.byte	0x24
 1660 0643 09       		.byte	0x9
 1661 0644 F4       		.byte	0xf4
 1662 0645 B8060000 		.4byte	0x6b8
 1663 0649 08       		.uleb128 0x8
 1664 064a 723400   		.ascii	"r4\000"
 1665 064d 09       		.byte	0x9
 1666 064e 0701     		.2byte	0x107
 1667 0650 0E060000 		.4byte	0x60e
 1668 0654 00       		.byte	0
 1669 0655 08       		.uleb128 0x8
 1670 0656 723500   		.ascii	"r5\000"
 1671 0659 09       		.byte	0x9
 1672 065a 0801     		.2byte	0x108
 1673 065c 0E060000 		.4byte	0x60e
 1674 0660 04       		.byte	0x4
 1675 0661 08       		.uleb128 0x8
 1676 0662 723600   		.ascii	"r6\000"
 1677 0665 09       		.byte	0x9
 1678 0666 0901     		.2byte	0x109
 1679 0668 0E060000 		.4byte	0x60e
 1680 066c 08       		.byte	0x8
 1681 066d 08       		.uleb128 0x8
 1682 066e 723700   		.ascii	"r7\000"
 1683 0671 09       		.byte	0x9
 1684 0672 0A01     		.2byte	0x10a
 1685 0674 0E060000 		.4byte	0x60e
 1686 0678 0C       		.byte	0xc
 1687 0679 08       		.uleb128 0x8
 1688 067a 723800   		.ascii	"r8\000"
 1689 067d 09       		.byte	0x9
ARM GAS  /var/folders/c6/c789hm653lg9vtl73krp73tm0000gn/T//ccOmq6Sx.s 			page 54


 1690 067e 0B01     		.2byte	0x10b
 1691 0680 0E060000 		.4byte	0x60e
 1692 0684 10       		.byte	0x10
 1693 0685 08       		.uleb128 0x8
 1694 0686 723900   		.ascii	"r9\000"
 1695 0689 09       		.byte	0x9
 1696 068a 0C01     		.2byte	0x10c
 1697 068c 0E060000 		.4byte	0x60e
 1698 0690 14       		.byte	0x14
 1699 0691 08       		.uleb128 0x8
 1700 0692 72313000 		.ascii	"r10\000"
 1701 0696 09       		.byte	0x9
 1702 0697 0D01     		.2byte	0x10d
 1703 0699 0E060000 		.4byte	0x60e
 1704 069d 18       		.byte	0x18
 1705 069e 08       		.uleb128 0x8
 1706 069f 72313100 		.ascii	"r11\000"
 1707 06a3 09       		.byte	0x9
 1708 06a4 0E01     		.2byte	0x10e
 1709 06a6 0E060000 		.4byte	0x60e
 1710 06aa 1C       		.byte	0x1c
 1711 06ab 08       		.uleb128 0x8
 1712 06ac 6C7200   		.ascii	"lr\000"
 1713 06af 09       		.byte	0x9
 1714 06b0 0F01     		.2byte	0x10f
 1715 06b2 0E060000 		.4byte	0x60e
 1716 06b6 20       		.byte	0x20
 1717 06b7 00       		.byte	0
 1718 06b8 0A       		.uleb128 0xa
 1719 06b9 04       		.byte	0x4
 1720 06ba 3D060000 		.4byte	0x63d
 1721 06be 15       		.uleb128 0x15
 1722 06bf 04       		.byte	0x4
 1723 06c0 0A       		.byte	0xa
 1724 06c1 38       		.byte	0x38
 1725 06c2 D3060000 		.4byte	0x6d3
 1726 06c6 07       		.uleb128 0x7
 1727 06c7 B7050000 		.4byte	.LASF113
 1728 06cb 0A       		.byte	0xa
 1729 06cc 3C       		.byte	0x3c
 1730 06cd E3000000 		.4byte	0xe3
 1731 06d1 00       		.byte	0
 1732 06d2 00       		.byte	0
 1733 06d3 04       		.uleb128 0x4
 1734 06d4 59030000 		.4byte	.LASF114
 1735 06d8 0A       		.byte	0xa
 1736 06d9 3D       		.byte	0x3d
 1737 06da BE060000 		.4byte	0x6be
 1738 06de 16       		.uleb128 0x16
 1739 06df 04       		.byte	0x4
 1740 06e0 06       		.byte	0x6
 1741 06e1 FA       		.byte	0xfa
 1742 06e2 3B070000 		.4byte	0x73b
 1743 06e6 17       		.uleb128 0x17
 1744 06e7 26000000 		.4byte	.LASF115
 1745 06eb 06       		.byte	0x6
 1746 06ec 0101     		.2byte	0x101
ARM GAS  /var/folders/c6/c789hm653lg9vtl73krp73tm0000gn/T//ccOmq6Sx.s 			page 55


 1747 06ee 1A010000 		.4byte	0x11a
 1748 06f2 17       		.uleb128 0x17
 1749 06f3 99000000 		.4byte	.LASF116
 1750 06f7 06       		.byte	0x6
 1751 06f8 0801     		.2byte	0x108
 1752 06fa 1A010000 		.4byte	0x11a
 1753 06fe 17       		.uleb128 0x17
 1754 06ff 5B060000 		.4byte	.LASF117
 1755 0703 06       		.byte	0x6
 1756 0704 0F01     		.2byte	0x10f
 1757 0706 26030000 		.4byte	0x326
 1758 070a 17       		.uleb128 0x17
 1759 070b 20000000 		.4byte	.LASF118
 1760 070f 06       		.byte	0x6
 1761 0710 1601     		.2byte	0x116
 1762 0712 3B070000 		.4byte	0x73b
 1763 0716 17       		.uleb128 0x17
 1764 0717 0C020000 		.4byte	.LASF119
 1765 071b 06       		.byte	0x6
 1766 071c 1E01     		.2byte	0x11e
 1767 071e 66070000 		.4byte	0x766
 1768 0722 17       		.uleb128 0x17
 1769 0723 BC040000 		.4byte	.LASF120
 1770 0727 06       		.byte	0x6
 1771 0728 2701     		.2byte	0x127
 1772 072a 9D070000 		.4byte	0x79d
 1773 072e 17       		.uleb128 0x17
 1774 072f 5C040000 		.4byte	.LASF121
 1775 0733 06       		.byte	0x6
 1776 0734 2F01     		.2byte	0x12f
 1777 0736 25010000 		.4byte	0x125
 1778 073a 00       		.byte	0
 1779 073b 0A       		.uleb128 0xa
 1780 073c 04       		.byte	0x4
 1781 073d 3E020000 		.4byte	0x23e
 1782 0741 06       		.uleb128 0x6
 1783 0742 91040000 		.4byte	.LASF122
 1784 0746 0C       		.byte	0xc
 1785 0747 0B       		.byte	0xb
 1786 0748 34       		.byte	0x34
 1787 0749 66070000 		.4byte	0x766
 1788 074d 07       		.uleb128 0x7
 1789 074e 7D060000 		.4byte	.LASF123
 1790 0752 0B       		.byte	0xb
 1791 0753 35       		.byte	0x35
 1792 0754 73020000 		.4byte	0x273
 1793 0758 00       		.byte	0
 1794 0759 07       		.uleb128 0x7
 1795 075a 22040000 		.4byte	.LASF124
 1796 075e 0B       		.byte	0xb
 1797 075f 37       		.byte	0x37
 1798 0760 30010000 		.4byte	0x130
 1799 0764 08       		.byte	0x8
 1800 0765 00       		.byte	0
 1801 0766 0A       		.uleb128 0xa
 1802 0767 04       		.byte	0x4
 1803 0768 41070000 		.4byte	0x741
ARM GAS  /var/folders/c6/c789hm653lg9vtl73krp73tm0000gn/T//ccOmq6Sx.s 			page 56


 1804 076c 06       		.uleb128 0x6
 1805 076d 24060000 		.4byte	.LASF125
 1806 0771 10       		.byte	0x10
 1807 0772 0C       		.byte	0xc
 1808 0773 39       		.byte	0x39
 1809 0774 9D070000 		.4byte	0x79d
 1810 0778 07       		.uleb128 0x7
 1811 0779 22010000 		.4byte	.LASF126
 1812 077d 0C       		.byte	0xc
 1813 077e 3A       		.byte	0x3a
 1814 077f 73020000 		.4byte	0x273
 1815 0783 00       		.byte	0
 1816 0784 07       		.uleb128 0x7
 1817 0785 AF070000 		.4byte	.LASF127
 1818 0789 0C       		.byte	0xc
 1819 078a 3C       		.byte	0x3c
 1820 078b 49020000 		.4byte	0x249
 1821 078f 08       		.byte	0x8
 1822 0790 07       		.uleb128 0x7
 1823 0791 74050000 		.4byte	.LASF128
 1824 0795 0C       		.byte	0xc
 1825 0796 3E       		.byte	0x3e
 1826 0797 DB070000 		.4byte	0x7db
 1827 079b 0C       		.byte	0xc
 1828 079c 00       		.byte	0
 1829 079d 0A       		.uleb128 0xa
 1830 079e 04       		.byte	0x4
 1831 079f 6C070000 		.4byte	0x76c
 1832 07a3 0A       		.uleb128 0xa
 1833 07a4 04       		.byte	0x4
 1834 07a5 A9070000 		.4byte	0x7a9
 1835 07a9 18       		.uleb128 0x18
 1836 07aa AE070000 		.4byte	0x7ae
 1837 07ae 03       		.uleb128 0x3
 1838 07af 01       		.byte	0x1
 1839 07b0 08       		.byte	0x8
 1840 07b1 46050000 		.4byte	.LASF129
 1841 07b5 0A       		.uleb128 0xa
 1842 07b6 04       		.byte	0x4
 1843 07b7 28030000 		.4byte	0x328
 1844 07bb 05       		.uleb128 0x5
 1845 07bc A3070000 		.4byte	0x7a3
 1846 07c0 10       		.uleb128 0x10
 1847 07c1 19060000 		.4byte	0x619
 1848 07c5 D0070000 		.4byte	0x7d0
 1849 07c9 11       		.uleb128 0x11
 1850 07ca 5C040000 		.4byte	0x45c
 1851 07ce 1A       		.byte	0x1a
 1852 07cf 00       		.byte	0
 1853 07d0 04       		.uleb128 0x4
 1854 07d1 D3010000 		.4byte	.LASF130
 1855 07d5 0C       		.byte	0xc
 1856 07d6 34       		.byte	0x34
 1857 07d7 6C070000 		.4byte	0x76c
 1858 07db 0A       		.uleb128 0xa
 1859 07dc 04       		.byte	0x4
 1860 07dd D0070000 		.4byte	0x7d0
ARM GAS  /var/folders/c6/c789hm653lg9vtl73krp73tm0000gn/T//ccOmq6Sx.s 			page 57


 1861 07e1 03       		.uleb128 0x3
 1862 07e2 01       		.byte	0x1
 1863 07e3 02       		.byte	0x2
 1864 07e4 01040000 		.4byte	.LASF131
 1865 07e8 15       		.uleb128 0x15
 1866 07e9 04       		.byte	0x4
 1867 07ea 0D       		.byte	0xd
 1868 07eb B3       		.byte	0xb3
 1869 07ec 09080000 		.4byte	0x809
 1870 07f0 14       		.uleb128 0x14
 1871 07f1 73657400 		.ascii	"set\000"
 1872 07f5 0D       		.byte	0xd
 1873 07f6 B4       		.byte	0xb4
 1874 07f7 AD000000 		.4byte	0xad
 1875 07fb 00       		.byte	0
 1876 07fc 07       		.uleb128 0x7
 1877 07fd 20030000 		.4byte	.LASF132
 1878 0801 0D       		.byte	0xd
 1879 0802 B5       		.byte	0xb5
 1880 0803 AD000000 		.4byte	0xad
 1881 0807 02       		.byte	0x2
 1882 0808 00       		.byte	0
 1883 0809 16       		.uleb128 0x16
 1884 080a 04       		.byte	0x4
 1885 080b 0D       		.byte	0xd
 1886 080c B1       		.byte	0xb1
 1887 080d 24080000 		.4byte	0x824
 1888 0811 19       		.uleb128 0x19
 1889 0812 5700     		.ascii	"W\000"
 1890 0814 0D       		.byte	0xd
 1891 0815 B2       		.byte	0xb2
 1892 0816 C3000000 		.4byte	0xc3
 1893 081a 19       		.uleb128 0x19
 1894 081b 4800     		.ascii	"H\000"
 1895 081d 0D       		.byte	0xd
 1896 081e B6       		.byte	0xb6
 1897 081f E8070000 		.4byte	0x7e8
 1898 0823 00       		.byte	0
 1899 0824 15       		.uleb128 0x15
 1900 0825 2C       		.byte	0x2c
 1901 0826 0D       		.byte	0xd
 1902 0827 A9       		.byte	0xa9
 1903 0828 B1080000 		.4byte	0x8b1
 1904 082c 07       		.uleb128 0x7
 1905 082d 76000000 		.4byte	.LASF133
 1906 0831 0D       		.byte	0xd
 1907 0832 AB       		.byte	0xab
 1908 0833 DE000000 		.4byte	0xde
 1909 0837 00       		.byte	0
 1910 0838 07       		.uleb128 0x7
 1911 0839 40000000 		.4byte	.LASF134
 1912 083d 0D       		.byte	0xd
 1913 083e AC       		.byte	0xac
 1914 083f DE000000 		.4byte	0xde
 1915 0843 04       		.byte	0x4
 1916 0844 07       		.uleb128 0x7
 1917 0845 94010000 		.4byte	.LASF135
ARM GAS  /var/folders/c6/c789hm653lg9vtl73krp73tm0000gn/T//ccOmq6Sx.s 			page 58


 1918 0849 0D       		.byte	0xd
 1919 084a AD       		.byte	0xad
 1920 084b DE000000 		.4byte	0xde
 1921 084f 08       		.byte	0x8
 1922 0850 07       		.uleb128 0x7
 1923 0851 93000000 		.4byte	.LASF136
 1924 0855 0D       		.byte	0xd
 1925 0856 AE       		.byte	0xae
 1926 0857 DE000000 		.4byte	0xde
 1927 085b 0C       		.byte	0xc
 1928 085c 14       		.uleb128 0x14
 1929 085d 49445200 		.ascii	"IDR\000"
 1930 0861 0D       		.byte	0xd
 1931 0862 AF       		.byte	0xaf
 1932 0863 DE000000 		.4byte	0xde
 1933 0867 10       		.byte	0x10
 1934 0868 14       		.uleb128 0x14
 1935 0869 4F445200 		.ascii	"ODR\000"
 1936 086d 0D       		.byte	0xd
 1937 086e B0       		.byte	0xb0
 1938 086f DE000000 		.4byte	0xde
 1939 0873 14       		.byte	0x14
 1940 0874 07       		.uleb128 0x7
 1941 0875 0C010000 		.4byte	.LASF137
 1942 0879 0D       		.byte	0xd
 1943 087a B7       		.byte	0xb7
 1944 087b B1080000 		.4byte	0x8b1
 1945 087f 18       		.byte	0x18
 1946 0880 07       		.uleb128 0x7
 1947 0881 26020000 		.4byte	.LASF138
 1948 0885 0D       		.byte	0xd
 1949 0886 B8       		.byte	0xb8
 1950 0887 DE000000 		.4byte	0xde
 1951 088b 1C       		.byte	0x1c
 1952 088c 07       		.uleb128 0x7
 1953 088d 99030000 		.4byte	.LASF139
 1954 0891 0D       		.byte	0xd
 1955 0892 B9       		.byte	0xb9
 1956 0893 DE000000 		.4byte	0xde
 1957 0897 20       		.byte	0x20
 1958 0898 07       		.uleb128 0x7
 1959 0899 94030000 		.4byte	.LASF140
 1960 089d 0D       		.byte	0xd
 1961 089e BA       		.byte	0xba
 1962 089f DE000000 		.4byte	0xde
 1963 08a3 24       		.byte	0x24
 1964 08a4 14       		.uleb128 0x14
 1965 08a5 42525200 		.ascii	"BRR\000"
 1966 08a9 0D       		.byte	0xd
 1967 08aa BB       		.byte	0xbb
 1968 08ab DE000000 		.4byte	0xde
 1969 08af 28       		.byte	0x28
 1970 08b0 00       		.byte	0
 1971 08b1 05       		.uleb128 0x5
 1972 08b2 09080000 		.4byte	0x809
 1973 08b6 04       		.uleb128 0x4
 1974 08b7 C1010000 		.4byte	.LASF141
ARM GAS  /var/folders/c6/c789hm653lg9vtl73krp73tm0000gn/T//ccOmq6Sx.s 			page 59


 1975 08bb 0D       		.byte	0xd
 1976 08bc BC       		.byte	0xbc
 1977 08bd 24080000 		.4byte	0x824
 1978 08c1 15       		.uleb128 0x15
 1979 08c2 1C       		.byte	0x1c
 1980 08c3 0D       		.byte	0xd
 1981 08c4 C1       		.byte	0xc1
 1982 08c5 1E090000 		.4byte	0x91e
 1983 08c9 07       		.uleb128 0x7
 1984 08ca 2A010000 		.4byte	.LASF142
 1985 08ce 0D       		.byte	0xd
 1986 08cf C3       		.byte	0xc3
 1987 08d0 C3000000 		.4byte	0xc3
 1988 08d4 00       		.byte	0
 1989 08d5 07       		.uleb128 0x7
 1990 08d6 2B020000 		.4byte	.LASF143
 1991 08da 0D       		.byte	0xd
 1992 08db C5       		.byte	0xc5
 1993 08dc C3000000 		.4byte	0xc3
 1994 08e0 04       		.byte	0x4
 1995 08e1 07       		.uleb128 0x7
 1996 08e2 1E020000 		.4byte	.LASF144
 1997 08e6 0D       		.byte	0xd
 1998 08e7 C7       		.byte	0xc7
 1999 08e8 C3000000 		.4byte	0xc3
 2000 08ec 08       		.byte	0x8
 2001 08ed 07       		.uleb128 0x7
 2002 08ee 55060000 		.4byte	.LASF145
 2003 08f2 0D       		.byte	0xd
 2004 08f3 C9       		.byte	0xc9
 2005 08f4 C3000000 		.4byte	0xc3
 2006 08f8 0C       		.byte	0xc
 2007 08f9 14       		.uleb128 0x14
 2008 08fa 6F647200 		.ascii	"odr\000"
 2009 08fe 0D       		.byte	0xd
 2010 08ff CB       		.byte	0xcb
 2011 0900 C3000000 		.4byte	0xc3
 2012 0904 10       		.byte	0x10
 2013 0905 07       		.uleb128 0x7
 2014 0906 1D040000 		.4byte	.LASF146
 2015 090a 0D       		.byte	0xd
 2016 090b CD       		.byte	0xcd
 2017 090c C3000000 		.4byte	0xc3
 2018 0910 14       		.byte	0x14
 2019 0911 07       		.uleb128 0x7
 2020 0912 6A030000 		.4byte	.LASF147
 2021 0916 0D       		.byte	0xd
 2022 0917 CF       		.byte	0xcf
 2023 0918 C3000000 		.4byte	0xc3
 2024 091c 18       		.byte	0x18
 2025 091d 00       		.byte	0
 2026 091e 04       		.uleb128 0x4
 2027 091f 00000000 		.4byte	.LASF148
 2028 0923 0D       		.byte	0xd
 2029 0924 D0       		.byte	0xd0
 2030 0925 C1080000 		.4byte	0x8c1
 2031 0929 15       		.uleb128 0x15
ARM GAS  /var/folders/c6/c789hm653lg9vtl73krp73tm0000gn/T//ccOmq6Sx.s 			page 60


 2032 092a FC       		.byte	0xfc
 2033 092b 0D       		.byte	0xd
 2034 092c D9       		.byte	0xd9
 2035 092d 9E090000 		.4byte	0x99e
 2036 0931 07       		.uleb128 0x7
 2037 0932 55040000 		.4byte	.LASF149
 2038 0936 0D       		.byte	0xd
 2039 0937 DC       		.byte	0xdc
 2040 0938 1E090000 		.4byte	0x91e
 2041 093c 00       		.byte	0
 2042 093d 07       		.uleb128 0x7
 2043 093e DB010000 		.4byte	.LASF150
 2044 0942 0D       		.byte	0xd
 2045 0943 E0       		.byte	0xe0
 2046 0944 1E090000 		.4byte	0x91e
 2047 0948 1C       		.byte	0x1c
 2048 0949 07       		.uleb128 0x7
 2049 094a 71060000 		.4byte	.LASF151
 2050 094e 0D       		.byte	0xd
 2051 094f E4       		.byte	0xe4
 2052 0950 1E090000 		.4byte	0x91e
 2053 0954 38       		.byte	0x38
 2054 0955 07       		.uleb128 0x7
 2055 0956 6F030000 		.4byte	.LASF152
 2056 095a 0D       		.byte	0xd
 2057 095b E8       		.byte	0xe8
 2058 095c 1E090000 		.4byte	0x91e
 2059 0960 54       		.byte	0x54
 2060 0961 07       		.uleb128 0x7
 2061 0962 4F010000 		.4byte	.LASF153
 2062 0966 0D       		.byte	0xd
 2063 0967 EC       		.byte	0xec
 2064 0968 1E090000 		.4byte	0x91e
 2065 096c 70       		.byte	0x70
 2066 096d 07       		.uleb128 0x7
 2067 096e 45020000 		.4byte	.LASF154
 2068 0972 0D       		.byte	0xd
 2069 0973 F0       		.byte	0xf0
 2070 0974 1E090000 		.4byte	0x91e
 2071 0978 8C       		.byte	0x8c
 2072 0979 07       		.uleb128 0x7
 2073 097a B2020000 		.4byte	.LASF155
 2074 097e 0D       		.byte	0xd
 2075 097f F4       		.byte	0xf4
 2076 0980 1E090000 		.4byte	0x91e
 2077 0984 A8       		.byte	0xa8
 2078 0985 07       		.uleb128 0x7
 2079 0986 6F000000 		.4byte	.LASF156
 2080 098a 0D       		.byte	0xd
 2081 098b F8       		.byte	0xf8
 2082 098c 1E090000 		.4byte	0x91e
 2083 0990 C4       		.byte	0xc4
 2084 0991 07       		.uleb128 0x7
 2085 0992 79040000 		.4byte	.LASF157
 2086 0996 0D       		.byte	0xd
 2087 0997 FC       		.byte	0xfc
 2088 0998 1E090000 		.4byte	0x91e
ARM GAS  /var/folders/c6/c789hm653lg9vtl73krp73tm0000gn/T//ccOmq6Sx.s 			page 61


 2089 099c E0       		.byte	0xe0
 2090 099d 00       		.byte	0
 2091 099e 04       		.uleb128 0x4
 2092 099f A5070000 		.4byte	.LASF158
 2093 09a3 0D       		.byte	0xd
 2094 09a4 FE       		.byte	0xfe
 2095 09a5 29090000 		.4byte	0x929
 2096 09a9 13       		.uleb128 0x13
 2097 09aa 62000000 		.4byte	.LASF159
 2098 09ae 0D       		.byte	0xd
 2099 09af 0E01     		.2byte	0x10e
 2100 09b1 C3000000 		.4byte	0xc3
 2101 09b5 13       		.uleb128 0x13
 2102 09b6 9C070000 		.4byte	.LASF160
 2103 09ba 0D       		.byte	0xd
 2104 09bb 1301     		.2byte	0x113
 2105 09bd C3000000 		.4byte	0xc3
 2106 09c1 13       		.uleb128 0x13
 2107 09c2 C6050000 		.4byte	.LASF161
 2108 09c6 0D       		.byte	0xd
 2109 09c7 1B01     		.2byte	0x11b
 2110 09c9 CD090000 		.4byte	0x9cd
 2111 09cd 0A       		.uleb128 0xa
 2112 09ce 04       		.byte	0x4
 2113 09cf B6080000 		.4byte	0x8b6
 2114 09d3 1A       		.uleb128 0x1a
 2115 09d4 A4050000 		.4byte	.LASF175
 2116 09d8 01       		.byte	0x1
 2117 09d9 41       		.byte	0x41
 2118 09da 01       		.byte	0x1
 2119 09db F6090000 		.4byte	0x9f6
 2120 09df 1B       		.uleb128 0x1b
 2121 09e0 6B040000 		.4byte	.LASF162
 2122 09e4 01       		.byte	0x1
 2123 09e5 41       		.byte	0x41
 2124 09e6 CD090000 		.4byte	0x9cd
 2125 09ea 1B       		.uleb128 0x1b
 2126 09eb 50050000 		.4byte	.LASF163
 2127 09ef 01       		.byte	0x1
 2128 09f0 41       		.byte	0x41
 2129 09f1 F6090000 		.4byte	0x9f6
 2130 09f5 00       		.byte	0
 2131 09f6 0A       		.uleb128 0xa
 2132 09f7 04       		.byte	0x4
 2133 09f8 FC090000 		.4byte	0x9fc
 2134 09fc 18       		.uleb128 0x18
 2135 09fd 1E090000 		.4byte	0x91e
 2136 0a01 1C       		.uleb128 0x1c
 2137 0a02 34060000 		.4byte	.LASF164
 2138 0a06 01       		.byte	0x1
 2139 0a07 5C       		.byte	0x5c
 2140 0a08 00000000 		.4byte	.LFB261
 2141 0a0c C0010000 		.4byte	.LFE261-.LFB261
 2142 0a10 01       		.uleb128 0x1
 2143 0a11 9C       		.byte	0x9c
 2144 0a12 7A0B0000 		.4byte	0xb7a
 2145 0a16 1D       		.uleb128 0x1d
ARM GAS  /var/folders/c6/c789hm653lg9vtl73krp73tm0000gn/T//ccOmq6Sx.s 			page 62


 2146 0a17 50050000 		.4byte	.LASF163
 2147 0a1b 01       		.byte	0x1
 2148 0a1c 5C       		.byte	0x5c
 2149 0a1d 7A0B0000 		.4byte	0xb7a
 2150 0a21 01       		.uleb128 0x1
 2151 0a22 50       		.byte	0x50
 2152 0a23 1E       		.uleb128 0x1e
 2153 0a24 D3090000 		.4byte	0x9d3
 2154 0a28 08000000 		.4byte	.LBB20
 2155 0a2c 00000000 		.4byte	.Ldebug_ranges0+0
 2156 0a30 01       		.byte	0x1
 2157 0a31 71       		.byte	0x71
 2158 0a32 470A0000 		.4byte	0xa47
 2159 0a36 1F       		.uleb128 0x1f
 2160 0a37 EA090000 		.4byte	0x9ea
 2161 0a3b 01       		.uleb128 0x1
 2162 0a3c 50       		.byte	0x50
 2163 0a3d 20       		.uleb128 0x20
 2164 0a3e DF090000 		.4byte	0x9df
 2165 0a42 00000240 		.4byte	0x40020000
 2166 0a46 00       		.byte	0
 2167 0a47 1E       		.uleb128 0x1e
 2168 0a48 D3090000 		.4byte	0x9d3
 2169 0a4c 10000000 		.4byte	.LBB23
 2170 0a50 18000000 		.4byte	.Ldebug_ranges0+0x18
 2171 0a54 01       		.byte	0x1
 2172 0a55 74       		.byte	0x74
 2173 0a56 6D0A0000 		.4byte	0xa6d
 2174 0a5a 1F       		.uleb128 0x1f
 2175 0a5b EA090000 		.4byte	0x9ea
 2176 0a5f 03       		.uleb128 0x3
 2177 0a60 70       		.byte	0x70
 2178 0a61 1C       		.sleb128 28
 2179 0a62 9F       		.byte	0x9f
 2180 0a63 20       		.uleb128 0x20
 2181 0a64 DF090000 		.4byte	0x9df
 2182 0a68 00040240 		.4byte	0x40020400
 2183 0a6c 00       		.byte	0
 2184 0a6d 1E       		.uleb128 0x1e
 2185 0a6e D3090000 		.4byte	0x9d3
 2186 0a72 14000000 		.4byte	.LBB26
 2187 0a76 30000000 		.4byte	.Ldebug_ranges0+0x30
 2188 0a7a 01       		.byte	0x1
 2189 0a7b 77       		.byte	0x77
 2190 0a7c 930A0000 		.4byte	0xa93
 2191 0a80 1F       		.uleb128 0x1f
 2192 0a81 EA090000 		.4byte	0x9ea
 2193 0a85 03       		.uleb128 0x3
 2194 0a86 70       		.byte	0x70
 2195 0a87 38       		.sleb128 56
 2196 0a88 9F       		.byte	0x9f
 2197 0a89 20       		.uleb128 0x20
 2198 0a8a DF090000 		.4byte	0x9df
 2199 0a8e 00080240 		.4byte	0x40020800
 2200 0a92 00       		.byte	0
 2201 0a93 1E       		.uleb128 0x1e
 2202 0a94 D3090000 		.4byte	0x9d3
ARM GAS  /var/folders/c6/c789hm653lg9vtl73krp73tm0000gn/T//ccOmq6Sx.s 			page 63


 2203 0a98 16000000 		.4byte	.LBB29
 2204 0a9c 48000000 		.4byte	.Ldebug_ranges0+0x48
 2205 0aa0 01       		.byte	0x1
 2206 0aa1 7A       		.byte	0x7a
 2207 0aa2 BA0A0000 		.4byte	0xaba
 2208 0aa6 1F       		.uleb128 0x1f
 2209 0aa7 EA090000 		.4byte	0x9ea
 2210 0aab 04       		.uleb128 0x4
 2211 0aac 70       		.byte	0x70
 2212 0aad D400     		.sleb128 84
 2213 0aaf 9F       		.byte	0x9f
 2214 0ab0 20       		.uleb128 0x20
 2215 0ab1 DF090000 		.4byte	0x9df
 2216 0ab5 000C0240 		.4byte	0x40020c00
 2217 0ab9 00       		.byte	0
 2218 0aba 1E       		.uleb128 0x1e
 2219 0abb D3090000 		.4byte	0x9d3
 2220 0abf 18000000 		.4byte	.LBB32
 2221 0ac3 60000000 		.4byte	.Ldebug_ranges0+0x60
 2222 0ac7 01       		.byte	0x1
 2223 0ac8 7D       		.byte	0x7d
 2224 0ac9 E10A0000 		.4byte	0xae1
 2225 0acd 1F       		.uleb128 0x1f
 2226 0ace EA090000 		.4byte	0x9ea
 2227 0ad2 04       		.uleb128 0x4
 2228 0ad3 70       		.byte	0x70
 2229 0ad4 F000     		.sleb128 112
 2230 0ad6 9F       		.byte	0x9f
 2231 0ad7 20       		.uleb128 0x20
 2232 0ad8 DF090000 		.4byte	0x9df
 2233 0adc 00100240 		.4byte	0x40021000
 2234 0ae0 00       		.byte	0
 2235 0ae1 1E       		.uleb128 0x1e
 2236 0ae2 D3090000 		.4byte	0x9d3
 2237 0ae6 1A000000 		.4byte	.LBB35
 2238 0aea 78000000 		.4byte	.Ldebug_ranges0+0x78
 2239 0aee 01       		.byte	0x1
 2240 0aef 80       		.byte	0x80
 2241 0af0 080B0000 		.4byte	0xb08
 2242 0af4 1F       		.uleb128 0x1f
 2243 0af5 EA090000 		.4byte	0x9ea
 2244 0af9 04       		.uleb128 0x4
 2245 0afa 70       		.byte	0x70
 2246 0afb 8C01     		.sleb128 140
 2247 0afd 9F       		.byte	0x9f
 2248 0afe 20       		.uleb128 0x20
 2249 0aff DF090000 		.4byte	0x9df
 2250 0b03 00140240 		.4byte	0x40021400
 2251 0b07 00       		.byte	0
 2252 0b08 1E       		.uleb128 0x1e
 2253 0b09 D3090000 		.4byte	0x9d3
 2254 0b0d 1C000000 		.4byte	.LBB38
 2255 0b11 90000000 		.4byte	.Ldebug_ranges0+0x90
 2256 0b15 01       		.byte	0x1
 2257 0b16 83       		.byte	0x83
 2258 0b17 2F0B0000 		.4byte	0xb2f
 2259 0b1b 1F       		.uleb128 0x1f
ARM GAS  /var/folders/c6/c789hm653lg9vtl73krp73tm0000gn/T//ccOmq6Sx.s 			page 64


 2260 0b1c EA090000 		.4byte	0x9ea
 2261 0b20 04       		.uleb128 0x4
 2262 0b21 70       		.byte	0x70
 2263 0b22 A801     		.sleb128 168
 2264 0b24 9F       		.byte	0x9f
 2265 0b25 20       		.uleb128 0x20
 2266 0b26 DF090000 		.4byte	0x9df
 2267 0b2a 00180240 		.4byte	0x40021800
 2268 0b2e 00       		.byte	0
 2269 0b2f 1E       		.uleb128 0x1e
 2270 0b30 D3090000 		.4byte	0x9d3
 2271 0b34 1E000000 		.4byte	.LBB41
 2272 0b38 A8000000 		.4byte	.Ldebug_ranges0+0xa8
 2273 0b3c 01       		.byte	0x1
 2274 0b3d 86       		.byte	0x86
 2275 0b3e 560B0000 		.4byte	0xb56
 2276 0b42 1F       		.uleb128 0x1f
 2277 0b43 EA090000 		.4byte	0x9ea
 2278 0b47 04       		.uleb128 0x4
 2279 0b48 70       		.byte	0x70
 2280 0b49 C401     		.sleb128 196
 2281 0b4b 9F       		.byte	0x9f
 2282 0b4c 20       		.uleb128 0x20
 2283 0b4d DF090000 		.4byte	0x9df
 2284 0b51 001C0240 		.4byte	0x40021c00
 2285 0b55 00       		.byte	0
 2286 0b56 21       		.uleb128 0x21
 2287 0b57 D3090000 		.4byte	0x9d3
 2288 0b5b 64010000 		.4byte	.LBB52
 2289 0b5f 2C000000 		.4byte	.LBE52-.LBB52
 2290 0b63 01       		.byte	0x1
 2291 0b64 89       		.byte	0x89
 2292 0b65 1F       		.uleb128 0x1f
 2293 0b66 EA090000 		.4byte	0x9ea
 2294 0b6a 04       		.uleb128 0x4
 2295 0b6b 70       		.byte	0x70
 2296 0b6c E001     		.sleb128 224
 2297 0b6e 9F       		.byte	0x9f
 2298 0b6f 20       		.uleb128 0x20
 2299 0b70 DF090000 		.4byte	0x9df
 2300 0b74 00200240 		.4byte	0x40022000
 2301 0b78 00       		.byte	0
 2302 0b79 00       		.byte	0
 2303 0b7a 0A       		.uleb128 0xa
 2304 0b7b 04       		.byte	0x4
 2305 0b7c 800B0000 		.4byte	0xb80
 2306 0b80 18       		.uleb128 0x18
 2307 0b81 9E090000 		.4byte	0x99e
 2308 0b85 1C       		.uleb128 0x1c
 2309 0b86 E9050000 		.4byte	.LASF165
 2310 0b8a 01       		.byte	0x1
 2311 0b8b 9B       		.byte	0x9b
 2312 0b8c 00000000 		.4byte	.LFB262
 2313 0b90 C8000000 		.4byte	.LFE262-.LFB262
 2314 0b94 01       		.uleb128 0x1
 2315 0b95 9C       		.byte	0x9c
 2316 0b96 5D0C0000 		.4byte	0xc5d
ARM GAS  /var/folders/c6/c789hm653lg9vtl73krp73tm0000gn/T//ccOmq6Sx.s 			page 65


 2317 0b9a 1D       		.uleb128 0x1d
 2318 0b9b CE010000 		.4byte	.LASF166
 2319 0b9f 01       		.byte	0x1
 2320 0ba0 9B       		.byte	0x9b
 2321 0ba1 C1090000 		.4byte	0x9c1
 2322 0ba5 01       		.uleb128 0x1
 2323 0ba6 50       		.byte	0x50
 2324 0ba7 22       		.uleb128 0x22
 2325 0ba8 A4010000 		.4byte	.LASF167
 2326 0bac 01       		.byte	0x1
 2327 0bad 9C       		.byte	0x9c
 2328 0bae A9090000 		.4byte	0x9a9
 2329 0bb2 00000000 		.4byte	.LLST0
 2330 0bb6 22       		.uleb128 0x22
 2331 0bb7 4B050000 		.4byte	.LASF168
 2332 0bbb 01       		.byte	0x1
 2333 0bbc 9D       		.byte	0x9d
 2334 0bbd B5090000 		.4byte	0x9b5
 2335 0bc1 2D000000 		.4byte	.LLST1
 2336 0bc5 23       		.uleb128 0x23
 2337 0bc6 2A010000 		.4byte	.LASF142
 2338 0bca 01       		.byte	0x1
 2339 0bcb 9F       		.byte	0x9f
 2340 0bcc C3000000 		.4byte	0xc3
 2341 0bd0 4E000000 		.4byte	.LLST2
 2342 0bd4 23       		.uleb128 0x23
 2343 0bd5 2B020000 		.4byte	.LASF143
 2344 0bd9 01       		.byte	0x1
 2345 0bda A0       		.byte	0xa0
 2346 0bdb C3000000 		.4byte	0xc3
 2347 0bdf 61000000 		.4byte	.LLST3
 2348 0be3 23       		.uleb128 0x23
 2349 0be4 1E020000 		.4byte	.LASF144
 2350 0be8 01       		.byte	0x1
 2351 0be9 A1       		.byte	0xa1
 2352 0bea C3000000 		.4byte	0xc3
 2353 0bee 74000000 		.4byte	.LLST4
 2354 0bf2 23       		.uleb128 0x23
 2355 0bf3 55060000 		.4byte	.LASF145
 2356 0bf7 01       		.byte	0x1
 2357 0bf8 A2       		.byte	0xa2
 2358 0bf9 C3000000 		.4byte	0xc3
 2359 0bfd 87000000 		.4byte	.LLST5
 2360 0c01 24       		.uleb128 0x24
 2361 0c02 41050000 		.4byte	.LASF169
 2362 0c06 01       		.byte	0x1
 2363 0c07 A3       		.byte	0xa3
 2364 0c08 C3000000 		.4byte	0xc3
 2365 0c0c 01       		.uleb128 0x1
 2366 0c0d 52       		.byte	0x52
 2367 0c0e 25       		.uleb128 0x25
 2368 0c0f 62697400 		.ascii	"bit\000"
 2369 0c13 01       		.byte	0x1
 2370 0c14 A4       		.byte	0xa4
 2371 0c15 C3000000 		.4byte	0xc3
 2372 0c19 9A000000 		.4byte	.LLST6
 2373 0c1d 26       		.uleb128 0x26
ARM GAS  /var/folders/c6/c789hm653lg9vtl73krp73tm0000gn/T//ccOmq6Sx.s 			page 66


 2374 0c1e C0000000 		.4byte	.Ldebug_ranges0+0xc0
 2375 0c22 23       		.uleb128 0x23
 2376 0c23 7B010000 		.4byte	.LASF170
 2377 0c27 01       		.byte	0x1
 2378 0c28 A7       		.byte	0xa7
 2379 0c29 C3000000 		.4byte	0xc3
 2380 0c2d B9000000 		.4byte	.LLST7
 2381 0c31 25       		.uleb128 0x25
 2382 0c32 6D3100   		.ascii	"m1\000"
 2383 0c35 01       		.byte	0x1
 2384 0c36 A7       		.byte	0xa7
 2385 0c37 C3000000 		.4byte	0xc3
 2386 0c3b FF000000 		.4byte	.LLST8
 2387 0c3f 25       		.uleb128 0x25
 2388 0c40 6D3200   		.ascii	"m2\000"
 2389 0c43 01       		.byte	0x1
 2390 0c44 A7       		.byte	0xa7
 2391 0c45 C3000000 		.4byte	0xc3
 2392 0c49 16010000 		.4byte	.LLST9
 2393 0c4d 25       		.uleb128 0x25
 2394 0c4e 6D3400   		.ascii	"m4\000"
 2395 0c51 01       		.byte	0x1
 2396 0c52 A7       		.byte	0xa7
 2397 0c53 C3000000 		.4byte	0xc3
 2398 0c57 59010000 		.4byte	.LLST10
 2399 0c5b 00       		.byte	0
 2400 0c5c 00       		.byte	0
 2401 0c5d 27       		.uleb128 0x27
 2402 0c5e C3000000 		.4byte	.LASF171
 2403 0c62 0E       		.byte	0xe
 2404 0c63 A706     		.2byte	0x6a7
 2405 0c65 D9000000 		.4byte	0xd9
 2406 0c69 28       		.uleb128 0x28
 2407 0c6a 636800   		.ascii	"ch\000"
 2408 0c6d 06       		.byte	0x6
 2409 0c6e 0902     		.2byte	0x209
 2410 0c70 F5030000 		.4byte	0x3f5
 2411 0c74 00       		.byte	0
 2412              		.section	.debug_abbrev,"",%progbits
 2413              	.Ldebug_abbrev0:
 2414 0000 01       		.uleb128 0x1
 2415 0001 11       		.uleb128 0x11
 2416 0002 01       		.byte	0x1
 2417 0003 25       		.uleb128 0x25
 2418 0004 0E       		.uleb128 0xe
 2419 0005 13       		.uleb128 0x13
 2420 0006 0B       		.uleb128 0xb
 2421 0007 03       		.uleb128 0x3
 2422 0008 0E       		.uleb128 0xe
 2423 0009 1B       		.uleb128 0x1b
 2424 000a 0E       		.uleb128 0xe
 2425 000b 55       		.uleb128 0x55
 2426 000c 17       		.uleb128 0x17
 2427 000d 11       		.uleb128 0x11
 2428 000e 01       		.uleb128 0x1
 2429 000f 10       		.uleb128 0x10
 2430 0010 17       		.uleb128 0x17
ARM GAS  /var/folders/c6/c789hm653lg9vtl73krp73tm0000gn/T//ccOmq6Sx.s 			page 67


 2431 0011 00       		.byte	0
 2432 0012 00       		.byte	0
 2433 0013 02       		.uleb128 0x2
 2434 0014 24       		.uleb128 0x24
 2435 0015 00       		.byte	0
 2436 0016 0B       		.uleb128 0xb
 2437 0017 0B       		.uleb128 0xb
 2438 0018 3E       		.uleb128 0x3e
 2439 0019 0B       		.uleb128 0xb
 2440 001a 03       		.uleb128 0x3
 2441 001b 08       		.uleb128 0x8
 2442 001c 00       		.byte	0
 2443 001d 00       		.byte	0
 2444 001e 03       		.uleb128 0x3
 2445 001f 24       		.uleb128 0x24
 2446 0020 00       		.byte	0
 2447 0021 0B       		.uleb128 0xb
 2448 0022 0B       		.uleb128 0xb
 2449 0023 3E       		.uleb128 0x3e
 2450 0024 0B       		.uleb128 0xb
 2451 0025 03       		.uleb128 0x3
 2452 0026 0E       		.uleb128 0xe
 2453 0027 00       		.byte	0
 2454 0028 00       		.byte	0
 2455 0029 04       		.uleb128 0x4
 2456 002a 16       		.uleb128 0x16
 2457 002b 00       		.byte	0
 2458 002c 03       		.uleb128 0x3
 2459 002d 0E       		.uleb128 0xe
 2460 002e 3A       		.uleb128 0x3a
 2461 002f 0B       		.uleb128 0xb
 2462 0030 3B       		.uleb128 0x3b
 2463 0031 0B       		.uleb128 0xb
 2464 0032 49       		.uleb128 0x49
 2465 0033 13       		.uleb128 0x13
 2466 0034 00       		.byte	0
 2467 0035 00       		.byte	0
 2468 0036 05       		.uleb128 0x5
 2469 0037 35       		.uleb128 0x35
 2470 0038 00       		.byte	0
 2471 0039 49       		.uleb128 0x49
 2472 003a 13       		.uleb128 0x13
 2473 003b 00       		.byte	0
 2474 003c 00       		.byte	0
 2475 003d 06       		.uleb128 0x6
 2476 003e 13       		.uleb128 0x13
 2477 003f 01       		.byte	0x1
 2478 0040 03       		.uleb128 0x3
 2479 0041 0E       		.uleb128 0xe
 2480 0042 0B       		.uleb128 0xb
 2481 0043 0B       		.uleb128 0xb
 2482 0044 3A       		.uleb128 0x3a
 2483 0045 0B       		.uleb128 0xb
 2484 0046 3B       		.uleb128 0x3b
 2485 0047 0B       		.uleb128 0xb
 2486 0048 01       		.uleb128 0x1
 2487 0049 13       		.uleb128 0x13
ARM GAS  /var/folders/c6/c789hm653lg9vtl73krp73tm0000gn/T//ccOmq6Sx.s 			page 68


 2488 004a 00       		.byte	0
 2489 004b 00       		.byte	0
 2490 004c 07       		.uleb128 0x7
 2491 004d 0D       		.uleb128 0xd
 2492 004e 00       		.byte	0
 2493 004f 03       		.uleb128 0x3
 2494 0050 0E       		.uleb128 0xe
 2495 0051 3A       		.uleb128 0x3a
 2496 0052 0B       		.uleb128 0xb
 2497 0053 3B       		.uleb128 0x3b
 2498 0054 0B       		.uleb128 0xb
 2499 0055 49       		.uleb128 0x49
 2500 0056 13       		.uleb128 0x13
 2501 0057 38       		.uleb128 0x38
 2502 0058 0B       		.uleb128 0xb
 2503 0059 00       		.byte	0
 2504 005a 00       		.byte	0
 2505 005b 08       		.uleb128 0x8
 2506 005c 0D       		.uleb128 0xd
 2507 005d 00       		.byte	0
 2508 005e 03       		.uleb128 0x3
 2509 005f 08       		.uleb128 0x8
 2510 0060 3A       		.uleb128 0x3a
 2511 0061 0B       		.uleb128 0xb
 2512 0062 3B       		.uleb128 0x3b
 2513 0063 05       		.uleb128 0x5
 2514 0064 49       		.uleb128 0x49
 2515 0065 13       		.uleb128 0x13
 2516 0066 38       		.uleb128 0x38
 2517 0067 0B       		.uleb128 0xb
 2518 0068 00       		.byte	0
 2519 0069 00       		.byte	0
 2520 006a 09       		.uleb128 0x9
 2521 006b 0D       		.uleb128 0xd
 2522 006c 00       		.byte	0
 2523 006d 03       		.uleb128 0x3
 2524 006e 0E       		.uleb128 0xe
 2525 006f 3A       		.uleb128 0x3a
 2526 0070 0B       		.uleb128 0xb
 2527 0071 3B       		.uleb128 0x3b
 2528 0072 05       		.uleb128 0x5
 2529 0073 49       		.uleb128 0x49
 2530 0074 13       		.uleb128 0x13
 2531 0075 38       		.uleb128 0x38
 2532 0076 0B       		.uleb128 0xb
 2533 0077 00       		.byte	0
 2534 0078 00       		.byte	0
 2535 0079 0A       		.uleb128 0xa
 2536 007a 0F       		.uleb128 0xf
 2537 007b 00       		.byte	0
 2538 007c 0B       		.uleb128 0xb
 2539 007d 0B       		.uleb128 0xb
 2540 007e 49       		.uleb128 0x49
 2541 007f 13       		.uleb128 0x13
 2542 0080 00       		.byte	0
 2543 0081 00       		.byte	0
 2544 0082 0B       		.uleb128 0xb
ARM GAS  /var/folders/c6/c789hm653lg9vtl73krp73tm0000gn/T//ccOmq6Sx.s 			page 69


 2545 0083 13       		.uleb128 0x13
 2546 0084 01       		.byte	0x1
 2547 0085 03       		.uleb128 0x3
 2548 0086 0E       		.uleb128 0xe
 2549 0087 0B       		.uleb128 0xb
 2550 0088 0B       		.uleb128 0xb
 2551 0089 3A       		.uleb128 0x3a
 2552 008a 0B       		.uleb128 0xb
 2553 008b 3B       		.uleb128 0x3b
 2554 008c 05       		.uleb128 0x5
 2555 008d 01       		.uleb128 0x1
 2556 008e 13       		.uleb128 0x13
 2557 008f 00       		.byte	0
 2558 0090 00       		.byte	0
 2559 0091 0C       		.uleb128 0xc
 2560 0092 15       		.uleb128 0x15
 2561 0093 01       		.byte	0x1
 2562 0094 27       		.uleb128 0x27
 2563 0095 19       		.uleb128 0x19
 2564 0096 01       		.uleb128 0x1
 2565 0097 13       		.uleb128 0x13
 2566 0098 00       		.byte	0
 2567 0099 00       		.byte	0
 2568 009a 0D       		.uleb128 0xd
 2569 009b 05       		.uleb128 0x5
 2570 009c 00       		.byte	0
 2571 009d 49       		.uleb128 0x49
 2572 009e 13       		.uleb128 0x13
 2573 009f 00       		.byte	0
 2574 00a0 00       		.byte	0
 2575 00a1 0E       		.uleb128 0xe
 2576 00a2 0F       		.uleb128 0xf
 2577 00a3 00       		.byte	0
 2578 00a4 0B       		.uleb128 0xb
 2579 00a5 0B       		.uleb128 0xb
 2580 00a6 00       		.byte	0
 2581 00a7 00       		.byte	0
 2582 00a8 0F       		.uleb128 0xf
 2583 00a9 13       		.uleb128 0x13
 2584 00aa 01       		.byte	0x1
 2585 00ab 03       		.uleb128 0x3
 2586 00ac 0E       		.uleb128 0xe
 2587 00ad 0B       		.uleb128 0xb
 2588 00ae 05       		.uleb128 0x5
 2589 00af 3A       		.uleb128 0x3a
 2590 00b0 0B       		.uleb128 0xb
 2591 00b1 3B       		.uleb128 0x3b
 2592 00b2 05       		.uleb128 0x5
 2593 00b3 01       		.uleb128 0x1
 2594 00b4 13       		.uleb128 0x13
 2595 00b5 00       		.byte	0
 2596 00b6 00       		.byte	0
 2597 00b7 10       		.uleb128 0x10
 2598 00b8 01       		.uleb128 0x1
 2599 00b9 01       		.byte	0x1
 2600 00ba 49       		.uleb128 0x49
 2601 00bb 13       		.uleb128 0x13
ARM GAS  /var/folders/c6/c789hm653lg9vtl73krp73tm0000gn/T//ccOmq6Sx.s 			page 70


 2602 00bc 01       		.uleb128 0x1
 2603 00bd 13       		.uleb128 0x13
 2604 00be 00       		.byte	0
 2605 00bf 00       		.byte	0
 2606 00c0 11       		.uleb128 0x11
 2607 00c1 21       		.uleb128 0x21
 2608 00c2 00       		.byte	0
 2609 00c3 49       		.uleb128 0x49
 2610 00c4 13       		.uleb128 0x13
 2611 00c5 2F       		.uleb128 0x2f
 2612 00c6 0B       		.uleb128 0xb
 2613 00c7 00       		.byte	0
 2614 00c8 00       		.byte	0
 2615 00c9 12       		.uleb128 0x12
 2616 00ca 13       		.uleb128 0x13
 2617 00cb 01       		.byte	0x1
 2618 00cc 0B       		.uleb128 0xb
 2619 00cd 0B       		.uleb128 0xb
 2620 00ce 3A       		.uleb128 0x3a
 2621 00cf 0B       		.uleb128 0xb
 2622 00d0 3B       		.uleb128 0x3b
 2623 00d1 05       		.uleb128 0x5
 2624 00d2 01       		.uleb128 0x1
 2625 00d3 13       		.uleb128 0x13
 2626 00d4 00       		.byte	0
 2627 00d5 00       		.byte	0
 2628 00d6 13       		.uleb128 0x13
 2629 00d7 16       		.uleb128 0x16
 2630 00d8 00       		.byte	0
 2631 00d9 03       		.uleb128 0x3
 2632 00da 0E       		.uleb128 0xe
 2633 00db 3A       		.uleb128 0x3a
 2634 00dc 0B       		.uleb128 0xb
 2635 00dd 3B       		.uleb128 0x3b
 2636 00de 05       		.uleb128 0x5
 2637 00df 49       		.uleb128 0x49
 2638 00e0 13       		.uleb128 0x13
 2639 00e1 00       		.byte	0
 2640 00e2 00       		.byte	0
 2641 00e3 14       		.uleb128 0x14
 2642 00e4 0D       		.uleb128 0xd
 2643 00e5 00       		.byte	0
 2644 00e6 03       		.uleb128 0x3
 2645 00e7 08       		.uleb128 0x8
 2646 00e8 3A       		.uleb128 0x3a
 2647 00e9 0B       		.uleb128 0xb
 2648 00ea 3B       		.uleb128 0x3b
 2649 00eb 0B       		.uleb128 0xb
 2650 00ec 49       		.uleb128 0x49
 2651 00ed 13       		.uleb128 0x13
 2652 00ee 38       		.uleb128 0x38
 2653 00ef 0B       		.uleb128 0xb
 2654 00f0 00       		.byte	0
 2655 00f1 00       		.byte	0
 2656 00f2 15       		.uleb128 0x15
 2657 00f3 13       		.uleb128 0x13
 2658 00f4 01       		.byte	0x1
ARM GAS  /var/folders/c6/c789hm653lg9vtl73krp73tm0000gn/T//ccOmq6Sx.s 			page 71


 2659 00f5 0B       		.uleb128 0xb
 2660 00f6 0B       		.uleb128 0xb
 2661 00f7 3A       		.uleb128 0x3a
 2662 00f8 0B       		.uleb128 0xb
 2663 00f9 3B       		.uleb128 0x3b
 2664 00fa 0B       		.uleb128 0xb
 2665 00fb 01       		.uleb128 0x1
 2666 00fc 13       		.uleb128 0x13
 2667 00fd 00       		.byte	0
 2668 00fe 00       		.byte	0
 2669 00ff 16       		.uleb128 0x16
 2670 0100 17       		.uleb128 0x17
 2671 0101 01       		.byte	0x1
 2672 0102 0B       		.uleb128 0xb
 2673 0103 0B       		.uleb128 0xb
 2674 0104 3A       		.uleb128 0x3a
 2675 0105 0B       		.uleb128 0xb
 2676 0106 3B       		.uleb128 0x3b
 2677 0107 0B       		.uleb128 0xb
 2678 0108 01       		.uleb128 0x1
 2679 0109 13       		.uleb128 0x13
 2680 010a 00       		.byte	0
 2681 010b 00       		.byte	0
 2682 010c 17       		.uleb128 0x17
 2683 010d 0D       		.uleb128 0xd
 2684 010e 00       		.byte	0
 2685 010f 03       		.uleb128 0x3
 2686 0110 0E       		.uleb128 0xe
 2687 0111 3A       		.uleb128 0x3a
 2688 0112 0B       		.uleb128 0xb
 2689 0113 3B       		.uleb128 0x3b
 2690 0114 05       		.uleb128 0x5
 2691 0115 49       		.uleb128 0x49
 2692 0116 13       		.uleb128 0x13
 2693 0117 00       		.byte	0
 2694 0118 00       		.byte	0
 2695 0119 18       		.uleb128 0x18
 2696 011a 26       		.uleb128 0x26
 2697 011b 00       		.byte	0
 2698 011c 49       		.uleb128 0x49
 2699 011d 13       		.uleb128 0x13
 2700 011e 00       		.byte	0
 2701 011f 00       		.byte	0
 2702 0120 19       		.uleb128 0x19
 2703 0121 0D       		.uleb128 0xd
 2704 0122 00       		.byte	0
 2705 0123 03       		.uleb128 0x3
 2706 0124 08       		.uleb128 0x8
 2707 0125 3A       		.uleb128 0x3a
 2708 0126 0B       		.uleb128 0xb
 2709 0127 3B       		.uleb128 0x3b
 2710 0128 0B       		.uleb128 0xb
 2711 0129 49       		.uleb128 0x49
 2712 012a 13       		.uleb128 0x13
 2713 012b 00       		.byte	0
 2714 012c 00       		.byte	0
 2715 012d 1A       		.uleb128 0x1a
ARM GAS  /var/folders/c6/c789hm653lg9vtl73krp73tm0000gn/T//ccOmq6Sx.s 			page 72


 2716 012e 2E       		.uleb128 0x2e
 2717 012f 01       		.byte	0x1
 2718 0130 03       		.uleb128 0x3
 2719 0131 0E       		.uleb128 0xe
 2720 0132 3A       		.uleb128 0x3a
 2721 0133 0B       		.uleb128 0xb
 2722 0134 3B       		.uleb128 0x3b
 2723 0135 0B       		.uleb128 0xb
 2724 0136 27       		.uleb128 0x27
 2725 0137 19       		.uleb128 0x19
 2726 0138 20       		.uleb128 0x20
 2727 0139 0B       		.uleb128 0xb
 2728 013a 01       		.uleb128 0x1
 2729 013b 13       		.uleb128 0x13
 2730 013c 00       		.byte	0
 2731 013d 00       		.byte	0
 2732 013e 1B       		.uleb128 0x1b
 2733 013f 05       		.uleb128 0x5
 2734 0140 00       		.byte	0
 2735 0141 03       		.uleb128 0x3
 2736 0142 0E       		.uleb128 0xe
 2737 0143 3A       		.uleb128 0x3a
 2738 0144 0B       		.uleb128 0xb
 2739 0145 3B       		.uleb128 0x3b
 2740 0146 0B       		.uleb128 0xb
 2741 0147 49       		.uleb128 0x49
 2742 0148 13       		.uleb128 0x13
 2743 0149 00       		.byte	0
 2744 014a 00       		.byte	0
 2745 014b 1C       		.uleb128 0x1c
 2746 014c 2E       		.uleb128 0x2e
 2747 014d 01       		.byte	0x1
 2748 014e 3F       		.uleb128 0x3f
 2749 014f 19       		.uleb128 0x19
 2750 0150 03       		.uleb128 0x3
 2751 0151 0E       		.uleb128 0xe
 2752 0152 3A       		.uleb128 0x3a
 2753 0153 0B       		.uleb128 0xb
 2754 0154 3B       		.uleb128 0x3b
 2755 0155 0B       		.uleb128 0xb
 2756 0156 27       		.uleb128 0x27
 2757 0157 19       		.uleb128 0x19
 2758 0158 11       		.uleb128 0x11
 2759 0159 01       		.uleb128 0x1
 2760 015a 12       		.uleb128 0x12
 2761 015b 06       		.uleb128 0x6
 2762 015c 40       		.uleb128 0x40
 2763 015d 18       		.uleb128 0x18
 2764 015e 9742     		.uleb128 0x2117
 2765 0160 19       		.uleb128 0x19
 2766 0161 01       		.uleb128 0x1
 2767 0162 13       		.uleb128 0x13
 2768 0163 00       		.byte	0
 2769 0164 00       		.byte	0
 2770 0165 1D       		.uleb128 0x1d
 2771 0166 05       		.uleb128 0x5
 2772 0167 00       		.byte	0
ARM GAS  /var/folders/c6/c789hm653lg9vtl73krp73tm0000gn/T//ccOmq6Sx.s 			page 73


 2773 0168 03       		.uleb128 0x3
 2774 0169 0E       		.uleb128 0xe
 2775 016a 3A       		.uleb128 0x3a
 2776 016b 0B       		.uleb128 0xb
 2777 016c 3B       		.uleb128 0x3b
 2778 016d 0B       		.uleb128 0xb
 2779 016e 49       		.uleb128 0x49
 2780 016f 13       		.uleb128 0x13
 2781 0170 02       		.uleb128 0x2
 2782 0171 18       		.uleb128 0x18
 2783 0172 00       		.byte	0
 2784 0173 00       		.byte	0
 2785 0174 1E       		.uleb128 0x1e
 2786 0175 1D       		.uleb128 0x1d
 2787 0176 01       		.byte	0x1
 2788 0177 31       		.uleb128 0x31
 2789 0178 13       		.uleb128 0x13
 2790 0179 52       		.uleb128 0x52
 2791 017a 01       		.uleb128 0x1
 2792 017b 55       		.uleb128 0x55
 2793 017c 17       		.uleb128 0x17
 2794 017d 58       		.uleb128 0x58
 2795 017e 0B       		.uleb128 0xb
 2796 017f 59       		.uleb128 0x59
 2797 0180 0B       		.uleb128 0xb
 2798 0181 01       		.uleb128 0x1
 2799 0182 13       		.uleb128 0x13
 2800 0183 00       		.byte	0
 2801 0184 00       		.byte	0
 2802 0185 1F       		.uleb128 0x1f
 2803 0186 05       		.uleb128 0x5
 2804 0187 00       		.byte	0
 2805 0188 31       		.uleb128 0x31
 2806 0189 13       		.uleb128 0x13
 2807 018a 02       		.uleb128 0x2
 2808 018b 18       		.uleb128 0x18
 2809 018c 00       		.byte	0
 2810 018d 00       		.byte	0
 2811 018e 20       		.uleb128 0x20
 2812 018f 05       		.uleb128 0x5
 2813 0190 00       		.byte	0
 2814 0191 31       		.uleb128 0x31
 2815 0192 13       		.uleb128 0x13
 2816 0193 1C       		.uleb128 0x1c
 2817 0194 06       		.uleb128 0x6
 2818 0195 00       		.byte	0
 2819 0196 00       		.byte	0
 2820 0197 21       		.uleb128 0x21
 2821 0198 1D       		.uleb128 0x1d
 2822 0199 01       		.byte	0x1
 2823 019a 31       		.uleb128 0x31
 2824 019b 13       		.uleb128 0x13
 2825 019c 11       		.uleb128 0x11
 2826 019d 01       		.uleb128 0x1
 2827 019e 12       		.uleb128 0x12
 2828 019f 06       		.uleb128 0x6
 2829 01a0 58       		.uleb128 0x58
ARM GAS  /var/folders/c6/c789hm653lg9vtl73krp73tm0000gn/T//ccOmq6Sx.s 			page 74


 2830 01a1 0B       		.uleb128 0xb
 2831 01a2 59       		.uleb128 0x59
 2832 01a3 0B       		.uleb128 0xb
 2833 01a4 00       		.byte	0
 2834 01a5 00       		.byte	0
 2835 01a6 22       		.uleb128 0x22
 2836 01a7 05       		.uleb128 0x5
 2837 01a8 00       		.byte	0
 2838 01a9 03       		.uleb128 0x3
 2839 01aa 0E       		.uleb128 0xe
 2840 01ab 3A       		.uleb128 0x3a
 2841 01ac 0B       		.uleb128 0xb
 2842 01ad 3B       		.uleb128 0x3b
 2843 01ae 0B       		.uleb128 0xb
 2844 01af 49       		.uleb128 0x49
 2845 01b0 13       		.uleb128 0x13
 2846 01b1 02       		.uleb128 0x2
 2847 01b2 17       		.uleb128 0x17
 2848 01b3 00       		.byte	0
 2849 01b4 00       		.byte	0
 2850 01b5 23       		.uleb128 0x23
 2851 01b6 34       		.uleb128 0x34
 2852 01b7 00       		.byte	0
 2853 01b8 03       		.uleb128 0x3
 2854 01b9 0E       		.uleb128 0xe
 2855 01ba 3A       		.uleb128 0x3a
 2856 01bb 0B       		.uleb128 0xb
 2857 01bc 3B       		.uleb128 0x3b
 2858 01bd 0B       		.uleb128 0xb
 2859 01be 49       		.uleb128 0x49
 2860 01bf 13       		.uleb128 0x13
 2861 01c0 02       		.uleb128 0x2
 2862 01c1 17       		.uleb128 0x17
 2863 01c2 00       		.byte	0
 2864 01c3 00       		.byte	0
 2865 01c4 24       		.uleb128 0x24
 2866 01c5 34       		.uleb128 0x34
 2867 01c6 00       		.byte	0
 2868 01c7 03       		.uleb128 0x3
 2869 01c8 0E       		.uleb128 0xe
 2870 01c9 3A       		.uleb128 0x3a
 2871 01ca 0B       		.uleb128 0xb
 2872 01cb 3B       		.uleb128 0x3b
 2873 01cc 0B       		.uleb128 0xb
 2874 01cd 49       		.uleb128 0x49
 2875 01ce 13       		.uleb128 0x13
 2876 01cf 02       		.uleb128 0x2
 2877 01d0 18       		.uleb128 0x18
 2878 01d1 00       		.byte	0
 2879 01d2 00       		.byte	0
 2880 01d3 25       		.uleb128 0x25
 2881 01d4 34       		.uleb128 0x34
 2882 01d5 00       		.byte	0
 2883 01d6 03       		.uleb128 0x3
 2884 01d7 08       		.uleb128 0x8
 2885 01d8 3A       		.uleb128 0x3a
 2886 01d9 0B       		.uleb128 0xb
ARM GAS  /var/folders/c6/c789hm653lg9vtl73krp73tm0000gn/T//ccOmq6Sx.s 			page 75


 2887 01da 3B       		.uleb128 0x3b
 2888 01db 0B       		.uleb128 0xb
 2889 01dc 49       		.uleb128 0x49
 2890 01dd 13       		.uleb128 0x13
 2891 01de 02       		.uleb128 0x2
 2892 01df 17       		.uleb128 0x17
 2893 01e0 00       		.byte	0
 2894 01e1 00       		.byte	0
 2895 01e2 26       		.uleb128 0x26
 2896 01e3 0B       		.uleb128 0xb
 2897 01e4 01       		.byte	0x1
 2898 01e5 55       		.uleb128 0x55
 2899 01e6 17       		.uleb128 0x17
 2900 01e7 00       		.byte	0
 2901 01e8 00       		.byte	0
 2902 01e9 27       		.uleb128 0x27
 2903 01ea 34       		.uleb128 0x34
 2904 01eb 00       		.byte	0
 2905 01ec 03       		.uleb128 0x3
 2906 01ed 0E       		.uleb128 0xe
 2907 01ee 3A       		.uleb128 0x3a
 2908 01ef 0B       		.uleb128 0xb
 2909 01f0 3B       		.uleb128 0x3b
 2910 01f1 05       		.uleb128 0x5
 2911 01f2 49       		.uleb128 0x49
 2912 01f3 13       		.uleb128 0x13
 2913 01f4 3F       		.uleb128 0x3f
 2914 01f5 19       		.uleb128 0x19
 2915 01f6 3C       		.uleb128 0x3c
 2916 01f7 19       		.uleb128 0x19
 2917 01f8 00       		.byte	0
 2918 01f9 00       		.byte	0
 2919 01fa 28       		.uleb128 0x28
 2920 01fb 34       		.uleb128 0x34
 2921 01fc 00       		.byte	0
 2922 01fd 03       		.uleb128 0x3
 2923 01fe 08       		.uleb128 0x8
 2924 01ff 3A       		.uleb128 0x3a
 2925 0200 0B       		.uleb128 0xb
 2926 0201 3B       		.uleb128 0x3b
 2927 0202 05       		.uleb128 0x5
 2928 0203 49       		.uleb128 0x49
 2929 0204 13       		.uleb128 0x13
 2930 0205 3F       		.uleb128 0x3f
 2931 0206 19       		.uleb128 0x19
 2932 0207 3C       		.uleb128 0x3c
 2933 0208 19       		.uleb128 0x19
 2934 0209 00       		.byte	0
 2935 020a 00       		.byte	0
 2936 020b 00       		.byte	0
 2937              		.section	.debug_loc,"",%progbits
 2938              	.Ldebug_loc0:
 2939              	.LLST0:
 2940 0000 00000000 		.4byte	.LVL10
 2941 0004 88000000 		.4byte	.LVL24
 2942 0008 0100     		.2byte	0x1
 2943 000a 51       		.byte	0x51
ARM GAS  /var/folders/c6/c789hm653lg9vtl73krp73tm0000gn/T//ccOmq6Sx.s 			page 76


 2944 000b 88000000 		.4byte	.LVL24
 2945 000f 8A000000 		.4byte	.LVL25
 2946 0013 0500     		.2byte	0x5
 2947 0015 71       		.byte	0x71
 2948 0016 00       		.sleb128 0
 2949 0017 31       		.byte	0x31
 2950 0018 25       		.byte	0x25
 2951 0019 9F       		.byte	0x9f
 2952 001a 8A000000 		.4byte	.LVL25
 2953 001e C8000000 		.4byte	.LFE262
 2954 0022 0100     		.2byte	0x1
 2955 0024 51       		.byte	0x51
 2956 0025 00000000 		.4byte	0
 2957 0029 00000000 		.4byte	0
 2958              	.LLST1:
 2959 002d 00000000 		.4byte	.LVL10
 2960 0031 1E000000 		.4byte	.LVL15
 2961 0035 0100     		.2byte	0x1
 2962 0037 52       		.byte	0x52
 2963 0038 1E000000 		.4byte	.LVL15
 2964 003c C8000000 		.4byte	.LFE262
 2965 0040 0400     		.2byte	0x4
 2966 0042 F3       		.byte	0xf3
 2967 0043 01       		.uleb128 0x1
 2968 0044 52       		.byte	0x52
 2969 0045 9F       		.byte	0x9f
 2970 0046 00000000 		.4byte	0
 2971 004a 00000000 		.4byte	0
 2972              	.LLST2:
 2973 004e 0A000000 		.4byte	.LVL11
 2974 0052 C6000000 		.4byte	.LVL35
 2975 0056 0100     		.2byte	0x1
 2976 0058 57       		.byte	0x57
 2977 0059 00000000 		.4byte	0
 2978 005d 00000000 		.4byte	0
 2979              	.LLST3:
 2980 0061 0E000000 		.4byte	.LVL12
 2981 0065 C6000000 		.4byte	.LVL35
 2982 0069 0100     		.2byte	0x1
 2983 006b 56       		.byte	0x56
 2984 006c 00000000 		.4byte	0
 2985 0070 00000000 		.4byte	0
 2986              	.LLST4:
 2987 0074 12000000 		.4byte	.LVL13
 2988 0078 C6000000 		.4byte	.LVL35
 2989 007c 0100     		.2byte	0x1
 2990 007e 55       		.byte	0x55
 2991 007f 00000000 		.4byte	0
 2992 0083 00000000 		.4byte	0
 2993              	.LLST5:
 2994 0087 16000000 		.4byte	.LVL14
 2995 008b C6000000 		.4byte	.LVL35
 2996 008f 0100     		.2byte	0x1
 2997 0091 54       		.byte	0x54
 2998 0092 00000000 		.4byte	0
 2999 0096 00000000 		.4byte	0
 3000              	.LLST6:
ARM GAS  /var/folders/c6/c789hm653lg9vtl73krp73tm0000gn/T//ccOmq6Sx.s 			page 77


 3001 009a 1E000000 		.4byte	.LVL15
 3002 009e 24000000 		.4byte	.LVL16
 3003 00a2 0200     		.2byte	0x2
 3004 00a4 30       		.byte	0x30
 3005 00a5 9F       		.byte	0x9f
 3006 00a6 24000000 		.4byte	.LVL16
 3007 00aa C8000000 		.4byte	.LFE262
 3008 00ae 0100     		.2byte	0x1
 3009 00b0 53       		.byte	0x53
 3010 00b1 00000000 		.4byte	0
 3011 00b5 00000000 		.4byte	0
 3012              	.LLST7:
 3013 00b9 24000000 		.4byte	.LVL16
 3014 00bd 30000000 		.4byte	.LVL18
 3015 00c1 0100     		.2byte	0x1
 3016 00c3 58       		.byte	0x58
 3017 00c4 30000000 		.4byte	.LVL18
 3018 00c8 96000000 		.4byte	.LVL30
 3019 00cc 0A00     		.2byte	0xa
 3020 00ce 72       		.byte	0x72
 3021 00cf 00       		.sleb128 0
 3022 00d0 73       		.byte	0x73
 3023 00d1 00       		.sleb128 0
 3024 00d2 37       		.byte	0x37
 3025 00d3 1A       		.byte	0x1a
 3026 00d4 32       		.byte	0x32
 3027 00d5 24       		.byte	0x24
 3028 00d6 24       		.byte	0x24
 3029 00d7 9F       		.byte	0x9f
 3030 00d8 A6000000 		.4byte	.LVL31
 3031 00dc BC000000 		.4byte	.LVL34
 3032 00e0 0100     		.2byte	0x1
 3033 00e2 58       		.byte	0x58
 3034 00e3 BC000000 		.4byte	.LVL34
 3035 00e7 C8000000 		.4byte	.LFE262
 3036 00eb 0A00     		.2byte	0xa
 3037 00ed 72       		.byte	0x72
 3038 00ee 00       		.sleb128 0
 3039 00ef 73       		.byte	0x73
 3040 00f0 00       		.sleb128 0
 3041 00f1 37       		.byte	0x37
 3042 00f2 1A       		.byte	0x1a
 3043 00f3 32       		.byte	0x32
 3044 00f4 24       		.byte	0x24
 3045 00f5 24       		.byte	0x24
 3046 00f6 9F       		.byte	0x9f
 3047 00f7 00000000 		.4byte	0
 3048 00fb 00000000 		.4byte	0
 3049              	.LLST8:
 3050 00ff 34000000 		.4byte	.LVL19
 3051 0103 88000000 		.4byte	.LVL24
 3052 0107 0500     		.2byte	0x5
 3053 0109 31       		.byte	0x31
 3054 010a 73       		.byte	0x73
 3055 010b 00       		.sleb128 0
 3056 010c 24       		.byte	0x24
 3057 010d 9F       		.byte	0x9f
ARM GAS  /var/folders/c6/c789hm653lg9vtl73krp73tm0000gn/T//ccOmq6Sx.s 			page 78


 3058 010e 00000000 		.4byte	0
 3059 0112 00000000 		.4byte	0
 3060              	.LLST9:
 3061 0116 48000000 		.4byte	.LVL20
 3062 011a 58000000 		.4byte	.LVL21
 3063 011e 0700     		.2byte	0x7
 3064 0120 33       		.byte	0x33
 3065 0121 73       		.byte	0x73
 3066 0122 00       		.sleb128 0
 3067 0123 31       		.byte	0x31
 3068 0124 24       		.byte	0x24
 3069 0125 24       		.byte	0x24
 3070 0126 9F       		.byte	0x9f
 3071 0127 58000000 		.4byte	.LVL21
 3072 012b 5C000000 		.4byte	.LVL22
 3073 012f 0100     		.2byte	0x1
 3074 0131 5C       		.byte	0x5c
 3075 0132 5C000000 		.4byte	.LVL22
 3076 0136 80000000 		.4byte	.LVL23
 3077 013a 0400     		.2byte	0x4
 3078 013c 7C       		.byte	0x7c
 3079 013d 00       		.sleb128 0
 3080 013e 20       		.byte	0x20
 3081 013f 9F       		.byte	0x9f
 3082 0140 80000000 		.4byte	.LVL23
 3083 0144 88000000 		.4byte	.LVL24
 3084 0148 0700     		.2byte	0x7
 3085 014a 33       		.byte	0x33
 3086 014b 73       		.byte	0x73
 3087 014c 00       		.sleb128 0
 3088 014d 31       		.byte	0x31
 3089 014e 24       		.byte	0x24
 3090 014f 24       		.byte	0x24
 3091 0150 9F       		.byte	0x9f
 3092 0151 00000000 		.4byte	0
 3093 0155 00000000 		.4byte	0
 3094              	.LLST10:
 3095 0159 24000000 		.4byte	.LVL16
 3096 015d 2C000000 		.4byte	.LVL17
 3097 0161 0100     		.2byte	0x1
 3098 0163 5C       		.byte	0x5c
 3099 0164 2C000000 		.4byte	.LVL17
 3100 0168 96000000 		.4byte	.LVL30
 3101 016c 0A00     		.2byte	0xa
 3102 016e 79       		.byte	0x79
 3103 016f 00       		.sleb128 0
 3104 0170 73       		.byte	0x73
 3105 0171 00       		.sleb128 0
 3106 0172 37       		.byte	0x37
 3107 0173 1A       		.byte	0x1a
 3108 0174 32       		.byte	0x32
 3109 0175 24       		.byte	0x24
 3110 0176 24       		.byte	0x24
 3111 0177 9F       		.byte	0x9f
 3112 0178 AA000000 		.4byte	.LVL32
 3113 017c B8000000 		.4byte	.LVL33
 3114 0180 0100     		.2byte	0x1
ARM GAS  /var/folders/c6/c789hm653lg9vtl73krp73tm0000gn/T//ccOmq6Sx.s 			page 79


 3115 0182 5C       		.byte	0x5c
 3116 0183 B8000000 		.4byte	.LVL33
 3117 0187 C6000000 		.4byte	.LVL35
 3118 018b 0A00     		.2byte	0xa
 3119 018d 79       		.byte	0x79
 3120 018e 00       		.sleb128 0
 3121 018f 73       		.byte	0x73
 3122 0190 00       		.sleb128 0
 3123 0191 37       		.byte	0x37
 3124 0192 1A       		.byte	0x1a
 3125 0193 32       		.byte	0x32
 3126 0194 24       		.byte	0x24
 3127 0195 24       		.byte	0x24
 3128 0196 9F       		.byte	0x9f
 3129 0197 C6000000 		.4byte	.LVL35
 3130 019b C8000000 		.4byte	.LFE262
 3131 019f 0900     		.2byte	0x9
 3132 01a1 3F       		.byte	0x3f
 3133 01a2 73       		.byte	0x73
 3134 01a3 00       		.sleb128 0
 3135 01a4 37       		.byte	0x37
 3136 01a5 1A       		.byte	0x1a
 3137 01a6 32       		.byte	0x32
 3138 01a7 24       		.byte	0x24
 3139 01a8 24       		.byte	0x24
 3140 01a9 9F       		.byte	0x9f
 3141 01aa 00000000 		.4byte	0
 3142 01ae 00000000 		.4byte	0
 3143              		.section	.debug_aranges,"",%progbits
 3144 0000 24000000 		.4byte	0x24
 3145 0004 0200     		.2byte	0x2
 3146 0006 00000000 		.4byte	.Ldebug_info0
 3147 000a 04       		.byte	0x4
 3148 000b 00       		.byte	0
 3149 000c 0000     		.2byte	0
 3150 000e 0000     		.2byte	0
 3151 0010 00000000 		.4byte	.LFB261
 3152 0014 C0010000 		.4byte	.LFE261-.LFB261
 3153 0018 00000000 		.4byte	.LFB262
 3154 001c C8000000 		.4byte	.LFE262-.LFB262
 3155 0020 00000000 		.4byte	0
 3156 0024 00000000 		.4byte	0
 3157              		.section	.debug_ranges,"",%progbits
 3158              	.Ldebug_ranges0:
 3159 0000 08000000 		.4byte	.LBB20
 3160 0004 0C000000 		.4byte	.LBE20
 3161 0008 38000000 		.4byte	.LBB44
 3162 000c 62000000 		.4byte	.LBE44
 3163 0010 00000000 		.4byte	0
 3164 0014 00000000 		.4byte	0
 3165 0018 10000000 		.4byte	.LBB23
 3166 001c 14000000 		.4byte	.LBE23
 3167 0020 62000000 		.4byte	.LBB45
 3168 0024 8C000000 		.4byte	.LBE45
 3169 0028 00000000 		.4byte	0
 3170 002c 00000000 		.4byte	0
 3171 0030 14000000 		.4byte	.LBB26
ARM GAS  /var/folders/c6/c789hm653lg9vtl73krp73tm0000gn/T//ccOmq6Sx.s 			page 80


 3172 0034 16000000 		.4byte	.LBE26
 3173 0038 8C000000 		.4byte	.LBB46
 3174 003c A8000000 		.4byte	.LBE46
 3175 0040 00000000 		.4byte	0
 3176 0044 00000000 		.4byte	0
 3177 0048 16000000 		.4byte	.LBB29
 3178 004c 18000000 		.4byte	.LBE29
 3179 0050 A8000000 		.4byte	.LBB47
 3180 0054 C4000000 		.4byte	.LBE47
 3181 0058 00000000 		.4byte	0
 3182 005c 00000000 		.4byte	0
 3183 0060 18000000 		.4byte	.LBB32
 3184 0064 1A000000 		.4byte	.LBE32
 3185 0068 C4000000 		.4byte	.LBB48
 3186 006c E6000000 		.4byte	.LBE48
 3187 0070 00000000 		.4byte	0
 3188 0074 00000000 		.4byte	0
 3189 0078 1A000000 		.4byte	.LBB35
 3190 007c 1C000000 		.4byte	.LBE35
 3191 0080 E6000000 		.4byte	.LBB49
 3192 0084 10010000 		.4byte	.LBE49
 3193 0088 00000000 		.4byte	0
 3194 008c 00000000 		.4byte	0
 3195 0090 1C000000 		.4byte	.LBB38
 3196 0094 1E000000 		.4byte	.LBE38
 3197 0098 10010000 		.4byte	.LBB50
 3198 009c 3A010000 		.4byte	.LBE50
 3199 00a0 00000000 		.4byte	0
 3200 00a4 00000000 		.4byte	0
 3201 00a8 1E000000 		.4byte	.LBB41
 3202 00ac 20000000 		.4byte	.LBE41
 3203 00b0 3A010000 		.4byte	.LBB51
 3204 00b4 64010000 		.4byte	.LBE51
 3205 00b8 00000000 		.4byte	0
 3206 00bc 00000000 		.4byte	0
 3207 00c0 16000000 		.4byte	.LBB54
 3208 00c4 1A000000 		.4byte	.LBE54
 3209 00c8 1E000000 		.4byte	.LBB55
 3210 00cc 88000000 		.4byte	.LBE55
 3211 00d0 96000000 		.4byte	.LBB56
 3212 00d4 9E000000 		.4byte	.LBE56
 3213 00d8 A2000000 		.4byte	.LBB57
 3214 00dc AA000000 		.4byte	.LBE57
 3215 00e0 AC000000 		.4byte	.LBB58
 3216 00e4 C2000000 		.4byte	.LBE58
 3217 00e8 00000000 		.4byte	0
 3218 00ec 00000000 		.4byte	0
 3219 00f0 00000000 		.4byte	.LFB261
 3220 00f4 C0010000 		.4byte	.LFE261
 3221 00f8 00000000 		.4byte	.LFB262
 3222 00fc C8000000 		.4byte	.LFE262
 3223 0100 00000000 		.4byte	0
 3224 0104 00000000 		.4byte	0
 3225              		.section	.debug_line,"",%progbits
 3226              	.Ldebug_line0:
 3227 0000 CD020000 		.section	.debug_str,"MS",%progbits,1
 3227      02001A02 
ARM GAS  /var/folders/c6/c789hm653lg9vtl73krp73tm0000gn/T//ccOmq6Sx.s 			page 81


 3227      00000201 
 3227      FB0E0D00 
 3227      01010101 
 3228              	.LASF148:
 3229 0000 73746D33 		.ascii	"stm32_gpio_setup_t\000"
 3229      325F6770 
 3229      696F5F73 
 3229      65747570 
 3229      5F7400
 3230              	.LASF52:
 3231 0013 72656164 		.ascii	"ready_list_t\000"
 3231      795F6C69 
 3231      73745F74 
 3231      00
 3232              	.LASF118:
 3233 0020 77747472 		.ascii	"wttrp\000"
 3233      7000
 3234              	.LASF115:
 3235 0026 7264796D 		.ascii	"rdymsg\000"
 3235      736700
 3236              	.LASF18:
 3237 002d 75696E74 		.ascii	"uint64_t\000"
 3237      36345F74 
 3237      00
 3238              	.LASF4:
 3239 0036 5F5F7569 		.ascii	"__uint8_t\000"
 3239      6E74385F 
 3239      7400
 3240              	.LASF134:
 3241 0040 4F545950 		.ascii	"OTYPER\000"
 3241      455200
 3242              	.LASF112:
 3243 0047 706F7274 		.ascii	"port_intctx\000"
 3243      5F696E74 
 3243      63747800 
 3244              	.LASF71:
 3245 0053 73797374 		.ascii	"system_debug_t\000"
 3245      656D5F64 
 3245      65627567 
 3245      5F7400
 3246              	.LASF159:
 3247 0062 696F706F 		.ascii	"ioportmask_t\000"
 3247      72746D61 
 3247      736B5F74 
 3247      00
 3248              	.LASF156:
 3249 006f 50484461 		.ascii	"PHData\000"
 3249      746100
 3250              	.LASF133:
 3251 0076 4D4F4445 		.ascii	"MODER\000"
 3251      5200
 3252              	.LASF13:
 3253 007c 6C6F6E67 		.ascii	"long long unsigned int\000"
 3253      206C6F6E 
 3253      6720756E 
 3253      7369676E 
 3253      65642069 
ARM GAS  /var/folders/c6/c789hm653lg9vtl73krp73tm0000gn/T//ccOmq6Sx.s 			page 82


 3254              	.LASF136:
 3255 0093 50555044 		.ascii	"PUPDR\000"
 3255      5200
 3256              	.LASF116:
 3257 0099 65786974 		.ascii	"exitcode\000"
 3257      636F6465 
 3257      00
 3258              	.LASF78:
 3259 00a2 6D61696E 		.ascii	"mainthread\000"
 3259      74687265 
 3259      616400
 3260              	.LASF68:
 3261 00ad 76697274 		.ascii	"virtual_timers_list_t\000"
 3261      75616C5F 
 3261      74696D65 
 3261      72735F6C 
 3261      6973745F 
 3262              	.LASF171:
 3263 00c3 49544D5F 		.ascii	"ITM_RxBuffer\000"
 3263      52784275 
 3263      66666572 
 3263      00
 3264              	.LASF51:
 3265 00d0 63685F74 		.ascii	"ch_threads_queue\000"
 3265      68726561 
 3265      64735F71 
 3265      75657565 
 3265      00
 3266              	.LASF97:
 3267 00e1 41484231 		.ascii	"AHB1LPENR\000"
 3267      4C50454E 
 3267      5200
 3268              	.LASF31:
 3269 00eb 705F7072 		.ascii	"p_prio\000"
 3269      696F00
 3270              	.LASF11:
 3271 00f2 6C6F6E67 		.ascii	"long long int\000"
 3271      206C6F6E 
 3271      6720696E 
 3271      7400
 3272              	.LASF1:
 3273 0100 7369676E 		.ascii	"signed char\000"
 3273      65642063 
 3273      68617200 
 3274              	.LASF137:
 3275 010c 42535252 		.ascii	"BSRR\000"
 3275      00
 3276              	.LASF83:
 3277 0111 41484231 		.ascii	"AHB1RSTR\000"
 3277      52535452 
 3277      00
 3278              	.LASF45:
 3279 011a 705F6D70 		.ascii	"p_mpool\000"
 3279      6F6F6C00 
 3280              	.LASF126:
 3281 0122 6D5F7175 		.ascii	"m_queue\000"
 3281      65756500 
ARM GAS  /var/folders/c6/c789hm653lg9vtl73krp73tm0000gn/T//ccOmq6Sx.s 			page 83


 3282              	.LASF142:
 3283 012a 6D6F6465 		.ascii	"moder\000"
 3283      7200
 3284              	.LASF108:
 3285 0130 5243435F 		.ascii	"RCC_TypeDef\000"
 3285      54797065 
 3285      44656600 
 3286              	.LASF75:
 3287 013c 63685F73 		.ascii	"ch_system\000"
 3287      79737465 
 3287      6D00
 3288              	.LASF8:
 3289 0146 6C6F6E67 		.ascii	"long int\000"
 3289      20696E74 
 3289      00
 3290              	.LASF153:
 3291 014f 50454461 		.ascii	"PEData\000"
 3291      746100
 3292              	.LASF88:
 3293 0156 41504232 		.ascii	"APB2RSTR\000"
 3293      52535452 
 3293      00
 3294              	.LASF101:
 3295 015f 41504231 		.ascii	"APB1LPENR\000"
 3295      4C50454E 
 3295      5200
 3296              	.LASF21:
 3297 0169 74737461 		.ascii	"tstate_t\000"
 3297      74655F74 
 3297      00
 3298              	.LASF15:
 3299 0172 75696E74 		.ascii	"uint16_t\000"
 3299      31365F74 
 3299      00
 3300              	.LASF170:
 3301 017b 616C7472 		.ascii	"altrmask\000"
 3301      6D61736B 
 3301      00
 3302              	.LASF33:
 3303 0184 705F6E65 		.ascii	"p_newer\000"
 3303      77657200 
 3304              	.LASF81:
 3305 018c 504C4C43 		.ascii	"PLLCFGR\000"
 3305      46475200 
 3306              	.LASF135:
 3307 0194 4F535045 		.ascii	"OSPEEDR\000"
 3307      45445200 
 3308              	.LASF57:
 3309 019c 725F6E65 		.ascii	"r_newer\000"
 3309      77657200 
 3310              	.LASF167:
 3311 01a4 6D61736B 		.ascii	"mask\000"
 3311      00
 3312              	.LASF109:
 3313 01a9 72656761 		.ascii	"regarm_t\000"
 3313      726D5F74 
 3313      00
ARM GAS  /var/folders/c6/c789hm653lg9vtl73krp73tm0000gn/T//ccOmq6Sx.s 			page 84


 3314              	.LASF64:
 3315 01b2 76745F70 		.ascii	"vt_prev\000"
 3315      72657600 
 3316              	.LASF77:
 3317 01ba 76746C69 		.ascii	"vtlist\000"
 3317      737400
 3318              	.LASF141:
 3319 01c1 73746D33 		.ascii	"stm32_gpio_t\000"
 3319      325F6770 
 3319      696F5F74 
 3319      00
 3320              	.LASF166:
 3321 01ce 706F7274 		.ascii	"port\000"
 3321      00
 3322              	.LASF130:
 3323 01d3 6D757465 		.ascii	"mutex_t\000"
 3323      785F7400 
 3324              	.LASF150:
 3325 01db 50424461 		.ascii	"PBData\000"
 3325      746100
 3326              	.LASF79:
 3327 01e2 69646C65 		.ascii	"idle_thread_wa\000"
 3327      5F746872 
 3327      6561645F 
 3327      776100
 3328              	.LASF26:
 3329 01f1 636E745F 		.ascii	"cnt_t\000"
 3329      7400
 3330              	.LASF0:
 3331 01f7 756E7369 		.ascii	"unsigned int\000"
 3331      676E6564 
 3331      20696E74 
 3331      00
 3332              	.LASF63:
 3333 0204 76745F6E 		.ascii	"vt_next\000"
 3333      65787400 
 3334              	.LASF119:
 3335 020c 77747365 		.ascii	"wtsemp\000"
 3335      6D7000
 3336              	.LASF40:
 3337 0213 705F6D73 		.ascii	"p_msgqueue\000"
 3337      67717565 
 3337      756500
 3338              	.LASF144:
 3339 021e 6F737065 		.ascii	"ospeedr\000"
 3339      65647200 
 3340              	.LASF138:
 3341 0226 4C434B52 		.ascii	"LCKR\000"
 3341      00
 3342              	.LASF143:
 3343 022b 6F747970 		.ascii	"otyper\000"
 3343      657200
 3344              	.LASF6:
 3345 0232 73686F72 		.ascii	"short unsigned int\000"
 3345      7420756E 
 3345      7369676E 
 3345      65642069 
ARM GAS  /var/folders/c6/c789hm653lg9vtl73krp73tm0000gn/T//ccOmq6Sx.s 			page 85


 3345      6E7400
 3346              	.LASF154:
 3347 0245 50464461 		.ascii	"PFData\000"
 3347      746100
 3348              	.LASF48:
 3349 024c 63685F74 		.ascii	"ch_thread\000"
 3349      68726561 
 3349      6400
 3350              	.LASF107:
 3351 0256 504C4C49 		.ascii	"PLLI2SCFGR\000"
 3351      32534346 
 3351      475200
 3352              	.LASF24:
 3353 0261 6D73675F 		.ascii	"msg_t\000"
 3353      7400
 3354              	.LASF85:
 3355 0267 41484233 		.ascii	"AHB3RSTR\000"
 3355      52535452 
 3355      00
 3356              	.LASF74:
 3357 0270 63685F73 		.ascii	"ch_system_t\000"
 3357      79737465 
 3357      6D5F7400 
 3358              	.LASF20:
 3359 027c 746D6F64 		.ascii	"tmode_t\000"
 3359      655F7400 
 3360              	.LASF102:
 3361 0284 41504232 		.ascii	"APB2LPENR\000"
 3361      4C50454E 
 3361      5200
 3362              	.LASF53:
 3363 028e 63685F72 		.ascii	"ch_ready_list\000"
 3363      65616479 
 3363      5F6C6973 
 3363      7400
 3364              	.LASF25:
 3365 029c 6576656E 		.ascii	"eventmask_t\000"
 3365      746D6173 
 3365      6B5F7400 
 3366              	.LASF7:
 3367 02a8 5F5F696E 		.ascii	"__int32_t\000"
 3367      7433325F 
 3367      7400
 3368              	.LASF155:
 3369 02b2 50474461 		.ascii	"PGData\000"
 3369      746100
 3370              	.LASF110:
 3371 02b9 73746B61 		.ascii	"stkalign_t\000"
 3371      6C69676E 
 3371      5F7400
 3372              	.LASF47:
 3373 02c4 74687265 		.ascii	"threads_list_t\000"
 3373      6164735F 
 3373      6C697374 
 3373      5F7400
 3374              	.LASF61:
 3375 02d3 76697274 		.ascii	"virtual_timer_t\000"
ARM GAS  /var/folders/c6/c789hm653lg9vtl73krp73tm0000gn/T//ccOmq6Sx.s 			page 86


 3375      75616C5F 
 3375      74696D65 
 3375      725F7400 
 3376              	.LASF39:
 3377 02e3 705F7761 		.ascii	"p_waiting\000"
 3377      6974696E 
 3377      6700
 3378              	.LASF80:
 3379 02ed 73697A65 		.ascii	"sizetype\000"
 3379      74797065 
 3379      00
 3380              	.LASF46:
 3381 02f6 74687265 		.ascii	"thread_reference_t\000"
 3381      61645F72 
 3381      65666572 
 3381      656E6365 
 3381      5F7400
 3382              	.LASF69:
 3383 0309 63685F76 		.ascii	"ch_virtual_timers_list\000"
 3383      69727475 
 3383      616C5F74 
 3383      696D6572 
 3383      735F6C69 
 3384              	.LASF132:
 3385 0320 636C6561 		.ascii	"clear\000"
 3385      7200
 3386              	.LASF29:
 3387 0326 705F6E65 		.ascii	"p_next\000"
 3387      787400
 3388              	.LASF92:
 3389 032d 41484233 		.ascii	"AHB3ENR\000"
 3389      454E5200 
 3390              	.LASF70:
 3391 0335 76745F6C 		.ascii	"vt_lasttime\000"
 3391      61737474 
 3391      696D6500 
 3392              	.LASF34:
 3393 0341 705F6F6C 		.ascii	"p_older\000"
 3393      64657200 
 3394              	.LASF56:
 3395 0349 725F6374 		.ascii	"r_ctx\000"
 3395      7800
 3396              	.LASF98:
 3397 034f 41484232 		.ascii	"AHB2LPENR\000"
 3397      4C50454E 
 3397      5200
 3398              	.LASF114:
 3399 0359 746D5F63 		.ascii	"tm_calibration_t\000"
 3399      616C6962 
 3399      72617469 
 3399      6F6E5F74 
 3399      00
 3400              	.LASF147:
 3401 036a 61667268 		.ascii	"afrh\000"
 3401      00
 3402              	.LASF152:
 3403 036f 50444461 		.ascii	"PDData\000"
ARM GAS  /var/folders/c6/c789hm653lg9vtl73krp73tm0000gn/T//ccOmq6Sx.s 			page 87


 3403      746100
 3404              	.LASF59:
 3405 0376 725F6375 		.ascii	"r_current\000"
 3405      7272656E 
 3405      7400
 3406              	.LASF87:
 3407 0380 41504231 		.ascii	"APB1RSTR\000"
 3407      52535452 
 3407      00
 3408              	.LASF12:
 3409 0389 5F5F7569 		.ascii	"__uint64_t\000"
 3409      6E743634 
 3409      5F7400
 3410              	.LASF140:
 3411 0394 41465248 		.ascii	"AFRH\000"
 3411      00
 3412              	.LASF139:
 3413 0399 4146524C 		.ascii	"AFRL\000"
 3413      00
 3414              	.LASF22:
 3415 039e 74726566 		.ascii	"trefs_t\000"
 3415      735F7400 
 3416              	.LASF86:
 3417 03a6 52455345 		.ascii	"RESERVED0\000"
 3417      52564544 
 3417      3000
 3418              	.LASF89:
 3419 03b0 52455345 		.ascii	"RESERVED1\000"
 3419      52564544 
 3419      3100
 3420              	.LASF93:
 3421 03ba 52455345 		.ascii	"RESERVED2\000"
 3421      52564544 
 3421      3200
 3422              	.LASF96:
 3423 03c4 52455345 		.ascii	"RESERVED3\000"
 3423      52564544 
 3423      3300
 3424              	.LASF100:
 3425 03ce 52455345 		.ascii	"RESERVED4\000"
 3425      52564544 
 3425      3400
 3426              	.LASF30:
 3427 03d8 705F7072 		.ascii	"p_prev\000"
 3427      657600
 3428              	.LASF105:
 3429 03df 52455345 		.ascii	"RESERVED6\000"
 3429      52564544 
 3429      3600
 3430              	.LASF23:
 3431 03e9 74707269 		.ascii	"tprio_t\000"
 3431      6F5F7400 
 3432              	.LASF72:
 3433 03f1 63685F73 		.ascii	"ch_system_debug\000"
 3433      79737465 
 3433      6D5F6465 
 3433      62756700 
ARM GAS  /var/folders/c6/c789hm653lg9vtl73krp73tm0000gn/T//ccOmq6Sx.s 			page 88


 3434              	.LASF131:
 3435 0401 5F426F6F 		.ascii	"_Bool\000"
 3435      6C00
 3436              	.LASF16:
 3437 0407 696E7433 		.ascii	"int32_t\000"
 3437      325F7400 
 3438              	.LASF2:
 3439 040f 756E7369 		.ascii	"unsigned char\000"
 3439      676E6564 
 3439      20636861 
 3439      7200
 3440              	.LASF146:
 3441 041d 6166726C 		.ascii	"afrl\000"
 3441      00
 3442              	.LASF124:
 3443 0422 735F636E 		.ascii	"s_cnt\000"
 3443      7400
 3444              	.LASF43:
 3445 0428 705F6D74 		.ascii	"p_mtxlist\000"
 3445      786C6973 
 3445      7400
 3446              	.LASF3:
 3447 0432 73686F72 		.ascii	"short int\000"
 3447      7420696E 
 3447      7400
 3448              	.LASF36:
 3449 043c 705F7374 		.ascii	"p_state\000"
 3449      61746500 
 3450              	.LASF99:
 3451 0444 41484233 		.ascii	"AHB3LPENR\000"
 3451      4C50454E 
 3451      5200
 3452              	.LASF55:
 3453 044e 725F7072 		.ascii	"r_prio\000"
 3453      696F00
 3454              	.LASF149:
 3455 0455 50414461 		.ascii	"PAData\000"
 3455      746100
 3456              	.LASF121:
 3457 045c 65776D61 		.ascii	"ewmask\000"
 3457      736B00
 3458              	.LASF37:
 3459 0463 705F666C 		.ascii	"p_flags\000"
 3459      61677300 
 3460              	.LASF162:
 3461 046b 6770696F 		.ascii	"gpiop\000"
 3461      7000
 3462              	.LASF95:
 3463 0471 41504232 		.ascii	"APB2ENR\000"
 3463      454E5200 
 3464              	.LASF157:
 3465 0479 50494461 		.ascii	"PIData\000"
 3465      746100
 3466              	.LASF62:
 3467 0480 63685F76 		.ascii	"ch_virtual_timer\000"
 3467      69727475 
 3467      616C5F74 
ARM GAS  /var/folders/c6/c789hm653lg9vtl73krp73tm0000gn/T//ccOmq6Sx.s 			page 89


 3467      696D6572 
 3467      00
 3468              	.LASF122:
 3469 0491 63685F73 		.ascii	"ch_semaphore\000"
 3469      656D6170 
 3469      686F7265 
 3469      00
 3470              	.LASF42:
 3471 049e 705F6570 		.ascii	"p_epending\000"
 3471      656E6469 
 3471      6E6700
 3472              	.LASF103:
 3473 04a9 52455345 		.ascii	"RESERVED5\000"
 3473      52564544 
 3473      3500
 3474              	.LASF17:
 3475 04b3 75696E74 		.ascii	"uint32_t\000"
 3475      33325F74 
 3475      00
 3476              	.LASF120:
 3477 04bc 77746D74 		.ascii	"wtmtxp\000"
 3477      787000
 3478              	.LASF54:
 3479 04c3 725F7175 		.ascii	"r_queue\000"
 3479      65756500 
 3480              	.LASF65:
 3481 04cb 76745F64 		.ascii	"vt_delta\000"
 3481      656C7461 
 3481      00
 3482              	.LASF49:
 3483 04d4 63685F74 		.ascii	"ch_threads_list\000"
 3483      68726561 
 3483      64735F6C 
 3483      69737400 
 3484              	.LASF10:
 3485 04e4 6C6F6E67 		.ascii	"long unsigned int\000"
 3485      20756E73 
 3485      69676E65 
 3485      6420696E 
 3485      7400
 3486              	.LASF174:
 3487 04f6 2F557365 		.ascii	"/Users/savonetj/Downloads/ChibiOS_3.0.2/demos/STM32"
 3487      72732F73 
 3487      61766F6E 
 3487      65746A2F 
 3487      446F776E 
 3488 0529 2F52542D 		.ascii	"/RT-STM32F407-DISCOVERY\000"
 3488      53544D33 
 3488      32463430 
 3488      372D4449 
 3488      53434F56 
 3489              	.LASF169:
 3490 0541 616C7472 		.ascii	"altr\000"
 3490      00
 3491              	.LASF129:
 3492 0546 63686172 		.ascii	"char\000"
 3492      00
ARM GAS  /var/folders/c6/c789hm653lg9vtl73krp73tm0000gn/T//ccOmq6Sx.s 			page 90


 3493              	.LASF168:
 3494 054b 6D6F6465 		.ascii	"mode\000"
 3494      00
 3495              	.LASF163:
 3496 0550 636F6E66 		.ascii	"config\000"
 3496      696700
 3497              	.LASF5:
 3498 0557 5F5F7569 		.ascii	"__uint16_t\000"
 3498      6E743136 
 3498      5F7400
 3499              	.LASF84:
 3500 0562 41484232 		.ascii	"AHB2RSTR\000"
 3500      52535452 
 3500      00
 3501              	.LASF28:
 3502 056b 74687265 		.ascii	"thread_t\000"
 3502      61645F74 
 3502      00
 3503              	.LASF128:
 3504 0574 6D5F6E65 		.ascii	"m_next\000"
 3504      787400
 3505              	.LASF27:
 3506 057b 73797374 		.ascii	"systime_t\000"
 3506      696D655F 
 3506      7400
 3507              	.LASF44:
 3508 0585 705F7265 		.ascii	"p_realprio\000"
 3508      616C7072 
 3508      696F00
 3509              	.LASF60:
 3510 0590 76746675 		.ascii	"vtfunc_t\000"
 3510      6E635F74 
 3510      00
 3511              	.LASF9:
 3512 0599 5F5F7569 		.ascii	"__uint32_t\000"
 3512      6E743332 
 3512      5F7400
 3513              	.LASF175:
 3514 05a4 696E6974 		.ascii	"initgpio\000"
 3514      6770696F 
 3514      00
 3515              	.LASF73:
 3516 05ad 70616E69 		.ascii	"panic_msg\000"
 3516      635F6D73 
 3516      6700
 3517              	.LASF113:
 3518 05b7 6F666673 		.ascii	"offset\000"
 3518      657400
 3519              	.LASF94:
 3520 05be 41504231 		.ascii	"APB1ENR\000"
 3520      454E5200 
 3521              	.LASF161:
 3522 05c6 696F706F 		.ascii	"ioportid_t\000"
 3522      72746964 
 3522      5F7400
 3523              	.LASF91:
 3524 05d1 41484232 		.ascii	"AHB2ENR\000"
ARM GAS  /var/folders/c6/c789hm653lg9vtl73krp73tm0000gn/T//ccOmq6Sx.s 			page 91


 3524      454E5200 
 3525              	.LASF111:
 3526 05d9 636F6E74 		.ascii	"context\000"
 3526      65787400 
 3527              	.LASF58:
 3528 05e1 725F6F6C 		.ascii	"r_older\000"
 3528      64657200 
 3529              	.LASF165:
 3530 05e9 5F70616C 		.ascii	"_pal_lld_setgroupmode\000"
 3530      5F6C6C64 
 3530      5F736574 
 3530      67726F75 
 3530      706D6F64 
 3531              	.LASF19:
 3532 05ff 7274636E 		.ascii	"rtcnt_t\000"
 3532      745F7400 
 3533              	.LASF67:
 3534 0607 76745F70 		.ascii	"vt_par\000"
 3534      617200
 3535              	.LASF106:
 3536 060e 53534347 		.ascii	"SSCGR\000"
 3536      5200
 3537              	.LASF50:
 3538 0614 74687265 		.ascii	"threads_queue_t\000"
 3538      6164735F 
 3538      71756575 
 3538      655F7400 
 3539              	.LASF125:
 3540 0624 63685F6D 		.ascii	"ch_mutex\000"
 3540      75746578 
 3540      00
 3541              	.LASF38:
 3542 062d 705F7265 		.ascii	"p_refs\000"
 3542      667300
 3543              	.LASF164:
 3544 0634 5F70616C 		.ascii	"_pal_lld_init\000"
 3544      5F6C6C64 
 3544      5F696E69 
 3544      7400
 3545              	.LASF104:
 3546 0642 42444352 		.ascii	"BDCR\000"
 3546      00
 3547              	.LASF76:
 3548 0647 726C6973 		.ascii	"rlist\000"
 3548      7400
 3549              	.LASF14:
 3550 064d 75696E74 		.ascii	"uint8_t\000"
 3550      385F7400 
 3551              	.LASF145:
 3552 0655 70757064 		.ascii	"pupdr\000"
 3552      7200
 3553              	.LASF117:
 3554 065b 77746F62 		.ascii	"wtobjp\000"
 3554      6A7000
 3555              	.LASF35:
 3556 0662 705F6E61 		.ascii	"p_name\000"
 3556      6D6500
ARM GAS  /var/folders/c6/c789hm653lg9vtl73krp73tm0000gn/T//ccOmq6Sx.s 			page 92


 3557              	.LASF90:
 3558 0669 41484231 		.ascii	"AHB1ENR\000"
 3558      454E5200 
 3559              	.LASF151:
 3560 0671 50434461 		.ascii	"PCData\000"
 3560      746100
 3561              	.LASF82:
 3562 0678 43464752 		.ascii	"CFGR\000"
 3562      00
 3563              	.LASF123:
 3564 067d 735F7175 		.ascii	"s_queue\000"
 3564      65756500 
 3565              	.LASF172:
 3566 0685 474E5520 		.ascii	"GNU C 4.8.4 20140725 (release) [ARM/embedded-4_8-br"
 3566      4320342E 
 3566      382E3420 
 3566      32303134 
 3566      30373235 
 3567 06b8 616E6368 		.ascii	"anch revision 213147] -mcpu=cortex-m4 -mno-thumb-in"
 3567      20726576 
 3567      6973696F 
 3567      6E203231 
 3567      33313437 
 3568 06eb 74657277 		.ascii	"terwork -mthumb -ggdb -O2 -fomit-frame-pointer -fal"
 3568      6F726B20 
 3568      2D6D7468 
 3568      756D6220 
 3568      2D676764 
 3569 071e 69676E2D 		.ascii	"ign-functions=16 -ffunction-sections -fdata-section"
 3569      66756E63 
 3569      74696F6E 
 3569      733D3136 
 3569      202D6666 
 3570 0751 73202D66 		.ascii	"s -fno-common -flto\000"
 3570      6E6F2D63 
 3570      6F6D6D6F 
 3570      6E202D66 
 3570      6C746F00 
 3571              	.LASF41:
 3572 0765 705F6D73 		.ascii	"p_msg\000"
 3572      6700
 3573              	.LASF173:
 3574 076b 2E2E2F2E 		.ascii	"../../../os/hal/ports/STM32/LLD/GPIOv2/pal_lld.c\000"
 3574      2E2F2E2E 
 3574      2F6F732F 
 3574      68616C2F 
 3574      706F7274 
 3575              	.LASF160:
 3576 079c 696F6D6F 		.ascii	"iomode_t\000"
 3576      64655F74 
 3576      00
 3577              	.LASF158:
 3578 07a5 50414C43 		.ascii	"PALConfig\000"
 3578      6F6E6669 
 3578      6700
 3579              	.LASF127:
 3580 07af 6D5F6F77 		.ascii	"m_owner\000"
ARM GAS  /var/folders/c6/c789hm653lg9vtl73krp73tm0000gn/T//ccOmq6Sx.s 			page 93


 3580      6E657200 
 3581              	.LASF32:
 3582 07b7 705F6374 		.ascii	"p_ctx\000"
 3582      7800
 3583              	.LASF66:
 3584 07bd 76745F66 		.ascii	"vt_func\000"
 3584      756E6300 
 3585              		.comm	__gnu_lto_v1,1,1
 3586              		.ident	"GCC: (GNU Tools for ARM Embedded Processors) 4.8.4 20140725 (release) [ARM/embedded-4_8-br
ARM GAS  /var/folders/c6/c789hm653lg9vtl73krp73tm0000gn/T//ccOmq6Sx.s 			page 94


DEFINED SYMBOLS
                            *ABS*:0000000000000000 pal_lld.c
/var/folders/c6/c789hm653lg9vtl73krp73tm0000gn/T//ccOmq6Sx.s:398    .text._pal_lld_init:0000000000000000 $t
/var/folders/c6/c789hm653lg9vtl73krp73tm0000gn/T//ccOmq6Sx.s:404    .text._pal_lld_init:0000000000000000 _pal_lld_init
/var/folders/c6/c789hm653lg9vtl73krp73tm0000gn/T//ccOmq6Sx.s:718    .text._pal_lld_init:0000000000000198 $d
/var/folders/c6/c789hm653lg9vtl73krp73tm0000gn/T//ccOmq6Sx.s:732    .text._pal_lld_setgroupmode:0000000000000000 $t
/var/folders/c6/c789hm653lg9vtl73krp73tm0000gn/T//ccOmq6Sx.s:738    .text._pal_lld_setgroupmode:0000000000000000 _pal_lld_setgroupmode
                            *COM*:0000000000000001 __gnu_lto_v1
                     .debug_frame:0000000000000010 $d

NO UNDEFINED SYMBOLS
