ARM GAS  /var/folders/c6/c789hm653lg9vtl73krp73tm0000gn/T//ccqGJAXs.s 			page 1


   1              		.syntax unified
   2              		.cpu cortex-m4
   3              		.fpu softvfp
   4              		.eabi_attribute 20, 1
   5              		.eabi_attribute 21, 1
   6              		.eabi_attribute 23, 3
   7              		.eabi_attribute 24, 1
   8              		.eabi_attribute 25, 1
   9              		.eabi_attribute 26, 1
  10              		.eabi_attribute 30, 2
  11              		.eabi_attribute 34, 1
  12              		.eabi_attribute 18, 4
  13              		.thumb
  14              		.file	"st.c"
  15              		.text
  16              	.Ltext0:
  17              		.section	.gnu.lto_.jmpfuncs.2827d8257e33ca20,"",%progbits
  18 0000 789C6362 		.ascii	"x\234cb`b\300\006x\2414+\020322103\26200\000\000\002"
  18      6062C006 
  18      78A1342B 
  18      10333232 
  18      313033B2 
  19 0019 6D0023   		.ascii	"m\000#"
  20              		.text
  21              		.section	.gnu.lto_.inline.2827d8257e33ca20,"",%progbits
  22 0000 789C6362 		.ascii	"x\234cb`b\300\006R\2414+\003\003\013\017#X\021\333\002"
  22      6062C006 
  22      52A1342B 
  22      03030B0F 
  22      235811DB 
  23 0015 79B05A46 		.ascii	"y\260ZF.\020\301\300\306\012\024f\373\240\007\027gb"
  23      2E10C1C0 
  23      C60A1466 
  23      FBA00717 
  23      6762
  24 0027 6061060A 		.ascii	"`a\006\0121]\340\207\0131c\012\261`\0121\000\000\232"
  24      315DE087 
  24      0B31630A 
  24      B1600A31 
  24      00009A
  25 003a 48086D   		.ascii	"H\010m"
  26              		.text
  27              		.section	.gnu.lto_.pureconst.2827d8257e33ca20,"",%progbits
  28 0000 789C6362 		.ascii	"x\234cb`b\340f\200\000V\006\011F)&)f)\026)\000\004\027"
  28      6062E066 
  28      80005606 
  28      09462926 
  28      29662916 
  29 0018 009F     		.ascii	"\000\237"
  30              		.text
  31              		.section	.gnu.lto_stInit.2827d8257e33ca20,"",%progbits
  32 0000 789C6362 		.ascii	"x\234cb`b@\007\222@\\\011\304\322@\314\310\314\300\310"
  32      60624007 
  32      92405C09 
  32      C4D240CC 
  32      C8CCC0C8 
  33 0014 34E11C03 		.ascii	"4\341\034\003C#\007\023##\210\301\300\310P\317\304X"
ARM GAS  /var/folders/c6/c789hm653lg9vtl73krp73tm0000gn/T//ccqGJAXs.s 			page 2


  33      43230713 
  33      232388C1 
  33      C0C850CF 
  33      C458
  34 0026 1FC90856 		.ascii	"\037\311\010V\273\236\351\300\203\377\377\327\375X\373"
  34      BB9EE9C0 
  34      83FFFFD7 
  34      FD58FB
  35 0035 B01EA894 		.ascii	"\260\036\250\224\201\201\225\241\245\241a\202\002\003"
  35      818195A1 
  35      A5A16182 
  35      0203
  36 0043 4332583E 		.ascii	"C2X>\004H\2024\20522\201h\346\363\014\315\017\376\331"
  36      04488234 
  36      85323281 
  36      68E6F30C 
  36      CD0FFED9 
  37 0057 24322E64 		.ascii	"$2.dd\005\312V3\374j\350h\020\310d\004\252\206\030\227"
  37      6405CA56 
  37      33FC6AE8 
  37      6810C864 
  37      04AA8618 
  38 006c 09A22F32 		.ascii	"\011\242/24>\370\317\004S\004\001!@\011\240\001 \307"
  38      343EF8CF 
  38      04530401 
  38      214009A0 
  38      0120C7
  39 007f 4AEAE9E9 		.ascii	"J\352\351\351CP~\261~Fb\216~qQ\262~q\211^2\003\000\204"
  39      43507EB1 
  39      7E46628E 
  39      7E7151B2 
  39      7E71895E 
  40 0097 3C2939   		.ascii	"<)9"
  41              		.text
  42              		.section	.gnu.lto_stStartAlarm.2827d8257e33ca20,"",%progbits
  43 0000 789C9D91 		.ascii	"x\234\235\221AK\002A\024\307\337\233\335u\275\325U\350"
  43      414B0241 
  43      14C7DF9B 
  43      DD75BDD5 
  43      55E8
  44 0012 205EAB1D 		.ascii	" ^\253\035\252\017\320\245K\240\020\264A\235b\263\310"
  44      AA0FD0A5 
  44      4BA010B4 
  44      419D62B3 
  44      C8
  45 0023 05C570A5 		.ascii	"\005\305p\245\253\263\"\236\305:\204\236\224\"\020\251"
  45      ABB3229E 
  45      C53A849E 
  45      942210A9 
  46 0033 5320D5C1 		.ascii	"S \325\301\272\225T\030}\000?\202_ \2667\243\022z\011"
  46      BA955418 
  46      7D003F82 
  46      5F20B637 
  46      A3127A09 
  47 0047 7ACCCE9B 		.ascii	"z\314\316\233\371\317\274\337\377\261\303\200\301lD"
  47      F9CFBCDF 
  47      FFB1C380 
ARM GAS  /var/folders/c6/c789hm653lg9vtl73krp73tm0000gn/T//ccqGJAXs.s 			page 3


  47      C16C44
  48 0056 E87B4580 		.ascii	"\350{E\200-\312\250\001\262\312;\200\037f\210r\001\010"
  48      2DCAA801 
  48      B2CA3B80 
  48      1F668872 
  48      0108
  49 0068 0586853D 		.ascii	"\005\206\205=TwoYw\020\0047\367\345\3536\326\230\311"
  49      54776F59 
  49      77100437 
  49      F7E5EB36 
  49      D698C9
  50 007b 30A37403 		.ascii	"0\243t\003JBT\242\031\244]R)6\315\262|\007\231\314\332"
  50      4A4254A2 
  50      19A45D52 
  50      2936CDB2 
  50      7C0799CC 
  51 0090 0B14C300 		.ascii	"\013\024\303\0001h\010Q\355>\224{(\252\302\037\006\301"
  51      31680851 
  51      ED3E947B 
  51      28AAC21F 
  51      06C1
  52 00a2 9C8BD4D2 		.ascii	"\234\213\324\322\002\312\262]t\021\243*1}\272\307c\302"
  52      02CAB25D 
  52      7411A32A 
  52      317DBAC7 
  52      63C2
  53 00b4 C01B3CF7 		.ascii	"\300\033<\367\036??\212\346\330n\342\333\355}\365\015"
  53      1E3F3F8A 
  53      E6D86EE2 
  53      DBED7DF5 
  53      0D
  54 00c5 079B18A3 		.ascii	"\007\233\030\243\233\0166\320 \232\352b\031\332\242"
  54      9B0E36D0 
  54      209AEA62 
  54      19DAA2
  55 00d4 E40FCEBE 		.ascii	"\344\017\316\276\317\227\\\324\026\241E;\261\356\242"
  55      CF975CD4 
  55      16A1453B 
  55      B1EEA2
  56 00e3 5E879A5F 		.ascii	"^\207\232_\021\363.\032\322-$(te\034Rv\007\250HWDR\252"
  56      11F32E1A 
  56      D22D2428 
  56      74651C52 
  56      7607A848 
  57 00fb 39EA62AC 		.ascii	"9\352b\254L\232\351\\\264\2364\007/I\373Ek\177\242q"
  57      4C9AE95C 
  57      B49E3407 
  57      2F49FB45 
  57      6B7FA271 
  58 010f 0AAD4951 		.ascii	"\012\255IQ\302:\377\202\261i\230|\335>\370\303\346\235"
  58      C23AFF82 
  58      B169987C 
  58      DD3EF8C3 
  58      E69D
  59 0121 3EFA1193 		.ascii	">\372\021\223\260\311\226\336A\236G,\213\217F\326\343"
  59      B0C996DE 
  59      419E472C 
ARM GAS  /var/folders/c6/c789hm653lg9vtl73krp73tm0000gn/T//ccqGJAXs.s 			page 4


  59      8B8F46D6 
  59      E3
  60 0132 2927CDBD 		.ascii	")'\315\275\\\222{y+\011z\336\315\034\361\331\343\223"
  60      5C927B79 
  60      2B097ADE 
  60      CD1CF1D9 
  60      E393
  61 0144 6C2EEFF1 		.ascii	"l.\357\361m;\261\266\312\343\361\015no&NW\250`?\235"
  61      6D3BB1B6 
  61      CAE3F10D 
  61      6E6F264E 
  61      57A8603F 
  62 0159 3EB452F0 		.ascii	">\264R\360\003\256d\210>"
  62      03AE6488 
  62      3E
  63              		.text
  64              		.section	.gnu.lto_stStopAlarm.2827d8257e33ca20,"",%progbits
  65 0000 789C6362 		.ascii	"x\234cb`b@\007\222@|\024\210\275\201\230\221\231\201"
  65      60624007 
  65      92407C14 
  65      88BD8198 
  65      919981
  66 0013 9169C239 		.ascii	"\221i\3029\006\206F\016&FF\020\203\201\221\241\236\211"
  66      0686460E 
  66      26464610 
  66      838191A1 
  66      9E89
  67 0025 B13E9211 		.ascii	"\261>\222\021\254v=\323\201\007\377\377\257\373\326"
  67      AC763DD3 
  67      8107FFFF 
  67      AFFBD6
  68 0034 36E70DE3 		.ascii	"6\347\015\343l&\026\240\010+CKC\303\004\005\006\206"
  68      6C2616A0 
  68      082B434B 
  68      43C30405 
  68      0686
  69 0046 64B08A10 		.ascii	"d\260\212\020 \011\322\026\312\310\004\242\231\3172"
  69      2009D216 
  69      CAC804A2 
  69      99CF32
  70 0055 1CDA31E7 		.ascii	"\034\3321\347\374\335G\254pu\020\306\201\323\367\016"
  70      FCDD47AC 
  70      707510C6 
  70      81D3F70E 
  71 0065 B2323024 		.ascii	"\26220$2.dd\005j\005\353\325fX\325\320\322\370\340\347"
  71      322E6464 
  71      056A05EB 
  71      D56658D5 
  71      D0D2F8E0 
  72 007a 9BA9F299 		.ascii	"\233\251\362\231\214\014\263\031f5Nh\020\310dd\214`"
  72      8C0CB319 
  72      66354E68 
  72      10C86464 
  72      8C60
  73 008c CC64646A 		.ascii	"\314ddj\000\002\026\0060\023\354\222$\220\226D\306\305"
  73      00021606 
  73      3013EC92 
ARM GAS  /var/folders/c6/c789hm653lg9vtl73krp73tm0000gn/T//ccqGJAXs.s 			page 5


  73      24909644 
  73      C6C5
  74 009e 40ED6051 		.ascii	"@\355`Q\260\340E\206\306\017\217\266\263@L\205\201\020"
  74      B0E04586 
  74      C60F8FB6 
  74      B3404C85 
  74      8110
  75 00b0 A0E940A7 		.ascii	"\240\351@\247\200\264I\352\351\351CP~\261~Fb\216~qQ"
  75      80B449EA 
  75      E9E94350 
  75      7EB17E46 
  75      628E7E71 
  76 00c5 B27E7189 		.ascii	"\262~q\211^2\203>\272LA~QI\261~p\210\257\261\221\276"
  76      5E32833E 
  76      BA4C417E 
  76      5149B17E 
  76      7088AFB1 
  77 00db 8F8F8B7E 		.ascii	"\217\217\213~\210\247o\231!Pm|NN\212^\006\003\000\204"
  77      88A76F99 
  77      21506D7C 
  77      4E4E8A5E 
  77      06030084 
  78 00ef 934DFB   		.ascii	"\223M\373"
  79              		.text
  80              		.section	.gnu.lto_stSetAlarm.2827d8257e33ca20,"",%progbits
  81 0000 789C6362 		.ascii	"x\234cb`b@\007\222@l\300\310\300\020\000\244\031\231"
  81      60624007 
  81      92406CC0 
  81      C8C01000 
  81      A41999
  82 0013 19189926 		.ascii	"\031\030\231&\234c`h\344`bd\0041\030\030\031\352\231"
  82      9C636068 
  82      E4606264 
  82      04311818 
  82      19EA99
  83 0026 18EB2319 		.ascii	"\030\353#\031\301j\3273\035x\360\377\377\272M\355\313"
  83      C16AD733 
  83      1D78F0FF 
  83      FFBA4DED 
  83      CB
  84 0037 DE30CE65 		.ascii	"\3360\316ebeb\314\005\213\2632\26444LP\310e\004\362"
  84      626562CC 
  84      058BB332 
  84      B434344C 
  84      50C86504 
  85 004c 92C12221 		.ascii	"\222\301\"!@\022\244=\224\221\011D3\237dh\342``PbX\330"
  85      4012A43D 
  85      94910944 
  85      339F6468 
  85      E2606050 
  86 0063 D030E9C0 		.ascii	"\3200\351\300\346\366\323\214\015\223\032\032?\374\377"
  86      E6F6D38C 
  86      0D931A1A 
  86      3FFCFF
  87 0072 CF9FC908 		.ascii	"\317\237\311\010t\222\014#H[\004c&#\243\002\230bbAu"
  87      74920C23 
  87      485B0463 
ARM GAS  /var/folders/c6/c789hm653lg9vtl73krp73tm0000gn/T//ccqGJAXs.s 			page 6


  87      2623A302 
  87      98626241 
  88 0087 633AD018 		.ascii	"c:\320\030\206\263\014\207N\357\271\364\274\211\035"
  88      86B30C87 
  88      4EEFB9F4 
  88      BC891D
  89 0096 6A1DCCDE 		.ascii	"j\035\314\336\003\247\337mdMd\\\304\250\004T\231\310"
  89      03A7DF6D 
  89      644D645C 
  89      C4A80454 
  89      99C8
  90 00a8 B8909115 		.ascii	"\270\220\221\025h\032\330\025\272\014k\032Z\032\037"
  90      681AD815 
  90      BA0C6B1A 
  90      5A1A1F
  91 00b7 4CDE3B4D 		.ascii	"L\336;M'\223\221Y\233a\025\220\327`\237\311\3102\233"
  91      27939159 
  91      9B611590 
  91      D7609FC9 
  91      C8329B
  92 00ca 6156E384 		.ascii	"aV\343\204\006\201LFV\220ml\015@\300\002\266\230\015"
  92      06814C46 
  92      56906D6C 
  92      0D40C002 
  92      B6980D
  93 00dd 6C5D1223 		.ascii	"l]\022#\330\244\245@\223\300\242\354\020W@E\300\216"
  93      D8A4A540 
  93      93C0A2EC 
  93      10574045 
  93      C08E
  94 00ef B9C8D0F8 		.ascii	"\271\310\320\370\341\321n\026\210u0\020\002\264\026"
  94      E1D16E16 
  94      88753010 
  94      02B416
  95 00fe E85B5018 		.ascii	"\350[P\030K\352\351\351CP~\261~Fb\216~qQ\262~q\211^"
  95      4BEAE9E9 
  95      43507EB1 
  95      7E46628E 
  95      7E7151B2 
  96 0116 32034B49 		.ascii	"2\003KIfn\252>\272tA~QI\261~p\210\257\261\221\276\217"
  96      666EAA3E 
  96      BA74417E 
  96      5149B17E 
  96      7088AFB1 
  97 012d 8F8B7E88 		.ascii	"\217\213~\210\247o\231!PC|NN\212^\006\003\000 \006c"
  97      A76F9921 
  97      50437C4E 
  97      4E8A5E06 
  97      03002006 
  98 0142 EB       		.ascii	"\353"
  99              		.text
 100              		.section	.gnu.lto_stGetAlarm.2827d8257e33ca20,"",%progbits
 101 0000 789C6362 		.ascii	"x\234cb`b@\007\222@\374\014\210\275\201\230\221\231"
 101      60624007 
 101      9240FC0C 
 101      88BD8198 
 101      9199
ARM GAS  /var/folders/c6/c789hm653lg9vtl73krp73tm0000gn/T//ccqGJAXs.s 			page 7


 102 0012 819169C2 		.ascii	"\201\221i\3029\006\206F\016&FF\020\203\201\221\241\236"
 102      39068646 
 102      0E264646 
 102      10838191 
 102      A19E
 103 0024 89B13E92 		.ascii	"\211\261>\222\021\254v=\323\201\007\377\377\257\373"
 103      11AC763D 
 103      D38107FF 
 103      FFAFFB
 104 0033 D43EEF0D 		.ascii	"\324>\357\015\343|&\026f\206L\2608+CKC\303\004\205\\"
 104      E37C2616 
 104      66864CB0 
 104      382B434B 
 104      43C30485 
 105 0048 1027192C 		.ascii	"\020'\031,\022\002$A\332C\031\231@4\363Y\206Cw\346\234"
 105      12022441 
 105      DA431999 
 105      4034F359 
 105      864377E6 
 106 005d FF6A0455 		.ascii	"\377j\004U\011\323r\340\344?\240\302D\306\205\214\254"
 106      09D372E0 
 106      E43FA0C2 
 106      44C6858C 
 106      AC
 107 006e 408D609D 		.ascii	"@\215`\235\351\214\314\272\014k\032Z\032\037\374\\3"
 107      E98CCCBA 
 107      0C6B1A5A 
 107      1A1FFC5C 
 107      33
 108 007f 5D2A9391 		.ascii	"]*\223\221Q\233a\025\220\3270\2311\223\221i6\303\254"
 108      519B6115 
 108      90D73099 
 108      31939169 
 108      36C3AC
 109 0092 C6090D02 		.ascii	"\306\011\015\002\231\214\314\021@.K\003\020\2600\200"
 109      998CCC11 
 109      402E4B03 
 109      10B03080 
 110 00a2 9960E725 		.ascii	"\231`\347%\201LHd\\\0144\015,\312\012\361!T\204\201"
 110      814C4864 
 110      5C0C340D 
 110      2CCA0AF1 
 110      21548481 
 111 00b6 E12243E3 		.ascii	"\341\"C\343\207K\373y \366\001-\202H\207\000-\006\272"
 111      874BFB79 
 111      20F6012D 
 111      82488700 
 111      2D06BA
 112 00c9 11143292 		.ascii	"\021\0242\222zz\372\020\224_\254\237\221\230\243_\\"
 112      7A7AFA10 
 112      945FAC9F 
 112      9198A35F 
 112      5C
 113 00da 94AC5F5C 		.ascii	"\224\254_\\\242\227\314\240\217.S\220_TR\254\037\034"
 113      A297CCA0 
 113      8F2E5390 
 113      5F5452AC 
ARM GAS  /var/folders/c6/c789hm653lg9vtl73krp73tm0000gn/T//ccqGJAXs.s 			page 8


 113      1F1C
 114 00ec E26B6CA4 		.ascii	"\342kl\244\357\343\343\242\037\342\351[f\010T\033\237"
 114      EFE3E3A2 
 114      1FE2E95B 
 114      6608541B 
 114      9F
 115 00fd 9393A297 		.ascii	"\223\223\242\227\301\000\000\016\201Sb"
 115      C100000E 
 115      815362
 116              		.text
 117              		.section	.gnu.lto_.symbol_nodes.2827d8257e33ca20,"",%progbits
 118 0000 789C4DC7 		.ascii	"x\234M\307\271\015\2000\024D\301\375\317\270R\012YK"
 118      B90D8030 
 118      1444C1FD 
 118      CFB8520A 
 118      594B
 119 0012 5C764605 		.ascii	"\\vF\005\224D\015T\202\010@\302\223\015B\243>\314X\332"
 119      94440D54 
 119      820840C2 
 119      930D42A3 
 119      3ECC58DA 
 120 0026 4FC93E6A 		.ascii	"O\311>j\260\340\350\272b\272n8u\255x\370\033\015\347"
 120      B0E0E8BA 
 120      62BA6E38 
 120      75AD78F8 
 120      1B0DE7
 121 0039 B7A54452 		.ascii	"\267\245DR\326t\335\241\007\314\005\035\206"
 121      D674DDA1 
 121      07CC051D 
 121      86
 122              		.text
 123              		.section	.gnu.lto_.refs.2827d8257e33ca20,"",%progbits
 124 0000 789C6362 		.ascii	"x\234cb`b`d\200\002\000\000F\000\006"
 124      60626064 
 124      80020000 
 124      460006
 125              		.text
 126              		.section	.gnu.lto_.decls.2827d8257e33ca20,"",%progbits
 127 0000 789CB558 		.ascii	"x\234\265X}l\024E\024\237\331;\312]{@\251\212%1\241"
 127      7D6C1445 
 127      149FD93B 
 127      CA5D7B40 
 127      A98A2531 
 128 0015 18308684 		.ascii	"\0300\206\204n?P\360\037\004\257\204\222P \327\2224"
 128      6E3F50F0 
 128      1F04AF84 
 128      925020D7 
 128      9234
 129 0027 D1E41CAE 		.ascii	"\321\344\034\256\007mr\375\310\335\326\204\377\246-"
 129      076D72FD 
 129      C8DDD684 
 129      FFA62D
 130 0036 6015488E 		.ascii	"`\025H\216\012Z\010\201\362U )\321T\254\024(\034\337"
 130      0A5A0881 
 130      F2552029 
 130      D154AC14 
 130      281CDF
ARM GAS  /var/folders/c6/c789hm653lg9vtl73krp73tm0000gn/T//ccqGJAXs.s 			page 9


 131 0049 35888215 		.ascii	"5\210\202\025\010\340\307\211!\205\030\245\246\362)"
 131      08E0C789 
 131      218518A5 
 131      A6F229
 132 0058 F67C3BBB 		.ascii	"\366|;\273{7\273\335-wD7\274\327\271\335\367~\363\233"
 132      7B37BBDD 
 132      2D774437 
 132      BCD7B9DD 
 132      F77EF39B 
 133 006c F7DEECBE 		.ascii	"\367\336\354\276A@\002\332\212\021\212\301\365\362s"
 133      414002DA 
 133      8A118AC1 
 133      F5F273
 134 007b 08B50B08 		.ascii	"\010\265\013\010\245!\204f\243\304%\377\336\001\322"
 134      A5218466 
 134      A3C425FF 
 134      DE01D2
 135 008a 0ED205D2 		.ascii	"\016\322\005\322\015\322\003r\002\015\277d;\200@\247"
 135      0DD20372 
 135      020DBF64 
 135      3B8040A7 
 136 009a 4076AAF7 		.ascii	"@v\252\367\004\365\276\231\275\214\351\000\331\0172"
 136      04F5BE99 
 136      BD8CE900 
 136      D90F32
 137 00a9 16C40572 		.ascii	"\026\304\005r\032\344\014H/\310C\020;\210\015\244\037"
 137      1AE40C48 
 137      2FC84310 
 137      3B880DA4 
 137      1F
 138 00ba E432489F 		.ascii	"\3442H\237\212)\373>R\307\237\203\014\031\260\273T\277"
 138      8A29FB3E 
 138      52C79F83 
 138      0C19B0BB 
 138      54BF
 139 00cc D31C16E6 		.ascii	"\323\034\026\346\374\345\347\016<\234Sw\222\234\260"
 139      FCE5E70E 
 139      3C9C5377 
 139      929CB0
 140 00db CA49507D 		.ascii	"\312IP}2\2602>\0022\316\200+\307+M\305|\032\226l\373"
 140      32B0323E 
 140      0232CE80 
 140      2BC72B4D 
 140      C57C1A96 
 141 00f1 3C56EEBD 		.ascii	"<V\356\275h\300\231\204\266\321\266ht\365\366\363\230"
 141      68C09984 
 141      B6D1B668 
 141      74F5F6F3 
 141      98
 142 0102 B6D027B1 		.ascii	"\266\320'\261\230\015M@\233(\\mk(\305\022\301\263_@"
 142      980D4D40 
 142      9B285C6D 
 142      6B28C512 
 142      C1B35F40 
 143 0116 E598E0B1 		.ascii	"\345\230\340\261N\224\303\006.'\233\000!\202w\342\011"
 143      4E94C306 
 143      2E279B00 
ARM GAS  /var/folders/c6/c789hm653lg9vtl73krp73tm0000gn/T//ccqGJAXs.s 			page 10


 143      218277E2 
 143      09
 144 0127 EA68A94D 		.ascii	"\352h\251M\201\023\320K\030MC\373\301?L\351\315\254"
 144      8113D04B 
 144      184D43FB 
 144      C13F4CE9 
 144      CDAC
 145 0139 E1C180EB 		.ascii	"\341\301\200\353\025\264G\236\200\356\2436\006/\003"
 145      15B4479E 
 145      80EEA336 
 145      062F03
 146 0148 ECC09378 		.ascii	"\354\300\223x\023\202wa\301\3103:\0209|\326\025n\210"
 146      13827761 
 146      C1C8333A 
 146      10397CD6 
 146      156E88
 147 015b C6629392 		.ascii	"\306b\223\222'\271W%ic\261@N\324Li\243\354X\334\013"
 147      27B95725 
 147      6963B140 
 147      4ED44C69 
 147      A3EC58DC 
 148 0170 C930F39A 		.ascii	"\3110\363\232\212v\003\375\350\027\007\372\004J\035"
 148      8A7603FD 
 148      E81707FA 
 148      044A1D
 149 017f 04EFC74E 		.ascii	"\004\357\307N\360]\214\001l7\236\246\022J\036gp\315"
 149      F05D8C01 
 149      6C379EA6 
 149      124A1E67 
 149      70CD
 150 0191 9913B811 		.ascii	"\231\023\270\021x\022\334\301\220\332\361\263B\035_"
 150      7812DCC1 
 150      90DAF1B3 
 150      421D5F
 151 01a0 7BF40D46 		.ascii	"{\364\015F\351S\006\264N\320\003\021<\332\251\217\""
 151      E95306B4 
 151      4ED00311 
 151      3CDAA98F 
 151      22
 152 01b1 FCD60C64 		.ascii	"\374\326\014d4\366X\035\310;t\034\372\237\315\023\225"
 152      34F6581D 
 152      C83B741C 
 152      FA9FCD13 
 152      95
 153 01c2 C18AE313 		.ascii	"\301\212\343\023\003\341)h\027\245-\321=\375\267m\233"
 153      03E12968 
 153      17A52DD1 
 153      3DFDB76D 
 153      9B
 154 01d3 69C4AE85 		.ascii	"i\304\256\205z73k\207\2220\213\205b\225\250\243\365"
 154      7A37336B 
 154      8792308B 
 154      856295A8 
 154      A3F5
 155 01e5 7475268E 		.ascii	"tu&\216\027R\273\261\220:M\013\351\276VHJ\025\013\250"
 155      1752BBB1 
 155      903A4D0B 
ARM GAS  /var/folders/c6/c789hm653lg9vtl73krp73tm0000gn/T//ccqGJAXs.s 			page 11


 155      E9BE5648 
 155      4A150BA8 
 156 01f9 C340CDBC 		.ascii	"\303@\315\274L\273\214\350_\232\242w\236\213\243\357"
 156      4CBB8CE8 
 156      5F9AA277 
 156      9E8BA3EF 
 157 0209 65E8874C 		.ascii	"e\350\207L\027N\037T\024+\253!\370 \000\021\334\375"
 157      174E1F54 
 157      142BAB21 
 157      F8200011 
 157      DCFD
 158 021b 4C6BEE36 		.ascii	"Lk\3566\262:l\312j\360\334\372\211\264\2551\022\213"
 158      B23A6CCA 
 158      6AF0DCFA 
 158      89B4AD31 
 158      128B
 159 022d BD69DCE4 		.ascii	"\275i\334\3442\272\325\006:f\262\313O\231G\253\221v"
 159      32BAD506 
 159      3A66B2CB 
 159      4F9947AB 
 159      9176
 160 023f EEA34E8D 		.ascii	"\356\243N\215,\301=\026\313Q\361\216\233\320\014G{\256"
 160      2CC13D16 
 160      CB51F18E 
 160      9BD00C47 
 160      7BAE
 161 0251 DC6DC01B 		.ascii	"\334m\300\033\232\332z\351\200\\CZ\202\206\206M\251"
 161      9ADA7AE9 
 161      805C435A 
 161      8286864D 
 161      A9
 162 0262 809CD483 		.ascii	"\200\234\324\203d\240\017\023\233I\361\265Z\330)\234"
 162      64A00F13 
 162      9B49F1B5 
 162      5AD8299C 
 163 0272 A179B12D 		.ascii	"\241y\261-\3304\342\026$\370\000\236\232T\321\217Ga"
 163      D834E216 
 163      24F8009E 
 163      9A54D18F 
 163      4761
 164 0284 39B639F2 		.ascii	"9\2669\362\374\247\023\201\245X\203\313ds\362f\035\326"
 164      FCA71381 
 164      A55883CB 
 164      6473F266 
 164      1DD6
 165 0296 66049FC5 		.ascii	"f\004\237\305\343\023$i|i.\353\224\235S\212E\273\035"
 165      E3132469 
 165      7C692EEB 
 165      949D538A 
 165      45BB1D
 166 02a9 1F24F622 		.ascii	"\037$\366\"o\205\262\320\006\225I|\3514M\363y\027%\336"
 166      6F85B2D0 
 166      0695497C 
 166      E9344DF3 
 166      791725DE 
 167 02bd 88D7EFBD 		.ascii	"\210\327\357\275\316^?\2758\0132\322c\323g\344\2510"
 167      CE5E3FBD 
ARM GAS  /var/folders/c6/c789hm653lg9vtl73krp73tm0000gn/T//ccqGJAXs.s 			page 12


 167      380B32D2 
 167      63D367E4 
 167      A930
 168 02cf F2A4E7C1 		.ascii	"\362\244\347\301Uqb\2404\362\317u\027\265+\367\221I"
 168      557162A0 
 168      34F2CF75 
 168      17B52BF7 
 168      9149
 169 02e1 82D56B32 		.ascii	"\202\325k2j\243\253\232\"\261\353[\241\204Ob%\260\002"
 169      6AA3AB9A 
 169      22B1EB5B 
 169      A1844F62 
 169      25B002
 170 02f4 FA8A5190 		.ascii	"\372\212Q\220}\315B\021_\276\026\213\261N\003^\370\206"
 170      7DCD4211 
 170      5FBE168B 
 170      B14E035E 
 170      F886
 171 0306 2B4C34B0 		.ascii	"+L4\260\013)\203\345\350\300Zx\260K\311\2009\254\231"
 171      0B2983E5 
 171      E8C05A78 
 171      B04BC980 
 171      39AC99
 172 0319 6DE4C1AE 		.ascii	"m\344\301\256\244\014\246g\3661\017v#\031\260Lkf\255"
 172      A40CA667 
 172      F6310F76 
 172      2319B04C 
 172      6B66AD
 173 032c 3CD84F29 		.ascii	"<\330O)\203\351\231m\341\301n&\003\226m\315l+\017v;"
 173      83E9996D 
 173      E1C16E26 
 173      03966DCD 
 173      6C2B0F76 
 174 0341 65303DB3 		.ascii	"e0=\263m<\330\037\311\200\345X3\373\214\007\033L\031"
 174      6D3CD81F 
 174      C980E558 
 174      33FB8C07 
 174      1B4C19
 175 0354 4CCFAC93 		.ascii	"L\317\254\223\007{\220\014\330\253\326\314\016\362`"
 175      077B900C 
 175      D8ABD6CC 
 175      0EF260
 176 0363 7FA70CA6 		.ascii	"\177\247\014\246g\326\305\203\305\222\001\313\263b\326"
 176      67D6C583 
 176      C59201CB 
 176      B362D6
 177 0372 1039F4B6 		.ascii	"\0209\364\266\214u\006^~\002j\262\033\260\364oI30=\263"
 177      8C75065E 
 177      7E026AB2 
 177      1BB0F46F 
 177      4933303D 
 178 0387 C33CB3F7 		.ascii	"\303<\263\367\215hf\314\346X\203\035\345\301\326%\003"
 178      8D6866CC 
 178      E658831D 
 178      E5C1D625 
 178      03
 179 0398 566C9D80 		.ascii	"Vl\235\200c<X8e0=\263\213<\330\246d\300\226X3\373\216"
ARM GAS  /var/folders/c6/c789hm653lg9vtl73krp73tm0000gn/T//ccqGJAXs.s 			page 13


 179      633C5838 
 179      65303DB3 
 179      8B3CD8A6 
 179      64C09658 
 180 03af 076B4D19 		.ascii	"\007kM\031\214g\326\020\371\036\262\251~\361\332\346"
 180      8C67D610 
 180      F91EB2A9 
 180      7EF1DAE6 
 181 03bf 18BE8C73 		.ascii	"\030\276\214s\364\2570\235Y\207\245\031\301\367R\376"
 181      F4AF309D 
 181      5987A519 
 181      C1F752FE 
 182 03cf 30DEB7F8 		.ascii	"0\336\267\3700\362\247\242\204\025,{\233q\331:\022\352"
 182      30F2A7A2 
 182      84152C7B 
 182      9B71D93A 
 182      12EA
 183 03e1 B0DC2486 		.ascii	"\260\334$\206f\027\377\365#\370k\326N\\\300\223A\177"
 183      6617FFF5 
 183      23F86BD6 
 183      4E5CC093 
 183      417F
 184 03f3 CBF425A6 		.ascii	"\313\364%\246\373\230\276\314\364U\246\2571}\203\351"
 184      FB98BECC 
 184      F455A6AF 
 184      317D83E9 
 185 0403 1F99FE99 		.ascii	"\037\231\376\231\351_\230\376\225\351[L\3673}\207\351"
 185      E95F98FE 
 185      95E95B4C 
 185      F7337D87 
 185      E9
 186 0414 DF98FE9D 		.ascii	"\337\230\376\235\351\273L\377\311\364 \350\370eh\227"
 186      E9BB4CFF 
 186      C9F420E8 
 186      F8656897 
 187 0424 7A2DF22B 		.ascii	"z-\362+s\177\230h\227\344N-2\000\235\3327'qK\023U:\265"
 187      737F9868 
 187      97E44E2D 
 187      32009DDA 
 187      3727714B 
 188 043c 3687D6ED 		.ascii	"6\207\326\355\356\262\233v\273}\376b\255\303\357b\026"
 188      EEB29B76 
 188      BB7DFE62 
 188      ADC3EF62 
 188      16
 189 044d 8F92EC76 		.ascii	"\217\222\354v\257\321%\331\361f\367\221\261\331}\254"
 189      AFD125D9 
 189      F166F791 
 189      B1D97DAC 
 190 045d 6F005F46 		.ascii	"o\000_F;\350\305\213\321[\375\255\2709\012\247\320\241"
 190      3BE8C58B 
 190      D15BFDAD 
 190      B8390AA7 
 190      D0A1
 191 046f 580C6BAD 		.ascii	"X\014k\255V\353X\365\254\025\335\023\311nM\264)\016"
 191      56EB58F5 
 191      AC15DD13 
ARM GAS  /var/folders/c6/c789hm653lg9vtl73krp73tm0000gn/T//ccqGJAXs.s 			page 14


 191      C96E4DB4 
 191      290E
 192 0481 BE0E94BE 		.ascii	"\276\016\224\276\004\034\204\2701\315\3166\267%\270"
 192      041C84B8 
 192      31CDCE36 
 192      B725B8
 193 0490 4190B3D8 		.ascii	"A\220\263\330($\352J\031k\243\030;\304\037\261\233\374"
 193      2824EA4A 
 193      196BA318 
 193      3BC41FB1 
 193      9BFC
 194 04a2 BF80427F 		.ascii	"\277\200B\177dWu\322Jm\3221\3146\261\036\305\322\334"
 194      645775D2 
 194      4A6DD231 
 194      CC36B11E 
 194      C5D2DC
 195 04b5 8AE05542 		.ascii	"\212\340UB\252\033d\265`\276A\\:\316\232\025\254,b7"
 195      AA1B64B5 
 195      60BE415C 
 195      3ACE9A15 
 195      AC2C6237 
 196 04c9 9CD50C24 		.ascii	"\234\325\014$\240GS\327Np:\346J\347\007C\351(]\376U"
 196      A04753D7 
 196      4E703AE6 
 196      4AE70743 
 196      E9285DFE 
 197 04de 43E9981F 		.ascii	"C\351\230\037\303\232\005C\015| \014;ID\006\"[\316+"
 197      C39A0543 
 197      0D7C200C 
 197      3B494406 
 197      225BCE2B 
 198 04f2 C7B0ED91 		.ascii	"\307\260\355\221L\2554\357\230\227\346q\177\374 \366"
 198      4CAD34EF 
 198      9897E671 
 198      7FFC20F6 
 199 0502 841DC4D6 		.ascii	"\204\035\304\326\012\317P\232k\215\264\326\011\246\245"
 199      0ACF509A 
 199      6B8DB4D6 
 199      09A6A5
 200 0511 79DFB434 		.ascii	"y\337\2644\011\246\211T\226k\223f\214\224p\203\025\301"
 200      09A68954 
 200      966B9366 
 200      8C947083 
 200      15C1
 201 0523 1B524E78 		.ascii	"\033RNx\213E\302\323u\013\321\254`\270F0\034T\015$\004"
 201      8B45C2D3 
 201      750BD1AC 
 201      60B84630 
 201      1C540D24 
 202 0538 F4D83CE1 		.ascii	"\364\330<\341\177\265\340\217\370\204\037c\011i\036"
 202      7FB5E08F 
 202      F8841F63 
 202      09691E
 203 0547 95D44972 		.ascii	"\225\324Ir\243E>\324\2116\231\007z\210\0134\301a\010"
 203      A3453ED4 
 203      89369907 
 203      7A880B34 
ARM GAS  /var/folders/c6/c789hm653lg9vtl73krp73tm0000gn/T//ccqGJAXs.s 			page 15


 203      C16108
 204 055a 8EC6BF67 		.ascii	"\216\306\277g\004\376\233G\361\374\321\304\334\\Q\371"
 204      04FE9B47 
 204      F1FCD1C4 
 204      DC5C51F9 
 205 056a 571B122B 		.ascii	"W\033\022+I@\014\005}bH\312\365\241\264\220\264\240"
 205      49400C05 
 205      7D6248CA 
 205      F5A1B490 
 205      B4A0
 206 057c A64A4A9B 		.ascii	"\246JJ\233\277hi\216\033M\341\355\202\222XU\343\013"
 206      BF68698E 
 206      1B4DE1ED 
 206      82925855 
 206      E30B
 207 058e D457F845 		.ascii	"\324W\370E_eheHZY\347\017\345V\"\247<\256\252\366{\245"
 207      5F656865 
 207      485A59E7 
 207      0FE55622 
 207      A73CAEAA 
 208 05a5 85627D28 		.ascii	"\205b}((\006j}\200\350\366\007\002$(\256\360\371\246"
 208      28066A7D 
 208      80E8F607 
 208      022428AE 
 208      F0F9A6
 209 05b8 9360F5F4 		.ascii	"\223`\365\364\232\332\032\377t?YV%\026\344\345\317\310"
 209      9ADA1AFF 
 209      743F5956 
 209      2516E4E5 
 209      CFC8
 210 05ca 9B95F79A 		.ascii	"\233\225\367\232\250\277\255A\207\244\212\252\032\011"
 210      A8BFAD41 
 210      87A48AAA 
 210      1A09
 211 05d8 601DF5F0 		.ascii	"`\035\365\360\267\260\300+\275\363\037\240V\023_eU\215"
 211      B7B0C02B 
 211      BDF31FA0 
 211      56135F65 
 211      558D
 212 05ea 5FF456F8 		.ascii	"_\364V\370\227\223\372\200\344\325\310\247{\275\332"
 212      9793FA80 
 212      E4D5C8A7 
 212      7BBDDA
 213 05f9 3CAE9054 		.ascii	"<\256\220T*\221\2404\027f\250\036M\226\261Ee\3107k\353"
 213      2A91A034 
 213      1766A81E 
 213      4D96B145 
 213      65C8376B 
 214 060e D8BD7418 		.ascii	"\330\275t\030\373%m8_\035\212\306X\326\325\006\245\220"
 214      FB256D38 
 214      5F1D8AC6 
 214      58D6D506 
 214      A590
 215 0620 585A5652 		.ascii	"XZVRX .\\X$\226-(y/\037\326\345\015\004*`\306\014e\344"
 215      58202E5C 
 215      5824962D 
 215      28792F1F 
ARM GAS  /var/folders/c6/c789hm653lg9vtl73krp73tm0000gn/T//ccqGJAXs.s 			page 16


 215      D6E50D04 
 216 063a AD823017 		.ascii	"\255\2020\027$\353[-\023\254\252V\334\325\037^\311\346"
 216      24EB5B2D 
 216      13ACAA56 
 216      DCD51F5E 
 216      C9E6
 217 064c F6E48314 		.ascii	"\366\344\203\024\330KK\334\036{\321\202y\036\241\324"
 217      D84B4BDC 
 217      1E7BD182 
 217      791EA1D4 
 218 065c 639B37DF 		.ascii	"c\2337\3373\312\355.\361\3443]`w\273\347yl\356Ee\266"
 218      33CAED2E 
 218      F1E4335D 
 218      6077BBE7 
 218      796CEE45 
 219 0672 25A56EDB 		.ascii	"%\245n\333\\\217\307\346q\303opx\253\250\314c+\222="
 219      5C8FC7E6 
 219      71C36F70 
 219      78ABA8CC 
 219      632B923D 
 220 0686 4BE67A84 		.ascii	"K\346z\204\305\212W!\330\227{\262T\222!9 ^\"\257\323"
 220      C58A5721 
 220      D8977BB2 
 220      54922139 
 220      205E22AF 
 221 069b 2E87C3EE 		.ascii	".\207\303\356\253$A\207\327\273\274\276\306\347\365"
 221      AB244187 
 221      D7BBBCBE 
 221      C6E7F5
 222 06aa 8ED106B9 		.ascii	"\216\321\006\2713\013\012g\216\217\373\324\326).\231"
 222      330B0A67 
 222      8E8FFBD4 
 222      D6292E99 
 223 06ba DA1DBF8A 		.ascii	"\332\035\277\212\301;\314\230\241=^a\372x\326\277|\254"
 223      C13BCC98 
 223      A13D5E61 
 223      FA78D6BF 
 223      7CAC
 224 06cc 8593     		.ascii	"\205\223"
 225              		.text
 226              		.section	.gnu.lto_.symtab.2827d8257e33ca20,"",%progbits
 227 0000 7374496E 		.ascii	"stInit\000\000\000\000\000\000\000\000\000\000\000\000"
 227      69740000 
 227      00000000 
 227      00000000 
 227      0000
 228 0012 A1000000 		.ascii	"\241\000\000\000stStartAlarm\000\000\000\000\000\000"
 228      73745374 
 228      61727441 
 228      6C61726D 
 228      00000000 
 229 0028 00000000 		.ascii	"\000\000\000\000\000\000\246\000\000\000stStopAlarm"
 229      0000A600 
 229      00007374 
 229      53746F70 
 229      416C6172 
 230 003d 00000000 		.ascii	"\000\000\000\000\000\000\000\000\000\000\000\000\266"
ARM GAS  /var/folders/c6/c789hm653lg9vtl73krp73tm0000gn/T//ccqGJAXs.s 			page 17


 230      00000000 
 230      00000000 
 230      B6
 231 004a 00000073 		.ascii	"\000\000\000stSetAlarm\000\000\000\000\000\000\000\000"
 231      74536574 
 231      416C6172 
 231      6D000000 
 231      00000000 
 232 005f 00000000 		.ascii	"\000\000\000\000\271\000\000\000stGetAlarm\000\000\000"
 232      B9000000 
 232      73744765 
 232      74416C61 
 232      726D0000 
 233 0074 00000000 		.ascii	"\000\000\000\000\000\000\000\000\000\275\000\000\000"
 233      00000000 
 233      00BD0000 
 233      00
 234 0081 73745F6C 		.ascii	"st_lld_init\000\000\002\000\000\000\000\000\000\000"
 234      6C645F69 
 234      6E697400 
 234      00020000 
 234      00000000 
 235 0096 0000C100 		.ascii	"\000\000\301\000\000\000"
 235      0000
 236              		.text
 237              		.section	.gnu.lto_.opts,"",%progbits
 238 0000 272D6D63 		.ascii	"'-mcpu=cortex-m4' '-mno-thumb-interwork' '-mthumb' "
 238      70753D63 
 238      6F727465 
 238      782D6D34 
 238      2720272D 
 239 0033 272D6767 		.ascii	"'-ggdb' '-O2' '-fomit-frame-pointer' '-falign-funct"
 239      64622720 
 239      272D4F32 
 239      2720272D 
 239      666F6D69 
 240 0066 696F6E73 		.ascii	"ions=16' '-ffunction-sections' '-fdata-sections' '-"
 240      3D313627 
 240      20272D66 
 240      66756E63 
 240      74696F6E 
 241 0099 666E6F2D 		.ascii	"fno-common' '-flto'\000"
 241      636F6D6D 
 241      6F6E2720 
 241      272D666C 
 241      746F2700 
 242              		.text
 243              		.cfi_sections	.debug_frame
 244              		.section	.text.stInit,"ax",%progbits
 245              		.align	2
 246              		.p2align 4,,15
 247              		.global	stInit
 248              		.thumb
 249              		.thumb_func
 250              		.type	stInit, %function
 251              	stInit:
 252              	.LFB260:
ARM GAS  /var/folders/c6/c789hm653lg9vtl73krp73tm0000gn/T//ccqGJAXs.s 			page 18


 253              		.file 1 "../../../os/hal/src/st.c"
 254              		.loc 1 60 0
 255              		.cfi_startproc
 256              		@ args = 0, pretend = 0, frame = 0
 257              		@ frame_needed = 0, uses_anonymous_args = 0
 258              		@ link register save eliminated.
 259              		.loc 1 62 0
 260 0000 FFF7FEBF 		b	st_lld_init
 261              	.LVL0:
 262              		.cfi_endproc
 263              	.LFE260:
 264              		.size	stInit, .-stInit
 265 0004 AFF30080 		.section	.text.stStartAlarm,"ax",%progbits
 265      AFF30080 
 265      AFF30080 
 266              		.align	2
 267              		.p2align 4,,15
 268              		.global	stStartAlarm
 269              		.thumb
 270              		.thumb_func
 271              		.type	stStartAlarm, %function
 272              	stStartAlarm:
 273              	.LFB261:
 274              		.loc 1 77 0
 275              		.cfi_startproc
 276              		@ args = 0, pretend = 0, frame = 0
 277              		@ frame_needed = 0, uses_anonymous_args = 0
 278              		@ link register save eliminated.
 279              	.LVL1:
 280              	.LBB10:
 281              	.LBB11:
 282              		.file 2 "../../../os/hal/ports/STM32/LLD/TIMv1/st_lld.h"
 283              		.loc 2 143 0
 284 0000 4FF08043 		mov	r3, #1073741824
 285              	.LVL2:
 286              		.loc 2 144 0
 287 0004 0021     		movs	r1, #0
 288              		.loc 2 145 0
 289 0006 0222     		movs	r2, #2
 290              		.loc 2 143 0
 291 0008 5863     		str	r0, [r3, #52]
 292              		.loc 2 144 0
 293 000a 1961     		str	r1, [r3, #16]
 294              		.loc 2 145 0
 295 000c DA60     		str	r2, [r3, #12]
 296 000e 7047     		bx	lr
 297              	.LBE11:
 298              	.LBE10:
 299              		.cfi_endproc
 300              	.LFE261:
 301              		.size	stStartAlarm, .-stStartAlarm
 302              		.section	.text.stStopAlarm,"ax",%progbits
 303              		.align	2
 304              		.p2align 4,,15
 305              		.global	stStopAlarm
 306              		.thumb
 307              		.thumb_func
ARM GAS  /var/folders/c6/c789hm653lg9vtl73krp73tm0000gn/T//ccqGJAXs.s 			page 19


 308              		.type	stStopAlarm, %function
 309              	stStopAlarm:
 310              	.LFB262:
 311              		.loc 1 91 0
 312              		.cfi_startproc
 313              		@ args = 0, pretend = 0, frame = 0
 314              		@ frame_needed = 0, uses_anonymous_args = 0
 315              		@ link register save eliminated.
 316              	.LBB12:
 317              	.LBB13:
 318              		.loc 2 155 0
 319 0000 4FF08043 		mov	r3, #1073741824
 320 0004 0022     		movs	r2, #0
 321 0006 DA60     		str	r2, [r3, #12]
 322 0008 7047     		bx	lr
 323              	.LBE13:
 324              	.LBE12:
 325              		.cfi_endproc
 326              	.LFE262:
 327              		.size	stStopAlarm, .-stStopAlarm
 328              		.section	.text.stSetAlarm,"ax",%progbits
 329              		.align	2
 330              		.p2align 4,,15
 331              		.global	stSetAlarm
 332              		.thumb
 333              		.thumb_func
 334              		.type	stSetAlarm, %function
 335              	stSetAlarm:
 336              	.LFB263:
 337              		.loc 1 105 0
 338              		.cfi_startproc
 339              		@ args = 0, pretend = 0, frame = 0
 340              		@ frame_needed = 0, uses_anonymous_args = 0
 341              		@ link register save eliminated.
 342              	.LVL3:
 343              	.LBB14:
 344              	.LBB15:
 345              		.loc 2 167 0
 346 0000 4FF08043 		mov	r3, #1073741824
 347              	.LVL4:
 348 0004 5863     		str	r0, [r3, #52]
 349 0006 7047     		bx	lr
 350              	.LBE15:
 351              	.LBE14:
 352              		.cfi_endproc
 353              	.LFE263:
 354              		.size	stSetAlarm, .-stSetAlarm
 355 0008 AFF30080 		.section	.text.stGetAlarm,"ax",%progbits
 355      AFF30080 
 356              		.align	2
 357              		.p2align 4,,15
 358              		.global	stGetAlarm
 359              		.thumb
 360              		.thumb_func
 361              		.type	stGetAlarm, %function
 362              	stGetAlarm:
 363              	.LFB264:
ARM GAS  /var/folders/c6/c789hm653lg9vtl73krp73tm0000gn/T//ccqGJAXs.s 			page 20


 364              		.loc 1 121 0
 365              		.cfi_startproc
 366              		@ args = 0, pretend = 0, frame = 0
 367              		@ frame_needed = 0, uses_anonymous_args = 0
 368              		@ link register save eliminated.
 369              	.LBB16:
 370              	.LBB17:
 371              		.loc 2 179 0
 372 0000 4FF08043 		mov	r3, #1073741824
 373 0004 586B     		ldr	r0, [r3, #52]
 374              	.LBE17:
 375              	.LBE16:
 376              		.loc 1 126 0
 377 0006 7047     		bx	lr
 378              		.cfi_endproc
 379              	.LFE264:
 380              		.size	stGetAlarm, .-stGetAlarm
 381 0008 AFF30080 		.text
 381      AFF30080 
 382              	.Letext0:
 383              		.file 3 "/usr/local/Cellar/gcc-arm-none-eabi/20140805/arm-none-eabi/include/machine/_default_types
 384              		.file 4 "/usr/local/Cellar/gcc-arm-none-eabi/20140805/arm-none-eabi/include/stdint.h"
 385              		.file 5 "../../../os/rt/ports/ARMCMx/compilers/GCC/chtypes.h"
 386              		.file 6 "../../../os/rt/include/chsystypes.h"
 387              		.file 7 "../../../os/rt/include/chschd.h"
 388              		.file 8 "../../../os/rt/ports/ARMCMx/chcore.h"
 389              		.file 9 "../../../os/rt/ports/ARMCMx/chcore_v7m.h"
 390              		.file 10 "../../../os/hal/ports/STM32/LLD/TIMv1/stm32_tim.h"
 391              		.file 11 "../../../os/rt/include/chtm.h"
 392              		.file 12 "../../../os/rt/include/chsem.h"
 393              		.file 13 "../../../os/rt/include/chmtx.h"
 394              		.file 14 "../../../os/ext/CMSIS/include/core_cm4.h"