ARM GAS  /var/folders/c6/c789hm653lg9vtl73krp73tm0000gn/T//ccqGJAXs.s 			page 1


   1              		.syntax unified
   2              		.cpu cortex-m4
   3              		.fpu softvfp
   4              		.eabi_attribute 20, 1
   5              		.eabi_attribute 21, 1
   6              		.eabi_attribute 23, 3
   7              		.eabi_attribute 24, 1
   8              		.eabi_attribute 25, 1
   9              		.eabi_attribute 26, 1
  10              		.eabi_attribute 30, 2
  11              		.eabi_attribute 34, 1
  12              		.eabi_attribute 18, 4
  13              		.thumb
  14              		.file	"st.c"
  15              		.text
  16              	.Ltext0:
  17              		.section	.gnu.lto_.jmpfuncs.2827d8257e33ca20,"",%progbits
  18 0000 789C6362 		.ascii	"x\234cb`b\300\006x\2414+\020322103\26200\000\000\002"
  18      6062C006 
  18      78A1342B 
  18      10333232 
  18      313033B2 
  19 0019 6D0023   		.ascii	"m\000#"
  20              		.text
  21              		.section	.gnu.lto_.inline.2827d8257e33ca20,"",%progbits
  22 0000 789C6362 		.ascii	"x\234cb`b\300\006R\2414+\003\003\013\017#X\021\333\002"
  22      6062C006 
  22      52A1342B 
  22      03030B0F 
  22      235811DB 
  23 0015 79B05A46 		.ascii	"y\260ZF.\020\301\300\306\012\024f\373\240\007\027gb"
  23      2E10C1C0 
  23      C60A1466 
  23      FBA00717 
  23      6762
  24 0027 6061060A 		.ascii	"`a\006\0121]\340\207\0131c\012\261`\0121\000\000\232"
  24      315DE087 
  24      0B31630A 
  24      B1600A31 
  24      00009A
  25 003a 48086D   		.ascii	"H\010m"
  26              		.text
  27              		.section	.gnu.lto_.pureconst.2827d8257e33ca20,"",%progbits
  28 0000 789C6362 		.ascii	"x\234cb`b\340f\200\000V\006\011F)&)f)\026)\000\004\027"
  28      6062E066 
  28      80005606 
  28      09462926 
  28      29662916 
  29 0018 009F     		.ascii	"\000\237"
  30              		.text
  31              		.section	.gnu.lto_stInit.2827d8257e33ca20,"",%progbits
  32 0000 789C6362 		.ascii	"x\234cb`b@\007\222@\\\011\304\322@\314\310\314\300\310"
  32      60624007 
  32      92405C09 
  32      C4D240CC 
  32      C8CCC0C8 
  33 0014 34E11C03 		.ascii	"4\341\034\003C#\007\023##\210\301\300\310P\317\304X"
ARM GAS  /var/folders/c6/c789hm653lg9vtl73krp73tm0000gn/T//ccqGJAXs.s 			page 2


  33      43230713 
  33      232388C1 
  33      C0C850CF 
  33      C458
  34 0026 1FC90856 		.ascii	"\037\311\010V\273\236\351\300\203\377\377\327\375X\373"
  34      BB9EE9C0 
  34      83FFFFD7 
  34      FD58FB
  35 0035 B01EA894 		.ascii	"\260\036\250\224\201\201\225\241\245\241a\202\002\003"
  35      818195A1 
  35      A5A16182 
  35      0203
  36 0043 4332583E 		.ascii	"C2X>\004H\2024\20522\201h\346\363\014\315\017\376\331"
  36      04488234 
  36      85323281 
  36      68E6F30C 
  36      CD0FFED9 
  37 0057 24322E64 		.ascii	"$2.dd\005\312V3\374j\350h\020\310d\004\252\206\030\227"
  37      6405CA56 
  37      33FC6AE8 
  37      6810C864 
  37      04AA8618 
  38 006c 09A22F32 		.ascii	"\011\242/24>\370\317\004S\004\001!@\011\240\001 \307"
  38      343EF8CF 
  38      04530401 
  38      214009A0 
  38      0120C7
  39 007f 4AEAE9E9 		.ascii	"J\352\351\351CP~\261~Fb\216~qQ\262~q\211^2\003\000\204"
  39      43507EB1 
  39      7E46628E 
  39      7E7151B2 
  39      7E71895E 
  40 0097 3C2939   		.ascii	"<)9"
  41              		.text
  42              		.section	.gnu.lto_stStartAlarm.2827d8257e33ca20,"",%progbits
  43 0000 789C9D91 		.ascii	"x\234\235\221AK\002A\024\307\337\233\335u\275\325U\350"
  43      414B0241 
  43      14C7DF9B 
  43      DD75BDD5 
  43      55E8
  44 0012 205EAB1D 		.ascii	" ^\253\035\252\017\320\245K\240\020\264A\235b\263\310"
  44      AA0FD0A5 
  44      4BA010B4 
  44      419D62B3 
  44      C8
  45 0023 05C570A5 		.ascii	"\005\305p\245\253\263\"\236\305:\204\236\224\"\020\251"
  45      ABB3229E 
  45      C53A849E 
  45      942210A9 
  46 0033 5320D5C1 		.ascii	"S \325\301\272\225T\030}\000?\202_ \2667\243\022z\011"
  46      BA955418 
  46      7D003F82 
  46      5F20B637 
  46      A3127A09 
  47 0047 7ACCCE9B 		.ascii	"z\314\316\233\371\317\274\337\377\261\303\200\301lD"
  47      F9CFBCDF 
  47      FFB1C380 
ARM GAS  /var/folders/c6/c789hm653lg9vtl73krp73tm0000gn/T//ccqGJAXs.s 			page 3


  47      C16C44
  48 0056 E87B4580 		.ascii	"\350{E\200-\312\250\001\262\312;\200\037f\210r\001\010"
  48      2DCAA801 
  48      B2CA3B80 
  48      1F668872 
  48      0108
  49 0068 0586853D 		.ascii	"\005\206\205=TwoYw\020\0047\367\345\3536\326\230\311"
  49      54776F59 
  49      77100437 
  49      F7E5EB36 
  49      D698C9
  50 007b 30A37403 		.ascii	"0\243t\003JBT\242\031\244]R)6\315\262|\007\231\314\332"
  50      4A4254A2 
  50      19A45D52 
  50      2936CDB2 
  50      7C0799CC 
  51 0090 0B14C300 		.ascii	"\013\024\303\0001h\010Q\355>\224{(\252\302\037\006\301"
  51      31680851 
  51      ED3E947B 
  51      28AAC21F 
  51      06C1
  52 00a2 9C8BD4D2 		.ascii	"\234\213\324\322\002\312\262]t\021\243*1}\272\307c\302"
  52      02CAB25D 
  52      7411A32A 
  52      317DBAC7 
  52      63C2
  53 00b4 C01B3CF7 		.ascii	"\300\033<\367\036??\212\346\330n\342\333\355}\365\015"
  53      1E3F3F8A 
  53      E6D86EE2 
  53      DBED7DF5 
  53      0D
  54 00c5 079B18A3 		.ascii	"\007\233\030\243\233\0166\320 \232\352b\031\332\242"
  54      9B0E36D0 
  54      209AEA62 
  54      19DAA2
  55 00d4 E40FCEBE 		.ascii	"\344\017\316\276\317\227\\\324\026\241E;\261\356\242"
  55      CF975CD4 
  55      16A1453B 
  55      B1EEA2
  56 00e3 5E879A5F 		.ascii	"^\207\232_\021\363.\032\322-$(te\034Rv\007\250HWDR\252"
  56      11F32E1A 
  56      D22D2428 
  56      74651C52 
  56      7607A848 
  57 00fb 39EA62AC 		.ascii	"9\352b\254L\232\351\\\264\2364\007/I\373Ek\177\242q"
  57      4C9AE95C 
  57      B49E3407 
  57      2F49FB45 
  57      6B7FA271 
  58 010f 0AAD4951 		.ascii	"\012\255IQ\302:\377\202\261i\230|\335>\370\303\346\235"
  58      C23AFF82 
  58      B169987C 
  58      DD3EF8C3 
  58      E69D
  59 0121 3EFA1193 		.ascii	">\372\021\223\260\311\226\336A\236G,\213\217F\326\343"
  59      B0C996DE 
  59      419E472C 
ARM GAS  /var/folders/c6/c789hm653lg9vtl73krp73tm0000gn/T//ccqGJAXs.s 			page 4


  59      8B8F46D6 
  59      E3
  60 0132 2927CDBD 		.ascii	")'\315\275\\\222{y+\011z\336\315\034\361\331\343\223"
  60      5C927B79 
  60      2B097ADE 
  60      CD1CF1D9 
  60      E393
  61 0144 6C2EEFF1 		.ascii	"l.\357\361m;\261\266\312\343\361\015no&NW\250`?\235"
  61      6D3BB1B6 
  61      CAE3F10D 
  61      6E6F264E 
  61      57A8603F 
  62 0159 3EB452F0 		.ascii	">\264R\360\003\256d\210>"
  62      03AE6488 
  62      3E
  63              		.text
  64              		.section	.gnu.lto_stStopAlarm.2827d8257e33ca20,"",%progbits
  65 0000 789C6362 		.ascii	"x\234cb`b@\007\222@|\024\210\275\201\230\221\231\201"
  65      60624007 
  65      92407C14 
  65      88BD8198 
  65      919981
  66 0013 9169C239 		.ascii	"\221i\3029\006\206F\016&FF\020\203\201\221\241\236\211"
  66      0686460E 
  66      26464610 
  66      838191A1 
  66      9E89
  67 0025 B13E9211 		.ascii	"\261>\222\021\254v=\323\201\007\377\377\257\373\326"
  67      AC763DD3 
  67      8107FFFF 
  67      AFFBD6
  68 0034 36E70DE3 		.ascii	"6\347\015\343l&\026\240\010+CKC\303\004\005\006\206"
  68      6C2616A0 
  68      082B434B 
  68      43C30405 
  68      0686
  69 0046 64B08A10 		.ascii	"d\260\212\020 \011\322\026\312\310\004\242\231\3172"
  69      2009D216 
  69      CAC804A2 
  69      99CF32
  70 0055 1CDA31E7 		.ascii	"\034\3321\347\374\335G\254pu\020\306\201\323\367\016"
  70      FCDD47AC 
  70      707510C6 
  70      81D3F70E 
  71 0065 B2323024 		.ascii	"\26220$2.dd\005j\005\353\325fX\325\320\322\370\340\347"
  71      322E6464 
  71      056A05EB 
  71      D56658D5 
  71      D0D2F8E0 
  72 007a 9BA9F299 		.ascii	"\233\251\362\231\214\014\263\031f5Nh\020\310dd\214`"
  72      8C0CB319 
  72      66354E68 
  72      10C86464 
  72      8C60
  73 008c CC64646A 		.ascii	"\314ddj\000\002\026\0060\023\354\222$\220\226D\306\305"
  73      00021606 
  73      3013EC92 
ARM GAS  /var/folders/c6/c789hm653lg9vtl73krp73tm0000gn/T//ccqGJAXs.s 			page 5


  73      24909644 
  73      C6C5
  74 009e 40ED6051 		.ascii	"@\355`Q\260\340E\206\306\017\217\266\263@L\205\201\020"
  74      B0E04586 
  74      C60F8FB6 
  74      B3404C85 
  74      8110
  75 00b0 A0E940A7 		.ascii	"\240\351@\247\200\264I\352\351\351CP~\261~Fb\216~qQ"
  75      80B449EA 
  75      E9E94350 
  75      7EB17E46 
  75      628E7E71 
  76 00c5 B27E7189 		.ascii	"\262~q\211^2\203>\272LA~QI\261~p\210\257\261\221\276"
  76      5E32833E 
  76      BA4C417E 
  76      5149B17E 
  76      7088AFB1 
  77 00db 8F8F8B7E 		.ascii	"\217\217\213~\210\247o\231!Pm|NN\212^\006\003\000\204"
  77      88A76F99 
  77      21506D7C 
  77      4E4E8A5E 
  77      06030084 
  78 00ef 934DFB   		.ascii	"\223M\373"
  79              		.text
  80              		.section	.gnu.lto_stSetAlarm.2827d8257e33ca20,"",%progbits
  81 0000 789C6362 		.ascii	"x\234cb`b@\007\222@l\300\310\300\020\000\244\031\231"
  81      60624007 
  81      92406CC0 
  81      C8C01000 
  81      A41999
  82 0013 19189926 		.ascii	"\031\030\231&\234c`h\344`bd\0041\030\030\031\352\231"
  82      9C636068 
  82      E4606264 
  82      04311818 
  82      19EA99
  83 0026 18EB2319 		.ascii	"\030\353#\031\301j\3273\035x\360\377\377\272M\355\313"
  83      C16AD733 
  83      1D78F0FF 
  83      FFBA4DED 
  83      CB
  84 0037 DE30CE65 		.ascii	"\3360\316ebeb\314\005\213\2632\26444LP\310e\004\362"
  84      626562CC 
  84      058BB332 
  84      B434344C 
  84      50C86504 
  85 004c 92C12221 		.ascii	"\222\301\"!@\022\244=\224\221\011D3\237dh\342``PbX\330"
  85      4012A43D 
  85      94910944 
  85      339F6468 
  85      E2606050 
  86 0063 D030E9C0 		.ascii	"\3200\351\300\346\366\323\214\015\223\032\032?\374\377"
  86      E6F6D38C 
  86      0D931A1A 
  86      3FFCFF
  87 0072 CF9FC908 		.ascii	"\317\237\311\010t\222\014#H[\004c&#\243\002\230bbAu"
  87      74920C23 
  87      485B0463 
ARM GAS  /var/folders/c6/c789hm653lg9vtl73krp73tm0000gn/T//ccqGJAXs.s 			page 6


  87      2623A302 
  87      98626241 
  88 0087 633AD018 		.ascii	"c:\320\030\206\263\014\207N\357\271\364\274\211\035"
  88      86B30C87 
  88      4EEFB9F4 
  88      BC891D
  89 0096 6A1DCCDE 		.ascii	"j\035\314\336\003\247\337mdMd\\\304\250\004T\231\310"
  89      03A7DF6D 
  89      644D645C 
  89      C4A80454 
  89      99C8
  90 00a8 B8909115 		.ascii	"\270\220\221\025h\032\330\025\272\014k\032Z\032\037"
  90      681AD815 
  90      BA0C6B1A 
  90      5A1A1F
  91 00b7 4CDE3B4D 		.ascii	"L\336;M'\223\221Y\233a\025\220\327`\237\311\3102\233"
  91      27939159 
  91      9B611590 
  91      D7609FC9 
  91      C8329B
  92 00ca 6156E384 		.ascii	"aV\343\204\006\201LFV\220ml\015@\300\002\266\230\015"
  92      06814C46 
  92      56906D6C 
  92      0D40C002 
  92      B6980D
  93 00dd 6C5D1223 		.ascii	"l]\022#\330\244\245@\223\300\242\354\020W@E\300\216"
  93      D8A4A540 
  93      93C0A2EC 
  93      10574045 
  93      C08E
  94 00ef B9C8D0F8 		.ascii	"\271\310\320\370\341\321n\026\210u0\020\002\264\026"
  94      E1D16E16 
  94      88753010 
  94      02B416
  95 00fe E85B5018 		.ascii	"\350[P\030K\352\351\351CP~\261~Fb\216~qQ\262~q\211^"
  95      4BEAE9E9 
  95      43507EB1 
  95      7E46628E 
  95      7E7151B2 
  96 0116 32034B49 		.ascii	"2\003KIfn\252>\272tA~QI\261~p\210\257\261\221\276\217"
  96      666EAA3E 
  96      BA74417E 
  96      5149B17E 
  96      7088AFB1 
  97 012d 8F8B7E88 		.ascii	"\217\213~\210\247o\231!PC|NN\212^\006\003\000 \006c"
  97      A76F9921 
  97      50437C4E 
  97      4E8A5E06 
  97      03002006 
  98 0142 EB       		.ascii	"\353"
  99              		.text
 100              		.section	.gnu.lto_stGetAlarm.2827d8257e33ca20,"",%progbits
 101 0000 789C6362 		.ascii	"x\234cb`b@\007\222@\374\014\210\275\201\230\221\231"
 101      60624007 
 101      9240FC0C 
 101      88BD8198 
 101      9199
ARM GAS  /var/folders/c6/c789hm653lg9vtl73krp73tm0000gn/T//ccqGJAXs.s 			page 7


 102 0012 819169C2 		.ascii	"\201\221i\3029\006\206F\016&FF\020\203\201\221\241\236"
 102      39068646 
 102      0E264646 
 102      10838191 
 102      A19E
 103 0024 89B13E92 		.ascii	"\211\261>\222\021\254v=\323\201\007\377\377\257\373"
 103      11AC763D 
 103      D38107FF 
 103      FFAFFB
 104 0033 D43EEF0D 		.ascii	"\324>\357\015\343|&\026f\206L\2608+CKC\303\004\205\\"
 104      E37C2616 
 104      66864CB0 
 104      382B434B 
 104      43C30485 
 105 0048 1027192C 		.ascii	"\020'\031,\022\002$A\332C\031\231@4\363Y\206Cw\346\234"
 105      12022441 
 105      DA431999 
 105      4034F359 
 105      864377E6 
 106 005d FF6A0455 		.ascii	"\377j\004U\011\323r\340\344?\240\302D\306\205\214\254"
 106      09D372E0 
 106      E43FA0C2 
 106      44C6858C 
 106      AC
 107 006e 408D609D 		.ascii	"@\215`\235\351\214\314\272\014k\032Z\032\037\374\\3"
 107      E98CCCBA 
 107      0C6B1A5A 
 107      1A1FFC5C 
 107      33
 108 007f 5D2A9391 		.ascii	"]*\223\221Q\233a\025\220\3270\2311\223\221i6\303\254"
 108      519B6115 
 108      90D73099 
 108      31939169 
 108      36C3AC
 109 0092 C6090D02 		.ascii	"\306\011\015\002\231\214\314\021@.K\003\020\2600\200"
 109      998CCC11 
 109      402E4B03 
 109      10B03080 
 110 00a2 9960E725 		.ascii	"\231`\347%\201LHd\\\0144\015,\312\012\361!T\204\201"
 110      814C4864 
 110      5C0C340D 
 110      2CCA0AF1 
 110      21548481 
 111 00b6 E12243E3 		.ascii	"\341\"C\343\207K\373y \366\001-\202H\207\000-\006\272"
 111      874BFB79 
 111      20F6012D 
 111      82488700 
 111      2D06BA
 112 00c9 11143292 		.ascii	"\021\0242\222zz\372\020\224_\254\237\221\230\243_\\"
 112      7A7AFA10 
 112      945FAC9F 
 112      9198A35F 
 112      5C
 113 00da 94AC5F5C 		.ascii	"\224\254_\\\242\227\314\240\217.S\220_TR\254\037\034"
 113      A297CCA0 
 113      8F2E5390 
 113      5F5452AC 
ARM GAS  /var/folders/c6/c789hm653lg9vtl73krp73tm0000gn/T//ccqGJAXs.s 			page 8


 113      1F1C
 114 00ec E26B6CA4 		.ascii	"\342kl\244\357\343\343\242\037\342\351[f\010T\033\237"
 114      EFE3E3A2 
 114      1FE2E95B 
 114      6608541B 
 114      9F
 115 00fd 9393A297 		.ascii	"\223\223\242\227\301\000\000\016\201Sb"
 115      C100000E 
 115      815362
 116              		.text
 117              		.section	.gnu.lto_.symbol_nodes.2827d8257e33ca20,"",%progbits
 118 0000 789C4DC7 		.ascii	"x\234M\307\271\015\2000\024D\301\375\317\270R\012YK"
 118      B90D8030 
 118      1444C1FD 
 118      CFB8520A 
 118      594B
 119 0012 5C764605 		.ascii	"\\vF\005\224D\015T\202\010@\302\223\015B\243>\314X\332"
 119      94440D54 
 119      820840C2 
 119      930D42A3 
 119      3ECC58DA 
 120 0026 4FC93E6A 		.ascii	"O\311>j\260\340\350\272b\272n8u\255x\370\033\015\347"
 120      B0E0E8BA 
 120      62BA6E38 
 120      75AD78F8 
 120      1B0DE7
 121 0039 B7A54452 		.ascii	"\267\245DR\326t\335\241\007\314\005\035\206"
 121      D674DDA1 
 121      07CC051D 
 121      86
 122              		.text
 123              		.section	.gnu.lto_.refs.2827d8257e33ca20,"",%progbits
 124 0000 789C6362 		.ascii	"x\234cb`b`d\200\002\000\000F\000\006"
 124      60626064 
 124      80020000 
 124      460006
 125              		.text
 126              		.section	.gnu.lto_.decls.2827d8257e33ca20,"",%progbits
 127 0000 789CB558 		.ascii	"x\234\265X}l\024E\024\237\331;\312]{@\251\212%1\241"
 127      7D6C1445 
 127      149FD93B 
 127      CA5D7B40 
 127      A98A2531 
 128 0015 18308684 		.ascii	"\0300\206\204n?P\360\037\004\257\204\222P \327\2224"
 128      6E3F50F0 
 128      1F04AF84 
 128      925020D7 
 128      9234
 129 0027 D1E41CAE 		.ascii	"\321\344\034\256\007mr\375\310\335\326\204\377\246-"
 129      076D72FD 
 129      C8DDD684 
 129      FFA62D
 130 0036 6015488E 		.ascii	"`\025H\216\012Z\010\201\362U )\321T\254\024(\034\337"
 130      0A5A0881 
 130      F2552029 
 130      D154AC14 
 130      281CDF
ARM GAS  /var/folders/c6/c789hm653lg9vtl73krp73tm0000gn/T//ccqGJAXs.s 			page 9


 131 0049 35888215 		.ascii	"5\210\202\025\010\340\307\211!\205\030\245\246\362)"
 131      08E0C789 
 131      218518A5 
 131      A6F229
 132 0058 F67C3BBB 		.ascii	"\366|;\273{7\273\335-wD7\274\327\271\335\367~\363\233"
 132      7B37BBDD 
 132      2D774437 
 132      BCD7B9DD 
 132      F77EF39B 
 133 006c F7DEECBE 		.ascii	"\367\336\354\276A@\002\332\212\021\212\301\365\362s"
 133      414002DA 
 133      8A118AC1 
 133      F5F273
 134 007b 08B50B08 		.ascii	"\010\265\013\010\245!\204f\243\304%\377\336\001\322"
 134      A5218466 
 134      A3C425FF 
 134      DE01D2
 135 008a 0ED205D2 		.ascii	"\016\322\005\322\015\322\003r\002\015\277d;\200@\247"
 135      0DD20372 
 135      020DBF64 
 135      3B8040A7 
 136 009a 4076AAF7 		.ascii	"@v\252\367\004\365\276\231\275\214\351\000\331\0172"
 136      04F5BE99 
 136      BD8CE900 
 136      D90F32
 137 00a9 16C40572 		.ascii	"\026\304\005r\032\344\014H/\310C\020;\210\015\244\037"
 137      1AE40C48 
 137      2FC84310 
 137      3B880DA4 
 137      1F
 138 00ba E432489F 		.ascii	"\3442H\237\212)\373>R\307\237\203\014\031\260\273T\277"
 138      8A29FB3E 
 138      52C79F83 
 138      0C19B0BB 
 138      54BF
 139 00cc D31C16E6 		.ascii	"\323\034\026\346\374\345\347\016<\234Sw\222\234\260"
 139      FCE5E70E 
 139      3C9C5377 
 139      929CB0
 140 00db CA49507D 		.ascii	"\312IP}2\2602>\0022\316\200+\307+M\305|\032\226l\373"
 140      32B0323E 
 140      0232CE80 
 140      2BC72B4D 
 140      C57C1A96 
 141 00f1 3C56EEBD 		.ascii	"<V\356\275h\300\231\204\266\321\266ht\365\366\363\230"
 141      68C09984 
 141      B6D1B668 
 141      74F5F6F3 
 141      98
 142 0102 B6D027B1 		.ascii	"\266\320'\261\230\015M@\233(\\mk(\305\022\301\263_@"
 142      980D4D40 
 142      9B285C6D 
 142      6B28C512 
 142      C1B35F40 
 143 0116 E598E0B1 		.ascii	"\345\230\340\261N\224\303\006.'\233\000!\202w\342\011"
 143      4E94C306 
 143      2E279B00 
ARM GAS  /var/folders/c6/c789hm653lg9vtl73krp73tm0000gn/T//ccqGJAXs.s 			page 10


 143      218277E2 
 143      09
 144 0127 EA68A94D 		.ascii	"\352h\251M\201\023\320K\030MC\373\301?L\351\315\254"
 144      8113D04B 
 144      184D43FB 
 144      C13F4CE9 
 144      CDAC
 145 0139 E1C180EB 		.ascii	"\341\301\200\353\025\264G\236\200\356\2436\006/\003"
 145      15B4479E 
 145      80EEA336 
 145      062F03
 146 0148 ECC09378 		.ascii	"\354\300\223x\023\202wa\301\3103:\0209|\326\025n\210"
 146      13827761 
 146      C1C8333A 
 146      10397CD6 
 146      156E88
 147 015b C6629392 		.ascii	"\306b\223\222'\271W%ic\261@N\324Li\243\354X\334\013"
 147      27B95725 
 147      6963B140 
 147      4ED44C69 
 147      A3EC58DC 
 148 0170 C930F39A 		.ascii	"\3110\363\232\212v\003\375\350\027\007\372\004J\035"
 148      8A7603FD 
 148      E81707FA 
 148      044A1D
 149 017f 04EFC74E 		.ascii	"\004\357\307N\360]\214\001l7\236\246\022J\036gp\315"
 149      F05D8C01 
 149      6C379EA6 
 149      124A1E67 
 149      70CD
 150 0191 9913B811 		.ascii	"\231\023\270\021x\022\334\301\220\332\361\263B\035_"
 150      7812DCC1 
 150      90DAF1B3 
 150      421D5F
 151 01a0 7BF40D46 		.ascii	"{\364\015F\351S\006\264N\320\003\021<\332\251\217\""
 151      E95306B4 
 151      4ED00311 
 151      3CDAA98F 
 151      22
 152 01b1 FCD60C64 		.ascii	"\374\326\014d4\366X\035\310;t\034\372\237\315\023\225"
 152      34F6581D 
 152      C83B741C 
 152      FA9FCD13 
 152      95
 153 01c2 C18AE313 		.ascii	"\301\212\343\023\003\341)h\027\245-\321=\375\267m\233"
 153      03E12968 
 153      17A52DD1 
 153      3DFDB76D 
 153      9B
 154 01d3 69C4AE85 		.ascii	"i\304\256\205z73k\207\2220\213\205b\225\250\243\365"
 154      7A37336B 
 154      8792308B 
 154      856295A8 
 154      A3F5
 155 01e5 7475268E 		.ascii	"tu&\216\027R\273\261\220:M\013\351\276VHJ\025\013\250"
 155      1752BBB1 
 155      903A4D0B 
ARM GAS  /var/folders/c6/c789hm653lg9vtl73krp73tm0000gn/T//ccqGJAXs.s 			page 11


 155      E9BE5648 
 155      4A150BA8 
 156 01f9 C340CDBC 		.ascii	"\303@\315\274L\273\214\350_\232\242w\236\213\243\357"
 156      4CBB8CE8 
 156      5F9AA277 
 156      9E8BA3EF 
 157 0209 65E8874C 		.ascii	"e\350\207L\027N\037T\024+\253!\370 \000\021\334\375"
 157      174E1F54 
 157      142BAB21 
 157      F8200011 
 157      DCFD
 158 021b 4C6BEE36 		.ascii	"Lk\3566\262:l\312j\360\334\372\211\264\2551\022\213"
 158      B23A6CCA 
 158      6AF0DCFA 
 158      89B4AD31 
 158      128B
 159 022d BD69DCE4 		.ascii	"\275i\334\3442\272\325\006:f\262\313O\231G\253\221v"
 159      32BAD506 
 159      3A66B2CB 
 159      4F9947AB 
 159      9176
 160 023f EEA34E8D 		.ascii	"\356\243N\215,\301=\026\313Q\361\216\233\320\014G{\256"
 160      2CC13D16 
 160      CB51F18E 
 160      9BD00C47 
 160      7BAE
 161 0251 DC6DC01B 		.ascii	"\334m\300\033\232\332z\351\200\\CZ\202\206\206M\251"
 161      9ADA7AE9 
 161      805C435A 
 161      8286864D 
 161      A9
 162 0262 809CD483 		.ascii	"\200\234\324\203d\240\017\023\233I\361\265Z\330)\234"
 162      64A00F13 
 162      9B49F1B5 
 162      5AD8299C 
 163 0272 A179B12D 		.ascii	"\241y\261-\3304\342\026$\370\000\236\232T\321\217Ga"
 163      D834E216 
 163      24F8009E 
 163      9A54D18F 
 163      4761
 164 0284 39B639F2 		.ascii	"9\2669\362\374\247\023\201\245X\203\313ds\362f\035\326"
 164      FCA71381 
 164      A55883CB 
 164      6473F266 
 164      1DD6
 165 0296 66049FC5 		.ascii	"f\004\237\305\343\023$i|i.\353\224\235S\212E\273\035"
 165      E3132469 
 165      7C692EEB 
 165      949D538A 
 165      45BB1D
 166 02a9 1F24F622 		.ascii	"\037$\366\"o\205\262\320\006\225I|\3514M\363y\027%\336"
 166      6F85B2D0 
 166      0695497C 
 166      E9344DF3 
 166      791725DE 
 167 02bd 88D7EFBD 		.ascii	"\210\327\357\275\316^?\2758\0132\322c\323g\344\2510"
 167      CE5E3FBD 
ARM GAS  /var/folders/c6/c789hm653lg9vtl73krp73tm0000gn/T//ccqGJAXs.s 			page 12


 167      380B32D2 
 167      63D367E4 
 167      A930
 168 02cf F2A4E7C1 		.ascii	"\362\244\347\301Uqb\2404\362\317u\027\265+\367\221I"
 168      557162A0 
 168      34F2CF75 
 168      17B52BF7 
 168      9149
 169 02e1 82D56B32 		.ascii	"\202\325k2j\243\253\232\"\261\353[\241\204Ob%\260\002"
 169      6AA3AB9A 
 169      22B1EB5B 
 169      A1844F62 
 169      25B002
 170 02f4 FA8A5190 		.ascii	"\372\212Q\220}\315B\021_\276\026\213\261N\003^\370\206"
 170      7DCD4211 
 170      5FBE168B 
 170      B14E035E 
 170      F886
 171 0306 2B4C34B0 		.ascii	"+L4\260\013)\203\345\350\300Zx\260K\311\2009\254\231"
 171      0B2983E5 
 171      E8C05A78 
 171      B04BC980 
 171      39AC99
 172 0319 6DE4C1AE 		.ascii	"m\344\301\256\244\014\246g\3661\017v#\031\260Lkf\255"
 172      A40CA667 
 172      F6310F76 
 172      2319B04C 
 172      6B66AD
 173 032c 3CD84F29 		.ascii	"<\330O)\203\351\231m\341\301n&\003\226m\315l+\017v;"
 173      83E9996D 
 173      E1C16E26 
 173      03966DCD 
 173      6C2B0F76 
 174 0341 65303DB3 		.ascii	"e0=\263m<\330\037\311\200\345X3\373\214\007\033L\031"
 174      6D3CD81F 
 174      C980E558 
 174      33FB8C07 
 174      1B4C19
 175 0354 4CCFAC93 		.ascii	"L\317\254\223\007{\220\014\330\253\326\314\016\362`"
 175      077B900C 
 175      D8ABD6CC 
 175      0EF260
 176 0363 7FA70CA6 		.ascii	"\177\247\014\246g\326\305\203\305\222\001\313\263b\326"
 176      67D6C583 
 176      C59201CB 
 176      B362D6
 177 0372 1039F4B6 		.ascii	"\0209\364\266\214u\006^~\002j\262\033\260\364oI30=\263"
 177      8C75065E 
 177      7E026AB2 
 177      1BB0F46F 
 177      4933303D 
 178 0387 C33CB3F7 		.ascii	"\303<\263\367\215hf\314\346X\203\035\345\301\326%\003"
 178      8D6866CC 
 178      E658831D 
 178      E5C1D625 
 178      03
 179 0398 566C9D80 		.ascii	"Vl\235\200c<X8e0=\263\213<\330\246d\300\226X3\373\216"
ARM GAS  /var/folders/c6/c789hm653lg9vtl73krp73tm0000gn/T//ccqGJAXs.s 			page 13


 179      633C5838 
 179      65303DB3 
 179      8B3CD8A6 
 179      64C09658 
 180 03af 076B4D19 		.ascii	"\007kM\031\214g\326\020\371\036\262\251~\361\332\346"
 180      8C67D610 
 180      F91EB2A9 
 180      7EF1DAE6 
 181 03bf 18BE8C73 		.ascii	"\030\276\214s\364\2570\235Y\207\245\031\301\367R\376"
 181      F4AF309D 
 181      5987A519 
 181      C1F752FE 
 182 03cf 30DEB7F8 		.ascii	"0\336\267\3700\362\247\242\204\025,{\233q\331:\022\352"
 182      30F2A7A2 
 182      84152C7B 
 182      9B71D93A 
 182      12EA
 183 03e1 B0DC2486 		.ascii	"\260\334$\206f\027\377\365#\370k\326N\\\300\223A\177"
 183      6617FFF5 
 183      23F86BD6 
 183      4E5CC093 
 183      417F
 184 03f3 CBF425A6 		.ascii	"\313\364%\246\373\230\276\314\364U\246\2571}\203\351"
 184      FB98BECC 
 184      F455A6AF 
 184      317D83E9 
 185 0403 1F99FE99 		.ascii	"\037\231\376\231\351_\230\376\225\351[L\3673}\207\351"
 185      E95F98FE 
 185      95E95B4C 
 185      F7337D87 
 185      E9
 186 0414 DF98FE9D 		.ascii	"\337\230\376\235\351\273L\377\311\364 \350\370eh\227"
 186      E9BB4CFF 
 186      C9F420E8 
 186      F8656897 
 187 0424 7A2DF22B 		.ascii	"z-\362+s\177\230h\227\344N-2\000\235\3327'qK\023U:\265"
 187      737F9868 
 187      97E44E2D 
 187      32009DDA 
 187      3727714B 
 188 043c 3687D6ED 		.ascii	"6\207\326\355\356\262\233v\273}\376b\255\303\357b\026"
 188      EEB29B76 
 188      BB7DFE62 
 188      ADC3EF62 
 188      16
 189 044d 8F92EC76 		.ascii	"\217\222\354v\257\321%\331\361f\367\221\261\331}\254"
 189      AFD125D9 
 189      F166F791 
 189      B1D97DAC 
 190 045d 6F005F46 		.ascii	"o\000_F;\350\305\213\321[\375\255\2709\012\247\320\241"
 190      3BE8C58B 
 190      D15BFDAD 
 190      B8390AA7 
 190      D0A1
 191 046f 580C6BAD 		.ascii	"X\014k\255V\353X\365\254\025\335\023\311nM\264)\016"
 191      56EB58F5 
 191      AC15DD13 
ARM GAS  /var/folders/c6/c789hm653lg9vtl73krp73tm0000gn/T//ccqGJAXs.s 			page 14


 191      C96E4DB4 
 191      290E
 192 0481 BE0E94BE 		.ascii	"\276\016\224\276\004\034\204\2701\315\3166\267%\270"
 192      041C84B8 
 192      31CDCE36 
 192      B725B8
 193 0490 4190B3D8 		.ascii	"A\220\263\330($\352J\031k\243\030;\304\037\261\233\374"
 193      2824EA4A 
 193      196BA318 
 193      3BC41FB1 
 193      9BFC
 194 04a2 BF80427F 		.ascii	"\277\200B\177dWu\322Jm\3221\3146\261\036\305\322\334"
 194      645775D2 
 194      4A6DD231 
 194      CC36B11E 
 194      C5D2DC
 195 04b5 8AE05542 		.ascii	"\212\340UB\252\033d\265`\276A\\:\316\232\025\254,b7"
 195      AA1B64B5 
 195      60BE415C 
 195      3ACE9A15 
 195      AC2C6237 
 196 04c9 9CD50C24 		.ascii	"\234\325\014$\240GS\327Np:\346J\347\007C\351(]\376U"
 196      A04753D7 
 196      4E703AE6 
 196      4AE70743 
 196      E9285DFE 
 197 04de 43E9981F 		.ascii	"C\351\230\037\303\232\005C\015| \014;ID\006\"[\316+"
 197      C39A0543 
 197      0D7C200C 
 197      3B494406 
 197      225BCE2B 
 198 04f2 C7B0ED91 		.ascii	"\307\260\355\221L\2554\357\230\227\346q\177\374 \366"
 198      4CAD34EF 
 198      9897E671 
 198      7FFC20F6 
 199 0502 841DC4D6 		.ascii	"\204\035\304\326\012\317P\232k\215\264\326\011\246\245"
 199      0ACF509A 
 199      6B8DB4D6 
 199      09A6A5
 200 0511 79DFB434 		.ascii	"y\337\2644\011\246\211T\226k\223f\214\224p\203\025\301"
 200      09A68954 
 200      966B9366 
 200      8C947083 
 200      15C1
 201 0523 1B524E78 		.ascii	"\033RNx\213E\302\323u\013\321\254`\270F0\034T\015$\004"
 201      8B45C2D3 
 201      750BD1AC 
 201      60B84630 
 201      1C540D24 
 202 0538 F4D83CE1 		.ascii	"\364\330<\341\177\265\340\217\370\204\037c\011i\036"
 202      7FB5E08F 
 202      F8841F63 
 202      09691E
 203 0547 95D44972 		.ascii	"\225\324Ir\243E>\324\2116\231\007z\210\0134\301a\010"
 203      A3453ED4 
 203      89369907 
 203      7A880B34 
ARM GAS  /var/folders/c6/c789hm653lg9vtl73krp73tm0000gn/T//ccqGJAXs.s 			page 15


 203      C16108
 204 055a 8EC6BF67 		.ascii	"\216\306\277g\004\376\233G\361\374\321\304\334\\Q\371"
 204      04FE9B47 
 204      F1FCD1C4 
 204      DC5C51F9 
 205 056a 571B122B 		.ascii	"W\033\022+I@\014\005}bH\312\365\241\264\220\264\240"
 205      49400C05 
 205      7D6248CA 
 205      F5A1B490 
 205      B4A0
 206 057c A64A4A9B 		.ascii	"\246JJ\233\277hi\216\033M\341\355\202\222XU\343\013"
 206      BF68698E 
 206      1B4DE1ED 
 206      82925855 
 206      E30B
 207 058e D457F845 		.ascii	"\324W\370E_eheHZY\347\017\345V\"\247<\256\252\366{\245"
 207      5F656865 
 207      485A59E7 
 207      0FE55622 
 207      A73CAEAA 
 208 05a5 85627D28 		.ascii	"\205b}((\006j}\200\350\366\007\002$(\256\360\371\246"
 208      28066A7D 
 208      80E8F607 
 208      022428AE 
 208      F0F9A6
 209 05b8 9360F5F4 		.ascii	"\223`\365\364\232\332\032\377t?YV%\026\344\345\317\310"
 209      9ADA1AFF 
 209      743F5956 
 209      2516E4E5 
 209      CFC8
 210 05ca 9B95F79A 		.ascii	"\233\225\367\232\250\277\255A\207\244\212\252\032\011"
 210      A8BFAD41 
 210      87A48AAA 
 210      1A09
 211 05d8 601DF5F0 		.ascii	"`\035\365\360\267\260\300+\275\363\037\240V\023_eU\215"
 211      B7B0C02B 
 211      BDF31FA0 
 211      56135F65 
 211      558D
 212 05ea 5FF456F8 		.ascii	"_\364V\370\227\223\372\200\344\325\310\247{\275\332"
 212      9793FA80 
 212      E4D5C8A7 
 212      7BBDDA
 213 05f9 3CAE9054 		.ascii	"<\256\220T*\221\2404\027f\250\036M\226\261Ee\3107k\353"
 213      2A91A034 
 213      1766A81E 
 213      4D96B145 
 213      65C8376B 
 214 060e D8BD7418 		.ascii	"\330\275t\030\373%m8_\035\212\306X\326\325\006\245\220"
 214      FB256D38 
 214      5F1D8AC6 
 214      58D6D506 
 214      A590
 215 0620 585A5652 		.ascii	"XZVRX .\\X$\226-(y/\037\326\345\015\004*`\306\014e\344"
 215      58202E5C 
 215      5824962D 
 215      28792F1F 
ARM GAS  /var/folders/c6/c789hm653lg9vtl73krp73tm0000gn/T//ccqGJAXs.s 			page 16


 215      D6E50D04 
 216 063a AD823017 		.ascii	"\255\2020\027$\353[-\023\254\252V\334\325\037^\311\346"
 216      24EB5B2D 
 216      13ACAA56 
 216      DCD51F5E 
 216      C9E6
 217 064c F6E48314 		.ascii	"\366\344\203\024\330KK\334\036{\321\202y\036\241\324"
 217      D84B4BDC 
 217      1E7BD182 
 217      791EA1D4 
 218 065c 639B37DF 		.ascii	"c\2337\3373\312\355.\361\3443]`w\273\347yl\356Ee\266"
 218      33CAED2E 
 218      F1E4335D 
 218      6077BBE7 
 218      796CEE45 
 219 0672 25A56EDB 		.ascii	"%\245n\333\\\217\307\346q\303opx\253\250\314c+\222="
 219      5C8FC7E6 
 219      71C36F70 
 219      78ABA8CC 
 219      632B923D 
 220 0686 4BE67A84 		.ascii	"K\346z\204\305\212W!\330\227{\262T\222!9 ^\"\257\323"
 220      C58A5721 
 220      D8977BB2 
 220      54922139 
 220      205E22AF 
 221 069b 2E87C3EE 		.ascii	".\207\303\356\253$A\207\327\273\274\276\306\347\365"
 221      AB244187 
 221      D7BBBCBE 
 221      C6E7F5
 222 06aa 8ED106B9 		.ascii	"\216\321\006\2713\013\012g\216\217\373\324\326).\231"
 222      330B0A67 
 222      8E8FFBD4 
 222      D6292E99 
 223 06ba DA1DBF8A 		.ascii	"\332\035\277\212\301;\314\230\241=^a\372x\326\277|\254"
 223      C13BCC98 
 223      A13D5E61 
 223      FA78D6BF 
 223      7CAC
 224 06cc 8593     		.ascii	"\205\223"
 225              		.text
 226              		.section	.gnu.lto_.symtab.2827d8257e33ca20,"",%progbits
 227 0000 7374496E 		.ascii	"stInit\000\000\000\000\000\000\000\000\000\000\000\000"
 227      69740000 
 227      00000000 
 227      00000000 
 227      0000
 228 0012 A1000000 		.ascii	"\241\000\000\000stStartAlarm\000\000\000\000\000\000"
 228      73745374 
 228      61727441 
 228      6C61726D 
 228      00000000 
 229 0028 00000000 		.ascii	"\000\000\000\000\000\000\246\000\000\000stStopAlarm"
 229      0000A600 
 229      00007374 
 229      53746F70 
 229      416C6172 
 230 003d 00000000 		.ascii	"\000\000\000\000\000\000\000\000\000\000\000\000\266"
ARM GAS  /var/folders/c6/c789hm653lg9vtl73krp73tm0000gn/T//ccqGJAXs.s 			page 17


 230      00000000 
 230      00000000 
 230      B6
 231 004a 00000073 		.ascii	"\000\000\000stSetAlarm\000\000\000\000\000\000\000\000"
 231      74536574 
 231      416C6172 
 231      6D000000 
 231      00000000 
 232 005f 00000000 		.ascii	"\000\000\000\000\271\000\000\000stGetAlarm\000\000\000"
 232      B9000000 
 232      73744765 
 232      74416C61 
 232      726D0000 
 233 0074 00000000 		.ascii	"\000\000\000\000\000\000\000\000\000\275\000\000\000"
 233      00000000 
 233      00BD0000 
 233      00
 234 0081 73745F6C 		.ascii	"st_lld_init\000\000\002\000\000\000\000\000\000\000"
 234      6C645F69 
 234      6E697400 
 234      00020000 
 234      00000000 
 235 0096 0000C100 		.ascii	"\000\000\301\000\000\000"
 235      0000
 236              		.text
 237              		.section	.gnu.lto_.opts,"",%progbits
 238 0000 272D6D63 		.ascii	"'-mcpu=cortex-m4' '-mno-thumb-interwork' '-mthumb' "
 238      70753D63 
 238      6F727465 
 238      782D6D34 
 238      2720272D 
 239 0033 272D6767 		.ascii	"'-ggdb' '-O2' '-fomit-frame-pointer' '-falign-funct"
 239      64622720 
 239      272D4F32 
 239      2720272D 
 239      666F6D69 
 240 0066 696F6E73 		.ascii	"ions=16' '-ffunction-sections' '-fdata-sections' '-"
 240      3D313627 
 240      20272D66 
 240      66756E63 
 240      74696F6E 
 241 0099 666E6F2D 		.ascii	"fno-common' '-flto'\000"
 241      636F6D6D 
 241      6F6E2720 
 241      272D666C 
 241      746F2700 
 242              		.text
 243              		.cfi_sections	.debug_frame
 244              		.section	.text.stInit,"ax",%progbits
 245              		.align	2
 246              		.p2align 4,,15
 247              		.global	stInit
 248              		.thumb
 249              		.thumb_func
 250              		.type	stInit, %function
 251              	stInit:
 252              	.LFB260:
ARM GAS  /var/folders/c6/c789hm653lg9vtl73krp73tm0000gn/T//ccqGJAXs.s 			page 18


 253              		.file 1 "../../../os/hal/src/st.c"
 254              		.loc 1 60 0
 255              		.cfi_startproc
 256              		@ args = 0, pretend = 0, frame = 0
 257              		@ frame_needed = 0, uses_anonymous_args = 0
 258              		@ link register save eliminated.
 259              		.loc 1 62 0
 260 0000 FFF7FEBF 		b	st_lld_init
 261              	.LVL0:
 262              		.cfi_endproc
 263              	.LFE260:
 264              		.size	stInit, .-stInit
 265 0004 AFF30080 		.section	.text.stStartAlarm,"ax",%progbits
 265      AFF30080 
 265      AFF30080 
 266              		.align	2
 267              		.p2align 4,,15
 268              		.global	stStartAlarm
 269              		.thumb
 270              		.thumb_func
 271              		.type	stStartAlarm, %function
 272              	stStartAlarm:
 273              	.LFB261:
 274              		.loc 1 77 0
 275              		.cfi_startproc
 276              		@ args = 0, pretend = 0, frame = 0
 277              		@ frame_needed = 0, uses_anonymous_args = 0
 278              		@ link register save eliminated.
 279              	.LVL1:
 280              	.LBB10:
 281              	.LBB11:
 282              		.file 2 "../../../os/hal/ports/STM32/LLD/TIMv1/st_lld.h"
 283              		.loc 2 143 0
 284 0000 4FF08043 		mov	r3, #1073741824
 285              	.LVL2:
 286              		.loc 2 144 0
 287 0004 0021     		movs	r1, #0
 288              		.loc 2 145 0
 289 0006 0222     		movs	r2, #2
 290              		.loc 2 143 0
 291 0008 5863     		str	r0, [r3, #52]
 292              		.loc 2 144 0
 293 000a 1961     		str	r1, [r3, #16]
 294              		.loc 2 145 0
 295 000c DA60     		str	r2, [r3, #12]
 296 000e 7047     		bx	lr
 297              	.LBE11:
 298              	.LBE10:
 299              		.cfi_endproc
 300              	.LFE261:
 301              		.size	stStartAlarm, .-stStartAlarm
 302              		.section	.text.stStopAlarm,"ax",%progbits
 303              		.align	2
 304              		.p2align 4,,15
 305              		.global	stStopAlarm
 306              		.thumb
 307              		.thumb_func
ARM GAS  /var/folders/c6/c789hm653lg9vtl73krp73tm0000gn/T//ccqGJAXs.s 			page 19


 308              		.type	stStopAlarm, %function
 309              	stStopAlarm:
 310              	.LFB262:
 311              		.loc 1 91 0
 312              		.cfi_startproc
 313              		@ args = 0, pretend = 0, frame = 0
 314              		@ frame_needed = 0, uses_anonymous_args = 0
 315              		@ link register save eliminated.
 316              	.LBB12:
 317              	.LBB13:
 318              		.loc 2 155 0
 319 0000 4FF08043 		mov	r3, #1073741824
 320 0004 0022     		movs	r2, #0
 321 0006 DA60     		str	r2, [r3, #12]
 322 0008 7047     		bx	lr
 323              	.LBE13:
 324              	.LBE12:
 325              		.cfi_endproc
 326              	.LFE262:
 327              		.size	stStopAlarm, .-stStopAlarm
 328              		.section	.text.stSetAlarm,"ax",%progbits
 329              		.align	2
 330              		.p2align 4,,15
 331              		.global	stSetAlarm
 332              		.thumb
 333              		.thumb_func
 334              		.type	stSetAlarm, %function
 335              	stSetAlarm:
 336              	.LFB263:
 337              		.loc 1 105 0
 338              		.cfi_startproc
 339              		@ args = 0, pretend = 0, frame = 0
 340              		@ frame_needed = 0, uses_anonymous_args = 0
 341              		@ link register save eliminated.
 342              	.LVL3:
 343              	.LBB14:
 344              	.LBB15:
 345              		.loc 2 167 0
 346 0000 4FF08043 		mov	r3, #1073741824
 347              	.LVL4:
 348 0004 5863     		str	r0, [r3, #52]
 349 0006 7047     		bx	lr
 350              	.LBE15:
 351              	.LBE14:
 352              		.cfi_endproc
 353              	.LFE263:
 354              		.size	stSetAlarm, .-stSetAlarm
 355 0008 AFF30080 		.section	.text.stGetAlarm,"ax",%progbits
 355      AFF30080 
 356              		.align	2
 357              		.p2align 4,,15
 358              		.global	stGetAlarm
 359              		.thumb
 360              		.thumb_func
 361              		.type	stGetAlarm, %function
 362              	stGetAlarm:
 363              	.LFB264:
ARM GAS  /var/folders/c6/c789hm653lg9vtl73krp73tm0000gn/T//ccqGJAXs.s 			page 20


 364              		.loc 1 121 0
 365              		.cfi_startproc
 366              		@ args = 0, pretend = 0, frame = 0
 367              		@ frame_needed = 0, uses_anonymous_args = 0
 368              		@ link register save eliminated.
 369              	.LBB16:
 370              	.LBB17:
 371              		.loc 2 179 0
 372 0000 4FF08043 		mov	r3, #1073741824
 373 0004 586B     		ldr	r0, [r3, #52]
 374              	.LBE17:
 375              	.LBE16:
 376              		.loc 1 126 0
 377 0006 7047     		bx	lr
 378              		.cfi_endproc
 379              	.LFE264:
 380              		.size	stGetAlarm, .-stGetAlarm
 381 0008 AFF30080 		.text
 381      AFF30080 
 382              	.Letext0:
 383              		.file 3 "/usr/local/Cellar/gcc-arm-none-eabi/20140805/arm-none-eabi/include/machine/_default_types
 384              		.file 4 "/usr/local/Cellar/gcc-arm-none-eabi/20140805/arm-none-eabi/include/stdint.h"
 385              		.file 5 "../../../os/rt/ports/ARMCMx/compilers/GCC/chtypes.h"
 386              		.file 6 "../../../os/rt/include/chsystypes.h"
 387              		.file 7 "../../../os/rt/include/chschd.h"
 388              		.file 8 "../../../os/rt/ports/ARMCMx/chcore.h"
 389              		.file 9 "../../../os/rt/ports/ARMCMx/chcore_v7m.h"
 390              		.file 10 "../../../os/hal/ports/STM32/LLD/TIMv1/stm32_tim.h"
 391              		.file 11 "../../../os/rt/include/chtm.h"
 392              		.file 12 "../../../os/rt/include/chsem.h"
 393              		.file 13 "../../../os/rt/include/chmtx.h"
 394              		.file 14 "../../../os/ext/CMSIS/include/core_cm4.h"
 395              		.section	.debug_info,"",%progbits
 396              	.Ldebug_info0:
 397 0000 F3080000 		.4byte	0x8f3
 398 0004 0400     		.2byte	0x4
 399 0006 00000000 		.4byte	.Ldebug_abbrev0
 400 000a 04       		.byte	0x4
 401 000b 01       		.uleb128 0x1
 402 000c 00000000 		.4byte	.LASF124
 403 0010 01       		.byte	0x1
 404 0011 A1020000 		.4byte	.LASF125
 405 0015 D9040000 		.4byte	.LASF126
 406 0019 00000000 		.4byte	.Ldebug_ranges0+0
 407 001d 00000000 		.4byte	0
 408 0021 00000000 		.4byte	.Ldebug_line0
 409 0025 02       		.uleb128 0x2
 410 0026 04       		.byte	0x4
 411 0027 05       		.byte	0x5
 412 0028 696E7400 		.ascii	"int\000"
 413 002c 03       		.uleb128 0x3
 414 002d 04       		.byte	0x4
 415 002e 07       		.byte	0x7
 416 002f 85020000 		.4byte	.LASF0
 417 0033 03       		.uleb128 0x3
 418 0034 01       		.byte	0x1
 419 0035 06       		.byte	0x6
ARM GAS  /var/folders/c6/c789hm653lg9vtl73krp73tm0000gn/T//ccqGJAXs.s 			page 21


 420 0036 C4010000 		.4byte	.LASF1
 421 003a 04       		.uleb128 0x4
 422 003b 16010000 		.4byte	.LASF5
 423 003f 03       		.byte	0x3
 424 0040 1C       		.byte	0x1c
 425 0041 45000000 		.4byte	0x45
 426 0045 03       		.uleb128 0x3
 427 0046 01       		.byte	0x1
 428 0047 08       		.byte	0x8
 429 0048 10040000 		.4byte	.LASF2
 430 004c 03       		.uleb128 0x3
 431 004d 02       		.byte	0x2
 432 004e 05       		.byte	0x5
 433 004f 28040000 		.4byte	.LASF3
 434 0053 03       		.uleb128 0x3
 435 0054 02       		.byte	0x2
 436 0055 07       		.byte	0x7
 437 0056 34020000 		.4byte	.LASF4
 438 005a 04       		.uleb128 0x4
 439 005b 12030000 		.4byte	.LASF6
 440 005f 03       		.byte	0x3
 441 0060 37       		.byte	0x37
 442 0061 65000000 		.4byte	0x65
 443 0065 03       		.uleb128 0x3
 444 0066 04       		.byte	0x4
 445 0067 05       		.byte	0x5
 446 0068 E9010000 		.4byte	.LASF7
 447 006c 04       		.uleb128 0x4
 448 006d 68050000 		.4byte	.LASF8
 449 0071 03       		.byte	0x3
 450 0072 38       		.byte	0x38
 451 0073 77000000 		.4byte	0x77
 452 0077 03       		.uleb128 0x3
 453 0078 04       		.byte	0x4
 454 0079 07       		.byte	0x7
 455 007a C7040000 		.4byte	.LASF9
 456 007e 03       		.uleb128 0x3
 457 007f 08       		.byte	0x8
 458 0080 05       		.byte	0x5
 459 0081 16020000 		.4byte	.LASF10
 460 0085 04       		.uleb128 0x4
 461 0086 C0030000 		.4byte	.LASF11
 462 008a 03       		.byte	0x3
 463 008b 4E       		.byte	0x4e
 464 008c 90000000 		.4byte	0x90
 465 0090 03       		.uleb128 0x3
 466 0091 08       		.byte	0x8
 467 0092 07       		.byte	0x7
 468 0093 3B010000 		.4byte	.LASF12
 469 0097 04       		.uleb128 0x4
 470 0098 4F040000 		.4byte	.LASF13
 471 009c 04       		.byte	0x4
 472 009d 2A       		.byte	0x2a
 473 009e 3A000000 		.4byte	0x3a
 474 00a2 04       		.uleb128 0x4
 475 00a3 08040000 		.4byte	.LASF14
 476 00a7 04       		.byte	0x4
ARM GAS  /var/folders/c6/c789hm653lg9vtl73krp73tm0000gn/T//ccqGJAXs.s 			page 22


 477 00a8 41       		.byte	0x41
 478 00a9 5A000000 		.4byte	0x5a
 479 00ad 04       		.uleb128 0x4
 480 00ae 96040000 		.4byte	.LASF15
 481 00b2 04       		.byte	0x4
 482 00b3 42       		.byte	0x42
 483 00b4 6C000000 		.4byte	0x6c
 484 00b8 04       		.uleb128 0x4
 485 00b9 FF000000 		.4byte	.LASF16
 486 00bd 04       		.byte	0x4
 487 00be 4E       		.byte	0x4e
 488 00bf 85000000 		.4byte	0x85
 489 00c3 05       		.uleb128 0x5
 490 00c4 A2000000 		.4byte	0xa2
 491 00c8 05       		.uleb128 0x5
 492 00c9 AD000000 		.4byte	0xad
 493 00cd 04       		.uleb128 0x4
 494 00ce 9F050000 		.4byte	.LASF17
 495 00d2 05       		.byte	0x5
 496 00d3 45       		.byte	0x45
 497 00d4 AD000000 		.4byte	0xad
 498 00d8 04       		.uleb128 0x4
 499 00d9 00020000 		.4byte	.LASF18
 500 00dd 05       		.byte	0x5
 501 00de 48       		.byte	0x48
 502 00df 97000000 		.4byte	0x97
 503 00e3 04       		.uleb128 0x4
 504 00e4 08020000 		.4byte	.LASF19
 505 00e8 05       		.byte	0x5
 506 00e9 49       		.byte	0x49
 507 00ea 97000000 		.4byte	0x97
 508 00ee 04       		.uleb128 0x4
 509 00ef CB030000 		.4byte	.LASF20
 510 00f3 05       		.byte	0x5
 511 00f4 4A       		.byte	0x4a
 512 00f5 97000000 		.4byte	0x97
 513 00f9 04       		.uleb128 0x4
 514 00fa EA030000 		.4byte	.LASF21
 515 00fe 05       		.byte	0x5
 516 00ff 4C       		.byte	0x4c
 517 0100 AD000000 		.4byte	0xad
 518 0104 04       		.uleb128 0x4
 519 0105 DA020000 		.4byte	.LASF22
 520 0109 05       		.byte	0x5
 521 010a 4D       		.byte	0x4d
 522 010b A2000000 		.4byte	0xa2
 523 010f 04       		.uleb128 0x4
 524 0110 06030000 		.4byte	.LASF23
 525 0114 05       		.byte	0x5
 526 0115 4F       		.byte	0x4f
 527 0116 AD000000 		.4byte	0xad
 528 011a 04       		.uleb128 0x4
 529 011b 7F020000 		.4byte	.LASF24
 530 011f 05       		.byte	0x5
 531 0120 51       		.byte	0x51
 532 0121 A2000000 		.4byte	0xa2
 533 0125 04       		.uleb128 0x4
ARM GAS  /var/folders/c6/c789hm653lg9vtl73krp73tm0000gn/T//ccqGJAXs.s 			page 23


 534 0126 4A050000 		.4byte	.LASF25
 535 012a 06       		.byte	0x6
 536 012b 33       		.byte	0x33
 537 012c AD000000 		.4byte	0xad
 538 0130 04       		.uleb128 0x4
 539 0131 3A050000 		.4byte	.LASF26
 540 0135 06       		.byte	0x6
 541 0136 3F       		.byte	0x3f
 542 0137 3B010000 		.4byte	0x13b
 543 013b 06       		.uleb128 0x6
 544 013c D0020000 		.4byte	.LASF46
 545 0140 44       		.byte	0x44
 546 0141 07       		.byte	0x7
 547 0142 C2       		.byte	0xc2
 548 0143 28020000 		.4byte	0x228
 549 0147 07       		.uleb128 0x7
 550 0148 48040000 		.4byte	.LASF27
 551 014c 07       		.byte	0x7
 552 014d C3       		.byte	0xc3
 553 014e 33020000 		.4byte	0x233
 554 0152 00       		.byte	0
 555 0153 07       		.uleb128 0x7
 556 0154 E3030000 		.4byte	.LASF28
 557 0158 07       		.byte	0x7
 558 0159 C5       		.byte	0xc5
 559 015a 33020000 		.4byte	0x233
 560 015e 04       		.byte	0x4
 561 015f 07       		.uleb128 0x7
 562 0160 AB010000 		.4byte	.LASF29
 563 0164 07       		.byte	0x7
 564 0165 C7       		.byte	0xc7
 565 0166 F9000000 		.4byte	0xf9
 566 016a 08       		.byte	0x8
 567 016b 07       		.uleb128 0x7
 568 016c 50060000 		.4byte	.LASF30
 569 0170 07       		.byte	0x7
 570 0171 C8       		.byte	0xc8
 571 0172 83040000 		.4byte	0x483
 572 0176 0C       		.byte	0xc
 573 0177 07       		.uleb128 0x7
 574 0178 24020000 		.4byte	.LASF31
 575 017c 07       		.byte	0x7
 576 017d CA       		.byte	0xca
 577 017e 33020000 		.4byte	0x233
 578 0182 10       		.byte	0x10
 579 0183 07       		.uleb128 0x7
 580 0184 83030000 		.4byte	.LASF32
 581 0188 07       		.byte	0x7
 582 0189 CB       		.byte	0xcb
 583 018a 33020000 		.4byte	0x233
 584 018e 14       		.byte	0x14
 585 018f 07       		.uleb128 0x7
 586 0190 11060000 		.4byte	.LASF33
 587 0194 07       		.byte	0x7
 588 0195 D2       		.byte	0xd2
 589 0196 24070000 		.4byte	0x724
 590 019a 18       		.byte	0x18
ARM GAS  /var/folders/c6/c789hm653lg9vtl73krp73tm0000gn/T//ccqGJAXs.s 			page 24


 591 019b 07       		.uleb128 0x7
 592 019c 32040000 		.4byte	.LASF34
 593 01a0 07       		.byte	0x7
 594 01a1 DD       		.byte	0xdd
 595 01a2 E3000000 		.4byte	0xe3
 596 01a6 1C       		.byte	0x1c
 597 01a7 07       		.uleb128 0x7
 598 01a8 2F060000 		.4byte	.LASF35
 599 01ac 07       		.byte	0x7
 600 01ad E1       		.byte	0xe1
 601 01ae D8000000 		.4byte	0xd8
 602 01b2 1D       		.byte	0x1d
 603 01b3 07       		.uleb128 0x7
 604 01b4 D9050000 		.4byte	.LASF36
 605 01b8 07       		.byte	0x7
 606 01b9 E6       		.byte	0xe6
 607 01ba EE000000 		.4byte	0xee
 608 01be 1E       		.byte	0x1e
 609 01bf 08       		.uleb128 0x8
 610 01c0 705F7500 		.ascii	"p_u\000"
 611 01c4 07       		.byte	0x7
 612 01c5 3101     		.2byte	0x131
 613 01c7 5F060000 		.4byte	0x65f
 614 01cb 20       		.byte	0x20
 615 01cc 09       		.uleb128 0x9
 616 01cd 3A030000 		.4byte	.LASF37
 617 01d1 07       		.byte	0x7
 618 01d2 3601     		.2byte	0x136
 619 01d4 39020000 		.4byte	0x239
 620 01d8 24       		.byte	0x24
 621 01d9 09       		.uleb128 0x9
 622 01da BA020000 		.4byte	.LASF38
 623 01de 07       		.byte	0x7
 624 01df 3C01     		.2byte	0x13c
 625 01e1 5D020000 		.4byte	0x25d
 626 01e5 28       		.byte	0x28
 627 01e6 09       		.uleb128 0x9
 628 01e7 99050000 		.4byte	.LASF39
 629 01eb 07       		.byte	0x7
 630 01ec 4001     		.2byte	0x140
 631 01ee 04010000 		.4byte	0x104
 632 01f2 30       		.byte	0x30
 633 01f3 09       		.uleb128 0x9
 634 01f4 8B040000 		.4byte	.LASF40
 635 01f8 07       		.byte	0x7
 636 01f9 4601     		.2byte	0x146
 637 01fb 0F010000 		.4byte	0x10f
 638 01ff 34       		.byte	0x34
 639 0200 09       		.uleb128 0x9
 640 0201 1E040000 		.4byte	.LASF41
 641 0205 07       		.byte	0x7
 642 0206 4D01     		.2byte	0x14d
 643 0208 1E070000 		.4byte	0x71e
 644 020c 38       		.byte	0x38
 645 020d 09       		.uleb128 0x9
 646 020e 54050000 		.4byte	.LASF42
 647 0212 07       		.byte	0x7
ARM GAS  /var/folders/c6/c789hm653lg9vtl73krp73tm0000gn/T//ccqGJAXs.s 			page 25


 648 0213 5101     		.2byte	0x151
 649 0215 F9000000 		.4byte	0xf9
 650 0219 3C       		.byte	0x3c
 651 021a 09       		.uleb128 0x9
 652 021b 4F020000 		.4byte	.LASF43
 653 021f 07       		.byte	0x7
 654 0220 5801     		.2byte	0x158
 655 0222 10030000 		.4byte	0x310
 656 0226 40       		.byte	0x40
 657 0227 00       		.byte	0
 658 0228 04       		.uleb128 0x4
 659 0229 4D030000 		.4byte	.LASF44
 660 022d 06       		.byte	0x6
 661 022e 44       		.byte	0x44
 662 022f 33020000 		.4byte	0x233
 663 0233 0A       		.uleb128 0xa
 664 0234 04       		.byte	0x4
 665 0235 30010000 		.4byte	0x130
 666 0239 04       		.uleb128 0x4
 667 023a 18060000 		.4byte	.LASF45
 668 023e 06       		.byte	0x6
 669 023f 49       		.byte	0x49
 670 0240 44020000 		.4byte	0x244
 671 0244 06       		.uleb128 0x6
 672 0245 B7040000 		.4byte	.LASF47
 673 0249 04       		.byte	0x4
 674 024a 07       		.byte	0x7
 675 024b B0       		.byte	0xb0
 676 024c 5D020000 		.4byte	0x25d
 677 0250 07       		.uleb128 0x7
 678 0251 48040000 		.4byte	.LASF27
 679 0255 07       		.byte	0x7
 680 0256 B1       		.byte	0xb1
 681 0257 33020000 		.4byte	0x233
 682 025b 00       		.byte	0
 683 025c 00       		.byte	0
 684 025d 04       		.uleb128 0x4
 685 025e C0050000 		.4byte	.LASF48
 686 0262 06       		.byte	0x6
 687 0263 50       		.byte	0x50
 688 0264 68020000 		.4byte	0x268
 689 0268 06       		.uleb128 0x6
 690 0269 9A010000 		.4byte	.LASF49
 691 026d 08       		.byte	0x8
 692 026e 07       		.byte	0x7
 693 026f B7       		.byte	0xb7
 694 0270 8D020000 		.4byte	0x28d
 695 0274 07       		.uleb128 0x7
 696 0275 48040000 		.4byte	.LASF27
 697 0279 07       		.byte	0x7
 698 027a B8       		.byte	0xb8
 699 027b 33020000 		.4byte	0x233
 700 027f 00       		.byte	0
 701 0280 07       		.uleb128 0x7
 702 0281 E3030000 		.4byte	.LASF28
 703 0285 07       		.byte	0x7
 704 0286 B9       		.byte	0xb9
ARM GAS  /var/folders/c6/c789hm653lg9vtl73krp73tm0000gn/T//ccqGJAXs.s 			page 26


 705 0287 33020000 		.4byte	0x233
 706 028b 04       		.byte	0x4
 707 028c 00       		.byte	0
 708 028d 04       		.uleb128 0x4
 709 028e E0000000 		.4byte	.LASF50
 710 0292 06       		.byte	0x6
 711 0293 57       		.byte	0x57
 712 0294 98020000 		.4byte	0x298
 713 0298 0B       		.uleb128 0xb
 714 0299 F8020000 		.4byte	.LASF51
 715 029d 1C       		.byte	0x1c
 716 029e 07       		.byte	0x7
 717 029f 9001     		.2byte	0x190
 718 02a1 F4020000 		.4byte	0x2f4
 719 02a5 09       		.uleb128 0x9
 720 02a6 A6040000 		.4byte	.LASF52
 721 02aa 07       		.byte	0x7
 722 02ab 9101     		.2byte	0x191
 723 02ad 5D020000 		.4byte	0x25d
 724 02b1 00       		.byte	0
 725 02b2 09       		.uleb128 0x9
 726 02b3 3A040000 		.4byte	.LASF53
 727 02b7 07       		.byte	0x7
 728 02b8 9201     		.2byte	0x192
 729 02ba F9000000 		.4byte	0xf9
 730 02be 08       		.byte	0x8
 731 02bf 09       		.uleb128 0x9
 732 02c0 92030000 		.4byte	.LASF54
 733 02c4 07       		.byte	0x7
 734 02c5 9401     		.2byte	0x194
 735 02c7 83040000 		.4byte	0x483
 736 02cb 0C       		.byte	0xc
 737 02cc 09       		.uleb128 0x9
 738 02cd 47020000 		.4byte	.LASF55
 739 02d1 07       		.byte	0x7
 740 02d2 9701     		.2byte	0x197
 741 02d4 33020000 		.4byte	0x233
 742 02d8 10       		.byte	0x10
 743 02d9 09       		.uleb128 0x9
 744 02da B8030000 		.4byte	.LASF56
 745 02de 07       		.byte	0x7
 746 02df 9801     		.2byte	0x198
 747 02e1 33020000 		.4byte	0x233
 748 02e5 14       		.byte	0x14
 749 02e6 09       		.uleb128 0x9
 750 02e7 AE030000 		.4byte	.LASF57
 751 02eb 07       		.byte	0x7
 752 02ec 9B01     		.2byte	0x19b
 753 02ee 33020000 		.4byte	0x233
 754 02f2 18       		.byte	0x18
 755 02f3 00       		.byte	0
 756 02f4 04       		.uleb128 0x4
 757 02f5 5F050000 		.4byte	.LASF58
 758 02f9 06       		.byte	0x6
 759 02fa 5C       		.byte	0x5c
 760 02fb FF020000 		.4byte	0x2ff
 761 02ff 0A       		.uleb128 0xa
ARM GAS  /var/folders/c6/c789hm653lg9vtl73krp73tm0000gn/T//ccqGJAXs.s 			page 27


 762 0300 04       		.byte	0x4
 763 0301 05030000 		.4byte	0x305
 764 0305 0C       		.uleb128 0xc
 765 0306 10030000 		.4byte	0x310
 766 030a 0D       		.uleb128 0xd
 767 030b 10030000 		.4byte	0x310
 768 030f 00       		.byte	0
 769 0310 0E       		.uleb128 0xe
 770 0311 04       		.byte	0x4
 771 0312 04       		.uleb128 0x4
 772 0313 D3030000 		.4byte	.LASF59
 773 0317 06       		.byte	0x6
 774 0318 61       		.byte	0x61
 775 0319 1D030000 		.4byte	0x31d
 776 031d 0B       		.uleb128 0xb
 777 031e 57040000 		.4byte	.LASF60
 778 0322 14       		.byte	0x14
 779 0323 07       		.byte	0x7
 780 0324 6B01     		.2byte	0x16b
 781 0326 6C030000 		.4byte	0x36c
 782 032a 09       		.uleb128 0x9
 783 032b 92020000 		.4byte	.LASF61
 784 032f 07       		.byte	0x7
 785 0330 6C01     		.2byte	0x16c
 786 0332 36070000 		.4byte	0x736
 787 0336 00       		.byte	0
 788 0337 09       		.uleb128 0x9
 789 0338 60020000 		.4byte	.LASF62
 790 033c 07       		.byte	0x7
 791 033d 6D01     		.2byte	0x16d
 792 033f 36070000 		.4byte	0x736
 793 0343 04       		.byte	0x4
 794 0344 09       		.uleb128 0x9
 795 0345 AE040000 		.4byte	.LASF63
 796 0349 07       		.byte	0x7
 797 034a 6E01     		.2byte	0x16e
 798 034c 25010000 		.4byte	0x125
 799 0350 08       		.byte	0x8
 800 0351 09       		.uleb128 0x9
 801 0352 56060000 		.4byte	.LASF64
 802 0356 07       		.byte	0x7
 803 0357 6F01     		.2byte	0x16f
 804 0359 F4020000 		.4byte	0x2f4
 805 035d 0C       		.byte	0xc
 806 035e 09       		.uleb128 0x9
 807 035f B9050000 		.4byte	.LASF65
 808 0363 07       		.byte	0x7
 809 0364 7101     		.2byte	0x171
 810 0366 10030000 		.4byte	0x310
 811 036a 10       		.byte	0x10
 812 036b 00       		.byte	0
 813 036c 04       		.uleb128 0x4
 814 036d 66010000 		.4byte	.LASF66
 815 0371 06       		.byte	0x6
 816 0372 66       		.byte	0x66
 817 0373 77030000 		.4byte	0x377
 818 0377 0B       		.uleb128 0xb
ARM GAS  /var/folders/c6/c789hm653lg9vtl73krp73tm0000gn/T//ccqGJAXs.s 			page 28


 819 0378 60030000 		.4byte	.LASF67
 820 037c 10       		.byte	0x10
 821 037d 07       		.byte	0x7
 822 037e 7B01     		.2byte	0x17b
 823 0380 B9030000 		.4byte	0x3b9
 824 0384 09       		.uleb128 0x9
 825 0385 92020000 		.4byte	.LASF61
 826 0389 07       		.byte	0x7
 827 038a 7C01     		.2byte	0x17c
 828 038c 36070000 		.4byte	0x736
 829 0390 00       		.byte	0
 830 0391 09       		.uleb128 0x9
 831 0392 60020000 		.4byte	.LASF62
 832 0396 07       		.byte	0x7
 833 0397 7E01     		.2byte	0x17e
 834 0399 36070000 		.4byte	0x736
 835 039d 04       		.byte	0x4
 836 039e 09       		.uleb128 0x9
 837 039f AE040000 		.4byte	.LASF63
 838 03a3 07       		.byte	0x7
 839 03a4 8001     		.2byte	0x180
 840 03a6 25010000 		.4byte	0x125
 841 03aa 08       		.byte	0x8
 842 03ab 09       		.uleb128 0x9
 843 03ac 77030000 		.4byte	.LASF68
 844 03b0 07       		.byte	0x7
 845 03b1 8801     		.2byte	0x188
 846 03b3 25010000 		.4byte	0x125
 847 03b7 0C       		.byte	0xc
 848 03b8 00       		.byte	0
 849 03b9 04       		.uleb128 0x4
 850 03ba 2C010000 		.4byte	.LASF69
 851 03be 06       		.byte	0x6
 852 03bf 6B       		.byte	0x6b
 853 03c0 C4030000 		.4byte	0x3c4
 854 03c4 0B       		.uleb128 0xb
 855 03c5 F2030000 		.4byte	.LASF70
 856 03c9 04       		.byte	0x4
 857 03ca 07       		.byte	0x7
 858 03cb A201     		.2byte	0x1a2
 859 03cd DF030000 		.4byte	0x3df
 860 03d1 09       		.uleb128 0x9
 861 03d2 73050000 		.4byte	.LASF71
 862 03d6 07       		.byte	0x7
 863 03d7 AA01     		.2byte	0x1aa
 864 03d9 3C070000 		.4byte	0x73c
 865 03dd 00       		.byte	0
 866 03de 00       		.byte	0
 867 03df 04       		.uleb128 0x4
 868 03e0 E0020000 		.4byte	.LASF72
 869 03e4 06       		.byte	0x6
 870 03e5 70       		.byte	0x70
 871 03e6 EA030000 		.4byte	0x3ea
 872 03ea 0F       		.uleb128 0xf
 873 03eb DF010000 		.4byte	.LASF73
 874 03ef 5001     		.2byte	0x150
 875 03f1 07       		.byte	0x7
ARM GAS  /var/folders/c6/c789hm653lg9vtl73krp73tm0000gn/T//ccqGJAXs.s 			page 29


 876 03f2 C201     		.2byte	0x1c2
 877 03f4 46040000 		.4byte	0x446
 878 03f8 09       		.uleb128 0x9
 879 03f9 E0050000 		.4byte	.LASF74
 880 03fd 07       		.byte	0x7
 881 03fe C601     		.2byte	0x1c6
 882 0400 8D020000 		.4byte	0x28d
 883 0404 00       		.byte	0
 884 0405 09       		.uleb128 0x9
 885 0406 D8010000 		.4byte	.LASF75
 886 040a 07       		.byte	0x7
 887 040b CA01     		.2byte	0x1ca
 888 040d 6C030000 		.4byte	0x36c
 889 0411 1C       		.byte	0x1c
 890 0412 08       		.uleb128 0x8
 891 0413 64626700 		.ascii	"dbg\000"
 892 0417 07       		.byte	0x7
 893 0418 CE01     		.2byte	0x1ce
 894 041a B9030000 		.4byte	0x3b9
 895 041e 2C       		.byte	0x2c
 896 041f 09       		.uleb128 0x9
 897 0420 5B010000 		.4byte	.LASF76
 898 0424 07       		.byte	0x7
 899 0425 D201     		.2byte	0x1d2
 900 0427 30010000 		.4byte	0x130
 901 042b 30       		.byte	0x30
 902 042c 08       		.uleb128 0x8
 903 042d 746D00   		.ascii	"tm\000"
 904 0430 07       		.byte	0x7
 905 0431 D701     		.2byte	0x1d7
 906 0433 54060000 		.4byte	0x654
 907 0437 74       		.byte	0x74
 908 0438 09       		.uleb128 0x9
 909 0439 70020000 		.4byte	.LASF77
 910 043d 07       		.byte	0x7
 911 043e E301     		.2byte	0x1e3
 912 0440 41070000 		.4byte	0x741
 913 0444 78       		.byte	0x78
 914 0445 00       		.byte	0
 915 0446 03       		.uleb128 0x3
 916 0447 04       		.byte	0x4
 917 0448 07       		.byte	0x7
 918 0449 44030000 		.4byte	.LASF78
 919 044d 10       		.uleb128 0x10
 920 044e AD000000 		.4byte	0xad
 921 0452 5D040000 		.4byte	0x45d
 922 0456 11       		.uleb128 0x11
 923 0457 46040000 		.4byte	0x446
 924 045b 01       		.byte	0x1
 925 045c 00       		.byte	0
 926 045d 10       		.uleb128 0x10
 927 045e AD000000 		.4byte	0xad
 928 0462 6D040000 		.4byte	0x46d
 929 0466 11       		.uleb128 0x11
 930 0467 46040000 		.4byte	0x446
 931 046b 03       		.byte	0x3
 932 046c 00       		.byte	0
ARM GAS  /var/folders/c6/c789hm653lg9vtl73krp73tm0000gn/T//ccqGJAXs.s 			page 30


 933 046d 04       		.uleb128 0x4
 934 046e 57020000 		.4byte	.LASF79
 935 0472 08       		.byte	0x8
 936 0473 65       		.byte	0x65
 937 0474 10030000 		.4byte	0x310
 938 0478 04       		.uleb128 0x4
 939 0479 2F030000 		.4byte	.LASF80
 940 047d 08       		.byte	0x8
 941 047e 6D       		.byte	0x6d
 942 047f B8000000 		.4byte	0xb8
 943 0483 06       		.uleb128 0x6
 944 0484 91050000 		.4byte	.LASF81
 945 0488 04       		.byte	0x4
 946 0489 08       		.byte	0x8
 947 048a 89       		.byte	0x89
 948 048b 9C040000 		.4byte	0x49c
 949 048f 12       		.uleb128 0x12
 950 0490 72313300 		.ascii	"r13\000"
 951 0494 08       		.byte	0x8
 952 0495 8A       		.byte	0x8a
 953 0496 17050000 		.4byte	0x517
 954 049a 00       		.byte	0
 955 049b 00       		.byte	0
 956 049c 06       		.uleb128 0x6
 957 049d 20010000 		.4byte	.LASF82
 958 04a1 24       		.byte	0x24
 959 04a2 09       		.byte	0x9
 960 04a3 F4       		.byte	0xf4
 961 04a4 17050000 		.4byte	0x517
 962 04a8 08       		.uleb128 0x8
 963 04a9 723400   		.ascii	"r4\000"
 964 04ac 09       		.byte	0x9
 965 04ad 0701     		.2byte	0x107
 966 04af 6D040000 		.4byte	0x46d
 967 04b3 00       		.byte	0
 968 04b4 08       		.uleb128 0x8
 969 04b5 723500   		.ascii	"r5\000"
 970 04b8 09       		.byte	0x9
 971 04b9 0801     		.2byte	0x108
 972 04bb 6D040000 		.4byte	0x46d
 973 04bf 04       		.byte	0x4
 974 04c0 08       		.uleb128 0x8
 975 04c1 723600   		.ascii	"r6\000"
 976 04c4 09       		.byte	0x9
 977 04c5 0901     		.2byte	0x109
 978 04c7 6D040000 		.4byte	0x46d
 979 04cb 08       		.byte	0x8
 980 04cc 08       		.uleb128 0x8
 981 04cd 723700   		.ascii	"r7\000"
 982 04d0 09       		.byte	0x9
 983 04d1 0A01     		.2byte	0x10a
 984 04d3 6D040000 		.4byte	0x46d
 985 04d7 0C       		.byte	0xc
 986 04d8 08       		.uleb128 0x8
 987 04d9 723800   		.ascii	"r8\000"
 988 04dc 09       		.byte	0x9
 989 04dd 0B01     		.2byte	0x10b
ARM GAS  /var/folders/c6/c789hm653lg9vtl73krp73tm0000gn/T//ccqGJAXs.s 			page 31


 990 04df 6D040000 		.4byte	0x46d
 991 04e3 10       		.byte	0x10
 992 04e4 08       		.uleb128 0x8
 993 04e5 723900   		.ascii	"r9\000"
 994 04e8 09       		.byte	0x9
 995 04e9 0C01     		.2byte	0x10c
 996 04eb 6D040000 		.4byte	0x46d
 997 04ef 14       		.byte	0x14
 998 04f0 08       		.uleb128 0x8
 999 04f1 72313000 		.ascii	"r10\000"
 1000 04f5 09       		.byte	0x9
 1001 04f6 0D01     		.2byte	0x10d
 1002 04f8 6D040000 		.4byte	0x46d
 1003 04fc 18       		.byte	0x18
 1004 04fd 08       		.uleb128 0x8
 1005 04fe 72313100 		.ascii	"r11\000"
 1006 0502 09       		.byte	0x9
 1007 0503 0E01     		.2byte	0x10e
 1008 0505 6D040000 		.4byte	0x46d
 1009 0509 1C       		.byte	0x1c
 1010 050a 08       		.uleb128 0x8
 1011 050b 6C7200   		.ascii	"lr\000"
 1012 050e 09       		.byte	0x9
 1013 050f 0F01     		.2byte	0x10f
 1014 0511 6D040000 		.4byte	0x46d
 1015 0515 20       		.byte	0x20
 1016 0516 00       		.byte	0
 1017 0517 0A       		.uleb128 0xa
 1018 0518 04       		.byte	0x4
 1019 0519 9C040000 		.4byte	0x49c
 1020 051d 13       		.uleb128 0x13
 1021 051e 60       		.byte	0x60
 1022 051f 0A       		.byte	0xa
 1023 0520 9E01     		.2byte	0x19e
 1024 0522 29060000 		.4byte	0x629
 1025 0526 08       		.uleb128 0x8
 1026 0527 43523100 		.ascii	"CR1\000"
 1027 052b 0A       		.byte	0xa
 1028 052c 9F01     		.2byte	0x19f
 1029 052e C8000000 		.4byte	0xc8
 1030 0532 00       		.byte	0
 1031 0533 08       		.uleb128 0x8
 1032 0534 43523200 		.ascii	"CR2\000"
 1033 0538 0A       		.byte	0xa
 1034 0539 A001     		.2byte	0x1a0
 1035 053b C8000000 		.4byte	0xc8
 1036 053f 04       		.byte	0x4
 1037 0540 09       		.uleb128 0x9
 1038 0541 CB020000 		.4byte	.LASF83
 1039 0545 0A       		.byte	0xa
 1040 0546 A101     		.2byte	0x1a1
 1041 0548 C8000000 		.4byte	0xc8
 1042 054c 08       		.byte	0x8
 1043 054d 09       		.uleb128 0x9
 1044 054e ED000000 		.4byte	.LASF84
 1045 0552 0A       		.byte	0xa
 1046 0553 A201     		.2byte	0x1a2
ARM GAS  /var/folders/c6/c789hm653lg9vtl73krp73tm0000gn/T//ccqGJAXs.s 			page 32


 1047 0555 C8000000 		.4byte	0xc8
 1048 0559 0C       		.byte	0xc
 1049 055a 08       		.uleb128 0x8
 1050 055b 535200   		.ascii	"SR\000"
 1051 055e 0A       		.byte	0xa
 1052 055f A301     		.2byte	0x1a3
 1053 0561 C8000000 		.4byte	0xc8
 1054 0565 10       		.byte	0x10
 1055 0566 08       		.uleb128 0x8
 1056 0567 45475200 		.ascii	"EGR\000"
 1057 056b 0A       		.byte	0xa
 1058 056c A401     		.2byte	0x1a4
 1059 056e C8000000 		.4byte	0xc8
 1060 0572 14       		.byte	0x14
 1061 0573 09       		.uleb128 0x9
 1062 0574 B2010000 		.4byte	.LASF85
 1063 0578 0A       		.byte	0xa
 1064 0579 A501     		.2byte	0x1a5
 1065 057b C8000000 		.4byte	0xc8
 1066 057f 18       		.byte	0x18
 1067 0580 09       		.uleb128 0x9
 1068 0581 B8010000 		.4byte	.LASF86
 1069 0585 0A       		.byte	0xa
 1070 0586 A601     		.2byte	0x1a6
 1071 0588 C8000000 		.4byte	0xc8
 1072 058c 1C       		.byte	0x1c
 1073 058d 09       		.uleb128 0x9
 1074 058e 11020000 		.4byte	.LASF87
 1075 0592 0A       		.byte	0xa
 1076 0593 A701     		.2byte	0x1a7
 1077 0595 C8000000 		.4byte	0xc8
 1078 0599 20       		.byte	0x20
 1079 059a 08       		.uleb128 0x8
 1080 059b 434E5400 		.ascii	"CNT\000"
 1081 059f 0A       		.byte	0xa
 1082 05a0 A801     		.2byte	0x1a8
 1083 05a2 C8000000 		.4byte	0xc8
 1084 05a6 24       		.byte	0x24
 1085 05a7 08       		.uleb128 0x8
 1086 05a8 50534300 		.ascii	"PSC\000"
 1087 05ac 0A       		.byte	0xa
 1088 05ad A901     		.2byte	0x1a9
 1089 05af C8000000 		.4byte	0xc8
 1090 05b3 28       		.byte	0x28
 1091 05b4 08       		.uleb128 0x8
 1092 05b5 41525200 		.ascii	"ARR\000"
 1093 05b9 0A       		.byte	0xa
 1094 05ba AA01     		.2byte	0x1aa
 1095 05bc C8000000 		.4byte	0xc8
 1096 05c0 2C       		.byte	0x2c
 1097 05c1 08       		.uleb128 0x8
 1098 05c2 52435200 		.ascii	"RCR\000"
 1099 05c6 0A       		.byte	0xa
 1100 05c7 AB01     		.2byte	0x1ab
 1101 05c9 C8000000 		.4byte	0xc8
 1102 05cd 30       		.byte	0x30
 1103 05ce 08       		.uleb128 0x8
ARM GAS  /var/folders/c6/c789hm653lg9vtl73krp73tm0000gn/T//ccqGJAXs.s 			page 33


 1104 05cf 43435200 		.ascii	"CCR\000"
 1105 05d3 0A       		.byte	0xa
 1106 05d4 AC01     		.2byte	0x1ac
 1107 05d6 29060000 		.4byte	0x629
 1108 05da 34       		.byte	0x34
 1109 05db 09       		.uleb128 0x9
 1110 05dc 95010000 		.4byte	.LASF88
 1111 05e0 0A       		.byte	0xa
 1112 05e1 AD01     		.2byte	0x1ad
 1113 05e3 C8000000 		.4byte	0xc8
 1114 05e7 44       		.byte	0x44
 1115 05e8 08       		.uleb128 0x8
 1116 05e9 44435200 		.ascii	"DCR\000"
 1117 05ed 0A       		.byte	0xa
 1118 05ee AE01     		.2byte	0x1ae
 1119 05f0 C8000000 		.4byte	0xc8
 1120 05f4 48       		.byte	0x48
 1121 05f5 09       		.uleb128 0x9
 1122 05f6 35050000 		.4byte	.LASF89
 1123 05fa 0A       		.byte	0xa
 1124 05fb AF01     		.2byte	0x1af
 1125 05fd C8000000 		.4byte	0xc8
 1126 0601 4C       		.byte	0x4c
 1127 0602 08       		.uleb128 0x8
 1128 0603 4F5200   		.ascii	"OR\000"
 1129 0606 0A       		.byte	0xa
 1130 0607 B001     		.2byte	0x1b0
 1131 0609 C8000000 		.4byte	0xc8
 1132 060d 50       		.byte	0x50
 1133 060e 09       		.uleb128 0x9
 1134 060f BE010000 		.4byte	.LASF90
 1135 0613 0A       		.byte	0xa
 1136 0614 B101     		.2byte	0x1b1
 1137 0616 C8000000 		.4byte	0xc8
 1138 061a 54       		.byte	0x54
 1139 061b 09       		.uleb128 0x9
 1140 061c 86040000 		.4byte	.LASF91
 1141 0620 0A       		.byte	0xa
 1142 0621 B201     		.2byte	0x1b2
 1143 0623 2E060000 		.4byte	0x62e
 1144 0627 58       		.byte	0x58
 1145 0628 00       		.byte	0
 1146 0629 05       		.uleb128 0x5
 1147 062a 5D040000 		.4byte	0x45d
 1148 062e 05       		.uleb128 0x5
 1149 062f 4D040000 		.4byte	0x44d
 1150 0633 14       		.uleb128 0x14
 1151 0634 EC020000 		.4byte	.LASF92
 1152 0638 0A       		.byte	0xa
 1153 0639 B301     		.2byte	0x1b3
 1154 063b 1D050000 		.4byte	0x51d
 1155 063f 15       		.uleb128 0x15
 1156 0640 04       		.byte	0x4
 1157 0641 0B       		.byte	0xb
 1158 0642 38       		.byte	0x38
 1159 0643 54060000 		.4byte	0x654
 1160 0647 07       		.uleb128 0x7
ARM GAS  /var/folders/c6/c789hm653lg9vtl73krp73tm0000gn/T//ccqGJAXs.s 			page 34


 1161 0648 7D050000 		.4byte	.LASF93
 1162 064c 0B       		.byte	0xb
 1163 064d 3C       		.byte	0x3c
 1164 064e CD000000 		.4byte	0xcd
 1165 0652 00       		.byte	0
 1166 0653 00       		.byte	0
 1167 0654 04       		.uleb128 0x4
 1168 0655 98030000 		.4byte	.LASF94
 1169 0659 0B       		.byte	0xb
 1170 065a 3D       		.byte	0x3d
 1171 065b 3F060000 		.4byte	0x63f
 1172 065f 16       		.uleb128 0x16
 1173 0660 04       		.byte	0x4
 1174 0661 07       		.byte	0x7
 1175 0662 FA       		.byte	0xfa
 1176 0663 BC060000 		.4byte	0x6bc
 1177 0667 17       		.uleb128 0x17
 1178 0668 F8000000 		.4byte	.LASF95
 1179 066c 07       		.byte	0x7
 1180 066d 0101     		.2byte	0x101
 1181 066f 04010000 		.4byte	0x104
 1182 0673 17       		.uleb128 0x17
 1183 0674 52010000 		.4byte	.LASF96
 1184 0678 07       		.byte	0x7
 1185 0679 0801     		.2byte	0x108
 1186 067b 04010000 		.4byte	0x104
 1187 067f 17       		.uleb128 0x17
 1188 0680 0A060000 		.4byte	.LASF97
 1189 0684 07       		.byte	0x7
 1190 0685 0F01     		.2byte	0x10f
 1191 0687 10030000 		.4byte	0x310
 1192 068b 17       		.uleb128 0x17
 1193 068c F2000000 		.4byte	.LASF98
 1194 0690 07       		.byte	0x7
 1195 0691 1601     		.2byte	0x116
 1196 0693 BC060000 		.4byte	0x6bc
 1197 0697 17       		.uleb128 0x17
 1198 0698 9A020000 		.4byte	.LASF99
 1199 069c 07       		.byte	0x7
 1200 069d 1E01     		.2byte	0x11e
 1201 069f E7060000 		.4byte	0x6e7
 1202 06a3 17       		.uleb128 0x17
 1203 06a4 9F040000 		.4byte	.LASF100
 1204 06a8 07       		.byte	0x7
 1205 06a9 2701     		.2byte	0x127
 1206 06ab 1E070000 		.4byte	0x71e
 1207 06af 17       		.uleb128 0x17
 1208 06b0 41040000 		.4byte	.LASF101
 1209 06b4 07       		.byte	0x7
 1210 06b5 2F01     		.2byte	0x12f
 1211 06b7 0F010000 		.4byte	0x10f
 1212 06bb 00       		.byte	0
 1213 06bc 0A       		.uleb128 0xa
 1214 06bd 04       		.byte	0x4
 1215 06be 28020000 		.4byte	0x228
 1216 06c2 06       		.uleb128 0x6
 1217 06c3 79040000 		.4byte	.LASF102
ARM GAS  /var/folders/c6/c789hm653lg9vtl73krp73tm0000gn/T//ccqGJAXs.s 			page 35


 1218 06c7 0C       		.byte	0xc
 1219 06c8 0C       		.byte	0xc
 1220 06c9 34       		.byte	0x34
 1221 06ca E7060000 		.4byte	0x6e7
 1222 06ce 07       		.uleb128 0x7
 1223 06cf 2C020000 		.4byte	.LASF103
 1224 06d3 0C       		.byte	0xc
 1225 06d4 35       		.byte	0x35
 1226 06d5 5D020000 		.4byte	0x25d
 1227 06d9 00       		.byte	0
 1228 06da 07       		.uleb128 0x7
 1229 06db C5020000 		.4byte	.LASF104
 1230 06df 0C       		.byte	0xc
 1231 06e0 37       		.byte	0x37
 1232 06e1 1A010000 		.4byte	0x11a
 1233 06e5 08       		.byte	0x8
 1234 06e6 00       		.byte	0
 1235 06e7 0A       		.uleb128 0xa
 1236 06e8 04       		.byte	0x4
 1237 06e9 C2060000 		.4byte	0x6c2
 1238 06ed 06       		.uleb128 0x6
 1239 06ee D0050000 		.4byte	.LASF105
 1240 06f2 10       		.byte	0x10
 1241 06f3 0D       		.byte	0xd
 1242 06f4 39       		.byte	0x39
 1243 06f5 1E070000 		.4byte	0x71e
 1244 06f9 07       		.uleb128 0x7
 1245 06fa D0010000 		.4byte	.LASF106
 1246 06fe 0D       		.byte	0xd
 1247 06ff 3A       		.byte	0x3a
 1248 0700 5D020000 		.4byte	0x25d
 1249 0704 00       		.byte	0
 1250 0705 07       		.uleb128 0x7
 1251 0706 48060000 		.4byte	.LASF107
 1252 070a 0D       		.byte	0xd
 1253 070b 3C       		.byte	0x3c
 1254 070c 33020000 		.4byte	0x233
 1255 0710 08       		.byte	0x8
 1256 0711 07       		.uleb128 0x7
 1257 0712 43050000 		.4byte	.LASF108
 1258 0716 0D       		.byte	0xd
 1259 0717 3E       		.byte	0x3e
 1260 0718 5C070000 		.4byte	0x75c
 1261 071c 0C       		.byte	0xc
 1262 071d 00       		.byte	0
 1263 071e 0A       		.uleb128 0xa
 1264 071f 04       		.byte	0x4
 1265 0720 ED060000 		.4byte	0x6ed
 1266 0724 0A       		.uleb128 0xa
 1267 0725 04       		.byte	0x4
 1268 0726 2A070000 		.4byte	0x72a
 1269 072a 18       		.uleb128 0x18
 1270 072b 2F070000 		.4byte	0x72f
 1271 072f 03       		.uleb128 0x3
 1272 0730 01       		.byte	0x1
 1273 0731 08       		.byte	0x8
 1274 0732 30050000 		.4byte	.LASF109
ARM GAS  /var/folders/c6/c789hm653lg9vtl73krp73tm0000gn/T//ccqGJAXs.s 			page 36


 1275 0736 0A       		.uleb128 0xa
 1276 0737 04       		.byte	0x4
 1277 0738 12030000 		.4byte	0x312
 1278 073c 05       		.uleb128 0x5
 1279 073d 24070000 		.4byte	0x724
 1280 0741 10       		.uleb128 0x10
 1281 0742 78040000 		.4byte	0x478
 1282 0746 51070000 		.4byte	0x751
 1283 074a 11       		.uleb128 0x11
 1284 074b 46040000 		.4byte	0x446
 1285 074f 1A       		.byte	0x1a
 1286 0750 00       		.byte	0
 1287 0751 04       		.uleb128 0x4
 1288 0752 68020000 		.4byte	.LASF110
 1289 0756 0D       		.byte	0xd
 1290 0757 34       		.byte	0x34
 1291 0758 ED060000 		.4byte	0x6ed
 1292 075c 0A       		.uleb128 0xa
 1293 075d 04       		.byte	0x4
 1294 075e 51070000 		.4byte	0x751
 1295 0762 03       		.uleb128 0x3
 1296 0763 01       		.byte	0x1
 1297 0764 02       		.byte	0x2
 1298 0765 02040000 		.4byte	.LASF111
 1299 0769 19       		.uleb128 0x19
 1300 076a 1C030000 		.4byte	.LASF112
 1301 076e 02       		.byte	0x2
 1302 076f 8D       		.byte	0x8d
 1303 0770 03       		.byte	0x3
 1304 0771 81070000 		.4byte	0x781
 1305 0775 1A       		.uleb128 0x1a
 1306 0776 A9030000 		.4byte	.LASF114
 1307 077a 02       		.byte	0x2
 1308 077b 8D       		.byte	0x8d
 1309 077c 25010000 		.4byte	0x125
 1310 0780 00       		.byte	0
 1311 0781 1B       		.uleb128 0x1b
 1312 0782 A7050000 		.4byte	.LASF127
 1313 0786 02       		.byte	0x2
 1314 0787 99       		.byte	0x99
 1315 0788 03       		.byte	0x3
 1316 0789 19       		.uleb128 0x19
 1317 078a 37060000 		.4byte	.LASF113
 1318 078e 02       		.byte	0x2
 1319 078f A5       		.byte	0xa5
 1320 0790 03       		.byte	0x3
 1321 0791 A1070000 		.4byte	0x7a1
 1322 0795 1A       		.uleb128 0x1a
 1323 0796 A9030000 		.4byte	.LASF114
 1324 079a 02       		.byte	0x2
 1325 079b A5       		.byte	0xa5
 1326 079c 25010000 		.4byte	0x125
 1327 07a0 00       		.byte	0
 1328 07a1 1C       		.uleb128 0x1c
 1329 07a2 68040000 		.4byte	.LASF128
 1330 07a6 02       		.byte	0x2
 1331 07a7 B1       		.byte	0xb1
ARM GAS  /var/folders/c6/c789hm653lg9vtl73krp73tm0000gn/T//ccqGJAXs.s 			page 37


 1332 07a8 25010000 		.4byte	0x125
 1333 07ac 03       		.byte	0x3
 1334 07ad 1D       		.uleb128 0x1d
 1335 07ae 8B030000 		.4byte	.LASF115
 1336 07b2 01       		.byte	0x1
 1337 07b3 3C       		.byte	0x3c
 1338 07b4 00000000 		.4byte	.LFB260
 1339 07b8 04000000 		.4byte	.LFE260-.LFB260
 1340 07bc 01       		.uleb128 0x1
 1341 07bd 9C       		.byte	0x9c
 1342 07be CC070000 		.4byte	0x7cc
 1343 07c2 1E       		.uleb128 0x1e
 1344 07c3 04000000 		.4byte	.LVL0
 1345 07c7 EF080000 		.4byte	0x8ef
 1346 07cb 00       		.byte	0
 1347 07cc 1D       		.uleb128 0x1d
 1348 07cd 84050000 		.4byte	.LASF116
 1349 07d1 01       		.byte	0x1
 1350 07d2 4D       		.byte	0x4d
 1351 07d3 00000000 		.4byte	.LFB261
 1352 07d7 10000000 		.4byte	.LFE261-.LFB261
 1353 07db 01       		.uleb128 0x1
 1354 07dc 9C       		.byte	0x9c
 1355 07dd 0F080000 		.4byte	0x80f
 1356 07e1 1F       		.uleb128 0x1f
 1357 07e2 27060000 		.4byte	.LASF119
 1358 07e6 01       		.byte	0x1
 1359 07e7 4D       		.byte	0x4d
 1360 07e8 25010000 		.4byte	0x125
 1361 07ec 01       		.uleb128 0x1
 1362 07ed 50       		.byte	0x50
 1363 07ee 20       		.uleb128 0x20
 1364 07ef F1050000 		.4byte	.LASF120
 1365 07f3 1F080000 		.4byte	0x81f
 1366 07f7 21       		.uleb128 0x21
 1367 07f8 69070000 		.4byte	0x769
 1368 07fc 00000000 		.4byte	.LBB10
 1369 0800 10000000 		.4byte	.LBE10-.LBB10
 1370 0804 01       		.byte	0x1
 1371 0805 51       		.byte	0x51
 1372 0806 22       		.uleb128 0x22
 1373 0807 75070000 		.4byte	0x775
 1374 080b 01       		.uleb128 0x1
 1375 080c 50       		.byte	0x50
 1376 080d 00       		.byte	0
 1377 080e 00       		.byte	0
 1378 080f 10       		.uleb128 0x10
 1379 0810 2F070000 		.4byte	0x72f
 1380 0814 1F080000 		.4byte	0x81f
 1381 0818 11       		.uleb128 0x11
 1382 0819 46040000 		.4byte	0x446
 1383 081d 0C       		.byte	0xc
 1384 081e 00       		.byte	0
 1385 081f 18       		.uleb128 0x18
 1386 0820 0F080000 		.4byte	0x80f
 1387 0824 1D       		.uleb128 0x1d
 1388 0825 24050000 		.4byte	.LASF117
ARM GAS  /var/folders/c6/c789hm653lg9vtl73krp73tm0000gn/T//ccqGJAXs.s 			page 38


 1389 0829 01       		.byte	0x1
 1390 082a 5B       		.byte	0x5b
 1391 082b 00000000 		.4byte	.LFB262
 1392 082f 0A000000 		.4byte	.LFE262-.LFB262
 1393 0833 01       		.uleb128 0x1
 1394 0834 9C       		.byte	0x9c
 1395 0835 49080000 		.4byte	0x849
 1396 0839 23       		.uleb128 0x23
 1397 083a 81070000 		.4byte	0x781
 1398 083e 00000000 		.4byte	.LBB12
 1399 0842 0A000000 		.4byte	.LBE12-.LBB12
 1400 0846 01       		.byte	0x1
 1401 0847 5D       		.byte	0x5d
 1402 0848 00       		.byte	0
 1403 0849 1D       		.uleb128 0x1d
 1404 084a E6050000 		.4byte	.LASF118
 1405 084e 01       		.byte	0x1
 1406 084f 69       		.byte	0x69
 1407 0850 00000000 		.4byte	.LFB263
 1408 0854 08000000 		.4byte	.LFE263-.LFB263
 1409 0858 01       		.uleb128 0x1
 1410 0859 9C       		.byte	0x9c
 1411 085a 8C080000 		.4byte	0x88c
 1412 085e 1F       		.uleb128 0x1f
 1413 085f 27060000 		.4byte	.LASF119
 1414 0863 01       		.byte	0x1
 1415 0864 69       		.byte	0x69
 1416 0865 25010000 		.4byte	0x125
 1417 0869 01       		.uleb128 0x1
 1418 086a 50       		.byte	0x50
 1419 086b 20       		.uleb128 0x20
 1420 086c F2010000 		.4byte	.LASF121
 1421 0870 9C080000 		.4byte	0x89c
 1422 0874 21       		.uleb128 0x21
 1423 0875 89070000 		.4byte	0x789
 1424 0879 00000000 		.4byte	.LBB14
 1425 087d 08000000 		.4byte	.LBE14-.LBB14
 1426 0881 01       		.byte	0x1
 1427 0882 6D       		.byte	0x6d
 1428 0883 22       		.uleb128 0x22
 1429 0884 95070000 		.4byte	0x795
 1430 0888 01       		.uleb128 0x1
 1431 0889 50       		.byte	0x50
 1432 088a 00       		.byte	0
 1433 088b 00       		.byte	0
 1434 088c 10       		.uleb128 0x10
 1435 088d 2F070000 		.4byte	0x72f
 1436 0891 9C080000 		.4byte	0x89c
 1437 0895 11       		.uleb128 0x11
 1438 0896 46040000 		.4byte	0x446
 1439 089a 0A       		.byte	0xa
 1440 089b 00       		.byte	0
 1441 089c 18       		.uleb128 0x18
 1442 089d 8C080000 		.4byte	0x88c
 1443 08a1 24       		.uleb128 0x24
 1444 08a2 FF050000 		.4byte	.LASF129
 1445 08a6 01       		.byte	0x1
ARM GAS  /var/folders/c6/c789hm653lg9vtl73krp73tm0000gn/T//ccqGJAXs.s 			page 39


 1446 08a7 79       		.byte	0x79
 1447 08a8 25010000 		.4byte	0x125
 1448 08ac 00000000 		.4byte	.LFB264
 1449 08b0 08000000 		.4byte	.LFE264-.LFB264
 1450 08b4 01       		.uleb128 0x1
 1451 08b5 9C       		.byte	0x9c
 1452 08b6 D3080000 		.4byte	0x8d3
 1453 08ba 20       		.uleb128 0x20
 1454 08bb 08010000 		.4byte	.LASF122
 1455 08bf D3080000 		.4byte	0x8d3
 1456 08c3 23       		.uleb128 0x23
 1457 08c4 A1070000 		.4byte	0x7a1
 1458 08c8 00000000 		.4byte	.LBB16
 1459 08cc 06000000 		.4byte	.LBE16-.LBB16
 1460 08d0 01       		.byte	0x1
 1461 08d1 7D       		.byte	0x7d
 1462 08d2 00       		.byte	0
 1463 08d3 18       		.uleb128 0x18
 1464 08d4 8C080000 		.4byte	0x88c
 1465 08d8 25       		.uleb128 0x25
 1466 08d9 7C010000 		.4byte	.LASF123
 1467 08dd 0E       		.byte	0xe
 1468 08de A706     		.2byte	0x6a7
 1469 08e0 C3000000 		.4byte	0xc3
 1470 08e4 26       		.uleb128 0x26
 1471 08e5 636800   		.ascii	"ch\000"
 1472 08e8 07       		.byte	0x7
 1473 08e9 0902     		.2byte	0x209
 1474 08eb DF030000 		.4byte	0x3df
 1475 08ef 27       		.uleb128 0x27
 1476 08f0 89010000 		.4byte	.LASF130
 1477 08f4 02       		.byte	0x2
 1478 08f5 6F       		.byte	0x6f
 1479 08f6 00       		.byte	0
 1480              		.section	.debug_abbrev,"",%progbits
 1481              	.Ldebug_abbrev0:
 1482 0000 01       		.uleb128 0x1
 1483 0001 11       		.uleb128 0x11
 1484 0002 01       		.byte	0x1
 1485 0003 25       		.uleb128 0x25
 1486 0004 0E       		.uleb128 0xe
 1487 0005 13       		.uleb128 0x13
 1488 0006 0B       		.uleb128 0xb
 1489 0007 03       		.uleb128 0x3
 1490 0008 0E       		.uleb128 0xe
 1491 0009 1B       		.uleb128 0x1b
 1492 000a 0E       		.uleb128 0xe
 1493 000b 55       		.uleb128 0x55
 1494 000c 17       		.uleb128 0x17
 1495 000d 11       		.uleb128 0x11
 1496 000e 01       		.uleb128 0x1
 1497 000f 10       		.uleb128 0x10
 1498 0010 17       		.uleb128 0x17
 1499 0011 00       		.byte	0
 1500 0012 00       		.byte	0
 1501 0013 02       		.uleb128 0x2
 1502 0014 24       		.uleb128 0x24
ARM GAS  /var/folders/c6/c789hm653lg9vtl73krp73tm0000gn/T//ccqGJAXs.s 			page 40


 1503 0015 00       		.byte	0
 1504 0016 0B       		.uleb128 0xb
 1505 0017 0B       		.uleb128 0xb
 1506 0018 3E       		.uleb128 0x3e
 1507 0019 0B       		.uleb128 0xb
 1508 001a 03       		.uleb128 0x3
 1509 001b 08       		.uleb128 0x8
 1510 001c 00       		.byte	0
 1511 001d 00       		.byte	0
 1512 001e 03       		.uleb128 0x3
 1513 001f 24       		.uleb128 0x24
 1514 0020 00       		.byte	0
 1515 0021 0B       		.uleb128 0xb
 1516 0022 0B       		.uleb128 0xb
 1517 0023 3E       		.uleb128 0x3e
 1518 0024 0B       		.uleb128 0xb
 1519 0025 03       		.uleb128 0x3
 1520 0026 0E       		.uleb128 0xe
 1521 0027 00       		.byte	0
 1522 0028 00       		.byte	0
 1523 0029 04       		.uleb128 0x4
 1524 002a 16       		.uleb128 0x16
 1525 002b 00       		.byte	0
 1526 002c 03       		.uleb128 0x3
 1527 002d 0E       		.uleb128 0xe
 1528 002e 3A       		.uleb128 0x3a
 1529 002f 0B       		.uleb128 0xb
 1530 0030 3B       		.uleb128 0x3b
 1531 0031 0B       		.uleb128 0xb
 1532 0032 49       		.uleb128 0x49
 1533 0033 13       		.uleb128 0x13
 1534 0034 00       		.byte	0
 1535 0035 00       		.byte	0
 1536 0036 05       		.uleb128 0x5
 1537 0037 35       		.uleb128 0x35
 1538 0038 00       		.byte	0
 1539 0039 49       		.uleb128 0x49
 1540 003a 13       		.uleb128 0x13
 1541 003b 00       		.byte	0
 1542 003c 00       		.byte	0
 1543 003d 06       		.uleb128 0x6
 1544 003e 13       		.uleb128 0x13
 1545 003f 01       		.byte	0x1
 1546 0040 03       		.uleb128 0x3
 1547 0041 0E       		.uleb128 0xe
 1548 0042 0B       		.uleb128 0xb
 1549 0043 0B       		.uleb128 0xb
 1550 0044 3A       		.uleb128 0x3a
 1551 0045 0B       		.uleb128 0xb
 1552 0046 3B       		.uleb128 0x3b
 1553 0047 0B       		.uleb128 0xb
 1554 0048 01       		.uleb128 0x1
 1555 0049 13       		.uleb128 0x13
 1556 004a 00       		.byte	0
 1557 004b 00       		.byte	0
 1558 004c 07       		.uleb128 0x7
 1559 004d 0D       		.uleb128 0xd
ARM GAS  /var/folders/c6/c789hm653lg9vtl73krp73tm0000gn/T//ccqGJAXs.s 			page 41


 1560 004e 00       		.byte	0
 1561 004f 03       		.uleb128 0x3
 1562 0050 0E       		.uleb128 0xe
 1563 0051 3A       		.uleb128 0x3a
 1564 0052 0B       		.uleb128 0xb
 1565 0053 3B       		.uleb128 0x3b
 1566 0054 0B       		.uleb128 0xb
 1567 0055 49       		.uleb128 0x49
 1568 0056 13       		.uleb128 0x13
 1569 0057 38       		.uleb128 0x38
 1570 0058 0B       		.uleb128 0xb
 1571 0059 00       		.byte	0
 1572 005a 00       		.byte	0
 1573 005b 08       		.uleb128 0x8
 1574 005c 0D       		.uleb128 0xd
 1575 005d 00       		.byte	0
 1576 005e 03       		.uleb128 0x3
 1577 005f 08       		.uleb128 0x8
 1578 0060 3A       		.uleb128 0x3a
 1579 0061 0B       		.uleb128 0xb
 1580 0062 3B       		.uleb128 0x3b
 1581 0063 05       		.uleb128 0x5
 1582 0064 49       		.uleb128 0x49
 1583 0065 13       		.uleb128 0x13
 1584 0066 38       		.uleb128 0x38
 1585 0067 0B       		.uleb128 0xb
 1586 0068 00       		.byte	0
 1587 0069 00       		.byte	0
 1588 006a 09       		.uleb128 0x9
 1589 006b 0D       		.uleb128 0xd
 1590 006c 00       		.byte	0
 1591 006d 03       		.uleb128 0x3
 1592 006e 0E       		.uleb128 0xe
 1593 006f 3A       		.uleb128 0x3a
 1594 0070 0B       		.uleb128 0xb
 1595 0071 3B       		.uleb128 0x3b
 1596 0072 05       		.uleb128 0x5
 1597 0073 49       		.uleb128 0x49
 1598 0074 13       		.uleb128 0x13
 1599 0075 38       		.uleb128 0x38
 1600 0076 0B       		.uleb128 0xb
 1601 0077 00       		.byte	0
 1602 0078 00       		.byte	0
 1603 0079 0A       		.uleb128 0xa
 1604 007a 0F       		.uleb128 0xf
 1605 007b 00       		.byte	0
 1606 007c 0B       		.uleb128 0xb
 1607 007d 0B       		.uleb128 0xb
 1608 007e 49       		.uleb128 0x49
 1609 007f 13       		.uleb128 0x13
 1610 0080 00       		.byte	0
 1611 0081 00       		.byte	0
 1612 0082 0B       		.uleb128 0xb
 1613 0083 13       		.uleb128 0x13
 1614 0084 01       		.byte	0x1
 1615 0085 03       		.uleb128 0x3
 1616 0086 0E       		.uleb128 0xe
ARM GAS  /var/folders/c6/c789hm653lg9vtl73krp73tm0000gn/T//ccqGJAXs.s 			page 42


 1617 0087 0B       		.uleb128 0xb
 1618 0088 0B       		.uleb128 0xb
 1619 0089 3A       		.uleb128 0x3a
 1620 008a 0B       		.uleb128 0xb
 1621 008b 3B       		.uleb128 0x3b
 1622 008c 05       		.uleb128 0x5
 1623 008d 01       		.uleb128 0x1
 1624 008e 13       		.uleb128 0x13
 1625 008f 00       		.byte	0
 1626 0090 00       		.byte	0
 1627 0091 0C       		.uleb128 0xc
 1628 0092 15       		.uleb128 0x15
 1629 0093 01       		.byte	0x1
 1630 0094 27       		.uleb128 0x27
 1631 0095 19       		.uleb128 0x19
 1632 0096 01       		.uleb128 0x1
 1633 0097 13       		.uleb128 0x13
 1634 0098 00       		.byte	0
 1635 0099 00       		.byte	0
 1636 009a 0D       		.uleb128 0xd
 1637 009b 05       		.uleb128 0x5
 1638 009c 00       		.byte	0
 1639 009d 49       		.uleb128 0x49
 1640 009e 13       		.uleb128 0x13
 1641 009f 00       		.byte	0
 1642 00a0 00       		.byte	0
 1643 00a1 0E       		.uleb128 0xe
 1644 00a2 0F       		.uleb128 0xf
 1645 00a3 00       		.byte	0
 1646 00a4 0B       		.uleb128 0xb
 1647 00a5 0B       		.uleb128 0xb
 1648 00a6 00       		.byte	0
 1649 00a7 00       		.byte	0
 1650 00a8 0F       		.uleb128 0xf
 1651 00a9 13       		.uleb128 0x13
 1652 00aa 01       		.byte	0x1
 1653 00ab 03       		.uleb128 0x3
 1654 00ac 0E       		.uleb128 0xe
 1655 00ad 0B       		.uleb128 0xb
 1656 00ae 05       		.uleb128 0x5
 1657 00af 3A       		.uleb128 0x3a
 1658 00b0 0B       		.uleb128 0xb
 1659 00b1 3B       		.uleb128 0x3b
 1660 00b2 05       		.uleb128 0x5
 1661 00b3 01       		.uleb128 0x1
 1662 00b4 13       		.uleb128 0x13
 1663 00b5 00       		.byte	0
 1664 00b6 00       		.byte	0
 1665 00b7 10       		.uleb128 0x10
 1666 00b8 01       		.uleb128 0x1
 1667 00b9 01       		.byte	0x1
 1668 00ba 49       		.uleb128 0x49
 1669 00bb 13       		.uleb128 0x13
 1670 00bc 01       		.uleb128 0x1
 1671 00bd 13       		.uleb128 0x13
 1672 00be 00       		.byte	0
 1673 00bf 00       		.byte	0
ARM GAS  /var/folders/c6/c789hm653lg9vtl73krp73tm0000gn/T//ccqGJAXs.s 			page 43


 1674 00c0 11       		.uleb128 0x11
 1675 00c1 21       		.uleb128 0x21
 1676 00c2 00       		.byte	0
 1677 00c3 49       		.uleb128 0x49
 1678 00c4 13       		.uleb128 0x13
 1679 00c5 2F       		.uleb128 0x2f
 1680 00c6 0B       		.uleb128 0xb
 1681 00c7 00       		.byte	0
 1682 00c8 00       		.byte	0
 1683 00c9 12       		.uleb128 0x12
 1684 00ca 0D       		.uleb128 0xd
 1685 00cb 00       		.byte	0
 1686 00cc 03       		.uleb128 0x3
 1687 00cd 08       		.uleb128 0x8
 1688 00ce 3A       		.uleb128 0x3a
 1689 00cf 0B       		.uleb128 0xb
 1690 00d0 3B       		.uleb128 0x3b
 1691 00d1 0B       		.uleb128 0xb
 1692 00d2 49       		.uleb128 0x49
 1693 00d3 13       		.uleb128 0x13
 1694 00d4 38       		.uleb128 0x38
 1695 00d5 0B       		.uleb128 0xb
 1696 00d6 00       		.byte	0
 1697 00d7 00       		.byte	0
 1698 00d8 13       		.uleb128 0x13
 1699 00d9 13       		.uleb128 0x13
 1700 00da 01       		.byte	0x1
 1701 00db 0B       		.uleb128 0xb
 1702 00dc 0B       		.uleb128 0xb
 1703 00dd 3A       		.uleb128 0x3a
 1704 00de 0B       		.uleb128 0xb
 1705 00df 3B       		.uleb128 0x3b
 1706 00e0 05       		.uleb128 0x5
 1707 00e1 01       		.uleb128 0x1
 1708 00e2 13       		.uleb128 0x13
 1709 00e3 00       		.byte	0
 1710 00e4 00       		.byte	0
 1711 00e5 14       		.uleb128 0x14
 1712 00e6 16       		.uleb128 0x16
 1713 00e7 00       		.byte	0
 1714 00e8 03       		.uleb128 0x3
 1715 00e9 0E       		.uleb128 0xe
 1716 00ea 3A       		.uleb128 0x3a
 1717 00eb 0B       		.uleb128 0xb
 1718 00ec 3B       		.uleb128 0x3b
 1719 00ed 05       		.uleb128 0x5
 1720 00ee 49       		.uleb128 0x49
 1721 00ef 13       		.uleb128 0x13
 1722 00f0 00       		.byte	0
 1723 00f1 00       		.byte	0
 1724 00f2 15       		.uleb128 0x15
 1725 00f3 13       		.uleb128 0x13
 1726 00f4 01       		.byte	0x1
 1727 00f5 0B       		.uleb128 0xb
 1728 00f6 0B       		.uleb128 0xb
 1729 00f7 3A       		.uleb128 0x3a
 1730 00f8 0B       		.uleb128 0xb
ARM GAS  /var/folders/c6/c789hm653lg9vtl73krp73tm0000gn/T//ccqGJAXs.s 			page 44


 1731 00f9 3B       		.uleb128 0x3b
 1732 00fa 0B       		.uleb128 0xb
 1733 00fb 01       		.uleb128 0x1
 1734 00fc 13       		.uleb128 0x13
 1735 00fd 00       		.byte	0
 1736 00fe 00       		.byte	0
 1737 00ff 16       		.uleb128 0x16
 1738 0100 17       		.uleb128 0x17
 1739 0101 01       		.byte	0x1
 1740 0102 0B       		.uleb128 0xb
 1741 0103 0B       		.uleb128 0xb
 1742 0104 3A       		.uleb128 0x3a
 1743 0105 0B       		.uleb128 0xb
 1744 0106 3B       		.uleb128 0x3b
 1745 0107 0B       		.uleb128 0xb
 1746 0108 01       		.uleb128 0x1
 1747 0109 13       		.uleb128 0x13
 1748 010a 00       		.byte	0
 1749 010b 00       		.byte	0
 1750 010c 17       		.uleb128 0x17
 1751 010d 0D       		.uleb128 0xd
 1752 010e 00       		.byte	0
 1753 010f 03       		.uleb128 0x3
 1754 0110 0E       		.uleb128 0xe
 1755 0111 3A       		.uleb128 0x3a
 1756 0112 0B       		.uleb128 0xb
 1757 0113 3B       		.uleb128 0x3b
 1758 0114 05       		.uleb128 0x5
 1759 0115 49       		.uleb128 0x49
 1760 0116 13       		.uleb128 0x13
 1761 0117 00       		.byte	0
 1762 0118 00       		.byte	0
 1763 0119 18       		.uleb128 0x18
 1764 011a 26       		.uleb128 0x26
 1765 011b 00       		.byte	0
 1766 011c 49       		.uleb128 0x49
 1767 011d 13       		.uleb128 0x13
 1768 011e 00       		.byte	0
 1769 011f 00       		.byte	0
 1770 0120 19       		.uleb128 0x19
 1771 0121 2E       		.uleb128 0x2e
 1772 0122 01       		.byte	0x1
 1773 0123 03       		.uleb128 0x3
 1774 0124 0E       		.uleb128 0xe
 1775 0125 3A       		.uleb128 0x3a
 1776 0126 0B       		.uleb128 0xb
 1777 0127 3B       		.uleb128 0x3b
 1778 0128 0B       		.uleb128 0xb
 1779 0129 27       		.uleb128 0x27
 1780 012a 19       		.uleb128 0x19
 1781 012b 20       		.uleb128 0x20
 1782 012c 0B       		.uleb128 0xb
 1783 012d 01       		.uleb128 0x1
 1784 012e 13       		.uleb128 0x13
 1785 012f 00       		.byte	0
 1786 0130 00       		.byte	0
 1787 0131 1A       		.uleb128 0x1a
ARM GAS  /var/folders/c6/c789hm653lg9vtl73krp73tm0000gn/T//ccqGJAXs.s 			page 45


 1788 0132 05       		.uleb128 0x5
 1789 0133 00       		.byte	0
 1790 0134 03       		.uleb128 0x3
 1791 0135 0E       		.uleb128 0xe
 1792 0136 3A       		.uleb128 0x3a
 1793 0137 0B       		.uleb128 0xb
 1794 0138 3B       		.uleb128 0x3b
 1795 0139 0B       		.uleb128 0xb
 1796 013a 49       		.uleb128 0x49
 1797 013b 13       		.uleb128 0x13
 1798 013c 00       		.byte	0
 1799 013d 00       		.byte	0
 1800 013e 1B       		.uleb128 0x1b
 1801 013f 2E       		.uleb128 0x2e
 1802 0140 00       		.byte	0
 1803 0141 03       		.uleb128 0x3
 1804 0142 0E       		.uleb128 0xe
 1805 0143 3A       		.uleb128 0x3a
 1806 0144 0B       		.uleb128 0xb
 1807 0145 3B       		.uleb128 0x3b
 1808 0146 0B       		.uleb128 0xb
 1809 0147 27       		.uleb128 0x27
 1810 0148 19       		.uleb128 0x19
 1811 0149 20       		.uleb128 0x20
 1812 014a 0B       		.uleb128 0xb
 1813 014b 00       		.byte	0
 1814 014c 00       		.byte	0
 1815 014d 1C       		.uleb128 0x1c
 1816 014e 2E       		.uleb128 0x2e
 1817 014f 00       		.byte	0
 1818 0150 03       		.uleb128 0x3
 1819 0151 0E       		.uleb128 0xe
 1820 0152 3A       		.uleb128 0x3a
 1821 0153 0B       		.uleb128 0xb
 1822 0154 3B       		.uleb128 0x3b
 1823 0155 0B       		.uleb128 0xb
 1824 0156 27       		.uleb128 0x27
 1825 0157 19       		.uleb128 0x19
 1826 0158 49       		.uleb128 0x49
 1827 0159 13       		.uleb128 0x13
 1828 015a 20       		.uleb128 0x20
 1829 015b 0B       		.uleb128 0xb
 1830 015c 00       		.byte	0
 1831 015d 00       		.byte	0
 1832 015e 1D       		.uleb128 0x1d
 1833 015f 2E       		.uleb128 0x2e
 1834 0160 01       		.byte	0x1
 1835 0161 3F       		.uleb128 0x3f
 1836 0162 19       		.uleb128 0x19
 1837 0163 03       		.uleb128 0x3
 1838 0164 0E       		.uleb128 0xe
 1839 0165 3A       		.uleb128 0x3a
 1840 0166 0B       		.uleb128 0xb
 1841 0167 3B       		.uleb128 0x3b
 1842 0168 0B       		.uleb128 0xb
 1843 0169 27       		.uleb128 0x27
 1844 016a 19       		.uleb128 0x19
ARM GAS  /var/folders/c6/c789hm653lg9vtl73krp73tm0000gn/T//ccqGJAXs.s 			page 46


 1845 016b 11       		.uleb128 0x11
 1846 016c 01       		.uleb128 0x1
 1847 016d 12       		.uleb128 0x12
 1848 016e 06       		.uleb128 0x6
 1849 016f 40       		.uleb128 0x40
 1850 0170 18       		.uleb128 0x18
 1851 0171 9742     		.uleb128 0x2117
 1852 0173 19       		.uleb128 0x19
 1853 0174 01       		.uleb128 0x1
 1854 0175 13       		.uleb128 0x13
 1855 0176 00       		.byte	0
 1856 0177 00       		.byte	0
 1857 0178 1E       		.uleb128 0x1e
 1858 0179 898201   		.uleb128 0x4109
 1859 017c 00       		.byte	0
 1860 017d 11       		.uleb128 0x11
 1861 017e 01       		.uleb128 0x1
 1862 017f 9542     		.uleb128 0x2115
 1863 0181 19       		.uleb128 0x19
 1864 0182 31       		.uleb128 0x31
 1865 0183 13       		.uleb128 0x13
 1866 0184 00       		.byte	0
 1867 0185 00       		.byte	0
 1868 0186 1F       		.uleb128 0x1f
 1869 0187 05       		.uleb128 0x5
 1870 0188 00       		.byte	0
 1871 0189 03       		.uleb128 0x3
 1872 018a 0E       		.uleb128 0xe
 1873 018b 3A       		.uleb128 0x3a
 1874 018c 0B       		.uleb128 0xb
 1875 018d 3B       		.uleb128 0x3b
 1876 018e 0B       		.uleb128 0xb
 1877 018f 49       		.uleb128 0x49
 1878 0190 13       		.uleb128 0x13
 1879 0191 02       		.uleb128 0x2
 1880 0192 18       		.uleb128 0x18
 1881 0193 00       		.byte	0
 1882 0194 00       		.byte	0
 1883 0195 20       		.uleb128 0x20
 1884 0196 34       		.uleb128 0x34
 1885 0197 00       		.byte	0
 1886 0198 03       		.uleb128 0x3
 1887 0199 0E       		.uleb128 0xe
 1888 019a 49       		.uleb128 0x49
 1889 019b 13       		.uleb128 0x13
 1890 019c 34       		.uleb128 0x34
 1891 019d 19       		.uleb128 0x19
 1892 019e 00       		.byte	0
 1893 019f 00       		.byte	0
 1894 01a0 21       		.uleb128 0x21
 1895 01a1 1D       		.uleb128 0x1d
 1896 01a2 01       		.byte	0x1
 1897 01a3 31       		.uleb128 0x31
 1898 01a4 13       		.uleb128 0x13
 1899 01a5 11       		.uleb128 0x11
 1900 01a6 01       		.uleb128 0x1
 1901 01a7 12       		.uleb128 0x12
ARM GAS  /var/folders/c6/c789hm653lg9vtl73krp73tm0000gn/T//ccqGJAXs.s 			page 47


 1902 01a8 06       		.uleb128 0x6
 1903 01a9 58       		.uleb128 0x58
 1904 01aa 0B       		.uleb128 0xb
 1905 01ab 59       		.uleb128 0x59
 1906 01ac 0B       		.uleb128 0xb
 1907 01ad 00       		.byte	0
 1908 01ae 00       		.byte	0
 1909 01af 22       		.uleb128 0x22
 1910 01b0 05       		.uleb128 0x5
 1911 01b1 00       		.byte	0
 1912 01b2 31       		.uleb128 0x31
 1913 01b3 13       		.uleb128 0x13
 1914 01b4 02       		.uleb128 0x2
 1915 01b5 18       		.uleb128 0x18
 1916 01b6 00       		.byte	0
 1917 01b7 00       		.byte	0
 1918 01b8 23       		.uleb128 0x23
 1919 01b9 1D       		.uleb128 0x1d
 1920 01ba 00       		.byte	0
 1921 01bb 31       		.uleb128 0x31
 1922 01bc 13       		.uleb128 0x13
 1923 01bd 11       		.uleb128 0x11
 1924 01be 01       		.uleb128 0x1
 1925 01bf 12       		.uleb128 0x12
 1926 01c0 06       		.uleb128 0x6
 1927 01c1 58       		.uleb128 0x58
 1928 01c2 0B       		.uleb128 0xb
 1929 01c3 59       		.uleb128 0x59
 1930 01c4 0B       		.uleb128 0xb
 1931 01c5 00       		.byte	0
 1932 01c6 00       		.byte	0
 1933 01c7 24       		.uleb128 0x24
 1934 01c8 2E       		.uleb128 0x2e
 1935 01c9 01       		.byte	0x1
 1936 01ca 3F       		.uleb128 0x3f
 1937 01cb 19       		.uleb128 0x19
 1938 01cc 03       		.uleb128 0x3
 1939 01cd 0E       		.uleb128 0xe
 1940 01ce 3A       		.uleb128 0x3a
 1941 01cf 0B       		.uleb128 0xb
 1942 01d0 3B       		.uleb128 0x3b
 1943 01d1 0B       		.uleb128 0xb
 1944 01d2 27       		.uleb128 0x27
 1945 01d3 19       		.uleb128 0x19
 1946 01d4 49       		.uleb128 0x49
 1947 01d5 13       		.uleb128 0x13
 1948 01d6 11       		.uleb128 0x11
 1949 01d7 01       		.uleb128 0x1
 1950 01d8 12       		.uleb128 0x12
 1951 01d9 06       		.uleb128 0x6
 1952 01da 40       		.uleb128 0x40
 1953 01db 18       		.uleb128 0x18
 1954 01dc 9742     		.uleb128 0x2117
 1955 01de 19       		.uleb128 0x19
 1956 01df 01       		.uleb128 0x1
 1957 01e0 13       		.uleb128 0x13
 1958 01e1 00       		.byte	0
ARM GAS  /var/folders/c6/c789hm653lg9vtl73krp73tm0000gn/T//ccqGJAXs.s 			page 48


 1959 01e2 00       		.byte	0
 1960 01e3 25       		.uleb128 0x25
 1961 01e4 34       		.uleb128 0x34
 1962 01e5 00       		.byte	0
 1963 01e6 03       		.uleb128 0x3
 1964 01e7 0E       		.uleb128 0xe
 1965 01e8 3A       		.uleb128 0x3a
 1966 01e9 0B       		.uleb128 0xb
 1967 01ea 3B       		.uleb128 0x3b
 1968 01eb 05       		.uleb128 0x5
 1969 01ec 49       		.uleb128 0x49
 1970 01ed 13       		.uleb128 0x13
 1971 01ee 3F       		.uleb128 0x3f
 1972 01ef 19       		.uleb128 0x19
 1973 01f0 3C       		.uleb128 0x3c
 1974 01f1 19       		.uleb128 0x19
 1975 01f2 00       		.byte	0
 1976 01f3 00       		.byte	0
 1977 01f4 26       		.uleb128 0x26
 1978 01f5 34       		.uleb128 0x34
 1979 01f6 00       		.byte	0
 1980 01f7 03       		.uleb128 0x3
 1981 01f8 08       		.uleb128 0x8
 1982 01f9 3A       		.uleb128 0x3a
 1983 01fa 0B       		.uleb128 0xb
 1984 01fb 3B       		.uleb128 0x3b
 1985 01fc 05       		.uleb128 0x5
 1986 01fd 49       		.uleb128 0x49
 1987 01fe 13       		.uleb128 0x13
 1988 01ff 3F       		.uleb128 0x3f
 1989 0200 19       		.uleb128 0x19
 1990 0201 3C       		.uleb128 0x3c
 1991 0202 19       		.uleb128 0x19
 1992 0203 00       		.byte	0
 1993 0204 00       		.byte	0
 1994 0205 27       		.uleb128 0x27
 1995 0206 2E       		.uleb128 0x2e
 1996 0207 00       		.byte	0
 1997 0208 3F       		.uleb128 0x3f
 1998 0209 19       		.uleb128 0x19
 1999 020a 03       		.uleb128 0x3
 2000 020b 0E       		.uleb128 0xe
 2001 020c 3A       		.uleb128 0x3a
 2002 020d 0B       		.uleb128 0xb
 2003 020e 3B       		.uleb128 0x3b
 2004 020f 0B       		.uleb128 0xb
 2005 0210 27       		.uleb128 0x27
 2006 0211 19       		.uleb128 0x19
 2007 0212 3C       		.uleb128 0x3c
 2008 0213 19       		.uleb128 0x19
 2009 0214 00       		.byte	0
 2010 0215 00       		.byte	0
 2011 0216 00       		.byte	0
 2012              		.section	.debug_aranges,"",%progbits
 2013 0000 3C000000 		.4byte	0x3c
 2014 0004 0200     		.2byte	0x2
 2015 0006 00000000 		.4byte	.Ldebug_info0
ARM GAS  /var/folders/c6/c789hm653lg9vtl73krp73tm0000gn/T//ccqGJAXs.s 			page 49


 2016 000a 04       		.byte	0x4
 2017 000b 00       		.byte	0
 2018 000c 0000     		.2byte	0
 2019 000e 0000     		.2byte	0
 2020 0010 00000000 		.4byte	.LFB260
 2021 0014 04000000 		.4byte	.LFE260-.LFB260
 2022 0018 00000000 		.4byte	.LFB261
 2023 001c 10000000 		.4byte	.LFE261-.LFB261
 2024 0020 00000000 		.4byte	.LFB262
 2025 0024 0A000000 		.4byte	.LFE262-.LFB262
 2026 0028 00000000 		.4byte	.LFB263
 2027 002c 08000000 		.4byte	.LFE263-.LFB263
 2028 0030 00000000 		.4byte	.LFB264
 2029 0034 08000000 		.4byte	.LFE264-.LFB264
 2030 0038 00000000 		.4byte	0
 2031 003c 00000000 		.4byte	0
 2032              		.section	.debug_ranges,"",%progbits
 2033              	.Ldebug_ranges0:
 2034 0000 00000000 		.4byte	.LFB260
 2035 0004 04000000 		.4byte	.LFE260
 2036 0008 00000000 		.4byte	.LFB261
 2037 000c 10000000 		.4byte	.LFE261
 2038 0010 00000000 		.4byte	.LFB262
 2039 0014 0A000000 		.4byte	.LFE262
 2040 0018 00000000 		.4byte	.LFB263
 2041 001c 08000000 		.4byte	.LFE263
 2042 0020 00000000 		.4byte	.LFB264
 2043 0024 08000000 		.4byte	.LFE264
 2044 0028 00000000 		.4byte	0
 2045 002c 00000000 		.4byte	0
 2046              		.section	.debug_line,"",%progbits
 2047              	.Ldebug_line0:
 2048 0000 82020000 		.section	.debug_str,"MS",%progbits,1
 2048      02000C02 
 2048      00000201 
 2048      FB0E0D00 
 2048      01010101 
 2049              	.LASF124:
 2050 0000 474E5520 		.ascii	"GNU C 4.8.4 20140725 (release) [ARM/embedded-4_8-br"
 2050      4320342E 
 2050      382E3420 
 2050      32303134 
 2050      30373235 
 2051 0033 616E6368 		.ascii	"anch revision 213147] -mcpu=cortex-m4 -mno-thumb-in"
 2051      20726576 
 2051      6973696F 
 2051      6E203231 
 2051      33313437 
 2052 0066 74657277 		.ascii	"terwork -mthumb -ggdb -O2 -fomit-frame-pointer -fal"
 2052      6F726B20 
 2052      2D6D7468 
 2052      756D6220 
 2052      2D676764 
 2053 0099 69676E2D 		.ascii	"ign-functions=16 -ffunction-sections -fdata-section"
 2053      66756E63 
 2053      74696F6E 
 2053      733D3136 
ARM GAS  /var/folders/c6/c789hm653lg9vtl73krp73tm0000gn/T//ccqGJAXs.s 			page 50


 2053      202D6666 
 2054 00cc 73202D66 		.ascii	"s -fno-common -flto\000"
 2054      6E6F2D63 
 2054      6F6D6D6F 
 2054      6E202D66 
 2054      6C746F00 
 2055              	.LASF50:
 2056 00e0 72656164 		.ascii	"ready_list_t\000"
 2056      795F6C69 
 2056      73745F74 
 2056      00
 2057              	.LASF84:
 2058 00ed 44494552 		.ascii	"DIER\000"
 2058      00
 2059              	.LASF98:
 2060 00f2 77747472 		.ascii	"wttrp\000"
 2060      7000
 2061              	.LASF95:
 2062 00f8 7264796D 		.ascii	"rdymsg\000"
 2062      736700
 2063              	.LASF16:
 2064 00ff 75696E74 		.ascii	"uint64_t\000"
 2064      36345F74 
 2064      00
 2065              	.LASF122:
 2066 0108 5F5F6675 		.ascii	"__func__.7248\000"
 2066      6E635F5F 
 2066      2E373234 
 2066      3800
 2067              	.LASF5:
 2068 0116 5F5F7569 		.ascii	"__uint8_t\000"
 2068      6E74385F 
 2068      7400
 2069              	.LASF82:
 2070 0120 706F7274 		.ascii	"port_intctx\000"
 2070      5F696E74 
 2070      63747800 
 2071              	.LASF69:
 2072 012c 73797374 		.ascii	"system_debug_t\000"
 2072      656D5F64 
 2072      65627567 
 2072      5F7400
 2073              	.LASF12:
 2074 013b 6C6F6E67 		.ascii	"long long unsigned int\000"
 2074      206C6F6E 
 2074      6720756E 
 2074      7369676E 
 2074      65642069 
 2075              	.LASF96:
 2076 0152 65786974 		.ascii	"exitcode\000"
 2076      636F6465 
 2076      00
 2077              	.LASF76:
 2078 015b 6D61696E 		.ascii	"mainthread\000"
 2078      74687265 
 2078      616400
 2079              	.LASF66:
ARM GAS  /var/folders/c6/c789hm653lg9vtl73krp73tm0000gn/T//ccqGJAXs.s 			page 51


 2080 0166 76697274 		.ascii	"virtual_timers_list_t\000"
 2080      75616C5F 
 2080      74696D65 
 2080      72735F6C 
 2080      6973745F 
 2081              	.LASF123:
 2082 017c 49544D5F 		.ascii	"ITM_RxBuffer\000"
 2082      52784275 
 2082      66666572 
 2082      00
 2083              	.LASF130:
 2084 0189 73745F6C 		.ascii	"st_lld_init\000"
 2084      6C645F69 
 2084      6E697400 
 2085              	.LASF88:
 2086 0195 42445452 		.ascii	"BDTR\000"
 2086      00
 2087              	.LASF49:
 2088 019a 63685F74 		.ascii	"ch_threads_queue\000"
 2088      68726561 
 2088      64735F71 
 2088      75657565 
 2088      00
 2089              	.LASF29:
 2090 01ab 705F7072 		.ascii	"p_prio\000"
 2090      696F00
 2091              	.LASF85:
 2092 01b2 43434D52 		.ascii	"CCMR1\000"
 2092      3100
 2093              	.LASF86:
 2094 01b8 43434D52 		.ascii	"CCMR2\000"
 2094      3200
 2095              	.LASF90:
 2096 01be 43434D52 		.ascii	"CCMR3\000"
 2096      3300
 2097              	.LASF1:
 2098 01c4 7369676E 		.ascii	"signed char\000"
 2098      65642063 
 2098      68617200 
 2099              	.LASF106:
 2100 01d0 6D5F7175 		.ascii	"m_queue\000"
 2100      65756500 
 2101              	.LASF75:
 2102 01d8 76746C69 		.ascii	"vtlist\000"
 2102      737400
 2103              	.LASF73:
 2104 01df 63685F73 		.ascii	"ch_system\000"
 2104      79737465 
 2104      6D00
 2105              	.LASF7:
 2106 01e9 6C6F6E67 		.ascii	"long int\000"
 2106      20696E74 
 2106      00
 2107              	.LASF121:
 2108 01f2 5F5F6675 		.ascii	"__func__.7244\000"
 2108      6E635F5F 
 2108      2E373234 
ARM GAS  /var/folders/c6/c789hm653lg9vtl73krp73tm0000gn/T//ccqGJAXs.s 			page 52


 2108      3400
 2109              	.LASF18:
 2110 0200 746D6F64 		.ascii	"tmode_t\000"
 2110      655F7400 
 2111              	.LASF19:
 2112 0208 74737461 		.ascii	"tstate_t\000"
 2112      74655F74 
 2112      00
 2113              	.LASF87:
 2114 0211 43434552 		.ascii	"CCER\000"
 2114      00
 2115              	.LASF10:
 2116 0216 6C6F6E67 		.ascii	"long long int\000"
 2116      206C6F6E 
 2116      6720696E 
 2116      7400
 2117              	.LASF31:
 2118 0224 705F6E65 		.ascii	"p_newer\000"
 2118      77657200 
 2119              	.LASF103:
 2120 022c 735F7175 		.ascii	"s_queue\000"
 2120      65756500 
 2121              	.LASF4:
 2122 0234 73686F72 		.ascii	"short unsigned int\000"
 2122      7420756E 
 2122      7369676E 
 2122      65642069 
 2122      6E7400
 2123              	.LASF55:
 2124 0247 725F6E65 		.ascii	"r_newer\000"
 2124      77657200 
 2125              	.LASF43:
 2126 024f 705F6D70 		.ascii	"p_mpool\000"
 2126      6F6F6C00 
 2127              	.LASF79:
 2128 0257 72656761 		.ascii	"regarm_t\000"
 2128      726D5F74 
 2128      00
 2129              	.LASF62:
 2130 0260 76745F70 		.ascii	"vt_prev\000"
 2130      72657600 
 2131              	.LASF110:
 2132 0268 6D757465 		.ascii	"mutex_t\000"
 2132      785F7400 
 2133              	.LASF77:
 2134 0270 69646C65 		.ascii	"idle_thread_wa\000"
 2134      5F746872 
 2134      6561645F 
 2134      776100
 2135              	.LASF24:
 2136 027f 636E745F 		.ascii	"cnt_t\000"
 2136      7400
 2137              	.LASF0:
 2138 0285 756E7369 		.ascii	"unsigned int\000"
 2138      676E6564 
 2138      20696E74 
 2138      00
ARM GAS  /var/folders/c6/c789hm653lg9vtl73krp73tm0000gn/T//ccqGJAXs.s 			page 53


 2139              	.LASF61:
 2140 0292 76745F6E 		.ascii	"vt_next\000"
 2140      65787400 
 2141              	.LASF99:
 2142 029a 77747365 		.ascii	"wtsemp\000"
 2142      6D7000
 2143              	.LASF125:
 2144 02a1 2E2E2F2E 		.ascii	"../../../os/hal/src/st.c\000"
 2144      2E2F2E2E 
 2144      2F6F732F 
 2144      68616C2F 
 2144      7372632F 
 2145              	.LASF38:
 2146 02ba 705F6D73 		.ascii	"p_msgqueue\000"
 2146      67717565 
 2146      756500
 2147              	.LASF104:
 2148 02c5 735F636E 		.ascii	"s_cnt\000"
 2148      7400
 2149              	.LASF83:
 2150 02cb 534D4352 		.ascii	"SMCR\000"
 2150      00
 2151              	.LASF46:
 2152 02d0 63685F74 		.ascii	"ch_thread\000"
 2152      68726561 
 2152      6400
 2153              	.LASF22:
 2154 02da 6D73675F 		.ascii	"msg_t\000"
 2154      7400
 2155              	.LASF72:
 2156 02e0 63685F73 		.ascii	"ch_system_t\000"
 2156      79737465 
 2156      6D5F7400 
 2157              	.LASF92:
 2158 02ec 73746D33 		.ascii	"stm32_tim_t\000"
 2158      325F7469 
 2158      6D5F7400 
 2159              	.LASF51:
 2160 02f8 63685F72 		.ascii	"ch_ready_list\000"
 2160      65616479 
 2160      5F6C6973 
 2160      7400
 2161              	.LASF23:
 2162 0306 6576656E 		.ascii	"eventmask_t\000"
 2162      746D6173 
 2162      6B5F7400 
 2163              	.LASF6:
 2164 0312 5F5F696E 		.ascii	"__int32_t\000"
 2164      7433325F 
 2164      7400
 2165              	.LASF112:
 2166 031c 73745F6C 		.ascii	"st_lld_start_alarm\000"
 2166      6C645F73 
 2166      74617274 
 2166      5F616C61 
 2166      726D00
 2167              	.LASF80:
ARM GAS  /var/folders/c6/c789hm653lg9vtl73krp73tm0000gn/T//ccqGJAXs.s 			page 54


 2168 032f 73746B61 		.ascii	"stkalign_t\000"
 2168      6C69676E 
 2168      5F7400
 2169              	.LASF37:
 2170 033a 705F7761 		.ascii	"p_waiting\000"
 2170      6974696E 
 2170      6700
 2171              	.LASF78:
 2172 0344 73697A65 		.ascii	"sizetype\000"
 2172      74797065 
 2172      00
 2173              	.LASF44:
 2174 034d 74687265 		.ascii	"thread_reference_t\000"
 2174      61645F72 
 2174      65666572 
 2174      656E6365 
 2174      5F7400
 2175              	.LASF67:
 2176 0360 63685F76 		.ascii	"ch_virtual_timers_list\000"
 2176      69727475 
 2176      616C5F74 
 2176      696D6572 
 2176      735F6C69 
 2177              	.LASF68:
 2178 0377 76745F6C 		.ascii	"vt_lasttime\000"
 2178      61737474 
 2178      696D6500 
 2179              	.LASF32:
 2180 0383 705F6F6C 		.ascii	"p_older\000"
 2180      64657200 
 2181              	.LASF115:
 2182 038b 7374496E 		.ascii	"stInit\000"
 2182      697400
 2183              	.LASF54:
 2184 0392 725F6374 		.ascii	"r_ctx\000"
 2184      7800
 2185              	.LASF94:
 2186 0398 746D5F63 		.ascii	"tm_calibration_t\000"
 2186      616C6962 
 2186      72617469 
 2186      6F6E5F74 
 2186      00
 2187              	.LASF114:
 2188 03a9 74696D65 		.ascii	"time\000"
 2188      00
 2189              	.LASF57:
 2190 03ae 725F6375 		.ascii	"r_current\000"
 2190      7272656E 
 2190      7400
 2191              	.LASF56:
 2192 03b8 725F6F6C 		.ascii	"r_older\000"
 2192      64657200 
 2193              	.LASF11:
 2194 03c0 5F5F7569 		.ascii	"__uint64_t\000"
 2194      6E743634 
 2194      5F7400
 2195              	.LASF20:
ARM GAS  /var/folders/c6/c789hm653lg9vtl73krp73tm0000gn/T//ccqGJAXs.s 			page 55


 2196 03cb 74726566 		.ascii	"trefs_t\000"
 2196      735F7400 
 2197              	.LASF59:
 2198 03d3 76697274 		.ascii	"virtual_timer_t\000"
 2198      75616C5F 
 2198      74696D65 
 2198      725F7400 
 2199              	.LASF28:
 2200 03e3 705F7072 		.ascii	"p_prev\000"
 2200      657600
 2201              	.LASF21:
 2202 03ea 74707269 		.ascii	"tprio_t\000"
 2202      6F5F7400 
 2203              	.LASF70:
 2204 03f2 63685F73 		.ascii	"ch_system_debug\000"
 2204      79737465 
 2204      6D5F6465 
 2204      62756700 
 2205              	.LASF111:
 2206 0402 5F426F6F 		.ascii	"_Bool\000"
 2206      6C00
 2207              	.LASF14:
 2208 0408 696E7433 		.ascii	"int32_t\000"
 2208      325F7400 
 2209              	.LASF2:
 2210 0410 756E7369 		.ascii	"unsigned char\000"
 2210      676E6564 
 2210      20636861 
 2210      7200
 2211              	.LASF41:
 2212 041e 705F6D74 		.ascii	"p_mtxlist\000"
 2212      786C6973 
 2212      7400
 2213              	.LASF3:
 2214 0428 73686F72 		.ascii	"short int\000"
 2214      7420696E 
 2214      7400
 2215              	.LASF34:
 2216 0432 705F7374 		.ascii	"p_state\000"
 2216      61746500 
 2217              	.LASF53:
 2218 043a 725F7072 		.ascii	"r_prio\000"
 2218      696F00
 2219              	.LASF101:
 2220 0441 65776D61 		.ascii	"ewmask\000"
 2220      736B00
 2221              	.LASF27:
 2222 0448 705F6E65 		.ascii	"p_next\000"
 2222      787400
 2223              	.LASF13:
 2224 044f 75696E74 		.ascii	"uint8_t\000"
 2224      385F7400 
 2225              	.LASF60:
 2226 0457 63685F76 		.ascii	"ch_virtual_timer\000"
 2226      69727475 
 2226      616C5F74 
 2226      696D6572 
ARM GAS  /var/folders/c6/c789hm653lg9vtl73krp73tm0000gn/T//ccqGJAXs.s 			page 56


 2226      00
 2227              	.LASF128:
 2228 0468 73745F6C 		.ascii	"st_lld_get_alarm\000"
 2228      6C645F67 
 2228      65745F61 
 2228      6C61726D 
 2228      00
 2229              	.LASF102:
 2230 0479 63685F73 		.ascii	"ch_semaphore\000"
 2230      656D6170 
 2230      686F7265 
 2230      00
 2231              	.LASF91:
 2232 0486 43435852 		.ascii	"CCXR\000"
 2232      00
 2233              	.LASF40:
 2234 048b 705F6570 		.ascii	"p_epending\000"
 2234      656E6469 
 2234      6E6700
 2235              	.LASF15:
 2236 0496 75696E74 		.ascii	"uint32_t\000"
 2236      33325F74 
 2236      00
 2237              	.LASF100:
 2238 049f 77746D74 		.ascii	"wtmtxp\000"
 2238      787000
 2239              	.LASF52:
 2240 04a6 725F7175 		.ascii	"r_queue\000"
 2240      65756500 
 2241              	.LASF63:
 2242 04ae 76745F64 		.ascii	"vt_delta\000"
 2242      656C7461 
 2242      00
 2243              	.LASF47:
 2244 04b7 63685F74 		.ascii	"ch_threads_list\000"
 2244      68726561 
 2244      64735F6C 
 2244      69737400 
 2245              	.LASF9:
 2246 04c7 6C6F6E67 		.ascii	"long unsigned int\000"
 2246      20756E73 
 2246      69676E65 
 2246      6420696E 
 2246      7400
 2247              	.LASF126:
 2248 04d9 2F557365 		.ascii	"/Users/savonetj/Downloads/ChibiOS_3.0.2/demos/STM32"
 2248      72732F73 
 2248      61766F6E 
 2248      65746A2F 
 2248      446F776E 
 2249 050c 2F52542D 		.ascii	"/RT-STM32F407-DISCOVERY\000"
 2249      53544D33 
 2249      32463430 
 2249      372D4449 
 2249      53434F56 
 2250              	.LASF117:
 2251 0524 73745374 		.ascii	"stStopAlarm\000"
ARM GAS  /var/folders/c6/c789hm653lg9vtl73krp73tm0000gn/T//ccqGJAXs.s 			page 57


 2251      6F70416C 
 2251      61726D00 
 2252              	.LASF109:
 2253 0530 63686172 		.ascii	"char\000"
 2253      00
 2254              	.LASF89:
 2255 0535 444D4152 		.ascii	"DMAR\000"
 2255      00
 2256              	.LASF26:
 2257 053a 74687265 		.ascii	"thread_t\000"
 2257      61645F74 
 2257      00
 2258              	.LASF108:
 2259 0543 6D5F6E65 		.ascii	"m_next\000"
 2259      787400
 2260              	.LASF25:
 2261 054a 73797374 		.ascii	"systime_t\000"
 2261      696D655F 
 2261      7400
 2262              	.LASF42:
 2263 0554 705F7265 		.ascii	"p_realprio\000"
 2263      616C7072 
 2263      696F00
 2264              	.LASF58:
 2265 055f 76746675 		.ascii	"vtfunc_t\000"
 2265      6E635F74 
 2265      00
 2266              	.LASF8:
 2267 0568 5F5F7569 		.ascii	"__uint32_t\000"
 2267      6E743332 
 2267      5F7400
 2268              	.LASF71:
 2269 0573 70616E69 		.ascii	"panic_msg\000"
 2269      635F6D73 
 2269      6700
 2270              	.LASF93:
 2271 057d 6F666673 		.ascii	"offset\000"
 2271      657400
 2272              	.LASF116:
 2273 0584 73745374 		.ascii	"stStartAlarm\000"
 2273      61727441 
 2273      6C61726D 
 2273      00
 2274              	.LASF81:
 2275 0591 636F6E74 		.ascii	"context\000"
 2275      65787400 
 2276              	.LASF39:
 2277 0599 705F6D73 		.ascii	"p_msg\000"
 2277      6700
 2278              	.LASF17:
 2279 059f 7274636E 		.ascii	"rtcnt_t\000"
 2279      745F7400 
 2280              	.LASF127:
 2281 05a7 73745F6C 		.ascii	"st_lld_stop_alarm\000"
 2281      6C645F73 
 2281      746F705F 
 2281      616C6172 
ARM GAS  /var/folders/c6/c789hm653lg9vtl73krp73tm0000gn/T//ccqGJAXs.s 			page 58


 2281      6D00
 2282              	.LASF65:
 2283 05b9 76745F70 		.ascii	"vt_par\000"
 2283      617200
 2284              	.LASF48:
 2285 05c0 74687265 		.ascii	"threads_queue_t\000"
 2285      6164735F 
 2285      71756575 
 2285      655F7400 
 2286              	.LASF105:
 2287 05d0 63685F6D 		.ascii	"ch_mutex\000"
 2287      75746578 
 2287      00
 2288              	.LASF36:
 2289 05d9 705F7265 		.ascii	"p_refs\000"
 2289      667300
 2290              	.LASF74:
 2291 05e0 726C6973 		.ascii	"rlist\000"
 2291      7400
 2292              	.LASF118:
 2293 05e6 73745365 		.ascii	"stSetAlarm\000"
 2293      74416C61 
 2293      726D00
 2294              	.LASF120:
 2295 05f1 5F5F6675 		.ascii	"__func__.7237\000"
 2295      6E635F5F 
 2295      2E373233 
 2295      3700
 2296              	.LASF129:
 2297 05ff 73744765 		.ascii	"stGetAlarm\000"
 2297      74416C61 
 2297      726D00
 2298              	.LASF97:
 2299 060a 77746F62 		.ascii	"wtobjp\000"
 2299      6A7000
 2300              	.LASF33:
 2301 0611 705F6E61 		.ascii	"p_name\000"
 2301      6D6500
 2302              	.LASF45:
 2303 0618 74687265 		.ascii	"threads_list_t\000"
 2303      6164735F 
 2303      6C697374 
 2303      5F7400
 2304              	.LASF119:
 2305 0627 61627374 		.ascii	"abstime\000"
 2305      696D6500 
 2306              	.LASF35:
 2307 062f 705F666C 		.ascii	"p_flags\000"
 2307      61677300 
 2308              	.LASF113:
 2309 0637 73745F6C 		.ascii	"st_lld_set_alarm\000"
 2309      6C645F73 
 2309      65745F61 
 2309      6C61726D 
 2309      00
 2310              	.LASF107:
 2311 0648 6D5F6F77 		.ascii	"m_owner\000"
ARM GAS  /var/folders/c6/c789hm653lg9vtl73krp73tm0000gn/T//ccqGJAXs.s 			page 59


 2311      6E657200 
 2312              	.LASF30:
 2313 0650 705F6374 		.ascii	"p_ctx\000"
 2313      7800
 2314              	.LASF64:
 2315 0656 76745F66 		.ascii	"vt_func\000"
 2315      756E6300 
 2316              		.comm	__gnu_lto_v1,1,1
 2317              		.ident	"GCC: (GNU Tools for ARM Embedded Processors) 4.8.4 20140725 (release) [ARM/embedded-4_8-br
ARM GAS  /var/folders/c6/c789hm653lg9vtl73krp73tm0000gn/T//ccqGJAXs.s 			page 60


DEFINED SYMBOLS
                            *ABS*:0000000000000000 st.c
/var/folders/c6/c789hm653lg9vtl73krp73tm0000gn/T//ccqGJAXs.s:245    .text.stInit:0000000000000000 $t
/var/folders/c6/c789hm653lg9vtl73krp73tm0000gn/T//ccqGJAXs.s:251    .text.stInit:0000000000000000 stInit
/var/folders/c6/c789hm653lg9vtl73krp73tm0000gn/T//ccqGJAXs.s:266    .text.stStartAlarm:0000000000000000 $t
/var/folders/c6/c789hm653lg9vtl73krp73tm0000gn/T//ccqGJAXs.s:272    .text.stStartAlarm:0000000000000000 stStartAlarm
/var/folders/c6/c789hm653lg9vtl73krp73tm0000gn/T//ccqGJAXs.s:303    .text.stStopAlarm:0000000000000000 $t
/var/folders/c6/c789hm653lg9vtl73krp73tm0000gn/T//ccqGJAXs.s:309    .text.stStopAlarm:0000000000000000 stStopAlarm
/var/folders/c6/c789hm653lg9vtl73krp73tm0000gn/T//ccqGJAXs.s:329    .text.stSetAlarm:0000000000000000 $t
/var/folders/c6/c789hm653lg9vtl73krp73tm0000gn/T//ccqGJAXs.s:335    .text.stSetAlarm:0000000000000000 stSetAlarm
/var/folders/c6/c789hm653lg9vtl73krp73tm0000gn/T//ccqGJAXs.s:356    .text.stGetAlarm:0000000000000000 $t
/var/folders/c6/c789hm653lg9vtl73krp73tm0000gn/T//ccqGJAXs.s:362    .text.stGetAlarm:0000000000000000 stGetAlarm
                            *COM*:0000000000000001 __gnu_lto_v1
                     .debug_frame:0000000000000010 $d

UNDEFINED SYMBOLS
st_lld_init
