ARM GAS  /var/folders/c6/c789hm653lg9vtl73krp73tm0000gn/T//ccMOx09Q.s 			page 1


   1              		.syntax unified
   2              		.cpu cortex-m4
   3              		.fpu softvfp
   4              		.eabi_attribute 20, 1
   5              		.eabi_attribute 21, 1
   6              		.eabi_attribute 23, 3
   7              		.eabi_attribute 24, 1
   8              		.eabi_attribute 25, 1
   9              		.eabi_attribute 26, 1
  10              		.eabi_attribute 30, 2
  11              		.eabi_attribute 34, 1
  12              		.eabi_attribute 18, 4
  13              		.thumb
  14              		.file	"st_lld.c"
  15              		.text
  16              	.Ltext0:
  17              		.section	.gnu.lto_.jmpfuncs.f09d01de421efee7,"",%progbits
  18 0000 789C6362 		.ascii	"x\234cb`b\300\006\244\2414X\226\221\201\211)\2021\223"
  18      6062C006 
  18      A4A13458 
  18      96918189 
  18      29823193 
  19 0014 91410628 		.ascii	"\221A\006(\000fp\000E\001\031\363\001\323"
  19      00667000 
  19      450119F3 
  19      01D3
  20              		.text
  21              		.section	.gnu.lto_.inline.f09d01de421efee7,"",%progbits
  22 0000 789C6362 		.ascii	"x\234cb`b\300\006\254\2404P\226G\224\221\201\211\357"
  22      6062C006 
  22      ACA03450 
  22      96479491 
  22      8189EF
  23 0013 5E0003DB 		.ascii	"^\000\003\333\002y\260bF.8\301 \"\003\224\224yp\213"
  23      0279B062 
  23      462E38C1 
  23      20220394 
  23      9479708B 
  24 0027 112ECBCC 		.ascii	"\021.\313\314\003\326\305\000\000\260\004\005a"
  24      03D6C500 
  24      00B00405 
  24      61
  25              		.text
  26              		.section	.gnu.lto_.pureconst.f09d01de421efee7,"",%progbits
  27 0000 789C6362 		.ascii	"x\234cb`b`e\200\000&\006+F)\000\001f\000a"
  27      60626065 
  27      80002606 
  27      2B462900 
  27      01660061 
  28              		.text
  29              		.section	.gnu.lto_VectorB0.f09d01de421efee7,"",%progbits
  30 0000 789C8D53 		.ascii	"x\234\215SMh\023A\024~ov\323\244\265\201\366.1\024z"
  30      4D681341 
  30      147E6F76 
  30      D3A4B581 
  30      F62E3114 
  31 0015 10DBACD6 		.ascii	"\020\333\254\326\203W\245\"\024\232K\223\202\202P\266"
ARM GAS  /var/folders/c6/c789hm653lg9vtl73krp73tm0000gn/T//ccMOx09Q.s 			page 2


  31      8357A522 
  31      149A4B93 
  31      828250B6 
  32 0025 DBC52C24 		.ascii	"\333\305,$M\311&\245\305C'm\016B{(E\244\376\333\203"
  32      4DC926A5 
  32      C543276D 
  32      0E427B28 
  32      45A4FEDB 
  33 003a 0A0A168B 		.ascii	"\012\012\026\213hIT\212^\374\241-=\350A\004S\204\202"
  33      6849548A 
  33      5EFCA12D 
  33      3DE84104 
  33      538482
  34 004d 3F50EB45 		.ascii	"?P\353E\324H|\263\233l\267A\324\307\276y3\357}\373\346"
  34      D4487CB3 
  34      9B6CB741 
  34      D4C7BE79 
  34      33EF7DFB 
  35 0062 9B6F7619 		.ascii	"\233ov\0310\250\265\016\362K\022\300G\212\350\001d\323"
  35      30A8B50E 
  35      F24B12C0 
  35      478AE801 
  35      64D3
  36 0074 2B00591F 		.ascii	"+\000Y\037cR>\000\274A~\255\000o\224P\266\3232\242\230"
  36      63523E00 
  36      BC417EAD 
  36      006F9450 
  36      B6D332A2 
  37 0089 00C21893 		.ascii	"\000\302\030\223d\034;\201V\223y\266T,\227\357\344'"
  37      641C3B81 
  37      569379B6 
  37      542C97EF 
  37      E427
  38 009b AFBEC579 		.ascii	"\257\276\305y\346\227\300@\220\305@\346\201\034\347"
  38      E697C040 
  38      90C540E6 
  38      811CE7
  39 00aa D34100CD 		.ascii	"\323A\000\315ZFi\024-z\221\211(-\303\2237\263\205u\246"
  39      5A466914 
  39      2D7A9189 
  39      282DC393 
  39      37B38575 
  40 00bf E21C6D7F 		.ascii	"\342\034m\177\012\245}p\213\347\320@\274\010\027(\260"
  40      0AA57D70 
  40      8BE7D040 
  40      BC081728 
  40      B0
  41 00d0 E334489C 		.ascii	"\3434H\234L\006kjm\330\217U\376\3130Q\230\330\300\352"
  41      4C066B6A 
  41      6DD88F55 
  41      FECB3051 
  41      98D8C0EA 
  42 00e4 EB327510 		.ascii	"\3532u\0200\353\244\317 \3679\353wJV\336m\275\324-\037"
  42      30EBA4CF 
  42      20F739EB 
  42      774A56DE 
  42      6DBDD42D 
ARM GAS  /var/folders/c6/c789hm653lg9vtl73krp73tm0000gn/T//ccMOx09Q.s 			page 3


  43 00f9 10141617 		.ascii	"\020\024\026\027\013[\025\012\326\376Y\036\371O\006"
  43      0B5B150A 
  43      D6FE591E 
  43      F94F06
  44 0108 22634D9F 		.ascii	"\"cM\237\303\270\017\240\005\3468\237)\276\332z\320"
  44      C3B80FA0 
  44      05E6389F 
  44      29BEDA7A 
  44      D0
  45 0119 769E2FE5 		.ascii	"v\236/\345\256\361R\271\214\004\221\031\234D!\201\300"
  45      AEF152B9 
  45      8C049119 
  45      9C442181 
  45      C0
  46 012a 7B8256A8 		.ascii	"{\202V\250\223w^\205\310\311$\024\254\300\370\326\213"
  46      93775E85 
  46      C8C92414 
  46      ACC0F8D6 
  46      8B
  47 013b A70B5392 		.ascii	"\247\013S\222\243\235=Y\272\375s\263\211h\336\300\026"
  47      A39D3D59 
  47      BAFD73B3 
  47      8968DEC0 
  47      16
  48 014c 4758BEF9 		.ascii	"GX\276\371h\267S/\237\235\362\267o\257\316M6\337\365"
  48      68B7532F 
  48      9F9DF2B7 
  48      6FAFCE4D 
  48      36DFF5
  49 015f 38CB97DF 		.ascii	"8\313\227\337\276\322\302>\244\206\202\014#\227\310"
  49      BED2C23E 
  49      A486820C 
  49      2397C8
  50 016e 65720F58 		.ascii	"er\017X\327\212\260J)\022O\262\277\225\000\024\3612"
  50      D78AB04A 
  50      29124FB2 
  50      BF950014 
  50      F132
  51 0180 9F3D6CA0 		.ascii	"\237=l\240w\007\305\355\372\373J\335g\037b\025&\276"
  51      7707C5ED 
  51      FAFB4ADD 
  51      671F6215 
  51      26BE
  52 0192 BCBBBE31 		.ascii	"\274\273\2761\325^\313}\2624\356\335\336\276\316F\237"
  52      D55ECB7D 
  52      B234EEDD 
  52      DEBECE46 
  52      9F
  53 01a3 861FFC0C 		.ascii	"\206\037\374\014o2\260^C\257\212\367l\032\0066\324\352"
  53      6F32B05E 
  53      43AF8AF7 
  53      6C1A0636 
  53      D4EA
  54 01b5 F9E1618D 		.ascii	"\371\341a\215\236*\336\264\370\377SP\370\253\240\237"
  54      9E2ADEB4 
  54      F8FF5350 
  54      F8ABA09F 
ARM GAS  /var/folders/c6/c789hm653lg9vtl73krp73tm0000gn/T//ccMOx09Q.s 			page 4


  55 01c5 BE0B41EF 		.ascii	"\276\013A\357\273\005-<\016\270\004\315\373\025\227"
  55      BB052D3C 
  55      0EB804CD 
  55      FB1597
  56 01d4 A0579AD7 		.ascii	"\240W\232\327\\\202\226f\\'\362\221\327\2237\220\357"
  56      5C829666 
  56      5C27F291 
  56      D7933790 
  56      EF
  57 01e5 FA83A02A 		.ascii	"\372\203\240*\316\323\304\241T\025P\305\005\014\270"
  57      CED3C4A1 
  57      541550C5 
  57      050CB8
  58 01f4 3F49D9FA 		.ascii	"?I\331\372-H\306bI\267{\357\224\251\021\034\211\326"
  58      2D48C662 
  58      49B77BEF 
  58      94A9111C 
  58      89D6
  59 0206 205BFCD5 		.ascii	" [\374\325Z\005\331\026\245\233\245\006\242\267\022"
  59      5A05D916 
  59      A59BA506 
  59      A2B712
  60 0215 0A559EA4 		.ascii	"\012U\236\244\251\304\324\2702\224L\245M%\022\015\037"
  60      A9C4D4B8 
  60      32944CA5 
  60      4D25120D 
  60      1F
  61 0226 EC50BABB 		.ascii	"\354P\272\273\217*\321\256\360\360\001\305L\367\305"
  61      8F2AD1AE 
  61      F0F001C5 
  61      4CF7C5
  62 0235 E303210D 		.ascii	"\343\003!\015\366\272\361\251t\005~\244'\334\031\036"
  62      F6BAF1A9 
  62      74057EA4 
  62      27DC191E 
  63 0245 51B49896 		.ascii	"Q\264\230\226L\351}\303\207\022\241\030x\206\325xFo"
  63      4CE97DC3 
  63      8712A118 
  63      7886D578 
  63      466F
  64 0257 73E3F591 		.ascii	"s\343\365\221\264\322\031\216tE\024cP\213g\006t\305"
  64      B4D2198E 
  64      74451463 
  64      508B6706 
  64      74C5
  65 0269 C26B8963 		.ascii	"\302k\211c\231A\215^\331S\323\334A\305\314Q\263\266"
  65      99418D5E 
  65      D953D3DC 
  65      41C5CC51 
  65      B3B6
  66 027b 2EC8264D 		.ascii	".\310&M\032\010(\"\325\233\302\221\236`\277j\352C)\243"
  66      1A082822 
  66      D59BC291 
  66      9E60BF6A 
  66      EA4329A3 
  67 028f 2DD8BA1F 		.ascii	"-\330\272\037X\012\274\011=\221L\215\302o\316\305*\327"
  67      580ABC09 
ARM GAS  /var/folders/c6/c789hm653lg9vtl73krp73tm0000gn/T//ccMOx09Q.s 			page 5


  67      3D914C8D 
  67      C26FCEC5 
  67      2AD7
  68              		.text
  69              		.section	.gnu.lto_st_lld_init.f09d01de421efee7,"",%progbits
  70 0000 789C95D3 		.ascii	"x\234\225\323\275KBQ\024\000\360s\356\373\360i\321\307"
  70      BD4B4251 
  70      1400F073 
  70      EEFBF069 
  70      D1C7
  71 0012 6834B435 		.ascii	"h4\2645D>\254? \202\026A\247^\220S\230\201\011\202\221"
  71      443EAC3F 
  71      20821641 
  71      A75E9053 
  71      98810982 
  72 0027 D2D2E095 		.ascii	"\322\322\340\225\014\232\302Q\252\2455\242\240\3515"
  72      0C9AC251 
  72      AAA535A2 
  72      A0E935
  73 0036 44E6D462 		.ascii	"D\346\324b\322&\015\341&TX\243\264\330\275\357\313\324"
  73      D2260DE1 
  73      265458A3 
  73      B4D8BDEF 
  73      CBD4
  74 0048 90DE41CF 		.ascii	"\220\336A\317}\317{\317\317#\236G\200@\177\370\331{"
  74      7DCF7BCF 
  74      CF239E47 
  74      80407FF8 
  74      D97B
  75 005a 4A0408B2 		.ascii	"J\004\010\262\025\005@R|\002\310+\004\221_\000B\216"
  75      15054052 
  75      7C02C82B 
  75      04915F00 
  75      428E
  76 006c 602E8AC6 		.ascii	"`.\212\306\331kRnt:W7\307g\037xG&\011$\021\004\236$"
  76      D96B526E 
  76      743A5737 
  76      C7671F78 
  76      47260924 
  77 0084 9E649E58 		.ascii	"\236d\236XHP\240\2648\003\0207n5\2269\265\206\204\257"
  77      4850A0B4 
  77      38031037 
  77      6E359639 
  77      B58684AF 
  78 0098 42152A2F 		.ascii	"B\025*/\355\246?\206\347(A\002\311\034\\\320B~\"\211"
  78      EDA63F86 
  78      E7284102 
  78      C91C5CD0 
  78      427E2289 
  79 00ac 780A2798 		.ascii	"x\012'\230D\262\316\222@\277\216\250\010\306\245\361"
  79      44B2CE92 
  79      40BF8EA8 
  79      08C6A5F1 
  80 00bc D59B6837 		.ascii	"\325\233h7\\\205\203[\301\256\026\022\346y@c\247\022"
  80      5C85835B 
  80      C1AE1612 
  80      E6794063 
ARM GAS  /var/folders/c6/c789hm653lg9vtl73krp73tm0000gn/T//ccMOx09Q.s 			page 6


  80      A712
  81 00ce 3237DC99 		.ascii	"27\334\231\011~\317\333z|C\033\226\372\011\221\327I"
  81      097ECFDB 
  81      7A7C431B 
  81      96FA0991 
  81      D749
  82 00e0 B45CA463 		.ascii	"\264\\\244c\006!Y\004\376\325\226\314\200\177\2645\334"
  82      06215904 
  82      FED596CC 
  82      807FB435 
  82      DC
  83 00f1 648C51AC 		.ascii	"d\214Q\254\353\357\017\302o\200.9\202\314\313<\224\205"
  83      EBEF0FC2 
  83      6F802E39 
  83      82CCCB3C 
  83      9485
  84 0103 F9C33C96 		.ascii	"\371\303<\226`\376\317\374\023\254-\233=\350u\367\214"
  84      60FECFFC 
  84      13AC2D9B 
  84      3DE875F7 
  84      8C
  85 0114 D0653A2C 		.ascii	"\320e:,\306-\251\355^\022\273\022XJ\251e+\363p\311\225"
  85      C62DA9ED 
  85      5E12BB12 
  85      584AA965 
  85      2BF370C9 
  86 0129 28DBEC82 		.ascii	"(\333\354\202\312pPr@\2573\313=\274\336r\335\244<\250"
  86      CA705072 
  86      40AF33CB 
  86      3DBCDE72 
  86      DDA43CA8 
  87 013d D4DD2B9E 		.ascii	"\324\335+\236A\245\355^Q\034\305\036\"\275\364\351Z"
  87      41A5ED5E 
  87      511CC51E 
  87      22BDF4E9 
  87      5A
  88 014e F1F62A35 		.ascii	"\361\366*58l\3347}&\002\260\017\337\364\210\262y\364"
  88      386CDC37 
  88      7D2602B0 
  88      0FDFF488 
  88      B279F4
  89 0161 C5AD99E3 		.ascii	"\305\255\231\343'G\246\315Ea\317\363(\3003\344\033\257"
  89      2747A6CD 
  89      4561CFF3 
  89      28C033E4 
  89      1BAF
  90 0173 B3768919 		.ascii	"\263v\211\031\032;\316\236e>ej `\275\322\031u;\226R"
  90      1A3BCE9E 
  90      653E656A 
  90      2060BDD2 
  90      19753B96 
  91 0188 77D2BBD9 		.ascii	"w\322\273\331\214\272\252E\026\027\324pxE\325B\221\275"
  91      8CBAAA45 
  91      1617D470 
  91      7845D542 
  91      91BD
  92 019a A09AC96E 		.ascii	"\240\232\311n\244R[\2018\374\000\300\237\372\212"
ARM GAS  /var/folders/c6/c789hm653lg9vtl73krp73tm0000gn/T//ccMOx09Q.s 			page 7


  92      A4525B81 
  92      38FC00C0 
  92      9FFA8A
  93              		.text
  94              		.section	.gnu.lto_.symbol_nodes.f09d01de421efee7,"",%progbits
  95 0000 789C6362 		.ascii	"x\234cb`bHd\200\002\246\026\246z\006\206\011\347\030"
  95      60624864 
  95      8002A616 
  95      A67A0686 
  95      09E718
  96 0013 18EAEBE7 		.ascii	"\030\352\353\347u02\2652\3253\"\270\214mL\365L\020n"
  96      753032B5 
  96      32D53322 
  96      B88C6D4C 
  96      F54C106E 
  97 0027 43032363 		.ascii	"C\003#c;S=3\202\327\301T\317\002\3471303\034\336j\302"
  97      3B533D33 
  97      82D7C154 
  97      CF02E731 
  97      3330331C 
  98 003e 0C347B71 		.ascii	"\0144{q\333\033yfF\026\206\303\355o\344\031\000Zp\033"
  98      DB1B7966 
  98      461686C3 
  98      ED6FE419 
  98      005A701B 
  99 0052 82       		.ascii	"\202"
 100              		.text
 101              		.section	.gnu.lto_.refs.f09d01de421efee7,"",%progbits
 102 0000 789C6362 		.ascii	"x\234cb`b`d\200\002\000\000F\000\006"
 102      60626064 
 102      80020000 
 102      460006
 103              		.text
 104              		.section	.gnu.lto_.decls.f09d01de421efee7,"",%progbits
 105 0000 789CAD99 		.ascii	"x\234\255\231\177p\023\307\025\307wO\362\017aC\0347"
 105      7F7013C7 
 105      15C7774F 
 105      F20F6143 
 105      1C37
 106 0012 C9D0BF6C 		.ascii	"\311\320\277lf\232\246M\013\262e\222\320\351L\006#\033"
 106      669AA64D 
 106      0BB26592 
 106      D0E94C06 
 106      231B
 107 0024 F08C0D9E 		.ascii	"\360\214\015\236\223\311P\332\031\345\020\002k\"KT\222"
 107      93C950DA 
 107      19E51002 
 107      6B224B54 
 107      92
 108 0035 29FC9533 		.ascii	")\374\2253\016\2242\244\021\0161&\020l \264vJ\002\030"
 108      0E9432A4 
 108      110E3126 
 108      106C20B4 
 108      764A0218 
 109 0049 8798041C 		.ascii	"\207\230\004\034\205\360\303M\232\004\\\342\020\363"
 109      85F0C34D 
 109      9A045CE2 
ARM GAS  /var/folders/c6/c789hm653lg9vtl73krp73tm0000gn/T//ccMOx09Q.s 			page 8


 109      10F3
 110 0057 CB21054F 		.ascii	"\313!\005O(P\010P<\024\342\356\276\273\223n\317w\342"
 110      28500850 
 110      3C14E2EE 
 110      BEBB936E 
 110      CF77E2
 111 006a 2EED0DEF 		.ascii	".\355\015\357\335\351n\367\363\276\373\366\351\330\225"
 111      DDE96EF7 
 111      F3BEFBF6 
 111      E9D895
 112 0079 39C4A132 		.ascii	"9\304\2412\214\320\0109\232\013\020\332kG\310\206\020"
 112      8CD00839 
 112      9A0B10DA 
 112      6B47C886 
 112      10
 113 008a 7A9A18B9 		.ascii	"z\232\030\271\215\266 \351\310 \326Nl\007\261\235\304"
 113      8DB620E9 
 113      C820D64E 
 113      6C07B19D 
 113      C4
 114 009b 7613DB83 		.ascii	"v\023\333\203F\037\264M\016\261,b\335\304\366\021\273"
 114      461FB44D 
 114      0EB12C62 
 114      DDC4F611 
 114      BB
 115 00ac 2C73C611 		.ascii	",s\306\021\313%v\205\330ub7\210u\310q\216\020\033+\367"
 115      CB257685 
 115      D8756237 
 115      8875C871 
 115      8E101B2B 
 116 00c1 BF49EC36 		.ascii	"\277I\3546\261;\304\356!\251\201\003K1s\311\371\001"
 116      B13BC4EE 
 116      21A98103 
 116      4B3173C9 
 116      F901
 117 00d3 62F9C41E 		.ascii	"b\371\304\036\306\222\026\355\261Cf)\032\306\223v\277"
 117      C69216ED 
 117      B1436629 
 117      1AC69376 
 117      BF
 118 00e4 22368FD8 		.ascii	"\"6\217\330B\234\322\364%12\\\264\010K\372\272\210\215"
 118      429CD2F4 
 118      2531325C 
 118      B4084BFA 
 118      BA888D
 119 00f7 21F64BF2 		.ascii	"!\366K\362y>\261>r}\202\330G\304N\022;D,A\254\227X\017"
 119      793EB13E 
 119      727D82D8 
 119      47C44E12 
 119      3B442C41 
 120 010f 314E8EA5 		.ascii	"1N\216\245\227\007\007Z%\212\313\305\266\225\342\314"
 120      9707075A 
 120      258ACBC5 
 120      B695E2CC 
 121 011f 5E32EEB9 		.ascii	"^2\356\271X\300\343\034\250\020.r\035\020\366Q\364\272"
 121      58C0E31C 
 121      A8102E72 
ARM GAS  /var/folders/c6/c789hm653lg9vtl73krp73tm0000gn/T//ccMOx09Q.s 			page 9


 121      1D10F651 
 121      F4BA
 122 0131 28C6070F 		.ascii	"(\306\007\017\237\037\344D1[\300[\260\203 gc\3648\352"
 122      9F1FE444 
 122      315BC05B 
 122      B0832067 
 122      63F438EA 
 123 0145 10C913D2 		.ascii	"\020\311\023\322\177\022\376\237\320#+\367\377\002\320"
 123      7F12FE9F 
 123      D0232BF7 
 123      FF02D0
 124 0154 DB01BD1F 		.ascii	"\333\001\275\037c$\340\327\361\3432H\300Y\0165\030>"
 124      6324E0D7 
 124      F1E33248 
 124      C0590E35 
 124      183E
 125 0166 2B0D280D 		.ascii	"+\015(\015\036\313\027\264@\036@V\233\027\240\315b\333"
 125      1ECB17B4 
 125      401E4056 
 125      9B17A0CD 
 125      62DB
 126 0178 E060EBA7 		.ascii	"\340`\353\247W\3637\210\211\027\304\221\221\347\321"
 126      57F33788 
 126      8917C491 
 126      91E7D1
 127 0187 23E81532 		.ascii	"#\350\0252<\252_\3041\001?\375\260\356\020(\277\003"
 127      3CAA5FC4 
 127      31013FFD 
 127      B0EE1028 
 127      BF03
 128 0199 3F225FCD 		.ascii	"?\"_\315\261I19t[3\010\204~\214\266S\236\330.\332\200"
 128      B1493139 
 128      745B3308 
 128      847E8CB6 
 128      539ED82E 
 129 01af 46DBB7E3 		.ascii	"F\333\267\343\002V\352\033\230S\337\220t%\366\374\361"
 129      0256EA1B 
 129      9853DF90 
 129      7425F6FC 
 129      F1
 130 01c0 632C3689 		.ascii	"c,6\211wGFlr8\016\211\234\231\000;\264\001\336\034\035"
 130      7747466C 
 130      72380E89 
 130      9C99003B 
 130      B401DE1C 
 131 01d5 60303EB8 		.ascii	"`0>\270\257ih\005^\333\330\326+^\243\371Pb\354\035\025"
 131      AF696805 
 131      5EDBD8D6 
 131      2B5EA3F9 
 131      5062EC1D 
 132 01ea 4382ECD2 		.ascii	"C\202\354\322\205t6\237\266o\020\017J\331S\020\337\030"
 132      8574369F 
 132      B66F100F 
 132      4AD95310 
 132      DF18
 133 01fc 203A7511 		.ascii	" :u\021\303\353?\303I\204\371\011\350\222'\300\006\265"
 133      C3EB3FC3 
ARM GAS  /var/folders/c6/c789hm653lg9vtl73krp73tm0000gn/T//ccMOx09Q.s 			page 10


 133      4984F909 
 133      E89227C0 
 133      06B5
 134 020e 8EA41A65 		.ascii	"\216\244\032e>0\263\003\023\324n\323\027\366\016+\014"
 134      3E30B303 
 134      13D46ED3 
 134      17F60E2B 
 134      0C
 135 021f AAB8316D 		.ascii	"\252\2701m\025\013x+~\324T\231\345\243\265tD\205*\222"
 135      150B782B 
 135      7ED45499 
 135      E5A3B574 
 135      44852A92 
 136 0233 98A9A09E 		.ascii	"\230\251\240\236E\311/\304\215S\267\236\204/\304>\234"
 136      45C92FC4 
 136      8D53B79E 
 136      842FC43E 
 136      9C
 137 0244 4FA45ED6 		.ascii	"O\244^\326H\275/\206j\332O\272J\235\000*&\356\015\344"
 137      48BD2F86 
 137      6ADA4FBA 
 137      4A9D002A 
 137      26EE0DE4 
 138 0258 8A76E93E 		.ascii	"\212v\351>\322\031\271|L@m\342\013\215\211\221\201M"
 138      D219B97C 
 138      4C406DE2 
 138      0B8D8991 
 138      814D
 139 026a 3F14DB0E 		.ascii	"?\024\333\016\022d7|'\207A\002\355\253\227\001\371R"
 139      1264377C 
 139      27874102 
 139      EDAB9701 
 139      F952
 140 027c 3AE4062C 		.ascii	":\344\006,/~*7.(\260\273\226a\205\014\254I\015\023\355"
 140      2F7E2A37 
 140      2E28B0BB 
 140      9661850C 
 140      AC490D13 
 141 0291 2660D9C6 		.ascii	"&`\331\306\312\326\251a+,\303Xe\315j\330j3\260<ce-j"
 141      CAD6A961 
 141      2B2CC358 
 141      65CD6AD8 
 141      6A33B03C 
 142 02a9 D88B9661 		.ascii	"\330\213\226a\254\262W\325\260\265f`\343\215\225mR\303"
 142      ACB257D5 
 142      B0B56660 
 142      E38D956D 
 142      52C3
 143 02bb D65B86B1 		.ascii	"\326[\206\261\3126\253a\257\231\201\025\032+\333\245"
 143      CA36AB61 
 143      AF998115 
 143      1A2BDBA5 
 144 02cb 866DB50C 		.ascii	"\206m\265\014c\225u\252a\1772\003\373\211\261\262.5"
 144      639575AA 
 144      617F3203 
 144      FB89B1B2 
 144      2E35
ARM GAS  /var/folders/c6/c789hm653lg9vtl73krp73tm0000gn/T//ccMOx09Q.s 			page 11


 145 02dd EC0DCB30 		.ascii	"\354\015\3130V\331^5\354-3\260\"#e\015\211\356_\307"
 145      56D95E35 
 145      EC2D33B0 
 145      2223650D 
 145      89EE5FC7 
 146 02f1 8507515C 		.ascii	"\205\007Q\\~\245HT\345\265\202\331\322R7\333b\334L\300"
 146      7EA54854 
 146      E5B582D9 
 146      D25237DB 
 146      62DC4CC0 
 147 0305 03F841B8 		.ascii	"\003\370A\270\202\327\247(\277>\241\205\321;\374\224"
 147      82D7A728 
 147      BF3EA185 
 147      D13BFC94 
 148 0315 F4964E7D 		.ascii	"\364\226N}\375\345\213\324;[\335\212\014\273S;lV\205"
 148      FDE58BD4 
 148      3B5BDD8A 
 148      0CBB533B 
 148      6C5685
 149 0328 DEB8D924 		.ascii	"\336\270\331$\276\253N\342^3I\234j\014\333\257\206\275"
 149      BEAB4EE2 
 149      5E33499C 
 149      6A0CDBAF 
 149      86BD
 150 033a 670636D3 		.ascii	"g\0066\323\270Vz\324\260\367-\303Xe\307\324\260Cf`\325"
 150      B8567AD4 
 150      B0F72DC3 
 150      5865C7D4 
 150      B0436660 
 151 034f C6CAFAD4 		.ascii	"\306\312\372\324\260\243\226aje\015\211\023\251\302"
 151      B0A39661 
 151      6A650D89 
 151      13A9C2
 152 035e 6B9BAAA9 		.ascii	"k\233\252\251\274\251\354\333\226i\266\305\260\231\200"
 152      BCA9ECDB 
 152      9669B6C5 
 152      B09980
 153 036d BFB15C78 		.ascii	"\277\261\\x\227\014\012O\275\246M\265\"\303\376D;lF"
 153      970C0A4F 
 153      BDA64DB5 
 153      22C3FE44 
 153      3B6C46
 154 0380 847C3957 		.ascii	"\204|9W'\207z\207\372?j\001\037\200\205D\017\236@|\002"
 154      27877A87 
 154      FA3F6A01 
 154      1F808544 
 154      0F9E407C 
 155 0395 FC41F087 		.ascii	"\374A\360\207\300\037\001\337\013\376#\360\177\003\377"
 155      C01F01DF 
 155      0BFE23F0 
 155      7F03FF
 156 03a4 29F863E0 		.ascii	")\370c\340\373\300\237\000\337\017\376$\3703\340\317"
 156      FBC09F00 
 156      DF0FFE24 
 156      F833E0CF 
 157 03b4 81FF0AFC 		.ascii	"\201\377\012\374\327\340/\200\037\">y\344\240\325\251"
 157      D7E02F80 
ARM GAS  /var/folders/c6/c789hm653lg9vtl73krp73tm0000gn/T//ccMOx09Q.s 			page 12


 157      1F223E79 
 157      E4A0D5A9 
 158 03c4 85BBB406 		.ascii	"\205\273\264\0061\312\335e\234\243\364J\316P\3138y\345"
 158      31CADD65 
 158      9CA3F44A 
 158      CE50CB38 
 158      79E5
 159 03d6 3FB85D1C 		.ascii	"?\270]\034?>\231\203lu^\245%\011\351\300\011\370*\324"
 159      3F3E9983 
 159      6C755EA5 
 159      2509E9C0 
 159      09F82AD4 
 160 03ea 529F5D6F 		.ascii	"R\237]o\017\001A\256\252&H\272V\256Fp\022\237\247\340"
 160      0F0141AE 
 160      AA2648BA 
 160      56AE4670 
 160      129FA7E0 
 161 03fe 39B9D715 		.ascii	"9\271\327\025\271\020TS\247\274\275Z\306I\335\345\256"
 161      B9105453 
 161      A7BCBD5A 
 161      C649DDE5 
 161      AE
 162 040f 5394AE59 		.ascii	"S\224\256Yr\207\353\226k\350[\203\032\312\324O)]\032"
 162      7287EB96 
 162      6BE85B83 
 162      1ACAD44F 
 162      295D1A
 163 0422 1BA16EA4 		.ascii	"\033\241n\244RJ\027\305\211k\203\347.\366\256\302\037"
 163      524A17C5 
 163      896B83E7 
 163      2EF6AEC2 
 163      1F
 164 0433 6C5F29C6 		.ascii	"l_)\306\033\006G\236oM\344)k\353\333v3[\200\233\332"
 164      1B06479E 
 164      6F4DE429 
 164      6BEBDB76 
 164      335B809B 
 165 0448 2DC0ADD1 		.ascii	"-\300\255\321Ko\022\245\263\371p\246\262\367\231\240"
 165      4B6F12A5 
 165      B3F970A6 
 165      B2F799A0 
 166 0458 44589D61 		.ascii	"DX\235a&\302mm\204a\335\010\335}\247\263FE\330h*\302"
 166      26C26D6D 
 166      8461DD08 
 166      DD7DA7B3 
 166      4645D868 
 167 046e 1D6D84FF 		.ascii	"\035m\204\377\350EH\014\223\267\023\311\321\210*Go\231"
 167      E845480C 
 167      93B713C9 
 167      D1882A47 
 167      6F99
 168 0480 E2DFD3F2 		.ascii	"\342\337\323\362\277\323\035\301\365\177&\326\340\265"
 168      BFD31DC1 
 168      F57F26D6 
 168      E0B5
 169 048e 3B933311 		.ascii	";\2233\021\267\233\337\2434p:{\024\315\236\344\002#"
 169      B79BDFA3 
ARM GAS  /var/folders/c6/c789hm653lg9vtl73krp73tm0000gn/T//ccMOx09Q.s 			page 13


 169      34703A7B 
 169      14CD9EE4 
 169      0223
 170 04a0 165A72E8 		.ascii	"\026Zr\350F\206\374\315\370\021\332&\222]\340\361#\271"
 170      4686FCCD 
 170      F811DA26 
 170      925DE0F1 
 170      23B9
 171 04b2 71AC6CC3 		.ascii	"q\254l\303\0332i\017\221+0\330\231\310{\037y\3147\032"
 171      1B32690F 
 171      912B30D8 
 171      99C87B1F 
 171      79CC371A 
 172 04c6 AAC727C7 		.ascii	"\252\307'\307L;1cn\344\364\306|\356\342p\213n\365\375"
 172      4C3B3163 
 172      6EE4F4C6 
 172      7CEEE270 
 172      8B6EF5FD 
 173 04da 3ED34C66 		.ascii	">\323Lf\377\240\215\262Z/J\242\373|\257\274\303m\\\305"
 173      FFA08DB2 
 173      5A2F4AA2 
 173      FB7CAFBC 
 173      C36D5CC5 
 174 04ee 25378F1B 		.ascii	"%7\217\033M\205X\243\015\361\242\356@:\233\277\030]"
 174      4D8558A3 
 174      0DF1A2EE 
 174      403A9BBF 
 174      185D
 175 0500 E0BB4C45 		.ascii	"\340\273LExI\033!\256\033\241\273\351\342\350\002\377"
 175      78491B21 
 175      AE1BA1BB 
 175      E9E2E802 
 175      FF
 176 0511 D0548426 		.ascii	"\320T\204&m\204\227u\323\324uvT\201\2374\305\177E\313"
 176      6D849775 
 176      D3D47576 
 176      54819F34 
 176      C57F45CB 
 177 0525 6F66F93A 		.ascii	"of\371:[\312D\362\215\275*\371\312\216\017n\270\235"
 177      5BCA44F2 
 177      8DBD2AF9 
 177      CA8E0F6E 
 177      B89D
 178 0537 E8C0BB45 		.ascii	"\350\300\273E\221\304o\341\350\346tM\326}7\247\032\022"
 178      91C46FE1 
 178      E8E6744D 
 178      D67D37A7 
 178      1A12
 179 0549 0DBF91D3 		.ascii	"\015\277\221\323\354N[\207H\001\320-/}r\377\375\351"
 179      EC4E5B87 
 179      4801D02D 
 179      2F7D72FF 
 179      FDE9
 180 055b 9EA15E8E 		.ascii	"\236\241^\216\246\332\246\254EZ@\006\355\374\3756\250"
 180      A6DAA6AC 
 180      455A4006 
 180      EDFCFD36 
ARM GAS  /var/folders/c6/c789hm653lg9vtl73krp73tm0000gn/T//ccMOx09Q.s 			page 14


 180      A8
 181 056c 5D347E53 		.ascii	"]4~S\256\202\333h\031W\310\340\366\262\270mfpi6\251"
 181      AE82DB68 
 181      1957C8E0 
 181      F6B2B86D 
 181      66706936 
 182 0581 DD2CAEDD 		.ascii	"\335,\256\3352\216U\367.\213\333a\006\227f\243\272\237"
 182      328E55F7 
 182      2E8BDB61 
 182      069766A3 
 182      BA9F
 183 0593 C5BD6D19 		.ascii	"\305\275m\031\307\252\353aq=fpF\233Uqy\342\230\202\223"
 183      C7AAEB61 
 183      713D6670 
 183      469B5571 
 183      79E29882 
 184 05a8 DE98472D 		.ascii	"\336\230G-\343Xu}\254\272\343fp\205\306\271;\301\342"
 184      E358757D 
 184      ACBAE366 
 184      7085C6B9 
 184      3BC1E2
 185 05bb 062CE354 		.ascii	"\006,\343T\352\310\327\250\177(\033ht\031\314\241\257"
 185      EAC8D7A8 
 185      7F281B68 
 185      7419CCA1 
 185      AF
 186 05cc B534BD95 		.ascii	"\2654\275\225j\232=\353IV\334\0253\342\0147\232\215"
 186      6A9A3DEB 
 186      4956DC15 
 186      33E20C37 
 186      9A8D
 187 05de 89011677 		.ascii	"\211\001\026w\3132\216\235\211\323,\356\236\031\334"
 187      CB328E9D 
 187      89D32CEE 
 187      9E19DC
 188 05ed 14E33A39 		.ascii	"\024\343:9\313\326\311\212l\2538V\3355V\335KfpS\215"
 188      CBD6C98A 
 188      6CAB3856 
 188      DD3556DD 
 188      4B667053 
 189 0602 73F72D8B 		.ascii	"s\367-\213[o\031\307\326\311M\246NZ\2654\275:I\263_"
 189      5B6F19C7 
 189      D6C94DA6 
 189      4E5AB534 
 189      BD3A49B3 
 190 0617 FD372BAE 		.ascii	"\3757+\256\303\214\2704\233\314a\026\267\3072\216\235"
 190      C38CB834 
 190      9BCC6116 
 190      B7C7328E 
 190      9D
 191 0628 893B2CEE 		.ascii	"\211;,\356\200\031\234\336\366M\256\223\273\232\367"
 191      80199CDE 
 191      F64DAE93 
 191      BB9AF7
 192 0637 89651CAB 		.ascii	"\211e\034\253\356;\315\373\304\014\356Y\343\334\305"
 192      EE3BCDFB 
 192      C40CEE59 
ARM GAS  /var/folders/c6/c789hm653lg9vtl73krp73tm0000gn/T//ccMOx09Q.s 			page 15


 192      E3DCC5
 193 0646 2F31B853 		.ascii	"/1\270S\226ql\2354]R\327\311\0053uRk,n\035+\356_f\304"
 193      96716C9D 
 193      345D52D7 
 193      C9053375 
 193      526B2C6E 
 194 0660 2D36C635 		.ascii	"-6\3065\263\270\233\226q\354X[\230\261\016\233\031\353"
 194      B3B89B96 
 194      71EC585B 
 194      98B10E9B 
 194      19EB
 195 0672 526371AF 		.ascii	"Rcq\257\262\342\226;L\210\023\2611o\023\313[e\235W\210"
 195      B2E2963B 
 195      4C8813B1 
 195      316F13CB 
 195      5B659D57 
 196 0687 0C0FF582 		.ascii	"\014\017\365\202L\300\2338\372+\304k\034\375e\240\025"
 196      4CC09B38 
 196      FA2BC46B 
 196      1CFD65A0 
 196      15
 197 0698 FC16F0DB 		.ascii	"\374\026\360\333\300o\007\377g\360\035\340\377\002\376"
 197      C06F07FF 
 197      67F01DE0 
 197      FF02FE
 198 06a7 4DF03BC1 		.ascii	"M\360;\301\357\006\277\007\374\333\340\337\001\277\017"
 198      EF06BF07 
 198      FCDBE0DF 
 198      01BF0F
 199 06b6 FC7BE00F 		.ascii	"\374{\340\017\200\177\037\374\007\340?\004\177\030\374"
 199      807F1FFC 
 199      07E03F04 
 199      7F18FC
 200 06c5 51F07F05 		.ascii	"Q\360\177\005\3771\370O\300\177\006\3768\370\277\203"
 200      FF31F84F 
 200      C07F06FE 
 200      38F8BF83 
 201 06d5 FF1CFC17 		.ascii	"\377\034\374\027\234\361/\030-\006Y\242\343\376\222"
 201      9CF12F18 
 201      2D0659A2 
 201      E3FE92
 202 06e4 4B6EB7F5 		.ascii	"Kn\267\365\376\254\302\374\244(-\201\023\2377\343B\001"
 202      FEACC2FC 
 202      A4282D81 
 202      139F37E3 
 202      4201
 203 06f6 0FC0EAF7 		.ascii	"\017\300\352\367e\307\375\37743\352\307\3213\332\305"
 203      65C7FDFF 
 203      3433EAC7 
 203      D133DAC5 
 204 0706 EFBE7EF8 		.ascii	"\357\276~\370\323\314\031SK\337\003\375\353\230?\315"
 204      D3CC1953 
 204      4BDF03FD 
 204      EB983FCD 
 205 0716 6C050967 		.ascii	"l\005\011g\276\367\312\267\247?\371\223\236\2007s\234"
 205      BEF7CAB7 
 205      A73FF993 
ARM GAS  /var/folders/c6/c789hm653lg9vtl73krp73tm0000gn/T//ccMOx09Q.s 			page 16


 205      9E803773 
 205      9C
 206 0727 45582103 		.ascii	"EX!\003;\326\257\372}\260\303\214\2624\253\336>5l\227"
 206      3BD6AFFA 
 206      7DB0C38C 
 206      B234ABDE 
 206      3E356C97 
 207 073b 6558DA7A 		.ascii	"eX\332z?\243\252\367\263P\357\347\240\216\276\002\177"
 207      3FA3AAF7 
 207      B350EFE7 
 207      A08EBE02 
 207      7F
 208 074c 1EFC3FD2 		.ascii	"\036\374?\322\324\324@\232\232\272\230\252)M\257\256"
 208      D4D4409A 
 208      9ABA98AA 
 208      294DAFAE 
 209 075c 343FFC0C 		.ascii	"4?\374\014\245z\241Jg}4\342\014\206}B\320\351\366\007"
 209      A57AA14A 
 209      677D34E2 
 209      0C867D42 
 209      D0E9F607 
 210 0770 8342C4B9 		.ascii	"\203B\304\271\310\347\233(D\352&\206\302!\377D\2770"
 210      C8E79B28 
 210      44EA2686 
 210      C221FF44 
 210      BF30
 211 0782 3FE07415 		.ascii	"?\340t\025\025O.\232R\364\204\223\275\035\010\371\202"
 211      154F2E9A 
 211      52F48493 
 211      BD1D08F9 
 211      82
 212 0793 F50BFCCE 		.ascii	"\365\013\374\316hlA \024\233T\213\262\353\311\271\304"
 212      686C4120 
 212      149B548B 
 212      B2EBC9B9 
 212      C4
 213 07a4 E58D65CE 		.ascii	"\345\215e\316\2305\247\320\215~\363\177\200\327\011"
 213      9835A7D0 
 213      8D7EF37F 
 213      80D709
 214 07b3 BEDA40C8 		.ascii	"\276\332@\310\357\364.\360/\024\352\2031ol\331b\177"
 214      EFF42EF0 
 214      2F14EA83 
 214      316F6CD9 
 214      627F
 215 07c5 94041BE3 		.ascii	"\224\004\033\343\365*\341\234\223&\311"
 215      F52AE19C 
 215      9326C9
 216 07d0 FFC25167 		.ascii	"\377\302Qg-\011\2668\034\211E\235\236\232\252\022\227"
 216      2D09B638 
 216      1C89459D 
 216      9E9AAA12 
 216      97
 217 07e1 B3B2B2CC 		.ascii	"\263\262\262\314YSQ\265\244\230\350\364\006\203\013"
 217      595351B5 
 217      A498E8F4 
 217      06830B
ARM GAS  /var/folders/c6/c789hm653lg9vtl73krp73tm0000gn/T//ccMOx09Q.s 			page 17


 218 07f0 26F950F6 		.ascii	"&\371P\3663~_,\034\231V\224#\335\362\006B\201\330O\325"
 218      337E5F2C 
 218      1C995694 
 218      23DDF206 
 218      4281D84F 
 219 0805 90484C66 		.ascii	"\220HLf\224\362U\356\252\245N_\255/\034\361{\227<UG"
 219      94F255EE 
 219      AAA54E5F 
 219      AD2F1CF1 
 219      7B973C55 
 220 081a 22E77BE9 		.ascii	"\"\347{\3513o \362[\257\177q \030^T\357/\320tV\324\373"
 220      336F20F2 
 220      5BAF7F71 
 220      20185E54 
 220      EF2FD074 
 221 0831 6AA3CBA8 		.ascii	"j\243\313\250\330|_\255gY\264&P\347\217\314\024B\013"
 221      D87C5FAD 
 221      6759B426 
 221      50E78FCC 
 221      14420B
 222 0844 82FE48C5 		.ascii	"\202\376H\305\317\364E\373\302uu\341\220\0227\264$\340"
 222      CFF445FB 
 222      C27575E1 
 222      901237B4 
 222      24E0
 223 0856 23DDF3E8 		.ascii	"#\335\363\350\271<$\314\017\372%\351.\263#\256\243\371"
 223      B93C24CC 
 223      0FFA25E9 
 223      2EB323AE 
 223      A3F9
 224 0868 0950D539 		.ascii	"\011P\3259\311\017\336\230\315\315\027\023s\331=Un\336"
 224      C90FDE98 
 224      CDCD1713 
 224      73D93D55 
 224      6EDE
 225 087a 5E5651CE 		.ascii	"^VQ\316s\036\336V>\203\317p\273\253\370b\360.\273\333"
 225      731EDE56 
 225      3E83CF70 
 225      BBABF862 
 225      F02EBBDB 
 226 088e 5DCEDBDC 		.ascii	"]\316\333\334\263jl\325\036\267\255\224\347m\274\233"
 226      B36A6CD5 
 226      1EB7AD94 
 226      E76DBC9B 
 227 089e 7C261DA6 		.ascii	"|&\035\246\225\325\360\2662\332\263\252\224\347fK\275"
 227      95D5F0B6 
 227      32DAB3AA 
 227      94E7664B 
 227      BD
 228 08af 4A48FBB9 		.ascii	"JH\373\271\274\335W+D\012\264\352\302Q\342HZ\350\231"
 228      BCDD572B 
 228      440AB4EA 
 228      C251E248 
 228      5AE899
 229 08c2 66839E49 		.ascii	"f\203\236I>*\303\276\347\246G\302u\025\036>\017\022"
 229      3E2AC3BE 
 229      E7A647C2 
ARM GAS  /var/folders/c6/c789hm653lg9vtl73krp73tm0000gn/T//ccMOx09Q.s 			page 18


 229      75151E3E 
 229      0F12
 230 08d4 A4BA910F 		.ascii	"\244\272\221\0179&\265\363\234w!\271\343\015D#\216\344"
 230      3926B5F3 
 230      9C7721B9 
 230      E30D4423 
 230      8EE4
 231 08e6 AD9FAB03 		.ascii	"\255\237\253\003\370\227\306\234\356*O\205'\225u:W\276"
 231      F897C69C 
 231      EE2A4F85 
 231      2795753A 
 231      57BE
 232 08f8 BAE9F521 		.ascii	"\272\351\365!\232\274\261^o\324\037\363N+\365\224W\363"
 232      9ABCB15E 
 232      6FD41FF3 
 232      4E2BF594 
 232      57F3
 233 090a 156385E0 		.ascii	"\025c\205\340\357\204eQ2\345ARV\031K\204`\275\377\007"
 233      EF846551 
 233      32E54152 
 233      56194B84 
 233      60BDFF07 
 234 091e 54CF6C76 		.ascii	"T\317lvz\036\2225\316\011\005U\242@%s\353!\020U\037"
 234      7A1E9235 
 234      CE090555 
 234      A2402573 
 234      EB211055 
 235 0933 6294E6A8 		.ascii	"b\224\346\250n>\246\257\325S#\315\316\302\311EO-]J\347"
 235      6E3EA6AF 
 235      D55323CD 
 235      CEC2C945 
 235      4F2D5D4A 
 236 0948 8777BBBD 		.ascii	"\207w\273\2755\244\270\313\374\01397\237U]Y\351\236"
 236      35A4B8CB 
 236      FC0B3937 
 236      9F555D59 
 236      E99E
 237 095a 3E83B753 		.ascii	">\203\267SgsW\360\331\2453\247\025\363\236\032\270p"
 237      677357F0 
 237      D9A533A7 
 237      15F39E1A 
 237      B870
 238 096c 291725F4 		.ascii	")\027%\364\302\301\227{\312\371g\312\313\212\262K\253"
 238      C2C1977B 
 238      CAF967CA 
 238      CB8AB24B 
 238      AB
 239 097d 9546D552 		.ascii	"\225F\325R\243\344\263\342,\012(\237\305\323\263K>\227"
 239      A3E4B3E2 
 239      2C0A289F 
 239      C5D3B34B 
 239      3E97
 240 098f 9073B285 		.ascii	"\220s\262\205+\213\366\206'\325\320\"\371\244\304A\373"
 240      2B8BF686 
 240      27D5D022 
 240      F9A4C441 
 240      FB
ARM GAS  /var/folders/c6/c789hm653lg9vtl73krp73tm0000gn/T//ccMOx09Q.s 			page 19


 241 09a0 5656D37B 		.ascii	"VV\323{\264w\362\252D\272R\332MvP\202\374\264Zi\247"
 241      B477F2AA 
 241      44BA52DA 
 241      4D765082 
 241      FCB45A69 
 242 09b5 3C7D8214 		.ascii	"<}\202\024\016\255 O\352\326\223\031\036\217{\006?\206"
 242      0EAD204F 
 242      EAD69319 
 242      1E8F7B06 
 242      3F86
 243 09c7 0CB6C2E5 		.ascii	"\014\266\302\345\241C\035W6mF\225{\216\222\211\314\212"
 243      A1431D57 
 243      366D4695 
 243      7B8E9289 
 243      CC8A
 244 09d9 32F7ECB2 		.ascii	"2\367\354\262\362L\312\235>\217\236\\\323\347\375\027"
 244      F24CCA9D 
 244      3E8F9E5C 
 244      D3E7FD17 
 245 09e9 482E4095 		.ascii	"H.@\225"
 246              		.text
 247              		.section	.gnu.lto_.symtab.f09d01de421efee7,"",%progbits
 248 0000 56656374 		.ascii	"VectorB0\000\000\000\000\000\000\000\000\000\000\000"
 248      6F724230 
 248      00000000 
 248      00000000 
 248      000000
 249 0013 00A80000 		.ascii	"\000\250\000\000\000st_lld_init\000\000\000\000\000"
 249      0073745F 
 249      6C6C645F 
 249      696E6974 
 249      00000000 
 250 0028 00000000 		.ascii	"\000\000\000\000\000\000\000\254\000\000\000_port_i"
 250      000000AC 
 250      0000005F 
 250      706F7274 
 250      5F69
 251 003a 72715F65 		.ascii	"rq_epilogue\000\000\002\000\000\000\000\000\000\000"
 251      70696C6F 
 251      67756500 
 251      00020000 
 251      00000000 
 252 004f 0000AF00 		.ascii	"\000\000\257\000\000\000chSysTimerHandlerI\000\000\002"
 252      00006368 
 252      53797354 
 252      696D6572 
 252      48616E64 
 253 006a 00000000 		.ascii	"\000\000\000\000\000\000\000\000\000\261\000\000\000"
 253      00000000 
 253      00B10000 
 253      00
 254 0077 6E766963 		.ascii	"nvicEnableVector\000\000\002\000\000\000\000\000\000"
 254      456E6162 
 254      6C655665 
 254      63746F72 
 254      00000200 
 255 0090 000000B3 		.ascii	"\000\000\000\263\000\000\000"
ARM GAS  /var/folders/c6/c789hm653lg9vtl73krp73tm0000gn/T//ccMOx09Q.s 			page 20


 255      000000
 256              		.text
 257              		.section	.gnu.lto_.opts,"",%progbits
 258 0000 272D6D63 		.ascii	"'-mcpu=cortex-m4' '-mno-thumb-interwork' '-mthumb' "
 258      70753D63 
 258      6F727465 
 258      782D6D34 
 258      2720272D 
 259 0033 272D6767 		.ascii	"'-ggdb' '-O2' '-fomit-frame-pointer' '-falign-funct"
 259      64622720 
 259      272D4F32 
 259      2720272D 
 259      666F6D69 
 260 0066 696F6E73 		.ascii	"ions=16' '-ffunction-sections' '-fdata-sections' '-"
 260      3D313627 
 260      20272D66 
 260      66756E63 
 260      74696F6E 
 261 0099 666E6F2D 		.ascii	"fno-common' '-flto'\000"
 261      636F6D6D 
 261      6F6E2720 
 261      272D666C 
 261      746F2700 
 262              		.text
 263              		.cfi_sections	.debug_frame
 264              		.section	.text.VectorB0,"ax",%progbits
 265              		.align	2
 266              		.p2align 4,,15
 267              		.global	VectorB0
 268              		.thumb
 269              		.thumb_func
 270              		.type	VectorB0, %function
 271              	VectorB0:
 272              	.LFB260:
 273              		.file 1 "../../../os/hal/ports/STM32/LLD/TIMv1/st_lld.c"
 274              		.loc 1 173 0
 275              		.cfi_startproc
 276              		@ args = 0, pretend = 0, frame = 0
 277              		@ frame_needed = 0, uses_anonymous_args = 0
 278              		.loc 1 180 0
 279 0000 4FF08043 		mov	r3, #1073741824
 280              		.loc 1 173 0
 281 0004 10B5     		push	{r4, lr}
 282              		.cfi_def_cfa_offset 8
 283              		.cfi_offset 4, -8
 284              		.cfi_offset 14, -4
 285              		.loc 1 180 0
 286 0006 1A69     		ldr	r2, [r3, #16]
 287 0008 9207     		lsls	r2, r2, #30
 288 000a 08D5     		bpl	.L2
 289              		.loc 1 181 0
 290 000c 0024     		movs	r4, #0
 291 000e 1C61     		str	r4, [r3, #16]
 292              	.LVL0:
 293              	.LBB52:
 294              	.LBB53:
 295              	.LBB54:
ARM GAS  /var/folders/c6/c789hm653lg9vtl73krp73tm0000gn/T//ccMOx09Q.s 			page 21


 296              	.LBB55:
 297              	.LBB56:
 298              	.LBB57:
 299              		.file 2 "../../../os/ext/CMSIS/include/core_cmFunc.h"
 300              		.loc 2 546 0
 301 0010 2023     		movs	r3, #32
 302              	@ 546 "../../../os/ext/CMSIS/include/core_cmFunc.h" 1
 303 0012 83F31188 		MSR basepri, r3
 304              	@ 0 "" 2
 305              		.thumb
 306              	.LBE57:
 307              	.LBE56:
 308              	.LBE55:
 309              	.LBE54:
 310              	.LBE53:
 311              	.LBE52:
 312              	.LBB58:
 313              	.LBB59:
 314              		.file 3 "../../../os/hal/osal/rt/osal.h"
 315              		.loc 3 585 0
 316 0016 FFF7FEFF 		bl	chSysTimerHandlerI
 317              	.LVL1:
 318              	.LBE59:
 319              	.LBE58:
 320              	.LBB60:
 321              	.LBB61:
 322              	.LBB62:
 323              	.LBB63:
 324              	.LBB64:
 325              	.LBB65:
 326              		.loc 2 546 0
 327              	@ 546 "../../../os/ext/CMSIS/include/core_cmFunc.h" 1
 328 001a 84F31188 		MSR basepri, r4
 329              	@ 0 "" 2
 330              	.LVL2:
 331              		.thumb
 332              	.L2:
 333              	.LBE65:
 334              	.LBE64:
 335              	.LBE63:
 336              	.LBE62:
 337              	.LBE61:
 338              	.LBE60:
 339              		.loc 1 189 0
 340 001e BDE81040 		pop	{r4, lr}
 341              		.loc 1 188 0
 342 0022 FFF7FEBF 		b	_port_irq_epilogue
 343              	.LVL3:
 344              		.cfi_endproc
 345              	.LFE260:
 346              		.size	VectorB0, .-VectorB0
 347 0026 00BFAFF3 		.section	.text.st_lld_init,"ax",%progbits
 347      0080AFF3 
 347      0080
 348              		.align	2
 349              		.p2align 4,,15
 350              		.global	st_lld_init
ARM GAS  /var/folders/c6/c789hm653lg9vtl73krp73tm0000gn/T//ccMOx09Q.s 			page 22


 351              		.thumb
 352              		.thumb_func
 353              		.type	st_lld_init, %function
 354              	st_lld_init:
 355              	.LFB261:
 356              		.loc 1 201 0
 357              		.cfi_startproc
 358              		@ args = 0, pretend = 0, frame = 0
 359              		@ frame_needed = 0, uses_anonymous_args = 0
 360              		@ link register save eliminated.
 361              		.loc 1 207 0
 362 0000 0F4B     		ldr	r3, .L8
 363              		.loc 1 210 0
 364 0002 1049     		ldr	r1, .L8+4
 365              		.loc 1 207 0
 366 0004 1A6C     		ldr	r2, [r3, #64]
 367              		.loc 1 201 0
 368 0006 70B4     		push	{r4, r5, r6}
 369              		.cfi_def_cfa_offset 12
 370              		.cfi_offset 4, -12
 371              		.cfi_offset 5, -8
 372              		.cfi_offset 6, -4
 373              		.loc 1 207 0
 374 0008 42F00102 		orr	r2, r2, #1
 375 000c 1A64     		str	r2, [r3, #64]
 376              		.loc 1 210 0
 377 000e 8868     		ldr	r0, [r1, #8]
 378              		.loc 1 213 0
 379 0010 4FF08043 		mov	r3, #1073741824
 380              		.loc 1 215 0
 381 0014 0022     		movs	r2, #0
 382              		.loc 1 219 0
 383 0016 0124     		movs	r4, #1
 384              		.loc 1 210 0
 385 0018 40F00100 		orr	r0, r0, #1
 386              		.loc 1 213 0
 387 001c 42F2CF06 		movw	r6, #8399
 388              		.loc 1 214 0
 389 0020 4FF0FF35 		mov	r5, #-1
 390              		.loc 1 210 0
 391 0024 8860     		str	r0, [r1, #8]
 392              		.loc 1 213 0
 393 0026 9E62     		str	r6, [r3, #40]
 394              		.loc 1 223 0
 395 0028 1C20     		movs	r0, #28
 396              		.loc 1 214 0
 397 002a DD62     		str	r5, [r3, #44]
 398              		.loc 1 223 0
 399 002c 0821     		movs	r1, #8
 400              		.loc 1 215 0
 401 002e 9A61     		str	r2, [r3, #24]
 402              		.loc 1 216 0
 403 0030 5A63     		str	r2, [r3, #52]
 404              		.loc 1 217 0
 405 0032 DA60     		str	r2, [r3, #12]
 406              		.loc 1 218 0
 407 0034 5A60     		str	r2, [r3, #4]
ARM GAS  /var/folders/c6/c789hm653lg9vtl73krp73tm0000gn/T//ccMOx09Q.s 			page 23


 408              		.loc 1 219 0
 409 0036 5C61     		str	r4, [r3, #20]
 410              		.loc 1 220 0
 411 0038 1C60     		str	r4, [r3]
 412              		.loc 1 238 0
 413 003a 70BC     		pop	{r4, r5, r6}
 414              		.loc 1 223 0
 415 003c FFF7FEBF 		b	nvicEnableVector
 416              	.LVL4:
 417              	.L9:
 418              		.align	2
 419              	.L8:
 420 0040 00380240 		.word	1073887232
 421 0044 002004E0 		.word	-536600576
 422              		.cfi_endproc
 423              	.LFE261:
 424              		.size	st_lld_init, .-st_lld_init
 425 0048 AFF30080 		.text
 425      AFF30080 
 426              	.Letext0:
 427              		.file 4 "/usr/local/Cellar/gcc-arm-none-eabi/20140805/arm-none-eabi/include/machine/_default_types
 428              		.file 5 "/usr/local/Cellar/gcc-arm-none-eabi/20140805/arm-none-eabi/include/stdint.h"
 429              		.file 6 "../../../os/rt/ports/ARMCMx/compilers/GCC/chtypes.h"
 430              		.file 7 "../../../os/rt/include/chsystypes.h"
 431              		.file 8 "../../../os/rt/include/chschd.h"
 432              		.file 9 "../../../os/ext/CMSIS/ST/stm32f407xx.h"
 433              		.file 10 "../../../os/rt/ports/ARMCMx/chcore.h"
 434              		.file 11 "../../../os/rt/ports/ARMCMx/chcore_v7m.h"
 435              		.file 12 "../../../os/hal/ports/STM32/LLD/TIMv1/stm32_tim.h"
 436              		.file 13 "../../../os/rt/include/chtm.h"
 437              		.file 14 "../../../os/rt/include/chsem.h"
 438              		.file 15 "../../../os/rt/include/chmtx.h"
 439              		.file 16 "../../../os/rt/include/chsys.h"
 440              		.file 17 "../../../os/ext/CMSIS/include/core_cm4.h"
 441              		.file 18 "../../../os/hal/ports/common/ARMCMx/nvic.h"