ARM GAS  /var/folders/c6/c789hm653lg9vtl73krp73tm0000gn/T//ccMOx09Q.s 			page 1


   1              		.syntax unified
   2              		.cpu cortex-m4
   3              		.fpu softvfp
   4              		.eabi_attribute 20, 1
   5              		.eabi_attribute 21, 1
   6              		.eabi_attribute 23, 3
   7              		.eabi_attribute 24, 1
   8              		.eabi_attribute 25, 1
   9              		.eabi_attribute 26, 1
  10              		.eabi_attribute 30, 2
  11              		.eabi_attribute 34, 1
  12              		.eabi_attribute 18, 4
  13              		.thumb
  14              		.file	"st_lld.c"
  15              		.text
  16              	.Ltext0:
  17              		.section	.gnu.lto_.jmpfuncs.f09d01de421efee7,"",%progbits
  18 0000 789C6362 		.ascii	"x\234cb`b\300\006\244\2414X\226\221\201\211)\2021\223"
  18      6062C006 
  18      A4A13458 
  18      96918189 
  18      29823193 
  19 0014 91410628 		.ascii	"\221A\006(\000fp\000E\001\031\363\001\323"
  19      00667000 
  19      450119F3 
  19      01D3
  20              		.text
  21              		.section	.gnu.lto_.inline.f09d01de421efee7,"",%progbits
  22 0000 789C6362 		.ascii	"x\234cb`b\300\006\254\2404P\226G\224\221\201\211\357"
  22      6062C006 
  22      ACA03450 
  22      96479491 
  22      8189EF
  23 0013 5E0003DB 		.ascii	"^\000\003\333\002y\260bF.8\301 \"\003\224\224yp\213"
  23      0279B062 
  23      462E38C1 
  23      20220394 
  23      9479708B 
  24 0027 112ECBCC 		.ascii	"\021.\313\314\003\326\305\000\000\260\004\005a"
  24      03D6C500 
  24      00B00405 
  24      61
  25              		.text
  26              		.section	.gnu.lto_.pureconst.f09d01de421efee7,"",%progbits
  27 0000 789C6362 		.ascii	"x\234cb`b`e\200\000&\006+F)\000\001f\000a"
  27      60626065 
  27      80002606 
  27      2B462900 
  27      01660061 
  28              		.text
  29              		.section	.gnu.lto_VectorB0.f09d01de421efee7,"",%progbits
  30 0000 789C8D53 		.ascii	"x\234\215SMh\023A\024~ov\323\244\265\201\366.1\024z"
  30      4D681341 
  30      147E6F76 
  30      D3A4B581 
  30      F62E3114 
  31 0015 10DBACD6 		.ascii	"\020\333\254\326\203W\245\"\024\232K\223\202\202P\266"
ARM GAS  /var/folders/c6/c789hm653lg9vtl73krp73tm0000gn/T//ccMOx09Q.s 			page 2


  31      8357A522 
  31      149A4B93 
  31      828250B6 
  32 0025 DBC52C24 		.ascii	"\333\305,$M\311&\245\305C'm\016B{(E\244\376\333\203"
  32      4DC926A5 
  32      C543276D 
  32      0E427B28 
  32      45A4FEDB 
  33 003a 0A0A168B 		.ascii	"\012\012\026\213hIT\212^\374\241-=\350A\004S\204\202"
  33      6849548A 
  33      5EFCA12D 
  33      3DE84104 
  33      538482
  34 004d 3F50EB45 		.ascii	"?P\353E\324H|\263\233l\267A\324\307\276y3\357}\373\346"
  34      D4487CB3 
  34      9B6CB741 
  34      D4C7BE79 
  34      33EF7DFB 
  35 0062 9B6F7619 		.ascii	"\233ov\0310\250\265\016\362K\022\300G\212\350\001d\323"
  35      30A8B50E 
  35      F24B12C0 
  35      478AE801 
  35      64D3
  36 0074 2B00591F 		.ascii	"+\000Y\037cR>\000\274A~\255\000o\224P\266\3232\242\230"
  36      63523E00 
  36      BC417EAD 
  36      006F9450 
  36      B6D332A2 
  37 0089 00C21893 		.ascii	"\000\302\030\223d\034;\201V\223y\266T,\227\357\344'"
  37      641C3B81 
  37      569379B6 
  37      542C97EF 
  37      E427
  38 009b AFBEC579 		.ascii	"\257\276\305y\346\227\300@\220\305@\346\201\034\347"
  38      E697C040 
  38      90C540E6 
  38      811CE7
  39 00aa D34100CD 		.ascii	"\323A\000\315ZFi\024-z\221\211(-\303\2237\263\205u\246"
  39      5A466914 
  39      2D7A9189 
  39      282DC393 
  39      37B38575 
  40 00bf E21C6D7F 		.ascii	"\342\034m\177\012\245}p\213\347\320@\274\010\027(\260"
  40      0AA57D70 
  40      8BE7D040 
  40      BC081728 
  40      B0
  41 00d0 E334489C 		.ascii	"\3434H\234L\006kjm\330\217U\376\3130Q\230\330\300\352"
  41      4C066B6A 
  41      6DD88F55 
  41      FECB3051 
  41      98D8C0EA 
  42 00e4 EB327510 		.ascii	"\3532u\0200\353\244\317 \3679\353wJV\336m\275\324-\037"
  42      30EBA4CF 
  42      20F739EB 
  42      774A56DE 
  42      6DBDD42D 
ARM GAS  /var/folders/c6/c789hm653lg9vtl73krp73tm0000gn/T//ccMOx09Q.s 			page 3


  43 00f9 10141617 		.ascii	"\020\024\026\027\013[\025\012\326\376Y\036\371O\006"
  43      0B5B150A 
  43      D6FE591E 
  43      F94F06
  44 0108 22634D9F 		.ascii	"\"cM\237\303\270\017\240\005\3468\237)\276\332z\320"
  44      C3B80FA0 
  44      05E6389F 
  44      29BEDA7A 
  44      D0
  45 0119 769E2FE5 		.ascii	"v\236/\345\256\361R\271\214\004\221\031\234D!\201\300"
  45      AEF152B9 
  45      8C049119 
  45      9C442181 
  45      C0
  46 012a 7B8256A8 		.ascii	"{\202V\250\223w^\205\310\311$\024\254\300\370\326\213"
  46      93775E85 
  46      C8C92414 
  46      ACC0F8D6 
  46      8B
  47 013b A70B5392 		.ascii	"\247\013S\222\243\235=Y\272\375s\263\211h\336\300\026"
  47      A39D3D59 
  47      BAFD73B3 
  47      8968DEC0 
  47      16
  48 014c 4758BEF9 		.ascii	"GX\276\371h\267S/\237\235\362\267o\257\316M6\337\365"
  48      68B7532F 
  48      9F9DF2B7 
  48      6FAFCE4D 
  48      36DFF5
  49 015f 38CB97DF 		.ascii	"8\313\227\337\276\322\302>\244\206\202\014#\227\310"
  49      BED2C23E 
  49      A486820C 
  49      2397C8
  50 016e 65720F58 		.ascii	"er\017X\327\212\260J)\022O\262\277\225\000\024\3612"
  50      D78AB04A 
  50      29124FB2 
  50      BF950014 
  50      F132
  51 0180 9F3D6CA0 		.ascii	"\237=l\240w\007\305\355\372\373J\335g\037b\025&\276"
  51      7707C5ED 
  51      FAFB4ADD 
  51      671F6215 
  51      26BE
  52 0192 BCBBBE31 		.ascii	"\274\273\2761\325^\313}\2624\356\335\336\276\316F\237"
  52      D55ECB7D 
  52      B234EEDD 
  52      DEBECE46 
  52      9F
  53 01a3 861FFC0C 		.ascii	"\206\037\374\014o2\260^C\257\212\367l\032\0066\324\352"
  53      6F32B05E 
  53      43AF8AF7 
  53      6C1A0636 
  53      D4EA
  54 01b5 F9E1618D 		.ascii	"\371\341a\215\236*\336\264\370\377SP\370\253\240\237"
  54      9E2ADEB4 
  54      F8FF5350 
  54      F8ABA09F 
ARM GAS  /var/folders/c6/c789hm653lg9vtl73krp73tm0000gn/T//ccMOx09Q.s 			page 4


  55 01c5 BE0B41EF 		.ascii	"\276\013A\357\273\005-<\016\270\004\315\373\025\227"
  55      BB052D3C 
  55      0EB804CD 
  55      FB1597
  56 01d4 A0579AD7 		.ascii	"\240W\232\327\\\202\226f\\'\362\221\327\2237\220\357"
  56      5C829666 
  56      5C27F291 
  56      D7933790 
  56      EF
  57 01e5 FA83A02A 		.ascii	"\372\203\240*\316\323\304\241T\025P\305\005\014\270"
  57      CED3C4A1 
  57      541550C5 
  57      050CB8
  58 01f4 3F49D9FA 		.ascii	"?I\331\372-H\306bI\267{\357\224\251\021\034\211\326"
  58      2D48C662 
  58      49B77BEF 
  58      94A9111C 
  58      89D6
  59 0206 205BFCD5 		.ascii	" [\374\325Z\005\331\026\245\233\245\006\242\267\022"
  59      5A05D916 
  59      A59BA506 
  59      A2B712
  60 0215 0A559EA4 		.ascii	"\012U\236\244\251\304\324\2702\224L\245M%\022\015\037"
  60      A9C4D4B8 
  60      32944CA5 
  60      4D25120D 
  60      1F
  61 0226 EC50BABB 		.ascii	"\354P\272\273\217*\321\256\360\360\001\305L\367\305"
  61      8F2AD1AE 
  61      F0F001C5 
  61      4CF7C5
  62 0235 E303210D 		.ascii	"\343\003!\015\366\272\361\251t\005~\244'\334\031\036"
  62      F6BAF1A9 
  62      74057EA4 
  62      27DC191E 
  63 0245 51B49896 		.ascii	"Q\264\230\226L\351}\303\207\022\241\030x\206\325xFo"
  63      4CE97DC3 
  63      8712A118 
  63      7886D578 
  63      466F
  64 0257 73E3F591 		.ascii	"s\343\365\221\264\322\031\216tE\024cP\213g\006t\305"
  64      B4D2198E 
  64      74451463 
  64      508B6706 
  64      74C5
  65 0269 C26B8963 		.ascii	"\302k\211c\231A\215^\331S\323\334A\305\314Q\263\266"
  65      99418D5E 
  65      D953D3DC 
  65      41C5CC51 
  65      B3B6
  66 027b 2EC8264D 		.ascii	".\310&M\032\010(\"\325\233\302\221\236`\277j\352C)\243"
  66      1A082822 
  66      D59BC291 
  66      9E60BF6A 
  66      EA4329A3 
  67 028f 2DD8BA1F 		.ascii	"-\330\272\037X\012\274\011=\221L\215\302o\316\305*\327"
  67      580ABC09 
ARM GAS  /var/folders/c6/c789hm653lg9vtl73krp73tm0000gn/T//ccMOx09Q.s 			page 5


  67      3D914C8D 
  67      C26FCEC5 
  67      2AD7
  68              		.text
  69              		.section	.gnu.lto_st_lld_init.f09d01de421efee7,"",%progbits
  70 0000 789C95D3 		.ascii	"x\234\225\323\275KBQ\024\000\360s\356\373\360i\321\307"
  70      BD4B4251 
  70      1400F073 
  70      EEFBF069 
  70      D1C7
  71 0012 6834B435 		.ascii	"h4\2645D>\254? \202\026A\247^\220S\230\201\011\202\221"
  71      443EAC3F 
  71      20821641 
  71      A75E9053 
  71      98810982 
  72 0027 D2D2E095 		.ascii	"\322\322\340\225\014\232\302Q\252\2455\242\240\3515"
  72      0C9AC251 
  72      AAA535A2 
  72      A0E935
  73 0036 44E6D462 		.ascii	"D\346\324b\322&\015\341&TX\243\264\330\275\357\313\324"
  73      D2260DE1 
  73      265458A3 
  73      B4D8BDEF 
  73      CBD4
  74 0048 90DE41CF 		.ascii	"\220\336A\317}\317{\317\317#\236G\200@\177\370\331{"
  74      7DCF7BCF 
  74      CF239E47 
  74      80407FF8 
  74      D97B
  75 005a 4A0408B2 		.ascii	"J\004\010\262\025\005@R|\002\310+\004\221_\000B\216"
  75      15054052 
  75      7C02C82B 
  75      04915F00 
  75      428E
  76 006c 602E8AC6 		.ascii	"`.\212\306\331kRnt:W7\307g\037xG&\011$\021\004\236$"
  76      D96B526E 
  76      743A5737 
  76      C7671F78 
  76      47260924 
  77 0084 9E649E58 		.ascii	"\236d\236XHP\240\2648\003\0207n5\2269\265\206\204\257"
  77      4850A0B4 
  77      38031037 
  77      6E359639 
  77      B58684AF 
  78 0098 42152A2F 		.ascii	"B\025*/\355\246?\206\347(A\002\311\034\\\320B~\"\211"
  78      EDA63F86 
  78      E7284102 
  78      C91C5CD0 
  78      427E2289 
  79 00ac 780A2798 		.ascii	"x\012'\230D\262\316\222@\277\216\250\010\306\245\361"
  79      44B2CE92 
  79      40BF8EA8 
  79      08C6A5F1 
  80 00bc D59B6837 		.ascii	"\325\233h7\\\205\203[\301\256\026\022\346y@c\247\022"
  80      5C85835B 
  80      C1AE1612 
  80      E6794063 
ARM GAS  /var/folders/c6/c789hm653lg9vtl73krp73tm0000gn/T//ccMOx09Q.s 			page 6


  80      A712
  81 00ce 3237DC99 		.ascii	"27\334\231\011~\317\333z|C\033\226\372\011\221\327I"
  81      097ECFDB 
  81      7A7C431B 
  81      96FA0991 
  81      D749
  82 00e0 B45CA463 		.ascii	"\264\\\244c\006!Y\004\376\325\226\314\200\177\2645\334"
  82      06215904 
  82      FED596CC 
  82      807FB435 
  82      DC
  83 00f1 648C51AC 		.ascii	"d\214Q\254\353\357\017\302o\200.9\202\314\313<\224\205"
  83      EBEF0FC2 
  83      6F802E39 
  83      82CCCB3C 
  83      9485
  84 0103 F9C33C96 		.ascii	"\371\303<\226`\376\317\374\023\254-\233=\350u\367\214"
  84      60FECFFC 
  84      13AC2D9B 
  84      3DE875F7 
  84      8C
  85 0114 D0653A2C 		.ascii	"\320e:,\306-\251\355^\022\273\022XJ\251e+\363p\311\225"
  85      C62DA9ED 
  85      5E12BB12 
  85      584AA965 
  85      2BF370C9 
  86 0129 28DBEC82 		.ascii	"(\333\354\202\312pPr@\2573\313=\274\336r\335\244<\250"
  86      CA705072 
  86      40AF33CB 
  86      3DBCDE72 
  86      DDA43CA8 
  87 013d D4DD2B9E 		.ascii	"\324\335+\236A\245\355^Q\034\305\036\"\275\364\351Z"
  87      41A5ED5E 
  87      511CC51E 
  87      22BDF4E9 
  87      5A
  88 014e F1F62A35 		.ascii	"\361\366*58l\3347}&\002\260\017\337\364\210\262y\364"
  88      386CDC37 
  88      7D2602B0 
  88      0FDFF488 
  88      B279F4
  89 0161 C5AD99E3 		.ascii	"\305\255\231\343'G\246\315Ea\317\363(\3003\344\033\257"
  89      2747A6CD 
  89      4561CFF3 
  89      28C033E4 
  89      1BAF
  90 0173 B3768919 		.ascii	"\263v\211\031\032;\316\236e>ej `\275\322\031u;\226R"
  90      1A3BCE9E 
  90      653E656A 
  90      2060BDD2 
  90      19753B96 
  91 0188 77D2BBD9 		.ascii	"w\322\273\331\214\272\252E\026\027\324pxE\325B\221\275"
  91      8CBAAA45 
  91      1617D470 
  91      7845D542 
  91      91BD
  92 019a A09AC96E 		.ascii	"\240\232\311n\244R[\2018\374\000\300\237\372\212"
ARM GAS  /var/folders/c6/c789hm653lg9vtl73krp73tm0000gn/T//ccMOx09Q.s 			page 7


  92      A4525B81 
  92      38FC00C0 
  92      9FFA8A
  93              		.text
  94              		.section	.gnu.lto_.symbol_nodes.f09d01de421efee7,"",%progbits
  95 0000 789C6362 		.ascii	"x\234cb`bHd\200\002\246\026\246z\006\206\011\347\030"
  95      60624864 
  95      8002A616 
  95      A67A0686 
  95      09E718
  96 0013 18EAEBE7 		.ascii	"\030\352\353\347u02\2652\3253\"\270\214mL\365L\020n"
  96      753032B5 
  96      32D53322 
  96      B88C6D4C 
  96      F54C106E 
  97 0027 43032363 		.ascii	"C\003#c;S=3\202\327\301T\317\002\3471303\034\336j\302"
  97      3B533D33 
  97      82D7C154 
  97      CF02E731 
  97      3330331C 
  98 003e 0C347B71 		.ascii	"\0144{q\333\033yfF\026\206\303\355o\344\031\000Zp\033"
  98      DB1B7966 
  98      461686C3 
  98      ED6FE419 
  98      005A701B 
  99 0052 82       		.ascii	"\202"
 100              		.text
 101              		.section	.gnu.lto_.refs.f09d01de421efee7,"",%progbits
 102 0000 789C6362 		.ascii	"x\234cb`b`d\200\002\000\000F\000\006"
 102      60626064 
 102      80020000 
 102      460006
 103              		.text
 104              		.section	.gnu.lto_.decls.f09d01de421efee7,"",%progbits
 105 0000 789CAD99 		.ascii	"x\234\255\231\177p\023\307\025\307wO\362\017aC\0347"
 105      7F7013C7 
 105      15C7774F 
 105      F20F6143 
 105      1C37
 106 0012 C9D0BF6C 		.ascii	"\311\320\277lf\232\246M\013\262e\222\320\351L\006#\033"
 106      669AA64D 
 106      0BB26592 
 106      D0E94C06 
 106      231B
 107 0024 F08C0D9E 		.ascii	"\360\214\015\236\223\311P\332\031\345\020\002k\"KT\222"
 107      93C950DA 
 107      19E51002 
 107      6B224B54 
 107      92
 108 0035 29FC9533 		.ascii	")\374\2253\016\2242\244\021\0161&\020l \264vJ\002\030"
 108      0E9432A4 
 108      110E3126 
 108      106C20B4 
 108      764A0218 
 109 0049 8798041C 		.ascii	"\207\230\004\034\205\360\303M\232\004\\\342\020\363"
 109      85F0C34D 
 109      9A045CE2 
ARM GAS  /var/folders/c6/c789hm653lg9vtl73krp73tm0000gn/T//ccMOx09Q.s 			page 8


 109      10F3
 110 0057 CB21054F 		.ascii	"\313!\005O(P\010P<\024\342\356\276\273\223n\317w\342"
 110      28500850 
 110      3C14E2EE 
 110      BEBB936E 
 110      CF77E2
 111 006a 2EED0DEF 		.ascii	".\355\015\357\335\351n\367\363\276\373\366\351\330\225"
 111      DDE96EF7 
 111      F3BEFBF6 
 111      E9D895
 112 0079 39C4A132 		.ascii	"9\304\2412\214\320\0109\232\013\020\332kG\310\206\020"
 112      8CD00839 
 112      9A0B10DA 
 112      6B47C886 
 112      10
 113 008a 7A9A18B9 		.ascii	"z\232\030\271\215\266 \351\310 \326Nl\007\261\235\304"
 113      8DB620E9 
 113      C820D64E 
 113      6C07B19D 
 113      C4
 114 009b 7613DB83 		.ascii	"v\023\333\203F\037\264M\016\261,b\335\304\366\021\273"
 114      461FB44D 
 114      0EB12C62 
 114      DDC4F611 
 114      BB
 115 00ac 2C73C611 		.ascii	",s\306\021\313%v\205\330ub7\210u\310q\216\020\033+\367"
 115      CB257685 
 115      D8756237 
 115      8875C871 
 115      8E101B2B 
 116 00c1 BF49EC36 		.ascii	"\277I\3546\261;\304\356!\251\201\003K1s\311\371\001"
 116      B13BC4EE 
 116      21A98103 
 116      4B3173C9 
 116      F901
 117 00d3 62F9C41E 		.ascii	"b\371\304\036\306\222\026\355\261Cf)\032\306\223v\277"
 117      C69216ED 
 117      B1436629 
 117      1AC69376 
 117      BF
 118 00e4 22368FD8 		.ascii	"\"6\217\330B\234\322\364%12\\\264\010K\372\272\210\215"
 118      429CD2F4 
 118      2531325C 
 118      B4084BFA 
 118      BA888D
 119 00f7 21F64BF2 		.ascii	"!\366K\362y>\261>r}\202\330G\304N\022;D,A\254\227X\017"
 119      793EB13E 
 119      727D82D8 
 119      47C44E12 
 119      3B442C41 
 120 010f 314E8EA5 		.ascii	"1N\216\245\227\007\007Z%\212\313\305\266\225\342\314"
 120      9707075A 
 120      258ACBC5 
 120      B695E2CC 
 121 011f 5E32EEB9 		.ascii	"^2\356\271X\300\343\034\250\020.r\035\020\366Q\364\272"
 121      58C0E31C 
 121      A8102E72 
ARM GAS  /var/folders/c6/c789hm653lg9vtl73krp73tm0000gn/T//ccMOx09Q.s 			page 9


 121      1D10F651 
 121      F4BA
 122 0131 28C6070F 		.ascii	"(\306\007\017\237\037\344D1[\300[\260\203 gc\3648\352"
 122      9F1FE444 
 122      315BC05B 
 122      B0832067 
 122      63F438EA 
 123 0145 10C913D2 		.ascii	"\020\311\023\322\177\022\376\237\320#+\367\377\002\320"
 123      7F12FE9F 
 123      D0232BF7 
 123      FF02D0
 124 0154 DB01BD1F 		.ascii	"\333\001\275\037c$\340\327\361\3432H\300Y\0165\030>"
 124      6324E0D7 
 124      F1E33248 
 124      C0590E35 
 124      183E
 125 0166 2B0D280D 		.ascii	"+\015(\015\036\313\027\264@\036@V\233\027\240\315b\333"
 125      1ECB17B4 
 125      401E4056 
 125      9B17A0CD 
 125      62DB
 126 0178 E060EBA7 		.ascii	"\340`\353\247W\3637\210\211\027\304\221\221\347\321"
 126      57F33788 
 126      8917C491 
 126      91E7D1
 127 0187 23E81532 		.ascii	"#\350\0252<\252_\3041\001?\375\260\356\020(\277\003"
 127      3CAA5FC4 
 127      31013FFD 
 127      B0EE1028 
 127      BF03
 128 0199 3F225FCD 		.ascii	"?\"_\315\261I19t[3\010\204~\214\266S\236\330.\332\200"
 128      B1493139 
 128      745B3308 
 128      847E8CB6 
 128      539ED82E 
 129 01af 46DBB7E3 		.ascii	"F\333\267\343\002V\352\033\230S\337\220t%\366\374\361"
 129      0256EA1B 
 129      9853DF90 
 129      7425F6FC 
 129      F1
 130 01c0 632C3689 		.ascii	"c,6\211wGFlr8\016\211\234\231\000;\264\001\336\034\035"
 130      7747466C 
 130      72380E89 
 130      9C99003B 
 130      B401DE1C 
 131 01d5 60303EB8 		.ascii	"`0>\270\257ih\005^\333\330\326+^\243\371Pb\354\035\025"
 131      AF696805 
 131      5EDBD8D6 
 131      2B5EA3F9 
 131      5062EC1D 
 132 01ea 4382ECD2 		.ascii	"C\202\354\322\205t6\237\266o\020\017J\331S\020\337\030"
 132      8574369F 
 132      B66F100F 
 132      4AD95310 
 132      DF18
 133 01fc 203A7511 		.ascii	" :u\021\303\353?\303I\204\371\011\350\222'\300\006\265"
 133      C3EB3FC3 
ARM GAS  /var/folders/c6/c789hm653lg9vtl73krp73tm0000gn/T//ccMOx09Q.s 			page 10


 133      4984F909 
 133      E89227C0 
 133      06B5
 134 020e 8EA41A65 		.ascii	"\216\244\032e>0\263\003\023\324n\323\027\366\016+\014"
 134      3E30B303 
 134      13D46ED3 
 134      17F60E2B 
 134      0C
 135 021f AAB8316D 		.ascii	"\252\2701m\025\013x+~\324T\231\345\243\265tD\205*\222"
 135      150B782B 
 135      7ED45499 
 135      E5A3B574 
 135      44852A92 
 136 0233 98A9A09E 		.ascii	"\230\251\240\236E\311/\304\215S\267\236\204/\304>\234"
 136      45C92FC4 
 136      8D53B79E 
 136      842FC43E 
 136      9C
 137 0244 4FA45ED6 		.ascii	"O\244^\326H\275/\206j\332O\272J\235\000*&\356\015\344"
 137      48BD2F86 
 137      6ADA4FBA 
 137      4A9D002A 
 137      26EE0DE4 
 138 0258 8A76E93E 		.ascii	"\212v\351>\322\031\271|L@m\342\013\215\211\221\201M"
 138      D219B97C 
 138      4C406DE2 
 138      0B8D8991 
 138      814D
 139 026a 3F14DB0E 		.ascii	"?\024\333\016\022d7|'\207A\002\355\253\227\001\371R"
 139      1264377C 
 139      27874102 
 139      EDAB9701 
 139      F952
 140 027c 3AE4062C 		.ascii	":\344\006,/~*7.(\260\273\226a\205\014\254I\015\023\355"
 140      2F7E2A37 
 140      2E28B0BB 
 140      9661850C 
 140      AC490D13 
 141 0291 2660D9C6 		.ascii	"&`\331\306\312\326\251a+,\303Xe\315j\330j3\260<ce-j"
 141      CAD6A961 
 141      2B2CC358 
 141      65CD6AD8 
 141      6A33B03C 
 142 02a9 D88B9661 		.ascii	"\330\213\226a\254\262W\325\260\265f`\343\215\225mR\303"
 142      ACB257D5 
 142      B0B56660 
 142      E38D956D 
 142      52C3
 143 02bb D65B86B1 		.ascii	"\326[\206\261\3126\253a\257\231\201\025\032+\333\245"
 143      CA36AB61 
 143      AF998115 
 143      1A2BDBA5 
 144 02cb 866DB50C 		.ascii	"\206m\265\014c\225u\252a\1772\003\373\211\261\262.5"
 144      639575AA 
 144      617F3203 
 144      FB89B1B2 
 144      2E35
ARM GAS  /var/folders/c6/c789hm653lg9vtl73krp73tm0000gn/T//ccMOx09Q.s 			page 11


 145 02dd EC0DCB30 		.ascii	"\354\015\3130V\331^5\354-3\260\"#e\015\211\356_\307"
 145      56D95E35 
 145      EC2D33B0 
 145      2223650D 
 145      89EE5FC7 
 146 02f1 8507515C 		.ascii	"\205\007Q\\~\245HT\345\265\202\331\322R7\333b\334L\300"
 146      7EA54854 
 146      E5B582D9 
 146      D25237DB 
 146      62DC4CC0 
 147 0305 03F841B8 		.ascii	"\003\370A\270\202\327\247(\277>\241\205\321;\374\224"
 147      82D7A728 
 147      BF3EA185 
 147      D13BFC94 
 148 0315 F4964E7D 		.ascii	"\364\226N}\375\345\213\324;[\335\212\014\273S;lV\205"
 148      FDE58BD4 
 148      3B5BDD8A 
 148      0CBB533B 
 148      6C5685
 149 0328 DEB8D924 		.ascii	"\336\270\331$\276\253N\342^3I\234j\014\333\257\206\275"
 149      BEAB4EE2 
 149      5E33499C 
 149      6A0CDBAF 
 149      86BD
 150 033a 670636D3 		.ascii	"g\0066\323\270Vz\324\260\367-\303Xe\307\324\260Cf`\325"
 150      B8567AD4 
 150      B0F72DC3 
 150      5865C7D4 
 150      B0436660 
 151 034f C6CAFAD4 		.ascii	"\306\312\372\324\260\243\226aje\015\211\023\251\302"
 151      B0A39661 
 151      6A650D89 
 151      13A9C2
 152 035e 6B9BAAA9 		.ascii	"k\233\252\251\274\251\354\333\226i\266\305\260\231\200"
 152      BCA9ECDB 
 152      9669B6C5 
 152      B09980
 153 036d BFB15C78 		.ascii	"\277\261\\x\227\014\012O\275\246M\265\"\303\376D;lF"
 153      970C0A4F 
 153      BDA64DB5 
 153      22C3FE44 
 153      3B6C46
 154 0380 847C3957 		.ascii	"\204|9W'\207z\207\372?j\001\037\200\205D\017\236@|\002"
 154      27877A87 
 154      FA3F6A01 
 154      1F808544 
 154      0F9E407C 
 155 0395 FC41F087 		.ascii	"\374A\360\207\300\037\001\337\013\376#\360\177\003\377"
 155      C01F01DF 
 155      0BFE23F0 
 155      7F03FF
 156 03a4 29F863E0 		.ascii	")\370c\340\373\300\237\000\337\017\376$\3703\340\317"
 156      FBC09F00 
 156      DF0FFE24 
 156      F833E0CF 
 157 03b4 81FF0AFC 		.ascii	"\201\377\012\374\327\340/\200\037\">y\344\240\325\251"
 157      D7E02F80 
ARM GAS  /var/folders/c6/c789hm653lg9vtl73krp73tm0000gn/T//ccMOx09Q.s 			page 12


 157      1F223E79 
 157      E4A0D5A9 
 158 03c4 85BBB406 		.ascii	"\205\273\264\0061\312\335e\234\243\364J\316P\3138y\345"
 158      31CADD65 
 158      9CA3F44A 
 158      CE50CB38 
 158      79E5
 159 03d6 3FB85D1C 		.ascii	"?\270]\034?>\231\203lu^\245%\011\351\300\011\370*\324"
 159      3F3E9983 
 159      6C755EA5 
 159      2509E9C0 
 159      09F82AD4 
 160 03ea 529F5D6F 		.ascii	"R\237]o\017\001A\256\252&H\272V\256Fp\022\237\247\340"
 160      0F0141AE 
 160      AA2648BA 
 160      56AE4670 
 160      129FA7E0 
 161 03fe 39B9D715 		.ascii	"9\271\327\025\271\020TS\247\274\275Z\306I\335\345\256"
 161      B9105453 
 161      A7BCBD5A 
 161      C649DDE5 
 161      AE
 162 040f 5394AE59 		.ascii	"S\224\256Yr\207\353\226k\350[\203\032\312\324O)]\032"
 162      7287EB96 
 162      6BE85B83 
 162      1ACAD44F 
 162      295D1A
 163 0422 1BA16EA4 		.ascii	"\033\241n\244RJ\027\305\211k\203\347.\366\256\302\037"
 163      524A17C5 
 163      896B83E7 
 163      2EF6AEC2 
 163      1F
 164 0433 6C5F29C6 		.ascii	"l_)\306\033\006G\236oM\344)k\353\333v3[\200\233\332"
 164      1B06479E 
 164      6F4DE429 
 164      6BEBDB76 
 164      335B809B 
 165 0448 2DC0ADD1 		.ascii	"-\300\255\321Ko\022\245\263\371p\246\262\367\231\240"
 165      4B6F12A5 
 165      B3F970A6 
 165      B2F799A0 
 166 0458 44589D61 		.ascii	"DX\235a&\302mm\204a\335\010\335}\247\263FE\330h*\302"
 166      26C26D6D 
 166      8461DD08 
 166      DD7DA7B3 
 166      4645D868 
 167 046e 1D6D84FF 		.ascii	"\035m\204\377\350EH\014\223\267\023\311\321\210*Go\231"
 167      E845480C 
 167      93B713C9 
 167      D1882A47 
 167      6F99
 168 0480 E2DFD3F2 		.ascii	"\342\337\323\362\277\323\035\301\365\177&\326\340\265"
 168      BFD31DC1 
 168      F57F26D6 
 168      E0B5
 169 048e 3B933311 		.ascii	";\2233\021\267\233\337\2434p:{\024\315\236\344\002#"
 169      B79BDFA3 
ARM GAS  /var/folders/c6/c789hm653lg9vtl73krp73tm0000gn/T//ccMOx09Q.s 			page 13


 169      34703A7B 
 169      14CD9EE4 
 169      0223
 170 04a0 165A72E8 		.ascii	"\026Zr\350F\206\374\315\370\021\332&\222]\340\361#\271"
 170      4686FCCD 
 170      F811DA26 
 170      925DE0F1 
 170      23B9
 171 04b2 71AC6CC3 		.ascii	"q\254l\303\0332i\017\221+0\330\231\310{\037y\3147\032"
 171      1B32690F 
 171      912B30D8 
 171      99C87B1F 
 171      79CC371A 
 172 04c6 AAC727C7 		.ascii	"\252\307'\307L;1cn\344\364\306|\356\342p\213n\365\375"
 172      4C3B3163 
 172      6EE4F4C6 
 172      7CEEE270 
 172      8B6EF5FD 
 173 04da 3ED34C66 		.ascii	">\323Lf\377\240\215\262Z/J\242\373|\257\274\303m\\\305"
 173      FFA08DB2 
 173      5A2F4AA2 
 173      FB7CAFBC 
 173      C36D5CC5 
 174 04ee 25378F1B 		.ascii	"%7\217\033M\205X\243\015\361\242\356@:\233\277\030]"
 174      4D8558A3 
 174      0DF1A2EE 
 174      403A9BBF 
 174      185D
 175 0500 E0BB4C45 		.ascii	"\340\273LExI\033!\256\033\241\273\351\342\350\002\377"
 175      78491B21 
 175      AE1BA1BB 
 175      E9E2E802 
 175      FF
 176 0511 D0548426 		.ascii	"\320T\204&m\204\227u\323\324uvT\201\2374\305\177E\313"
 176      6D849775 
 176      D3D47576 
 176      54819F34 
 176      C57F45CB 
 177 0525 6F66F93A 		.ascii	"of\371:[\312D\362\215\275*\371\312\216\017n\270\235"
 177      5BCA44F2 
 177      8DBD2AF9 
 177      CA8E0F6E 
 177      B89D
 178 0537 E8C0BB45 		.ascii	"\350\300\273E\221\304o\341\350\346tM\326}7\247\032\022"
 178      91C46FE1 
 178      E8E6744D 
 178      D67D37A7 
 178      1A12
 179 0549 0DBF91D3 		.ascii	"\015\277\221\323\354N[\207H\001\320-/}r\377\375\351"
 179      EC4E5B87 
 179      4801D02D 
 179      2F7D72FF 
 179      FDE9
 180 055b 9EA15E8E 		.ascii	"\236\241^\216\246\332\246\254EZ@\006\355\374\3756\250"
 180      A6DAA6AC 
 180      455A4006 
 180      EDFCFD36 
ARM GAS  /var/folders/c6/c789hm653lg9vtl73krp73tm0000gn/T//ccMOx09Q.s 			page 14


 180      A8
 181 056c 5D347E53 		.ascii	"]4~S\256\202\333h\031W\310\340\366\262\270mfpi6\251"
 181      AE82DB68 
 181      1957C8E0 
 181      F6B2B86D 
 181      66706936 
 182 0581 DD2CAEDD 		.ascii	"\335,\256\3352\216U\367.\213\333a\006\227f\243\272\237"
 182      328E55F7 
 182      2E8BDB61 
 182      069766A3 
 182      BA9F
 183 0593 C5BD6D19 		.ascii	"\305\275m\031\307\252\353aq=fpF\233Uqy\342\230\202\223"
 183      C7AAEB61 
 183      713D6670 
 183      469B5571 
 183      79E29882 
 184 05a8 DE98472D 		.ascii	"\336\230G-\343Xu}\254\272\343fp\205\306\271;\301\342"
 184      E358757D 
 184      ACBAE366 
 184      7085C6B9 
 184      3BC1E2
 185 05bb 062CE354 		.ascii	"\006,\343T\352\310\327\250\177(\033ht\031\314\241\257"
 185      EAC8D7A8 
 185      7F281B68 
 185      7419CCA1 
 185      AF
 186 05cc B534BD95 		.ascii	"\2654\275\225j\232=\353IV\334\0253\342\0147\232\215"
 186      6A9A3DEB 
 186      4956DC15 
 186      33E20C37 
 186      9A8D
 187 05de 89011677 		.ascii	"\211\001\026w\3132\216\235\211\323,\356\236\031\334"
 187      CB328E9D 
 187      89D32CEE 
 187      9E19DC
 188 05ed 14E33A39 		.ascii	"\024\343:9\313\326\311\212l\2538V\3355V\335KfpS\215"
 188      CBD6C98A 
 188      6CAB3856 
 188      DD3556DD 
 188      4B667053 
 189 0602 73F72D8B 		.ascii	"s\367-\213[o\031\307\326\311M\246NZ\2654\275:I\263_"
 189      5B6F19C7 
 189      D6C94DA6 
 189      4E5AB534 
 189      BD3A49B3 
 190 0617 FD372BAE 		.ascii	"\3757+\256\303\214\2704\233\314a\026\267\3072\216\235"
 190      C38CB834 
 190      9BCC6116 
 190      B7C7328E 
 190      9D
 191 0628 893B2CEE 		.ascii	"\211;,\356\200\031\234\336\366M\256\223\273\232\367"
 191      80199CDE 
 191      F64DAE93 
 191      BB9AF7
 192 0637 89651CAB 		.ascii	"\211e\034\253\356;\315\373\304\014\356Y\343\334\305"
 192      EE3BCDFB 
 192      C40CEE59 
ARM GAS  /var/folders/c6/c789hm653lg9vtl73krp73tm0000gn/T//ccMOx09Q.s 			page 15


 192      E3DCC5
 193 0646 2F31B853 		.ascii	"/1\270S\226ql\2354]R\327\311\0053uRk,n\035+\356_f\304"
 193      96716C9D 
 193      345D52D7 
 193      C9053375 
 193      526B2C6E 
 194 0660 2D36C635 		.ascii	"-6\3065\263\270\233\226q\354X[\230\261\016\233\031\353"
 194      B3B89B96 
 194      71EC585B 
 194      98B10E9B 
 194      19EB
 195 0672 526371AF 		.ascii	"Rcq\257\262\342\226;L\210\023\2611o\023\313[e\235W\210"
 195      B2E2963B 
 195      4C8813B1 
 195      316F13CB 
 195      5B659D57 
 196 0687 0C0FF582 		.ascii	"\014\017\365\202L\300\2338\372+\304k\034\375e\240\025"
 196      4CC09B38 
 196      FA2BC46B 
 196      1CFD65A0 
 196      15
 197 0698 FC16F0DB 		.ascii	"\374\026\360\333\300o\007\377g\360\035\340\377\002\376"
 197      C06F07FF 
 197      67F01DE0 
 197      FF02FE
 198 06a7 4DF03BC1 		.ascii	"M\360;\301\357\006\277\007\374\333\340\337\001\277\017"
 198      EF06BF07 
 198      FCDBE0DF 
 198      01BF0F
 199 06b6 FC7BE00F 		.ascii	"\374{\340\017\200\177\037\374\007\340?\004\177\030\374"
 199      807F1FFC 
 199      07E03F04 
 199      7F18FC
 200 06c5 51F07F05 		.ascii	"Q\360\177\005\3771\370O\300\177\006\3768\370\277\203"
 200      FF31F84F 
 200      C07F06FE 
 200      38F8BF83 
 201 06d5 FF1CFC17 		.ascii	"\377\034\374\027\234\361/\030-\006Y\242\343\376\222"
 201      9CF12F18 
 201      2D0659A2 
 201      E3FE92
 202 06e4 4B6EB7F5 		.ascii	"Kn\267\365\376\254\302\374\244(-\201\023\2377\343B\001"
 202      FEACC2FC 
 202      A4282D81 
 202      139F37E3 
 202      4201
 203 06f6 0FC0EAF7 		.ascii	"\017\300\352\367e\307\375\37743\352\307\3213\332\305"
 203      65C7FDFF 
 203      3433EAC7 
 203      D133DAC5 
 204 0706 EFBE7EF8 		.ascii	"\357\276~\370\323\314\031SK\337\003\375\353\230?\315"
 204      D3CC1953 
 204      4BDF03FD 
 204      EB983FCD 
 205 0716 6C050967 		.ascii	"l\005\011g\276\367\312\267\247?\371\223\236\2007s\234"
 205      BEF7CAB7 
 205      A73FF993 
ARM GAS  /var/folders/c6/c789hm653lg9vtl73krp73tm0000gn/T//ccMOx09Q.s 			page 16


 205      9E803773 
 205      9C
 206 0727 45582103 		.ascii	"EX!\003;\326\257\372}\260\303\214\2624\253\336>5l\227"
 206      3BD6AFFA 
 206      7DB0C38C 
 206      B234ABDE 
 206      3E356C97 
 207 073b 6558DA7A 		.ascii	"eX\332z?\243\252\367\263P\357\347\240\216\276\002\177"
 207      3FA3AAF7 
 207      B350EFE7 
 207      A08EBE02 
 207      7F
 208 074c 1EFC3FD2 		.ascii	"\036\374?\322\324\324@\232\232\272\230\252)M\257\256"
 208      D4D4409A 
 208      9ABA98AA 
 208      294DAFAE 
 209 075c 343FFC0C 		.ascii	"4?\374\014\245z\241Jg}4\342\014\206}B\320\351\366\007"
 209      A57AA14A 
 209      677D34E2 
 209      0C867D42 
 209      D0E9F607 
 210 0770 8342C4B9 		.ascii	"\203B\304\271\310\347\233(D\352&\206\302!\377D\2770"
 210      C8E79B28 
 210      44EA2686 
 210      C221FF44 
 210      BF30
 211 0782 3FE07415 		.ascii	"?\340t\025\025O.\232R\364\204\223\275\035\010\371\202"
 211      154F2E9A 
 211      52F48493 
 211      BD1D08F9 
 211      82
 212 0793 F50BFCCE 		.ascii	"\365\013\374\316hlA \024\233T\213\262\353\311\271\304"
 212      686C4120 
 212      149B548B 
 212      B2EBC9B9 
 212      C4
 213 07a4 E58D65CE 		.ascii	"\345\215e\316\2305\247\320\215~\363\177\200\327\011"
 213      9835A7D0 
 213      8D7EF37F 
 213      80D709
 214 07b3 BEDA40C8 		.ascii	"\276\332@\310\357\364.\360/\024\352\2031ol\331b\177"
 214      EFF42EF0 
 214      2F14EA83 
 214      316F6CD9 
 214      627F
 215 07c5 94041BE3 		.ascii	"\224\004\033\343\365*\341\234\223&\311"
 215      F52AE19C 
 215      9326C9
 216 07d0 FFC25167 		.ascii	"\377\302Qg-\011\2668\034\211E\235\236\232\252\022\227"
 216      2D09B638 
 216      1C89459D 
 216      9E9AAA12 
 216      97
 217 07e1 B3B2B2CC 		.ascii	"\263\262\262\314YSQ\265\244\230\350\364\006\203\013"
 217      595351B5 
 217      A498E8F4 
 217      06830B
ARM GAS  /var/folders/c6/c789hm653lg9vtl73krp73tm0000gn/T//ccMOx09Q.s 			page 17


 218 07f0 26F950F6 		.ascii	"&\371P\3663~_,\034\231V\224#\335\362\006B\201\330O\325"
 218      337E5F2C 
 218      1C995694 
 218      23DDF206 
 218      4281D84F 
 219 0805 90484C66 		.ascii	"\220HLf\224\362U\356\252\245N_\255/\034\361{\227<UG"
 219      94F255EE 
 219      AAA54E5F 
 219      AD2F1CF1 
 219      7B973C55 
 220 081a 22E77BE9 		.ascii	"\"\347{\3513o \362[\257\177q \030^T\357/\320tV\324\373"
 220      336F20F2 
 220      5BAF7F71 
 220      20185E54 
 220      EF2FD074 
 221 0831 6AA3CBA8 		.ascii	"j\243\313\250\330|_\255gY\264&P\347\217\314\024B\013"
 221      D87C5FAD 
 221      6759B426 
 221      50E78FCC 
 221      14420B
 222 0844 82FE48C5 		.ascii	"\202\376H\305\317\364E\373\302uu\341\220\0227\264$\340"
 222      CFF445FB 
 222      C27575E1 
 222      901237B4 
 222      24E0
 223 0856 23DDF3E8 		.ascii	"#\335\363\350\271<$\314\017\372%\351.\263#\256\243\371"
 223      B93C24CC 
 223      0FFA25E9 
 223      2EB323AE 
 223      A3F9
 224 0868 0950D539 		.ascii	"\011P\3259\311\017\336\230\315\315\027\023s\331=Un\336"
 224      C90FDE98 
 224      CDCD1713 
 224      73D93D55 
 224      6EDE
 225 087a 5E5651CE 		.ascii	"^VQ\316s\036\336V>\203\317p\273\253\370b\360.\273\333"
 225      731EDE56 
 225      3E83CF70 
 225      BBABF862 
 225      F02EBBDB 
 226 088e 5DCEDBDC 		.ascii	"]\316\333\334\263jl\325\036\267\255\224\347m\274\233"
 226      B36A6CD5 
 226      1EB7AD94 
 226      E76DBC9B 
 227 089e 7C261DA6 		.ascii	"|&\035\246\225\325\360\2662\332\263\252\224\347fK\275"
 227      95D5F0B6 
 227      32DAB3AA 
 227      94E7664B 
 227      BD
 228 08af 4A48FBB9 		.ascii	"JH\373\271\274\335W+D\012\264\352\302Q\342HZ\350\231"
 228      BCDD572B 
 228      440AB4EA 
 228      C251E248 
 228      5AE899
 229 08c2 66839E49 		.ascii	"f\203\236I>*\303\276\347\246G\302u\025\036>\017\022"
 229      3E2AC3BE 
 229      E7A647C2 
ARM GAS  /var/folders/c6/c789hm653lg9vtl73krp73tm0000gn/T//ccMOx09Q.s 			page 18


 229      75151E3E 
 229      0F12
 230 08d4 A4BA910F 		.ascii	"\244\272\221\0179&\265\363\234w!\271\343\015D#\216\344"
 230      3926B5F3 
 230      9C7721B9 
 230      E30D4423 
 230      8EE4
 231 08e6 AD9FAB03 		.ascii	"\255\237\253\003\370\227\306\234\356*O\205'\225u:W\276"
 231      F897C69C 
 231      EE2A4F85 
 231      2795753A 
 231      57BE
 232 08f8 BAE9F521 		.ascii	"\272\351\365!\232\274\261^o\324\037\363N+\365\224W\363"
 232      9ABCB15E 
 232      6FD41FF3 
 232      4E2BF594 
 232      57F3
 233 090a 156385E0 		.ascii	"\025c\205\340\357\204eQ2\345ARV\031K\204`\275\377\007"
 233      EF846551 
 233      32E54152 
 233      56194B84 
 233      60BDFF07 
 234 091e 54CF6C76 		.ascii	"T\317lvz\036\2225\316\011\005U\242@%s\353!\020U\037"
 234      7A1E9235 
 234      CE090555 
 234      A2402573 
 234      EB211055 
 235 0933 6294E6A8 		.ascii	"b\224\346\250n>\246\257\325S#\315\316\302\311EO-]J\347"
 235      6E3EA6AF 
 235      D55323CD 
 235      CEC2C945 
 235      4F2D5D4A 
 236 0948 8777BBBD 		.ascii	"\207w\273\2755\244\270\313\374\01397\237U]Y\351\236"
 236      35A4B8CB 
 236      FC0B3937 
 236      9F555D59 
 236      E99E
 237 095a 3E83B753 		.ascii	">\203\267SgsW\360\331\2453\247\025\363\236\032\270p"
 237      677357F0 
 237      D9A533A7 
 237      15F39E1A 
 237      B870
 238 096c 291725F4 		.ascii	")\027%\364\302\301\227{\312\371g\312\313\212\262K\253"
 238      C2C1977B 
 238      CAF967CA 
 238      CB8AB24B 
 238      AB
 239 097d 9546D552 		.ascii	"\225F\325R\243\344\263\342,\012(\237\305\323\263K>\227"
 239      A3E4B3E2 
 239      2C0A289F 
 239      C5D3B34B 
 239      3E97
 240 098f 9073B285 		.ascii	"\220s\262\205+\213\366\206'\325\320\"\371\244\304A\373"
 240      2B8BF686 
 240      27D5D022 
 240      F9A4C441 
 240      FB
ARM GAS  /var/folders/c6/c789hm653lg9vtl73krp73tm0000gn/T//ccMOx09Q.s 			page 19


 241 09a0 5656D37B 		.ascii	"VV\323{\264w\362\252D\272R\332MvP\202\374\264Zi\247"
 241      B477F2AA 
 241      44BA52DA 
 241      4D765082 
 241      FCB45A69 
 242 09b5 3C7D8214 		.ascii	"<}\202\024\016\255 O\352\326\223\031\036\217{\006?\206"
 242      0EAD204F 
 242      EAD69319 
 242      1E8F7B06 
 242      3F86
 243 09c7 0CB6C2E5 		.ascii	"\014\266\302\345\241C\035W6mF\225{\216\222\211\314\212"
 243      A1431D57 
 243      366D4695 
 243      7B8E9289 
 243      CC8A
 244 09d9 32F7ECB2 		.ascii	"2\367\354\262\362L\312\235>\217\236\\\323\347\375\027"
 244      F24CCA9D 
 244      3E8F9E5C 
 244      D3E7FD17 
 245 09e9 482E4095 		.ascii	"H.@\225"
 246              		.text
 247              		.section	.gnu.lto_.symtab.f09d01de421efee7,"",%progbits
 248 0000 56656374 		.ascii	"VectorB0\000\000\000\000\000\000\000\000\000\000\000"
 248      6F724230 
 248      00000000 
 248      00000000 
 248      000000
 249 0013 00A80000 		.ascii	"\000\250\000\000\000st_lld_init\000\000\000\000\000"
 249      0073745F 
 249      6C6C645F 
 249      696E6974 
 249      00000000 
 250 0028 00000000 		.ascii	"\000\000\000\000\000\000\000\254\000\000\000_port_i"
 250      000000AC 
 250      0000005F 
 250      706F7274 
 250      5F69
 251 003a 72715F65 		.ascii	"rq_epilogue\000\000\002\000\000\000\000\000\000\000"
 251      70696C6F 
 251      67756500 
 251      00020000 
 251      00000000 
 252 004f 0000AF00 		.ascii	"\000\000\257\000\000\000chSysTimerHandlerI\000\000\002"
 252      00006368 
 252      53797354 
 252      696D6572 
 252      48616E64 
 253 006a 00000000 		.ascii	"\000\000\000\000\000\000\000\000\000\261\000\000\000"
 253      00000000 
 253      00B10000 
 253      00
 254 0077 6E766963 		.ascii	"nvicEnableVector\000\000\002\000\000\000\000\000\000"
 254      456E6162 
 254      6C655665 
 254      63746F72 
 254      00000200 
 255 0090 000000B3 		.ascii	"\000\000\000\263\000\000\000"
ARM GAS  /var/folders/c6/c789hm653lg9vtl73krp73tm0000gn/T//ccMOx09Q.s 			page 20


 255      000000
 256              		.text
 257              		.section	.gnu.lto_.opts,"",%progbits
 258 0000 272D6D63 		.ascii	"'-mcpu=cortex-m4' '-mno-thumb-interwork' '-mthumb' "
 258      70753D63 
 258      6F727465 
 258      782D6D34 
 258      2720272D 
 259 0033 272D6767 		.ascii	"'-ggdb' '-O2' '-fomit-frame-pointer' '-falign-funct"
 259      64622720 
 259      272D4F32 
 259      2720272D 
 259      666F6D69 
 260 0066 696F6E73 		.ascii	"ions=16' '-ffunction-sections' '-fdata-sections' '-"
 260      3D313627 
 260      20272D66 
 260      66756E63 
 260      74696F6E 
 261 0099 666E6F2D 		.ascii	"fno-common' '-flto'\000"
 261      636F6D6D 
 261      6F6E2720 
 261      272D666C 
 261      746F2700 
 262              		.text
 263              		.cfi_sections	.debug_frame
 264              		.section	.text.VectorB0,"ax",%progbits
 265              		.align	2
 266              		.p2align 4,,15
 267              		.global	VectorB0
 268              		.thumb
 269              		.thumb_func
 270              		.type	VectorB0, %function
 271              	VectorB0:
 272              	.LFB260:
 273              		.file 1 "../../../os/hal/ports/STM32/LLD/TIMv1/st_lld.c"
 274              		.loc 1 173 0
 275              		.cfi_startproc
 276              		@ args = 0, pretend = 0, frame = 0
 277              		@ frame_needed = 0, uses_anonymous_args = 0
 278              		.loc 1 180 0
 279 0000 4FF08043 		mov	r3, #1073741824
 280              		.loc 1 173 0
 281 0004 10B5     		push	{r4, lr}
 282              		.cfi_def_cfa_offset 8
 283              		.cfi_offset 4, -8
 284              		.cfi_offset 14, -4
 285              		.loc 1 180 0
 286 0006 1A69     		ldr	r2, [r3, #16]
 287 0008 9207     		lsls	r2, r2, #30
 288 000a 08D5     		bpl	.L2
 289              		.loc 1 181 0
 290 000c 0024     		movs	r4, #0
 291 000e 1C61     		str	r4, [r3, #16]
 292              	.LVL0:
 293              	.LBB52:
 294              	.LBB53:
 295              	.LBB54:
ARM GAS  /var/folders/c6/c789hm653lg9vtl73krp73tm0000gn/T//ccMOx09Q.s 			page 21


 296              	.LBB55:
 297              	.LBB56:
 298              	.LBB57:
 299              		.file 2 "../../../os/ext/CMSIS/include/core_cmFunc.h"
 300              		.loc 2 546 0
 301 0010 2023     		movs	r3, #32
 302              	@ 546 "../../../os/ext/CMSIS/include/core_cmFunc.h" 1
 303 0012 83F31188 		MSR basepri, r3
 304              	@ 0 "" 2
 305              		.thumb
 306              	.LBE57:
 307              	.LBE56:
 308              	.LBE55:
 309              	.LBE54:
 310              	.LBE53:
 311              	.LBE52:
 312              	.LBB58:
 313              	.LBB59:
 314              		.file 3 "../../../os/hal/osal/rt/osal.h"
 315              		.loc 3 585 0
 316 0016 FFF7FEFF 		bl	chSysTimerHandlerI
 317              	.LVL1:
 318              	.LBE59:
 319              	.LBE58:
 320              	.LBB60:
 321              	.LBB61:
 322              	.LBB62:
 323              	.LBB63:
 324              	.LBB64:
 325              	.LBB65:
 326              		.loc 2 546 0
 327              	@ 546 "../../../os/ext/CMSIS/include/core_cmFunc.h" 1
 328 001a 84F31188 		MSR basepri, r4
 329              	@ 0 "" 2
 330              	.LVL2:
 331              		.thumb
 332              	.L2:
 333              	.LBE65:
 334              	.LBE64:
 335              	.LBE63:
 336              	.LBE62:
 337              	.LBE61:
 338              	.LBE60:
 339              		.loc 1 189 0
 340 001e BDE81040 		pop	{r4, lr}
 341              		.loc 1 188 0
 342 0022 FFF7FEBF 		b	_port_irq_epilogue
 343              	.LVL3:
 344              		.cfi_endproc
 345              	.LFE260:
 346              		.size	VectorB0, .-VectorB0
 347 0026 00BFAFF3 		.section	.text.st_lld_init,"ax",%progbits
 347      0080AFF3 
 347      0080
 348              		.align	2
 349              		.p2align 4,,15
 350              		.global	st_lld_init
ARM GAS  /var/folders/c6/c789hm653lg9vtl73krp73tm0000gn/T//ccMOx09Q.s 			page 22


 351              		.thumb
 352              		.thumb_func
 353              		.type	st_lld_init, %function
 354              	st_lld_init:
 355              	.LFB261:
 356              		.loc 1 201 0
 357              		.cfi_startproc
 358              		@ args = 0, pretend = 0, frame = 0
 359              		@ frame_needed = 0, uses_anonymous_args = 0
 360              		@ link register save eliminated.
 361              		.loc 1 207 0
 362 0000 0F4B     		ldr	r3, .L8
 363              		.loc 1 210 0
 364 0002 1049     		ldr	r1, .L8+4
 365              		.loc 1 207 0
 366 0004 1A6C     		ldr	r2, [r3, #64]
 367              		.loc 1 201 0
 368 0006 70B4     		push	{r4, r5, r6}
 369              		.cfi_def_cfa_offset 12
 370              		.cfi_offset 4, -12
 371              		.cfi_offset 5, -8
 372              		.cfi_offset 6, -4
 373              		.loc 1 207 0
 374 0008 42F00102 		orr	r2, r2, #1
 375 000c 1A64     		str	r2, [r3, #64]
 376              		.loc 1 210 0
 377 000e 8868     		ldr	r0, [r1, #8]
 378              		.loc 1 213 0
 379 0010 4FF08043 		mov	r3, #1073741824
 380              		.loc 1 215 0
 381 0014 0022     		movs	r2, #0
 382              		.loc 1 219 0
 383 0016 0124     		movs	r4, #1
 384              		.loc 1 210 0
 385 0018 40F00100 		orr	r0, r0, #1
 386              		.loc 1 213 0
 387 001c 42F2CF06 		movw	r6, #8399
 388              		.loc 1 214 0
 389 0020 4FF0FF35 		mov	r5, #-1
 390              		.loc 1 210 0
 391 0024 8860     		str	r0, [r1, #8]
 392              		.loc 1 213 0
 393 0026 9E62     		str	r6, [r3, #40]
 394              		.loc 1 223 0
 395 0028 1C20     		movs	r0, #28
 396              		.loc 1 214 0
 397 002a DD62     		str	r5, [r3, #44]
 398              		.loc 1 223 0
 399 002c 0821     		movs	r1, #8
 400              		.loc 1 215 0
 401 002e 9A61     		str	r2, [r3, #24]
 402              		.loc 1 216 0
 403 0030 5A63     		str	r2, [r3, #52]
 404              		.loc 1 217 0
 405 0032 DA60     		str	r2, [r3, #12]
 406              		.loc 1 218 0
 407 0034 5A60     		str	r2, [r3, #4]
ARM GAS  /var/folders/c6/c789hm653lg9vtl73krp73tm0000gn/T//ccMOx09Q.s 			page 23


 408              		.loc 1 219 0
 409 0036 5C61     		str	r4, [r3, #20]
 410              		.loc 1 220 0
 411 0038 1C60     		str	r4, [r3]
 412              		.loc 1 238 0
 413 003a 70BC     		pop	{r4, r5, r6}
 414              		.loc 1 223 0
 415 003c FFF7FEBF 		b	nvicEnableVector
 416              	.LVL4:
 417              	.L9:
 418              		.align	2
 419              	.L8:
 420 0040 00380240 		.word	1073887232
 421 0044 002004E0 		.word	-536600576
 422              		.cfi_endproc
 423              	.LFE261:
 424              		.size	st_lld_init, .-st_lld_init
 425 0048 AFF30080 		.text
 425      AFF30080 
 426              	.Letext0:
 427              		.file 4 "/usr/local/Cellar/gcc-arm-none-eabi/20140805/arm-none-eabi/include/machine/_default_types
 428              		.file 5 "/usr/local/Cellar/gcc-arm-none-eabi/20140805/arm-none-eabi/include/stdint.h"
 429              		.file 6 "../../../os/rt/ports/ARMCMx/compilers/GCC/chtypes.h"
 430              		.file 7 "../../../os/rt/include/chsystypes.h"
 431              		.file 8 "../../../os/rt/include/chschd.h"
 432              		.file 9 "../../../os/ext/CMSIS/ST/stm32f407xx.h"
 433              		.file 10 "../../../os/rt/ports/ARMCMx/chcore.h"
 434              		.file 11 "../../../os/rt/ports/ARMCMx/chcore_v7m.h"
 435              		.file 12 "../../../os/hal/ports/STM32/LLD/TIMv1/stm32_tim.h"
 436              		.file 13 "../../../os/rt/include/chtm.h"
 437              		.file 14 "../../../os/rt/include/chsem.h"
 438              		.file 15 "../../../os/rt/include/chmtx.h"
 439              		.file 16 "../../../os/rt/include/chsys.h"
 440              		.file 17 "../../../os/ext/CMSIS/include/core_cm4.h"
 441              		.file 18 "../../../os/hal/ports/common/ARMCMx/nvic.h"
 442              		.section	.debug_info,"",%progbits
 443              	.Ldebug_info0:
 444 0000 160B0000 		.4byte	0xb16
 445 0004 0400     		.2byte	0x4
 446 0006 00000000 		.4byte	.Ldebug_abbrev0
 447 000a 04       		.byte	0x4
 448 000b 01       		.uleb128 0x1
 449 000c 00000000 		.4byte	.LASF158
 450 0010 01       		.byte	0x1
 451 0011 3C060000 		.4byte	.LASF159
 452 0015 EC050000 		.4byte	.LASF160
 453 0019 00000000 		.4byte	.Ldebug_ranges0+0
 454 001d 00000000 		.4byte	0
 455 0021 00000000 		.4byte	.Ldebug_line0
 456 0025 02       		.uleb128 0x2
 457 0026 04       		.byte	0x4
 458 0027 05       		.byte	0x5
 459 0028 696E7400 		.ascii	"int\000"
 460 002c 03       		.uleb128 0x3
 461 002d 04       		.byte	0x4
 462 002e 07       		.byte	0x7
 463 002f DF020000 		.4byte	.LASF0
ARM GAS  /var/folders/c6/c789hm653lg9vtl73krp73tm0000gn/T//ccMOx09Q.s 			page 24


 464 0033 03       		.uleb128 0x3
 465 0034 01       		.byte	0x1
 466 0035 06       		.byte	0x6
 467 0036 EA010000 		.4byte	.LASF1
 468 003a 04       		.uleb128 0x4
 469 003b 08010000 		.4byte	.LASF5
 470 003f 04       		.byte	0x4
 471 0040 1C       		.byte	0x1c
 472 0041 45000000 		.4byte	0x45
 473 0045 03       		.uleb128 0x3
 474 0046 01       		.byte	0x1
 475 0047 08       		.byte	0x8
 476 0048 0E050000 		.4byte	.LASF2
 477 004c 03       		.uleb128 0x3
 478 004d 02       		.byte	0x2
 479 004e 05       		.byte	0x5
 480 004f 33050000 		.4byte	.LASF3
 481 0053 03       		.uleb128 0x3
 482 0054 02       		.byte	0x2
 483 0055 07       		.byte	0x7
 484 0056 6E020000 		.4byte	.LASF4
 485 005a 04       		.uleb128 0x4
 486 005b 91030000 		.4byte	.LASF6
 487 005f 04       		.byte	0x4
 488 0060 37       		.byte	0x37
 489 0061 65000000 		.4byte	0x65
 490 0065 03       		.uleb128 0x3
 491 0066 04       		.byte	0x4
 492 0067 05       		.byte	0x5
 493 0068 26020000 		.4byte	.LASF7
 494 006c 04       		.uleb128 0x4
 495 006d C4060000 		.4byte	.LASF8
 496 0071 04       		.byte	0x4
 497 0072 38       		.byte	0x38
 498 0073 77000000 		.4byte	0x77
 499 0077 03       		.uleb128 0x3
 500 0078 04       		.byte	0x4
 501 0079 07       		.byte	0x7
 502 007a DA050000 		.4byte	.LASF9
 503 007e 03       		.uleb128 0x3
 504 007f 08       		.byte	0x8
 505 0080 05       		.byte	0x5
 506 0081 50020000 		.4byte	.LASF10
 507 0085 04       		.uleb128 0x4
 508 0086 78040000 		.4byte	.LASF11
 509 008a 04       		.byte	0x4
 510 008b 4E       		.byte	0x4e
 511 008c 90000000 		.4byte	0x90
 512 0090 03       		.uleb128 0x3
 513 0091 08       		.byte	0x8
 514 0092 07       		.byte	0x7
 515 0093 37010000 		.4byte	.LASF12
 516 0097 04       		.uleb128 0x4
 517 0098 79070000 		.4byte	.LASF13
 518 009c 05       		.byte	0x5
 519 009d 2A       		.byte	0x2a
 520 009e 3A000000 		.4byte	0x3a
ARM GAS  /var/folders/c6/c789hm653lg9vtl73krp73tm0000gn/T//ccMOx09Q.s 			page 25


 521 00a2 04       		.uleb128 0x4
 522 00a3 06050000 		.4byte	.LASF14
 523 00a7 05       		.byte	0x5
 524 00a8 41       		.byte	0x41
 525 00a9 5A000000 		.4byte	0x5a
 526 00ad 04       		.uleb128 0x4
 527 00ae A9050000 		.4byte	.LASF15
 528 00b2 05       		.byte	0x5
 529 00b3 42       		.byte	0x42
 530 00b4 6C000000 		.4byte	0x6c
 531 00b8 04       		.uleb128 0x4
 532 00b9 FF000000 		.4byte	.LASF16
 533 00bd 05       		.byte	0x5
 534 00be 4E       		.byte	0x4e
 535 00bf 85000000 		.4byte	0x85
 536 00c3 05       		.uleb128 0x5
 537 00c4 A2000000 		.4byte	0xa2
 538 00c8 05       		.uleb128 0x5
 539 00c9 AD000000 		.4byte	0xad
 540 00cd 04       		.uleb128 0x4
 541 00ce 23070000 		.4byte	.LASF17
 542 00d2 06       		.byte	0x6
 543 00d3 45       		.byte	0x45
 544 00d4 AD000000 		.4byte	0xad
 545 00d8 04       		.uleb128 0x4
 546 00d9 A6070000 		.4byte	.LASF18
 547 00dd 06       		.byte	0x6
 548 00de 48       		.byte	0x48
 549 00df 97000000 		.4byte	0x97
 550 00e3 04       		.uleb128 0x4
 551 00e4 42020000 		.4byte	.LASF19
 552 00e8 06       		.byte	0x6
 553 00e9 49       		.byte	0x49
 554 00ea 97000000 		.4byte	0x97
 555 00ee 04       		.uleb128 0x4
 556 00ef 8A040000 		.4byte	.LASF20
 557 00f3 06       		.byte	0x6
 558 00f4 4A       		.byte	0x4a
 559 00f5 97000000 		.4byte	0x97
 560 00f9 04       		.uleb128 0x4
 561 00fa D5040000 		.4byte	.LASF21
 562 00fe 06       		.byte	0x6
 563 00ff 4C       		.byte	0x4c
 564 0100 AD000000 		.4byte	0xad
 565 0104 04       		.uleb128 0x4
 566 0105 32030000 		.4byte	.LASF22
 567 0109 06       		.byte	0x6
 568 010a 4D       		.byte	0x4d
 569 010b A2000000 		.4byte	0xa2
 570 010f 04       		.uleb128 0x4
 571 0110 85030000 		.4byte	.LASF23
 572 0114 06       		.byte	0x6
 573 0115 4F       		.byte	0x4f
 574 0116 AD000000 		.4byte	0xad
 575 011a 04       		.uleb128 0x4
 576 011b D9020000 		.4byte	.LASF24
 577 011f 06       		.byte	0x6
ARM GAS  /var/folders/c6/c789hm653lg9vtl73krp73tm0000gn/T//ccMOx09Q.s 			page 26


 578 0120 51       		.byte	0x51
 579 0121 A2000000 		.4byte	0xa2
 580 0125 04       		.uleb128 0x4
 581 0126 9E060000 		.4byte	.LASF25
 582 012a 07       		.byte	0x7
 583 012b 33       		.byte	0x33
 584 012c AD000000 		.4byte	0xad
 585 0130 04       		.uleb128 0x4
 586 0131 8E060000 		.4byte	.LASF26
 587 0135 07       		.byte	0x7
 588 0136 3F       		.byte	0x3f
 589 0137 3B010000 		.4byte	0x13b
 590 013b 06       		.uleb128 0x6
 591 013c 1D030000 		.4byte	.LASF46
 592 0140 44       		.byte	0x44
 593 0141 08       		.byte	0x8
 594 0142 C2       		.byte	0xc2
 595 0143 28020000 		.4byte	0x228
 596 0147 07       		.uleb128 0x7
 597 0148 16040000 		.4byte	.LASF27
 598 014c 08       		.byte	0x8
 599 014d C3       		.byte	0xc3
 600 014e 33020000 		.4byte	0x233
 601 0152 00       		.byte	0
 602 0153 07       		.uleb128 0x7
 603 0154 C4040000 		.4byte	.LASF28
 604 0158 08       		.byte	0x8
 605 0159 C5       		.byte	0xc5
 606 015a 33020000 		.4byte	0x233
 607 015e 04       		.byte	0x4
 608 015f 07       		.uleb128 0x7
 609 0160 C0010000 		.4byte	.LASF29
 610 0164 08       		.byte	0x8
 611 0165 C7       		.byte	0xc7
 612 0166 F9000000 		.4byte	0xf9
 613 016a 08       		.byte	0x8
 614 016b 07       		.uleb128 0x7
 615 016c C4070000 		.4byte	.LASF30
 616 0170 08       		.byte	0x8
 617 0171 C8       		.byte	0xc8
 618 0172 67060000 		.4byte	0x667
 619 0176 0C       		.byte	0xc
 620 0177 07       		.uleb128 0x7
 621 0178 5E020000 		.4byte	.LASF31
 622 017c 08       		.byte	0x8
 623 017d CA       		.byte	0xca
 624 017e 33020000 		.4byte	0x233
 625 0182 10       		.byte	0x10
 626 0183 07       		.uleb128 0x7
 627 0184 3C040000 		.4byte	.LASF32
 628 0188 08       		.byte	0x8
 629 0189 CB       		.byte	0xcb
 630 018a 33020000 		.4byte	0x233
 631 018e 14       		.byte	0x14
 632 018f 07       		.uleb128 0x7
 633 0190 92070000 		.4byte	.LASF33
 634 0194 08       		.byte	0x8
ARM GAS  /var/folders/c6/c789hm653lg9vtl73krp73tm0000gn/T//ccMOx09Q.s 			page 27


 635 0195 D2       		.byte	0xd2
 636 0196 08090000 		.4byte	0x908
 637 019a 18       		.byte	0x18
 638 019b 07       		.uleb128 0x7
 639 019c 3D050000 		.4byte	.LASF34
 640 01a0 08       		.byte	0x8
 641 01a1 DD       		.byte	0xdd
 642 01a2 E3000000 		.4byte	0xe3
 643 01a6 1C       		.byte	0x1c
 644 01a7 07       		.uleb128 0x7
 645 01a8 5D050000 		.4byte	.LASF35
 646 01ac 08       		.byte	0x8
 647 01ad E1       		.byte	0xe1
 648 01ae D8000000 		.4byte	0xd8
 649 01b2 1D       		.byte	0x1d
 650 01b3 07       		.uleb128 0x7
 651 01b4 67070000 		.4byte	.LASF36
 652 01b8 08       		.byte	0x8
 653 01b9 E6       		.byte	0xe6
 654 01ba EE000000 		.4byte	0xee
 655 01be 1E       		.byte	0x1e
 656 01bf 08       		.uleb128 0x8
 657 01c0 705F7500 		.ascii	"p_u\000"
 658 01c4 08       		.byte	0x8
 659 01c5 3101     		.2byte	0x131
 660 01c7 43080000 		.4byte	0x843
 661 01cb 20       		.byte	0x20
 662 01cc 09       		.uleb128 0x9
 663 01cd D9030000 		.4byte	.LASF37
 664 01d1 08       		.byte	0x8
 665 01d2 3601     		.2byte	0x136
 666 01d4 39020000 		.4byte	0x239
 667 01d8 24       		.byte	0x24
 668 01d9 09       		.uleb128 0x9
 669 01da FB020000 		.4byte	.LASF38
 670 01de 08       		.byte	0x8
 671 01df 3C01     		.2byte	0x13c
 672 01e1 5D020000 		.4byte	0x25d
 673 01e5 28       		.byte	0x28
 674 01e6 09       		.uleb128 0x9
 675 01e7 B6070000 		.4byte	.LASF39
 676 01eb 08       		.byte	0x8
 677 01ec 4001     		.2byte	0x140
 678 01ee 04010000 		.4byte	0x104
 679 01f2 30       		.byte	0x30
 680 01f3 09       		.uleb128 0x9
 681 01f4 1D040000 		.4byte	.LASF40
 682 01f8 08       		.byte	0x8
 683 01f9 4601     		.2byte	0x146
 684 01fb 0F010000 		.4byte	0x10f
 685 01ff 34       		.byte	0x34
 686 0200 09       		.uleb128 0x9
 687 0201 29050000 		.4byte	.LASF41
 688 0205 08       		.byte	0x8
 689 0206 4D01     		.2byte	0x14d
 690 0208 02090000 		.4byte	0x902
 691 020c 38       		.byte	0x38
ARM GAS  /var/folders/c6/c789hm653lg9vtl73krp73tm0000gn/T//ccMOx09Q.s 			page 28


 692 020d 09       		.uleb128 0x9
 693 020e 41030000 		.4byte	.LASF42
 694 0212 08       		.byte	0x8
 695 0213 5101     		.2byte	0x151
 696 0215 F9000000 		.4byte	0xf9
 697 0219 3C       		.byte	0x3c
 698 021a 09       		.uleb128 0x9
 699 021b 89020000 		.4byte	.LASF43
 700 021f 08       		.byte	0x8
 701 0220 5801     		.2byte	0x158
 702 0222 10030000 		.4byte	0x310
 703 0226 40       		.byte	0x40
 704 0227 00       		.byte	0
 705 0228 04       		.uleb128 0x4
 706 0229 EC030000 		.4byte	.LASF44
 707 022d 07       		.byte	0x7
 708 022e 44       		.byte	0x44
 709 022f 33020000 		.4byte	0x233
 710 0233 0A       		.uleb128 0xa
 711 0234 04       		.byte	0x4
 712 0235 30010000 		.4byte	0x130
 713 0239 04       		.uleb128 0x4
 714 023a BA030000 		.4byte	.LASF45
 715 023e 07       		.byte	0x7
 716 023f 49       		.byte	0x49
 717 0240 44020000 		.4byte	0x244
 718 0244 06       		.uleb128 0x6
 719 0245 CA050000 		.4byte	.LASF47
 720 0249 04       		.byte	0x4
 721 024a 08       		.byte	0x8
 722 024b B0       		.byte	0xb0
 723 024c 5D020000 		.4byte	0x25d
 724 0250 07       		.uleb128 0x7
 725 0251 16040000 		.4byte	.LASF27
 726 0255 08       		.byte	0x8
 727 0256 B1       		.byte	0xb1
 728 0257 33020000 		.4byte	0x233
 729 025b 00       		.byte	0
 730 025c 00       		.byte	0
 731 025d 04       		.uleb128 0x4
 732 025e 4B070000 		.4byte	.LASF48
 733 0262 07       		.byte	0x7
 734 0263 50       		.byte	0x50
 735 0264 68020000 		.4byte	0x268
 736 0268 06       		.uleb128 0x6
 737 0269 A5010000 		.4byte	.LASF49
 738 026d 08       		.byte	0x8
 739 026e 08       		.byte	0x8
 740 026f B7       		.byte	0xb7
 741 0270 8D020000 		.4byte	0x28d
 742 0274 07       		.uleb128 0x7
 743 0275 16040000 		.4byte	.LASF27
 744 0279 08       		.byte	0x8
 745 027a B8       		.byte	0xb8
 746 027b 33020000 		.4byte	0x233
 747 027f 00       		.byte	0
 748 0280 07       		.uleb128 0x7
ARM GAS  /var/folders/c6/c789hm653lg9vtl73krp73tm0000gn/T//ccMOx09Q.s 			page 29


 749 0281 C4040000 		.4byte	.LASF28
 750 0285 08       		.byte	0x8
 751 0286 B9       		.byte	0xb9
 752 0287 33020000 		.4byte	0x233
 753 028b 04       		.byte	0x4
 754 028c 00       		.byte	0
 755 028d 04       		.uleb128 0x4
 756 028e E0000000 		.4byte	.LASF50
 757 0292 07       		.byte	0x7
 758 0293 57       		.byte	0x57
 759 0294 98020000 		.4byte	0x298
 760 0298 0B       		.uleb128 0xb
 761 0299 77030000 		.4byte	.LASF51
 762 029d 1C       		.byte	0x1c
 763 029e 08       		.byte	0x8
 764 029f 9001     		.2byte	0x190
 765 02a1 F4020000 		.4byte	0x2f4
 766 02a5 09       		.uleb128 0x9
 767 02a6 B9050000 		.4byte	.LASF52
 768 02aa 08       		.byte	0x8
 769 02ab 9101     		.2byte	0x191
 770 02ad 5D020000 		.4byte	0x25d
 771 02b1 00       		.byte	0
 772 02b2 09       		.uleb128 0x9
 773 02b3 4F050000 		.4byte	.LASF53
 774 02b7 08       		.byte	0x8
 775 02b8 9201     		.2byte	0x192
 776 02ba F9000000 		.4byte	0xf9
 777 02be 08       		.byte	0x8
 778 02bf 09       		.uleb128 0x9
 779 02c0 44040000 		.4byte	.LASF54
 780 02c4 08       		.byte	0x8
 781 02c5 9401     		.2byte	0x194
 782 02c7 67060000 		.4byte	0x667
 783 02cb 0C       		.byte	0xc
 784 02cc 09       		.uleb128 0x9
 785 02cd 81020000 		.4byte	.LASF55
 786 02d1 08       		.byte	0x8
 787 02d2 9701     		.2byte	0x197
 788 02d4 33020000 		.4byte	0x233
 789 02d8 10       		.byte	0x10
 790 02d9 09       		.uleb128 0x9
 791 02da 0F070000 		.4byte	.LASF56
 792 02de 08       		.byte	0x8
 793 02df 9801     		.2byte	0x198
 794 02e1 33020000 		.4byte	0x233
 795 02e5 14       		.byte	0x14
 796 02e6 09       		.uleb128 0x9
 797 02e7 65040000 		.4byte	.LASF57
 798 02eb 08       		.byte	0x8
 799 02ec 9B01     		.2byte	0x19b
 800 02ee 33020000 		.4byte	0x233
 801 02f2 18       		.byte	0x18
 802 02f3 00       		.byte	0
 803 02f4 04       		.uleb128 0x4
 804 02f5 BB060000 		.4byte	.LASF58
 805 02f9 07       		.byte	0x7
ARM GAS  /var/folders/c6/c789hm653lg9vtl73krp73tm0000gn/T//ccMOx09Q.s 			page 30


 806 02fa 5C       		.byte	0x5c
 807 02fb FF020000 		.4byte	0x2ff
 808 02ff 0A       		.uleb128 0xa
 809 0300 04       		.byte	0x4
 810 0301 05030000 		.4byte	0x305
 811 0305 0C       		.uleb128 0xc
 812 0306 10030000 		.4byte	0x310
 813 030a 0D       		.uleb128 0xd
 814 030b 10030000 		.4byte	0x310
 815 030f 00       		.byte	0
 816 0310 0E       		.uleb128 0xe
 817 0311 04       		.byte	0x4
 818 0312 04       		.uleb128 0x4
 819 0313 C9030000 		.4byte	.LASF59
 820 0317 07       		.byte	0x7
 821 0318 61       		.byte	0x61
 822 0319 1D030000 		.4byte	0x31d
 823 031d 0B       		.uleb128 0xb
 824 031e 6D050000 		.4byte	.LASF60
 825 0322 14       		.byte	0x14
 826 0323 08       		.byte	0x8
 827 0324 6B01     		.2byte	0x16b
 828 0326 6C030000 		.4byte	0x36c
 829 032a 09       		.uleb128 0x9
 830 032b EC020000 		.4byte	.LASF61
 831 032f 08       		.byte	0x8
 832 0330 6C01     		.2byte	0x16c
 833 0332 1A090000 		.4byte	0x91a
 834 0336 00       		.byte	0
 835 0337 09       		.uleb128 0x9
 836 0338 9A020000 		.4byte	.LASF62
 837 033c 08       		.byte	0x8
 838 033d 6D01     		.2byte	0x16d
 839 033f 1A090000 		.4byte	0x91a
 840 0343 04       		.byte	0x4
 841 0344 09       		.uleb128 0x9
 842 0345 C1050000 		.4byte	.LASF63
 843 0349 08       		.byte	0x8
 844 034a 6E01     		.2byte	0x16e
 845 034c 25010000 		.4byte	0x125
 846 0350 08       		.byte	0x8
 847 0351 09       		.uleb128 0x9
 848 0352 CA070000 		.4byte	.LASF64
 849 0356 08       		.byte	0x8
 850 0357 6F01     		.2byte	0x16f
 851 0359 F4020000 		.4byte	0x2f4
 852 035d 0C       		.byte	0xc
 853 035e 09       		.uleb128 0x9
 854 035f 3E070000 		.4byte	.LASF65
 855 0363 08       		.byte	0x8
 856 0364 7101     		.2byte	0x171
 857 0366 10030000 		.4byte	0x310
 858 036a 10       		.byte	0x10
 859 036b 00       		.byte	0
 860 036c 04       		.uleb128 0x4
 861 036d 69010000 		.4byte	.LASF66
 862 0371 07       		.byte	0x7
ARM GAS  /var/folders/c6/c789hm653lg9vtl73krp73tm0000gn/T//ccMOx09Q.s 			page 31


 863 0372 66       		.byte	0x66
 864 0373 77030000 		.4byte	0x377
 865 0377 0B       		.uleb128 0xb
 866 0378 FF030000 		.4byte	.LASF67
 867 037c 10       		.byte	0x10
 868 037d 08       		.byte	0x8
 869 037e 7B01     		.2byte	0x17b
 870 0380 B9030000 		.4byte	0x3b9
 871 0384 09       		.uleb128 0x9
 872 0385 EC020000 		.4byte	.LASF61
 873 0389 08       		.byte	0x8
 874 038a 7C01     		.2byte	0x17c
 875 038c 1A090000 		.4byte	0x91a
 876 0390 00       		.byte	0
 877 0391 09       		.uleb128 0x9
 878 0392 9A020000 		.4byte	.LASF62
 879 0396 08       		.byte	0x8
 880 0397 7E01     		.2byte	0x17e
 881 0399 1A090000 		.4byte	0x91a
 882 039d 04       		.byte	0x4
 883 039e 09       		.uleb128 0x9
 884 039f C1050000 		.4byte	.LASF63
 885 03a3 08       		.byte	0x8
 886 03a4 8001     		.2byte	0x180
 887 03a6 25010000 		.4byte	0x125
 888 03aa 08       		.byte	0x8
 889 03ab 09       		.uleb128 0x9
 890 03ac 30040000 		.4byte	.LASF68
 891 03b0 08       		.byte	0x8
 892 03b1 8801     		.2byte	0x188
 893 03b3 25010000 		.4byte	0x125
 894 03b7 0C       		.byte	0xc
 895 03b8 00       		.byte	0
 896 03b9 04       		.uleb128 0x4
 897 03ba 1E010000 		.4byte	.LASF69
 898 03be 07       		.byte	0x7
 899 03bf 6B       		.byte	0x6b
 900 03c0 C4030000 		.4byte	0x3c4
 901 03c4 0B       		.uleb128 0xb
 902 03c5 F0040000 		.4byte	.LASF70
 903 03c9 04       		.byte	0x4
 904 03ca 08       		.byte	0x8
 905 03cb A201     		.2byte	0x1a2
 906 03cd DF030000 		.4byte	0x3df
 907 03d1 09       		.uleb128 0x9
 908 03d2 DD060000 		.4byte	.LASF71
 909 03d6 08       		.byte	0x8
 910 03d7 AA01     		.2byte	0x1aa
 911 03d9 20090000 		.4byte	0x920
 912 03dd 00       		.byte	0
 913 03de 00       		.byte	0
 914 03df 04       		.uleb128 0x4
 915 03e0 17070000 		.4byte	.LASF72
 916 03e4 07       		.byte	0x7
 917 03e5 70       		.byte	0x70
 918 03e6 EA030000 		.4byte	0x3ea
 919 03ea 0F       		.uleb128 0xf
ARM GAS  /var/folders/c6/c789hm653lg9vtl73krp73tm0000gn/T//ccMOx09Q.s 			page 32


 920 03eb 1C020000 		.4byte	.LASF73
 921 03ef 5001     		.2byte	0x150
 922 03f1 08       		.byte	0x8
 923 03f2 C201     		.2byte	0x1c2
 924 03f4 46040000 		.4byte	0x446
 925 03f8 09       		.uleb128 0x9
 926 03f9 73070000 		.4byte	.LASF74
 927 03fd 08       		.byte	0x8
 928 03fe C601     		.2byte	0x1c6
 929 0400 8D020000 		.4byte	0x28d
 930 0404 00       		.byte	0
 931 0405 09       		.uleb128 0x9
 932 0406 A2020000 		.4byte	.LASF75
 933 040a 08       		.byte	0x8
 934 040b CA01     		.2byte	0x1ca
 935 040d 6C030000 		.4byte	0x36c
 936 0411 1C       		.byte	0x1c
 937 0412 08       		.uleb128 0x8
 938 0413 64626700 		.ascii	"dbg\000"
 939 0417 08       		.byte	0x8
 940 0418 CE01     		.2byte	0x1ce
 941 041a B9030000 		.4byte	0x3b9
 942 041e 2C       		.byte	0x2c
 943 041f 09       		.uleb128 0x9
 944 0420 5E010000 		.4byte	.LASF76
 945 0424 08       		.byte	0x8
 946 0425 D201     		.2byte	0x1d2
 947 0427 30010000 		.4byte	0x130
 948 042b 30       		.byte	0x30
 949 042c 08       		.uleb128 0x8
 950 042d 746D00   		.ascii	"tm\000"
 951 0430 08       		.byte	0x8
 952 0431 D701     		.2byte	0x1d7
 953 0433 38080000 		.4byte	0x838
 954 0437 74       		.byte	0x74
 955 0438 09       		.uleb128 0x9
 956 0439 CA020000 		.4byte	.LASF77
 957 043d 08       		.byte	0x8
 958 043e E301     		.2byte	0x1e3
 959 0440 25090000 		.4byte	0x925
 960 0444 78       		.byte	0x78
 961 0445 00       		.byte	0
 962 0446 03       		.uleb128 0x3
 963 0447 04       		.byte	0x4
 964 0448 07       		.byte	0x7
 965 0449 E3030000 		.4byte	.LASF78
 966 044d 10       		.uleb128 0x10
 967 044e AD000000 		.4byte	0xad
 968 0452 5D040000 		.4byte	0x45d
 969 0456 11       		.uleb128 0x11
 970 0457 46040000 		.4byte	0x446
 971 045b 01       		.byte	0x1
 972 045c 00       		.byte	0
 973 045d 10       		.uleb128 0x10
 974 045e AD000000 		.4byte	0xad
 975 0462 6D040000 		.4byte	0x46d
 976 0466 11       		.uleb128 0x11
ARM GAS  /var/folders/c6/c789hm653lg9vtl73krp73tm0000gn/T//ccMOx09Q.s 			page 33


 977 0467 46040000 		.4byte	0x446
 978 046b 03       		.byte	0x3
 979 046c 00       		.byte	0
 980 046d 12       		.uleb128 0x12
 981 046e 10       		.byte	0x10
 982 046f 09       		.byte	0x9
 983 0470 4C01     		.2byte	0x14c
 984 0472 AA040000 		.4byte	0x4aa
 985 0476 09       		.uleb128 0x9
 986 0477 4E010000 		.4byte	.LASF79
 987 047b 09       		.byte	0x9
 988 047c 4E01     		.2byte	0x14e
 989 047e C8000000 		.4byte	0xc8
 990 0482 00       		.byte	0
 991 0483 08       		.uleb128 0x8
 992 0484 435200   		.ascii	"CR\000"
 993 0487 09       		.byte	0x9
 994 0488 4F01     		.2byte	0x14f
 995 048a C8000000 		.4byte	0xc8
 996 048e 04       		.byte	0x4
 997 048f 09       		.uleb128 0x9
 998 0490 83040000 		.4byte	.LASF80
 999 0494 09       		.byte	0x9
 1000 0495 5001     		.2byte	0x150
 1001 0497 C8000000 		.4byte	0xc8
 1002 049b 08       		.byte	0x8
 1003 049c 09       		.uleb128 0x9
 1004 049d 4C030000 		.4byte	.LASF81
 1005 04a1 09       		.byte	0x9
 1006 04a2 5101     		.2byte	0x151
 1007 04a4 C8000000 		.4byte	0xc8
 1008 04a8 0C       		.byte	0xc
 1009 04a9 00       		.byte	0
 1010 04aa 13       		.uleb128 0x13
 1011 04ab 90050000 		.4byte	.LASF82
 1012 04af 09       		.byte	0x9
 1013 04b0 5201     		.2byte	0x152
 1014 04b2 6D040000 		.4byte	0x46d
 1015 04b6 12       		.uleb128 0x12
 1016 04b7 88       		.byte	0x88
 1017 04b8 09       		.byte	0x9
 1018 04b9 6702     		.2byte	0x267
 1019 04bb 45060000 		.4byte	0x645
 1020 04bf 08       		.uleb128 0x8
 1021 04c0 435200   		.ascii	"CR\000"
 1022 04c3 09       		.byte	0x9
 1023 04c4 6902     		.2byte	0x269
 1024 04c6 C8000000 		.4byte	0xc8
 1025 04ca 00       		.byte	0
 1026 04cb 09       		.uleb128 0x9
 1027 04cc 66020000 		.4byte	.LASF83
 1028 04d0 09       		.byte	0x9
 1029 04d1 6A02     		.2byte	0x26a
 1030 04d3 C8000000 		.4byte	0xc8
 1031 04d7 04       		.byte	0x4
 1032 04d8 09       		.uleb128 0x9
 1033 04d9 A1070000 		.4byte	.LASF84
ARM GAS  /var/folders/c6/c789hm653lg9vtl73krp73tm0000gn/T//ccMOx09Q.s 			page 34


 1034 04dd 09       		.byte	0x9
 1035 04de 6B02     		.2byte	0x26b
 1036 04e0 C8000000 		.4byte	0xc8
 1037 04e4 08       		.byte	0x8
 1038 04e5 08       		.uleb128 0x8
 1039 04e6 43495200 		.ascii	"CIR\000"
 1040 04ea 09       		.byte	0x9
 1041 04eb 6C02     		.2byte	0x26c
 1042 04ed C8000000 		.4byte	0xc8
 1043 04f1 0C       		.byte	0xc
 1044 04f2 09       		.uleb128 0x9
 1045 04f3 F6010000 		.4byte	.LASF85
 1046 04f7 09       		.byte	0x9
 1047 04f8 6D02     		.2byte	0x26d
 1048 04fa C8000000 		.4byte	0xc8
 1049 04fe 10       		.byte	0x10
 1050 04ff 09       		.uleb128 0x9
 1051 0500 70060000 		.4byte	.LASF86
 1052 0504 09       		.byte	0x9
 1053 0505 6E02     		.2byte	0x26e
 1054 0507 C8000000 		.4byte	0xc8
 1055 050b 14       		.byte	0x14
 1056 050c 09       		.uleb128 0x9
 1057 050d 38030000 		.4byte	.LASF87
 1058 0511 09       		.byte	0x9
 1059 0512 6F02     		.2byte	0x26f
 1060 0514 C8000000 		.4byte	0xc8
 1061 0518 18       		.byte	0x18
 1062 0519 09       		.uleb128 0x9
 1063 051a 92040000 		.4byte	.LASF88
 1064 051e 09       		.byte	0x9
 1065 051f 7002     		.2byte	0x270
 1066 0521 AD000000 		.4byte	0xad
 1067 0525 1C       		.byte	0x1c
 1068 0526 09       		.uleb128 0x9
 1069 0527 6F040000 		.4byte	.LASF89
 1070 052b 09       		.byte	0x9
 1071 052c 7102     		.2byte	0x271
 1072 052e C8000000 		.4byte	0xc8
 1073 0532 20       		.byte	0x20
 1074 0533 09       		.uleb128 0x9
 1075 0534 2F020000 		.4byte	.LASF90
 1076 0538 09       		.byte	0x9
 1077 0539 7202     		.2byte	0x272
 1078 053b C8000000 		.4byte	0xc8
 1079 053f 24       		.byte	0x24
 1080 0540 09       		.uleb128 0x9
 1081 0541 9C040000 		.4byte	.LASF91
 1082 0545 09       		.byte	0x9
 1083 0546 7302     		.2byte	0x273
 1084 0548 4D040000 		.4byte	0x44d
 1085 054c 28       		.byte	0x28
 1086 054d 09       		.uleb128 0x9
 1087 054e 99070000 		.4byte	.LASF92
 1088 0552 09       		.byte	0x9
 1089 0553 7402     		.2byte	0x274
 1090 0555 C8000000 		.4byte	0xc8
ARM GAS  /var/folders/c6/c789hm653lg9vtl73krp73tm0000gn/T//ccMOx09Q.s 			page 35


 1091 0559 30       		.byte	0x30
 1092 055a 09       		.uleb128 0x9
 1093 055b FF060000 		.4byte	.LASF93
 1094 055f 09       		.byte	0x9
 1095 0560 7502     		.2byte	0x275
 1096 0562 C8000000 		.4byte	0xc8
 1097 0566 34       		.byte	0x34
 1098 0567 09       		.uleb128 0x9
 1099 0568 28040000 		.4byte	.LASF94
 1100 056c 09       		.byte	0x9
 1101 056d 7602     		.2byte	0x276
 1102 056f C8000000 		.4byte	0xc8
 1103 0573 38       		.byte	0x38
 1104 0574 09       		.uleb128 0x9
 1105 0575 A6040000 		.4byte	.LASF95
 1106 0579 09       		.byte	0x9
 1107 057a 7702     		.2byte	0x277
 1108 057c AD000000 		.4byte	0xad
 1109 0580 3C       		.byte	0x3c
 1110 0581 09       		.uleb128 0x9
 1111 0582 EE060000 		.4byte	.LASF96
 1112 0586 09       		.byte	0x9
 1113 0587 7802     		.2byte	0x278
 1114 0589 C8000000 		.4byte	0xc8
 1115 058d 40       		.byte	0x40
 1116 058e 09       		.uleb128 0x9
 1117 058f 65050000 		.4byte	.LASF97
 1118 0593 09       		.byte	0x9
 1119 0594 7902     		.2byte	0x279
 1120 0596 C8000000 		.4byte	0xc8
 1121 059a 44       		.byte	0x44
 1122 059b 09       		.uleb128 0x9
 1123 059c B0040000 		.4byte	.LASF98
 1124 05a0 09       		.byte	0x9
 1125 05a1 7A02     		.2byte	0x27a
 1126 05a3 4D040000 		.4byte	0x44d
 1127 05a7 48       		.byte	0x48
 1128 05a8 09       		.uleb128 0x9
 1129 05a9 B6010000 		.4byte	.LASF99
 1130 05ad 09       		.byte	0x9
 1131 05ae 7B02     		.2byte	0x27b
 1132 05b0 C8000000 		.4byte	0xc8
 1133 05b4 50       		.byte	0x50
 1134 05b5 09       		.uleb128 0x9
 1135 05b6 4A040000 		.4byte	.LASF100
 1136 05ba 09       		.byte	0x9
 1137 05bb 7C02     		.2byte	0x27c
 1138 05bd C8000000 		.4byte	0xc8
 1139 05c1 54       		.byte	0x54
 1140 05c2 09       		.uleb128 0x9
 1141 05c3 45050000 		.4byte	.LASF101
 1142 05c7 09       		.byte	0x9
 1143 05c8 7D02     		.2byte	0x27d
 1144 05ca C8000000 		.4byte	0xc8
 1145 05ce 58       		.byte	0x58
 1146 05cf 09       		.uleb128 0x9
 1147 05d0 BA040000 		.4byte	.LASF102
ARM GAS  /var/folders/c6/c789hm653lg9vtl73krp73tm0000gn/T//ccMOx09Q.s 			page 36


 1148 05d4 09       		.byte	0x9
 1149 05d5 7E02     		.2byte	0x27e
 1150 05d7 AD000000 		.4byte	0xad
 1151 05db 5C       		.byte	0x5c
 1152 05dc 09       		.uleb128 0x9
 1153 05dd 38020000 		.4byte	.LASF103
 1154 05e1 09       		.byte	0x9
 1155 05e2 7F02     		.2byte	0x27f
 1156 05e4 C8000000 		.4byte	0xc8
 1157 05e8 60       		.byte	0x60
 1158 05e9 09       		.uleb128 0x9
 1159 05ea 6D030000 		.4byte	.LASF104
 1160 05ee 09       		.byte	0x9
 1161 05ef 8002     		.2byte	0x280
 1162 05f1 C8000000 		.4byte	0xc8
 1163 05f5 64       		.byte	0x64
 1164 05f6 09       		.uleb128 0x9
 1165 05f7 9F050000 		.4byte	.LASF105
 1166 05fb 09       		.byte	0x9
 1167 05fc 8102     		.2byte	0x281
 1168 05fe 4D040000 		.4byte	0x44d
 1169 0602 68       		.byte	0x68
 1170 0603 09       		.uleb128 0x9
 1171 0604 6E070000 		.4byte	.LASF106
 1172 0608 09       		.byte	0x9
 1173 0609 8202     		.2byte	0x282
 1174 060b C8000000 		.4byte	0xc8
 1175 060f 70       		.byte	0x70
 1176 0610 08       		.uleb128 0x8
 1177 0611 43535200 		.ascii	"CSR\000"
 1178 0615 09       		.byte	0x9
 1179 0616 8302     		.2byte	0x283
 1180 0618 C8000000 		.4byte	0xc8
 1181 061c 74       		.byte	0x74
 1182 061d 09       		.uleb128 0x9
 1183 061e CB040000 		.4byte	.LASF107
 1184 0622 09       		.byte	0x9
 1185 0623 8402     		.2byte	0x284
 1186 0625 4D040000 		.4byte	0x44d
 1187 0629 78       		.byte	0x78
 1188 062a 09       		.uleb128 0x9
 1189 062b 45070000 		.4byte	.LASF108
 1190 062f 09       		.byte	0x9
 1191 0630 8502     		.2byte	0x285
 1192 0632 C8000000 		.4byte	0xc8
 1193 0636 80       		.byte	0x80
 1194 0637 09       		.uleb128 0x9
 1195 0638 27030000 		.4byte	.LASF109
 1196 063c 09       		.byte	0x9
 1197 063d 8602     		.2byte	0x286
 1198 063f C8000000 		.4byte	0xc8
 1199 0643 84       		.byte	0x84
 1200 0644 00       		.byte	0
 1201 0645 13       		.uleb128 0x13
 1202 0646 06030000 		.4byte	.LASF110
 1203 064a 09       		.byte	0x9
 1204 064b 8802     		.2byte	0x288
ARM GAS  /var/folders/c6/c789hm653lg9vtl73krp73tm0000gn/T//ccMOx09Q.s 			page 37


 1205 064d B6040000 		.4byte	0x4b6
 1206 0651 04       		.uleb128 0x4
 1207 0652 91020000 		.4byte	.LASF111
 1208 0656 0A       		.byte	0xa
 1209 0657 65       		.byte	0x65
 1210 0658 10030000 		.4byte	0x310
 1211 065c 04       		.uleb128 0x4
 1212 065d 9B030000 		.4byte	.LASF112
 1213 0661 0A       		.byte	0xa
 1214 0662 6D       		.byte	0x6d
 1215 0663 B8000000 		.4byte	0xb8
 1216 0667 06       		.uleb128 0x6
 1217 0668 07070000 		.4byte	.LASF113
 1218 066c 04       		.byte	0x4
 1219 066d 0A       		.byte	0xa
 1220 066e 89       		.byte	0x89
 1221 066f 80060000 		.4byte	0x680
 1222 0673 14       		.uleb128 0x14
 1223 0674 72313300 		.ascii	"r13\000"
 1224 0678 0A       		.byte	0xa
 1225 0679 8A       		.byte	0x8a
 1226 067a FB060000 		.4byte	0x6fb
 1227 067e 00       		.byte	0
 1228 067f 00       		.byte	0
 1229 0680 06       		.uleb128 0x6
 1230 0681 12010000 		.4byte	.LASF114
 1231 0685 24       		.byte	0x24
 1232 0686 0B       		.byte	0xb
 1233 0687 F4       		.byte	0xf4
 1234 0688 FB060000 		.4byte	0x6fb
 1235 068c 08       		.uleb128 0x8
 1236 068d 723400   		.ascii	"r4\000"
 1237 0690 0B       		.byte	0xb
 1238 0691 0701     		.2byte	0x107
 1239 0693 51060000 		.4byte	0x651
 1240 0697 00       		.byte	0
 1241 0698 08       		.uleb128 0x8
 1242 0699 723500   		.ascii	"r5\000"
 1243 069c 0B       		.byte	0xb
 1244 069d 0801     		.2byte	0x108
 1245 069f 51060000 		.4byte	0x651
 1246 06a3 04       		.byte	0x4
 1247 06a4 08       		.uleb128 0x8
 1248 06a5 723600   		.ascii	"r6\000"
 1249 06a8 0B       		.byte	0xb
 1250 06a9 0901     		.2byte	0x109
 1251 06ab 51060000 		.4byte	0x651
 1252 06af 08       		.byte	0x8
 1253 06b0 08       		.uleb128 0x8
 1254 06b1 723700   		.ascii	"r7\000"
 1255 06b4 0B       		.byte	0xb
 1256 06b5 0A01     		.2byte	0x10a
 1257 06b7 51060000 		.4byte	0x651
 1258 06bb 0C       		.byte	0xc
 1259 06bc 08       		.uleb128 0x8
 1260 06bd 723800   		.ascii	"r8\000"
 1261 06c0 0B       		.byte	0xb
ARM GAS  /var/folders/c6/c789hm653lg9vtl73krp73tm0000gn/T//ccMOx09Q.s 			page 38


 1262 06c1 0B01     		.2byte	0x10b
 1263 06c3 51060000 		.4byte	0x651
 1264 06c7 10       		.byte	0x10
 1265 06c8 08       		.uleb128 0x8
 1266 06c9 723900   		.ascii	"r9\000"
 1267 06cc 0B       		.byte	0xb
 1268 06cd 0C01     		.2byte	0x10c
 1269 06cf 51060000 		.4byte	0x651
 1270 06d3 14       		.byte	0x14
 1271 06d4 08       		.uleb128 0x8
 1272 06d5 72313000 		.ascii	"r10\000"
 1273 06d9 0B       		.byte	0xb
 1274 06da 0D01     		.2byte	0x10d
 1275 06dc 51060000 		.4byte	0x651
 1276 06e0 18       		.byte	0x18
 1277 06e1 08       		.uleb128 0x8
 1278 06e2 72313100 		.ascii	"r11\000"
 1279 06e6 0B       		.byte	0xb
 1280 06e7 0E01     		.2byte	0x10e
 1281 06e9 51060000 		.4byte	0x651
 1282 06ed 1C       		.byte	0x1c
 1283 06ee 08       		.uleb128 0x8
 1284 06ef 6C7200   		.ascii	"lr\000"
 1285 06f2 0B       		.byte	0xb
 1286 06f3 0F01     		.2byte	0x10f
 1287 06f5 51060000 		.4byte	0x651
 1288 06f9 20       		.byte	0x20
 1289 06fa 00       		.byte	0
 1290 06fb 0A       		.uleb128 0xa
 1291 06fc 04       		.byte	0x4
 1292 06fd 80060000 		.4byte	0x680
 1293 0701 12       		.uleb128 0x12
 1294 0702 60       		.byte	0x60
 1295 0703 0C       		.byte	0xc
 1296 0704 9E01     		.2byte	0x19e
 1297 0706 0D080000 		.4byte	0x80d
 1298 070a 08       		.uleb128 0x8
 1299 070b 43523100 		.ascii	"CR1\000"
 1300 070f 0C       		.byte	0xc
 1301 0710 9F01     		.2byte	0x19f
 1302 0712 C8000000 		.4byte	0xc8
 1303 0716 00       		.byte	0
 1304 0717 08       		.uleb128 0x8
 1305 0718 43523200 		.ascii	"CR2\000"
 1306 071c 0C       		.byte	0xc
 1307 071d A001     		.2byte	0x1a0
 1308 071f C8000000 		.4byte	0xc8
 1309 0723 04       		.byte	0x4
 1310 0724 09       		.uleb128 0x9
 1311 0725 18030000 		.4byte	.LASF115
 1312 0729 0C       		.byte	0xc
 1313 072a A101     		.2byte	0x1a1
 1314 072c C8000000 		.4byte	0xc8
 1315 0730 08       		.byte	0x8
 1316 0731 09       		.uleb128 0x9
 1317 0732 ED000000 		.4byte	.LASF116
 1318 0736 0C       		.byte	0xc
ARM GAS  /var/folders/c6/c789hm653lg9vtl73krp73tm0000gn/T//ccMOx09Q.s 			page 39


 1319 0737 A201     		.2byte	0x1a2
 1320 0739 C8000000 		.4byte	0xc8
 1321 073d 0C       		.byte	0xc
 1322 073e 08       		.uleb128 0x8
 1323 073f 535200   		.ascii	"SR\000"
 1324 0742 0C       		.byte	0xc
 1325 0743 A301     		.2byte	0x1a3
 1326 0745 C8000000 		.4byte	0xc8
 1327 0749 10       		.byte	0x10
 1328 074a 08       		.uleb128 0x8
 1329 074b 45475200 		.ascii	"EGR\000"
 1330 074f 0C       		.byte	0xc
 1331 0750 A401     		.2byte	0x1a4
 1332 0752 C8000000 		.4byte	0xc8
 1333 0756 14       		.byte	0x14
 1334 0757 09       		.uleb128 0x9
 1335 0758 D8010000 		.4byte	.LASF117
 1336 075c 0C       		.byte	0xc
 1337 075d A501     		.2byte	0x1a5
 1338 075f C8000000 		.4byte	0xc8
 1339 0763 18       		.byte	0x18
 1340 0764 09       		.uleb128 0x9
 1341 0765 DE010000 		.4byte	.LASF118
 1342 0769 0C       		.byte	0xc
 1343 076a A601     		.2byte	0x1a6
 1344 076c C8000000 		.4byte	0xc8
 1345 0770 1C       		.byte	0x1c
 1346 0771 09       		.uleb128 0x9
 1347 0772 4B020000 		.4byte	.LASF119
 1348 0776 0C       		.byte	0xc
 1349 0777 A701     		.2byte	0x1a7
 1350 0779 C8000000 		.4byte	0xc8
 1351 077d 20       		.byte	0x20
 1352 077e 08       		.uleb128 0x8
 1353 077f 434E5400 		.ascii	"CNT\000"
 1354 0783 0C       		.byte	0xc
 1355 0784 A801     		.2byte	0x1a8
 1356 0786 C8000000 		.4byte	0xc8
 1357 078a 24       		.byte	0x24
 1358 078b 08       		.uleb128 0x8
 1359 078c 50534300 		.ascii	"PSC\000"
 1360 0790 0C       		.byte	0xc
 1361 0791 A901     		.2byte	0x1a9
 1362 0793 C8000000 		.4byte	0xc8
 1363 0797 28       		.byte	0x28
 1364 0798 08       		.uleb128 0x8
 1365 0799 41525200 		.ascii	"ARR\000"
 1366 079d 0C       		.byte	0xc
 1367 079e AA01     		.2byte	0x1aa
 1368 07a0 C8000000 		.4byte	0xc8
 1369 07a4 2C       		.byte	0x2c
 1370 07a5 08       		.uleb128 0x8
 1371 07a6 52435200 		.ascii	"RCR\000"
 1372 07aa 0C       		.byte	0xc
 1373 07ab AB01     		.2byte	0x1ab
 1374 07ad C8000000 		.4byte	0xc8
 1375 07b1 30       		.byte	0x30
ARM GAS  /var/folders/c6/c789hm653lg9vtl73krp73tm0000gn/T//ccMOx09Q.s 			page 40


 1376 07b2 08       		.uleb128 0x8
 1377 07b3 43435200 		.ascii	"CCR\000"
 1378 07b7 0C       		.byte	0xc
 1379 07b8 AC01     		.2byte	0x1ac
 1380 07ba 0D080000 		.4byte	0x80d
 1381 07be 34       		.byte	0x34
 1382 07bf 09       		.uleb128 0x9
 1383 07c0 A0010000 		.4byte	.LASF120
 1384 07c4 0C       		.byte	0xc
 1385 07c5 AD01     		.2byte	0x1ad
 1386 07c7 C8000000 		.4byte	0xc8
 1387 07cb 44       		.byte	0x44
 1388 07cc 08       		.uleb128 0x8
 1389 07cd 44435200 		.ascii	"DCR\000"
 1390 07d1 0C       		.byte	0xc
 1391 07d2 AE01     		.2byte	0x1ae
 1392 07d4 C8000000 		.4byte	0xc8
 1393 07d8 48       		.byte	0x48
 1394 07d9 09       		.uleb128 0x9
 1395 07da 6B060000 		.4byte	.LASF121
 1396 07de 0C       		.byte	0xc
 1397 07df AF01     		.2byte	0x1af
 1398 07e1 C8000000 		.4byte	0xc8
 1399 07e5 4C       		.byte	0x4c
 1400 07e6 08       		.uleb128 0x8
 1401 07e7 4F5200   		.ascii	"OR\000"
 1402 07ea 0C       		.byte	0xc
 1403 07eb B001     		.2byte	0x1b0
 1404 07ed C8000000 		.4byte	0xc8
 1405 07f1 50       		.byte	0x50
 1406 07f2 09       		.uleb128 0x9
 1407 07f3 E4010000 		.4byte	.LASF122
 1408 07f7 0C       		.byte	0xc
 1409 07f8 B101     		.2byte	0x1b1
 1410 07fa C8000000 		.4byte	0xc8
 1411 07fe 54       		.byte	0x54
 1412 07ff 09       		.uleb128 0x9
 1413 0800 8B050000 		.4byte	.LASF123
 1414 0804 0C       		.byte	0xc
 1415 0805 B201     		.2byte	0x1b2
 1416 0807 12080000 		.4byte	0x812
 1417 080b 58       		.byte	0x58
 1418 080c 00       		.byte	0
 1419 080d 05       		.uleb128 0x5
 1420 080e 5D040000 		.4byte	0x45d
 1421 0812 05       		.uleb128 0x5
 1422 0813 4D040000 		.4byte	0x44d
 1423 0817 13       		.uleb128 0x13
 1424 0818 5B070000 		.4byte	.LASF124
 1425 081c 0C       		.byte	0xc
 1426 081d B301     		.2byte	0x1b3
 1427 081f 01070000 		.4byte	0x701
 1428 0823 15       		.uleb128 0x15
 1429 0824 04       		.byte	0x4
 1430 0825 0D       		.byte	0xd
 1431 0826 38       		.byte	0x38
 1432 0827 38080000 		.4byte	0x838
ARM GAS  /var/folders/c6/c789hm653lg9vtl73krp73tm0000gn/T//ccMOx09Q.s 			page 41


 1433 082b 07       		.uleb128 0x7
 1434 082c E7060000 		.4byte	.LASF125
 1435 0830 0D       		.byte	0xd
 1436 0831 3C       		.byte	0x3c
 1437 0832 CD000000 		.4byte	0xcd
 1438 0836 00       		.byte	0
 1439 0837 00       		.byte	0
 1440 0838 04       		.uleb128 0x4
 1441 0839 54040000 		.4byte	.LASF126
 1442 083d 0D       		.byte	0xd
 1443 083e 3D       		.byte	0x3d
 1444 083f 23080000 		.4byte	0x823
 1445 0843 16       		.uleb128 0x16
 1446 0844 04       		.byte	0x4
 1447 0845 08       		.byte	0x8
 1448 0846 FA       		.byte	0xfa
 1449 0847 A0080000 		.4byte	0x8a0
 1450 084b 17       		.uleb128 0x17
 1451 084c F8000000 		.4byte	.LASF127
 1452 0850 08       		.byte	0x8
 1453 0851 0101     		.2byte	0x101
 1454 0853 04010000 		.4byte	0x104
 1455 0857 17       		.uleb128 0x17
 1456 0858 55010000 		.4byte	.LASF128
 1457 085c 08       		.byte	0x8
 1458 085d 0801     		.2byte	0x108
 1459 085f 04010000 		.4byte	0x104
 1460 0863 17       		.uleb128 0x17
 1461 0864 66030000 		.4byte	.LASF129
 1462 0868 08       		.byte	0x8
 1463 0869 0F01     		.2byte	0x10f
 1464 086b 10030000 		.4byte	0x310
 1465 086f 17       		.uleb128 0x17
 1466 0870 F2000000 		.4byte	.LASF130
 1467 0874 08       		.byte	0x8
 1468 0875 1601     		.2byte	0x116
 1469 0877 A0080000 		.4byte	0x8a0
 1470 087b 17       		.uleb128 0x17
 1471 087c F4020000 		.4byte	.LASF131
 1472 0880 08       		.byte	0x8
 1473 0881 1E01     		.2byte	0x11e
 1474 0883 CB080000 		.4byte	0x8cb
 1475 0887 17       		.uleb128 0x17
 1476 0888 B2050000 		.4byte	.LASF132
 1477 088c 08       		.byte	0x8
 1478 088d 2701     		.2byte	0x127
 1479 088f 02090000 		.4byte	0x902
 1480 0893 17       		.uleb128 0x17
 1481 0894 56050000 		.4byte	.LASF133
 1482 0898 08       		.byte	0x8
 1483 0899 2F01     		.2byte	0x12f
 1484 089b 0F010000 		.4byte	0x10f
 1485 089f 00       		.byte	0
 1486 08a0 0A       		.uleb128 0xa
 1487 08a1 04       		.byte	0x4
 1488 08a2 28020000 		.4byte	0x228
 1489 08a6 06       		.uleb128 0x6
ARM GAS  /var/folders/c6/c789hm653lg9vtl73krp73tm0000gn/T//ccMOx09Q.s 			page 42


 1490 08a7 7E050000 		.4byte	.LASF134
 1491 08ab 0C       		.byte	0xc
 1492 08ac 0E       		.byte	0xe
 1493 08ad 34       		.byte	0x34
 1494 08ae CB080000 		.4byte	0x8cb
 1495 08b2 07       		.uleb128 0x7
 1496 08b3 AE070000 		.4byte	.LASF135
 1497 08b7 0E       		.byte	0xe
 1498 08b8 35       		.byte	0x35
 1499 08b9 5D020000 		.4byte	0x25d
 1500 08bd 00       		.byte	0
 1501 08be 07       		.uleb128 0x7
 1502 08bf 12030000 		.4byte	.LASF136
 1503 08c3 0E       		.byte	0xe
 1504 08c4 37       		.byte	0x37
 1505 08c5 1A010000 		.4byte	0x11a
 1506 08c9 08       		.byte	0x8
 1507 08ca 00       		.byte	0
 1508 08cb 0A       		.uleb128 0xa
 1509 08cc 04       		.byte	0x4
 1510 08cd A6080000 		.4byte	0x8a6
 1511 08d1 06       		.uleb128 0x6
 1512 08d2 F6060000 		.4byte	.LASF137
 1513 08d6 10       		.byte	0x10
 1514 08d7 0F       		.byte	0xf
 1515 08d8 39       		.byte	0x39
 1516 08d9 02090000 		.4byte	0x902
 1517 08dd 07       		.uleb128 0x7
 1518 08de FF010000 		.4byte	.LASF138
 1519 08e2 0F       		.byte	0xf
 1520 08e3 3A       		.byte	0x3a
 1521 08e4 5D020000 		.4byte	0x25d
 1522 08e8 00       		.byte	0
 1523 08e9 07       		.uleb128 0x7
 1524 08ea BC070000 		.4byte	.LASF139
 1525 08ee 0F       		.byte	0xf
 1526 08ef 3C       		.byte	0x3c
 1527 08f0 33020000 		.4byte	0x233
 1528 08f4 08       		.byte	0x8
 1529 08f5 07       		.uleb128 0x7
 1530 08f6 97060000 		.4byte	.LASF140
 1531 08fa 0F       		.byte	0xf
 1532 08fb 3E       		.byte	0x3e
 1533 08fc 40090000 		.4byte	0x940
 1534 0900 0C       		.byte	0xc
 1535 0901 00       		.byte	0
 1536 0902 0A       		.uleb128 0xa
 1537 0903 04       		.byte	0x4
 1538 0904 D1080000 		.4byte	0x8d1
 1539 0908 0A       		.uleb128 0xa
 1540 0909 04       		.byte	0x4
 1541 090a 0E090000 		.4byte	0x90e
 1542 090e 18       		.uleb128 0x18
 1543 090f 13090000 		.4byte	0x913
 1544 0913 03       		.uleb128 0x3
 1545 0914 01       		.byte	0x1
 1546 0915 08       		.byte	0x8
ARM GAS  /var/folders/c6/c789hm653lg9vtl73krp73tm0000gn/T//ccMOx09Q.s 			page 43


 1547 0916 37060000 		.4byte	.LASF141
 1548 091a 0A       		.uleb128 0xa
 1549 091b 04       		.byte	0x4
 1550 091c 12030000 		.4byte	0x312
 1551 0920 05       		.uleb128 0x5
 1552 0921 08090000 		.4byte	0x908
 1553 0925 10       		.uleb128 0x10
 1554 0926 5C060000 		.4byte	0x65c
 1555 092a 35090000 		.4byte	0x935
 1556 092e 11       		.uleb128 0x11
 1557 092f 46040000 		.4byte	0x446
 1558 0933 1A       		.byte	0x1a
 1559 0934 00       		.byte	0
 1560 0935 04       		.uleb128 0x4
 1561 0936 BC020000 		.4byte	.LASF142
 1562 093a 0F       		.byte	0xf
 1563 093b 34       		.byte	0x34
 1564 093c D1080000 		.4byte	0x8d1
 1565 0940 0A       		.uleb128 0xa
 1566 0941 04       		.byte	0x4
 1567 0942 35090000 		.4byte	0x935
 1568 0946 03       		.uleb128 0x3
 1569 0947 01       		.byte	0x1
 1570 0948 02       		.byte	0x2
 1571 0949 00050000 		.4byte	.LASF143
 1572 094d 19       		.uleb128 0x19
 1573 094e CF060000 		.4byte	.LASF161
 1574 0952 02       		.byte	0x2
 1575 0953 2002     		.2byte	0x220
 1576 0955 03       		.byte	0x3
 1577 0956 67090000 		.4byte	0x967
 1578 095a 1A       		.uleb128 0x1a
 1579 095b C4020000 		.4byte	.LASF162
 1580 095f 02       		.byte	0x2
 1581 0960 2002     		.2byte	0x220
 1582 0962 AD000000 		.4byte	0xad
 1583 0966 00       		.byte	0
 1584 0967 1B       		.uleb128 0x1b
 1585 0968 2D010000 		.4byte	.LASF144
 1586 096c 0B       		.byte	0xb
 1587 096d BC01     		.2byte	0x1bc
 1588 096f 03       		.byte	0x3
 1589 0970 1B       		.uleb128 0x1b
 1590 0971 10020000 		.4byte	.LASF145
 1591 0975 0B       		.byte	0xb
 1592 0976 CA01     		.2byte	0x1ca
 1593 0978 03       		.byte	0x3
 1594 0979 1B       		.uleb128 0x1b
 1595 097a 2B070000 		.4byte	.LASF146
 1596 097e 0B       		.byte	0xb
 1597 097f D901     		.2byte	0x1d9
 1598 0981 03       		.byte	0x3
 1599 0982 1B       		.uleb128 0x1b
 1600 0983 79060000 		.4byte	.LASF147
 1601 0987 0B       		.byte	0xb
 1602 0988 E401     		.2byte	0x1e4
 1603 098a 03       		.byte	0x3
ARM GAS  /var/folders/c6/c789hm653lg9vtl73krp73tm0000gn/T//ccMOx09Q.s 			page 44


 1604 098b 1B       		.uleb128 0x1b
 1605 098c 81070000 		.4byte	.LASF148
 1606 0990 10       		.byte	0x10
 1607 0991 8201     		.2byte	0x182
 1608 0993 03       		.byte	0x3
 1609 0994 1B       		.uleb128 0x1b
 1610 0995 DD040000 		.4byte	.LASF149
 1611 0999 10       		.byte	0x10
 1612 099a 9601     		.2byte	0x196
 1613 099c 03       		.byte	0x3
 1614 099d 1B       		.uleb128 0x1b
 1615 099e A9020000 		.4byte	.LASF150
 1616 09a2 03       		.byte	0x3
 1617 09a3 0102     		.2byte	0x201
 1618 09a5 03       		.byte	0x3
 1619 09a6 1B       		.uleb128 0x1b
 1620 09a7 A6030000 		.4byte	.LASF151
 1621 09ab 03       		.byte	0x3
 1622 09ac 4702     		.2byte	0x247
 1623 09ae 03       		.byte	0x3
 1624 09af 1B       		.uleb128 0x1b
 1625 09b0 7F010000 		.4byte	.LASF152
 1626 09b4 03       		.byte	0x3
 1627 09b5 0C02     		.2byte	0x20c
 1628 09b7 03       		.byte	0x3
 1629 09b8 1C       		.uleb128 0x1c
 1630 09b9 07020000 		.4byte	.LASF153
 1631 09bd 01       		.byte	0x1
 1632 09be AD       		.byte	0xad
 1633 09bf 00000000 		.4byte	.LFB260
 1634 09c3 26000000 		.4byte	.LFE260-.LFB260
 1635 09c7 01       		.uleb128 0x1
 1636 09c8 9C       		.byte	0x9c
 1637 09c9 B60A0000 		.4byte	0xab6
 1638 09cd 1D       		.uleb128 0x1d
 1639 09ce 9D090000 		.4byte	0x99d
 1640 09d2 10000000 		.4byte	.LBB52
 1641 09d6 06000000 		.4byte	.LBE52-.LBB52
 1642 09da 01       		.byte	0x1
 1643 09db B7       		.byte	0xb7
 1644 09dc 2E0A0000 		.4byte	0xa2e
 1645 09e0 1E       		.uleb128 0x1e
 1646 09e1 8B090000 		.4byte	0x98b
 1647 09e5 10000000 		.4byte	.LBB53
 1648 09e9 06000000 		.4byte	.LBE53-.LBB53
 1649 09ed 03       		.byte	0x3
 1650 09ee 0302     		.2byte	0x203
 1651 09f0 1E       		.uleb128 0x1e
 1652 09f1 79090000 		.4byte	0x979
 1653 09f5 10000000 		.4byte	.LBB54
 1654 09f9 06000000 		.4byte	.LBE54-.LBB54
 1655 09fd 10       		.byte	0x10
 1656 09fe 8401     		.2byte	0x184
 1657 0a00 1E       		.uleb128 0x1e
 1658 0a01 67090000 		.4byte	0x967
 1659 0a05 10000000 		.4byte	.LBB55
 1660 0a09 06000000 		.4byte	.LBE55-.LBB55
ARM GAS  /var/folders/c6/c789hm653lg9vtl73krp73tm0000gn/T//ccMOx09Q.s 			page 45


 1661 0a0d 0B       		.byte	0xb
 1662 0a0e DB01     		.2byte	0x1db
 1663 0a10 1E       		.uleb128 0x1e
 1664 0a11 4D090000 		.4byte	0x94d
 1665 0a15 10000000 		.4byte	.LBB56
 1666 0a19 06000000 		.4byte	.LBE56-.LBB56
 1667 0a1d 0B       		.byte	0xb
 1668 0a1e BF01     		.2byte	0x1bf
 1669 0a20 1F       		.uleb128 0x1f
 1670 0a21 5A090000 		.4byte	0x95a
 1671 0a25 00000000 		.4byte	.LLST0
 1672 0a29 00       		.byte	0
 1673 0a2a 00       		.byte	0
 1674 0a2b 00       		.byte	0
 1675 0a2c 00       		.byte	0
 1676 0a2d 00       		.byte	0
 1677 0a2e 1D       		.uleb128 0x1d
 1678 0a2f A6090000 		.4byte	0x9a6
 1679 0a33 16000000 		.4byte	.LBB58
 1680 0a37 04000000 		.4byte	.LBE58-.LBB58
 1681 0a3b 01       		.byte	0x1
 1682 0a3c B8       		.byte	0xb8
 1683 0a3d 4B0A0000 		.4byte	0xa4b
 1684 0a41 20       		.uleb128 0x20
 1685 0a42 1A000000 		.4byte	.LVL1
 1686 0a46 F70A0000 		.4byte	0xaf7
 1687 0a4a 00       		.byte	0
 1688 0a4b 1D       		.uleb128 0x1d
 1689 0a4c AF090000 		.4byte	0x9af
 1690 0a50 1A000000 		.4byte	.LBB60
 1691 0a54 04000000 		.4byte	.LBE60-.LBB60
 1692 0a58 01       		.byte	0x1
 1693 0a59 B9       		.byte	0xb9
 1694 0a5a AC0A0000 		.4byte	0xaac
 1695 0a5e 1E       		.uleb128 0x1e
 1696 0a5f 94090000 		.4byte	0x994
 1697 0a63 1A000000 		.4byte	.LBB61
 1698 0a67 04000000 		.4byte	.LBE61-.LBB61
 1699 0a6b 03       		.byte	0x3
 1700 0a6c 0E02     		.2byte	0x20e
 1701 0a6e 1E       		.uleb128 0x1e
 1702 0a6f 82090000 		.4byte	0x982
 1703 0a73 1A000000 		.4byte	.LBB62
 1704 0a77 04000000 		.4byte	.LBE62-.LBB62
 1705 0a7b 10       		.byte	0x10
 1706 0a7c 9A01     		.2byte	0x19a
 1707 0a7e 1E       		.uleb128 0x1e
 1708 0a7f 70090000 		.4byte	0x970
 1709 0a83 1A000000 		.4byte	.LBB63
 1710 0a87 04000000 		.4byte	.LBE63-.LBB63
 1711 0a8b 0B       		.byte	0xb
 1712 0a8c E601     		.2byte	0x1e6
 1713 0a8e 1E       		.uleb128 0x1e
 1714 0a8f 4D090000 		.4byte	0x94d
 1715 0a93 1A000000 		.4byte	.LBB64
 1716 0a97 04000000 		.4byte	.LBE64-.LBB64
 1717 0a9b 0B       		.byte	0xb
ARM GAS  /var/folders/c6/c789hm653lg9vtl73krp73tm0000gn/T//ccMOx09Q.s 			page 46


 1718 0a9c CD01     		.2byte	0x1cd
 1719 0a9e 1F       		.uleb128 0x1f
 1720 0a9f 5A090000 		.4byte	0x95a
 1721 0aa3 15000000 		.4byte	.LLST1
 1722 0aa7 00       		.byte	0
 1723 0aa8 00       		.byte	0
 1724 0aa9 00       		.byte	0
 1725 0aaa 00       		.byte	0
 1726 0aab 00       		.byte	0
 1727 0aac 21       		.uleb128 0x21
 1728 0aad 26000000 		.4byte	.LVL3
 1729 0ab1 FF0A0000 		.4byte	0xaff
 1730 0ab5 00       		.byte	0
 1731 0ab6 1C       		.uleb128 0x1c
 1732 0ab7 94010000 		.4byte	.LASF154
 1733 0abb 01       		.byte	0x1
 1734 0abc C9       		.byte	0xc9
 1735 0abd 00000000 		.4byte	.LFB261
 1736 0ac1 48000000 		.4byte	.LFE261-.LFB261
 1737 0ac5 01       		.uleb128 0x1
 1738 0ac6 9C       		.byte	0x9c
 1739 0ac7 E00A0000 		.4byte	0xae0
 1740 0acb 22       		.uleb128 0x22
 1741 0acc 40000000 		.4byte	.LVL4
 1742 0ad0 070B0000 		.4byte	0xb07
 1743 0ad4 23       		.uleb128 0x23
 1744 0ad5 01       		.uleb128 0x1
 1745 0ad6 51       		.byte	0x51
 1746 0ad7 01       		.uleb128 0x1
 1747 0ad8 38       		.byte	0x38
 1748 0ad9 23       		.uleb128 0x23
 1749 0ada 01       		.uleb128 0x1
 1750 0adb 50       		.byte	0x50
 1751 0adc 01       		.uleb128 0x1
 1752 0add 4C       		.byte	0x4c
 1753 0ade 00       		.byte	0
 1754 0adf 00       		.byte	0
 1755 0ae0 24       		.uleb128 0x24
 1756 0ae1 1C050000 		.4byte	.LASF155
 1757 0ae5 11       		.byte	0x11
 1758 0ae6 A706     		.2byte	0x6a7
 1759 0ae8 C3000000 		.4byte	0xc3
 1760 0aec 25       		.uleb128 0x25
 1761 0aed 636800   		.ascii	"ch\000"
 1762 0af0 08       		.byte	0x8
 1763 0af1 0902     		.2byte	0x209
 1764 0af3 DF030000 		.4byte	0x3df
 1765 0af7 26       		.uleb128 0x26
 1766 0af8 A8060000 		.4byte	.LASF156
 1767 0afc 10       		.byte	0x10
 1768 0afd 1801     		.2byte	0x118
 1769 0aff 26       		.uleb128 0x26
 1770 0b00 53030000 		.4byte	.LASF157
 1771 0b04 0B       		.byte	0xb
 1772 0b05 6601     		.2byte	0x166
 1773 0b07 27       		.uleb128 0x27
 1774 0b08 C7010000 		.4byte	.LASF163
ARM GAS  /var/folders/c6/c789hm653lg9vtl73krp73tm0000gn/T//ccMOx09Q.s 			page 47


 1775 0b0c 12       		.byte	0x12
 1776 0b0d 4E       		.byte	0x4e
 1777 0b0e 0D       		.uleb128 0xd
 1778 0b0f AD000000 		.4byte	0xad
 1779 0b13 0D       		.uleb128 0xd
 1780 0b14 AD000000 		.4byte	0xad
 1781 0b18 00       		.byte	0
 1782 0b19 00       		.byte	0
 1783              		.section	.debug_abbrev,"",%progbits
 1784              	.Ldebug_abbrev0:
 1785 0000 01       		.uleb128 0x1
 1786 0001 11       		.uleb128 0x11
 1787 0002 01       		.byte	0x1
 1788 0003 25       		.uleb128 0x25
 1789 0004 0E       		.uleb128 0xe
 1790 0005 13       		.uleb128 0x13
 1791 0006 0B       		.uleb128 0xb
 1792 0007 03       		.uleb128 0x3
 1793 0008 0E       		.uleb128 0xe
 1794 0009 1B       		.uleb128 0x1b
 1795 000a 0E       		.uleb128 0xe
 1796 000b 55       		.uleb128 0x55
 1797 000c 17       		.uleb128 0x17
 1798 000d 11       		.uleb128 0x11
 1799 000e 01       		.uleb128 0x1
 1800 000f 10       		.uleb128 0x10
 1801 0010 17       		.uleb128 0x17
 1802 0011 00       		.byte	0
 1803 0012 00       		.byte	0
 1804 0013 02       		.uleb128 0x2
 1805 0014 24       		.uleb128 0x24
 1806 0015 00       		.byte	0
 1807 0016 0B       		.uleb128 0xb
 1808 0017 0B       		.uleb128 0xb
 1809 0018 3E       		.uleb128 0x3e
 1810 0019 0B       		.uleb128 0xb
 1811 001a 03       		.uleb128 0x3
 1812 001b 08       		.uleb128 0x8
 1813 001c 00       		.byte	0
 1814 001d 00       		.byte	0
 1815 001e 03       		.uleb128 0x3
 1816 001f 24       		.uleb128 0x24
 1817 0020 00       		.byte	0
 1818 0021 0B       		.uleb128 0xb
 1819 0022 0B       		.uleb128 0xb
 1820 0023 3E       		.uleb128 0x3e
 1821 0024 0B       		.uleb128 0xb
 1822 0025 03       		.uleb128 0x3
 1823 0026 0E       		.uleb128 0xe
 1824 0027 00       		.byte	0
 1825 0028 00       		.byte	0
 1826 0029 04       		.uleb128 0x4
 1827 002a 16       		.uleb128 0x16
 1828 002b 00       		.byte	0
 1829 002c 03       		.uleb128 0x3
 1830 002d 0E       		.uleb128 0xe
 1831 002e 3A       		.uleb128 0x3a
ARM GAS  /var/folders/c6/c789hm653lg9vtl73krp73tm0000gn/T//ccMOx09Q.s 			page 48


 1832 002f 0B       		.uleb128 0xb
 1833 0030 3B       		.uleb128 0x3b
 1834 0031 0B       		.uleb128 0xb
 1835 0032 49       		.uleb128 0x49
 1836 0033 13       		.uleb128 0x13
 1837 0034 00       		.byte	0
 1838 0035 00       		.byte	0
 1839 0036 05       		.uleb128 0x5
 1840 0037 35       		.uleb128 0x35
 1841 0038 00       		.byte	0
 1842 0039 49       		.uleb128 0x49
 1843 003a 13       		.uleb128 0x13
 1844 003b 00       		.byte	0
 1845 003c 00       		.byte	0
 1846 003d 06       		.uleb128 0x6
 1847 003e 13       		.uleb128 0x13
 1848 003f 01       		.byte	0x1
 1849 0040 03       		.uleb128 0x3
 1850 0041 0E       		.uleb128 0xe
 1851 0042 0B       		.uleb128 0xb
 1852 0043 0B       		.uleb128 0xb
 1853 0044 3A       		.uleb128 0x3a
 1854 0045 0B       		.uleb128 0xb
 1855 0046 3B       		.uleb128 0x3b
 1856 0047 0B       		.uleb128 0xb
 1857 0048 01       		.uleb128 0x1
 1858 0049 13       		.uleb128 0x13
 1859 004a 00       		.byte	0
 1860 004b 00       		.byte	0
 1861 004c 07       		.uleb128 0x7
 1862 004d 0D       		.uleb128 0xd
 1863 004e 00       		.byte	0
 1864 004f 03       		.uleb128 0x3
 1865 0050 0E       		.uleb128 0xe
 1866 0051 3A       		.uleb128 0x3a
 1867 0052 0B       		.uleb128 0xb
 1868 0053 3B       		.uleb128 0x3b
 1869 0054 0B       		.uleb128 0xb
 1870 0055 49       		.uleb128 0x49
 1871 0056 13       		.uleb128 0x13
 1872 0057 38       		.uleb128 0x38
 1873 0058 0B       		.uleb128 0xb
 1874 0059 00       		.byte	0
 1875 005a 00       		.byte	0
 1876 005b 08       		.uleb128 0x8
 1877 005c 0D       		.uleb128 0xd
 1878 005d 00       		.byte	0
 1879 005e 03       		.uleb128 0x3
 1880 005f 08       		.uleb128 0x8
 1881 0060 3A       		.uleb128 0x3a
 1882 0061 0B       		.uleb128 0xb
 1883 0062 3B       		.uleb128 0x3b
 1884 0063 05       		.uleb128 0x5
 1885 0064 49       		.uleb128 0x49
 1886 0065 13       		.uleb128 0x13
 1887 0066 38       		.uleb128 0x38
 1888 0067 0B       		.uleb128 0xb
ARM GAS  /var/folders/c6/c789hm653lg9vtl73krp73tm0000gn/T//ccMOx09Q.s 			page 49


 1889 0068 00       		.byte	0
 1890 0069 00       		.byte	0
 1891 006a 09       		.uleb128 0x9
 1892 006b 0D       		.uleb128 0xd
 1893 006c 00       		.byte	0
 1894 006d 03       		.uleb128 0x3
 1895 006e 0E       		.uleb128 0xe
 1896 006f 3A       		.uleb128 0x3a
 1897 0070 0B       		.uleb128 0xb
 1898 0071 3B       		.uleb128 0x3b
 1899 0072 05       		.uleb128 0x5
 1900 0073 49       		.uleb128 0x49
 1901 0074 13       		.uleb128 0x13
 1902 0075 38       		.uleb128 0x38
 1903 0076 0B       		.uleb128 0xb
 1904 0077 00       		.byte	0
 1905 0078 00       		.byte	0
 1906 0079 0A       		.uleb128 0xa
 1907 007a 0F       		.uleb128 0xf
 1908 007b 00       		.byte	0
 1909 007c 0B       		.uleb128 0xb
 1910 007d 0B       		.uleb128 0xb
 1911 007e 49       		.uleb128 0x49
 1912 007f 13       		.uleb128 0x13
 1913 0080 00       		.byte	0
 1914 0081 00       		.byte	0
 1915 0082 0B       		.uleb128 0xb
 1916 0083 13       		.uleb128 0x13
 1917 0084 01       		.byte	0x1
 1918 0085 03       		.uleb128 0x3
 1919 0086 0E       		.uleb128 0xe
 1920 0087 0B       		.uleb128 0xb
 1921 0088 0B       		.uleb128 0xb
 1922 0089 3A       		.uleb128 0x3a
 1923 008a 0B       		.uleb128 0xb
 1924 008b 3B       		.uleb128 0x3b
 1925 008c 05       		.uleb128 0x5
 1926 008d 01       		.uleb128 0x1
 1927 008e 13       		.uleb128 0x13
 1928 008f 00       		.byte	0
 1929 0090 00       		.byte	0
 1930 0091 0C       		.uleb128 0xc
 1931 0092 15       		.uleb128 0x15
 1932 0093 01       		.byte	0x1
 1933 0094 27       		.uleb128 0x27
 1934 0095 19       		.uleb128 0x19
 1935 0096 01       		.uleb128 0x1
 1936 0097 13       		.uleb128 0x13
 1937 0098 00       		.byte	0
 1938 0099 00       		.byte	0
 1939 009a 0D       		.uleb128 0xd
 1940 009b 05       		.uleb128 0x5
 1941 009c 00       		.byte	0
 1942 009d 49       		.uleb128 0x49
 1943 009e 13       		.uleb128 0x13
 1944 009f 00       		.byte	0
 1945 00a0 00       		.byte	0
ARM GAS  /var/folders/c6/c789hm653lg9vtl73krp73tm0000gn/T//ccMOx09Q.s 			page 50


 1946 00a1 0E       		.uleb128 0xe
 1947 00a2 0F       		.uleb128 0xf
 1948 00a3 00       		.byte	0
 1949 00a4 0B       		.uleb128 0xb
 1950 00a5 0B       		.uleb128 0xb
 1951 00a6 00       		.byte	0
 1952 00a7 00       		.byte	0
 1953 00a8 0F       		.uleb128 0xf
 1954 00a9 13       		.uleb128 0x13
 1955 00aa 01       		.byte	0x1
 1956 00ab 03       		.uleb128 0x3
 1957 00ac 0E       		.uleb128 0xe
 1958 00ad 0B       		.uleb128 0xb
 1959 00ae 05       		.uleb128 0x5
 1960 00af 3A       		.uleb128 0x3a
 1961 00b0 0B       		.uleb128 0xb
 1962 00b1 3B       		.uleb128 0x3b
 1963 00b2 05       		.uleb128 0x5
 1964 00b3 01       		.uleb128 0x1
 1965 00b4 13       		.uleb128 0x13
 1966 00b5 00       		.byte	0
 1967 00b6 00       		.byte	0
 1968 00b7 10       		.uleb128 0x10
 1969 00b8 01       		.uleb128 0x1
 1970 00b9 01       		.byte	0x1
 1971 00ba 49       		.uleb128 0x49
 1972 00bb 13       		.uleb128 0x13
 1973 00bc 01       		.uleb128 0x1
 1974 00bd 13       		.uleb128 0x13
 1975 00be 00       		.byte	0
 1976 00bf 00       		.byte	0
 1977 00c0 11       		.uleb128 0x11
 1978 00c1 21       		.uleb128 0x21
 1979 00c2 00       		.byte	0
 1980 00c3 49       		.uleb128 0x49
 1981 00c4 13       		.uleb128 0x13
 1982 00c5 2F       		.uleb128 0x2f
 1983 00c6 0B       		.uleb128 0xb
 1984 00c7 00       		.byte	0
 1985 00c8 00       		.byte	0
 1986 00c9 12       		.uleb128 0x12
 1987 00ca 13       		.uleb128 0x13
 1988 00cb 01       		.byte	0x1
 1989 00cc 0B       		.uleb128 0xb
 1990 00cd 0B       		.uleb128 0xb
 1991 00ce 3A       		.uleb128 0x3a
 1992 00cf 0B       		.uleb128 0xb
 1993 00d0 3B       		.uleb128 0x3b
 1994 00d1 05       		.uleb128 0x5
 1995 00d2 01       		.uleb128 0x1
 1996 00d3 13       		.uleb128 0x13
 1997 00d4 00       		.byte	0
 1998 00d5 00       		.byte	0
 1999 00d6 13       		.uleb128 0x13
 2000 00d7 16       		.uleb128 0x16
 2001 00d8 00       		.byte	0
 2002 00d9 03       		.uleb128 0x3
ARM GAS  /var/folders/c6/c789hm653lg9vtl73krp73tm0000gn/T//ccMOx09Q.s 			page 51


 2003 00da 0E       		.uleb128 0xe
 2004 00db 3A       		.uleb128 0x3a
 2005 00dc 0B       		.uleb128 0xb
 2006 00dd 3B       		.uleb128 0x3b
 2007 00de 05       		.uleb128 0x5
 2008 00df 49       		.uleb128 0x49
 2009 00e0 13       		.uleb128 0x13
 2010 00e1 00       		.byte	0
 2011 00e2 00       		.byte	0
 2012 00e3 14       		.uleb128 0x14
 2013 00e4 0D       		.uleb128 0xd
 2014 00e5 00       		.byte	0
 2015 00e6 03       		.uleb128 0x3
 2016 00e7 08       		.uleb128 0x8
 2017 00e8 3A       		.uleb128 0x3a
 2018 00e9 0B       		.uleb128 0xb
 2019 00ea 3B       		.uleb128 0x3b
 2020 00eb 0B       		.uleb128 0xb
 2021 00ec 49       		.uleb128 0x49
 2022 00ed 13       		.uleb128 0x13
 2023 00ee 38       		.uleb128 0x38
 2024 00ef 0B       		.uleb128 0xb
 2025 00f0 00       		.byte	0
 2026 00f1 00       		.byte	0
 2027 00f2 15       		.uleb128 0x15
 2028 00f3 13       		.uleb128 0x13
 2029 00f4 01       		.byte	0x1
 2030 00f5 0B       		.uleb128 0xb
 2031 00f6 0B       		.uleb128 0xb
 2032 00f7 3A       		.uleb128 0x3a
 2033 00f8 0B       		.uleb128 0xb
 2034 00f9 3B       		.uleb128 0x3b
 2035 00fa 0B       		.uleb128 0xb
 2036 00fb 01       		.uleb128 0x1
 2037 00fc 13       		.uleb128 0x13
 2038 00fd 00       		.byte	0
 2039 00fe 00       		.byte	0
 2040 00ff 16       		.uleb128 0x16
 2041 0100 17       		.uleb128 0x17
 2042 0101 01       		.byte	0x1
 2043 0102 0B       		.uleb128 0xb
 2044 0103 0B       		.uleb128 0xb
 2045 0104 3A       		.uleb128 0x3a
 2046 0105 0B       		.uleb128 0xb
 2047 0106 3B       		.uleb128 0x3b
 2048 0107 0B       		.uleb128 0xb
 2049 0108 01       		.uleb128 0x1
 2050 0109 13       		.uleb128 0x13
 2051 010a 00       		.byte	0
 2052 010b 00       		.byte	0
 2053 010c 17       		.uleb128 0x17
 2054 010d 0D       		.uleb128 0xd
 2055 010e 00       		.byte	0
 2056 010f 03       		.uleb128 0x3
 2057 0110 0E       		.uleb128 0xe
 2058 0111 3A       		.uleb128 0x3a
 2059 0112 0B       		.uleb128 0xb
ARM GAS  /var/folders/c6/c789hm653lg9vtl73krp73tm0000gn/T//ccMOx09Q.s 			page 52


 2060 0113 3B       		.uleb128 0x3b
 2061 0114 05       		.uleb128 0x5
 2062 0115 49       		.uleb128 0x49
 2063 0116 13       		.uleb128 0x13
 2064 0117 00       		.byte	0
 2065 0118 00       		.byte	0
 2066 0119 18       		.uleb128 0x18
 2067 011a 26       		.uleb128 0x26
 2068 011b 00       		.byte	0
 2069 011c 49       		.uleb128 0x49
 2070 011d 13       		.uleb128 0x13
 2071 011e 00       		.byte	0
 2072 011f 00       		.byte	0
 2073 0120 19       		.uleb128 0x19
 2074 0121 2E       		.uleb128 0x2e
 2075 0122 01       		.byte	0x1
 2076 0123 03       		.uleb128 0x3
 2077 0124 0E       		.uleb128 0xe
 2078 0125 3A       		.uleb128 0x3a
 2079 0126 0B       		.uleb128 0xb
 2080 0127 3B       		.uleb128 0x3b
 2081 0128 05       		.uleb128 0x5
 2082 0129 27       		.uleb128 0x27
 2083 012a 19       		.uleb128 0x19
 2084 012b 20       		.uleb128 0x20
 2085 012c 0B       		.uleb128 0xb
 2086 012d 01       		.uleb128 0x1
 2087 012e 13       		.uleb128 0x13
 2088 012f 00       		.byte	0
 2089 0130 00       		.byte	0
 2090 0131 1A       		.uleb128 0x1a
 2091 0132 05       		.uleb128 0x5
 2092 0133 00       		.byte	0
 2093 0134 03       		.uleb128 0x3
 2094 0135 0E       		.uleb128 0xe
 2095 0136 3A       		.uleb128 0x3a
 2096 0137 0B       		.uleb128 0xb
 2097 0138 3B       		.uleb128 0x3b
 2098 0139 05       		.uleb128 0x5
 2099 013a 49       		.uleb128 0x49
 2100 013b 13       		.uleb128 0x13
 2101 013c 00       		.byte	0
 2102 013d 00       		.byte	0
 2103 013e 1B       		.uleb128 0x1b
 2104 013f 2E       		.uleb128 0x2e
 2105 0140 00       		.byte	0
 2106 0141 03       		.uleb128 0x3
 2107 0142 0E       		.uleb128 0xe
 2108 0143 3A       		.uleb128 0x3a
 2109 0144 0B       		.uleb128 0xb
 2110 0145 3B       		.uleb128 0x3b
 2111 0146 05       		.uleb128 0x5
 2112 0147 27       		.uleb128 0x27
 2113 0148 19       		.uleb128 0x19
 2114 0149 20       		.uleb128 0x20
 2115 014a 0B       		.uleb128 0xb
 2116 014b 00       		.byte	0
ARM GAS  /var/folders/c6/c789hm653lg9vtl73krp73tm0000gn/T//ccMOx09Q.s 			page 53


 2117 014c 00       		.byte	0
 2118 014d 1C       		.uleb128 0x1c
 2119 014e 2E       		.uleb128 0x2e
 2120 014f 01       		.byte	0x1
 2121 0150 3F       		.uleb128 0x3f
 2122 0151 19       		.uleb128 0x19
 2123 0152 03       		.uleb128 0x3
 2124 0153 0E       		.uleb128 0xe
 2125 0154 3A       		.uleb128 0x3a
 2126 0155 0B       		.uleb128 0xb
 2127 0156 3B       		.uleb128 0x3b
 2128 0157 0B       		.uleb128 0xb
 2129 0158 27       		.uleb128 0x27
 2130 0159 19       		.uleb128 0x19
 2131 015a 11       		.uleb128 0x11
 2132 015b 01       		.uleb128 0x1
 2133 015c 12       		.uleb128 0x12
 2134 015d 06       		.uleb128 0x6
 2135 015e 40       		.uleb128 0x40
 2136 015f 18       		.uleb128 0x18
 2137 0160 9742     		.uleb128 0x2117
 2138 0162 19       		.uleb128 0x19
 2139 0163 01       		.uleb128 0x1
 2140 0164 13       		.uleb128 0x13
 2141 0165 00       		.byte	0
 2142 0166 00       		.byte	0
 2143 0167 1D       		.uleb128 0x1d
 2144 0168 1D       		.uleb128 0x1d
 2145 0169 01       		.byte	0x1
 2146 016a 31       		.uleb128 0x31
 2147 016b 13       		.uleb128 0x13
 2148 016c 11       		.uleb128 0x11
 2149 016d 01       		.uleb128 0x1
 2150 016e 12       		.uleb128 0x12
 2151 016f 06       		.uleb128 0x6
 2152 0170 58       		.uleb128 0x58
 2153 0171 0B       		.uleb128 0xb
 2154 0172 59       		.uleb128 0x59
 2155 0173 0B       		.uleb128 0xb
 2156 0174 01       		.uleb128 0x1
 2157 0175 13       		.uleb128 0x13
 2158 0176 00       		.byte	0
 2159 0177 00       		.byte	0
 2160 0178 1E       		.uleb128 0x1e
 2161 0179 1D       		.uleb128 0x1d
 2162 017a 01       		.byte	0x1
 2163 017b 31       		.uleb128 0x31
 2164 017c 13       		.uleb128 0x13
 2165 017d 11       		.uleb128 0x11
 2166 017e 01       		.uleb128 0x1
 2167 017f 12       		.uleb128 0x12
 2168 0180 06       		.uleb128 0x6
 2169 0181 58       		.uleb128 0x58
 2170 0182 0B       		.uleb128 0xb
 2171 0183 59       		.uleb128 0x59
 2172 0184 05       		.uleb128 0x5
 2173 0185 00       		.byte	0
ARM GAS  /var/folders/c6/c789hm653lg9vtl73krp73tm0000gn/T//ccMOx09Q.s 			page 54


 2174 0186 00       		.byte	0
 2175 0187 1F       		.uleb128 0x1f
 2176 0188 05       		.uleb128 0x5
 2177 0189 00       		.byte	0
 2178 018a 31       		.uleb128 0x31
 2179 018b 13       		.uleb128 0x13
 2180 018c 02       		.uleb128 0x2
 2181 018d 17       		.uleb128 0x17
 2182 018e 00       		.byte	0
 2183 018f 00       		.byte	0
 2184 0190 20       		.uleb128 0x20
 2185 0191 898201   		.uleb128 0x4109
 2186 0194 00       		.byte	0
 2187 0195 11       		.uleb128 0x11
 2188 0196 01       		.uleb128 0x1
 2189 0197 31       		.uleb128 0x31
 2190 0198 13       		.uleb128 0x13
 2191 0199 00       		.byte	0
 2192 019a 00       		.byte	0
 2193 019b 21       		.uleb128 0x21
 2194 019c 898201   		.uleb128 0x4109
 2195 019f 00       		.byte	0
 2196 01a0 11       		.uleb128 0x11
 2197 01a1 01       		.uleb128 0x1
 2198 01a2 9542     		.uleb128 0x2115
 2199 01a4 19       		.uleb128 0x19
 2200 01a5 31       		.uleb128 0x31
 2201 01a6 13       		.uleb128 0x13
 2202 01a7 00       		.byte	0
 2203 01a8 00       		.byte	0
 2204 01a9 22       		.uleb128 0x22
 2205 01aa 898201   		.uleb128 0x4109
 2206 01ad 01       		.byte	0x1
 2207 01ae 11       		.uleb128 0x11
 2208 01af 01       		.uleb128 0x1
 2209 01b0 9542     		.uleb128 0x2115
 2210 01b2 19       		.uleb128 0x19
 2211 01b3 31       		.uleb128 0x31
 2212 01b4 13       		.uleb128 0x13
 2213 01b5 00       		.byte	0
 2214 01b6 00       		.byte	0
 2215 01b7 23       		.uleb128 0x23
 2216 01b8 8A8201   		.uleb128 0x410a
 2217 01bb 00       		.byte	0
 2218 01bc 02       		.uleb128 0x2
 2219 01bd 18       		.uleb128 0x18
 2220 01be 9142     		.uleb128 0x2111
 2221 01c0 18       		.uleb128 0x18
 2222 01c1 00       		.byte	0
 2223 01c2 00       		.byte	0
 2224 01c3 24       		.uleb128 0x24
 2225 01c4 34       		.uleb128 0x34
 2226 01c5 00       		.byte	0
 2227 01c6 03       		.uleb128 0x3
 2228 01c7 0E       		.uleb128 0xe
 2229 01c8 3A       		.uleb128 0x3a
 2230 01c9 0B       		.uleb128 0xb
ARM GAS  /var/folders/c6/c789hm653lg9vtl73krp73tm0000gn/T//ccMOx09Q.s 			page 55


 2231 01ca 3B       		.uleb128 0x3b
 2232 01cb 05       		.uleb128 0x5
 2233 01cc 49       		.uleb128 0x49
 2234 01cd 13       		.uleb128 0x13
 2235 01ce 3F       		.uleb128 0x3f
 2236 01cf 19       		.uleb128 0x19
 2237 01d0 3C       		.uleb128 0x3c
 2238 01d1 19       		.uleb128 0x19
 2239 01d2 00       		.byte	0
 2240 01d3 00       		.byte	0
 2241 01d4 25       		.uleb128 0x25
 2242 01d5 34       		.uleb128 0x34
 2243 01d6 00       		.byte	0
 2244 01d7 03       		.uleb128 0x3
 2245 01d8 08       		.uleb128 0x8
 2246 01d9 3A       		.uleb128 0x3a
 2247 01da 0B       		.uleb128 0xb
 2248 01db 3B       		.uleb128 0x3b
 2249 01dc 05       		.uleb128 0x5
 2250 01dd 49       		.uleb128 0x49
 2251 01de 13       		.uleb128 0x13
 2252 01df 3F       		.uleb128 0x3f
 2253 01e0 19       		.uleb128 0x19
 2254 01e1 3C       		.uleb128 0x3c
 2255 01e2 19       		.uleb128 0x19
 2256 01e3 00       		.byte	0
 2257 01e4 00       		.byte	0
 2258 01e5 26       		.uleb128 0x26
 2259 01e6 2E       		.uleb128 0x2e
 2260 01e7 00       		.byte	0
 2261 01e8 3F       		.uleb128 0x3f
 2262 01e9 19       		.uleb128 0x19
 2263 01ea 03       		.uleb128 0x3
 2264 01eb 0E       		.uleb128 0xe
 2265 01ec 3A       		.uleb128 0x3a
 2266 01ed 0B       		.uleb128 0xb
 2267 01ee 3B       		.uleb128 0x3b
 2268 01ef 05       		.uleb128 0x5
 2269 01f0 27       		.uleb128 0x27
 2270 01f1 19       		.uleb128 0x19
 2271 01f2 3C       		.uleb128 0x3c
 2272 01f3 19       		.uleb128 0x19
 2273 01f4 00       		.byte	0
 2274 01f5 00       		.byte	0
 2275 01f6 27       		.uleb128 0x27
 2276 01f7 2E       		.uleb128 0x2e
 2277 01f8 01       		.byte	0x1
 2278 01f9 3F       		.uleb128 0x3f
 2279 01fa 19       		.uleb128 0x19
 2280 01fb 03       		.uleb128 0x3
 2281 01fc 0E       		.uleb128 0xe
 2282 01fd 3A       		.uleb128 0x3a
 2283 01fe 0B       		.uleb128 0xb
 2284 01ff 3B       		.uleb128 0x3b
 2285 0200 0B       		.uleb128 0xb
 2286 0201 27       		.uleb128 0x27
 2287 0202 19       		.uleb128 0x19
ARM GAS  /var/folders/c6/c789hm653lg9vtl73krp73tm0000gn/T//ccMOx09Q.s 			page 56


 2288 0203 3C       		.uleb128 0x3c
 2289 0204 19       		.uleb128 0x19
 2290 0205 00       		.byte	0
 2291 0206 00       		.byte	0
 2292 0207 00       		.byte	0
 2293              		.section	.debug_loc,"",%progbits
 2294              	.Ldebug_loc0:
 2295              	.LLST0:
 2296 0000 10000000 		.4byte	.LVL0
 2297 0004 1E000000 		.4byte	.LVL2
 2298 0008 0300     		.2byte	0x3
 2299 000a 08       		.byte	0x8
 2300 000b 20       		.byte	0x20
 2301 000c 9F       		.byte	0x9f
 2302 000d 00000000 		.4byte	0
 2303 0011 00000000 		.4byte	0
 2304              	.LLST1:
 2305 0015 1A000000 		.4byte	.LVL1
 2306 0019 1E000000 		.4byte	.LVL2
 2307 001d 0200     		.2byte	0x2
 2308 001f 30       		.byte	0x30
 2309 0020 9F       		.byte	0x9f
 2310 0021 00000000 		.4byte	0
 2311 0025 00000000 		.4byte	0
 2312              		.section	.debug_aranges,"",%progbits
 2313 0000 24000000 		.4byte	0x24
 2314 0004 0200     		.2byte	0x2
 2315 0006 00000000 		.4byte	.Ldebug_info0
 2316 000a 04       		.byte	0x4
 2317 000b 00       		.byte	0
 2318 000c 0000     		.2byte	0
 2319 000e 0000     		.2byte	0
 2320 0010 00000000 		.4byte	.LFB260
 2321 0014 26000000 		.4byte	.LFE260-.LFB260
 2322 0018 00000000 		.4byte	.LFB261
 2323 001c 48000000 		.4byte	.LFE261-.LFB261
 2324 0020 00000000 		.4byte	0
 2325 0024 00000000 		.4byte	0
 2326              		.section	.debug_ranges,"",%progbits
 2327              	.Ldebug_ranges0:
 2328 0000 00000000 		.4byte	.LFB260
 2329 0004 26000000 		.4byte	.LFE260
 2330 0008 00000000 		.4byte	.LFB261
 2331 000c 48000000 		.4byte	.LFE261
 2332 0010 00000000 		.4byte	0
 2333 0014 00000000 		.4byte	0
 2334              		.section	.debug_line,"",%progbits
 2335              	.Ldebug_line0:
 2336 0000 F2020000 		.section	.debug_str,"MS",%progbits,1
 2336      02008602 
 2336      00000201 
 2336      FB0E0D00 
 2336      01010101 
 2337              	.LASF158:
 2338 0000 474E5520 		.ascii	"GNU C 4.8.4 20140725 (release) [ARM/embedded-4_8-br"
 2338      4320342E 
 2338      382E3420 
ARM GAS  /var/folders/c6/c789hm653lg9vtl73krp73tm0000gn/T//ccMOx09Q.s 			page 57


 2338      32303134 
 2338      30373235 
 2339 0033 616E6368 		.ascii	"anch revision 213147] -mcpu=cortex-m4 -mno-thumb-in"
 2339      20726576 
 2339      6973696F 
 2339      6E203231 
 2339      33313437 
 2340 0066 74657277 		.ascii	"terwork -mthumb -ggdb -O2 -fomit-frame-pointer -fal"
 2340      6F726B20 
 2340      2D6D7468 
 2340      756D6220 
 2340      2D676764 
 2341 0099 69676E2D 		.ascii	"ign-functions=16 -ffunction-sections -fdata-section"
 2341      66756E63 
 2341      74696F6E 
 2341      733D3136 
 2341      202D6666 
 2342 00cc 73202D66 		.ascii	"s -fno-common -flto\000"
 2342      6E6F2D63 
 2342      6F6D6D6F 
 2342      6E202D66 
 2342      6C746F00 
 2343              	.LASF50:
 2344 00e0 72656164 		.ascii	"ready_list_t\000"
 2344      795F6C69 
 2344      73745F74 
 2344      00
 2345              	.LASF116:
 2346 00ed 44494552 		.ascii	"DIER\000"
 2346      00
 2347              	.LASF130:
 2348 00f2 77747472 		.ascii	"wttrp\000"
 2348      7000
 2349              	.LASF127:
 2350 00f8 7264796D 		.ascii	"rdymsg\000"
 2350      736700
 2351              	.LASF16:
 2352 00ff 75696E74 		.ascii	"uint64_t\000"
 2352      36345F74 
 2352      00
 2353              	.LASF5:
 2354 0108 5F5F7569 		.ascii	"__uint8_t\000"
 2354      6E74385F 
 2354      7400
 2355              	.LASF114:
 2356 0112 706F7274 		.ascii	"port_intctx\000"
 2356      5F696E74 
 2356      63747800 
 2357              	.LASF69:
 2358 011e 73797374 		.ascii	"system_debug_t\000"
 2358      656D5F64 
 2358      65627567 
 2358      5F7400
 2359              	.LASF144:
 2360 012d 706F7274 		.ascii	"port_lock\000"
 2360      5F6C6F63 
 2360      6B00
ARM GAS  /var/folders/c6/c789hm653lg9vtl73krp73tm0000gn/T//ccMOx09Q.s 			page 58


 2361              	.LASF12:
 2362 0137 6C6F6E67 		.ascii	"long long unsigned int\000"
 2362      206C6F6E 
 2362      6720756E 
 2362      7369676E 
 2362      65642069 
 2363              	.LASF79:
 2364 014e 4944434F 		.ascii	"IDCODE\000"
 2364      444500
 2365              	.LASF128:
 2366 0155 65786974 		.ascii	"exitcode\000"
 2366      636F6465 
 2366      00
 2367              	.LASF76:
 2368 015e 6D61696E 		.ascii	"mainthread\000"
 2368      74687265 
 2368      616400
 2369              	.LASF66:
 2370 0169 76697274 		.ascii	"virtual_timers_list_t\000"
 2370      75616C5F 
 2370      74696D65 
 2370      72735F6C 
 2370      6973745F 
 2371              	.LASF152:
 2372 017f 6F73616C 		.ascii	"osalSysUnlockFromISR\000"
 2372      53797355 
 2372      6E6C6F63 
 2372      6B46726F 
 2372      6D495352 
 2373              	.LASF154:
 2374 0194 73745F6C 		.ascii	"st_lld_init\000"
 2374      6C645F69 
 2374      6E697400 
 2375              	.LASF120:
 2376 01a0 42445452 		.ascii	"BDTR\000"
 2376      00
 2377              	.LASF49:
 2378 01a5 63685F74 		.ascii	"ch_threads_queue\000"
 2378      68726561 
 2378      64735F71 
 2378      75657565 
 2378      00
 2379              	.LASF99:
 2380 01b6 41484231 		.ascii	"AHB1LPENR\000"
 2380      4C50454E 
 2380      5200
 2381              	.LASF29:
 2382 01c0 705F7072 		.ascii	"p_prio\000"
 2382      696F00
 2383              	.LASF163:
 2384 01c7 6E766963 		.ascii	"nvicEnableVector\000"
 2384      456E6162 
 2384      6C655665 
 2384      63746F72 
 2384      00
 2385              	.LASF117:
 2386 01d8 43434D52 		.ascii	"CCMR1\000"
ARM GAS  /var/folders/c6/c789hm653lg9vtl73krp73tm0000gn/T//ccMOx09Q.s 			page 59


 2386      3100
 2387              	.LASF118:
 2388 01de 43434D52 		.ascii	"CCMR2\000"
 2388      3200
 2389              	.LASF122:
 2390 01e4 43434D52 		.ascii	"CCMR3\000"
 2390      3300
 2391              	.LASF1:
 2392 01ea 7369676E 		.ascii	"signed char\000"
 2392      65642063 
 2392      68617200 
 2393              	.LASF85:
 2394 01f6 41484231 		.ascii	"AHB1RSTR\000"
 2394      52535452 
 2394      00
 2395              	.LASF138:
 2396 01ff 6D5F7175 		.ascii	"m_queue\000"
 2396      65756500 
 2397              	.LASF153:
 2398 0207 56656374 		.ascii	"VectorB0\000"
 2398      6F724230 
 2398      00
 2399              	.LASF145:
 2400 0210 706F7274 		.ascii	"port_unlock\000"
 2400      5F756E6C 
 2400      6F636B00 
 2401              	.LASF73:
 2402 021c 63685F73 		.ascii	"ch_system\000"
 2402      79737465 
 2402      6D00
 2403              	.LASF7:
 2404 0226 6C6F6E67 		.ascii	"long int\000"
 2404      20696E74 
 2404      00
 2405              	.LASF90:
 2406 022f 41504232 		.ascii	"APB2RSTR\000"
 2406      52535452 
 2406      00
 2407              	.LASF103:
 2408 0238 41504231 		.ascii	"APB1LPENR\000"
 2408      4C50454E 
 2408      5200
 2409              	.LASF19:
 2410 0242 74737461 		.ascii	"tstate_t\000"
 2410      74655F74 
 2410      00
 2411              	.LASF119:
 2412 024b 43434552 		.ascii	"CCER\000"
 2412      00
 2413              	.LASF10:
 2414 0250 6C6F6E67 		.ascii	"long long int\000"
 2414      206C6F6E 
 2414      6720696E 
 2414      7400
 2415              	.LASF31:
 2416 025e 705F6E65 		.ascii	"p_newer\000"
 2416      77657200 
ARM GAS  /var/folders/c6/c789hm653lg9vtl73krp73tm0000gn/T//ccMOx09Q.s 			page 60


 2417              	.LASF83:
 2418 0266 504C4C43 		.ascii	"PLLCFGR\000"
 2418      46475200 
 2419              	.LASF4:
 2420 026e 73686F72 		.ascii	"short unsigned int\000"
 2420      7420756E 
 2420      7369676E 
 2420      65642069 
 2420      6E7400
 2421              	.LASF55:
 2422 0281 725F6E65 		.ascii	"r_newer\000"
 2422      77657200 
 2423              	.LASF43:
 2424 0289 705F6D70 		.ascii	"p_mpool\000"
 2424      6F6F6C00 
 2425              	.LASF111:
 2426 0291 72656761 		.ascii	"regarm_t\000"
 2426      726D5F74 
 2426      00
 2427              	.LASF62:
 2428 029a 76745F70 		.ascii	"vt_prev\000"
 2428      72657600 
 2429              	.LASF75:
 2430 02a2 76746C69 		.ascii	"vtlist\000"
 2430      737400
 2431              	.LASF150:
 2432 02a9 6F73616C 		.ascii	"osalSysLockFromISR\000"
 2432      5379734C 
 2432      6F636B46 
 2432      726F6D49 
 2432      535200
 2433              	.LASF142:
 2434 02bc 6D757465 		.ascii	"mutex_t\000"
 2434      785F7400 
 2435              	.LASF162:
 2436 02c4 76616C75 		.ascii	"value\000"
 2436      6500
 2437              	.LASF77:
 2438 02ca 69646C65 		.ascii	"idle_thread_wa\000"
 2438      5F746872 
 2438      6561645F 
 2438      776100
 2439              	.LASF24:
 2440 02d9 636E745F 		.ascii	"cnt_t\000"
 2440      7400
 2441              	.LASF0:
 2442 02df 756E7369 		.ascii	"unsigned int\000"
 2442      676E6564 
 2442      20696E74 
 2442      00
 2443              	.LASF61:
 2444 02ec 76745F6E 		.ascii	"vt_next\000"
 2444      65787400 
 2445              	.LASF131:
 2446 02f4 77747365 		.ascii	"wtsemp\000"
 2446      6D7000
 2447              	.LASF38:
ARM GAS  /var/folders/c6/c789hm653lg9vtl73krp73tm0000gn/T//ccMOx09Q.s 			page 61


 2448 02fb 705F6D73 		.ascii	"p_msgqueue\000"
 2448      67717565 
 2448      756500
 2449              	.LASF110:
 2450 0306 5243435F 		.ascii	"RCC_TypeDef\000"
 2450      54797065 
 2450      44656600 
 2451              	.LASF136:
 2452 0312 735F636E 		.ascii	"s_cnt\000"
 2452      7400
 2453              	.LASF115:
 2454 0318 534D4352 		.ascii	"SMCR\000"
 2454      00
 2455              	.LASF46:
 2456 031d 63685F74 		.ascii	"ch_thread\000"
 2456      68726561 
 2456      6400
 2457              	.LASF109:
 2458 0327 504C4C49 		.ascii	"PLLI2SCFGR\000"
 2458      32534346 
 2458      475200
 2459              	.LASF22:
 2460 0332 6D73675F 		.ascii	"msg_t\000"
 2460      7400
 2461              	.LASF87:
 2462 0338 41484233 		.ascii	"AHB3RSTR\000"
 2462      52535452 
 2462      00
 2463              	.LASF42:
 2464 0341 705F7265 		.ascii	"p_realprio\000"
 2464      616C7072 
 2464      696F00
 2465              	.LASF81:
 2466 034c 41504232 		.ascii	"APB2FZ\000"
 2466      465A00
 2467              	.LASF157:
 2468 0353 5F706F72 		.ascii	"_port_irq_epilogue\000"
 2468      745F6972 
 2468      715F6570 
 2468      696C6F67 
 2468      756500
 2469              	.LASF129:
 2470 0366 77746F62 		.ascii	"wtobjp\000"
 2470      6A7000
 2471              	.LASF104:
 2472 036d 41504232 		.ascii	"APB2LPENR\000"
 2472      4C50454E 
 2472      5200
 2473              	.LASF51:
 2474 0377 63685F72 		.ascii	"ch_ready_list\000"
 2474      65616479 
 2474      5F6C6973 
 2474      7400
 2475              	.LASF23:
 2476 0385 6576656E 		.ascii	"eventmask_t\000"
 2476      746D6173 
 2476      6B5F7400 
ARM GAS  /var/folders/c6/c789hm653lg9vtl73krp73tm0000gn/T//ccMOx09Q.s 			page 62


 2477              	.LASF6:
 2478 0391 5F5F696E 		.ascii	"__int32_t\000"
 2478      7433325F 
 2478      7400
 2479              	.LASF112:
 2480 039b 73746B61 		.ascii	"stkalign_t\000"
 2480      6C69676E 
 2480      5F7400
 2481              	.LASF151:
 2482 03a6 6F73616C 		.ascii	"osalOsTimerHandlerI\000"
 2482      4F735469 
 2482      6D657248 
 2482      616E646C 
 2482      65724900 
 2483              	.LASF45:
 2484 03ba 74687265 		.ascii	"threads_list_t\000"
 2484      6164735F 
 2484      6C697374 
 2484      5F7400
 2485              	.LASF59:
 2486 03c9 76697274 		.ascii	"virtual_timer_t\000"
 2486      75616C5F 
 2486      74696D65 
 2486      725F7400 
 2487              	.LASF37:
 2488 03d9 705F7761 		.ascii	"p_waiting\000"
 2488      6974696E 
 2488      6700
 2489              	.LASF78:
 2490 03e3 73697A65 		.ascii	"sizetype\000"
 2490      74797065 
 2490      00
 2491              	.LASF44:
 2492 03ec 74687265 		.ascii	"thread_reference_t\000"
 2492      61645F72 
 2492      65666572 
 2492      656E6365 
 2492      5F7400
 2493              	.LASF67:
 2494 03ff 63685F76 		.ascii	"ch_virtual_timers_list\000"
 2494      69727475 
 2494      616C5F74 
 2494      696D6572 
 2494      735F6C69 
 2495              	.LASF27:
 2496 0416 705F6E65 		.ascii	"p_next\000"
 2496      787400
 2497              	.LASF40:
 2498 041d 705F6570 		.ascii	"p_epending\000"
 2498      656E6469 
 2498      6E6700
 2499              	.LASF94:
 2500 0428 41484233 		.ascii	"AHB3ENR\000"
 2500      454E5200 
 2501              	.LASF68:
 2502 0430 76745F6C 		.ascii	"vt_lasttime\000"
 2502      61737474 
ARM GAS  /var/folders/c6/c789hm653lg9vtl73krp73tm0000gn/T//ccMOx09Q.s 			page 63


 2502      696D6500 
 2503              	.LASF32:
 2504 043c 705F6F6C 		.ascii	"p_older\000"
 2504      64657200 
 2505              	.LASF54:
 2506 0444 725F6374 		.ascii	"r_ctx\000"
 2506      7800
 2507              	.LASF100:
 2508 044a 41484232 		.ascii	"AHB2LPENR\000"
 2508      4C50454E 
 2508      5200
 2509              	.LASF126:
 2510 0454 746D5F63 		.ascii	"tm_calibration_t\000"
 2510      616C6962 
 2510      72617469 
 2510      6F6E5F74 
 2510      00
 2511              	.LASF57:
 2512 0465 725F6375 		.ascii	"r_current\000"
 2512      7272656E 
 2512      7400
 2513              	.LASF89:
 2514 046f 41504231 		.ascii	"APB1RSTR\000"
 2514      52535452 
 2514      00
 2515              	.LASF11:
 2516 0478 5F5F7569 		.ascii	"__uint64_t\000"
 2516      6E743634 
 2516      5F7400
 2517              	.LASF80:
 2518 0483 41504231 		.ascii	"APB1FZ\000"
 2518      465A00
 2519              	.LASF20:
 2520 048a 74726566 		.ascii	"trefs_t\000"
 2520      735F7400 
 2521              	.LASF88:
 2522 0492 52455345 		.ascii	"RESERVED0\000"
 2522      52564544 
 2522      3000
 2523              	.LASF91:
 2524 049c 52455345 		.ascii	"RESERVED1\000"
 2524      52564544 
 2524      3100
 2525              	.LASF95:
 2526 04a6 52455345 		.ascii	"RESERVED2\000"
 2526      52564544 
 2526      3200
 2527              	.LASF98:
 2528 04b0 52455345 		.ascii	"RESERVED3\000"
 2528      52564544 
 2528      3300
 2529              	.LASF102:
 2530 04ba 52455345 		.ascii	"RESERVED4\000"
 2530      52564544 
 2530      3400
 2531              	.LASF28:
 2532 04c4 705F7072 		.ascii	"p_prev\000"
ARM GAS  /var/folders/c6/c789hm653lg9vtl73krp73tm0000gn/T//ccMOx09Q.s 			page 64


 2532      657600
 2533              	.LASF107:
 2534 04cb 52455345 		.ascii	"RESERVED6\000"
 2534      52564544 
 2534      3600
 2535              	.LASF21:
 2536 04d5 74707269 		.ascii	"tprio_t\000"
 2536      6F5F7400 
 2537              	.LASF149:
 2538 04dd 63685379 		.ascii	"chSysUnlockFromISR\000"
 2538      73556E6C 
 2538      6F636B46 
 2538      726F6D49 
 2538      535200
 2539              	.LASF70:
 2540 04f0 63685F73 		.ascii	"ch_system_debug\000"
 2540      79737465 
 2540      6D5F6465 
 2540      62756700 
 2541              	.LASF143:
 2542 0500 5F426F6F 		.ascii	"_Bool\000"
 2542      6C00
 2543              	.LASF14:
 2544 0506 696E7433 		.ascii	"int32_t\000"
 2544      325F7400 
 2545              	.LASF2:
 2546 050e 756E7369 		.ascii	"unsigned char\000"
 2546      676E6564 
 2546      20636861 
 2546      7200
 2547              	.LASF155:
 2548 051c 49544D5F 		.ascii	"ITM_RxBuffer\000"
 2548      52784275 
 2548      66666572 
 2548      00
 2549              	.LASF41:
 2550 0529 705F6D74 		.ascii	"p_mtxlist\000"
 2550      786C6973 
 2550      7400
 2551              	.LASF3:
 2552 0533 73686F72 		.ascii	"short int\000"
 2552      7420696E 
 2552      7400
 2553              	.LASF34:
 2554 053d 705F7374 		.ascii	"p_state\000"
 2554      61746500 
 2555              	.LASF101:
 2556 0545 41484233 		.ascii	"AHB3LPENR\000"
 2556      4C50454E 
 2556      5200
 2557              	.LASF53:
 2558 054f 725F7072 		.ascii	"r_prio\000"
 2558      696F00
 2559              	.LASF133:
 2560 0556 65776D61 		.ascii	"ewmask\000"
 2560      736B00
 2561              	.LASF35:
ARM GAS  /var/folders/c6/c789hm653lg9vtl73krp73tm0000gn/T//ccMOx09Q.s 			page 65


 2562 055d 705F666C 		.ascii	"p_flags\000"
 2562      61677300 
 2563              	.LASF97:
 2564 0565 41504232 		.ascii	"APB2ENR\000"
 2564      454E5200 
 2565              	.LASF60:
 2566 056d 63685F76 		.ascii	"ch_virtual_timer\000"
 2566      69727475 
 2566      616C5F74 
 2566      696D6572 
 2566      00
 2567              	.LASF134:
 2568 057e 63685F73 		.ascii	"ch_semaphore\000"
 2568      656D6170 
 2568      686F7265 
 2568      00
 2569              	.LASF123:
 2570 058b 43435852 		.ascii	"CCXR\000"
 2570      00
 2571              	.LASF82:
 2572 0590 4442474D 		.ascii	"DBGMCU_TypeDef\000"
 2572      43555F54 
 2572      79706544 
 2572      656600
 2573              	.LASF105:
 2574 059f 52455345 		.ascii	"RESERVED5\000"
 2574      52564544 
 2574      3500
 2575              	.LASF15:
 2576 05a9 75696E74 		.ascii	"uint32_t\000"
 2576      33325F74 
 2576      00
 2577              	.LASF132:
 2578 05b2 77746D74 		.ascii	"wtmtxp\000"
 2578      787000
 2579              	.LASF52:
 2580 05b9 725F7175 		.ascii	"r_queue\000"
 2580      65756500 
 2581              	.LASF63:
 2582 05c1 76745F64 		.ascii	"vt_delta\000"
 2582      656C7461 
 2582      00
 2583              	.LASF47:
 2584 05ca 63685F74 		.ascii	"ch_threads_list\000"
 2584      68726561 
 2584      64735F6C 
 2584      69737400 
 2585              	.LASF9:
 2586 05da 6C6F6E67 		.ascii	"long unsigned int\000"
 2586      20756E73 
 2586      69676E65 
 2586      6420696E 
 2586      7400
 2587              	.LASF160:
 2588 05ec 2F557365 		.ascii	"/Users/savonetj/Downloads/ChibiOS_3.0.2/demos/STM32"
 2588      72732F73 
 2588      61766F6E 
ARM GAS  /var/folders/c6/c789hm653lg9vtl73krp73tm0000gn/T//ccMOx09Q.s 			page 66


 2588      65746A2F 
 2588      446F776E 
 2589 061f 2F52542D 		.ascii	"/RT-STM32F407-DISCOVERY\000"
 2589      53544D33 
 2589      32463430 
 2589      372D4449 
 2589      53434F56 
 2590              	.LASF141:
 2591 0637 63686172 		.ascii	"char\000"
 2591      00
 2592              	.LASF159:
 2593 063c 2E2E2F2E 		.ascii	"../../../os/hal/ports/STM32/LLD/TIMv1/st_lld.c\000"
 2593      2E2F2E2E 
 2593      2F6F732F 
 2593      68616C2F 
 2593      706F7274 
 2594              	.LASF121:
 2595 066b 444D4152 		.ascii	"DMAR\000"
 2595      00
 2596              	.LASF86:
 2597 0670 41484232 		.ascii	"AHB2RSTR\000"
 2597      52535452 
 2597      00
 2598              	.LASF147:
 2599 0679 706F7274 		.ascii	"port_unlock_from_isr\000"
 2599      5F756E6C 
 2599      6F636B5F 
 2599      66726F6D 
 2599      5F697372 
 2600              	.LASF26:
 2601 068e 74687265 		.ascii	"thread_t\000"
 2601      61645F74 
 2601      00
 2602              	.LASF140:
 2603 0697 6D5F6E65 		.ascii	"m_next\000"
 2603      787400
 2604              	.LASF25:
 2605 069e 73797374 		.ascii	"systime_t\000"
 2605      696D655F 
 2605      7400
 2606              	.LASF156:
 2607 06a8 63685379 		.ascii	"chSysTimerHandlerI\000"
 2607      7354696D 
 2607      65724861 
 2607      6E646C65 
 2607      724900
 2608              	.LASF58:
 2609 06bb 76746675 		.ascii	"vtfunc_t\000"
 2609      6E635F74 
 2609      00
 2610              	.LASF8:
 2611 06c4 5F5F7569 		.ascii	"__uint32_t\000"
 2611      6E743332 
 2611      5F7400
 2612              	.LASF161:
 2613 06cf 5F5F7365 		.ascii	"__set_BASEPRI\000"
 2613      745F4241 
ARM GAS  /var/folders/c6/c789hm653lg9vtl73krp73tm0000gn/T//ccMOx09Q.s 			page 67


 2613      53455052 
 2613      4900
 2614              	.LASF71:
 2615 06dd 70616E69 		.ascii	"panic_msg\000"
 2615      635F6D73 
 2615      6700
 2616              	.LASF125:
 2617 06e7 6F666673 		.ascii	"offset\000"
 2617      657400
 2618              	.LASF96:
 2619 06ee 41504231 		.ascii	"APB1ENR\000"
 2619      454E5200 
 2620              	.LASF137:
 2621 06f6 63685F6D 		.ascii	"ch_mutex\000"
 2621      75746578 
 2621      00
 2622              	.LASF93:
 2623 06ff 41484232 		.ascii	"AHB2ENR\000"
 2623      454E5200 
 2624              	.LASF113:
 2625 0707 636F6E74 		.ascii	"context\000"
 2625      65787400 
 2626              	.LASF56:
 2627 070f 725F6F6C 		.ascii	"r_older\000"
 2627      64657200 
 2628              	.LASF72:
 2629 0717 63685F73 		.ascii	"ch_system_t\000"
 2629      79737465 
 2629      6D5F7400 
 2630              	.LASF17:
 2631 0723 7274636E 		.ascii	"rtcnt_t\000"
 2631      745F7400 
 2632              	.LASF146:
 2633 072b 706F7274 		.ascii	"port_lock_from_isr\000"
 2633      5F6C6F63 
 2633      6B5F6672 
 2633      6F6D5F69 
 2633      737200
 2634              	.LASF65:
 2635 073e 76745F70 		.ascii	"vt_par\000"
 2635      617200
 2636              	.LASF108:
 2637 0745 53534347 		.ascii	"SSCGR\000"
 2637      5200
 2638              	.LASF48:
 2639 074b 74687265 		.ascii	"threads_queue_t\000"
 2639      6164735F 
 2639      71756575 
 2639      655F7400 
 2640              	.LASF124:
 2641 075b 73746D33 		.ascii	"stm32_tim_t\000"
 2641      325F7469 
 2641      6D5F7400 
 2642              	.LASF36:
 2643 0767 705F7265 		.ascii	"p_refs\000"
 2643      667300
 2644              	.LASF106:
ARM GAS  /var/folders/c6/c789hm653lg9vtl73krp73tm0000gn/T//ccMOx09Q.s 			page 68


 2645 076e 42444352 		.ascii	"BDCR\000"
 2645      00
 2646              	.LASF74:
 2647 0773 726C6973 		.ascii	"rlist\000"
 2647      7400
 2648              	.LASF13:
 2649 0779 75696E74 		.ascii	"uint8_t\000"
 2649      385F7400 
 2650              	.LASF148:
 2651 0781 63685379 		.ascii	"chSysLockFromISR\000"
 2651      734C6F63 
 2651      6B46726F 
 2651      6D495352 
 2651      00
 2652              	.LASF33:
 2653 0792 705F6E61 		.ascii	"p_name\000"
 2653      6D6500
 2654              	.LASF92:
 2655 0799 41484231 		.ascii	"AHB1ENR\000"
 2655      454E5200 
 2656              	.LASF84:
 2657 07a1 43464752 		.ascii	"CFGR\000"
 2657      00
 2658              	.LASF18:
 2659 07a6 746D6F64 		.ascii	"tmode_t\000"
 2659      655F7400 
 2660              	.LASF135:
 2661 07ae 735F7175 		.ascii	"s_queue\000"
 2661      65756500 
 2662              	.LASF39:
 2663 07b6 705F6D73 		.ascii	"p_msg\000"
 2663      6700
 2664              	.LASF139:
 2665 07bc 6D5F6F77 		.ascii	"m_owner\000"
 2665      6E657200 
 2666              	.LASF30:
 2667 07c4 705F6374 		.ascii	"p_ctx\000"
 2667      7800
 2668              	.LASF64:
 2669 07ca 76745F66 		.ascii	"vt_func\000"
 2669      756E6300 
 2670              		.comm	__gnu_lto_v1,1,1
 2671              		.ident	"GCC: (GNU Tools for ARM Embedded Processors) 4.8.4 20140725 (release) [ARM/embedded-4_8-br
ARM GAS  /var/folders/c6/c789hm653lg9vtl73krp73tm0000gn/T//ccMOx09Q.s 			page 69


DEFINED SYMBOLS
                            *ABS*:0000000000000000 st_lld.c
/var/folders/c6/c789hm653lg9vtl73krp73tm0000gn/T//ccMOx09Q.s:265    .text.VectorB0:0000000000000000 $t
/var/folders/c6/c789hm653lg9vtl73krp73tm0000gn/T//ccMOx09Q.s:271    .text.VectorB0:0000000000000000 VectorB0
/var/folders/c6/c789hm653lg9vtl73krp73tm0000gn/T//ccMOx09Q.s:348    .text.st_lld_init:0000000000000000 $t
/var/folders/c6/c789hm653lg9vtl73krp73tm0000gn/T//ccMOx09Q.s:354    .text.st_lld_init:0000000000000000 st_lld_init
/var/folders/c6/c789hm653lg9vtl73krp73tm0000gn/T//ccMOx09Q.s:420    .text.st_lld_init:0000000000000040 $d
                            *COM*:0000000000000001 __gnu_lto_v1
                     .debug_frame:0000000000000010 $d
/var/folders/c6/c789hm653lg9vtl73krp73tm0000gn/T//ccMOx09Q.s:425    .text.st_lld_init:0000000000000048 $t

UNDEFINED SYMBOLS
chSysTimerHandlerI
_port_irq_epilogue
nvicEnableVector
