ARM GAS  /var/folders/c6/c789hm653lg9vtl73krp73tm0000gn/T//ccWixtG4.s 			page 1


   1              		.syntax unified
   2              		.cpu cortex-m4
   3              		.fpu softvfp
   4              		.eabi_attribute 20, 1
   5              		.eabi_attribute 21, 1
   6              		.eabi_attribute 23, 3
   7              		.eabi_attribute 24, 1
   8              		.eabi_attribute 25, 1
   9              		.eabi_attribute 26, 1
  10              		.eabi_attribute 30, 2
  11              		.eabi_attribute 34, 1
  12              		.eabi_attribute 18, 4
  13              		.thumb
  14              		.file	"testpools.c"
  15              		.text
  16              	.Ltext0:
  17              		.section	.gnu.lto_.jmpfuncs.5e3975814e75ce12,"",%progbits
  18 0000 789C6362 		.ascii	"x\234cb`b\300\006t\031!4\013\003\003#\0033S5\303\257"
  18      6062C006 
  18      74192134 
  18      0B030323 
  18      03335335 
  19 0016 868E0681 		.ascii	"\206\216\006\201LF\206\\\210\004S\004c&#\343\011&(\013"
  19      4C46865C 
  19      88045304 
  19      632623E3 
  19      0926280B 
  20 002a 64083303 		.ascii	"d\0103\003\023\246:\240v,\232!\272\231\361K\263\200"
  20      13A63AA0 
  20      762C9A21 
  20      BA99F14B 
  20      B380
  21 003c D8B8AC66 		.ascii	"\330\270\254f\026\0002\340R,\311\214\004\354b\005\261"
  21      160032E0 
  21      522CC98C 
  21      04EC6205 
  21      B1
  22 004d 59E15C26 		.ascii	"Y\341\\&\374\252\031qHcq\015\314= \013\000\310\225/"
  22      FCAA1971 
  22      4863710D 
  22      CC3D200B 
  22      00C8952F 
  23 0061 43       		.ascii	"C"
  24              		.text
  25              		.section	.gnu.lto_.inline.5e3975814e75ce12,"",%progbits
  26 0000 789C6362 		.ascii	"x\234cb`b\300\006\366@i\026\006\006f&F\260\"\266\005"
  26      6062C006 
  26      F6406916 
  26      06066626 
  26      46B022B6 
  27 0015 F260B58C 		.ascii	"\362`\265\214\014\354\374\250\",\274@U\014 \254\363"
  27      0CECFCA8 
  27      222CBC40 
  27      550C20AC 
  27      F3
  28 0026 9D112825 		.ascii	"\235\021(%\3230\203\015.\311\314\003R<\301\017D3\002"
  28      D330830D 
ARM GAS  /var/folders/c6/c789hm653lg9vtl73krp73tm0000gn/T//ccWixtG4.s 			page 2


  28      2EC9CC03 
  28      523CC10F 
  28      443302
  29 0039 95C2780C 		.ascii	"\225\302x\014`\036\003\230\0077\000,\012\"A\242\254"
  29      601E0398 
  29      0737002C 
  29      0A2241A2 
  29      AC
  30 004a 0C0A6B40 		.ascii	"\014\012k@\306\211\264\235fF\330\316\005\265\020\331"
  30      C689B49D 
  30      6646D8CE 
  30      05B510D9 
  31 005a 14541B40 		.ascii	"\024T\033@fM\360c`\000\000\2755\017\300"
  31      664DF063 
  31      600000BD 
  31      350FC0
  32              		.text
  33              		.section	.gnu.lto_.pureconst.5e3975814e75ce12,"",%progbits
  34 0000 789C6362 		.ascii	"x\234cb`b\340d\200\000\026\006\006F\011f\011V\011\000"
  34      6062E064 
  34      80001606 
  34      06460966 
  34      09560900 
  35 0014 02160063 		.ascii	"\002\026\000c"
  36              		.text
  37              		.section	.gnu.lto_null_provider.5e3975814e75ce12,"",%progbits
  38 0000 789C6362 		.ascii	"x\234cb`b@\007\222@\034\005\304\362@\314\310\314\300"
  38      60624007 
  38      92401C05 
  38      C4F240CC 
  38      C8CCC0
  39 0013 C834E11C 		.ascii	"\3104\341\034\003C#\007\023##\210\301\300\310P\317\304"
  39      03432307 
  39      13232388 
  39      C1C0C850 
  39      CFC4
  40 0025 581FC908 		.ascii	"X\037\311\010V\273\236\351\300\203\377\377\327\375x"
  40      56BB9EE9 
  40      C083FFFF 
  40      D7FD78
  41 0034 FAA88351 		.ascii	"\372\250\203Q\020d\024+CKC\303\004\005\006\206d\260"
  41      1064142B 
  41      434B43C3 
  41      04050686 
  41      64B0
  42 0046 82102009 		.ascii	"\202\020 \011\322\025\312\310\004\242\231/24>\370\317"
  42      D215CAC8 
  42      04A2992F 
  42      32343EF8 
  42      CF
  43 0057 96C8B890 		.ascii	"\226\310\270\220\221\225!\2021\223\021ni\010##H\001"
  43      91952182 
  43      3193116E 
  43      69082323 
  43      4801
  44 0069 C808593D 		.ascii	"\310\010Y==}\010*I-.\321/*\001\323\005\371\3719\305"
  44      3D7D082A 
ARM GAS  /var/folders/c6/c789hm653lg9vtl73krp73tm0000gn/T//ccWixtG4.s 			page 3


  44      492D2ED1 
  44      2F2A01D3 
  44      05F9F939 
  45 007e 7AC90C00 		.ascii	"z\311\014\0000z#\235"
  45      307A239D 
  46              		.text
  47              		.section	.gnu.lto_pools1_setup.5e3975814e75ce12,"",%progbits
  48 0000 789C6362 		.ascii	"x\234cb`b@\007\222@<\027\210\345\201\230\221\231\201"
  48      60624007 
  48      92403C17 
  48      88E58198 
  48      919981
  49 0013 9169C239 		.ascii	"\221i\3029\006\206F\016&FF\020\203\201\221\241\236\211"
  49      0686460E 
  49      26464610 
  49      838191A1 
  49      9E89
  50 0025 B13E9211 		.ascii	"\261>\222\021\254v=\323\201\007\377\377\257\233\322"
  50      AC763DD3 
  50      8107FFFF 
  50      AF9BD2
  51 0034 B6E40EE3 		.ascii	"\266\344\016\343\014&f\240\010+CKC\303\004\005\006\206"
  51      0C2666A0 
  51      082B434B 
  51      43C30405 
  51      0686
  52 0046 64B08A10 		.ascii	"d\260\212\020 \011\322\026\312\310\004\242\231\3173"
  52      2009D216 
  52      CAC804A2 
  52      99CF33
  53 0055 B43DE879 		.ascii	"\264=\350y\314\225\310\270\220\221\025(]\315\360\253"
  53      CC95C8B8 
  53      90911528 
  53      5DCDF0AB 
  54 0065 A1A34120 		.ascii	"\241\243A \223\021\250\034b\"H\204#\223\2211\227\221"
  54      9311A81C 
  54      62224884 
  54      23939131 
  54      9791
  55 0077 01AA2882 		.ascii	"\001\252(\2021\223\221\351\004\023\230\006\332\220\311"
  55      319391E9 
  55      04139806 
  55      DA90C9
  56 0086 C8C2C070 		.ascii	"\310\302\300p\221\241\361A\2572\314\024\010\010\001"
  56      91A1F141 
  56      AF32CC14 
  56      080801
  57 0095 9A00B402 		.ascii	"\232\000\264\002\344!Y==}\010*I-.\321/*\001\323\005"
  57      E421593D 
  57      3D7D082A 
  57      492D2ED1 
  57      2F2A01D3 
  58 00aa F9F939C5 		.ascii	"\371\3719\305z\311\014\000c\3151\332"
  58      7AC90C00 
  58      63CD31DA 
  59              		.text
  60              		.section	.gnu.lto_pools1_execute.part.0.5e3975814e75ce12,"",%progbits
ARM GAS  /var/folders/c6/c789hm653lg9vtl73krp73tm0000gn/T//ccWixtG4.s 			page 4


  61 0000 789C9D54 		.ascii	"x\234\235T=hSQ\024>\347\336\367s\337O~\324IP\211\356"
  61      3D685351 
  61      143EE7DE 
  61      F773DF4F 
  61      7ED44950 
  62 0016 2620383B 		.ascii	"& 8;\273'\240cyH|`\251\330l\016}\371Q\272\024\202.E"
  62      BB27A063 
  62      79487C60 
  62      A9D86C0E 
  62      7DF951BA 
  63 002e 1D2C5D05 		.ascii	"\035,]\005'\251\024\034\342\324\010m\350\"\015t\210"
  63      27A9141C 
  63      E2D4086D 
  63      E8220D74 
  63      88
  64 003f 2875D0C9 		.ascii	"(u\320\311I\034\214\347\334\367\023\2234\203>\222{\356"
  64      491C8CE7 
  64      DCF71393 
  64      34833E92 
  64      7BEE
  65 0051 B9E77CE7 		.ascii	"\271\347|\347\234\357\273/\021 `\366\351\322\267o\000"
  65      9CEFBB2F 
  65      112060F6 
  65      E9D2B76F 
  65      00
  66 0062 5C268B39 		.ascii	"\\&\2139@\277{@\033\037\205\266\002\015mel{\312\020"
  66      40BF7B40 
  66      1B1F85B6 
  66      020D6D65 
  66      6C7BCA10 
  67 0076 72A30710 		.ascii	"r\243\007\020\271f;\007\221o\242\322qKx\357%\235\332"
  67      B9663B07 
  67      916FA2D2 
  67      714B78EF 
  67      259DDA
  68 0089 071F28E8 		.ascii	"\007\037(\350\333\361qO)a\305\351\216Nw\204\367\261"
  68      DBF1714F 
  68      2961C5E9 
  68      8E4E7784 
  68      F7B1
  69 009b 429EBB7B 		.ascii	"B\236\273{\211<\027=\316j*\017\2217\200\260\346\013"
  69      893C173D 
  69      CE6A2A0F 
  69      913780B0 
  69      E60B
  70 00ad 699896AD 		.ascii	"i\230\226\255\034\327\303\265\333\310\023\342\025\330"
  70      1CD7C3B5 
  70      DBC813E2 
  70      15D8
  71 00bb 8AA2EEE8 		.ascii	"\212\242\356\350\321\311\333\363\321\313V7\372=\036"
  71      D1C9DBF3 
  71      D1CB5637 
  71      FA3D1E
  72 00ca 6388C4A5 		.ascii	"c\210\304\245\204\020 \334\"\007K\332\010c\232\334k"
  72      841020DC 
  72      22074BDA 
  72      08639ADC 
ARM GAS  /var/folders/c6/c789hm653lg9vtl73krp73tm0000gn/T//ccWixtG4.s 			page 5


  72      6B
  73 00db 118DC6E3 		.ascii	"\021\215\306\343\341\017u\001a\011\267\250\222\200\020"
  73      E10F7501 
  73      6109B7A8 
  73      928010
  74 00ea A54C1C83 		.ascii	"\245L\034\203\035\223\026\303\342\305N\216Ub\035\016"
  74      1D9316C3 
  74      E2C54E8E 
  74      55621D0E 
  75 00fa BB1CF178 		.ascii	"\273\034\361x\361\331\315\361.\237$\024\022K\217\011"
  75      F1D9CDF1 
  75      2E9F2414 
  75      124B8F09 
  76 010a 1D9AB194 		.ascii	"\035\232\261\224\372\201\236\274J+\361\256\242OF\326"
  76      FA819EBC 
  76      4A2BF1AE 
  76      A24F46D6 
  77 011a 50B00118 		.ascii	"P\260\001\030B\236\207\245\004\377\370\315]\200\032"
  77      429E87A5 
  77      04FFF8CD 
  77      5D801A
  78 0129 4A2095E4 		.ascii	"J \225\344>\264\216\217\276\375\304%\334F\023\352(\256"
  78      3EB48E8F 
  78      BEFDC425 
  78      DC4613EA 
  78      28AE
  79 013b C2ABA818 		.ascii	"\302\253\250\030\242\371\034\2365\273\274\263\036\302"
  79      A2F91C9E 
  79      35BBBCB3 
  79      1EC2
  80 0149 AF689377 		.ascii	"\257h\223w\366\262\356\300ulM\265\216\230\321\036\200"
  80      F6B2EEC0 
  80      756C4DB5 
  80      8E98D11E 
  80      80
  81 015a 19D70060 		.ascii	"\031\327\000`\300:\003T\220$\360\211\012\321Y\306\244"
  81      C03A0354 
  81      9024F089 
  81      0AD159C6 
  81      A4
  82 016b 11770AD1 		.ascii	"\021w\012\321\005\330\207\366z{g\343f\332_RM=(\003\373"
  82      05D887F6 
  82      7A7B67E3 
  82      66DA5F52 
  82      4D3D2803 
  83 0180 20E2F398 		.ascii	" \342\363\230\"E\343^54\200.O\366\241\245 \013\022b"
  83      2245E35E 
  83      3534802E 
  83      4FF6A1A5 
  83      200B1262 
  84 0194 0F3A274D 		.ascii	"\017:'M;\255\025\027\232\\\317\020\260\216yA\213\224"
  84      3BAD1517 
  84      9A5CCF10 
  84      B08E7941 
  84      8B94
  85 01a6 9B0E9731 		.ascii	"\233\016\2271Sq\012\2118\306\213\035-\216\005O\257\313"
  85      53710A89 
ARM GAS  /var/folders/c6/c789hm653lg9vtl73krp73tm0000gn/T//ccWixtG4.s 			page 6


  85      38C68B1D 
  85      2D8E054F 
  85      AFCB
  86 01b8 017446BB 		.ascii	"\001tF\273\333\2314F\306\313\013P,\340\025\222\356L"
  86      DB993446 
  86      C6CB0B50 
  86      2CE01592 
  86      EE4C
  87 01ca EA48A630 		.ascii	"\352H\2460\223\220\\]N\251T\217u\325\345rAB\214\323"
  87      93905C5D 
  87      4EA9548F 
  87      75D5E572 
  87      41428CD3 
  88 01de F2923121 		.ascii	"\362\2221!\0264\233\357Yw\213\203S\257Z\215n\341\323"
  88      16349BEF 
  88      59778B83 
  88      53AF5A8D 
  88      6EE1D3
  89 01f1 35A915FC 		.ascii	"5\251\025\374:QP\325\321^\254\240J\261\012\276\334\230"
  89      3A5150D5 
  89      D15EACA0 
  89      4AB10ABE 
  89      DC98
  90 0203 11D09E15 		.ascii	"\021\320\236\025\320\236\023\320\256c\301$\001\225\035"
  90      D09E13D0 
  90      AE63C124 
  90      01951D
  91 0212 0BE8C0A1 		.ascii	"\013\350\300\241\253uz\027\244 \347_d\032d2\271\204"
  91      AB757A17 
  91      A420E75F 
  91      641A6432 
  91      B984
  92 0224 3C4D266F 		.ascii	"<M&o\201L\006c\346e\362N\221\311\205'\006\015\371x\264"
  92      814C0663 
  92      E665F24E 
  92      91C98527 
  92      060DF978 
  93 0239 F7D99D7B 		.ascii	"\367\331\235{G\213A\222>?$\227:SL\003g\0034\263\351"
  93      478B4192 
  93      3E3F2497 
  93      3A534C03 
  93      670334B3 
  94 024e CFF18C9D 		.ascii	"\317\361\214\235Q?c\355\377\037\353\034!\347Y\3775\336"
  94      513F63ED 
  94      FF1FEB1C 
  94      21E759FF 
  94      35DE
  95 0260 34690DD1 		.ascii	"4i\015\321\244cf\036\277\277\207\364o6\241[\245\337"
  95      A463661E 
  95      BFBF87F4 
  95      6F36A15B 
  95      A5DF
  96 0272 413BC713 		.ascii	"A;\307\023\\,\227+\361\247qg\265Qy\320\320\366\376\312"
  96      5C2C972B 
  96      F1A77167 
  96      B55179D0 
  96      D0F6FECA 
ARM GAS  /var/folders/c6/c789hm653lg9vtl73krp73tm0000gn/T//ccWixtG4.s 			page 7


  97 0286 CABDD572 		.ascii	"\312\275\325r\000\030\376\001\344\015\016\026"
  97      0018FE01 
  97      E40D0E16 
  98              		.text
  99              		.section	.gnu.lto_pools1_execute.5e3975814e75ce12,"",%progbits
 100 0000 789C9553 		.ascii	"x\234\225SMk\023Q\024=\367\275\371x\371n\304\215\013"
 100      4D6B1351 
 100      143DF7BD 
 100      F978F96E 
 100      C48D0B
 101 0013 25BA37F9 		.ascii	"%\2727\371\007\356\3357\240\3132\224:`\251\330\354\\"
 101      07EEDD37 
 101      A0CB3294 
 101      3A60A9D8 
 101      EC5C
 102 0025 74928950 		.ascii	"t\222\211PA!+)\025\324\322M\021A\\\010.\\X\335\330B"
 102      41212B29 
 102      15D4D24D 
 102      11415C08 
 102      2E5C58DD 
 103 003b 1B05170A 		.ascii	"\033\005\027\012]\004\027Y\371\0034\212\361\336y3ic"
 103      5D041759 
 103      F903348A 
 103      F1DE7933 
 103      6963
 104 004d DB8543F2 		.ascii	"\333\205C\362\336\273_\347\236{\346\215\202\302\277"
 104      DEBB5FE7 
 104      9E7BE68D 
 104      82C2BF
 105 005c CF3CFFEF 		.ascii	"\317<\377\357i\340\"\357\224\003\251\336>\3206\212\\"
 105      69E022EF 
 105      9403A9DE 
 105      3ED0368A 
 105      5C
 106 006d 7BD0CABC 		.ascii	"{\320\312\274\323\210\362\316\376.\020\025\035\353\337"
 106      D388F2CE 
 106      FE2E1015 
 106      1DEBDF
 107 007c 36AED20F 		.ascii	"6\256\322\017\266\331\223\367\342\022\373=e\336\\`\313"
 107      B6D993F7 
 107      E212FB3D 
 107      65DE5C60 
 107      CB
 108 008d FFDC60CB 		.ascii	"\377\334`\313'#Yd\210d\007aEi\307\365|C+\327I\332\322"
 108      27235964 
 108      88640761 
 108      4569C7F5 
 108      7C432BD7 
 109 00a4 256C4451 		.ascii	"%lDQopw\370\372\\\364\264\323\213\376\214\307\024\022"
 109      6F7077F8 
 109      FA5CF4B4 
 109      D38BFE8C 
 109      C71412
 110 00b7 13AC1102 		.ascii	"\023\254\021\002\30256\250\226l\312\231f\374B\275\035"
 110      C23536A8 
 110      966CCA99 
 110      66FC42BD 
ARM GAS  /var/folders/c6/c789hm653lg9vtl73krp73tm0000gn/T//ccWixtG4.s 			page 8


 110      1D
 111 00c8 8CC7BF5F 		.ascii	"\214\307\277_n}\333\245\352Y\302\034m0\232\203\220\264"
 111      6E7DDBA5 
 111      EA59C21C 
 111      6D309A83 
 111      90B4
 112 00da 971A468C 		.ascii	"\227\032F\214\034/NA\226b\352.\213\273\"\236\252,\214"
 112      1C2F4E41 
 112      9662EA2E 
 112      8BBB229E 
 112      AA2C8C
 113 00ed E5A2CB2C 		.ascii	"\345\242\313,j6\014i\314\317,\257\243\012\232\244x\323"
 113      6A360C69 
 113      CCCF2CAF 
 113      A30A9AA4 
 113      78D3
 114 00ff 7BE81CFC 		.ascii	"{\350\034\374\030~Ts\264I.\026\310\271\214\347\321L"
 114      187E5473 
 114      B4492E16 
 114      C8B98CE7 
 114      D14C
 115 0111 48EE23AC 		.ascii	"H\356#\254\267{r\362\356`\024\255\311\311_L\000\204"
 115      B77B72F2 
 115      EE6014AD 
 115      C9C95F4C 
 115      0084
 116 0123 B58FEC74 		.ascii	"\265\217\354t\224{\037\236\305\001\244hU\212L@6G<&\244"
 116      947B1F9E 
 116      C501A468 
 116      558A4C40 
 116      36473C26 
 117 0138 DC22519A 		.ascii	"\334\"Q\232\304\335\004!\3572\335\002\260\203\316\340"
 117      C4DD0421 
 117      EF32DD02 
 117      B083CEE0 
 118 0148 F1FB14C1 		.ascii	"\361\373\024\301r\236j\320$\015~)\272\217\356\340\311"
 118      729E6AD0 
 118      240D7E29 
 118      BA8FEEE0 
 118      C9
 119 0159 26658CCD 		.ascii	"&e\214\315\244U1 uJ\253\220J\300\036\342/:+\313q\245"
 119      A4553120 
 119      754AAB90 
 119      4AC01EE2 
 119      2F3A2BCB 
 120 016f C06B4BDC 		.ascii	"\300kK\334\315\374\205\011\\9\260\301\204E\205\244&"
 120      CDFC8509 
 120      5C39B0C1 
 120      844585A4 
 120      26
 121 0180 A419E003 		.ascii	"\244\031\340\003\272\337'\335\013\022\234z\205M6\037"
 121      BADF27DD 
 121      0B129C7A 
 121      854D361F 
 122 0190 5E6161E3 		.ascii	"^aa\343\325\370\327\375\253Ybq\201(\031G\006\332\201"
 122      D5F8D7FD 
 122      AB596271 
ARM GAS  /var/folders/c6/c789hm653lg9vtl73krp73tm0000gn/T//ccWixtG4.s 			page 9


 122      81281947 
 122      06DA81
 123 01a3 3A3A2647 		.ascii	"::&G\263Z\027|\2454Ka0\011R\322s\330\3663,\013t\330"
 123      B35A177C 
 123      A5344B61 
 123      300952D2 
 123      73D8F633 
 124 01bb F52B2855 		.ascii	"\365+(UJmi\006s\326r\202\345!.%j=\013\262\312\362\377"
 124      4A6D6906 
 124      73D67282 
 124      E5212E25 
 124      6A3D0BB2 
 125 01d2 88D59F88 		.ascii	"\210\325\237\210U\341\312\223\304\252\236\"\226\222"
 125      55E1CA93 
 125      C4AA9E22 
 125      9692
 126 01e0 9AE36255 		.ascii	"\232\343bUO\020\313\307O\237I\306\346\330\315\251\006"
 126      4F10CBC7 
 126      4F9F49C6 
 126      E6D8CDA9 
 126      06
 127 01f1 696E4867 		.ascii	"inHg\354\224^:\245w\360\352\206\324\032\271\301\237"
 127      EC945E3A 
 127      A577F0EA 
 127      86D41AB9 
 127      C19F
 128 0203 F8333E04 		.ascii	"\3703>\004\234e\265F\025\231\354|\275\336\260\277\326"
 128      9C65B546 
 128      1599EC7C 
 128      BDDEB0BF 
 128      D6
 129 0214 FC72AB71 		.ascii	"\374r\253q\273\225\354\267\226\226n.\327\003P\370\027"
 129      BB95ECB7 
 129      96966E2E 
 129      D70350F8 
 129      17
 130 0225 D2AACD2D 		.ascii	"\322\252\315-"
 131              		.text
 132              		.section	.gnu.lto_.symbol_nodes.5e3975814e75ce12,"",%progbits
 133 0000 789C4D8C 		.ascii	"x\234M\214]\216\001Q\024\204\253\356\351\243\333\260"
 133      5D8E0151 
 133      1484ABEE 
 133      E9A3DBB0 
 134 0010 00129BB3 		.ascii	"\000\022\233\263\222#\2210\343\311\002LBz\023\336\373"
 134      92239130 
 134      E3C9024C 
 134      427A13DE 
 134      FB
 135 0021 8DC41A84 		.ascii	"\215\304\032\204\37073$\355\225\271\027\321\316K\345"
 135      F8373324 
 135      ED95B917 
 135      D1CE4BE5 
 136 0031 AB3A550E 		.ascii	"\253:U\016\0165\342qnM\003\3723\300l\360\325t\033\032"
 136      0E35E271 
 136      6E4D03FA 
 136      33C06CF0 
 136      D5741B1A 
ARM GAS  /var/folders/c6/c789hm653lg9vtl73krp73tm0000gn/T//ccWixtG4.s 			page 10


 137 0045 0BD41511 		.ascii	"\013\324\025\021\231\2703\315=\335\357O\352\201\204"
 137      99B833CD 
 137      3DDDEF4F 
 137      EA8184
 138 0054 C16D69F2 		.ascii	"\301mi\362\366\273\247S\203\356(^x\242E\217\260\325"
 138      F6BBA753 
 138      83EE285E 
 138      78A2458F 
 138      B0D5
 139 0066 22FF685A 		.ascii	"\"\377hZ\320\017\255T\320/-.\350HK^$L\320\236_)RA:\275"
 139      D00FAD54 
 139      D02F2D2E 
 139      E8484B5E 
 139      244CD09E 
 140 0080 46221F58 		.ascii	"F\"\037XN\202&\310\356ZA\273\2277\202\237u\203z\356"
 140      4E8226C8 
 140      EE5A41BB 
 140      9737829F 
 140      75837AEE 
 141 0094 E476E7D1 		.ascii	"\344v\347\321-\026)#\035\347u\321*\322\260\243\276?"
 141      2D162923 
 141      1DE775D1 
 141      2AD2B0A3 
 141      BE3F
 142 00a6 F4BEFABD 		.ascii	"\364\276\372\275\220\007\356\370^\340\320W\301\242{"
 142      9007EEF8 
 142      5EE0D057 
 142      C1A27B
 143 00b5 89F10FE7 		.ascii	"\211\361\017\347\\U\236"
 143      5C559E
 144              		.text
 145              		.section	.gnu.lto_.refs.5e3975814e75ce12,"",%progbits
 146 0000 789C35C7 		.ascii	"x\2345\307\301\015\0000\010\303\300\304\2052K\367_\020"
 146      C10D0030 
 146      08C3C0C4 
 146      85324BF7 
 146      5F10
 147 0012 A48AF3CB 		.ascii	"\244\212\363\313\010=}6\324Q\260\004\221\373\276\324"
 147      083D7D36 
 147      D451B004 
 147      91FBBED4 
 148 0022 64520D10 		.ascii	"dR\015\020\271\000\224"
 148      B90094
 149              		.text
 150              		.section	.gnu.lto_.decls.5e3975814e75ce12,"",%progbits
 151 0000 789C9D58 		.ascii	"x\234\235XklTE\024\236\271\333BK\227\002UH\021(\213"
 151      6B6C5445 
 151      149EB9DB 
 151      424B9702 
 151      55481128 
 152 0015 824622BB 		.ascii	"\202F\"\273\255\251\011?\014\005\211\212\211\017\376"
 152      ADA9093F 
 152      0C05898A 
 152      890FFE
 153 0024 9018FFAC 		.ascii	"\220\030\377\254\303\366Bk\266\273\345\356\255\200\376"
 153      C3F6426B 
 153      B6BBE5EE 
ARM GAS  /var/folders/c6/c789hm653lg9vtl73krp73tm0000gn/T//ccWixtG4.s 			page 11


 153      AD80FE
 154 0033 7028B654 		.ascii	"p(\266T$\244\024\320\362(iy(\360\213\207B\")n*\266+"
 154      24A414D0 
 154      F2286979 
 154      28F08B87 
 154      4222296E 
 155 004a 06C22B2A 		.ascii	"\006\302+*h\311F \246\010XDh@`=\363\330\335{\357\336"
 155      68C94620 
 155      A6085844 
 155      6840603D 
 155      F3D8DD7B 
 156 0060 BBB44E7A 		.ascii	"\273\264Nz\356\235;s\036\3379sf\346l\025\244\240k\030"
 156      EE9D3B73 
 156      1EDF3973 
 156      66E66C15 
 156      A4A06B18 
 157 0074 A104B41D 		.ascii	"\241\004\264\035E\010\275\254 \224\213\020\232\205\304"
 157      4508BDAC 
 157      20948B10 
 157      9A85C4
 158 0083 BB43BE0F 		.ascii	"\273C\276\017\001\355\007:\202D\313\007\352\004\352"
 158      01ED073A 
 158      8244CB07 
 158      EA04EA
 159 0092 02EA063A 		.ascii	"\002\352\006:\016t\002\350,\320/@\277\001]\006\312\001"
 159      0E7402E8 
 159      2CD02F40 
 159      BF015D06 
 159      CA01
 160 00a4 BA0A741D 		.ascii	"\272\012t\035\350o\240\221\030\231\032\323\301\206*"
 160      E86FA091 
 160      18991AD3 
 160      C1862A
 161 00b3 E4379663 		.ascii	"\3447\226c\326\326%q\024c3\246\223r^\221<'\244\216\253"
 161      D6D62571 
 161      146333A6 
 161      93725E91 
 161      3C27A48E 
 162 00c8 167986F1 		.ascii	"\026y\206\361q\211\247\020\310-m^\004\372\013\350\006"
 162      7189A710 
 162      C82D6D5E 
 162      04FA0BE8 
 162      06
 163 00d9 D078107C 		.ascii	"\320x\020|B\352?\0074\001\372\347\341=\021\013{\275"
 163      42EA3F07 
 163      3401FAE7 
 163      E13D110B 
 163      7BBD
 164 00eb D27E320E 		.ascii	"\322~2\016I\333\303\244~\243\357'\244\037\212\364\335"
 164      49DBC3A4 
 164      7EA3EF27 
 164      A41F8AF4 
 164      DD
 165 00fc 8A87C5EB 		.ascii	"\212\207\305\353\261A\340\231$\3610\233W\0340\225@\277"
 165      B141E099 
 165      24F1309B 
 165      571C3095 
ARM GAS  /var/folders/c6/c789hm653lg9vtl73krp73tm0000gn/T//ccWixtG4.s 			page 12


 165      40BF
 166 010e 47EACD95 		.ascii	"G\352\315\225\272/\033\260tg\301Q\200VSZO\333\033\351"
 166      BA2F1BB0 
 166      7467C151 
 166      8056535A 
 166      4FDB1BE9 
 167 0122 BC586111 		.ascii	"\274Xa\021ZG\241yb\200\350mLpa>z\227w\334\371\034\340"
 167      5A47A179 
 167      6280E86D 
 167      4C70613E 
 167      7A9777DC 
 168 0139 34B493D2 		.ascii	"4\264\223\322\346\370\367\227\212i\016\301\333q\021"
 168      E6F8F797 
 168      8A690EC1 
 168      DB7111
 169 0148 A87D06A3 		.ascii	"\250}\006\243\351h\017H5S\272}B\346\302\241G)E\210\340"
 169      E9680F48 
 169      3553BA7D 
 169      42E6C2A1 
 169      47294588 
 170 015d 2F4015C1 		.ascii	"/@\025\301\273\360ta\202F\327u\273\231\0116\216\344"
 170      BBF07461 
 170      8246D775 
 170      BB990936 
 170      8EE4
 171 016f 8C4D9B82 		.ascii	"\214M\233\202\332\001|t}c\333x\332\336\205\355|i\037"
 171      DA017C74 
 171      7D63DB78 
 171      DADE85ED 
 171      7C691F
 172 0182 66B0EB49 		.ascii	"f\260\353I\332\315\341\021y\021\203\352\275V\3237\211"
 172      DACDE111 
 172      791183EA 
 172      BD56D337 
 172      89
 173 0193 478C3EDA 		.ascii	"G\214>\332\360\255\276\0370mq\023\274\007l+h^R\237\235"
 173      F0ADBE1F 
 173      306D7113 
 173      BC076C2B 
 173      685E529F 
 174 01a8 39D9154D 		.ascii	"9\331\025M2X\233\235\034C\301\324\313\246\240\371X\006"
 174      32589B9D 
 174      1C43C1D4 
 174      CBA6A0F9 
 174      5806
 175 01ba 6C885624 		.ascii	"l\210V$\346\215\335[y\260\362QS:X\366\246\345r\337l"
 175      E68DDD5B 
 175      79B0F251 
 175      533A58F6 
 175      A6E572DF 
 176 01cf FCE916AE 		.ascii	"\374\351\026\256\247\024&\366\203\230\202\016bl\012"
 176      A71426F6 
 176      8398820E 
 176      626C0A
 177 01de 0DC1B926 		.ascii	"\015\301\271&_\370w\222\201\351\343\323\262\303\016"
 177      5FF87792 
 177      81E9E3D3 
ARM GAS  /var/folders/c6/c789hm653lg9vtl73krp73tm0000gn/T//ccWixtG4.s 			page 13


 177      B2C30E
 178 01ed 9A51CC8F 		.ascii	"\232Q\314\217o\360P\035\361\030\035\2117\\\212\2716"
 178      6FF0501D 
 178      F1181D89 
 178      375C8AB9 
 178      36
 179 01fe D1E8C72E 		.ascii	"\321\350\307.\323\262\217C\033\371\2627\002^\235\340"
 179      D3B28F43 
 179      1BF9B237 
 179      025E9DE0 
 180 020e 8A02C7A0 		.ascii	"\212\002\307\240\036\306\343x\317\305\367\006\022\316"
 180      1EC6E378 
 180      CFC5F706 
 180      12CE
 181 021c 11BCC095 		.ascii	"\021\274\300\225u9dL\016\256=\374,\245y\004\037\342"
 181      7539644C 
 181      0EAE3DFC 
 181      2CA57904 
 181      1FE2
 182 022e 2B7FDD12 		.ascii	"+\177\335\022\021\023$a\312\011\306\021P`\237g\031s"
 182      11132461 
 182      CA09C611 
 182      50609F67 
 182      1973
 183 0240 0ABA3798 		.ascii	"\012\2727\230\230\345eK1\223\376\364\266#\370K<\015"
 183      98E5654B 
 183      3193FEF4 
 183      B623F84B 
 183      3C0D
 184 0252 9EBBF114 		.ascii	"\236\273\361\024x\356\343\317\257\341\2315\026LEG:5"
 184      78EEE3CF 
 184      AFE19935 
 184      164C4547 
 184      3A35
 185 0264 27A36DF4 		.ascii	"'\243m\364T\177\274\255\345h\011[\027\232H|$\303\254"
 185      547FBCAD 
 185      E568095B 
 185      179A487C 
 185      24C3AC
 186 0277 A09D8A39 		.ascii	"\240\235\2129@S\321\016J[\350\347\352\274dR\035\340"
 186      4053D10E 
 186      4A5BE8E7 
 186      EABC6452 
 186      1DE0
 187 0289 1C9D78B2 		.ascii	"\034\235x\262\255)\301\005\355i\264\213E\266\363\362"
 187      AD29C105 
 187      ED69B48B 
 187      45B6F3F2 
 188 0299 FC797C75 		.ascii	"\374y|uQ\026!\011\361(V\214n3\230\321~\330\007ka\037"
 188      51162109 
 188      F128568C 
 188      6E3398D1 
 188      7ED8076B 
 189 02af D4471389 		.ascii	"\324G\023\211\012dI\232Yc\035\335\375N&M:O\024t\330"
 189      0A64499A 
 189      59631DDD 
 189      FD4E264D 
ARM GAS  /var/folders/c6/c789hm653lg9vtl73krp73tm0000gn/T//ccWixtG4.s 			page 14


 189      3A4F1474 
 190 02c4 E29B0409 		.ascii	"\342\233\004\011m7uqm\214\277\013@\232\202\177\314\026"
 190      6D377571 
 190      6D8CBF0B 
 190      409A827F 
 190      CC16
 191 02d6 D6B6EE35 		.ascii	"\326\266\3565y\315+\342\211\304\344\301\203\352\261"
 191      79CD2BE2 
 191      89C4E4C1 
 191      83EAB1
 192 02e5 0175CC1E 		.ascii	"\001u\314\036T\263\031T\267\025T\314\016\024=@i>,g\202"
 192      54B31954 
 192      B71554CC 
 192      0E143D40 
 192      693E2C67 
 193 02fa 2A22020A 		.ascii	"*\"\002\012\2720(\237\217[\325\377\230\251>\336\034"
 193      BA30289F 
 193      8F5BD5FF 
 193      98A93EDE 
 193      1C
 194 030b 6F1888E2 		.ascii	"o\030\210\342M\264Kd\314\340\335>i\335\300,\027M\273"
 194      4DB44B64 
 194      CCE0DD3E 
 194      69DDC02C 
 194      174DBB
 195 031e D9387948 		.ascii	"\3318yH$\252i\203+\250/\303\017\301t\306\016h\364L\317"
 195      24AA6983 
 195      2BA82FC3 
 195      0FC174C6 
 195      0E68F44C 
 196 0333 1A8A87BA 		.ascii	"\032\212\207\272:\347\262\302\254\260Cu\317\001\325"
 196      3AE7B2C2 
 196      ACB04375 
 196      CF01D5
 197 0342 CFB6A8BE 		.ascii	"\317\266\250\276\355Y3\236v\330fr\226\343\357\274\035"
 197      ED59339E 
 197      76D86672 
 197      96E3EFBC 
 197      1D
 198 0353 2C0B8E06 		.ascii	",\013\216\006\227=\216_m\227\361\354\346\336\025x\335"
 198      973D8E5F 
 198      6D97F1EC 
 198      E6DE1578 
 198      DD
 199 0364 CAF618ED 		.ascii	"\312\366\030\355gG\274\011J\036Z\305\266m\274\201\256"
 199      6747BC09 
 199      4A1E5AC5 
 199      B66DBC81 
 199      AE
 200 0375 C04B52A7 		.ascii	"\300KR\247I^\022\024\253\330\304\365\013\011\012Iv\021"
 200      495E1214 
 200      ABD8C4F5 
 200      0B090A49 
 200      7611
 201 0387 E781F9BD 		.ascii	"\347\201\371\275.K\261\230F\300\030Xc\362\242\237\354"
 201      2E4BB198 
 201      46C01858 
ARM GAS  /var/folders/c6/c789hm653lg9vtl73krp73tm0000gn/T//ccWixtG4.s 			page 15


 201      63F2A29F 
 201      EC
 202 0398 61E7B3AA 		.ascii	"a\347\263\252\327\3522\\G\251\276\324h\211\300>\207"
 202      D7EA325C 
 202      47A9BED4 
 202      6889C03E 
 202      87
 203 03a9 085CB28D 		.ascii	"\010\\\262\215\300\316\201\030nj\241\367\023\011\327"
 203      C0CE8118 
 203      6E6AA1F7 
 203      1309D7
 204 03b8 10F2F8CA 		.ascii	"\020\362\370\312 \022\304\232\326\026\230\235\0160\373"
 204      2012C49A 
 204      D616989D 
 204      0E30FB
 205 03c7 CC309F44 		.ascii	"\3140\237D\0354z*\276\365\314W\030\216>J\037&\0228Y"
 205      1D347A2A 
 205      BEF5CC57 
 205      188E3E4A 
 205      1F261238 
 206 03dc C79D48A9 		.ascii	"\307\235H\251p*\322\376\224\312\312\321A\332\024-\025"
 206      702AD2FE 
 206      94CACAD1 
 206      41DA142D 
 206      15
 207 03ed 82E2CA60 		.ascii	"\202\342\312`\234\242H\021\227\207\274\353c\212\274"
 207      9CA24811 
 207      9787BCEB 
 207      638ABC
 208 03fc 46D8F711 		.ascii	"F\330\367\021yS0\020\375\220-\027\256\325\343\365\024"
 208      79533010 
 208      FD902D17 
 208      AED5E3F5 
 208      14
 209 040d B28542E6 		.ascii	"\262\205B\346\342\311cP\263,\023S\227g\224_\236Y\"W"
 209      E2C96350 
 209      B32C1353 
 209      9767945F 
 209      9E592257 
 210 0421 617B75A6 		.ascii	"a{u\2465%\243'\331\373\361\030d\337\024t:#\202\004\337"
 210      3525A327 
 210      D9FBF118 
 210      64DF1474 
 210      3A238204 
 211 0436 4C478F81 		.ascii	"LG\217\201\336\027\205\273\355\237\323x\003\245\026"
 211      DE1785BB 
 211      ED9FD378 
 211      03A516
 212 0445 D0EDB32D 		.ascii	"\320\355\263-\250\223\305'\254\275\241\270\2428\351"
 212      A893C527 
 212      ACBDA1B8 
 212      A238E9
 213 0454 C0686EF3 		.ascii	"\300hn\363\034\330\264\251\216\315l\004\337\301,\214"
 213      1CD8B4A9 
 213      8ECD6C04 
 213      DFC12C8C 
 214 0464 03963A15 		.ascii	"\003\226:\025\002\330Y\314K\220\201A\325\252w\037\304"
ARM GAS  /var/folders/c6/c789hm653lg9vtl73krp73tm0000gn/T//ccWixtG4.s 			page 16


 214      02D859CC 
 214      4B908141 
 214      D5AA771F 
 214      C4
 215 0475 58AD6AAA 		.ascii	"X\255j\252Ld\015\030\337\025-n-|\324\256L1\323\342b"
 215      4C640D18 
 215      DF152D6E 
 215      2D7CD4AE 
 215      4C31D3E2 
 216 048a 7B5E82EF 		.ascii	"{^\202\357\363\"\342\201\310Q>%\372\311^\0023\277{\235"
 216      F322E281 
 216      C8513E25 
 216      FAC95E02 
 216      33BF7B9D 
 217 049e F7757651 		.ascii	"\367uvQ\247<\270g\254\217\177\347+9\360\277\013\344"
 217      A73CB867 
 217      AC8F7FE7 
 217      2B39F0BF 
 217      0BE4
 218 04b0 7FFB3203 		.ascii	"\177\3732\003%\256='\363+\024\203\371?\206l\336c2\177"
 218      25AE3D27 
 218      F32B1483 
 218      F93F866C 
 218      DE63327F 
 219 04c4 5F8D950A 		.ascii	"_\215\225\012\225PV\016F\227]\271'u=4\350\2723d]\236"
 219      9550560E 
 219      46975DB9 
 219      27753D34 
 219      E8BA3364 
 220 04da 8CD51119 		.ascii	"\214\325\021\031F\360]^\037R\205=W\362g\203\362\310"
 220      46F05D5E 
 220      1F52853D 
 220      57F26783 
 220      F2C8
 221 04ec 5AD112D0 		.ascii	"Z\321\022\320\333\016H\230\376U\351\200\232U\3166\003"
 221      DB0E4898 
 221      FE55E980 
 221      9A55CE36 
 221      03
 222 04fd 356C3F21 		.ascii	"5l?!d\317Fp\223\"v>\317a\232\302\000\034N\020>Q\322"
 222      64CF4670 
 222      9322763E 
 222      CF619AC2 
 222      001C4E10 
 223 0514 89E8CE4F 		.ascii	"\211\350\316Ow\214\231\233\346\202\370>\264\236\237"
 223      778C999B 
 223      E682F83E 
 223      B49E9F
 224 0523 1920562B 		.ascii	"\031 V+\306\363\023~d\336\202\363(\265n\037\242{\264"
 224      C6F3137E 
 224      64DE82F3 
 224      28B56E1F 
 224      A27BB4
 225 0536 95C20973 		.ascii	"\225\302\011s\273L\370\302\317\311S\321M\253\332\214"
 225      BB4CF8C2 
 225      CFC953D1 
 225      4DABDA8C 
ARM GAS  /var/folders/c6/c789hm653lg9vtl73krp73tm0000gn/T//ccWixtG4.s 			page 17


 226 0546 87F56D7E 		.ascii	"\207\365m~X\177\232c1f>3\230\265\265`\255\004}\226\323"
 226      587F9A63 
 226      31663E33 
 226      98B5B560 
 226      AD047D96 
 227 055b 46F30C56 		.ascii	"F\363\014Vg\013\015b\011\205\311\350\226\036\363/\347"
 227      670B0D62 
 227      0985C9E8 
 227      961EF32F 
 227      E7
 228 056c E4F9D95A 		.ascii	"\344\371\331Z(v\2364\021O\231\230(M\254\037rT78D5\371"
 228      28769E34 
 228      114F9998 
 228      284DAC1F 
 228      72543738 
 229 0583 7F0327B9 		.ascii	"\177\003'\271\226tB\224\240=\340S\353\354\264y\221\211"
 229      96744294 
 229      A03DE053 
 229      EBECB479 
 229      9189
 230 0595 CC99261A 		.ascii	"\314\231&\032\335:\\$|\252\340\026\031\312\364\211m"
 230      DD3A5C24 
 230      7CAAE016 
 230      19CAF489 
 230      6D
 231 05a6 2A725572 		.ascii	"*rUr\357Kq\033KU\211B\370\233\314EK\372\236\314r\036"
 231      EF4B711B 
 231      4B558942 
 231      F89BCC45 
 231      4BFA9ECC 
 232 05bc B4A6D15A 		.ascii	"\264\246\321Z\244n\244W<Cj\223\243\324\271,\2666;J\235"
 232      A46EA457 
 232      3C436A93 
 232      A3D4B92C 
 232      B6363B4A 
 233 05d1 CF22B5C5 		.ascii	"\317\"\265\305Q\2527\213\324VG\251+Y\244\332\034\245"
 233      51AA378B 
 233      D45647A9 
 233      2B59A4DA 
 233      1CA5
 234 05e3 7AB2486D 		.ascii	"z\262Hm3\034\001S\275^\237\370\013G|\232\356\253\016"
 234      331C0153 
 234      BD5E9FF8 
 234      0B477C9A 
 234      EEAB0E
 235 05f6 05827595 		.ascii	"\005\202u\225\252/PU\243\326\324\206\303\301\210\267"
 235      AA2F5055 
 235      A3D6D486 
 235      C3C188B7 
 236 0606 0A8D847E 		.ascii	"\012\215\204~X[\356g\337~}\330\253o.\360\314E\005\374"
 236      585BEE67 
 236      DF7E7DD8 
 236      AB6F2EF0 
 236      CC4505FC 
 237 061a AB4A2595 		.ascii	"\253J%\225\2526\274\266\312\037R\227\351\303kj\371\373"
 237      AA36BCB6 
 237      CA1F5297 
ARM GAS  /var/folders/c6/c789hm653lg9vtl73krp73tm0000gn/T//ccWixtG4.s 			page 18


 237      E9C36B6A 
 237      F9FB
 238 062c 1D5F5D44 		.ascii	"\035_]D\363\005\303\001\022\364\315U\203A\242\371\026"
 238      F305C301 
 238      12F4CD55 
 238      8341A2F9 
 238      16
 239 063d 07023388 		.ascii	"\007\0023\210V3#\024\016\2513T\262\260\332\367|iYy\351"
 239      56332314 
 239      0EA93354 
 239      B2B0DAF7 
 239      7C695979 
 240 0652 CCD2177C 		.ascii	"\314\322\027|\301\352\205l\332g\236.\367\316\364\226"
 240      C1EA856C 
 240      DA679E2E 
 240      F7CEF496 
 241 0662 A7F044F4 		.ascii	"\247\360D\364\312Ju\021`\031\026\251\376@\365\353\205"
 241      CA4A7511 
 241      601916A9 
 241      FE40F5EB 
 241      85
 242 0673 6029BCF0 		.ascii	"`)\274\360=5\240\373\331\300S\331\334\010\2045\025$"
 242      3D35A0FB 
 242      D9C053D9 
 242      DC088435 
 242      1524
 243 0685 DDD05DAC 		.ascii	"\335\320]\254\352\213\352B\001\277^\000\362\265Z\370"
 243      EA8BEA42 
 243      01BF5E00 
 243      F2B55AF8 
 244 0695 FD6A403F 		.ascii	"\375j@?)%\254\253\021\235\211\263\267p>\200F\206\352"
 244      2925ACAB 
 244      119D89B3 
 244      B7703E80 
 244      4686EA
 245 06a8 82C1146F 		.ascii	"\202\301\024o\016\263\346\346se\376\210\252\327\325"
 245      0EB3E6E6 
 245      7365FE88 
 245      AAD7D5
 246 06b7 8E951FEA 		.ascii	"\216\225\037\35225P\247\253\336Z\242\351\336\322B\363"
 246      323550A7 
 246      ABDE5AA2 
 246      E9DED242 
 246      F3
 247 06c8 E8E840D5 		.ascii	"\350\350@\325|\030x\213#~-T\255\217\020\003\257h\252"
 247      7C18788B 
 247      237E2D54 
 247      AD8F1003 
 247      AF68AA
 248 06db 5A20BA73 		.ascii	"Z \272s\202\020\257b[(\000>\327\377\022\360\270\375"
 248      8210AF62 
 248      5B28003E 
 248      D7FF12F0 
 248      B8FD
 249 06ed ECD34F22 		.ascii	"\354\323O\"\021U\323G\011\271\327\303\244r\216\246\221"
 249      1155D347 
 249      09B9D7C3 
ARM GAS  /var/folders/c6/c789hm653lg9vtl73krp73tm0000gn/T//ccWixtG4.s 			page 19


 249      A4728EA6 
 249      91
 250 06fe E5AE9ADA 		.ascii	"\345\256\232\3322e)\311c,\001\022Qs\002UD\313\011\221"
 250      326529C9 
 250      632C0112 
 250      51730255 
 250      44CB0991 
 251 0712 1A359703 		.ascii	"\0325\227\003\205\011\242U\206\227\206\206KP\356Z\242"
 251      8509A255 
 251      86978686 
 251      4B50EE5A 
 251      A2
 252 0723 EBAA16E2 		.ascii	"\353\252\026\342PG\244|.+\362j\341J\242\023ozh\342\033"
 252      5047A47C 
 252      2E2BF26A 
 252      E14AA213 
 252      6F7A68E2 
 253 0738 3C033CCC 		.ascii	"<\003<\314`\3449\317\222:\265N\365U\252\374\215\376"
 253      60E439CF 
 253      923AB54E 
 253      F555AAFC 
 253      8DFE
 254 074a 038E6466 		.ascii	"\003\216df;"
 254      3B
 255              		.text
 256              		.section	.gnu.lto_.symtab.5e3975814e75ce12,"",%progbits
 257 0000 70617474 		.ascii	"patternpools\000\000\000\000\000\000\000\000\000\000"
 257      65726E70 
 257      6F6F6C73 
 257      00000000 
 257      00000000 
 258 0016 0000F200 		.ascii	"\000\000\362\000\000\000testpools1\000\000\000\000\000"
 258      00007465 
 258      7374706F 
 258      6F6C7331 
 258      00000000 
 259 002b 00000000 		.ascii	"\000\000\000\000\000\000\000\015\001\000\000wa\000\000"
 259      0000000D 
 259      01000077 
 259      610000
 260 003a 02000000 		.ascii	"\002\000\000\000\000\000\000\000\000\000\355\000\000"
 260      00000000 
 260      0000ED00 
 260      00
 261 0047 00636850 		.ascii	"\000chPoolObjectInit\000\000\002\000\000\000\000\000"
 261      6F6F6C4F 
 261      626A6563 
 261      74496E69 
 261      74000002 
 262 0060 00000000 		.ascii	"\000\000\000\000\315\000\000\000chPoolFree\000\000\002"
 262      CD000000 
 262      6368506F 
 262      6F6C4672 
 262      65650000 
 263 0075 00000000 		.ascii	"\000\000\000\000\000\000\000\000\000\323\000\000\000"
 263      00000000 
 263      00D30000 
ARM GAS  /var/folders/c6/c789hm653lg9vtl73krp73tm0000gn/T//ccWixtG4.s 			page 20


 263      00
 264 0082 6368506F 		.ascii	"chPoolAlloc\000\000\002\000\000\000\000\000\000\000"
 264      6F6C416C 
 264      6C6F6300 
 264      00020000 
 264      00000000 
 265 0097 0000D800 		.ascii	"\000\000\330\000\000\000_test_assert\000\000\002\000"
 265      00005F74 
 265      6573745F 
 265      61737365 
 265      72740000 
 266 00ad 00000000 		.ascii	"\000\000\000\000\000\000\000\000\334\000\000\000chP"
 266      00000000 
 266      DC000000 
 266      636850
 267 00bc 6F6F6C4C 		.ascii	"oolLoadArray\000\000\002\000\000\000\000\000\000\000"
 267      6F616441 
 267      72726179 
 267      00000200 
 267      00000000 
 268 00d2 0000E400 		.ascii	"\000\000\344\000\000\000"
 268      0000
 269              		.text
 270              		.section	.gnu.lto_.opts,"",%progbits
 271 0000 272D6D63 		.ascii	"'-mcpu=cortex-m4' '-mno-thumb-interwork' '-mthumb' "
 271      70753D63 
 271      6F727465 
 271      782D6D34 
 271      2720272D 
 272 0033 272D6767 		.ascii	"'-ggdb' '-O2' '-fomit-frame-pointer' '-falign-funct"
 272      64622720 
 272      272D4F32 
 272      2720272D 
 272      666F6D69 
 273 0066 696F6E73 		.ascii	"ions=16' '-ffunction-sections' '-fdata-sections' '-"
 273      3D313627 
 273      20272D66 
 273      66756E63 
 273      74696F6E 
 274 0099 666E6F2D 		.ascii	"fno-common' '-flto'\000"
 274      636F6D6D 
 274      6F6E2720 
 274      272D666C 
 274      746F2700 
 275              		.text
 276              		.cfi_sections	.debug_frame
 277              		.section	.text.null_provider,"ax",%progbits
 278              		.align	2
 279              		.p2align 4,,15
 280              		.thumb
 281              		.thumb_func
 282              		.type	null_provider, %function
 283              	null_provider:
 284              	.LFB229:
 285              		.file 1 "../../../test/rt/testpools.c"
 286              		.loc 1 60 0
 287              		.cfi_startproc
ARM GAS  /var/folders/c6/c789hm653lg9vtl73krp73tm0000gn/T//ccWixtG4.s 			page 21


 288              		@ args = 0, pretend = 0, frame = 0
 289              		@ frame_needed = 0, uses_anonymous_args = 0
 290              		@ link register save eliminated.
 291              	.LVL0:
 292              		.loc 1 64 0
 293 0000 0020     		movs	r0, #0
 294              	.LVL1:
 295 0002 7047     		bx	lr
 296              		.cfi_endproc
 297              	.LFE229:
 298              		.size	null_provider, .-null_provider
 299 0004 AFF30080 		.section	.text.pools1_setup,"ax",%progbits
 299      AFF30080 
 299      AFF30080 
 300              		.align	2
 301              		.p2align 4,,15
 302              		.thumb
 303              		.thumb_func
 304              		.type	pools1_setup, %function
 305              	pools1_setup:
 306              	.LFB230:
 307              		.loc 1 66 0
 308              		.cfi_startproc
 309              		@ args = 0, pretend = 0, frame = 0
 310              		@ frame_needed = 0, uses_anonymous_args = 0
 311              		@ link register save eliminated.
 312              		.loc 1 68 0
 313 0000 0248     		ldr	r0, .L3
 314 0002 4FF4A471 		mov	r1, #328
 315 0006 0022     		movs	r2, #0
 316 0008 FFF7FEBF 		b	chPoolObjectInit
 317              	.LVL2:
 318              	.L4:
 319              		.align	2
 320              	.L3:
 321 000c 00000000 		.word	.LANCHOR0
 322              		.cfi_endproc
 323              	.LFE230:
 324              		.size	pools1_setup, .-pools1_setup
 325              		.section	.text.pools1_execute,"ax",%progbits
 326              		.align	2
 327              		.p2align 4,,15
 328              		.thumb
 329              		.thumb_func
 330              		.type	pools1_execute, %function
 331              	pools1_execute:
 332              	.LFB231:
 333              		.loc 1 71 0
 334              		.cfi_startproc
 335              		@ args = 0, pretend = 0, frame = 0
 336              		@ frame_needed = 0, uses_anonymous_args = 0
 337 0000 38B5     		push	{r3, r4, r5, lr}
 338              		.cfi_def_cfa_offset 16
 339              		.cfi_offset 3, -16
 340              		.cfi_offset 4, -12
 341              		.cfi_offset 5, -8
 342              		.cfi_offset 14, -4
ARM GAS  /var/folders/c6/c789hm653lg9vtl73krp73tm0000gn/T//ccWixtG4.s 			page 22


 343              		.loc 1 75 0
 344 0002 2C4B     		ldr	r3, .L18
 345 0004 2C48     		ldr	r0, .L18+4
 346 0006 1D68     		ldr	r5, [r3]
 347 0008 0522     		movs	r2, #5
 348 000a 2946     		mov	r1, r5
 349 000c FFF7FEFF 		bl	chPoolLoadArray
 350              	.LVL3:
 351 0010 0524     		movs	r4, #5
 352              	.LVL4:
 353              	.L9:
 354              		.loc 1 79 0
 355 0012 2948     		ldr	r0, .L18+4
 356 0014 FFF7FEFF 		bl	chPoolAlloc
 357              	.LVL5:
 358 0018 011C     		adds	r1, r0, #0
 359 001a 18BF     		it	ne
 360 001c 0121     		movne	r1, #1
 361 001e 0120     		movs	r0, #1
 362 0020 FFF7FEFF 		bl	_test_assert
 363              	.LVL6:
 364 0024 A0BB     		cbnz	r0, .L5
 365              		.loc 1 78 0
 366 0026 013C     		subs	r4, r4, #1
 367              	.LVL7:
 368 0028 F3D1     		bne	.L9
 369              		.loc 1 82 0
 370 002a 2348     		ldr	r0, .L18+4
 371 002c FFF7FEFF 		bl	chPoolAlloc
 372              	.LVL8:
 373 0030 D0F10101 		rsbs	r1, r0, #1
 374 0034 38BF     		it	cc
 375 0036 0021     		movcc	r1, #0
 376 0038 0220     		movs	r0, #2
 377 003a FFF7FEFF 		bl	_test_assert
 378              	.LVL9:
 379 003e 38BB     		cbnz	r0, .L5
 380 0040 1C4C     		ldr	r4, .L18
 381              	.LVL10:
 382              	.LBB4:
 383              	.LBB5:
 384              		.loc 1 86 0
 385 0042 1D48     		ldr	r0, .L18+4
 386              	.LBE5:
 387              	.LBE4:
 388              		.loc 1 82 0
 389 0044 2946     		mov	r1, r5
 390 0046 04F11005 		add	r5, r4, #16
 391              	.LBB8:
 392              	.LBB6:
 393              		.loc 1 86 0
 394 004a FFF7FEFF 		bl	chPoolFree
 395              	.LVL11:
 396              		.loc 1 85 0
 397 004e AC42     		cmp	r4, r5
 398 0050 06D0     		beq	.L11
 399              	.L16:
ARM GAS  /var/folders/c6/c789hm653lg9vtl73krp73tm0000gn/T//ccWixtG4.s 			page 23


 400 0052 54F8041F 		ldr	r1, [r4, #4]!
 401              		.loc 1 86 0
 402 0056 1848     		ldr	r0, .L18+4
 403 0058 FFF7FEFF 		bl	chPoolFree
 404              	.LVL12:
 405              		.loc 1 85 0
 406 005c AC42     		cmp	r4, r5
 407 005e F8D1     		bne	.L16
 408              	.L11:
 409 0060 0524     		movs	r4, #5
 410              	.L14:
 411              	.LVL13:
 412              		.loc 1 90 0
 413 0062 1548     		ldr	r0, .L18+4
 414 0064 FFF7FEFF 		bl	chPoolAlloc
 415              	.LVL14:
 416 0068 011C     		adds	r1, r0, #0
 417 006a 18BF     		it	ne
 418 006c 0121     		movne	r1, #1
 419 006e 0320     		movs	r0, #3
 420 0070 FFF7FEFF 		bl	_test_assert
 421              	.LVL15:
 422 0074 60B9     		cbnz	r0, .L5
 423              		.loc 1 89 0
 424 0076 013C     		subs	r4, r4, #1
 425              	.LVL16:
 426 0078 F3D1     		bne	.L14
 427              		.loc 1 93 0
 428 007a 0F48     		ldr	r0, .L18+4
 429 007c FFF7FEFF 		bl	chPoolAlloc
 430              	.LVL17:
 431 0080 D0F10101 		rsbs	r1, r0, #1
 432 0084 38BF     		it	cc
 433 0086 0021     		movcc	r1, #0
 434 0088 0420     		movs	r0, #4
 435 008a FFF7FEFF 		bl	_test_assert
 436              	.LVL18:
 437 008e 00B1     		cbz	r0, .L17
 438              	.LVL19:
 439              	.L5:
 440 0090 38BD     		pop	{r3, r4, r5, pc}
 441              	.LVL20:
 442              	.L17:
 443              		.loc 1 96 0
 444 0092 1021     		movs	r1, #16
 445 0094 0848     		ldr	r0, .L18+4
 446 0096 094A     		ldr	r2, .L18+8
 447 0098 FFF7FEFF 		bl	chPoolObjectInit
 448              	.LVL21:
 449              		.loc 1 97 0
 450 009c 0648     		ldr	r0, .L18+4
 451 009e FFF7FEFF 		bl	chPoolAlloc
 452              	.LVL22:
 453 00a2 D0F10101 		rsbs	r1, r0, #1
 454 00a6 38BF     		it	cc
 455 00a8 0021     		movcc	r1, #0
 456 00aa 0520     		movs	r0, #5
ARM GAS  /var/folders/c6/c789hm653lg9vtl73krp73tm0000gn/T//ccWixtG4.s 			page 24


 457              	.LBE6:
 458              	.LBE8:
 459              		.loc 1 98 0
 460 00ac BDE83840 		pop	{r3, r4, r5, lr}
 461              	.LVL23:
 462              	.LBB9:
 463              	.LBB7:
 464              		.loc 1 97 0
 465 00b0 FFF7FEBF 		b	_test_assert
 466              	.LVL24:
 467              	.L19:
 468              		.align	2
 469              	.L18:
 470 00b4 00000000 		.word	wa
 471 00b8 00000000 		.word	.LANCHOR0
 472 00bc 00000000 		.word	null_provider
 473              	.LBE7:
 474              	.LBE9:
 475              		.cfi_endproc
 476              	.LFE231:
 477              		.size	pools1_execute, .-pools1_execute
 478              		.global	patternpools
 479              		.global	testpools1
 480              		.section	.rodata.str1.4,"aMS",%progbits,1
 481              		.align	2
 482              	.LC0:
 483 0000 4D656D6F 		.ascii	"Memory Pools, queue/dequeue\000"
 483      72792050 
 483      6F6F6C73 
 483      2C207175 
 483      6575652F 
 484              		.section	.rodata.patternpools,"a",%progbits
 485              		.align	2
 486              		.type	patternpools, %object
 487              		.size	patternpools, 8
 488              	patternpools:
 489 0000 00000000 		.word	testpools1
 490 0004 00000000 		.word	0
 491              		.section	.data.mp1,"aw",%progbits
 492              		.align	2
 493              		.set	.LANCHOR0,. + 0
 494              		.type	mp1, %object
 495              		.size	mp1, 12
 496              	mp1:
 497 0000 00000000 		.word	0
 498 0004 48010000 		.word	328
 499 0008 00000000 		.word	0
 500              		.section	.rodata.testpools1,"a",%progbits
 501              		.align	2
 502              		.type	testpools1, %object
 503              		.size	testpools1, 16
 504              	testpools1:
 505 0000 00000000 		.word	.LC0
 506 0004 00000000 		.word	pools1_setup
 507 0008 00000000 		.word	0
 508 000c 00000000 		.word	pools1_execute
 509              		.text
ARM GAS  /var/folders/c6/c789hm653lg9vtl73krp73tm0000gn/T//ccWixtG4.s 			page 25


 510              	.Letext0:
 511              		.file 2 "/usr/local/Cellar/gcc-arm-none-eabi/20140805/lib/gcc/arm-none-eabi/4.8.4/include/stddef.h
 512              		.file 3 "/usr/local/Cellar/gcc-arm-none-eabi/20140805/arm-none-eabi/include/machine/_default_types
 513              		.file 4 "/usr/local/Cellar/gcc-arm-none-eabi/20140805/arm-none-eabi/include/stdint.h"
 514              		.file 5 "../../../os/rt/ports/ARMCMx/compilers/GCC/chtypes.h"
 515              		.file 6 "../../../os/rt/include/chsystypes.h"
 516              		.file 7 "../../../os/rt/include/chschd.h"
 517              		.file 8 "../../../os/rt/ports/ARMCMx/chcore.h"
 518              		.file 9 "../../../os/rt/ports/ARMCMx/chcore_v7m.h"
 519              		.file 10 "../../../os/rt/include/chtm.h"
 520              		.file 11 "../../../os/rt/include/chsem.h"
 521              		.file 12 "../../../os/rt/include/chmtx.h"
 522              		.file 13 "../../../os/rt/include/chmemcore.h"
 523              		.file 14 "../../../os/rt/include/chmempools.h"
 524              		.file 15 "../../../test/rt/test.h"
 525              		.file 16 "../../../os/ext/CMSIS/include/core_cm4.h"
 526              		.section	.debug_info,"",%progbits
 527              	.Ldebug_info0:
 528 0000 D0090000 		.4byte	0x9d0
 529 0004 0400     		.2byte	0x4
 530 0006 00000000 		.4byte	.Ldebug_abbrev0
 531 000a 04       		.byte	0x4
 532 000b 01       		.uleb128 0x1
 533 000c 00000000 		.4byte	.LASF122
 534 0010 01       		.byte	0x1
 535 0011 0F060000 		.4byte	.LASF123
 536 0015 D3040000 		.4byte	.LASF124
 537 0019 20000000 		.4byte	.Ldebug_ranges0+0x20
 538 001d 00000000 		.4byte	0
 539 0021 00000000 		.4byte	.Ldebug_line0
 540 0025 02       		.uleb128 0x2
 541 0026 04       		.byte	0x4
 542 0027 05       		.byte	0x5
 543 0028 696E7400 		.ascii	"int\000"
 544 002c 03       		.uleb128 0x3
 545 002d ED000000 		.4byte	.LASF2
 546 0031 02       		.byte	0x2
 547 0032 D4       		.byte	0xd4
 548 0033 37000000 		.4byte	0x37
 549 0037 04       		.uleb128 0x4
 550 0038 04       		.byte	0x4
 551 0039 07       		.byte	0x7
 552 003a 49020000 		.4byte	.LASF0
 553 003e 04       		.uleb128 0x4
 554 003f 01       		.byte	0x1
 555 0040 06       		.byte	0x6
 556 0041 AA010000 		.4byte	.LASF1
 557 0045 03       		.uleb128 0x3
 558 0046 04010000 		.4byte	.LASF3
 559 004a 03       		.byte	0x3
 560 004b 1C       		.byte	0x1c
 561 004c 50000000 		.4byte	0x50
 562 0050 04       		.uleb128 0x4
 563 0051 01       		.byte	0x1
 564 0052 08       		.byte	0x8
 565 0053 0D040000 		.4byte	.LASF4
 566 0057 04       		.uleb128 0x4
ARM GAS  /var/folders/c6/c789hm653lg9vtl73krp73tm0000gn/T//ccWixtG4.s 			page 26


 567 0058 02       		.byte	0x2
 568 0059 05       		.byte	0x5
 569 005a 25040000 		.4byte	.LASF5
 570 005e 04       		.uleb128 0x4
 571 005f 02       		.byte	0x2
 572 0060 07       		.byte	0x7
 573 0061 92020000 		.4byte	.LASF6
 574 0065 03       		.uleb128 0x3
 575 0066 F4020000 		.4byte	.LASF7
 576 006a 03       		.byte	0x3
 577 006b 37       		.byte	0x37
 578 006c 70000000 		.4byte	0x70
 579 0070 04       		.uleb128 0x4
 580 0071 04       		.byte	0x4
 581 0072 05       		.byte	0x5
 582 0073 DD010000 		.4byte	.LASF8
 583 0077 03       		.uleb128 0x3
 584 0078 5E050000 		.4byte	.LASF9
 585 007c 03       		.byte	0x3
 586 007d 38       		.byte	0x38
 587 007e 82000000 		.4byte	0x82
 588 0082 04       		.uleb128 0x4
 589 0083 04       		.byte	0x4
 590 0084 07       		.byte	0x7
 591 0085 C1040000 		.4byte	.LASF10
 592 0089 04       		.uleb128 0x4
 593 008a 08       		.byte	0x8
 594 008b 05       		.byte	0x5
 595 008c 9C010000 		.4byte	.LASF11
 596 0090 03       		.uleb128 0x3
 597 0091 AD030000 		.4byte	.LASF12
 598 0095 03       		.byte	0x3
 599 0096 4E       		.byte	0x4e
 600 0097 9B000000 		.4byte	0x9b
 601 009b 04       		.uleb128 0x4
 602 009c 08       		.byte	0x8
 603 009d 07       		.byte	0x7
 604 009e 36010000 		.4byte	.LASF13
 605 00a2 03       		.uleb128 0x3
 606 00a3 C9050000 		.4byte	.LASF14
 607 00a7 04       		.byte	0x4
 608 00a8 2A       		.byte	0x2a
 609 00a9 45000000 		.4byte	0x45
 610 00ad 03       		.uleb128 0x3
 611 00ae 05040000 		.4byte	.LASF15
 612 00b2 04       		.byte	0x4
 613 00b3 41       		.byte	0x41
 614 00b4 65000000 		.4byte	0x65
 615 00b8 03       		.uleb128 0x3
 616 00b9 8D040000 		.4byte	.LASF16
 617 00bd 04       		.byte	0x4
 618 00be 42       		.byte	0x42
 619 00bf 77000000 		.4byte	0x77
 620 00c3 03       		.uleb128 0x3
 621 00c4 FB000000 		.4byte	.LASF17
 622 00c8 04       		.byte	0x4
 623 00c9 4E       		.byte	0x4e
ARM GAS  /var/folders/c6/c789hm653lg9vtl73krp73tm0000gn/T//ccWixtG4.s 			page 27


 624 00ca 90000000 		.4byte	0x90
 625 00ce 05       		.uleb128 0x5
 626 00cf AD000000 		.4byte	0xad
 627 00d3 03       		.uleb128 0x3
 628 00d4 91050000 		.4byte	.LASF18
 629 00d8 05       		.byte	0x5
 630 00d9 45       		.byte	0x45
 631 00da B8000000 		.4byte	0xb8
 632 00de 03       		.uleb128 0x3
 633 00df C1020000 		.4byte	.LASF19
 634 00e3 05       		.byte	0x5
 635 00e4 48       		.byte	0x48
 636 00e5 A2000000 		.4byte	0xa2
 637 00e9 03       		.uleb128 0x3
 638 00ea E6010000 		.4byte	.LASF20
 639 00ee 05       		.byte	0x5
 640 00ef 49       		.byte	0x49
 641 00f0 A2000000 		.4byte	0xa2
 642 00f4 03       		.uleb128 0x3
 643 00f5 C0030000 		.4byte	.LASF21
 644 00f9 05       		.byte	0x5
 645 00fa 4A       		.byte	0x4a
 646 00fb A2000000 		.4byte	0xa2
 647 00ff 03       		.uleb128 0x3
 648 0100 E7030000 		.4byte	.LASF22
 649 0104 05       		.byte	0x5
 650 0105 4C       		.byte	0x4c
 651 0106 B8000000 		.4byte	0xb8
 652 010a 03       		.uleb128 0x3
 653 010b AF020000 		.4byte	.LASF23
 654 010f 05       		.byte	0x5
 655 0110 4D       		.byte	0x4d
 656 0111 AD000000 		.4byte	0xad
 657 0115 03       		.uleb128 0x3
 658 0116 E8020000 		.4byte	.LASF24
 659 011a 05       		.byte	0x5
 660 011b 4F       		.byte	0x4f
 661 011c B8000000 		.4byte	0xb8
 662 0120 03       		.uleb128 0x3
 663 0121 43020000 		.4byte	.LASF25
 664 0125 05       		.byte	0x5
 665 0126 51       		.byte	0x51
 666 0127 AD000000 		.4byte	0xad
 667 012b 03       		.uleb128 0x3
 668 012c 40050000 		.4byte	.LASF26
 669 0130 06       		.byte	0x6
 670 0131 33       		.byte	0x33
 671 0132 B8000000 		.4byte	0xb8
 672 0136 03       		.uleb128 0x3
 673 0137 30050000 		.4byte	.LASF27
 674 013b 06       		.byte	0x6
 675 013c 3F       		.byte	0x3f
 676 013d 41010000 		.4byte	0x141
 677 0141 06       		.uleb128 0x6
 678 0142 A5020000 		.4byte	.LASF47
 679 0146 44       		.byte	0x44
 680 0147 07       		.byte	0x7
ARM GAS  /var/folders/c6/c789hm653lg9vtl73krp73tm0000gn/T//ccWixtG4.s 			page 28


 681 0148 C2       		.byte	0xc2
 682 0149 2E020000 		.4byte	0x22e
 683 014d 07       		.uleb128 0x7
 684 014e 45040000 		.4byte	.LASF28
 685 0152 07       		.byte	0x7
 686 0153 C3       		.byte	0xc3
 687 0154 39020000 		.4byte	0x239
 688 0158 00       		.byte	0
 689 0159 07       		.uleb128 0x7
 690 015a D8030000 		.4byte	.LASF29
 691 015e 07       		.byte	0x7
 692 015f C5       		.byte	0xc5
 693 0160 39020000 		.4byte	0x239
 694 0164 04       		.byte	0x4
 695 0165 07       		.uleb128 0x7
 696 0166 95010000 		.4byte	.LASF30
 697 016a 07       		.byte	0x7
 698 016b C7       		.byte	0xc7
 699 016c FF000000 		.4byte	0xff
 700 0170 08       		.byte	0x8
 701 0171 07       		.uleb128 0x7
 702 0172 53060000 		.4byte	.LASF31
 703 0176 07       		.byte	0x7
 704 0177 C8       		.byte	0xc8
 705 0178 69040000 		.4byte	0x469
 706 017c 0C       		.byte	0xc
 707 017d 07       		.uleb128 0x7
 708 017e F7010000 		.4byte	.LASF32
 709 0182 07       		.byte	0x7
 710 0183 CA       		.byte	0xca
 711 0184 39020000 		.4byte	0x239
 712 0188 10       		.byte	0x10
 713 0189 07       		.uleb128 0x7
 714 018a 5A030000 		.4byte	.LASF33
 715 018e 07       		.byte	0x7
 716 018f CB       		.byte	0xcb
 717 0190 39020000 		.4byte	0x239
 718 0194 14       		.byte	0x14
 719 0195 07       		.uleb128 0x7
 720 0196 54040000 		.4byte	.LASF34
 721 019a 07       		.byte	0x7
 722 019b D2       		.byte	0xd2
 723 019c E8050000 		.4byte	0x5e8
 724 01a0 18       		.byte	0x18
 725 01a1 07       		.uleb128 0x7
 726 01a2 2F040000 		.4byte	.LASF35
 727 01a6 07       		.byte	0x7
 728 01a7 DD       		.byte	0xdd
 729 01a8 E9000000 		.4byte	0xe9
 730 01ac 1C       		.byte	0x1c
 731 01ad 07       		.uleb128 0x7
 732 01ae 4C040000 		.4byte	.LASF36
 733 01b2 07       		.byte	0x7
 734 01b3 E1       		.byte	0xe1
 735 01b4 DE000000 		.4byte	0xde
 736 01b8 1D       		.byte	0x1d
 737 01b9 07       		.uleb128 0x7
ARM GAS  /var/folders/c6/c789hm653lg9vtl73krp73tm0000gn/T//ccWixtG4.s 			page 29


 738 01ba BC050000 		.4byte	.LASF37
 739 01be 07       		.byte	0x7
 740 01bf E6       		.byte	0xe6
 741 01c0 F4000000 		.4byte	0xf4
 742 01c4 1E       		.byte	0x1e
 743 01c5 08       		.uleb128 0x8
 744 01c6 705F7500 		.ascii	"p_u\000"
 745 01ca 07       		.byte	0x7
 746 01cb 3101     		.2byte	0x131
 747 01cd 23050000 		.4byte	0x523
 748 01d1 20       		.byte	0x20
 749 01d2 09       		.uleb128 0x9
 750 01d3 09030000 		.4byte	.LASF38
 751 01d7 07       		.byte	0x7
 752 01d8 3601     		.2byte	0x136
 753 01da 3F020000 		.4byte	0x23f
 754 01de 24       		.byte	0x24
 755 01df 09       		.uleb128 0x9
 756 01e0 65020000 		.4byte	.LASF39
 757 01e4 07       		.byte	0x7
 758 01e5 3C01     		.2byte	0x13c
 759 01e7 63020000 		.4byte	0x263
 760 01eb 28       		.byte	0x28
 761 01ec 09       		.uleb128 0x9
 762 01ed 8B050000 		.4byte	.LASF40
 763 01f1 07       		.byte	0x7
 764 01f2 4001     		.2byte	0x140
 765 01f4 0A010000 		.4byte	0x10a
 766 01f8 30       		.byte	0x30
 767 01f9 09       		.uleb128 0x9
 768 01fa 82040000 		.4byte	.LASF41
 769 01fe 07       		.byte	0x7
 770 01ff 4601     		.2byte	0x146
 771 0201 15010000 		.4byte	0x115
 772 0205 34       		.byte	0x34
 773 0206 09       		.uleb128 0x9
 774 0207 1B040000 		.4byte	.LASF42
 775 020b 07       		.byte	0x7
 776 020c 4D01     		.2byte	0x14d
 777 020e E2050000 		.4byte	0x5e2
 778 0212 38       		.byte	0x38
 779 0213 09       		.uleb128 0x9
 780 0214 4A050000 		.4byte	.LASF43
 781 0218 07       		.byte	0x7
 782 0219 5101     		.2byte	0x151
 783 021b FF000000 		.4byte	0xff
 784 021f 3C       		.byte	0x3c
 785 0220 09       		.uleb128 0x9
 786 0221 B6010000 		.4byte	.LASF44
 787 0225 07       		.byte	0x7
 788 0226 5801     		.2byte	0x158
 789 0228 16030000 		.4byte	0x316
 790 022c 40       		.byte	0x40
 791 022d 00       		.byte	0
 792 022e 03       		.uleb128 0x3
 793 022f 1C030000 		.4byte	.LASF45
 794 0233 06       		.byte	0x6
ARM GAS  /var/folders/c6/c789hm653lg9vtl73krp73tm0000gn/T//ccWixtG4.s 			page 30


 795 0234 44       		.byte	0x44
 796 0235 39020000 		.4byte	0x239
 797 0239 0A       		.uleb128 0xa
 798 023a 04       		.byte	0x4
 799 023b 36010000 		.4byte	0x136
 800 023f 03       		.uleb128 0x3
 801 0240 2C060000 		.4byte	.LASF46
 802 0244 06       		.byte	0x6
 803 0245 49       		.byte	0x49
 804 0246 4A020000 		.4byte	0x24a
 805 024a 06       		.uleb128 0x6
 806 024b B1040000 		.4byte	.LASF48
 807 024f 04       		.byte	0x4
 808 0250 07       		.byte	0x7
 809 0251 B0       		.byte	0xb0
 810 0252 63020000 		.4byte	0x263
 811 0256 07       		.uleb128 0x7
 812 0257 45040000 		.4byte	.LASF28
 813 025b 07       		.byte	0x7
 814 025c B1       		.byte	0xb1
 815 025d 39020000 		.4byte	0x239
 816 0261 00       		.byte	0
 817 0262 00       		.byte	0
 818 0263 03       		.uleb128 0x3
 819 0264 A0050000 		.4byte	.LASF49
 820 0268 06       		.byte	0x6
 821 0269 50       		.byte	0x50
 822 026a 6E020000 		.4byte	0x26e
 823 026e 06       		.uleb128 0x6
 824 026f 84010000 		.4byte	.LASF50
 825 0273 08       		.byte	0x8
 826 0274 07       		.byte	0x7
 827 0275 B7       		.byte	0xb7
 828 0276 93020000 		.4byte	0x293
 829 027a 07       		.uleb128 0x7
 830 027b 45040000 		.4byte	.LASF28
 831 027f 07       		.byte	0x7
 832 0280 B8       		.byte	0xb8
 833 0281 39020000 		.4byte	0x239
 834 0285 00       		.byte	0
 835 0286 07       		.uleb128 0x7
 836 0287 D8030000 		.4byte	.LASF29
 837 028b 07       		.byte	0x7
 838 028c B9       		.byte	0xb9
 839 028d 39020000 		.4byte	0x239
 840 0291 04       		.byte	0x4
 841 0292 00       		.byte	0
 842 0293 03       		.uleb128 0x3
 843 0294 E0000000 		.4byte	.LASF51
 844 0298 06       		.byte	0x6
 845 0299 57       		.byte	0x57
 846 029a 9E020000 		.4byte	0x29e
 847 029e 0B       		.uleb128 0xb
 848 029f DA020000 		.4byte	.LASF52
 849 02a3 1C       		.byte	0x1c
 850 02a4 07       		.byte	0x7
 851 02a5 9001     		.2byte	0x190
ARM GAS  /var/folders/c6/c789hm653lg9vtl73krp73tm0000gn/T//ccWixtG4.s 			page 31


 852 02a7 FA020000 		.4byte	0x2fa
 853 02ab 09       		.uleb128 0x9
 854 02ac 46030000 		.4byte	.LASF53
 855 02b0 07       		.byte	0x7
 856 02b1 9101     		.2byte	0x191
 857 02b3 63020000 		.4byte	0x263
 858 02b7 00       		.byte	0
 859 02b8 09       		.uleb128 0x9
 860 02b9 37040000 		.4byte	.LASF54
 861 02bd 07       		.byte	0x7
 862 02be 9201     		.2byte	0x192
 863 02c0 FF000000 		.4byte	0xff
 864 02c4 08       		.byte	0x8
 865 02c5 09       		.uleb128 0x9
 866 02c6 62030000 		.4byte	.LASF55
 867 02ca 07       		.byte	0x7
 868 02cb 9401     		.2byte	0x194
 869 02cd 69040000 		.4byte	0x469
 870 02d1 0C       		.byte	0xc
 871 02d2 09       		.uleb128 0x9
 872 02d3 07020000 		.4byte	.LASF56
 873 02d7 07       		.byte	0x7
 874 02d8 9701     		.2byte	0x197
 875 02da 39020000 		.4byte	0x239
 876 02de 10       		.byte	0x10
 877 02df 09       		.uleb128 0x9
 878 02e0 98030000 		.4byte	.LASF57
 879 02e4 07       		.byte	0x7
 880 02e5 9801     		.2byte	0x198
 881 02e7 39020000 		.4byte	0x239
 882 02eb 14       		.byte	0x14
 883 02ec 09       		.uleb128 0x9
 884 02ed 8E030000 		.4byte	.LASF58
 885 02f1 07       		.byte	0x7
 886 02f2 9B01     		.2byte	0x19b
 887 02f4 39020000 		.4byte	0x239
 888 02f8 18       		.byte	0x18
 889 02f9 00       		.byte	0
 890 02fa 03       		.uleb128 0x3
 891 02fb 55050000 		.4byte	.LASF59
 892 02ff 06       		.byte	0x6
 893 0300 5C       		.byte	0x5c
 894 0301 05030000 		.4byte	0x305
 895 0305 0A       		.uleb128 0xa
 896 0306 04       		.byte	0x4
 897 0307 0B030000 		.4byte	0x30b
 898 030b 0C       		.uleb128 0xc
 899 030c 16030000 		.4byte	0x316
 900 0310 0D       		.uleb128 0xd
 901 0311 16030000 		.4byte	0x316
 902 0315 00       		.byte	0
 903 0316 0E       		.uleb128 0xe
 904 0317 04       		.byte	0x4
 905 0318 03       		.uleb128 0x3
 906 0319 C8030000 		.4byte	.LASF60
 907 031d 06       		.byte	0x6
 908 031e 61       		.byte	0x61
ARM GAS  /var/folders/c6/c789hm653lg9vtl73krp73tm0000gn/T//ccWixtG4.s 			page 32


 909 031f 23030000 		.4byte	0x323
 910 0323 0B       		.uleb128 0xb
 911 0324 5B040000 		.4byte	.LASF61
 912 0328 14       		.byte	0x14
 913 0329 07       		.byte	0x7
 914 032a 6B01     		.2byte	0x16b
 915 032c 72030000 		.4byte	0x372
 916 0330 09       		.uleb128 0x9
 917 0331 56020000 		.4byte	.LASF62
 918 0335 07       		.byte	0x7
 919 0336 6C01     		.2byte	0x16c
 920 0338 FA050000 		.4byte	0x5fa
 921 033c 00       		.byte	0
 922 033d 09       		.uleb128 0x9
 923 033e 24020000 		.4byte	.LASF63
 924 0342 07       		.byte	0x7
 925 0343 6D01     		.2byte	0x16d
 926 0345 FA050000 		.4byte	0x5fa
 927 0349 04       		.byte	0x4
 928 034a 09       		.uleb128 0x9
 929 034b A8040000 		.4byte	.LASF64
 930 034f 07       		.byte	0x7
 931 0350 6E01     		.2byte	0x16e
 932 0352 2B010000 		.4byte	0x12b
 933 0356 08       		.byte	0x8
 934 0357 09       		.uleb128 0x9
 935 0358 59060000 		.4byte	.LASF65
 936 035c 07       		.byte	0x7
 937 035d 6F01     		.2byte	0x16f
 938 035f FA020000 		.4byte	0x2fa
 939 0363 0C       		.byte	0xc
 940 0364 09       		.uleb128 0x9
 941 0365 99050000 		.4byte	.LASF66
 942 0369 07       		.byte	0x7
 943 036a 7101     		.2byte	0x171
 944 036c 16030000 		.4byte	0x316
 945 0370 10       		.byte	0x10
 946 0371 00       		.byte	0
 947 0372 03       		.uleb128 0x3
 948 0373 61010000 		.4byte	.LASF67
 949 0377 06       		.byte	0x6
 950 0378 66       		.byte	0x66
 951 0379 7D030000 		.4byte	0x37d
 952 037d 0B       		.uleb128 0xb
 953 037e 2F030000 		.4byte	.LASF68
 954 0382 10       		.byte	0x10
 955 0383 07       		.byte	0x7
 956 0384 7B01     		.2byte	0x17b
 957 0386 BF030000 		.4byte	0x3bf
 958 038a 09       		.uleb128 0x9
 959 038b 56020000 		.4byte	.LASF62
 960 038f 07       		.byte	0x7
 961 0390 7C01     		.2byte	0x17c
 962 0392 FA050000 		.4byte	0x5fa
 963 0396 00       		.byte	0
 964 0397 09       		.uleb128 0x9
 965 0398 24020000 		.4byte	.LASF63
ARM GAS  /var/folders/c6/c789hm653lg9vtl73krp73tm0000gn/T//ccWixtG4.s 			page 33


 966 039c 07       		.byte	0x7
 967 039d 7E01     		.2byte	0x17e
 968 039f FA050000 		.4byte	0x5fa
 969 03a3 04       		.byte	0x4
 970 03a4 09       		.uleb128 0x9
 971 03a5 A8040000 		.4byte	.LASF64
 972 03a9 07       		.byte	0x7
 973 03aa 8001     		.2byte	0x180
 974 03ac 2B010000 		.4byte	0x12b
 975 03b0 08       		.byte	0x8
 976 03b1 09       		.uleb128 0x9
 977 03b2 4E030000 		.4byte	.LASF69
 978 03b6 07       		.byte	0x7
 979 03b7 8801     		.2byte	0x188
 980 03b9 2B010000 		.4byte	0x12b
 981 03bd 0C       		.byte	0xc
 982 03be 00       		.byte	0
 983 03bf 03       		.uleb128 0x3
 984 03c0 1A010000 		.4byte	.LASF70
 985 03c4 06       		.byte	0x6
 986 03c5 6B       		.byte	0x6b
 987 03c6 CA030000 		.4byte	0x3ca
 988 03ca 0B       		.uleb128 0xb
 989 03cb EF030000 		.4byte	.LASF71
 990 03cf 04       		.byte	0x4
 991 03d0 07       		.byte	0x7
 992 03d1 A201     		.2byte	0x1a2
 993 03d3 E5030000 		.4byte	0x3e5
 994 03d7 09       		.uleb128 0x9
 995 03d8 69050000 		.4byte	.LASF72
 996 03dc 07       		.byte	0x7
 997 03dd AA01     		.2byte	0x1aa
 998 03df 00060000 		.4byte	0x600
 999 03e3 00       		.byte	0
 1000 03e4 00       		.byte	0
 1001 03e5 03       		.uleb128 0x3
 1002 03e6 B5020000 		.4byte	.LASF73
 1003 03ea 06       		.byte	0x6
 1004 03eb 70       		.byte	0x70
 1005 03ec F0030000 		.4byte	0x3f0
 1006 03f0 0F       		.uleb128 0xf
 1007 03f1 D3010000 		.4byte	.LASF74
 1008 03f5 5001     		.2byte	0x150
 1009 03f7 07       		.byte	0x7
 1010 03f8 C201     		.2byte	0x1c2
 1011 03fa 4C040000 		.4byte	0x44c
 1012 03fe 09       		.uleb128 0x9
 1013 03ff C3050000 		.4byte	.LASF75
 1014 0403 07       		.byte	0x7
 1015 0404 C601     		.2byte	0x1c6
 1016 0406 93020000 		.4byte	0x293
 1017 040a 00       		.byte	0
 1018 040b 09       		.uleb128 0x9
 1019 040c C6010000 		.4byte	.LASF76
 1020 0410 07       		.byte	0x7
 1021 0411 CA01     		.2byte	0x1ca
 1022 0413 72030000 		.4byte	0x372
ARM GAS  /var/folders/c6/c789hm653lg9vtl73krp73tm0000gn/T//ccWixtG4.s 			page 34


 1023 0417 1C       		.byte	0x1c
 1024 0418 08       		.uleb128 0x8
 1025 0419 64626700 		.ascii	"dbg\000"
 1026 041d 07       		.byte	0x7
 1027 041e CE01     		.2byte	0x1ce
 1028 0420 BF030000 		.4byte	0x3bf
 1029 0424 2C       		.byte	0x2c
 1030 0425 09       		.uleb128 0x9
 1031 0426 56010000 		.4byte	.LASF77
 1032 042a 07       		.byte	0x7
 1033 042b D201     		.2byte	0x1d2
 1034 042d 36010000 		.4byte	0x136
 1035 0431 30       		.byte	0x30
 1036 0432 08       		.uleb128 0x8
 1037 0433 746D00   		.ascii	"tm\000"
 1038 0436 07       		.byte	0x7
 1039 0437 D701     		.2byte	0x1d7
 1040 0439 18050000 		.4byte	0x518
 1041 043d 74       		.byte	0x74
 1042 043e 09       		.uleb128 0x9
 1043 043f 34020000 		.4byte	.LASF78
 1044 0443 07       		.byte	0x7
 1045 0444 E301     		.2byte	0x1e3
 1046 0446 05060000 		.4byte	0x605
 1047 044a 78       		.byte	0x78
 1048 044b 00       		.byte	0
 1049 044c 04       		.uleb128 0x4
 1050 044d 04       		.byte	0x4
 1051 044e 07       		.byte	0x7
 1052 044f 13030000 		.4byte	.LASF79
 1053 0453 03       		.uleb128 0x3
 1054 0454 1B020000 		.4byte	.LASF80
 1055 0458 08       		.byte	0x8
 1056 0459 65       		.byte	0x65
 1057 045a 16030000 		.4byte	0x316
 1058 045e 03       		.uleb128 0x3
 1059 045f FE020000 		.4byte	.LASF81
 1060 0463 08       		.byte	0x8
 1061 0464 6D       		.byte	0x6d
 1062 0465 C3000000 		.4byte	0xc3
 1063 0469 06       		.uleb128 0x6
 1064 046a 83050000 		.4byte	.LASF82
 1065 046e 04       		.byte	0x4
 1066 046f 08       		.byte	0x8
 1067 0470 89       		.byte	0x89
 1068 0471 82040000 		.4byte	0x482
 1069 0475 10       		.uleb128 0x10
 1070 0476 72313300 		.ascii	"r13\000"
 1071 047a 08       		.byte	0x8
 1072 047b 8A       		.byte	0x8a
 1073 047c FD040000 		.4byte	0x4fd
 1074 0480 00       		.byte	0
 1075 0481 00       		.byte	0
 1076 0482 06       		.uleb128 0x6
 1077 0483 0E010000 		.4byte	.LASF83
 1078 0487 24       		.byte	0x24
 1079 0488 09       		.byte	0x9
ARM GAS  /var/folders/c6/c789hm653lg9vtl73krp73tm0000gn/T//ccWixtG4.s 			page 35


 1080 0489 F4       		.byte	0xf4
 1081 048a FD040000 		.4byte	0x4fd
 1082 048e 08       		.uleb128 0x8
 1083 048f 723400   		.ascii	"r4\000"
 1084 0492 09       		.byte	0x9
 1085 0493 0701     		.2byte	0x107
 1086 0495 53040000 		.4byte	0x453
 1087 0499 00       		.byte	0
 1088 049a 08       		.uleb128 0x8
 1089 049b 723500   		.ascii	"r5\000"
 1090 049e 09       		.byte	0x9
 1091 049f 0801     		.2byte	0x108
 1092 04a1 53040000 		.4byte	0x453
 1093 04a5 04       		.byte	0x4
 1094 04a6 08       		.uleb128 0x8
 1095 04a7 723600   		.ascii	"r6\000"
 1096 04aa 09       		.byte	0x9
 1097 04ab 0901     		.2byte	0x109
 1098 04ad 53040000 		.4byte	0x453
 1099 04b1 08       		.byte	0x8
 1100 04b2 08       		.uleb128 0x8
 1101 04b3 723700   		.ascii	"r7\000"
 1102 04b6 09       		.byte	0x9
 1103 04b7 0A01     		.2byte	0x10a
 1104 04b9 53040000 		.4byte	0x453
 1105 04bd 0C       		.byte	0xc
 1106 04be 08       		.uleb128 0x8
 1107 04bf 723800   		.ascii	"r8\000"
 1108 04c2 09       		.byte	0x9
 1109 04c3 0B01     		.2byte	0x10b
 1110 04c5 53040000 		.4byte	0x453
 1111 04c9 10       		.byte	0x10
 1112 04ca 08       		.uleb128 0x8
 1113 04cb 723900   		.ascii	"r9\000"
 1114 04ce 09       		.byte	0x9
 1115 04cf 0C01     		.2byte	0x10c
 1116 04d1 53040000 		.4byte	0x453
 1117 04d5 14       		.byte	0x14
 1118 04d6 08       		.uleb128 0x8
 1119 04d7 72313000 		.ascii	"r10\000"
 1120 04db 09       		.byte	0x9
 1121 04dc 0D01     		.2byte	0x10d
 1122 04de 53040000 		.4byte	0x453
 1123 04e2 18       		.byte	0x18
 1124 04e3 08       		.uleb128 0x8
 1125 04e4 72313100 		.ascii	"r11\000"
 1126 04e8 09       		.byte	0x9
 1127 04e9 0E01     		.2byte	0x10e
 1128 04eb 53040000 		.4byte	0x453
 1129 04ef 1C       		.byte	0x1c
 1130 04f0 08       		.uleb128 0x8
 1131 04f1 6C7200   		.ascii	"lr\000"
 1132 04f4 09       		.byte	0x9
 1133 04f5 0F01     		.2byte	0x10f
 1134 04f7 53040000 		.4byte	0x453
 1135 04fb 20       		.byte	0x20
 1136 04fc 00       		.byte	0
ARM GAS  /var/folders/c6/c789hm653lg9vtl73krp73tm0000gn/T//ccWixtG4.s 			page 36


 1137 04fd 0A       		.uleb128 0xa
 1138 04fe 04       		.byte	0x4
 1139 04ff 82040000 		.4byte	0x482
 1140 0503 11       		.uleb128 0x11
 1141 0504 04       		.byte	0x4
 1142 0505 0A       		.byte	0xa
 1143 0506 38       		.byte	0x38
 1144 0507 18050000 		.4byte	0x518
 1145 050b 07       		.uleb128 0x7
 1146 050c 73050000 		.4byte	.LASF84
 1147 0510 0A       		.byte	0xa
 1148 0511 3C       		.byte	0x3c
 1149 0512 D3000000 		.4byte	0xd3
 1150 0516 00       		.byte	0
 1151 0517 00       		.byte	0
 1152 0518 03       		.uleb128 0x3
 1153 0519 77030000 		.4byte	.LASF85
 1154 051d 0A       		.byte	0xa
 1155 051e 3D       		.byte	0x3d
 1156 051f 03050000 		.4byte	0x503
 1157 0523 12       		.uleb128 0x12
 1158 0524 04       		.byte	0x4
 1159 0525 07       		.byte	0x7
 1160 0526 FA       		.byte	0xfa
 1161 0527 80050000 		.4byte	0x580
 1162 052b 13       		.uleb128 0x13
 1163 052c F4000000 		.4byte	.LASF86
 1164 0530 07       		.byte	0x7
 1165 0531 0101     		.2byte	0x101
 1166 0533 0A010000 		.4byte	0x10a
 1167 0537 13       		.uleb128 0x13
 1168 0538 4D010000 		.4byte	.LASF87
 1169 053c 07       		.byte	0x7
 1170 053d 0801     		.2byte	0x108
 1171 053f 0A010000 		.4byte	0x10a
 1172 0543 13       		.uleb128 0x13
 1173 0544 E8050000 		.4byte	.LASF88
 1174 0548 07       		.byte	0x7
 1175 0549 0F01     		.2byte	0x10f
 1176 054b 16030000 		.4byte	0x316
 1177 054f 13       		.uleb128 0x13
 1178 0550 CD010000 		.4byte	.LASF89
 1179 0554 07       		.byte	0x7
 1180 0555 1601     		.2byte	0x116
 1181 0557 80050000 		.4byte	0x580
 1182 055b 13       		.uleb128 0x13
 1183 055c 5E020000 		.4byte	.LASF90
 1184 0560 07       		.byte	0x7
 1185 0561 1E01     		.2byte	0x11e
 1186 0563 AB050000 		.4byte	0x5ab
 1187 0567 13       		.uleb128 0x13
 1188 0568 96040000 		.4byte	.LASF91
 1189 056c 07       		.byte	0x7
 1190 056d 2701     		.2byte	0x127
 1191 056f E2050000 		.4byte	0x5e2
 1192 0573 13       		.uleb128 0x13
 1193 0574 3E040000 		.4byte	.LASF92
ARM GAS  /var/folders/c6/c789hm653lg9vtl73krp73tm0000gn/T//ccWixtG4.s 			page 37


 1194 0578 07       		.byte	0x7
 1195 0579 2F01     		.2byte	0x12f
 1196 057b 15010000 		.4byte	0x115
 1197 057f 00       		.byte	0
 1198 0580 0A       		.uleb128 0xa
 1199 0581 04       		.byte	0x4
 1200 0582 2E020000 		.4byte	0x22e
 1201 0586 06       		.uleb128 0x6
 1202 0587 75040000 		.4byte	.LASF93
 1203 058b 0C       		.byte	0xc
 1204 058c 0B       		.byte	0xb
 1205 058d 34       		.byte	0x34
 1206 058e AB050000 		.4byte	0x5ab
 1207 0592 07       		.uleb128 0x7
 1208 0593 FF010000 		.4byte	.LASF94
 1209 0597 0B       		.byte	0xb
 1210 0598 35       		.byte	0x35
 1211 0599 63020000 		.4byte	0x263
 1212 059d 00       		.byte	0
 1213 059e 07       		.uleb128 0x7
 1214 059f 8C020000 		.4byte	.LASF95
 1215 05a3 0B       		.byte	0xb
 1216 05a4 37       		.byte	0x37
 1217 05a5 20010000 		.4byte	0x120
 1218 05a9 08       		.byte	0x8
 1219 05aa 00       		.byte	0
 1220 05ab 0A       		.uleb128 0xa
 1221 05ac 04       		.byte	0x4
 1222 05ad 86050000 		.4byte	0x586
 1223 05b1 06       		.uleb128 0x6
 1224 05b2 7A050000 		.4byte	.LASF96
 1225 05b6 10       		.byte	0x10
 1226 05b7 0C       		.byte	0xc
 1227 05b8 39       		.byte	0x39
 1228 05b9 E2050000 		.4byte	0x5e2
 1229 05bd 07       		.uleb128 0x7
 1230 05be BE010000 		.4byte	.LASF97
 1231 05c2 0C       		.byte	0xc
 1232 05c3 3A       		.byte	0x3a
 1233 05c4 63020000 		.4byte	0x263
 1234 05c8 00       		.byte	0
 1235 05c9 07       		.uleb128 0x7
 1236 05ca 4B060000 		.4byte	.LASF98
 1237 05ce 0C       		.byte	0xc
 1238 05cf 3C       		.byte	0x3c
 1239 05d0 39020000 		.4byte	0x239
 1240 05d4 08       		.byte	0x8
 1241 05d5 07       		.uleb128 0x7
 1242 05d6 39050000 		.4byte	.LASF99
 1243 05da 0C       		.byte	0xc
 1244 05db 3E       		.byte	0x3e
 1245 05dc 20060000 		.4byte	0x620
 1246 05e0 0C       		.byte	0xc
 1247 05e1 00       		.byte	0
 1248 05e2 0A       		.uleb128 0xa
 1249 05e3 04       		.byte	0x4
 1250 05e4 B1050000 		.4byte	0x5b1
ARM GAS  /var/folders/c6/c789hm653lg9vtl73krp73tm0000gn/T//ccWixtG4.s 			page 38


 1251 05e8 0A       		.uleb128 0xa
 1252 05e9 04       		.byte	0x4
 1253 05ea EE050000 		.4byte	0x5ee
 1254 05ee 14       		.uleb128 0x14
 1255 05ef F3050000 		.4byte	0x5f3
 1256 05f3 04       		.uleb128 0x4
 1257 05f4 01       		.byte	0x1
 1258 05f5 08       		.byte	0x8
 1259 05f6 1E050000 		.4byte	.LASF100
 1260 05fa 0A       		.uleb128 0xa
 1261 05fb 04       		.byte	0x4
 1262 05fc 18030000 		.4byte	0x318
 1263 0600 05       		.uleb128 0x5
 1264 0601 E8050000 		.4byte	0x5e8
 1265 0605 15       		.uleb128 0x15
 1266 0606 5E040000 		.4byte	0x45e
 1267 060a 15060000 		.4byte	0x615
 1268 060e 16       		.uleb128 0x16
 1269 060f 4C040000 		.4byte	0x44c
 1270 0613 1A       		.byte	0x1a
 1271 0614 00       		.byte	0
 1272 0615 03       		.uleb128 0x3
 1273 0616 2C020000 		.4byte	.LASF101
 1274 061a 0C       		.byte	0xc
 1275 061b 34       		.byte	0x34
 1276 061c B1050000 		.4byte	0x5b1
 1277 0620 0A       		.uleb128 0xa
 1278 0621 04       		.byte	0x4
 1279 0622 15060000 		.4byte	0x615
 1280 0626 03       		.uleb128 0x3
 1281 0627 29010000 		.4byte	.LASF102
 1282 062b 0D       		.byte	0xd
 1283 062c 36       		.byte	0x36
 1284 062d 31060000 		.4byte	0x631
 1285 0631 0A       		.uleb128 0xa
 1286 0632 04       		.byte	0x4
 1287 0633 37060000 		.4byte	0x637
 1288 0637 17       		.uleb128 0x17
 1289 0638 16030000 		.4byte	0x316
 1290 063c 46060000 		.4byte	0x646
 1291 0640 0D       		.uleb128 0xd
 1292 0641 2C000000 		.4byte	0x2c
 1293 0645 00       		.byte	0
 1294 0646 06       		.uleb128 0x6
 1295 0647 B0050000 		.4byte	.LASF103
 1296 064b 04       		.byte	0x4
 1297 064c 0E       		.byte	0xe
 1298 064d 38       		.byte	0x38
 1299 064e 5F060000 		.4byte	0x65f
 1300 0652 07       		.uleb128 0x7
 1301 0653 B8030000 		.4byte	.LASF104
 1302 0657 0E       		.byte	0xe
 1303 0658 39       		.byte	0x39
 1304 0659 5F060000 		.4byte	0x65f
 1305 065d 00       		.byte	0
 1306 065e 00       		.byte	0
 1307 065f 0A       		.uleb128 0xa
ARM GAS  /var/folders/c6/c789hm653lg9vtl73krp73tm0000gn/T//ccWixtG4.s 			page 39


 1308 0660 04       		.byte	0x4
 1309 0661 46060000 		.4byte	0x646
 1310 0665 11       		.uleb128 0x11
 1311 0666 0C       		.byte	0xc
 1312 0667 0E       		.byte	0xe
 1313 0668 40       		.byte	0x40
 1314 0669 92060000 		.4byte	0x692
 1315 066d 07       		.uleb128 0x7
 1316 066e EF010000 		.4byte	.LASF105
 1317 0672 0E       		.byte	0xe
 1318 0673 41       		.byte	0x41
 1319 0674 5F060000 		.4byte	0x65f
 1320 0678 00       		.byte	0
 1321 0679 07       		.uleb128 0x7
 1322 067a 68030000 		.4byte	.LASF106
 1323 067e 0E       		.byte	0xe
 1324 067f 42       		.byte	0x42
 1325 0680 2C000000 		.4byte	0x2c
 1326 0684 04       		.byte	0x4
 1327 0685 07       		.uleb128 0x7
 1328 0686 0F020000 		.4byte	.LASF107
 1329 068a 0E       		.byte	0xe
 1330 068b 44       		.byte	0x44
 1331 068c 26060000 		.4byte	0x626
 1332 0690 08       		.byte	0x8
 1333 0691 00       		.byte	0
 1334 0692 03       		.uleb128 0x3
 1335 0693 79020000 		.4byte	.LASF108
 1336 0697 0E       		.byte	0xe
 1337 0698 46       		.byte	0x46
 1338 0699 65060000 		.4byte	0x665
 1339 069d 06       		.uleb128 0x6
 1340 069e 6C040000 		.4byte	.LASF109
 1341 06a2 10       		.byte	0x10
 1342 06a3 0F       		.byte	0xf
 1343 06a4 3B       		.byte	0x3b
 1344 06a5 DA060000 		.4byte	0x6da
 1345 06a9 07       		.uleb128 0x7
 1346 06aa 87020000 		.4byte	.LASF110
 1347 06ae 0F       		.byte	0xf
 1348 06af 3C       		.byte	0x3c
 1349 06b0 E8050000 		.4byte	0x5e8
 1350 06b4 00       		.byte	0
 1351 06b5 07       		.uleb128 0x7
 1352 06b6 88030000 		.4byte	.LASF111
 1353 06ba 0F       		.byte	0xf
 1354 06bb 3D       		.byte	0x3d
 1355 06bc DB060000 		.4byte	0x6db
 1356 06c0 04       		.byte	0x4
 1357 06c1 07       		.uleb128 0x7
 1358 06c2 70020000 		.4byte	.LASF112
 1359 06c6 0F       		.byte	0xf
 1360 06c7 3E       		.byte	0x3e
 1361 06c8 DB060000 		.4byte	0x6db
 1362 06cc 08       		.byte	0x8
 1363 06cd 07       		.uleb128 0x7
 1364 06ce DF030000 		.4byte	.LASF113
ARM GAS  /var/folders/c6/c789hm653lg9vtl73krp73tm0000gn/T//ccWixtG4.s 			page 40


 1365 06d2 0F       		.byte	0xf
 1366 06d3 3F       		.byte	0x3f
 1367 06d4 DB060000 		.4byte	0x6db
 1368 06d8 0C       		.byte	0xc
 1369 06d9 00       		.byte	0
 1370 06da 18       		.uleb128 0x18
 1371 06db 0A       		.uleb128 0xa
 1372 06dc 04       		.byte	0x4
 1373 06dd DA060000 		.4byte	0x6da
 1374 06e1 19       		.uleb128 0x19
 1375 06e2 61060000 		.4byte	.LASF125
 1376 06e6 01       		.byte	0x1
 1377 06e7 47       		.byte	0x47
 1378 06e8 01       		.byte	0x1
 1379 06e9 F7060000 		.4byte	0x6f7
 1380 06ed 1A       		.uleb128 0x1a
 1381 06ee 6900     		.ascii	"i\000"
 1382 06f0 01       		.byte	0x1
 1383 06f1 48       		.byte	0x48
 1384 06f2 25000000 		.4byte	0x25
 1385 06f6 00       		.byte	0
 1386 06f7 1B       		.uleb128 0x1b
 1387 06f8 EF050000 		.4byte	.LASF126
 1388 06fc 01       		.byte	0x1
 1389 06fd 3C       		.byte	0x3c
 1390 06fe 16030000 		.4byte	0x316
 1391 0702 00000000 		.4byte	.LFB229
 1392 0706 04000000 		.4byte	.LFE229-.LFB229
 1393 070a 01       		.uleb128 0x1
 1394 070b 9C       		.byte	0x9c
 1395 070c 20070000 		.4byte	0x720
 1396 0710 1C       		.uleb128 0x1c
 1397 0711 FD050000 		.4byte	.LASF127
 1398 0715 01       		.byte	0x1
 1399 0716 3C       		.byte	0x3c
 1400 0717 2C000000 		.4byte	0x2c
 1401 071b 00000000 		.4byte	.LLST0
 1402 071f 00       		.byte	0
 1403 0720 1D       		.uleb128 0x1d
 1404 0721 23050000 		.4byte	.LASF128
 1405 0725 01       		.byte	0x1
 1406 0726 42       		.byte	0x42
 1407 0727 00000000 		.4byte	.LFB230
 1408 072b 10000000 		.4byte	.LFE230-.LFB230
 1409 072f 01       		.uleb128 0x1
 1410 0730 9C       		.byte	0x9c
 1411 0731 55070000 		.4byte	0x755
 1412 0735 1E       		.uleb128 0x1e
 1413 0736 0C000000 		.4byte	.LVL2
 1414 073a 4F090000 		.4byte	0x94f
 1415 073e 1F       		.uleb128 0x1f
 1416 073f 01       		.uleb128 0x1
 1417 0740 52       		.byte	0x52
 1418 0741 01       		.uleb128 0x1
 1419 0742 30       		.byte	0x30
 1420 0743 1F       		.uleb128 0x1f
 1421 0744 01       		.uleb128 0x1
ARM GAS  /var/folders/c6/c789hm653lg9vtl73krp73tm0000gn/T//ccWixtG4.s 			page 41


 1422 0745 51       		.byte	0x51
 1423 0746 03       		.uleb128 0x3
 1424 0747 0A       		.byte	0xa
 1425 0748 4801     		.2byte	0x148
 1426 074a 1F       		.uleb128 0x1f
 1427 074b 01       		.uleb128 0x1
 1428 074c 50       		.byte	0x50
 1429 074d 05       		.uleb128 0x5
 1430 074e 03       		.byte	0x3
 1431 074f 00000000 		.4byte	.LANCHOR0
 1432 0753 00       		.byte	0
 1433 0754 00       		.byte	0
 1434 0755 20       		.uleb128 0x20
 1435 0756 E1060000 		.4byte	0x6e1
 1436 075a 00000000 		.4byte	.LFB231
 1437 075e C0000000 		.4byte	.LFE231-.LFB231
 1438 0762 01       		.uleb128 0x1
 1439 0763 9C       		.byte	0x9c
 1440 0764 CB080000 		.4byte	0x8cb
 1441 0768 21       		.uleb128 0x21
 1442 0769 ED060000 		.4byte	0x6ed
 1443 076d 21000000 		.4byte	.LLST1
 1444 0771 22       		.uleb128 0x22
 1445 0772 00000000 		.4byte	.Ldebug_ranges0+0
 1446 0776 58080000 		.4byte	0x858
 1447 077a 21       		.uleb128 0x21
 1448 077b ED060000 		.4byte	0x6ed
 1449 077f 62000000 		.4byte	.LLST2
 1450 0783 23       		.uleb128 0x23
 1451 0784 4E000000 		.4byte	.LVL11
 1452 0788 70090000 		.4byte	0x970
 1453 078c A1070000 		.4byte	0x7a1
 1454 0790 1F       		.uleb128 0x1f
 1455 0791 01       		.uleb128 0x1
 1456 0792 51       		.byte	0x51
 1457 0793 03       		.uleb128 0x3
 1458 0794 74       		.byte	0x74
 1459 0795 00       		.sleb128 0
 1460 0796 06       		.byte	0x6
 1461 0797 1F       		.uleb128 0x1f
 1462 0798 01       		.uleb128 0x1
 1463 0799 50       		.byte	0x50
 1464 079a 05       		.uleb128 0x5
 1465 079b 03       		.byte	0x3
 1466 079c 00000000 		.4byte	.LANCHOR0
 1467 07a0 00       		.byte	0
 1468 07a1 23       		.uleb128 0x23
 1469 07a2 5C000000 		.4byte	.LVL12
 1470 07a6 70090000 		.4byte	0x970
 1471 07aa B8070000 		.4byte	0x7b8
 1472 07ae 1F       		.uleb128 0x1f
 1473 07af 01       		.uleb128 0x1
 1474 07b0 50       		.byte	0x50
 1475 07b1 05       		.uleb128 0x5
 1476 07b2 03       		.byte	0x3
 1477 07b3 00000000 		.4byte	.LANCHOR0
 1478 07b7 00       		.byte	0
ARM GAS  /var/folders/c6/c789hm653lg9vtl73krp73tm0000gn/T//ccWixtG4.s 			page 42


 1479 07b8 23       		.uleb128 0x23
 1480 07b9 68000000 		.4byte	.LVL14
 1481 07bd 86090000 		.4byte	0x986
 1482 07c1 CF070000 		.4byte	0x7cf
 1483 07c5 1F       		.uleb128 0x1f
 1484 07c6 01       		.uleb128 0x1
 1485 07c7 50       		.byte	0x50
 1486 07c8 05       		.uleb128 0x5
 1487 07c9 03       		.byte	0x3
 1488 07ca 00000000 		.4byte	.LANCHOR0
 1489 07ce 00       		.byte	0
 1490 07cf 23       		.uleb128 0x23
 1491 07d0 74000000 		.4byte	.LVL15
 1492 07d4 9B090000 		.4byte	0x99b
 1493 07d8 E2070000 		.4byte	0x7e2
 1494 07dc 1F       		.uleb128 0x1f
 1495 07dd 01       		.uleb128 0x1
 1496 07de 50       		.byte	0x50
 1497 07df 01       		.uleb128 0x1
 1498 07e0 33       		.byte	0x33
 1499 07e1 00       		.byte	0
 1500 07e2 23       		.uleb128 0x23
 1501 07e3 80000000 		.4byte	.LVL17
 1502 07e7 86090000 		.4byte	0x986
 1503 07eb F9070000 		.4byte	0x7f9
 1504 07ef 1F       		.uleb128 0x1f
 1505 07f0 01       		.uleb128 0x1
 1506 07f1 50       		.byte	0x50
 1507 07f2 05       		.uleb128 0x5
 1508 07f3 03       		.byte	0x3
 1509 07f4 00000000 		.4byte	.LANCHOR0
 1510 07f8 00       		.byte	0
 1511 07f9 23       		.uleb128 0x23
 1512 07fa 8E000000 		.4byte	.LVL18
 1513 07fe 9B090000 		.4byte	0x99b
 1514 0802 0C080000 		.4byte	0x80c
 1515 0806 1F       		.uleb128 0x1f
 1516 0807 01       		.uleb128 0x1
 1517 0808 50       		.byte	0x50
 1518 0809 01       		.uleb128 0x1
 1519 080a 34       		.byte	0x34
 1520 080b 00       		.byte	0
 1521 080c 23       		.uleb128 0x23
 1522 080d 9C000000 		.4byte	.LVL21
 1523 0811 4F090000 		.4byte	0x94f
 1524 0815 31080000 		.4byte	0x831
 1525 0819 1F       		.uleb128 0x1f
 1526 081a 01       		.uleb128 0x1
 1527 081b 52       		.byte	0x52
 1528 081c 05       		.uleb128 0x5
 1529 081d 03       		.byte	0x3
 1530 081e 00000000 		.4byte	null_provider
 1531 0822 1F       		.uleb128 0x1f
 1532 0823 01       		.uleb128 0x1
 1533 0824 51       		.byte	0x51
 1534 0825 01       		.uleb128 0x1
 1535 0826 40       		.byte	0x40
ARM GAS  /var/folders/c6/c789hm653lg9vtl73krp73tm0000gn/T//ccWixtG4.s 			page 43


 1536 0827 1F       		.uleb128 0x1f
 1537 0828 01       		.uleb128 0x1
 1538 0829 50       		.byte	0x50
 1539 082a 05       		.uleb128 0x5
 1540 082b 03       		.byte	0x3
 1541 082c 00000000 		.4byte	.LANCHOR0
 1542 0830 00       		.byte	0
 1543 0831 23       		.uleb128 0x23
 1544 0832 A2000000 		.4byte	.LVL22
 1545 0836 86090000 		.4byte	0x986
 1546 083a 48080000 		.4byte	0x848
 1547 083e 1F       		.uleb128 0x1f
 1548 083f 01       		.uleb128 0x1
 1549 0840 50       		.byte	0x50
 1550 0841 05       		.uleb128 0x5
 1551 0842 03       		.byte	0x3
 1552 0843 00000000 		.4byte	.LANCHOR0
 1553 0847 00       		.byte	0
 1554 0848 1E       		.uleb128 0x1e
 1555 0849 B4000000 		.4byte	.LVL24
 1556 084d 9B090000 		.4byte	0x99b
 1557 0851 1F       		.uleb128 0x1f
 1558 0852 01       		.uleb128 0x1
 1559 0853 50       		.byte	0x50
 1560 0854 01       		.uleb128 0x1
 1561 0855 35       		.byte	0x35
 1562 0856 00       		.byte	0
 1563 0857 00       		.byte	0
 1564 0858 23       		.uleb128 0x23
 1565 0859 10000000 		.4byte	.LVL3
 1566 085d BC090000 		.4byte	0x9bc
 1567 0861 7A080000 		.4byte	0x87a
 1568 0865 1F       		.uleb128 0x1f
 1569 0866 01       		.uleb128 0x1
 1570 0867 52       		.byte	0x52
 1571 0868 01       		.uleb128 0x1
 1572 0869 35       		.byte	0x35
 1573 086a 1F       		.uleb128 0x1f
 1574 086b 01       		.uleb128 0x1
 1575 086c 51       		.byte	0x51
 1576 086d 02       		.uleb128 0x2
 1577 086e 75       		.byte	0x75
 1578 086f 00       		.sleb128 0
 1579 0870 1F       		.uleb128 0x1f
 1580 0871 01       		.uleb128 0x1
 1581 0872 50       		.byte	0x50
 1582 0873 05       		.uleb128 0x5
 1583 0874 03       		.byte	0x3
 1584 0875 00000000 		.4byte	.LANCHOR0
 1585 0879 00       		.byte	0
 1586 087a 23       		.uleb128 0x23
 1587 087b 18000000 		.4byte	.LVL5
 1588 087f 86090000 		.4byte	0x986
 1589 0883 91080000 		.4byte	0x891
 1590 0887 1F       		.uleb128 0x1f
 1591 0888 01       		.uleb128 0x1
 1592 0889 50       		.byte	0x50
ARM GAS  /var/folders/c6/c789hm653lg9vtl73krp73tm0000gn/T//ccWixtG4.s 			page 44


 1593 088a 05       		.uleb128 0x5
 1594 088b 03       		.byte	0x3
 1595 088c 00000000 		.4byte	.LANCHOR0
 1596 0890 00       		.byte	0
 1597 0891 23       		.uleb128 0x23
 1598 0892 24000000 		.4byte	.LVL6
 1599 0896 9B090000 		.4byte	0x99b
 1600 089a A4080000 		.4byte	0x8a4
 1601 089e 1F       		.uleb128 0x1f
 1602 089f 01       		.uleb128 0x1
 1603 08a0 50       		.byte	0x50
 1604 08a1 01       		.uleb128 0x1
 1605 08a2 31       		.byte	0x31
 1606 08a3 00       		.byte	0
 1607 08a4 23       		.uleb128 0x23
 1608 08a5 30000000 		.4byte	.LVL8
 1609 08a9 86090000 		.4byte	0x986
 1610 08ad BB080000 		.4byte	0x8bb
 1611 08b1 1F       		.uleb128 0x1f
 1612 08b2 01       		.uleb128 0x1
 1613 08b3 50       		.byte	0x50
 1614 08b4 05       		.uleb128 0x5
 1615 08b5 03       		.byte	0x3
 1616 08b6 00000000 		.4byte	.LANCHOR0
 1617 08ba 00       		.byte	0
 1618 08bb 24       		.uleb128 0x24
 1619 08bc 3E000000 		.4byte	.LVL9
 1620 08c0 9B090000 		.4byte	0x99b
 1621 08c4 1F       		.uleb128 0x1f
 1622 08c5 01       		.uleb128 0x1
 1623 08c6 50       		.byte	0x50
 1624 08c7 01       		.uleb128 0x1
 1625 08c8 32       		.byte	0x32
 1626 08c9 00       		.byte	0
 1627 08ca 00       		.byte	0
 1628 08cb 25       		.uleb128 0x25
 1629 08cc 6D703100 		.ascii	"mp1\000"
 1630 08d0 01       		.byte	0x1
 1631 08d1 31       		.byte	0x31
 1632 08d2 92060000 		.4byte	0x692
 1633 08d6 05       		.uleb128 0x5
 1634 08d7 03       		.byte	0x3
 1635 08d8 00000000 		.4byte	mp1
 1636 08dc 26       		.uleb128 0x26
 1637 08dd 77010000 		.4byte	.LASF114
 1638 08e1 10       		.byte	0x10
 1639 08e2 A706     		.2byte	0x6a7
 1640 08e4 CE000000 		.4byte	0xce
 1641 08e8 27       		.uleb128 0x27
 1642 08e9 636800   		.ascii	"ch\000"
 1643 08ec 07       		.byte	0x7
 1644 08ed 0902     		.2byte	0x209
 1645 08ef E5030000 		.4byte	0x3e5
 1646 08f3 15       		.uleb128 0x15
 1647 08f4 16030000 		.4byte	0x316
 1648 08f8 FE080000 		.4byte	0x8fe
 1649 08fc 28       		.uleb128 0x28
ARM GAS  /var/folders/c6/c789hm653lg9vtl73krp73tm0000gn/T//ccWixtG4.s 			page 45


 1650 08fd 00       		.byte	0
 1651 08fe 29       		.uleb128 0x29
 1652 08ff 776100   		.ascii	"wa\000"
 1653 0902 0F       		.byte	0xf
 1654 0903 A9       		.byte	0xa9
 1655 0904 08090000 		.4byte	0x908
 1656 0908 14       		.uleb128 0x14
 1657 0909 F3080000 		.4byte	0x8f3
 1658 090d 2A       		.uleb128 0x2a
 1659 090e 9D040000 		.4byte	.LASF115
 1660 0912 01       		.byte	0x1
 1661 0913 64       		.byte	0x64
 1662 0914 1E090000 		.4byte	0x91e
 1663 0918 05       		.uleb128 0x5
 1664 0919 03       		.byte	0x3
 1665 091a 00000000 		.4byte	testpools1
 1666 091e 14       		.uleb128 0x14
 1667 091f 9D060000 		.4byte	0x69d
 1668 0923 15       		.uleb128 0x15
 1669 0924 33090000 		.4byte	0x933
 1670 0928 33090000 		.4byte	0x933
 1671 092c 16       		.uleb128 0x16
 1672 092d 4C040000 		.4byte	0x44c
 1673 0931 01       		.byte	0x1
 1674 0932 00       		.byte	0
 1675 0933 0A       		.uleb128 0xa
 1676 0934 04       		.byte	0x4
 1677 0935 1E090000 		.4byte	0x91e
 1678 0939 2A       		.uleb128 0x2a
 1679 093a A0030000 		.4byte	.LASF116
 1680 093e 01       		.byte	0x1
 1681 093f 70       		.byte	0x70
 1682 0940 4A090000 		.4byte	0x94a
 1683 0944 05       		.uleb128 0x5
 1684 0945 03       		.byte	0x3
 1685 0946 00000000 		.4byte	patternpools
 1686 094a 14       		.uleb128 0x14
 1687 094b 23090000 		.4byte	0x923
 1688 094f 2B       		.uleb128 0x2b
 1689 0950 C9020000 		.4byte	.LASF117
 1690 0954 0E       		.byte	0xe
 1691 0955 6C       		.byte	0x6c
 1692 0956 6A090000 		.4byte	0x96a
 1693 095a 0D       		.uleb128 0xd
 1694 095b 6A090000 		.4byte	0x96a
 1695 095f 0D       		.uleb128 0xd
 1696 0960 2C000000 		.4byte	0x2c
 1697 0964 0D       		.uleb128 0xd
 1698 0965 26060000 		.4byte	0x626
 1699 0969 00       		.byte	0
 1700 096a 0A       		.uleb128 0xa
 1701 096b 04       		.byte	0x4
 1702 096c 92060000 		.4byte	0x692
 1703 0970 2B       		.uleb128 0x2b
 1704 0971 DD050000 		.4byte	.LASF118
 1705 0975 0E       		.byte	0xe
 1706 0976 71       		.byte	0x71
ARM GAS  /var/folders/c6/c789hm653lg9vtl73krp73tm0000gn/T//ccWixtG4.s 			page 46


 1707 0977 86090000 		.4byte	0x986
 1708 097b 0D       		.uleb128 0xd
 1709 097c 6A090000 		.4byte	0x96a
 1710 0980 0D       		.uleb128 0xd
 1711 0981 16030000 		.4byte	0x316
 1712 0985 00       		.byte	0
 1713 0986 2C       		.uleb128 0x2c
 1714 0987 D1050000 		.4byte	.LASF119
 1715 098b 0E       		.byte	0xe
 1716 098c 6F       		.byte	0x6f
 1717 098d 16030000 		.4byte	0x316
 1718 0991 9B090000 		.4byte	0x99b
 1719 0995 0D       		.uleb128 0xd
 1720 0996 6A090000 		.4byte	0x96a
 1721 099a 00       		.byte	0
 1722 099b 2C       		.uleb128 0x2c
 1723 099c 02060000 		.4byte	.LASF120
 1724 09a0 0F       		.byte	0xf
 1725 09a1 5A       		.byte	0x5a
 1726 09a2 B5090000 		.4byte	0x9b5
 1727 09a6 B5090000 		.4byte	0x9b5
 1728 09aa 0D       		.uleb128 0xd
 1729 09ab 37000000 		.4byte	0x37
 1730 09af 0D       		.uleb128 0xd
 1731 09b0 B5090000 		.4byte	0x9b5
 1732 09b4 00       		.byte	0
 1733 09b5 04       		.uleb128 0x4
 1734 09b6 01       		.byte	0x1
 1735 09b7 02       		.byte	0x2
 1736 09b8 FF030000 		.4byte	.LASF121
 1737 09bc 2D       		.uleb128 0x2d
 1738 09bd 3B060000 		.4byte	.LASF129
 1739 09c1 0E       		.byte	0xe
 1740 09c2 6D       		.byte	0x6d
 1741 09c3 0D       		.uleb128 0xd
 1742 09c4 6A090000 		.4byte	0x96a
 1743 09c8 0D       		.uleb128 0xd
 1744 09c9 16030000 		.4byte	0x316
 1745 09cd 0D       		.uleb128 0xd
 1746 09ce 2C000000 		.4byte	0x2c
 1747 09d2 00       		.byte	0
 1748 09d3 00       		.byte	0
 1749              		.section	.debug_abbrev,"",%progbits
 1750              	.Ldebug_abbrev0:
 1751 0000 01       		.uleb128 0x1
 1752 0001 11       		.uleb128 0x11
 1753 0002 01       		.byte	0x1
 1754 0003 25       		.uleb128 0x25
 1755 0004 0E       		.uleb128 0xe
 1756 0005 13       		.uleb128 0x13
 1757 0006 0B       		.uleb128 0xb
 1758 0007 03       		.uleb128 0x3
 1759 0008 0E       		.uleb128 0xe
 1760 0009 1B       		.uleb128 0x1b
 1761 000a 0E       		.uleb128 0xe
 1762 000b 55       		.uleb128 0x55
 1763 000c 17       		.uleb128 0x17
ARM GAS  /var/folders/c6/c789hm653lg9vtl73krp73tm0000gn/T//ccWixtG4.s 			page 47


 1764 000d 11       		.uleb128 0x11
 1765 000e 01       		.uleb128 0x1
 1766 000f 10       		.uleb128 0x10
 1767 0010 17       		.uleb128 0x17
 1768 0011 00       		.byte	0
 1769 0012 00       		.byte	0
 1770 0013 02       		.uleb128 0x2
 1771 0014 24       		.uleb128 0x24
 1772 0015 00       		.byte	0
 1773 0016 0B       		.uleb128 0xb
 1774 0017 0B       		.uleb128 0xb
 1775 0018 3E       		.uleb128 0x3e
 1776 0019 0B       		.uleb128 0xb
 1777 001a 03       		.uleb128 0x3
 1778 001b 08       		.uleb128 0x8
 1779 001c 00       		.byte	0
 1780 001d 00       		.byte	0
 1781 001e 03       		.uleb128 0x3
 1782 001f 16       		.uleb128 0x16
 1783 0020 00       		.byte	0
 1784 0021 03       		.uleb128 0x3
 1785 0022 0E       		.uleb128 0xe
 1786 0023 3A       		.uleb128 0x3a
 1787 0024 0B       		.uleb128 0xb
 1788 0025 3B       		.uleb128 0x3b
 1789 0026 0B       		.uleb128 0xb
 1790 0027 49       		.uleb128 0x49
 1791 0028 13       		.uleb128 0x13
 1792 0029 00       		.byte	0
 1793 002a 00       		.byte	0
 1794 002b 04       		.uleb128 0x4
 1795 002c 24       		.uleb128 0x24
 1796 002d 00       		.byte	0
 1797 002e 0B       		.uleb128 0xb
 1798 002f 0B       		.uleb128 0xb
 1799 0030 3E       		.uleb128 0x3e
 1800 0031 0B       		.uleb128 0xb
 1801 0032 03       		.uleb128 0x3
 1802 0033 0E       		.uleb128 0xe
 1803 0034 00       		.byte	0
 1804 0035 00       		.byte	0
 1805 0036 05       		.uleb128 0x5
 1806 0037 35       		.uleb128 0x35
 1807 0038 00       		.byte	0
 1808 0039 49       		.uleb128 0x49
 1809 003a 13       		.uleb128 0x13
 1810 003b 00       		.byte	0
 1811 003c 00       		.byte	0
 1812 003d 06       		.uleb128 0x6
 1813 003e 13       		.uleb128 0x13
 1814 003f 01       		.byte	0x1
 1815 0040 03       		.uleb128 0x3
 1816 0041 0E       		.uleb128 0xe
 1817 0042 0B       		.uleb128 0xb
 1818 0043 0B       		.uleb128 0xb
 1819 0044 3A       		.uleb128 0x3a
 1820 0045 0B       		.uleb128 0xb
ARM GAS  /var/folders/c6/c789hm653lg9vtl73krp73tm0000gn/T//ccWixtG4.s 			page 48


 1821 0046 3B       		.uleb128 0x3b
 1822 0047 0B       		.uleb128 0xb
 1823 0048 01       		.uleb128 0x1
 1824 0049 13       		.uleb128 0x13
 1825 004a 00       		.byte	0
 1826 004b 00       		.byte	0
 1827 004c 07       		.uleb128 0x7
 1828 004d 0D       		.uleb128 0xd
 1829 004e 00       		.byte	0
 1830 004f 03       		.uleb128 0x3
 1831 0050 0E       		.uleb128 0xe
 1832 0051 3A       		.uleb128 0x3a
 1833 0052 0B       		.uleb128 0xb
 1834 0053 3B       		.uleb128 0x3b
 1835 0054 0B       		.uleb128 0xb
 1836 0055 49       		.uleb128 0x49
 1837 0056 13       		.uleb128 0x13
 1838 0057 38       		.uleb128 0x38
 1839 0058 0B       		.uleb128 0xb
 1840 0059 00       		.byte	0
 1841 005a 00       		.byte	0
 1842 005b 08       		.uleb128 0x8
 1843 005c 0D       		.uleb128 0xd
 1844 005d 00       		.byte	0
 1845 005e 03       		.uleb128 0x3
 1846 005f 08       		.uleb128 0x8
 1847 0060 3A       		.uleb128 0x3a
 1848 0061 0B       		.uleb128 0xb
 1849 0062 3B       		.uleb128 0x3b
 1850 0063 05       		.uleb128 0x5
 1851 0064 49       		.uleb128 0x49
 1852 0065 13       		.uleb128 0x13
 1853 0066 38       		.uleb128 0x38
 1854 0067 0B       		.uleb128 0xb
 1855 0068 00       		.byte	0
 1856 0069 00       		.byte	0
 1857 006a 09       		.uleb128 0x9
 1858 006b 0D       		.uleb128 0xd
 1859 006c 00       		.byte	0
 1860 006d 03       		.uleb128 0x3
 1861 006e 0E       		.uleb128 0xe
 1862 006f 3A       		.uleb128 0x3a
 1863 0070 0B       		.uleb128 0xb
 1864 0071 3B       		.uleb128 0x3b
 1865 0072 05       		.uleb128 0x5
 1866 0073 49       		.uleb128 0x49
 1867 0074 13       		.uleb128 0x13
 1868 0075 38       		.uleb128 0x38
 1869 0076 0B       		.uleb128 0xb
 1870 0077 00       		.byte	0
 1871 0078 00       		.byte	0
 1872 0079 0A       		.uleb128 0xa
 1873 007a 0F       		.uleb128 0xf
 1874 007b 00       		.byte	0
 1875 007c 0B       		.uleb128 0xb
 1876 007d 0B       		.uleb128 0xb
 1877 007e 49       		.uleb128 0x49
ARM GAS  /var/folders/c6/c789hm653lg9vtl73krp73tm0000gn/T//ccWixtG4.s 			page 49


 1878 007f 13       		.uleb128 0x13
 1879 0080 00       		.byte	0
 1880 0081 00       		.byte	0
 1881 0082 0B       		.uleb128 0xb
 1882 0083 13       		.uleb128 0x13
 1883 0084 01       		.byte	0x1
 1884 0085 03       		.uleb128 0x3
 1885 0086 0E       		.uleb128 0xe
 1886 0087 0B       		.uleb128 0xb
 1887 0088 0B       		.uleb128 0xb
 1888 0089 3A       		.uleb128 0x3a
 1889 008a 0B       		.uleb128 0xb
 1890 008b 3B       		.uleb128 0x3b
 1891 008c 05       		.uleb128 0x5
 1892 008d 01       		.uleb128 0x1
 1893 008e 13       		.uleb128 0x13
 1894 008f 00       		.byte	0
 1895 0090 00       		.byte	0
 1896 0091 0C       		.uleb128 0xc
 1897 0092 15       		.uleb128 0x15
 1898 0093 01       		.byte	0x1
 1899 0094 27       		.uleb128 0x27
 1900 0095 19       		.uleb128 0x19
 1901 0096 01       		.uleb128 0x1
 1902 0097 13       		.uleb128 0x13
 1903 0098 00       		.byte	0
 1904 0099 00       		.byte	0
 1905 009a 0D       		.uleb128 0xd
 1906 009b 05       		.uleb128 0x5
 1907 009c 00       		.byte	0
 1908 009d 49       		.uleb128 0x49
 1909 009e 13       		.uleb128 0x13
 1910 009f 00       		.byte	0
 1911 00a0 00       		.byte	0
 1912 00a1 0E       		.uleb128 0xe
 1913 00a2 0F       		.uleb128 0xf
 1914 00a3 00       		.byte	0
 1915 00a4 0B       		.uleb128 0xb
 1916 00a5 0B       		.uleb128 0xb
 1917 00a6 00       		.byte	0
 1918 00a7 00       		.byte	0
 1919 00a8 0F       		.uleb128 0xf
 1920 00a9 13       		.uleb128 0x13
 1921 00aa 01       		.byte	0x1
 1922 00ab 03       		.uleb128 0x3
 1923 00ac 0E       		.uleb128 0xe
 1924 00ad 0B       		.uleb128 0xb
 1925 00ae 05       		.uleb128 0x5
 1926 00af 3A       		.uleb128 0x3a
 1927 00b0 0B       		.uleb128 0xb
 1928 00b1 3B       		.uleb128 0x3b
 1929 00b2 05       		.uleb128 0x5
 1930 00b3 01       		.uleb128 0x1
 1931 00b4 13       		.uleb128 0x13
 1932 00b5 00       		.byte	0
 1933 00b6 00       		.byte	0
 1934 00b7 10       		.uleb128 0x10
ARM GAS  /var/folders/c6/c789hm653lg9vtl73krp73tm0000gn/T//ccWixtG4.s 			page 50


 1935 00b8 0D       		.uleb128 0xd
 1936 00b9 00       		.byte	0
 1937 00ba 03       		.uleb128 0x3
 1938 00bb 08       		.uleb128 0x8
 1939 00bc 3A       		.uleb128 0x3a
 1940 00bd 0B       		.uleb128 0xb
 1941 00be 3B       		.uleb128 0x3b
 1942 00bf 0B       		.uleb128 0xb
 1943 00c0 49       		.uleb128 0x49
 1944 00c1 13       		.uleb128 0x13
 1945 00c2 38       		.uleb128 0x38
 1946 00c3 0B       		.uleb128 0xb
 1947 00c4 00       		.byte	0
 1948 00c5 00       		.byte	0
 1949 00c6 11       		.uleb128 0x11
 1950 00c7 13       		.uleb128 0x13
 1951 00c8 01       		.byte	0x1
 1952 00c9 0B       		.uleb128 0xb
 1953 00ca 0B       		.uleb128 0xb
 1954 00cb 3A       		.uleb128 0x3a
 1955 00cc 0B       		.uleb128 0xb
 1956 00cd 3B       		.uleb128 0x3b
 1957 00ce 0B       		.uleb128 0xb
 1958 00cf 01       		.uleb128 0x1
 1959 00d0 13       		.uleb128 0x13
 1960 00d1 00       		.byte	0
 1961 00d2 00       		.byte	0
 1962 00d3 12       		.uleb128 0x12
 1963 00d4 17       		.uleb128 0x17
 1964 00d5 01       		.byte	0x1
 1965 00d6 0B       		.uleb128 0xb
 1966 00d7 0B       		.uleb128 0xb
 1967 00d8 3A       		.uleb128 0x3a
 1968 00d9 0B       		.uleb128 0xb
 1969 00da 3B       		.uleb128 0x3b
 1970 00db 0B       		.uleb128 0xb
 1971 00dc 01       		.uleb128 0x1
 1972 00dd 13       		.uleb128 0x13
 1973 00de 00       		.byte	0
 1974 00df 00       		.byte	0
 1975 00e0 13       		.uleb128 0x13
 1976 00e1 0D       		.uleb128 0xd
 1977 00e2 00       		.byte	0
 1978 00e3 03       		.uleb128 0x3
 1979 00e4 0E       		.uleb128 0xe
 1980 00e5 3A       		.uleb128 0x3a
 1981 00e6 0B       		.uleb128 0xb
 1982 00e7 3B       		.uleb128 0x3b
 1983 00e8 05       		.uleb128 0x5
 1984 00e9 49       		.uleb128 0x49
 1985 00ea 13       		.uleb128 0x13
 1986 00eb 00       		.byte	0
 1987 00ec 00       		.byte	0
 1988 00ed 14       		.uleb128 0x14
 1989 00ee 26       		.uleb128 0x26
 1990 00ef 00       		.byte	0
 1991 00f0 49       		.uleb128 0x49
ARM GAS  /var/folders/c6/c789hm653lg9vtl73krp73tm0000gn/T//ccWixtG4.s 			page 51


 1992 00f1 13       		.uleb128 0x13
 1993 00f2 00       		.byte	0
 1994 00f3 00       		.byte	0
 1995 00f4 15       		.uleb128 0x15
 1996 00f5 01       		.uleb128 0x1
 1997 00f6 01       		.byte	0x1
 1998 00f7 49       		.uleb128 0x49
 1999 00f8 13       		.uleb128 0x13
 2000 00f9 01       		.uleb128 0x1
 2001 00fa 13       		.uleb128 0x13
 2002 00fb 00       		.byte	0
 2003 00fc 00       		.byte	0
 2004 00fd 16       		.uleb128 0x16
 2005 00fe 21       		.uleb128 0x21
 2006 00ff 00       		.byte	0
 2007 0100 49       		.uleb128 0x49
 2008 0101 13       		.uleb128 0x13
 2009 0102 2F       		.uleb128 0x2f
 2010 0103 0B       		.uleb128 0xb
 2011 0104 00       		.byte	0
 2012 0105 00       		.byte	0
 2013 0106 17       		.uleb128 0x17
 2014 0107 15       		.uleb128 0x15
 2015 0108 01       		.byte	0x1
 2016 0109 27       		.uleb128 0x27
 2017 010a 19       		.uleb128 0x19
 2018 010b 49       		.uleb128 0x49
 2019 010c 13       		.uleb128 0x13
 2020 010d 01       		.uleb128 0x1
 2021 010e 13       		.uleb128 0x13
 2022 010f 00       		.byte	0
 2023 0110 00       		.byte	0
 2024 0111 18       		.uleb128 0x18
 2025 0112 15       		.uleb128 0x15
 2026 0113 00       		.byte	0
 2027 0114 27       		.uleb128 0x27
 2028 0115 19       		.uleb128 0x19
 2029 0116 00       		.byte	0
 2030 0117 00       		.byte	0
 2031 0118 19       		.uleb128 0x19
 2032 0119 2E       		.uleb128 0x2e
 2033 011a 01       		.byte	0x1
 2034 011b 03       		.uleb128 0x3
 2035 011c 0E       		.uleb128 0xe
 2036 011d 3A       		.uleb128 0x3a
 2037 011e 0B       		.uleb128 0xb
 2038 011f 3B       		.uleb128 0x3b
 2039 0120 0B       		.uleb128 0xb
 2040 0121 27       		.uleb128 0x27
 2041 0122 19       		.uleb128 0x19
 2042 0123 20       		.uleb128 0x20
 2043 0124 0B       		.uleb128 0xb
 2044 0125 01       		.uleb128 0x1
 2045 0126 13       		.uleb128 0x13
 2046 0127 00       		.byte	0
 2047 0128 00       		.byte	0
 2048 0129 1A       		.uleb128 0x1a
ARM GAS  /var/folders/c6/c789hm653lg9vtl73krp73tm0000gn/T//ccWixtG4.s 			page 52


 2049 012a 34       		.uleb128 0x34
 2050 012b 00       		.byte	0
 2051 012c 03       		.uleb128 0x3
 2052 012d 08       		.uleb128 0x8
 2053 012e 3A       		.uleb128 0x3a
 2054 012f 0B       		.uleb128 0xb
 2055 0130 3B       		.uleb128 0x3b
 2056 0131 0B       		.uleb128 0xb
 2057 0132 49       		.uleb128 0x49
 2058 0133 13       		.uleb128 0x13
 2059 0134 00       		.byte	0
 2060 0135 00       		.byte	0
 2061 0136 1B       		.uleb128 0x1b
 2062 0137 2E       		.uleb128 0x2e
 2063 0138 01       		.byte	0x1
 2064 0139 03       		.uleb128 0x3
 2065 013a 0E       		.uleb128 0xe
 2066 013b 3A       		.uleb128 0x3a
 2067 013c 0B       		.uleb128 0xb
 2068 013d 3B       		.uleb128 0x3b
 2069 013e 0B       		.uleb128 0xb
 2070 013f 27       		.uleb128 0x27
 2071 0140 19       		.uleb128 0x19
 2072 0141 49       		.uleb128 0x49
 2073 0142 13       		.uleb128 0x13
 2074 0143 11       		.uleb128 0x11
 2075 0144 01       		.uleb128 0x1
 2076 0145 12       		.uleb128 0x12
 2077 0146 06       		.uleb128 0x6
 2078 0147 40       		.uleb128 0x40
 2079 0148 18       		.uleb128 0x18
 2080 0149 9742     		.uleb128 0x2117
 2081 014b 19       		.uleb128 0x19
 2082 014c 01       		.uleb128 0x1
 2083 014d 13       		.uleb128 0x13
 2084 014e 00       		.byte	0
 2085 014f 00       		.byte	0
 2086 0150 1C       		.uleb128 0x1c
 2087 0151 05       		.uleb128 0x5
 2088 0152 00       		.byte	0
 2089 0153 03       		.uleb128 0x3
 2090 0154 0E       		.uleb128 0xe
 2091 0155 3A       		.uleb128 0x3a
 2092 0156 0B       		.uleb128 0xb
 2093 0157 3B       		.uleb128 0x3b
 2094 0158 0B       		.uleb128 0xb
 2095 0159 49       		.uleb128 0x49
 2096 015a 13       		.uleb128 0x13
 2097 015b 02       		.uleb128 0x2
 2098 015c 17       		.uleb128 0x17
 2099 015d 00       		.byte	0
 2100 015e 00       		.byte	0
 2101 015f 1D       		.uleb128 0x1d
 2102 0160 2E       		.uleb128 0x2e
 2103 0161 01       		.byte	0x1
 2104 0162 03       		.uleb128 0x3
 2105 0163 0E       		.uleb128 0xe
ARM GAS  /var/folders/c6/c789hm653lg9vtl73krp73tm0000gn/T//ccWixtG4.s 			page 53


 2106 0164 3A       		.uleb128 0x3a
 2107 0165 0B       		.uleb128 0xb
 2108 0166 3B       		.uleb128 0x3b
 2109 0167 0B       		.uleb128 0xb
 2110 0168 27       		.uleb128 0x27
 2111 0169 19       		.uleb128 0x19
 2112 016a 11       		.uleb128 0x11
 2113 016b 01       		.uleb128 0x1
 2114 016c 12       		.uleb128 0x12
 2115 016d 06       		.uleb128 0x6
 2116 016e 40       		.uleb128 0x40
 2117 016f 18       		.uleb128 0x18
 2118 0170 9742     		.uleb128 0x2117
 2119 0172 19       		.uleb128 0x19
 2120 0173 01       		.uleb128 0x1
 2121 0174 13       		.uleb128 0x13
 2122 0175 00       		.byte	0
 2123 0176 00       		.byte	0
 2124 0177 1E       		.uleb128 0x1e
 2125 0178 898201   		.uleb128 0x4109
 2126 017b 01       		.byte	0x1
 2127 017c 11       		.uleb128 0x11
 2128 017d 01       		.uleb128 0x1
 2129 017e 9542     		.uleb128 0x2115
 2130 0180 19       		.uleb128 0x19
 2131 0181 31       		.uleb128 0x31
 2132 0182 13       		.uleb128 0x13
 2133 0183 00       		.byte	0
 2134 0184 00       		.byte	0
 2135 0185 1F       		.uleb128 0x1f
 2136 0186 8A8201   		.uleb128 0x410a
 2137 0189 00       		.byte	0
 2138 018a 02       		.uleb128 0x2
 2139 018b 18       		.uleb128 0x18
 2140 018c 9142     		.uleb128 0x2111
 2141 018e 18       		.uleb128 0x18
 2142 018f 00       		.byte	0
 2143 0190 00       		.byte	0
 2144 0191 20       		.uleb128 0x20
 2145 0192 2E       		.uleb128 0x2e
 2146 0193 01       		.byte	0x1
 2147 0194 31       		.uleb128 0x31
 2148 0195 13       		.uleb128 0x13
 2149 0196 11       		.uleb128 0x11
 2150 0197 01       		.uleb128 0x1
 2151 0198 12       		.uleb128 0x12
 2152 0199 06       		.uleb128 0x6
 2153 019a 40       		.uleb128 0x40
 2154 019b 18       		.uleb128 0x18
 2155 019c 9742     		.uleb128 0x2117
 2156 019e 19       		.uleb128 0x19
 2157 019f 01       		.uleb128 0x1
 2158 01a0 13       		.uleb128 0x13
 2159 01a1 00       		.byte	0
 2160 01a2 00       		.byte	0
 2161 01a3 21       		.uleb128 0x21
 2162 01a4 34       		.uleb128 0x34
ARM GAS  /var/folders/c6/c789hm653lg9vtl73krp73tm0000gn/T//ccWixtG4.s 			page 54


 2163 01a5 00       		.byte	0
 2164 01a6 31       		.uleb128 0x31
 2165 01a7 13       		.uleb128 0x13
 2166 01a8 02       		.uleb128 0x2
 2167 01a9 17       		.uleb128 0x17
 2168 01aa 00       		.byte	0
 2169 01ab 00       		.byte	0
 2170 01ac 22       		.uleb128 0x22
 2171 01ad 0B       		.uleb128 0xb
 2172 01ae 01       		.byte	0x1
 2173 01af 55       		.uleb128 0x55
 2174 01b0 17       		.uleb128 0x17
 2175 01b1 01       		.uleb128 0x1
 2176 01b2 13       		.uleb128 0x13
 2177 01b3 00       		.byte	0
 2178 01b4 00       		.byte	0
 2179 01b5 23       		.uleb128 0x23
 2180 01b6 898201   		.uleb128 0x4109
 2181 01b9 01       		.byte	0x1
 2182 01ba 11       		.uleb128 0x11
 2183 01bb 01       		.uleb128 0x1
 2184 01bc 31       		.uleb128 0x31
 2185 01bd 13       		.uleb128 0x13
 2186 01be 01       		.uleb128 0x1
 2187 01bf 13       		.uleb128 0x13
 2188 01c0 00       		.byte	0
 2189 01c1 00       		.byte	0
 2190 01c2 24       		.uleb128 0x24
 2191 01c3 898201   		.uleb128 0x4109
 2192 01c6 01       		.byte	0x1
 2193 01c7 11       		.uleb128 0x11
 2194 01c8 01       		.uleb128 0x1
 2195 01c9 31       		.uleb128 0x31
 2196 01ca 13       		.uleb128 0x13
 2197 01cb 00       		.byte	0
 2198 01cc 00       		.byte	0
 2199 01cd 25       		.uleb128 0x25
 2200 01ce 34       		.uleb128 0x34
 2201 01cf 00       		.byte	0
 2202 01d0 03       		.uleb128 0x3
 2203 01d1 08       		.uleb128 0x8
 2204 01d2 3A       		.uleb128 0x3a
 2205 01d3 0B       		.uleb128 0xb
 2206 01d4 3B       		.uleb128 0x3b
 2207 01d5 0B       		.uleb128 0xb
 2208 01d6 49       		.uleb128 0x49
 2209 01d7 13       		.uleb128 0x13
 2210 01d8 02       		.uleb128 0x2
 2211 01d9 18       		.uleb128 0x18
 2212 01da 00       		.byte	0
 2213 01db 00       		.byte	0
 2214 01dc 26       		.uleb128 0x26
 2215 01dd 34       		.uleb128 0x34
 2216 01de 00       		.byte	0
 2217 01df 03       		.uleb128 0x3
 2218 01e0 0E       		.uleb128 0xe
 2219 01e1 3A       		.uleb128 0x3a
ARM GAS  /var/folders/c6/c789hm653lg9vtl73krp73tm0000gn/T//ccWixtG4.s 			page 55


 2220 01e2 0B       		.uleb128 0xb
 2221 01e3 3B       		.uleb128 0x3b
 2222 01e4 05       		.uleb128 0x5
 2223 01e5 49       		.uleb128 0x49
 2224 01e6 13       		.uleb128 0x13
 2225 01e7 3F       		.uleb128 0x3f
 2226 01e8 19       		.uleb128 0x19
 2227 01e9 3C       		.uleb128 0x3c
 2228 01ea 19       		.uleb128 0x19
 2229 01eb 00       		.byte	0
 2230 01ec 00       		.byte	0
 2231 01ed 27       		.uleb128 0x27
 2232 01ee 34       		.uleb128 0x34
 2233 01ef 00       		.byte	0
 2234 01f0 03       		.uleb128 0x3
 2235 01f1 08       		.uleb128 0x8
 2236 01f2 3A       		.uleb128 0x3a
 2237 01f3 0B       		.uleb128 0xb
 2238 01f4 3B       		.uleb128 0x3b
 2239 01f5 05       		.uleb128 0x5
 2240 01f6 49       		.uleb128 0x49
 2241 01f7 13       		.uleb128 0x13
 2242 01f8 3F       		.uleb128 0x3f
 2243 01f9 19       		.uleb128 0x19
 2244 01fa 3C       		.uleb128 0x3c
 2245 01fb 19       		.uleb128 0x19
 2246 01fc 00       		.byte	0
 2247 01fd 00       		.byte	0
 2248 01fe 28       		.uleb128 0x28
 2249 01ff 21       		.uleb128 0x21
 2250 0200 00       		.byte	0
 2251 0201 00       		.byte	0
 2252 0202 00       		.byte	0
 2253 0203 29       		.uleb128 0x29
 2254 0204 34       		.uleb128 0x34
 2255 0205 00       		.byte	0
 2256 0206 03       		.uleb128 0x3
 2257 0207 08       		.uleb128 0x8
 2258 0208 3A       		.uleb128 0x3a
 2259 0209 0B       		.uleb128 0xb
 2260 020a 3B       		.uleb128 0x3b
 2261 020b 0B       		.uleb128 0xb
 2262 020c 49       		.uleb128 0x49
 2263 020d 13       		.uleb128 0x13
 2264 020e 3F       		.uleb128 0x3f
 2265 020f 19       		.uleb128 0x19
 2266 0210 3C       		.uleb128 0x3c
 2267 0211 19       		.uleb128 0x19
 2268 0212 00       		.byte	0
 2269 0213 00       		.byte	0
 2270 0214 2A       		.uleb128 0x2a
 2271 0215 34       		.uleb128 0x34
 2272 0216 00       		.byte	0
 2273 0217 03       		.uleb128 0x3
 2274 0218 0E       		.uleb128 0xe
 2275 0219 3A       		.uleb128 0x3a
 2276 021a 0B       		.uleb128 0xb
ARM GAS  /var/folders/c6/c789hm653lg9vtl73krp73tm0000gn/T//ccWixtG4.s 			page 56


 2277 021b 3B       		.uleb128 0x3b
 2278 021c 0B       		.uleb128 0xb
 2279 021d 49       		.uleb128 0x49
 2280 021e 13       		.uleb128 0x13
 2281 021f 3F       		.uleb128 0x3f
 2282 0220 19       		.uleb128 0x19
 2283 0221 02       		.uleb128 0x2
 2284 0222 18       		.uleb128 0x18
 2285 0223 00       		.byte	0
 2286 0224 00       		.byte	0
 2287 0225 2B       		.uleb128 0x2b
 2288 0226 2E       		.uleb128 0x2e
 2289 0227 01       		.byte	0x1
 2290 0228 3F       		.uleb128 0x3f
 2291 0229 19       		.uleb128 0x19
 2292 022a 03       		.uleb128 0x3
 2293 022b 0E       		.uleb128 0xe
 2294 022c 3A       		.uleb128 0x3a
 2295 022d 0B       		.uleb128 0xb
 2296 022e 3B       		.uleb128 0x3b
 2297 022f 0B       		.uleb128 0xb
 2298 0230 27       		.uleb128 0x27
 2299 0231 19       		.uleb128 0x19
 2300 0232 3C       		.uleb128 0x3c
 2301 0233 19       		.uleb128 0x19
 2302 0234 01       		.uleb128 0x1
 2303 0235 13       		.uleb128 0x13
 2304 0236 00       		.byte	0
 2305 0237 00       		.byte	0
 2306 0238 2C       		.uleb128 0x2c
 2307 0239 2E       		.uleb128 0x2e
 2308 023a 01       		.byte	0x1
 2309 023b 3F       		.uleb128 0x3f
 2310 023c 19       		.uleb128 0x19
 2311 023d 03       		.uleb128 0x3
 2312 023e 0E       		.uleb128 0xe
 2313 023f 3A       		.uleb128 0x3a
 2314 0240 0B       		.uleb128 0xb
 2315 0241 3B       		.uleb128 0x3b
 2316 0242 0B       		.uleb128 0xb
 2317 0243 27       		.uleb128 0x27
 2318 0244 19       		.uleb128 0x19
 2319 0245 49       		.uleb128 0x49
 2320 0246 13       		.uleb128 0x13
 2321 0247 3C       		.uleb128 0x3c
 2322 0248 19       		.uleb128 0x19
 2323 0249 01       		.uleb128 0x1
 2324 024a 13       		.uleb128 0x13
 2325 024b 00       		.byte	0
 2326 024c 00       		.byte	0
 2327 024d 2D       		.uleb128 0x2d
 2328 024e 2E       		.uleb128 0x2e
 2329 024f 01       		.byte	0x1
 2330 0250 3F       		.uleb128 0x3f
 2331 0251 19       		.uleb128 0x19
 2332 0252 03       		.uleb128 0x3
 2333 0253 0E       		.uleb128 0xe
ARM GAS  /var/folders/c6/c789hm653lg9vtl73krp73tm0000gn/T//ccWixtG4.s 			page 57


 2334 0254 3A       		.uleb128 0x3a
 2335 0255 0B       		.uleb128 0xb
 2336 0256 3B       		.uleb128 0x3b
 2337 0257 0B       		.uleb128 0xb
 2338 0258 27       		.uleb128 0x27
 2339 0259 19       		.uleb128 0x19
 2340 025a 3C       		.uleb128 0x3c
 2341 025b 19       		.uleb128 0x19
 2342 025c 00       		.byte	0
 2343 025d 00       		.byte	0
 2344 025e 00       		.byte	0
 2345              		.section	.debug_loc,"",%progbits
 2346              	.Ldebug_loc0:
 2347              	.LLST0:
 2348 0000 00000000 		.4byte	.LVL0
 2349 0004 02000000 		.4byte	.LVL1
 2350 0008 0100     		.2byte	0x1
 2351 000a 50       		.byte	0x50
 2352 000b 02000000 		.4byte	.LVL1
 2353 000f 04000000 		.4byte	.LFE229
 2354 0013 0400     		.2byte	0x4
 2355 0015 F3       		.byte	0xf3
 2356 0016 01       		.uleb128 0x1
 2357 0017 50       		.byte	0x50
 2358 0018 9F       		.byte	0x9f
 2359 0019 00000000 		.4byte	0
 2360 001d 00000000 		.4byte	0
 2361              	.LLST1:
 2362 0021 10000000 		.4byte	.LVL3
 2363 0025 12000000 		.4byte	.LVL4
 2364 0029 0200     		.2byte	0x2
 2365 002b 30       		.byte	0x30
 2366 002c 9F       		.byte	0x9f
 2367 002d 12000000 		.4byte	.LVL4
 2368 0031 24000000 		.4byte	.LVL6
 2369 0035 0500     		.2byte	0x5
 2370 0037 35       		.byte	0x35
 2371 0038 74       		.byte	0x74
 2372 0039 00       		.sleb128 0
 2373 003a 1C       		.byte	0x1c
 2374 003b 9F       		.byte	0x9f
 2375 003c 24000000 		.4byte	.LVL6
 2376 0040 28000000 		.4byte	.LVL7
 2377 0044 0500     		.2byte	0x5
 2378 0046 36       		.byte	0x36
 2379 0047 74       		.byte	0x74
 2380 0048 00       		.sleb128 0
 2381 0049 1C       		.byte	0x1c
 2382 004a 9F       		.byte	0x9f
 2383 004b 28000000 		.4byte	.LVL7
 2384 004f 42000000 		.4byte	.LVL10
 2385 0053 0500     		.2byte	0x5
 2386 0055 35       		.byte	0x35
 2387 0056 74       		.byte	0x74
 2388 0057 00       		.sleb128 0
 2389 0058 1C       		.byte	0x1c
 2390 0059 9F       		.byte	0x9f
ARM GAS  /var/folders/c6/c789hm653lg9vtl73krp73tm0000gn/T//ccWixtG4.s 			page 58


 2391 005a 00000000 		.4byte	0
 2392 005e 00000000 		.4byte	0
 2393              	.LLST2:
 2394 0062 62000000 		.4byte	.LVL13
 2395 0066 74000000 		.4byte	.LVL15
 2396 006a 0500     		.2byte	0x5
 2397 006c 35       		.byte	0x35
 2398 006d 74       		.byte	0x74
 2399 006e 00       		.sleb128 0
 2400 006f 1C       		.byte	0x1c
 2401 0070 9F       		.byte	0x9f
 2402 0071 74000000 		.4byte	.LVL15
 2403 0075 78000000 		.4byte	.LVL16
 2404 0079 0500     		.2byte	0x5
 2405 007b 36       		.byte	0x36
 2406 007c 74       		.byte	0x74
 2407 007d 00       		.sleb128 0
 2408 007e 1C       		.byte	0x1c
 2409 007f 9F       		.byte	0x9f
 2410 0080 78000000 		.4byte	.LVL16
 2411 0084 90000000 		.4byte	.LVL19
 2412 0088 0500     		.2byte	0x5
 2413 008a 35       		.byte	0x35
 2414 008b 74       		.byte	0x74
 2415 008c 00       		.sleb128 0
 2416 008d 1C       		.byte	0x1c
 2417 008e 9F       		.byte	0x9f
 2418 008f 92000000 		.4byte	.LVL20
 2419 0093 B0000000 		.4byte	.LVL23
 2420 0097 0500     		.2byte	0x5
 2421 0099 35       		.byte	0x35
 2422 009a 74       		.byte	0x74
 2423 009b 00       		.sleb128 0
 2424 009c 1C       		.byte	0x1c
 2425 009d 9F       		.byte	0x9f
 2426 009e 00000000 		.4byte	0
 2427 00a2 00000000 		.4byte	0
 2428              		.section	.debug_aranges,"",%progbits
 2429 0000 2C000000 		.4byte	0x2c
 2430 0004 0200     		.2byte	0x2
 2431 0006 00000000 		.4byte	.Ldebug_info0
 2432 000a 04       		.byte	0x4
 2433 000b 00       		.byte	0
 2434 000c 0000     		.2byte	0
 2435 000e 0000     		.2byte	0
 2436 0010 00000000 		.4byte	.LFB229
 2437 0014 04000000 		.4byte	.LFE229-.LFB229
 2438 0018 00000000 		.4byte	.LFB230
 2439 001c 10000000 		.4byte	.LFE230-.LFB230
 2440 0020 00000000 		.4byte	.LFB231
 2441 0024 C0000000 		.4byte	.LFE231-.LFB231
 2442 0028 00000000 		.4byte	0
 2443 002c 00000000 		.4byte	0
 2444              		.section	.debug_ranges,"",%progbits
 2445              	.Ldebug_ranges0:
 2446 0000 42000000 		.4byte	.LBB5
 2447 0004 44000000 		.4byte	.LBE5
ARM GAS  /var/folders/c6/c789hm653lg9vtl73krp73tm0000gn/T//ccWixtG4.s 			page 59


 2448 0008 4A000000 		.4byte	.LBB6
 2449 000c AC000000 		.4byte	.LBE6
 2450 0010 B0000000 		.4byte	.LBB7
 2451 0014 C0000000 		.4byte	.LBE7
 2452 0018 00000000 		.4byte	0
 2453 001c 00000000 		.4byte	0
 2454 0020 00000000 		.4byte	.LFB229
 2455 0024 04000000 		.4byte	.LFE229
 2456 0028 00000000 		.4byte	.LFB230
 2457 002c 10000000 		.4byte	.LFE230
 2458 0030 00000000 		.4byte	.LFB231
 2459 0034 C0000000 		.4byte	.LFE231
 2460 0038 00000000 		.4byte	0
 2461 003c 00000000 		.4byte	0
 2462              		.section	.debug_line,"",%progbits
 2463              	.Ldebug_line0:
 2464 0000 9D020000 		.section	.debug_str,"MS",%progbits,1
 2464      02005502 
 2464      00000201 
 2464      FB0E0D00 
 2464      01010101 
 2465              	.LASF122:
 2466 0000 474E5520 		.ascii	"GNU C 4.8.4 20140725 (release) [ARM/embedded-4_8-br"
 2466      4320342E 
 2466      382E3420 
 2466      32303134 
 2466      30373235 
 2467 0033 616E6368 		.ascii	"anch revision 213147] -mcpu=cortex-m4 -mno-thumb-in"
 2467      20726576 
 2467      6973696F 
 2467      6E203231 
 2467      33313437 
 2468 0066 74657277 		.ascii	"terwork -mthumb -ggdb -O2 -fomit-frame-pointer -fal"
 2468      6F726B20 
 2468      2D6D7468 
 2468      756D6220 
 2468      2D676764 
 2469 0099 69676E2D 		.ascii	"ign-functions=16 -ffunction-sections -fdata-section"
 2469      66756E63 
 2469      74696F6E 
 2469      733D3136 
 2469      202D6666 
 2470 00cc 73202D66 		.ascii	"s -fno-common -flto\000"
 2470      6E6F2D63 
 2470      6F6D6D6F 
 2470      6E202D66 
 2470      6C746F00 
 2471              	.LASF51:
 2472 00e0 72656164 		.ascii	"ready_list_t\000"
 2472      795F6C69 
 2472      73745F74 
 2472      00
 2473              	.LASF2:
 2474 00ed 73697A65 		.ascii	"size_t\000"
 2474      5F7400
 2475              	.LASF86:
 2476 00f4 7264796D 		.ascii	"rdymsg\000"
ARM GAS  /var/folders/c6/c789hm653lg9vtl73krp73tm0000gn/T//ccWixtG4.s 			page 60


 2476      736700
 2477              	.LASF17:
 2478 00fb 75696E74 		.ascii	"uint64_t\000"
 2478      36345F74 
 2478      00
 2479              	.LASF3:
 2480 0104 5F5F7569 		.ascii	"__uint8_t\000"
 2480      6E74385F 
 2480      7400
 2481              	.LASF83:
 2482 010e 706F7274 		.ascii	"port_intctx\000"
 2482      5F696E74 
 2482      63747800 
 2483              	.LASF70:
 2484 011a 73797374 		.ascii	"system_debug_t\000"
 2484      656D5F64 
 2484      65627567 
 2484      5F7400
 2485              	.LASF102:
 2486 0129 6D656D67 		.ascii	"memgetfunc_t\000"
 2486      65746675 
 2486      6E635F74 
 2486      00
 2487              	.LASF13:
 2488 0136 6C6F6E67 		.ascii	"long long unsigned int\000"
 2488      206C6F6E 
 2488      6720756E 
 2488      7369676E 
 2488      65642069 
 2489              	.LASF87:
 2490 014d 65786974 		.ascii	"exitcode\000"
 2490      636F6465 
 2490      00
 2491              	.LASF77:
 2492 0156 6D61696E 		.ascii	"mainthread\000"
 2492      74687265 
 2492      616400
 2493              	.LASF67:
 2494 0161 76697274 		.ascii	"virtual_timers_list_t\000"
 2494      75616C5F 
 2494      74696D65 
 2494      72735F6C 
 2494      6973745F 
 2495              	.LASF114:
 2496 0177 49544D5F 		.ascii	"ITM_RxBuffer\000"
 2496      52784275 
 2496      66666572 
 2496      00
 2497              	.LASF50:
 2498 0184 63685F74 		.ascii	"ch_threads_queue\000"
 2498      68726561 
 2498      64735F71 
 2498      75657565 
 2498      00
 2499              	.LASF30:
 2500 0195 705F7072 		.ascii	"p_prio\000"
 2500      696F00
ARM GAS  /var/folders/c6/c789hm653lg9vtl73krp73tm0000gn/T//ccWixtG4.s 			page 61


 2501              	.LASF11:
 2502 019c 6C6F6E67 		.ascii	"long long int\000"
 2502      206C6F6E 
 2502      6720696E 
 2502      7400
 2503              	.LASF1:
 2504 01aa 7369676E 		.ascii	"signed char\000"
 2504      65642063 
 2504      68617200 
 2505              	.LASF44:
 2506 01b6 705F6D70 		.ascii	"p_mpool\000"
 2506      6F6F6C00 
 2507              	.LASF97:
 2508 01be 6D5F7175 		.ascii	"m_queue\000"
 2508      65756500 
 2509              	.LASF76:
 2510 01c6 76746C69 		.ascii	"vtlist\000"
 2510      737400
 2511              	.LASF89:
 2512 01cd 77747472 		.ascii	"wttrp\000"
 2512      7000
 2513              	.LASF74:
 2514 01d3 63685F73 		.ascii	"ch_system\000"
 2514      79737465 
 2514      6D00
 2515              	.LASF8:
 2516 01dd 6C6F6E67 		.ascii	"long int\000"
 2516      20696E74 
 2516      00
 2517              	.LASF20:
 2518 01e6 74737461 		.ascii	"tstate_t\000"
 2518      74655F74 
 2518      00
 2519              	.LASF105:
 2520 01ef 6D705F6E 		.ascii	"mp_next\000"
 2520      65787400 
 2521              	.LASF32:
 2522 01f7 705F6E65 		.ascii	"p_newer\000"
 2522      77657200 
 2523              	.LASF94:
 2524 01ff 735F7175 		.ascii	"s_queue\000"
 2524      65756500 
 2525              	.LASF56:
 2526 0207 725F6E65 		.ascii	"r_newer\000"
 2526      77657200 
 2527              	.LASF107:
 2528 020f 6D705F70 		.ascii	"mp_provider\000"
 2528      726F7669 
 2528      64657200 
 2529              	.LASF80:
 2530 021b 72656761 		.ascii	"regarm_t\000"
 2530      726D5F74 
 2530      00
 2531              	.LASF63:
 2532 0224 76745F70 		.ascii	"vt_prev\000"
 2532      72657600 
 2533              	.LASF101:
ARM GAS  /var/folders/c6/c789hm653lg9vtl73krp73tm0000gn/T//ccWixtG4.s 			page 62


 2534 022c 6D757465 		.ascii	"mutex_t\000"
 2534      785F7400 
 2535              	.LASF78:
 2536 0234 69646C65 		.ascii	"idle_thread_wa\000"
 2536      5F746872 
 2536      6561645F 
 2536      776100
 2537              	.LASF25:
 2538 0243 636E745F 		.ascii	"cnt_t\000"
 2538      7400
 2539              	.LASF0:
 2540 0249 756E7369 		.ascii	"unsigned int\000"
 2540      676E6564 
 2540      20696E74 
 2540      00
 2541              	.LASF62:
 2542 0256 76745F6E 		.ascii	"vt_next\000"
 2542      65787400 
 2543              	.LASF90:
 2544 025e 77747365 		.ascii	"wtsemp\000"
 2544      6D7000
 2545              	.LASF39:
 2546 0265 705F6D73 		.ascii	"p_msgqueue\000"
 2546      67717565 
 2546      756500
 2547              	.LASF112:
 2548 0270 74656172 		.ascii	"teardown\000"
 2548      646F776E 
 2548      00
 2549              	.LASF108:
 2550 0279 6D656D6F 		.ascii	"memory_pool_t\000"
 2550      72795F70 
 2550      6F6F6C5F 
 2550      7400
 2551              	.LASF110:
 2552 0287 6E616D65 		.ascii	"name\000"
 2552      00
 2553              	.LASF95:
 2554 028c 735F636E 		.ascii	"s_cnt\000"
 2554      7400
 2555              	.LASF6:
 2556 0292 73686F72 		.ascii	"short unsigned int\000"
 2556      7420756E 
 2556      7369676E 
 2556      65642069 
 2556      6E7400
 2557              	.LASF47:
 2558 02a5 63685F74 		.ascii	"ch_thread\000"
 2558      68726561 
 2558      6400
 2559              	.LASF23:
 2560 02af 6D73675F 		.ascii	"msg_t\000"
 2560      7400
 2561              	.LASF73:
 2562 02b5 63685F73 		.ascii	"ch_system_t\000"
 2562      79737465 
 2562      6D5F7400 
ARM GAS  /var/folders/c6/c789hm653lg9vtl73krp73tm0000gn/T//ccWixtG4.s 			page 63


 2563              	.LASF19:
 2564 02c1 746D6F64 		.ascii	"tmode_t\000"
 2564      655F7400 
 2565              	.LASF117:
 2566 02c9 6368506F 		.ascii	"chPoolObjectInit\000"
 2566      6F6C4F62 
 2566      6A656374 
 2566      496E6974 
 2566      00
 2567              	.LASF52:
 2568 02da 63685F72 		.ascii	"ch_ready_list\000"
 2568      65616479 
 2568      5F6C6973 
 2568      7400
 2569              	.LASF24:
 2570 02e8 6576656E 		.ascii	"eventmask_t\000"
 2570      746D6173 
 2570      6B5F7400 
 2571              	.LASF7:
 2572 02f4 5F5F696E 		.ascii	"__int32_t\000"
 2572      7433325F 
 2572      7400
 2573              	.LASF81:
 2574 02fe 73746B61 		.ascii	"stkalign_t\000"
 2574      6C69676E 
 2574      5F7400
 2575              	.LASF38:
 2576 0309 705F7761 		.ascii	"p_waiting\000"
 2576      6974696E 
 2576      6700
 2577              	.LASF79:
 2578 0313 73697A65 		.ascii	"sizetype\000"
 2578      74797065 
 2578      00
 2579              	.LASF45:
 2580 031c 74687265 		.ascii	"thread_reference_t\000"
 2580      61645F72 
 2580      65666572 
 2580      656E6365 
 2580      5F7400
 2581              	.LASF68:
 2582 032f 63685F76 		.ascii	"ch_virtual_timers_list\000"
 2582      69727475 
 2582      616C5F74 
 2582      696D6572 
 2582      735F6C69 
 2583              	.LASF53:
 2584 0346 725F7175 		.ascii	"r_queue\000"
 2584      65756500 
 2585              	.LASF69:
 2586 034e 76745F6C 		.ascii	"vt_lasttime\000"
 2586      61737474 
 2586      696D6500 
 2587              	.LASF33:
 2588 035a 705F6F6C 		.ascii	"p_older\000"
 2588      64657200 
 2589              	.LASF55:
ARM GAS  /var/folders/c6/c789hm653lg9vtl73krp73tm0000gn/T//ccWixtG4.s 			page 64


 2590 0362 725F6374 		.ascii	"r_ctx\000"
 2590      7800
 2591              	.LASF106:
 2592 0368 6D705F6F 		.ascii	"mp_object_size\000"
 2592      626A6563 
 2592      745F7369 
 2592      7A6500
 2593              	.LASF85:
 2594 0377 746D5F63 		.ascii	"tm_calibration_t\000"
 2594      616C6962 
 2594      72617469 
 2594      6F6E5F74 
 2594      00
 2595              	.LASF111:
 2596 0388 73657475 		.ascii	"setup\000"
 2596      7000
 2597              	.LASF58:
 2598 038e 725F6375 		.ascii	"r_current\000"
 2598      7272656E 
 2598      7400
 2599              	.LASF57:
 2600 0398 725F6F6C 		.ascii	"r_older\000"
 2600      64657200 
 2601              	.LASF116:
 2602 03a0 70617474 		.ascii	"patternpools\000"
 2602      65726E70 
 2602      6F6F6C73 
 2602      00
 2603              	.LASF12:
 2604 03ad 5F5F7569 		.ascii	"__uint64_t\000"
 2604      6E743634 
 2604      5F7400
 2605              	.LASF104:
 2606 03b8 70685F6E 		.ascii	"ph_next\000"
 2606      65787400 
 2607              	.LASF21:
 2608 03c0 74726566 		.ascii	"trefs_t\000"
 2608      735F7400 
 2609              	.LASF60:
 2610 03c8 76697274 		.ascii	"virtual_timer_t\000"
 2610      75616C5F 
 2610      74696D65 
 2610      725F7400 
 2611              	.LASF29:
 2612 03d8 705F7072 		.ascii	"p_prev\000"
 2612      657600
 2613              	.LASF113:
 2614 03df 65786563 		.ascii	"execute\000"
 2614      75746500 
 2615              	.LASF22:
 2616 03e7 74707269 		.ascii	"tprio_t\000"
 2616      6F5F7400 
 2617              	.LASF71:
 2618 03ef 63685F73 		.ascii	"ch_system_debug\000"
 2618      79737465 
 2618      6D5F6465 
 2618      62756700 
ARM GAS  /var/folders/c6/c789hm653lg9vtl73krp73tm0000gn/T//ccWixtG4.s 			page 65


 2619              	.LASF121:
 2620 03ff 5F426F6F 		.ascii	"_Bool\000"
 2620      6C00
 2621              	.LASF15:
 2622 0405 696E7433 		.ascii	"int32_t\000"
 2622      325F7400 
 2623              	.LASF4:
 2624 040d 756E7369 		.ascii	"unsigned char\000"
 2624      676E6564 
 2624      20636861 
 2624      7200
 2625              	.LASF42:
 2626 041b 705F6D74 		.ascii	"p_mtxlist\000"
 2626      786C6973 
 2626      7400
 2627              	.LASF5:
 2628 0425 73686F72 		.ascii	"short int\000"
 2628      7420696E 
 2628      7400
 2629              	.LASF35:
 2630 042f 705F7374 		.ascii	"p_state\000"
 2630      61746500 
 2631              	.LASF54:
 2632 0437 725F7072 		.ascii	"r_prio\000"
 2632      696F00
 2633              	.LASF92:
 2634 043e 65776D61 		.ascii	"ewmask\000"
 2634      736B00
 2635              	.LASF28:
 2636 0445 705F6E65 		.ascii	"p_next\000"
 2636      787400
 2637              	.LASF36:
 2638 044c 705F666C 		.ascii	"p_flags\000"
 2638      61677300 
 2639              	.LASF34:
 2640 0454 705F6E61 		.ascii	"p_name\000"
 2640      6D6500
 2641              	.LASF61:
 2642 045b 63685F76 		.ascii	"ch_virtual_timer\000"
 2642      69727475 
 2642      616C5F74 
 2642      696D6572 
 2642      00
 2643              	.LASF109:
 2644 046c 74657374 		.ascii	"testcase\000"
 2644      63617365 
 2644      00
 2645              	.LASF93:
 2646 0475 63685F73 		.ascii	"ch_semaphore\000"
 2646      656D6170 
 2646      686F7265 
 2646      00
 2647              	.LASF41:
 2648 0482 705F6570 		.ascii	"p_epending\000"
 2648      656E6469 
 2648      6E6700
 2649              	.LASF16:
ARM GAS  /var/folders/c6/c789hm653lg9vtl73krp73tm0000gn/T//ccWixtG4.s 			page 66


 2650 048d 75696E74 		.ascii	"uint32_t\000"
 2650      33325F74 
 2650      00
 2651              	.LASF91:
 2652 0496 77746D74 		.ascii	"wtmtxp\000"
 2652      787000
 2653              	.LASF115:
 2654 049d 74657374 		.ascii	"testpools1\000"
 2654      706F6F6C 
 2654      733100
 2655              	.LASF64:
 2656 04a8 76745F64 		.ascii	"vt_delta\000"
 2656      656C7461 
 2656      00
 2657              	.LASF48:
 2658 04b1 63685F74 		.ascii	"ch_threads_list\000"
 2658      68726561 
 2658      64735F6C 
 2658      69737400 
 2659              	.LASF10:
 2660 04c1 6C6F6E67 		.ascii	"long unsigned int\000"
 2660      20756E73 
 2660      69676E65 
 2660      6420696E 
 2660      7400
 2661              	.LASF124:
 2662 04d3 2F557365 		.ascii	"/Users/savonetj/Downloads/ChibiOS_3.0.2/demos/STM32"
 2662      72732F73 
 2662      61766F6E 
 2662      65746A2F 
 2662      446F776E 
 2663 0506 2F52542D 		.ascii	"/RT-STM32F407-DISCOVERY\000"
 2663      53544D33 
 2663      32463430 
 2663      372D4449 
 2663      53434F56 
 2664              	.LASF100:
 2665 051e 63686172 		.ascii	"char\000"
 2665      00
 2666              	.LASF128:
 2667 0523 706F6F6C 		.ascii	"pools1_setup\000"
 2667      73315F73 
 2667      65747570 
 2667      00
 2668              	.LASF27:
 2669 0530 74687265 		.ascii	"thread_t\000"
 2669      61645F74 
 2669      00
 2670              	.LASF99:
 2671 0539 6D5F6E65 		.ascii	"m_next\000"
 2671      787400
 2672              	.LASF26:
 2673 0540 73797374 		.ascii	"systime_t\000"
 2673      696D655F 
 2673      7400
 2674              	.LASF43:
 2675 054a 705F7265 		.ascii	"p_realprio\000"
ARM GAS  /var/folders/c6/c789hm653lg9vtl73krp73tm0000gn/T//ccWixtG4.s 			page 67


 2675      616C7072 
 2675      696F00
 2676              	.LASF59:
 2677 0555 76746675 		.ascii	"vtfunc_t\000"
 2677      6E635F74 
 2677      00
 2678              	.LASF9:
 2679 055e 5F5F7569 		.ascii	"__uint32_t\000"
 2679      6E743332 
 2679      5F7400
 2680              	.LASF72:
 2681 0569 70616E69 		.ascii	"panic_msg\000"
 2681      635F6D73 
 2681      6700
 2682              	.LASF84:
 2683 0573 6F666673 		.ascii	"offset\000"
 2683      657400
 2684              	.LASF96:
 2685 057a 63685F6D 		.ascii	"ch_mutex\000"
 2685      75746578 
 2685      00
 2686              	.LASF82:
 2687 0583 636F6E74 		.ascii	"context\000"
 2687      65787400 
 2688              	.LASF40:
 2689 058b 705F6D73 		.ascii	"p_msg\000"
 2689      6700
 2690              	.LASF18:
 2691 0591 7274636E 		.ascii	"rtcnt_t\000"
 2691      745F7400 
 2692              	.LASF66:
 2693 0599 76745F70 		.ascii	"vt_par\000"
 2693      617200
 2694              	.LASF49:
 2695 05a0 74687265 		.ascii	"threads_queue_t\000"
 2695      6164735F 
 2695      71756575 
 2695      655F7400 
 2696              	.LASF103:
 2697 05b0 706F6F6C 		.ascii	"pool_header\000"
 2697      5F686561 
 2697      64657200 
 2698              	.LASF37:
 2699 05bc 705F7265 		.ascii	"p_refs\000"
 2699      667300
 2700              	.LASF75:
 2701 05c3 726C6973 		.ascii	"rlist\000"
 2701      7400
 2702              	.LASF14:
 2703 05c9 75696E74 		.ascii	"uint8_t\000"
 2703      385F7400 
 2704              	.LASF119:
 2705 05d1 6368506F 		.ascii	"chPoolAlloc\000"
 2705      6F6C416C 
 2705      6C6F6300 
 2706              	.LASF118:
 2707 05dd 6368506F 		.ascii	"chPoolFree\000"
ARM GAS  /var/folders/c6/c789hm653lg9vtl73krp73tm0000gn/T//ccWixtG4.s 			page 68


 2707      6F6C4672 
 2707      656500
 2708              	.LASF88:
 2709 05e8 77746F62 		.ascii	"wtobjp\000"
 2709      6A7000
 2710              	.LASF126:
 2711 05ef 6E756C6C 		.ascii	"null_provider\000"
 2711      5F70726F 
 2711      76696465 
 2711      7200
 2712              	.LASF127:
 2713 05fd 73697A65 		.ascii	"size\000"
 2713      00
 2714              	.LASF120:
 2715 0602 5F746573 		.ascii	"_test_assert\000"
 2715      745F6173 
 2715      73657274 
 2715      00
 2716              	.LASF123:
 2717 060f 2E2E2F2E 		.ascii	"../../../test/rt/testpools.c\000"
 2717      2E2F2E2E 
 2717      2F746573 
 2717      742F7274 
 2717      2F746573 
 2718              	.LASF46:
 2719 062c 74687265 		.ascii	"threads_list_t\000"
 2719      6164735F 
 2719      6C697374 
 2719      5F7400
 2720              	.LASF129:
 2721 063b 6368506F 		.ascii	"chPoolLoadArray\000"
 2721      6F6C4C6F 
 2721      61644172 
 2721      72617900 
 2722              	.LASF98:
 2723 064b 6D5F6F77 		.ascii	"m_owner\000"
 2723      6E657200 
 2724              	.LASF31:
 2725 0653 705F6374 		.ascii	"p_ctx\000"
 2725      7800
 2726              	.LASF65:
 2727 0659 76745F66 		.ascii	"vt_func\000"
 2727      756E6300 
 2728              	.LASF125:
 2729 0661 706F6F6C 		.ascii	"pools1_execute\000"
 2729      73315F65 
 2729      78656375 
 2729      746500
 2730              		.comm	__gnu_lto_v1,1,1
 2731              		.ident	"GCC: (GNU Tools for ARM Embedded Processors) 4.8.4 20140725 (release) [ARM/embedded-4_8-br
ARM GAS  /var/folders/c6/c789hm653lg9vtl73krp73tm0000gn/T//ccWixtG4.s 			page 69


DEFINED SYMBOLS
                            *ABS*:0000000000000000 testpools.c
/var/folders/c6/c789hm653lg9vtl73krp73tm0000gn/T//ccWixtG4.s:278    .text.null_provider:0000000000000000 $t
/var/folders/c6/c789hm653lg9vtl73krp73tm0000gn/T//ccWixtG4.s:283    .text.null_provider:0000000000000000 null_provider
/var/folders/c6/c789hm653lg9vtl73krp73tm0000gn/T//ccWixtG4.s:300    .text.pools1_setup:0000000000000000 $t
/var/folders/c6/c789hm653lg9vtl73krp73tm0000gn/T//ccWixtG4.s:305    .text.pools1_setup:0000000000000000 pools1_setup
/var/folders/c6/c789hm653lg9vtl73krp73tm0000gn/T//ccWixtG4.s:321    .text.pools1_setup:000000000000000c $d
/var/folders/c6/c789hm653lg9vtl73krp73tm0000gn/T//ccWixtG4.s:326    .text.pools1_execute:0000000000000000 $t
/var/folders/c6/c789hm653lg9vtl73krp73tm0000gn/T//ccWixtG4.s:331    .text.pools1_execute:0000000000000000 pools1_execute
/var/folders/c6/c789hm653lg9vtl73krp73tm0000gn/T//ccWixtG4.s:470    .text.pools1_execute:00000000000000b4 $d
/var/folders/c6/c789hm653lg9vtl73krp73tm0000gn/T//ccWixtG4.s:488    .rodata.patternpools:0000000000000000 patternpools
/var/folders/c6/c789hm653lg9vtl73krp73tm0000gn/T//ccWixtG4.s:504    .rodata.testpools1:0000000000000000 testpools1
/var/folders/c6/c789hm653lg9vtl73krp73tm0000gn/T//ccWixtG4.s:481    .rodata.str1.4:0000000000000000 $d
/var/folders/c6/c789hm653lg9vtl73krp73tm0000gn/T//ccWixtG4.s:485    .rodata.patternpools:0000000000000000 $d
/var/folders/c6/c789hm653lg9vtl73krp73tm0000gn/T//ccWixtG4.s:492    .data.mp1:0000000000000000 $d
/var/folders/c6/c789hm653lg9vtl73krp73tm0000gn/T//ccWixtG4.s:496    .data.mp1:0000000000000000 mp1
/var/folders/c6/c789hm653lg9vtl73krp73tm0000gn/T//ccWixtG4.s:501    .rodata.testpools1:0000000000000000 $d
                            *COM*:0000000000000001 __gnu_lto_v1
                     .debug_frame:0000000000000010 $d

UNDEFINED SYMBOLS
chPoolObjectInit
chPoolLoadArray
chPoolAlloc
_test_assert
chPoolFree
wa
