ARM GAS  /var/folders/c6/c789hm653lg9vtl73krp73tm0000gn/T//ccj6qQHm.s 			page 1


   1              		.syntax unified
   2              		.cpu cortex-m4
   3              		.fpu softvfp
   4              		.eabi_attribute 20, 1
   5              		.eabi_attribute 21, 1
   6              		.eabi_attribute 23, 3
   7              		.eabi_attribute 24, 1
   8              		.eabi_attribute 25, 1
   9              		.eabi_attribute 26, 1
  10              		.eabi_attribute 30, 2
  11              		.eabi_attribute 34, 1
  12              		.eabi_attribute 18, 4
  13              		.thumb
  14              		.file	"testheap.c"
  15              		.text
  16              	.Ltext0:
  17              		.section	.gnu.lto_.jmpfuncs.64bbd8f52d4b5916,"",%progbits
  18 0000 789C6362 		.ascii	"x\234cb`b\300\006f2Ch\240,\023S\004c&#\003\017\230\013"
  18      6062C006 
  18      66324368 
  18      A02C1353 
  18      04632623 
  19 0018 617343D8 		.ascii	"asC\330\325\014\277\032:\032\0042\031\031s\031\241\372"
  19      D50CBF1A 
  19      3A1A0432 
  19      19197319 
  19      A1FA
  20 002a 18E16AB8 		.ascii	"\030\341j\270p\252!E\020l\024'>\353\030\261J\20152)"
  20      70AA2145 
  20      106C1427 
  20      3EEB18B1 
  20      4A813532 
  21 003f C08DE0C0 		.ascii	"\300\215\340\300\357b\034\372\005\010\311\201\315f'"
  21      EF621CFA 
  21      0508C981 
  21      CD6627
  22 004e E83CB032 		.ascii	"\350<\26026\212\003\004\335bV\252{J\020n6\013\001OQ"
  22      368A0304 
  22      DD6256AA 
  22      7B4A106E 
  22      360B014F 
  23 0063 146C047D 		.ascii	"\024l\004}\306<P\266\343N\204L\0106#L\017C\303\277\377"
  23      C63C50B6 
  23      E34E844C 
  23      0836234C 
  23      0F43C3BF 
  24 0078 FFF99123 		.ascii	"\377\371\221#\231\021\213*\204\277\240F210cq\004\\\204"
  24      99118B2A 
  24      84BFA046 
  24      32313063 
  24      71045C84 
  25 008c 599B6155 		.ascii	"Y\233aUC\003\210\305\222\313\310\230\004s\007\334\322"
  25      430388C5 
  25      92CBC898 
  25      047307DC 
  25      D2
  26 009d 17A0AC08 		.ascii	"\027\240\254\010\000\207\223\212\230"
ARM GAS  /var/folders/c6/c789hm653lg9vtl73krp73tm0000gn/T//ccj6qQHm.s 			page 2


  26      0087938A 
  26      98
  27              		.text
  28              		.section	.gnu.lto_.inline.64bbd8f52d4b5916,"",%progbits
  29 0000 789C6362 		.ascii	"x\234cb`b\300\006\3662Bh&\006\216\347\214g\031\030\031"
  29      6062C006 
  29      F6324268 
  29      26068EE7 
  29      8C671918 
  30 0015 98429A9C 		.ascii	"\230B\232\234\030\330\026\310\203\225\263\360\202d&"
  30      18D816C8 
  30      8395B3F0 
  30      826426
  31 0024 F8A1D20C 		.ascii	"\370\241\322\014L\334\014\014\214\030\2420.3\017\012"
  31      4CDC0C0C 
  31      8C18A230 
  31      2E330F0A 
  32 0034 17550F8A 		.ascii	"\027U\017\212V\034jP$\2111\007\273\026\312M\307\243"
  32      561C6A50 
  32      24893107 
  32      BB16CA4D 
  32      C7A3
  33 0046 837C8D78 		.ascii	"\203|\215x\203\007M\024\252\226\221\013\034C\354\374"
  33      83074D14 
  33      AA96910B 
  33      1C43ECFC 
  34 0056 8CE05844 		.ascii	"\214\340XD\216\035f\020\003\000\363\332 \205"
  34      8E1D6610 
  34      0300F3DA 
  34      2085
  35              		.text
  36              		.section	.gnu.lto_.pureconst.64bbd8f52d4b5916,"",%progbits
  37 0000 789C6362 		.ascii	"x\234cb`b`e\200\000&\006\011&\011\000\001\000\000>"
  37      60626065 
  37      80002606 
  37      09260900 
  37      0100003E 
  38              		.text
  39              		.section	.gnu.lto_heap1_execute.64bbd8f52d4b5916,"",%progbits
  40 0000 789CAD58 		.ascii	"x\234\255X]hTG\024>s\357\376ew\223\335l\262\206@\361"
  40      5D685447 
  40      143E73EF 
  40      FE657793 
  40      DD6CB286 
  41 0016 2FA42954 		.ascii	"/\244)T\023\323\024m\010!\342\203\022B@\321\245\306"
  41      13D3146D 
  41      0821E283 
  41      124240D1 
  41      A5C6
  42 0028 8A246E53 		.ascii	"\212$nS\263\215\011K\223\276\350\203\327d-V\032*BA\244"
  42      B38D094B 
  42      93BEE883 
  42      D7642D56 
  42      1A2A4241 
  43 003d A5116B5B 		.ascii	"\245\021k[IE\304\007\013\3066\264\245M\244\032\012B"
  43      4945C407 
  43      0BC636B4 
ARM GAS  /var/folders/c6/c789hm653lg9vtl73krp73tm0000gn/T//ccj6qQHm.s 			page 3


  43      A54DA41A 
  43      0A42
  44 004f B5F467E9 		.ascii	"\265\364g\351K-\025\353C\241\245\266n\317\231\231\235"
  44      4B2D15EB 
  44      43A1A5B6 
  44      6ECF9999 
  44      9D
  45 0060 DDCDFDE9 		.ascii	"\335\315\375\351\212w\0113\367\2349\347\314\234\357"
  45      8A770933 
  45      F79C39E7 
  45      CC9CEF
  46 006f FBEEDDBB 		.ascii	"\373\356\335\273\321@\203\245\237\000\003\370\263\026"
  46      D14083A5 
  46      9F0003F8 
  46      B316
  47 007d A013AF59 		.ascii	"\240\023\257Y\034\230v\374\006\300\341\200\246\305f"
  47      1C9876FC 
  47      06C0E180 
  47      A6C566
  48 008c 378011D4 		.ascii	"7\200\021\324o.\003#\254K\313\303-\217\264\274\334\362"
  48      6F2E0323 
  48      AC4BCBC3 
  48      2D8FB4BC 
  48      DCF2
  49 009e 4ACBC72D 		.ascii	"J\313\307-\237\264\374\334\362k\301\251'\321\012L>\205"
  49      9FB4FCDC 
  49      F26BC1A9 
  49      27D10A4C 
  49      3E85
  50 00b0 5640ABBD 		.ascii	"V@\253\275\037G+8\375\034Z\265,H[\261\240\314\010\361"
  50      1F472B38 
  50      FD1C5AB5 
  50      2C485BB1 
  50      A0CC08F1 
  51 00c4 8C90B4C2 		.ascii	"\214\220\264\302\334\012K\253\222[\225\322\252\342V"
  51      DC0A4BAB 
  51      925B95D2 
  51      AAE256
  52 00d3 95B422DC 		.ascii	"\225\264\"\334\212H+\312\255\250\026\273\331\202V\365"
  52      8A482BCA 
  52      ADA816BB 
  52      D98256F5 
  53 00e3 EC72B4AA 		.ascii	"\354r\264\252Y\215h*\226\277\250a\214.\200\301!M\367"
  53      598D682A 
  53      96BFA861 
  53      8C2E80C1 
  53      214DF7
  54 00f6 787DFE40 		.ascii	"x}\376@m0\024\256\254\212D\253c5\354P\037\343\310\254"
  54      6D3014AE 
  54      AC8A44AB 
  54      6335EC50 
  54      1FE3C8AC 
  55 010a 86D38671 		.ascii	"\206\323\206q<{\344\301\311\372c\323\023\307\215\207"
  55      3C7BE4C1 
  55      C9FA63D3 
  55      13C78D87 
  56 011a B91C4B31 		.ascii	"\271\034K1\304p\005\203$\203\235h\260\225|\322<\245"
ARM GAS  /var/folders/c6/c789hm653lg9vtl73krp73tm0000gn/T//ccj6qQHm.s 			page 4


  56      C4700583 
  56      24839D68 
  56      B0957CD2 
  56      3CA5
  57 012c A0F2CC13 		.ascii	"\240\362\314\023s\357\\{\2538S\327\240\251\314\314\313"
  57      73EF5C7B 
  57      AB3853D7 
  57      A0A9CCCC 
  57      CB
  58 013d D7164E33 		.ascii	"\327\026N3\343\204q\370~.\027\341\231O\227\273\347\227"
  58      E38471F8 
  58      7E2E17E1 
  58      994F97BB 
  58      E797
  59 014f 6FD41B85 		.ascii	"o\324\033\205==\032\254+/\323\270\372\342\274\221\231"
  59      3D3D1AAC 
  59      2B2FD3B8 
  59      FAE2BC91 
  59      99
  60 0160 CBE5BA78 		.ascii	"\313\345\272xV[\231Y\337\226d\255/'k\356\304\334\273"
  60      565B9959 
  60      DF9664AD 
  60      2F276BEE 
  60      C4DCBB
  61 0173 AF4D159F 		.ascii	"\257M\025\237\322\253A{y\231\306\225\302~\230\325\361"
  61      D2AB417B 
  61      7999C695 
  61      C27E98D5 
  61      F1
  62 0184 7F5917B4 		.ascii	"\177Y\027\264\271l.\367\375\305\367~~\233\305^e0\300"
  62      B96C2EF7 
  62      FDC5F77E 
  62      7E9BC55E 
  62      6530C0
  63 0197 4EB3D550 		.ascii	"N\263\325P\201\363\0078\007!\305|a\032\"\322\023%#F"
  63      81F30738 
  63      0721C57C 
  63      611A22D2 
  63      13252346 
  64 01ab 435C7AEA 		.ascii	"C\\z\352p>\207s=\31638/\307E}\005E\254\242\241A\206"
  64      703E8773 
  64      3DCE3338 
  64      2FC7457D 
  64      0545ACA2 
  65 01c2 35CAB026 		.ascii	"5\312\260&\031\266\206\302\326RD\013\015\2552\254M\206"
  65      19B686C2 
  65      D652440B 
  65      0DAD32AC 
  65      4D86
  66 01d4 ADA7E50D 		.ascii	"\255\247\345\015\264\322NC\207\\\356$w\027\015\033\311"
  66      B4D24E43 
  66      875CEE24 
  66      77170D1B 
  66      C9
  67 01e5 BD8986CD 		.ascii	"\275\211\206\315dn\241\253n\032zdh\257\254\264\225\226"
  67      646EA1AB 
  67      6E1A7A64 
ARM GAS  /var/folders/c6/c789hm653lg9vtl73krp73tm0000gn/T//ccj6qQHm.s 			page 5


  67      68AFACB4 
  67      9596
  68 01f7 B7D1CA76 		.ascii	"\267\321\312v\032\022r\271\217\334\273\310\263\233\206"
  68      1A1272B9 
  68      8FDCBBC8 
  68      B39B86
  69 0206 3DE83E83 		.ascii	"=\350>\203\356~\271\274\227\226\223\2642H\303\020\231"
  69      EE7EB9BC 
  69      979693B4 
  69      3248C310 
  69      99
  70 0217 29BA1AA6 		.ascii	")\272\032\246a\277\214\036\301\371,\316\243\344L\323"
  70      61BF8C1E 
  70      C1F92CCE 
  70      A3E44CD3 
  71 0227 80907A21 		.ascii	"\200\220z!\203\267\305JQG\234A\264<\300\316\363\361"
  71      83B7C54A 
  71      51479C41 
  71      B43CC0CE 
  71      F3F1
  72 0239 028E40BC 		.ascii	"\002\216@\274\340g\007\216t\253%\230F\263\276\010\223"
  72      E067078E 
  72      74AB2598 
  72      46B3BE08 
  72      93
  73 024a D953C901 		.ascii	"\331S\311\001v\221yq\365 \374m\0345\242)\346O2\036\216"
  73      76917971 
  73      F520FC6D 
  73      1C35A229 
  73      E64F321E 
  74 025f 5B040016 		.ascii	"[\004\000\026\341\310\364\207\272)\250\"\311\304\363"
  74      E1C8F487 
  74      BA29A822 
  74      C9C4F3
  75 026e 8B880E8A 		.ascii	"\213\210\016\212\005\374\274\220b!\261\251\314H\261"
  75      05FCBC90 
  75      6221B1A9 
  75      CC48B1
  76 027d 30AF913D 		.ascii	"0\257\221=\3679\023\256}\254BU\251L2\275\270\012M^\242"
  76      F73913AE 
  76      7DAC4255 
  76      A94C32BD 
  76      B80A4D5E 
  77 0292 BD0A6001 		.ascii	"\275\012`\0014\221 \232\3034\200\3530ykrfJ\317W\012"
  77      3491209A 
  77      C33480EB 
  77      30796B72 
  77      664ACF57 
  78 02a7 A29772B8 		.ascii	"\242\227r\270\320\026\301\233\367\207\325\016\221\244"
  78      D016C19B 
  78      F787D50E 
  78      91A4
  79 02b5 58E4A575 		.ascii	"X\344\245uF9)\026\005\230\207\314]u\2400-\372\212\245"
  79      46392916 
  79      059887CC 
  79      5D75A030 
  79      2DFA8AA5 
ARM GAS  /var/folders/c6/c789hm653lg9vtl73krp73tm0000gn/T//ccj6qQHm.s 			page 6


  80 02c9 9AC073DD 		.ascii	"\232\300s\335\\\206\010e\2623g\374\246\356\253\223\334"
  80      5C860865 
  80      B23367FC 
  80      A6EEAB93 
  80      DC
  81 02da 063A558A 		.ascii	"\006:U\212\305D\207\037\025:\2148v\250\323\235\026\261"
  81      C544871F 
  81      153A8C38 
  81      76A8D39D 
  81      16B1
  82 02ec E932C2BB 		.ascii	"\3512\302\273\\\234\274\\\3502\212^\253.c6]j\224c\356"
  82      5C9CBC5C 
  82      E8328A5E 
  82      AB2E6336 
  82      5D6A9463 
  83 0301 3266D1A5 		.ascii	"2f\321\245\007\026|:Q\374\261\003\305\302C\334\006G"
  83      07167C3A 
  83      51FCB103 
  83      C5C243DC 
  83      0647
  84 0313 589ED883 		.ascii	"X\236\330\203p\300\226\353+\005$\342f$d\271\347K\312"
  84      70C096EB 
  84      2B0524E2 
  84      662464B9 
  84      E74BCA
  85 0326 95323F31 		.ascii	"\2252?1\347+E%.\2048\2530\251{\334\272\347x\335:Q\367"
  85      E72B4525 
  85      2E8438AB 
  85      30A97BDC 
  85      BAE778DD 
  86 033d AAAA5BFF 		.ascii	"\252\252[\377\270ugx\335z\252\233\311~\342\254\235\270"
  86      B8756778 
  86      DD7AAA9B 
  86      C97EE2AC 
  86      9DB8
  87 034f D44E66FA 		.ascii	"\324Nf\372S3\374Equ*n\3361\256^iq!\231oh\2715\237\001"
  87      5333FC45 
  87      71752A6E 
  87      DE31AE5E 
  87      69712199 
  88 0369 4B32CF2F 		.ascii	"K2\317/!\223\224\250\240Y\201\305x\333\254T\206\253"
  88      219394A8 
  88      A05981C5 
  88      78DBAC54 
  88      86AB
  89 037b 6C64A853 		.ascii	"ld\250S\216Y\206\253,d\350\205?\030\3110\373uA9\015"
  89      8E5986AB 
  89      2C64E885 
  89      3F18C930 
  89      FB754139 
  90 0390 EE28A741 		.ascii	"\356(\247A0|]\265\321\350\216r\032E\335\033\252n\223"
  90      307C5DB5 
  90      D1E88E72 
  90      1A45DD1B 
  90      AA6E93
  91 03a3 3BCA6912 		.ascii	";\312i\022\312YtVN\223R\304-GE4\252\270\333\216q\015"
  91      CA597456 
ARM GAS  /var/folders/c6/c789hm653lg9vtl73krp73tm0000gn/T//ccj6qQHm.s 			page 7


  91      4E9352C4 
  91      2D474534 
  91      AAB8DB8E 
  92 03b9 4A39DF29 		.ascii	"J9\337)\345\254qM9k\261\230\225rZl\224\343\241\034\263"
  92      E5AC714D 
  92      396BB198 
  92      95725A6C 
  92      94E3A11C 
  93 03ce 725A2C94 		.ascii	"rZ,\224\343\203\257\200+\347\207\202rZ\037\205\211j"
  93      E383AF80 
  93      2BE78782 
  93      725A1F85 
  93      896A
  94 03e0 5BE5B40A 		.ascii	"[\345\264\012\206\177Tm\264\271\243\2346\301\360O\316"
  94      867F546D 
  94      B4B9A39C 
  94      36C1F04F 
  94      CE
  95 03f1 0CB72A46 		.ascii	"\014\267*F\356(F\326\273\306\310\006,\266S\274\354\225"
  95      EE2846D6 
  95      BBC6C806 
  95      2CB653BC 
  95      EC95
  96 0403 30D26EC3 		.ascii	"0\322n\303\010\31713\322n\301\210\037\342\234\220_\013"
  96      08CF3133 
  96      D26EC188 
  96      1FE29C90 
  96      5F0B
  97 0415 8474B873 		.ascii	"\204t\270s+w\010<\356*<:\037\007\217y\370\342\027u\302"
  97      2B77083C 
  97      EE2A3C3A 
  97      1F078F79 
  97      F8E21775 
  98 042a 4E25CF42 		.ascii	"N%\317B#\001\010\351E\320t\271\266Y\227B>\377\331\301"
  98      230108E9 
  98      45D074B9 
  98      B6599742 
  98      3EFFD9C1 
  99 043e 6A416709 		.ascii	"jAg\011|A\210\353\327a\342\236\342i\343>z\027+:\305"
  99      7C4188EB 
  99      D761E29E 
  99      E269E33E 
  99      7A172B3A 
 100 0453 261B827C 		.ascii	"&\033\202|\024l&h\323\022\202n\003#\017\376\330\252"
 100      146C2668 
 100      D312826E 
 100      03230FFE 
 100      D8AA
 101 0465 E579E80A 		.ascii	"\345y\350\012\200\364\370y\327!\360\361\327\236{\316"
 101      80F4F879 
 101      D721F0F1 
 101      D79E7BCE 
 102 0475 F26C530F 		.ascii	"\362lS\017\226\337\035\037,\035J\306\177)\3326\273&"
 102      96DF1D1F 
 102      2C1D4AC6 
 102      7F29DA36 
 102      BB26
ARM GAS  /var/folders/c6/c789hm653lg9vtl73krp73tm0000gn/T//ccj6qQHm.s 			page 8


 103 0487 E32D58CC 		.ascii	"\343-X\314\352\301\322m\203\222\237r\314(u[\3108\014"
 103      EAC1D26D 
 103      83929F72 
 103      CC28755B 
 103      C8380C
 104 049a 1A97F183 		.ascii	"\032\227\361\203\202\214{\334\221q\217x\256\374\243"
 104      828C7BDC 
 104      91718F78 
 104      AEFCA3
 105 04a9 BAE875E7 		.ascii	"\272\350u\347\271\322+\236+\377:\023\327\243\010y\250"
 105      B9D22B9E 
 105      2BFF3A13 
 105      D7A30879 
 105      A8
 106 04ba 08D9EA1A 		.ascii	"\010\331\352\032!\333\260\230\325se\273\015!\001\312"
 106      21DBB098 
 106      D57365BB 
 106      0D2101CA 
 107 04ca 3113B2DD 		.ascii	"1\023\262\335\202\220J\020\257\010\271\002!\211G\001"
 107      82904A10 
 107      AF08B902 
 107      21894701 
 108 04da 6EA52D21 		.ascii	"n\245-!\011\001\334\321\263\216\300%\224\342_\367:\305"
 108      0901DCD1 
 108      B38EC025 
 108      94E25FF7 
 108      3AC5
 109 04ec F52A808F 		.ascii	"\365*\200\217\015\346\017\332\347\032\300\273\260\230"
 109      0DE60FDA 
 109      E71AC0BB 
 109      B098
 110 04fa 95E277DB 		.ascii	"\225\342w\333\000\\A9f\200w[\000\214\340\360\237\002"
 110      005C4139 
 110      6680775B 
 110      008CE0F0 
 110      9F02
 111 050c 53E6F6CA 		.ascii	"S\346\366\312\373)`>\370\304\302\2553\267\265\374\246"
 111      FB29603E 
 111      F8C4C2AD 
 111      33B7B5FC 
 111      A6
 112 051d 7B440807 		.ascii	"{D\010\007'\317\301>\326_&\211\230oG`\277\300\373M\205"
 112      27CFC13E 
 112      D65F2689 
 112      986F4760 
 112      BFC0FB4D 
 113 0532 F75ED7F0 		.ascii	"\367^\327\360Nb1\2167\224\342=h\203w\220r\314x\017Z"
 113      4E62318E 
 113      3794E23D 
 113      68837790 
 113      72CC780F 
 114 0547 E01DE178 		.ascii	"\340\035\341xg\262'\235u\327\257\364tJ\3657\344Z\177"
 114      67B2279D 
 114      75D7AFF4 
 114      744AF537 
 114      E45A7F
 115 055a 292C66A5 		.ascii	"),f\245\247a\233\376B\224c\356o\330\242?\214\241/\263"
ARM GAS  /var/folders/c6/c789hm653lg9vtl73krp73tm0000gn/T//ccj6qQHm.s 			page 9


 115      A7619BFE 
 115      429463EE 
 115      6FD8A23F 
 115      8CA12FB3 
 116 056e 853BEFAB 		.ascii	"\205;\357\253\260\375y\005\240\277;\357\034\311\377"
 116      B0FD7905 
 116      A0BF3BEF 
 116      1CC9FF
 117 057d 97A2E460 		.ascii	"\227\242\344`\243\030\215k%\207J\333\034*L\361\346C"
 117      A3188D6B 
 117      25874ADB 
 117      1C2A4CF1 
 117      E643
 118 058f A52D0E55 		.ascii	"\245-\016U\315\017\365\331o\352W7\235\347Y\270d\034"
 118      CD0FF5D9 
 118      6FEA5737 
 118      9DE759B8 
 118      641C
 119 05a1 9524972C 		.ascii	"\225$\227,^X\262(j\304\370\177O(p\376e\2072\303\316"
 119      5E58B228 
 119      6AC4F87F 
 119      4F2870FE 
 119      658732C3 
 120 05b6 556A7895 		.ascii	"Ujx\225o\340p\240p\276\035\370m\217^b\364\211\346\346"
 120      6FE070A0 
 120      70BE1DF8 
 120      6D8F5E62 
 120      F489E6E6 
 121 05ca 16F1373E 		.ascii	"\026\3617>86\336\362\3128\237\207\006\007\322\315I\360"
 121      3836DEF2 
 121      CA389F87 
 121      0607D2CD 
 121      49F0
 122 05dc A75E1A1F 		.ascii	"\247^\032\037I7\257\323G\233[=c\007\232\237\321\322"
 122      4937AFD3 
 122      479B5B3D 
 122      63079A9F 
 122      D1D2
 123 05ee AD5A1AC7 		.ascii	"\255Z\032\30766\252\215\035\370\0174(\2757"
 123      3636AA8D 
 123      1DF80F34 
 123      28BD37
 124              		.text
 125              		.section	.gnu.lto_heap1_setup.64bbd8f52d4b5916,"",%progbits
 126 0000 789C6362 		.ascii	"x\234cb`b@\007\222@|\000\210\345\200\230\221\231\201"
 126      60624007 
 126      92407C00 
 126      88E58098 
 126      919981
 127 0013 9169C239 		.ascii	"\221i\3029\006\206F\016&FF\020\203\201\221\241\236\211"
 127      0686460E 
 127      26464610 
 127      838191A1 
 127      9E89
 128 0025 B13E9211 		.ascii	"\261>\222\021\254v=\323\201\007\377\377\257\233pl\376"
 128      AC763DD3 
 128      8107FFFF 
ARM GAS  /var/folders/c6/c789hm653lg9vtl73krp73tm0000gn/T//ccj6qQHm.s 			page 10


 128      AF9B706C 
 128      FE
 129 0036 1EC6194C 		.ascii	"\036\306\031L\314@\021V\206\226\206\206\011\012\014"
 129      CC401156 
 129      86968686 
 129      090A0C
 130 0045 0CC96015 		.ascii	"\014\311`\025!@\022\244-\224\221\011D3\237gh{\320\365"
 130      214012A4 
 130      2D949109 
 130      44339F67 
 130      687BD0F5 
 131 0059 982B9171 		.ascii	"\230+\221q!#+P\272\232\341WCG\203@&#P9\304D\220\010"
 131      21232B50 
 131      BA9AE157 
 131      43478340 
 131      26235039 
 132 0071 47262363 		.ascii	"G&#c.#\003T\021DM\303D\306LF&m\206U\015@0\023\310f\316"
 132      2E230354 
 132      11444DC3 
 132      44C64C46 
 132      266D8655 
 133 008c 65644C82 		.ascii	"edL\202\350\201\251\214\000\012\263\274\340a\310\004"
 133      E881A98C 
 133      000AB3BC 
 133      E061C804 
 134 009c 712E3234 		.ascii	"q.24>\350V\206Y\004\001!@K\200\256\000\371YFOO\037\202"
 134      3EE85686 
 134      59040121 
 134      404B80AE 
 134      00F95946 
 135 00b4 4A528B4B 		.ascii	"JR\213K\364\213J\300tFjb\201^2\003\000\233\337;\030"
 135      F48B4AC0 
 135      74466A62 
 135      815E3203 
 135      009BDF3B 
 136              		.text
 137              		.section	.gnu.lto_.symbol_nodes.64bbd8f52d4b5916,"",%progbits
 138 0000 789C4D90 		.ascii	"x\234M\220\313J\003A\020E\253\272g2QW\356C\262\363\247"
 138      CB4A0341 
 138      1045ABBA 
 138      67325157 
 138      EE43B2F3 
 139 0015 5C990103 		.ascii	"\\\231\001\003\011D\360\007*\320\240\250\020\305\354"
 139      0944F007 
 139      2AD0A0A8 
 139      10C5EC
 140 0024 44DCF4CA 		.ascii	"D\334\364\312\357\350\275\313d\2534\361\375\372\002"
 140      EFE8BDCB 
 140      64AB34F1 
 140      FDFA02
 141 0033 B1EBF6E0 		.ascii	"\261\353\366\3408\213>}\353q\253z\014\031\3326\224?"
 141      388B3E7D 
 141      EB71AB7A 
 141      0C19DA36 
 141      943F
 142 0045 F3C44274 		.ascii	"\363\304BtqG$r}\262W\256\231\012\261\346\221\205\377"
 142      71472472 
ARM GAS  /var/folders/c6/c789hm653lg9vtl73krp73tm0000gn/T//ccj6qQHm.s 			page 11


 142      7DB257AE 
 142      990AB1E6 
 142      9185FF
 143 0058 45BF9949 		.ascii	"E\277\231I\250|aS&<\263M\340\017\026\223kf3\3467\026"
 143      A87C6153 
 143      263CB34D 
 143      E00F1693 
 143      6B6633E6 
 144 006e DBAA4F96 		.ascii	"\333\252O\226\242U\357,e\253^Y:\255\372b\251\376\224"
 144      A255EF2C 
 144      65AB5E59 
 144      3AADFA62 
 144      A9FE94
 145 0081 A54D72F7 		.ascii	"\245Mr\367?\211\025yp\203\002\330!\377\240\354R\274"
 145      3F891579 
 145      708302D8 
 145      21FFA0EC 
 145      52BC
 146 0093 DDD1B03B 		.ascii	"\335\321\260;Z\027\032\216`*?^\346\362\206\356\264\321"
 146      5A171A8E 
 146      602A3F5E 
 146      E6F286EE 
 146      B4D1
 147 00a5 6097DC59 		.ascii	"`\227\334Y\246o\030\300\212\"\230\354\347\271>\316{"
 147      A66F18C0 
 147      8A2298EC 
 147      E7B93ECE 
 147      7B
 148 00b6 0A7F0E44 		.ascii	"\012\177\016DEj\272\004BFTT\344\026=m\014\013T\272\245"
 148      456ABA04 
 148      42465454 
 148      E4163D6D 
 148      0C0B54BA 
 149 00cb C538459A 		.ascii	"\3058E\232\266\262XJ\221v\\!\347\257\362\304\014\277"
 149      B6B2584A 
 149      91765C21 
 149      E7AFF2C4 
 149      0CBF
 150 00dd AB297793 		.ascii	"\253)w\223\267\351\303\270\017\337\001l\007p\035\302"
 150      B7E9C3B8 
 150      0FDF016C 
 150      07701DC2 
 151 00ed 7408CF1A 		.ascii	"t\010\317\032m5\034k\030\356\243\013\247\033!;B6\337"
 151      6D351C6B 
 151      18EEA30B 
 151      A71B213B 
 151      4236DF
 152 0100 C778C118 		.ascii	"\307x\301\030\367\011\342\023<f\252\2210\305\370\003"
 152      F709E213 
 152      3C66AA91 
 152      30C5F803 
 153 0110 BCFDD09A 		.ascii	"\274\375\320\232-\374x\372\005\014\366\200\233"
 153      2DFC78FA 
 153      050CF680 
 153      9B
 154              		.text
 155              		.section	.gnu.lto_.refs.64bbd8f52d4b5916,"",%progbits
ARM GAS  /var/folders/c6/c789hm653lg9vtl73krp73tm0000gn/T//ccj6qQHm.s 			page 12


 156 0000 789C6362 		.ascii	"x\234cb`bpe\200\000I\006&F\222!\023\02033\2620\261\002"
 156      60627065 
 156      80004906 
 156      26469221 
 156      13103333 
 157 0018 21131303 		.ascii	"!\023\023\003\003\000*\354\000\323"
 157      03002AEC 
 157      00D3
 158              		.text
 159              		.section	.gnu.lto_.decls.64bbd8f52d4b5916,"",%progbits
 160 0000 789CBD5A 		.ascii	"x\234\275Z\177p\024\325\035\337\267\227\344r\311\211"
 160      7F7014D5 
 160      1DDFB797 
 160      E472C989 
 161 0010 A8AD0DD4 		.ascii	"\250\255\015\324\221\263j\213Z\222\240Q\303LGb\351\370"
 161      91B36A8B 
 161      5A92A051 
 161      C34C4762 
 161      E9F8
 162 0022 63AA76A6 		.ascii	"c\252v\246\305\031\307\351\314u\271l\222\323\313\335"
 162      C519C7E9 
 162      CC75B96C 
 162      92D3CBDD 
 163 0032 B9B7E147 		.ascii	"\271\267\341G\373\207\313\201!\012\243\021\005\202$"
 163      FB87CB81 
 163      210AA311 
 163      058224
 164 0041 E4C20F05 		.ascii	"\344\302\017\005-H\370\241\002\211Y\021B\004\025\010"
 164      2D48F8A1 
 164      02895911 
 164      42041508 
 165 0051 941F2299 		.ascii	"\224\037\"\231@*\277U\020\265\200\302\365\373\336\333"
 165      402ABF55 
 165      10B580C2 
 165      F5FBDEDB 
 166 0061 BDDBDDEC 		.ascii	"\275\333\335\354\336\355\035\266;yo\337\355\276\367"
 166      DEED1DB6 
 166      3B796FDF 
 166      EDBEF7
 167 0070 F9FEFEBE 		.ascii	"\371\376\376\276\037Y\226a\231\012\3040q\270\012\312"
 167      1F599661 
 167      990AC430 
 167      71B80ACA 
 168 0080 18E6C93C 		.ascii	"\030\346\311<\206q0\014s\037\224\\\245\264AY\001e\032"
 168      8671300C 
 168      731F945C 
 168      A5B44159 
 168      01651A
 169 0093 F49B0E05 		.ascii	"\364\233\016\005\376\230z\250\362\341\276\000\356\255"
 169      FE987AA8 
 169      F2E1BE00 
 169      EEAD
 170 00a1 50164179 		.ascii	"P\026Ay\023\312*(k\241\254\207\322\001%\007\372l\202"
 170      13CA2A28 
 170      6BA1AC87 
 170      D2012507 
 170      FA6C82
ARM GAS  /var/folders/c6/c789hm653lg9vtl73krp73tm0000gn/T//ccj6qQHm.s 			page 13


 171 00b4 FB6628DD 		.ascii	"\373f(\335P>\307\2035\027\036\177\035C\373\015\201\342"
 171      503EC783 
 171      35171E7F 
 171      1D43FB0D 
 171      81E2
 172 00c6 56688E55 		.ascii	"Vh\216Uh.\201\367\307\240l\200r\034Q^V\302\375-('\240"
 172      682E81F7 
 172      C7A06C80 
 172      721C515E 
 172      56C2FD2D 
 173 00dd AC837212 		.ascii	"\254\203r\022\312b(\247\240\264+\370y\012\366z\205\257"
 173      CA6228A7 
 173      A0B42BF8 
 173      790AF67A 
 173      85AF
 174 00ef B50A8FAB 		.ascii	"\265\012\217\253\024\3767\031\370\3002\3401\247\025"
 174      14FE3719 
 174      F8C032E0 
 174      31A715
 175 00fe 1AAAAC98 		.ascii	"\032\252\254\230\227N\215\314\254\322\267Ci\253\262"
 175      974E8DCC 
 175      ACD2B743 
 175      69ABB2
 176 010d 69AF42E6 		.ascii	"i\257B\346\005I\212J\261z\351\241\236!\3272/Kpy\032"
 176      05498A4A 
 176      B17AE9A1 
 176      9E21D732 
 176      2F4B7079 
 177 0122 06A0D713 		.ascii	"\006\240\327\023\210CC\\\214\304\222\226\333\305x\240"
 177      8843435C 
 177      8CC49296 
 177      DBC578A0 
 178 0132 FBADCC12 		.ascii	"\373\255\314\022Ij\354\177\256\365F)\207C\213\320\265"
 178      496AEC7F 
 178      AEF54629 
 178      87438BD0 
 178      B5
 179 0143 007C3362 		.ascii	"\000|3bng\226\303\270FIZ4\234\031|\245\207e\231r\304"
 179      6E6796C3 
 179      B846495A 
 179      349C197C 
 179      A5876599 
 180 0159 70E875C0 		.ascii	"p\350u\300\343\320Rt;\245#\311]\365nL\007?g\2247&\327"
 180      E3D05274 
 180      3BA523C9 
 180      5DF56E4C 
 180      073F6794 
 181 0170 4D4C0C64 		.ascii	"ML\014d\220wu7\017\223b\233\220N\244\353\2319\2306\374"
 181      90777537 
 181      0F93629B 
 181      904EA4EB 
 181      99399836 
 182 0185 9090C8A1 		.ascii	"\220\220\310\241\261\205*\003\036\225~\016\301\340\320"
 182      B1852A03 
 182      1E957E0E 
 182      C1E0D0
 183 0194 5BE87AD2 		.ascii	"[\350z\322r\020]1.\246!\211\302\230\216R\2241\277~\357"
ARM GAS  /var/folders/c6/c789hm653lg9vtl73krp73tm0000gn/T//ccj6qQHm.s 			page 14


 183      72105D31 
 183      2EA62189 
 183      C2988E52 
 183      9431BF7E 
 184 01a9 3914057C 		.ascii	"9\024\005|\016\255@.\030\335\212\220\216Y\016\345\272"
 184      0EAD402E 
 184      18DD8A90 
 184      8E590EE5 
 184      BA
 185 01ba B4FC92DF 		.ascii	"\264\374\222\337j\007\214G^+\015\354\334W\343>\217;"
 185      6A078C47 
 185      5E2B0DEC 
 185      DC57E33E 
 185      8F3B
 186 01cc 12035210 		.ascii	"\022\003R\020o\231\371\356m\222\224\317\2417An\226\331"
 186      6F99F9EE 
 186      6D9294CF 
 186      A137416E 
 186      96D9
 187 01de 6620ADD3 		.ascii	"f \255\323\005\225\321J\376\325\000`\256\342A\357Xf"
 187      0595D14A 
 187      FED50060 
 187      AEE241EF 
 187      5866
 188 01f0 1F52ED65 		.ascii	"\037R\355e\006\2474u\314km%\365o9\331\343xM\222\233"
 188      06A73475 
 188      CC6B6D25 
 188      F56F39D9 
 188      E3784D92 
 189 0205 4AAF6366 		.ascii	"J\257cfc\373\310yZ\347\250P\021\362\011\261#\204\330"
 189      63FBC879 
 189      5AE7A850 
 189      11F209B1 
 189      2384D8
 190 0218 3A749DDE 		.ascii	":t\235\3369^\351vx\350\343\364\2761\247\376\245\341"
 190      395EE976 
 190      78E8E3F4 
 190      BE31A7FE 
 190      A5E1
 191 022a 526C5691 		.ascii	"RlV\221bU\271^j@S\333o0\247\250\250\266s\307Wm\212]"
 191      6255B95E 
 191      6A4053DB 
 191      6F30A7A8 
 191      A8B673C7 
 192 0242 D713BBBE 		.ascii	"\327\023\273\276\312\352\225\233\011X|\366\216\017\024"
 192      CAEA959B 
 192      09587CF6 
 192      8E0F14
 193 0251 B00E0276 		.ascii	"\260\016\002v:{\260\330\301}7\340\260\350\"@\275\016"
 193      3A7BB0D8 
 193      C17D37E0 
 193      B0E82240 
 193      BD0E
 194 0263 A3B7B90C 		.ascii	"\243\267\271\014\336\346\322{\233\313\225l\304\325K"
 194      DEE6D27B 
 194      9BCB956C 
 194      C4D54B
ARM GAS  /var/folders/c6/c789hm653lg9vtl73krp73tm0000gn/T//ccj6qQHm.s 			page 15


 195 0272 9F16FEA7 		.ascii	"\237\026\376\247cX\346\220C5\250\231\220\351\275g\351"
 195      6358E690 
 195      4335A899 
 195      90E9BD67 
 195      E9
 196 0283 D1650847 		.ascii	"\321e\010G\272\222Xb\025\232\010\325Aa\2566\033\223"
 196      BA925862 
 196      159A08D5 
 196      4161AE36 
 196      1B93
 197 0295 CABC6EE4 		.ascii	"\312\274n\344\241\217\323\371\215$\267voG\322l\267\342"
 197      A18FD3F9 
 197      8D24B776 
 197      6F47D26C 
 197      B7E2
 198 02a7 A5B13CAB 		.ascii	"\245\261<\253T\200\221\266\032\035t~7\353\241\217\323"
 198      548091B6 
 198      1A1D747E 
 198      37EBA18F 
 198      D3
 199 02b8 3BE882FA 		.ascii	";\350\202\372\226\301\311K\247\243A\364\266Ag\345b\231"
 199      96C1C94B 
 199      A7A341F4 
 199      B64167E5 
 199      6299
 200 02ca 01A2D2AD 		.ascii	"\001\242\322\255\026\335\323\2514*7w\273\0339\016\265"
 200      16DDD3A9 
 200      342A3777 
 200      BB1B390E 
 200      B5
 201 02db 912C723C 		.ascii	"\221,r<[\260\304\3052_\022\214\315Yf\210\250\334\256"
 201      5BB0C4C5 
 201      325F128C 
 201      CD596688 
 201      A8DCAE
 202 02ee 647335A9 		.ascii	"ds5\251~\2351\236g\020O\337f\353w\032\214\357\035\206"
 202      7E9D319E 
 202      67104FDF 
 202      66EB771A 
 202      8CEF1D86 
 203 0302 CC678691 		.ascii	"\314g\206\221o%\227$\357\177\240\221S'D\2157IH\035;"
 203      6F259724 
 203      EF7FA091 
 203      5327448D 
 203      3749481D 
 204 0317 9449248D 		.ascii	"\224I$\215\213\255\367\3408\337C\246\331\226\034}\234"
 204      8BADF7E0 
 204      38DF43A6 
 204      D9961C7D 
 204      9C
 205 0328 A7056199 		.ascii	"\247\005a\231\245d\310>c\000\234\343<\364iz\377\377"
 205      A564C83E 
 205      63009CE3 
 205      3CF4697A 
 205      FFFF
 206 033a EE0B17B8 		.ascii	"\356\013\027\270\277\011)\323\2049 \017\377H\222\206"
 206      BF0929D3 
ARM GAS  /var/folders/c6/c789hm653lg9vtl73krp73tm0000gn/T//ccj6qQHm.s 			page 16


 206      8439200F 
 206      FF489286 
 207 034a 72E820E1 		.ascii	"r\350 \341x\2679\307\326\341\012nL\206\364\0318\356"
 207      78B739C7 
 207      D6E10A6E 
 207      4C86F419 
 207      38EE
 208 035c 3F70EC7C 		.ascii	"?p\354|q\023A\356\263\265\0248;\323$\232L\244\210\345"
 208      711341EE 
 208      B3B51438 
 208      3BD3249A 
 208      4CA488E5 
 209 0370 A8E4FF90 		.ascii	"\250\344\377\220\024\243c\340\274\223L\251\003D\212"
 209      14A363E0 
 209      BC934CA9 
 209      03448A
 210 037f 39B969F5 		.ascii	"9\271i\365\256\207a\231\205d\310\321\301R\354,\247R"
 210      AE876199 
 210      8564C8D1 
 210      C152EC2C 
 210      A752
 211 0391 1CB525C5 		.ascii	"\034\265%\305\274\027[\224\0208B\302rY\0026\273\220"
 211      BC175B94 
 211      103842C2 
 211      72590236 
 211      BB90
 212 03a3 7AED5312 		.ascii	"z\355S\022\343\024\354\355\214\301<:\260\326Oi|\332"
 212      E314ECED 
 212      8CC13C3A 
 212      B0D64F69 
 212      7CDA
 213 03b5 5F271D3A 		.ascii	"_'\035:\325?\254\223\210\377\025\211\350S\271\2463\240"
 213      D53FAC93 
 213      88FF1589 
 213      E853B9A6 
 213      33A0
 214 03c7 0DA4F8EC 		.ascii	"\015\244\370\354-\352dz\226@\235\313\032\352\340\274"
 214      2DEA647A 
 214      96409DCB 
 214      1AEAE0BC 
 215 03d7 8E31C4D8 		.ascii	"\2161\304\330\337\022\240\037s\215\223\251\3230\231"
 215      DF12A01F 
 215      738D93A9 
 215      D33099
 216 03e6 3AF5939C 		.ascii	":\365\223\234\323\225l(K\267\377mw\226\231\221g\303"
 216      D3956C28 
 216      4BB7FF6D 
 216      77969991 
 216      67C3
 217 03f8 72D619A8 		.ascii	"r\326\031\250\177\3771y\314|I\236\356P\343\321rVc\231"
 217      7FFF3179 
 217      CC7C499E 
 217      EE50E3D1 
 217      72566399 
 218 040c 1709AD0B 		.ascii	"\027\011\255\013FO\356\334\361q\024M%\006\270`\313\225"
 218      464FEEDC 
 218      F171144D 
ARM GAS  /var/folders/c6/c789hm653lg9vtl73krp73tm0000gn/T//ccj6qQHm.s 			page 17


 218      2506B860 
 218      CB95
 219 041e D76D9B67 		.ascii	"\327m\233g/ \023\333\202[\010\375\271\204\376e#\375"
 219      2F2013DB 
 219      825B08FD 
 219      B984FE65 
 219      23FD
 220 0430 39E7FAEF 		.ascii	"9\347\372\357\243\221t\331\026\371\326\336W\315f\327"
 220      A39174D9 
 220      16F9D6DE 
 220      57CD66D7 
 221 0440 FB7E9ECA 		.ascii	"\373~\236\3125:w\034=\253\010\031eq\310|\234gt\216\261"
 221      353A771C 
 221      3DAB0819 
 221      6571C87C 
 221      9C67748E 
 222 0455 855A62E4 		.ascii	"\205Zb\344\267n\231\374\257\004\373YE,\310)?\274|\265"
 222      B76E99FC 
 222      AF04FB59 
 222      452CC829 
 222      3FBC7CB5 
 223 0469 243D9FA7 		.ascii	"$=\237\247\362\260?cD\217N\023\253{I\016\240`\007\355"
 223      F2B03F63 
 223      448F4E13 
 223      AB7B490E 
 223      A06007ED 
 224 047d 80597A52 		.ascii	"\200YzRT^\253\005\353\313\030L\317\331;Z\260\303v\300"
 224      545EAB05 
 224      EBCB184C 
 224      CFD93B5A 
 224      B0C376C0 
 225 0491 865A73F6 		.ascii	"\206Zs\366\236\026\354\337\031\203\3519\333\240\005"
 225      9E16ECDF 
 225      1983E939 
 225      DBA005
 226 04a0 3B6607AC 		.ascii	";f\007\254\310\232\263\016-\330\251\214\301\364\234"
 226      C89AB30E 
 226      2DD8A98C 
 226      C1F49C
 227 04af BDAF05FB 		.ascii	"\275\257\005\373\332\016\230\307\204\263\304e\265\322"
 227      DA0E98C7 
 227      84B3C465 
 227      B5D2
 228 04bd BCA45D69 		.ascii	"\274\244]i~\223H\011\331/\016\277\3178\205\351\344\306"
 228      7E934809 
 228      D92F0EBF 
 228      CF3885E9 
 228      E4C6
 229 04cf 33E9980D 		.ascii	"3\351\230\015J\\\320\351\354G;\210)\034\346\035\355"
 229      4A5CD0E9 
 229      EC473B88 
 229      291CE61D 
 229      ED
 230 04e0 DC38DD99 		.ascii	"\3348\335\231)\230\336,{0\230.\327(\023R\377R\271\250"
 230      2998DE2C 
 230      7B30982E 
 230      D7281352 
ARM GAS  /var/folders/c6/c789hm653lg9vtl73krp73tm0000gn/T//ccj6qQHm.s 			page 18


 230      FF52B9A8 
 231 04f4 2999EDF2 		.ascii	")\231\355\362U,\274\223\242\251\255Q\222\330Dg\251\250"
 231      552CBC93 
 231      A2A9AD51 
 231      92D84467 
 231      A9A8
 232 0506 C8BC2F87 		.ascii	"\310\274/\207Z\331[\241\216\261\256\004\027\264\255"
 232      5AD95BA1 
 232      8EB1AE04 
 232      17B4AD
 233 0515 B6E8466B 		.ascii	"\266\350Fk\226\323p\334\243^\351\206ZyB\013\253\361"
 233      96D370DC 
 233      A35EE986 
 233      5A79420B 
 233      ABF1
 234 0527 8497EDA8 		.ascii	"\204\227\355\250)E(\374\360i\363/\244~\031i\344M\251"
 234      294528FC 
 234      F069F32F 
 234      A47E1969 
 234      E44DA9
 235 053a 1CBC84E8 		.ascii	"\034\274\204\350Q\226\020KX<]79M\347}\033H\361\331+"
 235      5196104B 
 235      583C5D37 
 235      394DE77D 
 235      1B48F1D9 
 236 054f EE20F3FE 		.ascii	"\356 \363\376\033\004\250-k\240\203\363\026\226\323"
 236      1B04A82D 
 236      6BA083F3 
 236      1696D3
 237 055e 031802B4 		.ascii	"\003\030\002\264\334i\234#\220a\001\201\364S<r%\033"
 237      DC699C23 
 237      90610181 
 237      F4533C72 
 237      251B
 238 0570 8376D43F 		.ascii	"\203v\324?a_\226Yc4\227N\234\264\311\006\202\256\347"
 238      615F9659 
 238      6334974E 
 238      9CB4C906 
 238      82AEE7
 239 0583 77EB574A 		.ascii	"w\353WJ\322\264\274L\014&+\006{\233\250g\343 \365\274"
 239      D2B4BC4C 
 239      0C262B06 
 239      7B9BA867 
 239      E320F5BC 
 240 0597 C166A61F 		.ascii	"\301f\246\037\226\3710c9F\032\3448\223\205\034;\025"
 240      96F93063 
 240      39461AE4 
 240      3893851C 
 240      3B15
 241 05a9 39D61239 		.ascii	"9\326\0229\266\377\004r\354\316X\216R\215\034x;\321"
 241      B6FF0472 
 241      ECCE588E 
 241      528D1C78 
 241      3BD1
 242 05bb F3D87A92 		.ascii	"\363\330z\222\004m\035O\254g\015\307\023\337\355\300"
 242      046D1D4F 
 242      AC670DC7 
ARM GAS  /var/folders/c6/c789hm653lg9vtl73krp73tm0000gn/T//ccj6qQHm.s 			page 19


 242      13DFEDC0 
 243 05cb E720F871 		.ascii	"\347 \370q\372}\340+\275\232\325\276do\265\177\\\321"
 243      FA7DE02B 
 243      BD9AD5BE 
 243      646FB57F 
 243      5CD1
 244 05dd 5807D1D8 		.ascii	"X\007\321\330gf\021f\013)\336\273\271]Y\355w\021\250"
 244      67661166 
 244      0B29DEBB 
 244      B95D59ED 
 244      7711A8
 245 05f0 FEACA10E 		.ascii	"\376\254\241\016\356{\227\006\353&\002t|\220\025\363"
 245      EE7B9706 
 245      EB260274 
 245      7C9015F3 
 246 0600 0C46CCD3 		.ascii	"\014F\314\323\033\021~bJ\347\311I\326\263\312\023\374"
 246      1B117E62 
 246      4AE7C949 
 246      D6B3CA13 
 246      FC
 247 0611 C3C9FCDF 		.ascii	"\303\311\374\337\307\301LL\330\307\006\314fu\211\035"
 247      C7C14C4C 
 247      D8C706CC 
 247      6675891D 
 248 0621 487E78BD 		.ascii	"H~x\2752\213R#]\270\"\304\250\3345[\335\261\216\305"
 248      328B5223 
 248      5DB822C4 
 248      A8DC355B 
 248      DDB18EC5 
 249 0635 F36834FF 		.ascii	"\363h4\377\312\340>\3575\316\243\206\005\374\200\305"
 249      CAE03EEF 
 249      35CEA386 
 249      05FC80C5 
 250 0645 DC933890 		.ascii	"\334\2238\220\350/\372'\361\301\217\311\012\351\371"
 250      E82FFA27 
 250      F1C18FC9 
 250      0AE9F9
 251 0654 7CA3BD8F 		.ascii	"|\243\275\217 \303\012\376\210\376\244\333*\230\266"
 251      20C30AFE 
 251      88FEA4DB 
 251      2A98B6
 252 0663 6BE7C1E6 		.ascii	"k\347\301\346+\023\023'\244?\322\325L\272\355\321\337"
 252      2B131327 
 252      A43FD2D5 
 252      4CBAEDD1 
 252      DF
 253 0674 54343721 		.ascii	"T47!\274\210\020\356e\015\273\243\256\305\207\353\225"
 253      BC8810EE 
 253      650DBBA3 
 253      AEC587EB 
 253      95
 254 0685 80C1EFD2 		.ascii	"\200\301\357\322G\367Ar\312\243\036\333\354H\240*T+"
 254      47F74172 
 254      CAA31EDB 
 254      EC48A02A 
 254      542B
 255 0697 B42BB2B4 		.ascii	"\264+\262\264n%\367\361=\245\231\344\211\236\3414O\354"
ARM GAS  /var/folders/c6/c789hm653lg9vtl73krp73tm0000gn/T//ccj6qQHm.s 			page 20


 255      6E25F7F1 
 255      3DA599E4 
 255      899EE134 
 255      4FEC
 256 06a9 272EB86F 		.ascii	"'.\270o\220\215\272\214\2315\243 9d\224\306\356\036"
 256      908DBA8C 
 256      9935A320 
 256      396494C6 
 256      EE1E
 257 06bb 277159F9 		.ascii	"'qY\371\300.\255\017\014\\\261\017\234\177\304\304\007"
 257      C02EAD0F 
 257      0C5CB10F 
 257      9C7FC4C4 
 257      07
 258 06cc E8399D15 		.ascii	"\3509\235\025\007}Z\016N^a\260u\355\316\374@\347\274"
 258      077D5A0E 
 258      4E5E61B0 
 258      75EDCEFC 
 258      40E7BC
 259 06df 92E20F13 		.ascii	"\222\342\017\023\323\235\035d\272\263\306\305\217\235"
 259      D39D1D64 
 259      BAB3C6C5 
 259      8F9D
 260 06ed F38D4BD9 		.ascii	"\363\215K\331\012\222\270`\005\357\262\2614\365X\372"
 260      0A92B860 
 260      05EFB2B1 
 260      34F558FA 
 261 06fd 300E4965 		.ascii	"0\016IenM{H\222\3105=\303z\2102\216\2618\212\032\\\346"
 261      6E4D7B48 
 261      92C8353D 
 261      C37A8832 
 261      8EB1388A 
 262 0714 879F290E 		.ascii	"\207\237)\016[\346\221!'\215\341\014iZ9\374<i#\232\243"
 262      5BE69121 
 262      278DE10C 
 262      695A39FC 
 262      3C69239A 
 263 0729 F2EE99DA 		.ascii	"\362\356\231\332cC\030\205X\0056[}\352L\230\344\217"
 263      63431885 
 263      5805365B 
 263      7DEA4C98 
 263      E48F
 264 073b 43A7C92E 		.ascii	"C\247\311.\344K\366&\255\356\337\310X\367\036\255\356"
 264      E44BF626 
 264      ADEEDFC8 
 264      58F71EAD 
 264      EE
 265 074c E50BBB9B 		.ascii	"\345\013\273\233\021\345\237\346\243v#\236Y>\032iiK"
 265      11E59FE6 
 265      A376239E 
 265      593E1A69 
 265      694B
 266 075e B9712FD9 		.ascii	"\271q/\331\332\321\031\256\303\016s\245V`Q\271\231\202"
 266      DAD119AE 
 266      C30E73A5 
 266      566051B9 
 266      9982
ARM GAS  /var/folders/c6/c789hm653lg9vtl73krp73tm0000gn/T//ccj6qQHm.s 			page 21


 267 0770 5187DF94 		.ascii	"Q\207\337\2241\230G\007\266q\256j\251>2?}b\007\257\334"
 267      31984707 
 267      B671AE6A 
 267      A93E323F 
 267      7D6207AF 
 268 0785 9AB9DD7B 		.ascii	"\232\271\335{\325\377\231\320\023\326}\031\343\351\371"
 268      D5FF99D0 
 268      13D67D19 
 268      E3E9F9
 269 0794 3B3B5737 		.ascii	";;W7\235\037\261\003Wa\333\221\222\347\343\034:\216"
 269      9D1FB103 
 269      5761DB91 
 269      92E7E31C 
 269      3A8E
 270 07a6 B0239D40 		.ascii	"\260#\235@7A}\212\324_\222\372<\251\233X\\\277F\352"
 270      37417D8A 
 270      D45F92FA 
 270      3CA99B58 
 270      5CBF46EA 
 271 07ba 66522F26 		.ascii	"fR/&\365JR\257!\365{\244>J\352\257I}\226\324\347H"
 271      F54A52AF 
 271      21F57BA4 
 271      3E4AEAAF 
 271      497D96D4 
 272 07d0 FD1DA9FF 		.ascii	"\375\035\251\377C\352\013Zw\265J\255\206u\200\032E}"
 272      43EA0B5A 
 272      77B54AAD 
 272      8675801A 
 272      457D
 273 07e2 591FBE7F 		.ascii	"Y\037\276\177\263=q\300\000q\2231\230'\225&\3734\232"
 273      B33D71C0 
 273      00719331 
 273      98279526 
 273      FB349A
 274 07f5 EC279A3C 		.ascii	"\354'\232<L\364\366\203>0O\272\324\177\007e3\261G\373"
 274      4CF4F683 
 274      3E304FBA 
 274      D47F0765 
 274      33B147FB 
 275 0809 2FB6BEAF 		.ascii	"/\266\276\257\373\177\3047F<\273S\253\242\222\037a\241"
 275      FB7FC437 
 275      463CBB53 
 275      ABA2921F 
 275      61A1
 276 081b 6098EDF6 		.ascii	"`\230\355\366\244\230\355$\207f\266\273\2301\355\224"
 276      A498ED24 
 276      8766B6BB 
 276      9831ED94 
 277 082b 1ADCA7D1 		.ascii	"\032\334\247\321\340\001\242\301\317\210\006/\021\217"
 277      E001A2C1 
 277      CF88062F 
 277      118F
 278 0839 89EBF538 		.ascii	"\211\353\3658\265\300\360/@\375\377\3354M{\201\360\272"
 278      B5C0F02F 
 278      40FDFFDD 
 278      344D7B81 
 278      F0BA
ARM GAS  /var/folders/c6/c789hm653lg9vtl73krp73tm0000gn/T//ccj6qQHm.s 			page 22


 279 084b 86F83242 		.ascii	"\206\3702B|9!\276\226\324\273\221\015wmK\256cu\032\275"
 279      7C3921BE 
 279      96D4BB91 
 279      0D776D4B 
 279      AE63751A 
 280 0860 8669246B 		.ascii	"\206i$k\310\246!t\207\252\214\227\253T\200\343n\005"
 280      C8A62174 
 280      87AA8C97 
 280      AB5480E3 
 280      6E05
 281 0872 61BAE31A 		.ascii	"a\272\343\032\322\322\255\334H\027+\232\3179\222'Hn"
 281      D2D2ADDC 
 281      48172B9A 
 281      CF399227 
 281      486E
 282 0884 57B271CC 		.ascii	"W\262q\314\235\206\331iIC*\323m\353\352\003\303\026"
 282      9D86D969 
 282      49432AD3 
 282      6DEBEA03 
 282      C316
 283 0896 44F1969C 		.ascii	"D\361\226\2342\30221\320\261\262\255\325}7d\340\034"
 283      32C23231 
 283      D0B1B2AD 
 283      D57D3764 
 283      E01C
 284 08a8 661B628C 		.ascii	"f\033b\214\006\207as;\217|\034\202\037\247_\376\256"
 284      06876173 
 284      3B8F7C1C 
 284      821FA75F 
 284      FEAE
 285 08ba EB2E908E 		.ascii	"\353.\220\216\310\310\3543%\023E\315r\030\376\235:\237"
 285      C8C8EC33 
 285      251345CD 
 285      7218FE9D 
 285      3A9F
 286 08cc 7C4F801F 		.ascii	"|O\200\037\247'\265\200\222R\315\002\244\350\307%*\271"
 286      A727B580 
 286      9252CD02 
 286      A4E8C725 
 286      2AB9
 287 08de 9FA9E47A 		.ascii	"\237\251\344zX\205\334K\031\333\245\321\302.\312)\010"
 287      5885DC4B 
 287      19DBA5D1 
 287      C22ECA29 
 287      08
 288 08ef E86C2DD1 		.ascii	"\350l-\321\031\346\330\234n\3725~\363\003\215\365n\312"
 288      19E6D89C 
 288      6EFA357E 
 288      F3038DF5 
 288      6ECA
 289 0901 1CCBBC6B 		.ascii	"\034\313\274k\017N\021\311\024o\241\026o\203=\274\306"
 289      0F4E11C9 
 289      146FA116 
 289      6F833DBC 
 289      C6
 290 0912 5C6BBC55 		.ascii	"\\k\274UZ\274N{x\373\235\326x\253\265x\262=\274X\201"
 290      5ABC4E7B 
ARM GAS  /var/folders/c6/c789hm653lg9vtl73krp73tm0000gn/T//ccj6qQHm.s 			page 23


 290      78FB9DD6 
 290      78ABB578 
 290      B23DBC58 
 291 0927 095EE262 		.ascii	"\011^\342b\231\017\023\236k\356l)\254\300\241z\307\340"
 291      990F139E 
 291      6BEE6C29 
 291      ACC0A17A 
 291      C7E0
 292 0939 AC607FFC 		.ascii	"\254`\177\374\010f\241$\237\351oy\347DQ\013^\345J\227"
 292      0866A124 
 292      9FE96F79 
 292      E744510B 
 292      5EE54A97 
 293 094d E3CF22C3 		.ascii	"\343\317\"\303\247r\026\377\034\303\304\233\035\327"
 293      A77216FF 
 293      1CC3C49B 
 293      1DD7
 294 095b 2B2DF523 		.ascii	"+-\365#5\330\000\025 \203\367\377\232Y\212\361\244e"
 294      35D80015 
 294      2083F7FF 
 294      9A598AF1 
 294      A465
 295 096d 9283A0E1 		.ascii	"\222\203\240\341\376\013\034#\264J\340P\213\203\325"
 295      FE0B1C23 
 295      B44AE050 
 295      8B83D5
 296 097c 3EA08CC9 		.ascii	">\240\214\311\215\335\356\306\251\375\361\370\010J\013"
 296      8DDDEEC6 
 296      A9FDF1F8 
 296      084A0B
 297 098b B616B6D0 		.ascii	"\266\026\266\320[\215\350\261\301\350\375\215\220mv"
 297      5B8DE8B1 
 297      C1E8FD8D 
 297      906D76
 298 099a FDB269B5 		.ascii	"\375\262i\2654\335D\354|f\0069\021|N\232\212\236Ih\315"
 298      34DD44EC 
 298      7C660639 
 298      117C4E9A 
 298      8A9E4968 
 299 09af E29C9E43 		.ascii	"\342\234\236CK\034\371x\303R`y\312\216;\250\352\247"
 299      4B1CF978 
 299      C3526079 
 299      CA8E3BA8 
 299      EAA7
 300 09c1 6DB595E2 		.ascii	"m\265\225\342\220}\261C\367%\"\371,0\321V\020u\337\007"
 300      907DB143 
 300      F72522F9 
 300      2C30D156 
 300      1075DF07 
 301 09d5 B2CCB442 		.ascii	"\262\314\264B\243~h\247\345\246\012X\372\375N4_\332"
 301      A37E68A7 
 301      E5A60A58 
 301      FAFD4E34 
 301      5FDA
 302 09e7 345D8AC7 		.ascii	"4]\212\307\237e\014f_\201\2543\313[F\306\360\264\243"
 302      9F650C66 
 302      5F81AC33 
ARM GAS  /var/folders/c6/c789hm653lg9vtl73krp73tm0000gn/T//ccj6qQHm.s 			page 24


 302      CB5B46C6 
 302      F0B4A3
 303 09fa FC304CE4 		.ascii	"\3740L\344\251`V:\012uL\352$i\264\220\344m3I\344\366"
 303      A960563A 
 303      0A754CEA 
 303      2469B490 
 303      E46D3349 
 304 0a10 19B38649 		.ascii	"\031\263\206ImQ9\036\037k\024$\205\377\266\033\345 "
 304      6D51391E 
 304      1F6B1424 
 304      85FFB61B 
 304      E520
 305 0a22 FFB7D5B1 		.ascii	"\377\267\325\261\321b\301\306\032S6Z\267Z\262\221\342"
 305      D162C1C6 
 305      1A53365A 
 305      B75AB291 
 305      E2
 306 0a33 8BD37529 		.ascii	"\213\323u)\324I58X=\313,\370z\317\324\320-3\217\266"
 306      D4493538 
 306      583DCB2C 
 306      F87ACFD4 
 306      D02D338F 
 307 0a48 A197A7C5 		.ascii	"\241\227\247\305z\2443xs\235\201\2517\230\204\370Z\013"
 307      7AA43378 
 307      739D81A9 
 307      379884F8 
 307      5A0B
 308 0a5a DA1B4D69 		.ascii	"\332\033Mio9'[:Y\012\333t\246T\012\375\207{\032\035"
 308      6F39275B 
 308      3A590ADB 
 308      74A6540A 
 308      FD877B1A 
 309 0a6f 6DB1E0F3 		.ascii	"m\261\340\363\003=\237\277b\332$y'$\301\003G\021,4\032"
 309      033D9FBF 
 309      62DA2479 
 309      2724C103 
 309      47112C34 
 310 0a84 A6E13324 		.ascii	"\246\3413$\024w\250\3375\357M\300\250\313<\3357\313"
 310      1477A8DF 
 310      35EF4DC0 
 310      A8CB3CDD 
 310      37CB
 311 0a96 18F1C324 		.ascii	"\030\361\303$\"F#\271\345\203Q\033\243\322\364v\220"
 311      224623B9 
 311      E583511B 
 311      A3D2F476 
 311      90
 312 0aa7 16C0C6D2 		.ascii	"\026\300\306\322\004\3172\375F0\223\225\305\026=\332"
 312      04CF32FD 
 312      46309395 
 312      C5163DDA 
 313 0ab7 2A1978DB 		.ascii	"*\031x\333u\307'Q\234\240)k\312\272\001\177A\225\210"
 313      75C72751 
 313      9CA0296B 
 313      CABA017F 
 313      419588
 314 0aca 37397954 		.ascii	"79yT\010S\025J\3619\330\027\300C\332\257\3068\264\315"
ARM GAS  /var/folders/c6/c789hm653lg9vtl73krp73tm0000gn/T//ccj6qQHm.s 			page 25


 314      0853154A 
 314      F139D817 
 314      C043DAAF 
 314      C638B4CD 
 315 0ade 813727DB 		.ascii	"\2017'\333\015\313\034\274F\233\241|\016\261\335\306"
 315      0DCB1CBC 
 315      469BA17C 
 315      0EB1DDC6 
 316 0aee 5A272A5F 		.ascii	"Z'*_\270\324\203\310\261b\013\331\334~E4\260\335\221"
 316      B8D483C8 
 316      B1620BD9 
 316      DC7E4534 
 316      B0DD91
 317 0b01 ED06EA87 		.ascii	"\355\006\352\207\023\004\316\220g\360\364`\345J;\265"
 317      1304CE90 
 317      67F0F460 
 317      E54A3BB5 
 318 0b11 1B867319 		.ascii	"\033\206s\031\223\367\350\310\343\315\012\205d\231\013"
 318      93F7E8C8 
 318      E3CD0A85 
 318      64990B
 319 0b20 76B0526C 		.ascii	"v\260Rl|.k\260\242\356L\261<\006u\253v\340\320'\016"
 319      7C2E6BB0 
 319      A2EE4CB1 
 319      3C0675AB 
 319      76E0D027 
 320 0b35 BC61D841 		.ascii	"\274a\330A\352^R\3571Y&\030\364dP\350G\026\234`\374"
 320      EA5E52EF 
 320      31592618 
 320      F46450E8 
 320      47169C60 
 321 0b4a BDBAC4AD 		.ascii	"\275\272\304\255\201\254\3203\252qS:\310\274\033l\273"
 321      81ACD033 
 321      AA71533A 
 321      C8BC1B6C 
 321      BB
 322 0b5b 325EDCEE 		.ascii	"2^\334\356\267X\334jg\340d/\320\357\013nC\340\015b\342"
 322      B758DC6A 
 322      67E0642F 
 322      D0EF0B6E 
 322      43E00D62 
 323 0b70 80127665 		.ascii	"\200\022ve\314\032\251A\206\245\374V\340*a\267\1770"
 323      CC1AA941 
 323      86A5FC56 
 323      E02A61B7 
 323      7F30
 324 0b82 17A52609 		.ascii	"\027\245&\011\"\361\360\035\016*\014\216\3153;\345\316"
 324      22F1F01D 
 324      0E2A0C8E 
 324      CD333BE5 
 324      CE
 325 0b93 175A9014 		.ascii	"\027Z\220\024\203\340\274\034\217#\2527\226\231k\244"
 325      83E0BC1C 
 325      8F23AA37 
 325      96996BA4 
 326 0ba3 A60F2E4C 		.ascii	"\246\017.L\356\020\220\273\221\211\271[\244|\015\331"
 326      EE1090BB 
ARM GAS  /var/folders/c6/c789hm653lg9vtl73krp73tm0000gn/T//ccj6qQHm.s 			page 26


 326      9189B95B 
 326      A47C0DD9 
 327 0bb3 0A8A406D 		.ascii	"\012\212@mHi\312]\333\220\345f.\246\331\314%\322\322"
 327      4869CA5D 
 327      DB90E566 
 327      2EA6D9CC 
 327      25D2D2
 328 0bc6 4885C491 		.ascii	"H\205\304\221\214\325:`\241\326\337\244t\035\016\035"
 328      8CD53A60 
 328      A1D6DFA4 
 328      741D0E1D 
 329 0bd6 4E7AC48D 		.ascii	"Nz\304\215\314j\220\251\251\"I\236\272\"\026\246\001"
 329      CC6A90A9 
 329      A922499E 
 329      BA2216A6 
 329      01
 330 0be7 126D01F5 		.ascii	"\022m\001\365\370\304*\215\272(\306\243qJ\235U\351\275"
 330      F8C42A8D 
 330      BA28C6A3 
 330      714A9D55 
 330      E9BD
 331 0bf9 27D15BBB 		.ascii	"'\321[\273bT\270\240*U\235\321\340\277\033R$\204c\016"
 331      6254B8A0 
 331      2A559DD1 
 331      E0BF1B52 
 331      2484630E 
 332 0c0d F35D325D 		.ascii	"\363]2]\331X\215:n9j]\212Q',G-N1\352\244\345\250\366"
 332      D9588D3A 
 332      6E396A5D 
 332      8A51272C 
 332      472D4E31 
 333 0c26 14A34E39 		.ascii	"\024\243N9t\207U\206\221\235)F\236\326D\264\247\270"
 333      74875586 
 333      919D2946 
 333      9ED644B4 
 333      A7B8
 334 0c38 B884FE85 		.ascii	"\270\204\376\205\"%\202X\342\017\372\002u\225|\211\257"
 334      22258258 
 334      E20FFA02 
 334      75957C89 
 334      AF
 335 0c49 A686E7C2 		.ascii	"\246\206\347\302\3055\314U\265|mH\230\342\305?\275b"
 335      C535CC55 
 335      B57C6D48 
 335      98E2C53F 
 335      BD62
 336 0c5b DE838F3D 		.ascii	"\336\203\217=\356\031\307\024j\036>YR\027\021J\002!"
 336      EE19C714 
 336      6A1E3E59 
 336      5217114A 
 336      0221
 337 0c6d 1F172819 		.ascii	"\037\027(\031\307\007\002\234PR\355\363\215\342\204"
 337      C707029C 
 337      5052EDF3 
 337      8DE284
 338 0c7c DA51C150 		.ascii	"\332Q\301P\220\037\305s\023\374%w\226\216.+-/\275\273"
 338      901FC573 
ARM GAS  /var/folders/c6/c789hm653lg9vtl73krp73tm0000gn/T//ccj6qQHm.s 			page 27


 338      13FC2577 
 338      968E2E2B 
 338      2D2FBDBB 
 339 0c90 24E09F80 		.ascii	"$\340\237\200_\227\350_\227\025\227\027\227%hG\304\312"
 339      5F97E85F 
 339      97159717 
 339      97256847 
 339      C4CA
 340 0ca2 4ABE0A68 		.ascii	"J\276\012h\347E\374\177\347\275\342\315\226<\002\033"
 340      E745FC7F 
 340      E7BDE2CD 
 340      963C021B 
 341 0cb2 BE90C043 		.ascii	"\276\220\300CW74\253y\261\252.\350\363\212\0055\336"
 341      573734AB 
 341      79B1AA2E 
 341      E8F38A05 
 341      35DE
 342 0cc4 B0109AE8 		.ascii	"\260\020\232\350\257\344\205B\3027T\320\276\325\200"
 342      AFE48542 
 342      C23754D0 
 342      BED580
 343 0cd3 130E0962 		.ascii	"\023\016\011b\244\344\376??:\356\321\311\000\246 \025"
 343      A4E4FE3F 
 343      3F3AEED1 
 343      C900A620 
 343      15
 344 0ce4 44C4A7B9 		.ascii	"D\304\247\271\200\277:\350\025\037\311H4\375c\2150\376"
 344      80BF3AE8 
 344      151FC948 
 344      34FD638D 
 344      30FE
 345 0cf6 A008B8F9 		.ascii	"\240\010\270\371up\277\247\314+\376\365'@\255\345|5"
 345      7570BFA7 
 345      CC2BFEF5 
 345      2740ADE5 
 345      7C35
 346 0d08 FE205FE2 		.ascii	"\376 _\342\005Equ\001\321+N\011\363\021\314\275\327"
 346      05457175 
 346      01D12B4E 
 346      09F311CC 
 346      BDD7
 347 0d1a ABD2C925 		.ascii	"\253\322\311%R\344\004\371\311b\016\326\002\252\313"
 347      52E404F9 
 347      C9620ED6 
 347      02AACB
 348 0d29 C1FA4435 		.ascii	"\301\372D5y5\336*\201\347GX\253U\234\014P\316\332:\221"
 348      7935DE2A 
 348      81E74758 
 348      AB559C0C 
 348      50CEDA3A 
 349 0d3e 9FEC15F3 		.ascii	"\237\354\025\363}5^\322\274\305r@dJDe\340j\261F\000"
 349      7D355ED2 
 349      BCC57240 
 349      644A4465 
 349      E06AB146 
 350 0d53 6D47BCCF 		.ascii	"mG\274\317\324\361u`\274\2410Z\367\310\332\343\"\276"
 350      D4F17560 
ARM GAS  /var/folders/c6/c789hm653lg9vtl73krp73tm0000gn/T//ccj6qQHm.s 			page 28


 350      BCA1305A 
 350      F7C8DAE3 
 350      22BE
 351 0d65 9A4AAC28 		.ascii	"\232J\254(\332\335+\272\022C\363\302^,\006\334\302\002"
 351      DADD2BBA 
 351      1243F3C2 
 351      5E2C06DC 
 351      C202
 352 0d77 3FB12CA5 		.ascii	"?\261,\245\035C\265a\177\200\027\"%\017\216\033\007"
 352      1D43B561 
 352      7F801722 
 352      250F8E1B 
 352      07
 353 0d88 A02A5F4E 		.ascii	"\240*_N1,\370C \015V\317]w\202\223PM\341&\301\365\207"
 353      312CF843 
 353      200D56CF 
 353      5D778293 
 353      504DE126 
 354 0d9f 9CBE5010 		.ascii	"\234\276P\020\304\024\0131\240\027\336\371\304\311\267"
 354      C4140B31 
 354      A017DEF9 
 354      C4C9B7
 355 0dae A5F719EF 		.ascii	"\245\367\031\357\304{k1\333\002_\015\306\362\212\254"
 355      C47B6B31 
 355      DB025F0D 
 355      C6F28AAC 
 356 0dbe 50C60A77 		.ascii	"P\306\012w\263\302=\254p/+\224\263\302\030\2070\272"
 356      B3C23DAC 
 356      702F2B94 
 356      B3C21887 
 356      30BA
 357 0dd0 14CA6836 		.ascii	"\024\312h6 \300\355\256\334\260\027\220\235X\246I\274"
 357      20C0EDAE 
 357      DCB01790 
 357      9D58A649 
 357      BC
 358 0de1 00F75000 		.ascii	"\000\367P\000\2743\307W\303\011XP\256\226\317\027#\""
 358      BC33C757 
 358      C3095850 
 358      AE96CF17 
 358      2322
 359 0df3 2782F69C 		.ascii	"'\202\366\234\230\305rP\005e\026Z\320\235\274s\212\265"
 359      98C57250 
 359      0565165A 
 359      D09DBC73 
 359      8AB5
 360 0e05 A14A9EFC 		.ascii	"\241J\236\374\256\012p\325\021\247(\360U\021\"\013n"
 360      AE0A70D5 
 360      11A728F0 
 360      5511220B 
 360      6E
 361 0e16 E4D646AA 		.ascii	"\344\326F\252\341\245\" \014WE\025*\247\300\253|~\262"
 361      E1A52220 
 361      0C574515 
 361      2AA7C0AB 
 361      7C7EB2
 362 0e29 5FF40140 		.ascii	"_\364\001@\336$14\341\251\360\265\212\316a(/\360A\037"
ARM GAS  /var/folders/c6/c789hm653lg9vtl73krp73tm0000gn/T//ccj6qQHm.s 			page 29


 362      DE243134 
 362      E1A9F0B5 
 362      8ACE6128 
 362      2FF0411F 
 363 0e3d 00E74E12 		.ascii	"\000\347N\022E!\354\006\033D\370Z.\\\003\222Z{\014t"
 363      4521EC06 
 363      1B44F85A 
 363      2E5C0392 
 363      5A7B0C74 
 364 0e51 C13A564C 		.ascii	"\301:VL\234\353\013\202G\346F\274p\007\002\3602\014"
 364      9CEB0B82 
 364      47E646BC 
 364      700702F0 
 364      320C
 365 0e63 37F0AA70 		.ascii	"7\360\252p!?\221\017\212\265\\\344i`\205\237\204\033"
 365      213F910F 
 365      8AB55CE4 
 365      6960859F 
 365      841B
 366 0e75 8EB0B76E 		.ascii	"\216\260\267n\210\352!\001\177\004F^\255\361\031\374"
 366      88EA2101 
 366      7F04465E 
 366      ADF119FC 
 367 0e85 C415F64E 		.ascii	"\304\025\366N\342\374\242?X]\020\366\002\367\224\010"
 367      E2FCA23F 
 367      585D10F6 
 367      02F79408 
 368 0e95 69C2033E 		.ascii	"i\302\003>\314\007!\306\252\241\027\220\300\375\013"
 368      CC0721C6 
 368      AAA11790 
 368      C0FD0B
 369 0ea4 B00EB800 		.ascii	"\260\016\270\000\261)<\014\207B\001g-e\015\356\241I"
 369      B1293C0C 
 369      87420167 
 369      2D650DEE 
 369      A149
 370 0eb6 415EC8AB 		.ascii	"A^\310\253%\036\225[\203\307\024%\344\022\371\210\210"
 370      251E955B 
 370      83C71425 
 370      E412F988 
 370      88
 371 0ec7 25C3779C 		.ascii	"%\303w\234\200&\324U\201B\334\370\247\227\266#\354\370"
 371      8026D455 
 371      8142DCF8 
 371      A797B623 
 371      ECF8
 372 0ed9 5276FC68 		.ascii	"Rv\374hv\374\235\354\370\273\330\361e\354$\356\006\323"
 372      76FC9DEC 
 372      F8BBD8F1 
 372      65EC24EE 
 372      06D3
 373 0eeb E1247FFA 		.ascii	"\341$\177\372\230\253\360}\264\227\237\314\373 \206"
 373      98ABF07D 
 373      B4979FCC 
 373      FB2086
 374 0efa 0AE9AF08 		.ascii	"\012\351\257\010/\326\205s\275\277\007\306\334^\002"
 374      2FD68573 
ARM GAS  /var/folders/c6/c789hm653lg9vtl73krp73tm0000gn/T//ccj6qQHm.s 			page 30


 374      BDBF07C6 
 374      DC5E02
 375 0f09 CE4522BC 		.ascii	"\316E\"\274 \202\266\037\202\016\177\001\003\327E\012"
 375      2082B61F 
 375      820E7F01 
 375      03D7450A 
 376 0f19 E88F0720 		.ascii	"\350\217\007 T\013i\363\376\000d\015\010\250q`\213\007"
 376      540B69F3 
 376      FE00640D 
 376      08A87160 
 376      8B07
 377 0f2b 7991767B 		.ascii	"y\221v{b(}\371\247\011O\361>\361\341\240_t\021DL)\007"
 377      62287DF9 
 377      A7094FF1 
 377      3EF1E1A0 
 377      5F741144 
 378 0f42 B7F271E5 		.ascii	"\267\362q\345\343\"|\016v\255\\B\033\236qB%h\302\251"
 378      E3227C0E 
 378      76AD5C42 
 378      1B9E7142 
 378      2568C2A9 
 379 0f56 3216E644 		.ascii	"2\026\346D\221\027\202x\224Ke\177\3645\305B\250\222"
 379      91178278 
 379      944B657F 
 379      F435C542 
 379      A892
 380 0f68 13B9E2C4 		.ascii	"\023\271\342\304\223\221\230\324o=\034\346\204\023\375"
 380      939198D4 
 380      6F3D1CE6 
 380      8413FD
 381 0f77 A1A0870B 		.ascii	"\241\240\207\013Vz\252\004\256\272\026\014K\237\340"
 381      567AAA04 
 381      AEBA160C 
 381      4B9FE0
 382 0f86 CECC7F01 		.ascii	"\316\314\177\001\026(\344\275"
 382      1628E4BD 
 383              		.text
 384              		.section	.gnu.lto_.symtab.64bbd8f52d4b5916,"",%progbits
 385 0000 70617474 		.ascii	"patternheap\000\000\000\000\000\000\000\000\000\000"
 385      65726E68 
 385      65617000 
 385      00000000 
 385      00000000 
 386 0015 0000C601 		.ascii	"\000\000\306\001\000\000testheap1\000\000\000\000\000"
 386      00007465 
 386      73746865 
 386      61703100 
 386      00000000 
 387 0029 00000000 		.ascii	"\000\000\000\000\000\000\000\334\001\000\000test\000"
 387      000000DC 
 387      01000074 
 387      65737400 
 388 0039 00020000 		.ascii	"\000\002\000\000\000\000\000\000\000\000\000\304\001"
 388      00000000 
 388      000000C4 
 388      01
 389 0046 00005F74 		.ascii	"\000\000_test_assert\000\000\002\000\000\000\000\000"
ARM GAS  /var/folders/c6/c789hm653lg9vtl73krp73tm0000gn/T//ccj6qQHm.s 			page 31


 389      6573745F 
 389      61737365 
 389      72740000 
 389      02000000 
 390 005c 00000000 		.ascii	"\000\000\000\000\242\001\000\000chHeapStatus\000\000"
 390      A2010000 
 390      63684865 
 390      61705374 
 390      61747573 
 391 0072 02000000 		.ascii	"\002\000\000\000\000\000\000\000\000\000\252\001\000"
 391      00000000 
 391      0000AA01 
 391      00
 392 007f 00636848 		.ascii	"\000chHeapFree\000\000\002\000\000\000\000\000\000\000"
 392      65617046 
 392      72656500 
 392      00020000 
 392      00000000 
 393 0094 0000B001 		.ascii	"\000\000\260\001\000\000chHeapAlloc\000\000\002\000"
 393      00006368 
 393      48656170 
 393      416C6C6F 
 393      63000002 
 394 00a9 00000000 		.ascii	"\000\000\000\000\000\000\000\000\264\001\000\000chC"
 394      00000000 
 394      B4010000 
 394      636843
 395 00b8 6F726547 		.ascii	"oreGetStatusX\000\000\002\000\000\000\000\000\000\000"
 395      65745374 
 395      61747573 
 395      58000002 
 395      00000000 
 396 00cf 0000B901 		.ascii	"\000\000\271\001\000\000chHeapObjectInit\000\000\002"
 396      00006368 
 396      48656170 
 396      4F626A65 
 396      6374496E 
 397 00e8 00000000 		.ascii	"\000\000\000\000\000\000\000\000\000\274\001\000\000"
 397      00000000 
 397      00BC0100 
 397      00
 398              		.text
 399              		.section	.gnu.lto_.opts,"",%progbits
 400 0000 272D6D63 		.ascii	"'-mcpu=cortex-m4' '-mno-thumb-interwork' '-mthumb' "
 400      70753D63 
 400      6F727465 
 400      782D6D34 
 400      2720272D 
 401 0033 272D6767 		.ascii	"'-ggdb' '-O2' '-fomit-frame-pointer' '-falign-funct"
 401      64622720 
 401      272D4F32 
 401      2720272D 
 401      666F6D69 
 402 0066 696F6E73 		.ascii	"ions=16' '-ffunction-sections' '-fdata-sections' '-"
 402      3D313627 
 402      20272D66 
 402      66756E63 
ARM GAS  /var/folders/c6/c789hm653lg9vtl73krp73tm0000gn/T//ccj6qQHm.s 			page 32


 402      74696F6E 
 403 0099 666E6F2D 		.ascii	"fno-common' '-flto'\000"
 403      636F6D6D 
 403      6F6E2720 
 403      272D666C 
 403      746F2700 
 404              		.text
 405              		.cfi_sections	.debug_frame
 406              		.section	.text.heap1_execute,"ax",%progbits
 407              		.align	2
 408              		.p2align 4,,15
 409              		.thumb
 410              		.thumb_func
 411              		.type	heap1_execute, %function
 412              	heap1_execute:
 413              	.LFB230:
 414              		.file 1 "../../../test/rt/testheap.c"
 415              		.loc 1 69 0
 416              		.cfi_startproc
 417              		@ args = 0, pretend = 0, frame = 8
 418              		@ frame_needed = 0, uses_anonymous_args = 0
 419 0000 70B5     		push	{r4, r5, r6, lr}
 420              		.cfi_def_cfa_offset 16
 421              		.cfi_offset 4, -16
 422              		.cfi_offset 5, -12
 423              		.cfi_offset 6, -8
 424              		.cfi_offset 14, -4
 425 0002 82B0     		sub	sp, sp, #8
 426              		.cfi_def_cfa_offset 24
 427              		.loc 1 74 0
 428 0004 FFF7FEFF 		bl	chCoreGetStatusX
 429              	.LVL0:
 430              		.loc 1 80 0
 431 0008 01A9     		add	r1, sp, #4
 432 000a 0020     		movs	r0, #0
 433 000c FFF7FEFF 		bl	chHeapStatus
 434              	.LVL1:
 435              		.loc 1 81 0
 436 0010 1021     		movs	r1, #16
 437 0012 0020     		movs	r0, #0
 438 0014 FFF7FEFF 		bl	chHeapAlloc
 439              	.LVL2:
 440              		.loc 1 82 0
 441 0018 011C     		adds	r1, r0, #0
 442 001a 0446     		mov	r4, r0
 443 001c 18BF     		it	ne
 444 001e 0121     		movne	r1, #1
 445 0020 0120     		movs	r0, #1
 446              	.LVL3:
 447 0022 FFF7FEFF 		bl	_test_assert
 448              	.LVL4:
 449 0026 0546     		mov	r5, r0
 450 0028 08B1     		cbz	r0, .L7
 451              	.LVL5:
 452              	.L1:
 453              		.loc 1 140 0
 454 002a 02B0     		add	sp, sp, #8
ARM GAS  /var/folders/c6/c789hm653lg9vtl73krp73tm0000gn/T//ccj6qQHm.s 			page 33


 455              		@ sp needed
 456 002c 70BD     		pop	{r4, r5, r6, pc}
 457              	.LVL6:
 458              	.L7:
 459              		.loc 1 83 0
 460 002e 2046     		mov	r0, r4
 461 0030 FFF7FEFF 		bl	chHeapFree
 462              	.LVL7:
 463              		.loc 1 84 0
 464 0034 6FF0FF01 		mvn	r1, #255
 465 0038 2846     		mov	r0, r5
 466 003a FFF7FEFF 		bl	chHeapAlloc
 467              	.LVL8:
 468              		.loc 1 85 0
 469 003e D0F10101 		rsbs	r1, r0, #1
 470 0042 38BF     		it	cc
 471 0044 0021     		movcc	r1, #0
 472 0046 0220     		movs	r0, #2
 473              	.LVL9:
 474 0048 FFF7FEFF 		bl	_test_assert
 475              	.LVL10:
 476 004c 0028     		cmp	r0, #0
 477 004e ECD1     		bne	.L1
 478              		.loc 1 88 0
 479 0050 01A9     		add	r1, sp, #4
 480 0052 7B48     		ldr	r0, .L8
 481 0054 FFF7FEFF 		bl	chHeapStatus
 482              	.LVL11:
 483              		.loc 1 91 0
 484 0058 1021     		movs	r1, #16
 485 005a 7948     		ldr	r0, .L8
 486 005c FFF7FEFF 		bl	chHeapAlloc
 487              	.LVL12:
 488              		.loc 1 92 0
 489 0060 1021     		movs	r1, #16
 490              		.loc 1 91 0
 491 0062 0546     		mov	r5, r0
 492              	.LVL13:
 493              		.loc 1 92 0
 494 0064 7648     		ldr	r0, .L8
 495              	.LVL14:
 496 0066 FFF7FEFF 		bl	chHeapAlloc
 497              	.LVL15:
 498              		.loc 1 93 0
 499 006a 1021     		movs	r1, #16
 500              		.loc 1 92 0
 501 006c 0446     		mov	r4, r0
 502              	.LVL16:
 503              		.loc 1 93 0
 504 006e 7448     		ldr	r0, .L8
 505              	.LVL17:
 506 0070 FFF7FEFF 		bl	chHeapAlloc
 507              	.LVL18:
 508 0074 0646     		mov	r6, r0
 509              	.LVL19:
 510              		.loc 1 94 0
 511 0076 2846     		mov	r0, r5
ARM GAS  /var/folders/c6/c789hm653lg9vtl73krp73tm0000gn/T//ccj6qQHm.s 			page 34


 512              	.LVL20:
 513 0078 FFF7FEFF 		bl	chHeapFree
 514              	.LVL21:
 515              		.loc 1 95 0
 516 007c 2046     		mov	r0, r4
 517 007e FFF7FEFF 		bl	chHeapFree
 518              	.LVL22:
 519              		.loc 1 96 0
 520 0082 3046     		mov	r0, r6
 521 0084 FFF7FEFF 		bl	chHeapFree
 522              	.LVL23:
 523              		.loc 1 97 0
 524 0088 6946     		mov	r1, sp
 525 008a 6D48     		ldr	r0, .L8
 526 008c FFF7FEFF 		bl	chHeapStatus
 527              	.LVL24:
 528 0090 421E     		subs	r2, r0, #1
 529 0092 5142     		rsbs	r1, r2, #0
 530 0094 5141     		adcs	r1, r1, r2
 531 0096 0320     		movs	r0, #3
 532 0098 FFF7FEFF 		bl	_test_assert
 533              	.LVL25:
 534 009c 0028     		cmp	r0, #0
 535 009e C4D1     		bne	.L1
 536              		.loc 1 100 0
 537 00a0 1021     		movs	r1, #16
 538 00a2 6748     		ldr	r0, .L8
 539 00a4 FFF7FEFF 		bl	chHeapAlloc
 540              	.LVL26:
 541              		.loc 1 101 0
 542 00a8 1021     		movs	r1, #16
 543              		.loc 1 100 0
 544 00aa 0446     		mov	r4, r0
 545              	.LVL27:
 546              		.loc 1 101 0
 547 00ac 6448     		ldr	r0, .L8
 548              	.LVL28:
 549 00ae FFF7FEFF 		bl	chHeapAlloc
 550              	.LVL29:
 551              		.loc 1 102 0
 552 00b2 1021     		movs	r1, #16
 553              		.loc 1 101 0
 554 00b4 0546     		mov	r5, r0
 555              	.LVL30:
 556              		.loc 1 102 0
 557 00b6 6248     		ldr	r0, .L8
 558              	.LVL31:
 559 00b8 FFF7FEFF 		bl	chHeapAlloc
 560              	.LVL32:
 561              		.loc 1 103 0
 562 00bc FFF7FEFF 		bl	chHeapFree
 563              	.LVL33:
 564              		.loc 1 104 0
 565 00c0 2846     		mov	r0, r5
 566 00c2 FFF7FEFF 		bl	chHeapFree
 567              	.LVL34:
 568              		.loc 1 105 0
ARM GAS  /var/folders/c6/c789hm653lg9vtl73krp73tm0000gn/T//ccj6qQHm.s 			page 35


 569 00c6 2046     		mov	r0, r4
 570 00c8 FFF7FEFF 		bl	chHeapFree
 571              	.LVL35:
 572              		.loc 1 106 0
 573 00cc 6946     		mov	r1, sp
 574 00ce 5C48     		ldr	r0, .L8
 575 00d0 FFF7FEFF 		bl	chHeapStatus
 576              	.LVL36:
 577 00d4 431E     		subs	r3, r0, #1
 578 00d6 5942     		rsbs	r1, r3, #0
 579 00d8 5941     		adcs	r1, r1, r3
 580 00da 0420     		movs	r0, #4
 581 00dc FFF7FEFF 		bl	_test_assert
 582              	.LVL37:
 583 00e0 0028     		cmp	r0, #0
 584 00e2 A2D1     		bne	.L1
 585              		.loc 1 109 0
 586 00e4 1121     		movs	r1, #17
 587 00e6 5648     		ldr	r0, .L8
 588 00e8 FFF7FEFF 		bl	chHeapAlloc
 589              	.LVL38:
 590              		.loc 1 110 0
 591 00ec 1021     		movs	r1, #16
 592              		.loc 1 109 0
 593 00ee 0446     		mov	r4, r0
 594              	.LVL39:
 595              		.loc 1 110 0
 596 00f0 5348     		ldr	r0, .L8
 597              	.LVL40:
 598 00f2 FFF7FEFF 		bl	chHeapAlloc
 599              	.LVL41:
 600 00f6 0546     		mov	r5, r0
 601              	.LVL42:
 602              		.loc 1 111 0
 603 00f8 2046     		mov	r0, r4
 604              	.LVL43:
 605 00fa FFF7FEFF 		bl	chHeapFree
 606              	.LVL44:
 607              		.loc 1 112 0
 608 00fe 6946     		mov	r1, sp
 609 0100 4F48     		ldr	r0, .L8
 610 0102 FFF7FEFF 		bl	chHeapStatus
 611              	.LVL45:
 612 0106 B0F1020C 		subs	ip, r0, #2
 613 010a DCF10001 		rsbs	r1, ip, #0
 614 010e 51EB0C01 		adcs	r1, r1, ip
 615 0112 0520     		movs	r0, #5
 616 0114 FFF7FEFF 		bl	_test_assert
 617              	.LVL46:
 618 0118 0028     		cmp	r0, #0
 619 011a 86D1     		bne	.L1
 620              		.loc 1 113 0
 621 011c 1021     		movs	r1, #16
 622 011e 4848     		ldr	r0, .L8
 623 0120 FFF7FEFF 		bl	chHeapAlloc
 624              	.LVL47:
 625              		.loc 1 116 0
ARM GAS  /var/folders/c6/c789hm653lg9vtl73krp73tm0000gn/T//ccj6qQHm.s 			page 36


 626 0124 6946     		mov	r1, sp
 627              		.loc 1 113 0
 628 0126 0446     		mov	r4, r0
 629              	.LVL48:
 630              		.loc 1 116 0
 631 0128 4548     		ldr	r0, .L8
 632              	.LVL49:
 633 012a FFF7FEFF 		bl	chHeapStatus
 634              	.LVL50:
 635 012e 0128     		cmp	r0, #1
 636 0130 00F08380 		beq	.L5
 637              		.loc 1 116 0 is_stmt 0 discriminator 2
 638 0134 6946     		mov	r1, sp
 639 0136 4248     		ldr	r0, .L8
 640 0138 FFF7FEFF 		bl	chHeapStatus
 641              	.LVL51:
 642 013c B0F1020E 		subs	lr, r0, #2
 643 0140 DEF10001 		rsbs	r1, lr, #0
 644 0144 51EB0E01 		adcs	r1, r1, lr
 645              	.L3:
 646              		.loc 1 116 0 discriminator 4
 647 0148 0620     		movs	r0, #6
 648 014a FFF7FEFF 		bl	_test_assert
 649              	.LVL52:
 650 014e 0028     		cmp	r0, #0
 651 0150 7FF46BAF 		bne	.L1
 652              		.loc 1 118 0 is_stmt 1
 653 0154 2846     		mov	r0, r5
 654 0156 FFF7FEFF 		bl	chHeapFree
 655              	.LVL53:
 656              		.loc 1 119 0
 657 015a 2046     		mov	r0, r4
 658 015c FFF7FEFF 		bl	chHeapFree
 659              	.LVL54:
 660              		.loc 1 120 0
 661 0160 6946     		mov	r1, sp
 662 0162 3748     		ldr	r0, .L8
 663 0164 FFF7FEFF 		bl	chHeapStatus
 664              	.LVL55:
 665 0168 461E     		subs	r6, r0, #1
 666 016a 7142     		rsbs	r1, r6, #0
 667 016c 7141     		adcs	r1, r1, r6
 668 016e 0720     		movs	r0, #7
 669 0170 FFF7FEFF 		bl	_test_assert
 670              	.LVL56:
 671 0174 0028     		cmp	r0, #0
 672 0176 7FF458AF 		bne	.L1
 673              		.loc 1 123 0
 674 017a 1021     		movs	r1, #16
 675 017c 3048     		ldr	r0, .L8
 676 017e FFF7FEFF 		bl	chHeapAlloc
 677              	.LVL57:
 678              		.loc 1 124 0
 679 0182 1021     		movs	r1, #16
 680              		.loc 1 123 0
 681 0184 0546     		mov	r5, r0
 682              	.LVL58:
ARM GAS  /var/folders/c6/c789hm653lg9vtl73krp73tm0000gn/T//ccj6qQHm.s 			page 37


 683              		.loc 1 124 0
 684 0186 2E48     		ldr	r0, .L8
 685              	.LVL59:
 686 0188 FFF7FEFF 		bl	chHeapAlloc
 687              	.LVL60:
 688 018c 0446     		mov	r4, r0
 689              	.LVL61:
 690              		.loc 1 125 0
 691 018e 2846     		mov	r0, r5
 692              	.LVL62:
 693 0190 FFF7FEFF 		bl	chHeapFree
 694              	.LVL63:
 695              		.loc 1 126 0
 696 0194 6946     		mov	r1, sp
 697 0196 2A48     		ldr	r0, .L8
 698 0198 FFF7FEFF 		bl	chHeapStatus
 699              	.LVL64:
 700 019c 851E     		subs	r5, r0, #2
 701              	.LVL65:
 702 019e 6942     		rsbs	r1, r5, #0
 703 01a0 6941     		adcs	r1, r1, r5
 704 01a2 0820     		movs	r0, #8
 705 01a4 FFF7FEFF 		bl	_test_assert
 706              	.LVL66:
 707 01a8 0028     		cmp	r0, #0
 708 01aa 7FF43EAF 		bne	.L1
 709              		.loc 1 127 0
 710 01ae 2021     		movs	r1, #32
 711 01b0 2348     		ldr	r0, .L8
 712 01b2 FFF7FEFF 		bl	chHeapAlloc
 713              	.LVL67:
 714              		.loc 1 128 0
 715 01b6 FFF7FEFF 		bl	chHeapFree
 716              	.LVL68:
 717              		.loc 1 129 0
 718 01ba 2046     		mov	r0, r4
 719 01bc FFF7FEFF 		bl	chHeapFree
 720              	.LVL69:
 721              		.loc 1 130 0
 722 01c0 6946     		mov	r1, sp
 723 01c2 1F48     		ldr	r0, .L8
 724 01c4 FFF7FEFF 		bl	chHeapStatus
 725              	.LVL70:
 726 01c8 0138     		subs	r0, r0, #1
 727 01ca 4142     		rsbs	r1, r0, #0
 728 01cc 4141     		adcs	r1, r1, r0
 729 01ce 0920     		movs	r0, #9
 730 01d0 FFF7FEFF 		bl	_test_assert
 731              	.LVL71:
 732 01d4 0028     		cmp	r0, #0
 733 01d6 7FF428AF 		bne	.L1
 734              		.loc 1 133 0
 735 01da 6946     		mov	r1, sp
 736 01dc 1848     		ldr	r0, .L8
 737 01de FFF7FEFF 		bl	chHeapStatus
 738              	.LVL72:
 739              		.loc 1 134 0
ARM GAS  /var/folders/c6/c789hm653lg9vtl73krp73tm0000gn/T//ccj6qQHm.s 			page 38


 740 01e2 0099     		ldr	r1, [sp]
 741 01e4 1648     		ldr	r0, .L8
 742 01e6 FFF7FEFF 		bl	chHeapAlloc
 743              	.LVL73:
 744              		.loc 1 135 0
 745 01ea 6946     		mov	r1, sp
 746              		.loc 1 134 0
 747 01ec 0446     		mov	r4, r0
 748              	.LVL74:
 749              		.loc 1 135 0
 750 01ee 1448     		ldr	r0, .L8
 751              	.LVL75:
 752 01f0 FFF7FEFF 		bl	chHeapStatus
 753              	.LVL76:
 754 01f4 D0F10101 		rsbs	r1, r0, #1
 755 01f8 38BF     		it	cc
 756 01fa 0021     		movcc	r1, #0
 757 01fc 0A20     		movs	r0, #10
 758 01fe FFF7FEFF 		bl	_test_assert
 759              	.LVL77:
 760 0202 0028     		cmp	r0, #0
 761 0204 7FF411AF 		bne	.L1
 762              		.loc 1 136 0
 763 0208 2046     		mov	r0, r4
 764 020a FFF7FEFF 		bl	chHeapFree
 765              	.LVL78:
 766              		.loc 1 138 0
 767 020e 6946     		mov	r1, sp
 768 0210 0B48     		ldr	r0, .L8
 769 0212 FFF7FEFF 		bl	chHeapStatus
 770              	.LVL79:
 771 0216 421E     		subs	r2, r0, #1
 772 0218 5142     		rsbs	r1, r2, #0
 773 021a 5141     		adcs	r1, r1, r2
 774 021c 0B20     		movs	r0, #11
 775 021e FFF7FEFF 		bl	_test_assert
 776              	.LVL80:
 777 0222 0028     		cmp	r0, #0
 778 0224 7FF401AF 		bne	.L1
 779              		.loc 1 139 0
 780 0228 9DE80A00 		ldmia	sp, {r1, r3}
 781 022c CB1A     		subs	r3, r1, r3
 782 022e 5942     		rsbs	r1, r3, #0
 783 0230 5941     		adcs	r1, r1, r3
 784 0232 0C20     		movs	r0, #12
 785 0234 FFF7FEFF 		bl	_test_assert
 786              	.LVL81:
 787 0238 F7E6     		b	.L1
 788              	.LVL82:
 789              	.L5:
 790 023a 0146     		mov	r1, r0
 791 023c 84E7     		b	.L3
 792              	.L9:
 793 023e 00BF     		.align	2
 794              	.L8:
 795 0240 00000000 		.word	.LANCHOR0
 796              		.cfi_endproc
ARM GAS  /var/folders/c6/c789hm653lg9vtl73krp73tm0000gn/T//ccj6qQHm.s 			page 39


 797              	.LFE230:
 798              		.size	heap1_execute, .-heap1_execute
 799 0244 AFF30080 		.section	.text.heap1_setup,"ax",%progbits
 799      AFF30080 
 799      AFF30080 
 800              		.align	2
 801              		.p2align 4,,15
 802              		.thumb
 803              		.thumb_func
 804              		.type	heap1_setup, %function
 805              	heap1_setup:
 806              	.LFB229:
 807              		.loc 1 64 0
 808              		.cfi_startproc
 809              		@ args = 0, pretend = 0, frame = 0
 810              		@ frame_needed = 0, uses_anonymous_args = 0
 811              		@ link register save eliminated.
 812              		.loc 1 66 0
 813 0000 0248     		ldr	r0, .L11
 814 0002 0349     		ldr	r1, .L11+4
 815 0004 4FF4CD62 		mov	r2, #1640
 816 0008 FFF7FEBF 		b	chHeapObjectInit
 817              	.LVL83:
 818              	.L12:
 819              		.align	2
 820              	.L11:
 821 000c 00000000 		.word	.LANCHOR0
 822 0010 00000000 		.word	test
 823              		.cfi_endproc
 824              	.LFE229:
 825              		.size	heap1_setup, .-heap1_setup
 826              		.global	patternheap
 827              		.global	testheap1
 828 0014 AFF30080 		.section	.rodata.patternheap,"a",%progbits
 828      AFF30080 
 828      AFF30080 
 829              		.align	2
 830              		.type	patternheap, %object
 831              		.size	patternheap, 8
 832              	patternheap:
 833 0000 00000000 		.word	testheap1
 834 0004 00000000 		.word	0
 835              		.section	.rodata.str1.4,"aMS",%progbits,1
 836              		.align	2
 837              	.LC0:
 838 0000 48656170 		.ascii	"Heap, allocation and fragmentation test\000"
 838      2C20616C 
 838      6C6F6361 
 838      74696F6E 
 838      20616E64 
 839              		.section	.rodata.testheap1,"a",%progbits
 840              		.align	2
 841              		.type	testheap1, %object
 842              		.size	testheap1, 16
 843              	testheap1:
 844 0000 00000000 		.word	.LC0
 845 0004 00000000 		.word	heap1_setup
ARM GAS  /var/folders/c6/c789hm653lg9vtl73krp73tm0000gn/T//ccj6qQHm.s 			page 40


 846 0008 00000000 		.word	0
 847 000c 00000000 		.word	heap1_execute
 848              		.section	.bss.test_heap,"aw",%nobits
 849              		.align	3
 850              		.set	.LANCHOR0,. + 0
 851              		.type	test_heap, %object
 852              		.size	test_heap, 32
 853              	test_heap:
 854 0000 00000000 		.space	32
 854      00000000 
 854      00000000 
 854      00000000 
 854      00000000 
 855              		.text
 856              	.Letext0:
 857              		.file 2 "/usr/local/Cellar/gcc-arm-none-eabi/20140805/lib/gcc/arm-none-eabi/4.8.4/include/stddef.h
 858              		.file 3 "/usr/local/Cellar/gcc-arm-none-eabi/20140805/arm-none-eabi/include/machine/_default_types
 859              		.file 4 "/usr/local/Cellar/gcc-arm-none-eabi/20140805/arm-none-eabi/include/stdint.h"
 860              		.file 5 "../../../os/rt/ports/ARMCMx/compilers/GCC/chtypes.h"
 861              		.file 6 "../../../os/rt/include/chsystypes.h"
 862              		.file 7 "../../../os/rt/include/chschd.h"
 863              		.file 8 "../../../os/rt/ports/ARMCMx/chcore.h"
 864              		.file 9 "../../../os/rt/ports/ARMCMx/chcore_v7m.h"
 865              		.file 10 "../../../os/rt/include/chtm.h"
 866              		.file 11 "../../../os/rt/include/chsem.h"
 867              		.file 12 "../../../os/rt/include/chmtx.h"
 868              		.file 13 "../../../os/rt/include/chmemcore.h"
 869              		.file 14 "../../../os/rt/include/chheap.h"
 870              		.file 15 "../../../test/rt/test.h"
 871              		.file 16 "../../../os/ext/CMSIS/include/core_cm4.h"