ARM GAS  /var/folders/c6/c789hm653lg9vtl73krp73tm0000gn/T//ccLq2oST.s 			page 1


   1              		.syntax unified
   2              		.cpu cortex-m4
   3              		.fpu softvfp
   4              		.eabi_attribute 20, 1
   5              		.eabi_attribute 21, 1
   6              		.eabi_attribute 23, 3
   7              		.eabi_attribute 24, 1
   8              		.eabi_attribute 25, 1
   9              		.eabi_attribute 26, 1
  10              		.eabi_attribute 30, 2
  11              		.eabi_attribute 34, 1
  12              		.eabi_attribute 18, 4
  13              		.thumb
  14              		.file	"testsys.c"
  15              		.text
  16              	.Ltext0:
  17              		.section	.gnu.lto_.jmpfuncs.ef1c8b5fbbec5510,"",%progbits
  18 0000 789C6D8E 		.ascii	"x\234m\216;\022\200 \014D7\013:\216\215\036\317\336"
  18      3B128020 
  18      0C44370B 
  18      3A8E8D1E 
  18      CFDE
  19 0012 8A0BD8D8 		.ascii	"\212\013\330\330PzA/ceH\360S@\206yK\262\331\201 Z\347"
  19      507A412F 
  19      636548F0 
  19      53408679 
  19      4BB2D981 
  20 0029 ACEC01D1 		.ascii	"\254\354\001\321\0028\305\240\330\000\2058\350\010\012"
  20      0238C5A0 
  20      D8008538 
  20      E8080A
  21 0038 7987E422 		.ascii	"y\207\344\"\311w \246e\004\242\272Mk\237;\256|\3449"
  21      C97720A6 
  21      6504A2BA 
  21      4D6B9F3B 
  21      AE7CE439 
  22 004c 0957B3F9 		.ascii	"\011W\263\371\250$H\275\261\256b\300\023\030\213\261"
  22      A82448BD 
  22      B1AE62C0 
  22      13188BB1 
  23 005c 7B9FE1CB 		.ascii	"{\237\341\313\267pW\374u\211\306_L\337U\005\020\301"
  23      B77057FC 
  23      7589C65F 
  23      4CDF5505 
  23      10C1
  24              		.text
  25              		.section	.gnu.lto_.inline.ef1c8b5fbbec5510,"",%progbits
  26 0000 789C6362 		.ascii	"x\234cb`b\300\006\230\030!4\033\003\003\027'#\003\023"
  26      6062C006 
  26      98182134 
  26      1B030317 
  26      27230313 
  27 0014 DF865C06 		.ascii	"\337\206\\\006\266\005\362`\305\214\014\3342@!\216\003"
  27      B605F260 
  27      C58C0CDC 
  27      3240218E 
  27      03
ARM GAS  /var/folders/c6/c789hm653lg9vtl73krp73tm0000gn/T//ccLq2oST.s 			page 2


  28 0025 76702126 		.ascii	"vp!&n\240\360\004?\020\0054\220\027$\315\332\241\316"
  28      6EA0F004 
  28      3F100534 
  28      901724CD 
  28      DAA1CE
  29 0038 C0DEA10E 		.ascii	"\300\336\241\016\226f\345c``\231\340\007\201P\265\314"
  29      9666E563 
  29      606099E0 
  29      078150B5 
  29      CC
  30 0049 22261F80 		.ascii	"\"&\037\200F1\331\034\330\312\0147\207\205\027\244\037"
  30      4631D91C 
  30      D8CA0C37 
  30      878517A4 
  30      1F
  31 005a AA06A20D 		.ascii	"\252\006\242\015\303x$6\013\003\217,\320\010\266\017"
  31      C3782436 
  31      0B038F2C 
  31      D008B60F 
  32 006a 7A701398 		.ascii	"zp\023\230y@:A$\310\034V\006\015C\240\002\271\025\025"
  32      79403A41 
  32      24C81C56 
  32      060D43A0 
  32      02B91515 
  33 007e 08D77321 		.ascii	"\010\327s!\331\003Q\215\217\307\000\000\217\350\032"
  33      D903518D 
  33      8FC70000 
  33      8FE81A
  34 008d 6B       		.ascii	"k"
  35              		.text
  36              		.section	.gnu.lto_.pureconst.ef1c8b5fbbec5510,"",%progbits
  37 0000 789C6362 		.ascii	"x\234cb`b\340e\200\0006\006+F+&If+\026+V+\000\011_\001"
  37      6062E065 
  37      80003606 
  37      2B462B26 
  37      49662B16 
  38 001b 62       		.ascii	"b"
  39              		.text
  40              		.section	.gnu.lto_sys2_execute.ef1c8b5fbbec5510,"",%progbits
  41 0000 789C6362 		.ascii	"x\234cb`b@\007\222@,\302\302\300p\002H32302M8\307\300"
  41      60624007 
  41      92402CC2 
  41      C2C07002 
  41      48333233 
  42 001a D0C8C1C4 		.ascii	"\320\310\301\304\310\010b002\32431\326G2\202\325\256"
  42      C8086230 
  42      3032D433 
  42      31D64732 
  42      82D5AE
  43 002d 673AF0E0 		.ascii	"g:\360\340\377\377u\327\332\227\314a\234\317\304\013"
  43      FFFF75D7 
  43      DA97CC61 
  43      9CCFC40B 
  44 003d 14616568 		.ascii	"\024aehih\230\240\300\300\220\014V\021\002$A\332B\031"
  44      696898A0 
  44      C0C0900C 
  44      56110224 
ARM GAS  /var/folders/c6/c789hm653lg9vtl73krp73tm0000gn/T//ccLq2oST.s 			page 3


  44      41DA4219 
  45 0051 994034F3 		.ascii	"\231@4\363I\206&\016\006\006%\206\205\015\015\223\036"
  45      4986260E 
  45      06062586 
  45      850D0D93 
  45      1E
  46 0062 FC7DB05F 		.ascii	"\374}\260_gf\303\201\226\005\015\177\376\377gd\314d"
  46      6766C381 
  46      96050D7F 
  46      FEFF6764 
  46      CC64
  47 0074 04BAC683 		.ascii	"\004\272\306\203\021\2443\002\310aT\000SL,\250\316\003"
  47      11A43302 
  47      C8615400 
  47      534C2CA8 
  47      CE03
  48 0086 893100CD 		.ascii	"\2111\000\315g8\307\320\364q\336\341M=\314p+!\214\003"
  48      6738C7D0 
  48      F471DEE1 
  48      4D3DCC70 
  48      2B218C03 
  49 009a BF6FFE17 		.ascii	"\277o\376\027`Jd\\\304\250\004w\317\201\367\375]\334"
  49      604A645C 
  49      C4A80477 
  49      CF81F7FD 
  49      5DDC
  50 00ac F270DEC9 		.ascii	"\362p\336\311o@g%2.dd\005Z\006\262\220\011\210\231\031"
  50      6F406725 
  50      322E6464 
  50      055A06B2 
  50      90098899 
  51 00c1 C0BE6364 		.ascii	"\300\276cd\230\015d\002\203\205\031\0226r\014k\030\347"
  51      980D6402 
  51      83851912 
  51      36720C6B 
  51      18E7
  52 00d3 36CC70C8 		.ascii	"6\314p\310\204(\200[\217\220_\017\225\207:\364\034C"
  52      8428805B 
  52      8F905F0F 
  52      95873AF4 
  52      1C43
  53 00e5 E3C7798F 		.ascii	"\343\307y\217\237Ia8\353\341\1779\260\265\313\300\326"
  53      9F496138 
  53      EBE17F39 
  53      B0B5CBC0 
  53      D6
  54 00f6 42553332 		.ascii	"BU32lg\304k\322\341\327\230&\035\374'\300\204\344\265"
  54      6C67C46B 
  54      D2E1D798 
  54      261DFC27 
  54      C084E4B5 
  55 010a 979C08AF 		.ascii	"\227\234\010\257u~G\362\032\010\263\0011;\314\256\003"
  55      757E47F2 
  55      1A08B301 
  55      313BCCAE 
  55      03
  56 011b 38ED2210 		.ascii	"8\355\"\0201\211\214\213\301\201D\225\230\331\216'f"
ARM GAS  /var/folders/c6/c789hm653lg9vtl73krp73tm0000gn/T//ccLq2oST.s 			page 4


  56      31898C8B 
  56      C1814495 
  56      98D98E27 
  56      66
  57 012c BE131133 		.ascii	"\276\023\0213\211\214+\201\014\214\230Hd\\\303(Gd\034"
  57      898C2B81 
  57      0C8C9848 
  57      645CC328 
  57      47641C
  58 013f ECC21107 		.ascii	"\354\302\021\007\211\214\033`f \207\310\201\271\217"
  58      898C1B60 
  58      662087C8 
  58      81B98F
  59 014e 1E309119 		.ascii	"\0360\221\031\"\014xC\344d'\263F\"\343A\324\020Y\305"
  59      220C7843 
  59      E46427B3 
  59      4622E341 
  59      D41059C5 
  60 0162 2D8788D0 		.ascii	"-\207\210\320?H!\302\001\304\234\370C\204\201\304\020"
  60      3F4821C2 
  60      01C49CF8 
  60      438481C4 
  60      10
  61 0173 B9D9C92C 		.ascii	"\271\331\311,\017Ry\204p\210\\dh\3740i?\013\30410\020"
  61      0F527984 
  61      70885C64 
  61      68FC3069 
  61      3F0BC431 
  62 0189 028C2660 		.ascii	"\002\214&`\316\006\251\225\326\323\323\207\240\222\324"
  62      CE06A995 
  62      D6D3D387 
  62      A092D4
  63 0198 E212FDA2 		.ascii	"\342\022\375\242\0220]\\Y\254\227\314\240\011\227\313"
  63      12305D5C 
  63      59AC97CC 
  63      A00997CB 
  64 01a8 2F06C914 		.ascii	"/\006\311\024\344\027\225\024\353;\006\371:\373V\350"
  64      E4179514 
  64      EB3B06F9 
  64      3AFB56E8 
  65 01b8 276724E7 		.ascii	"'g$\347\027\245\306\227\231\347\352e0\260\226%\346\224"
  65      17A5C697 
  65      99E7EA65 
  65      30B09625 
  65      E694
  66 01ca A6EA20AB 		.ascii	"\246\352 \253O\255(\321w\366\015\366\014\326\317\314"
  66      4FAD28D1 
  66      77F60DF6 
  66      0CD6CFCC 
  67 01da 4BCE294D 		.ascii	"K\316)MI\325\007\253O\316u+\315K\006j\221G3\034\256"
  67      49D507AB 
  67      4FCE752B 
  67      CD4B066A 
  67      9147331C 
  68 01ef 2A036479 		.ascii	"*\003dy\006\203\200op\220BRbqjAQ\246\216\202\252\001"
  68      0683806F 
  68      70904252 
ARM GAS  /var/folders/c6/c789hm653lg9vtl73krp73tm0000gn/T//ccLq2oST.s 			page 5


  68      62716A41 
  68      51A68E82 
  69 0205 03531103 		.ascii	"\003S\021\003{njn~Q%\003GrAqf\252B&\204\221\002d\000"
  69      7B6E6A6E 
  69      7E512503 
  69      47724171 
  69      66AA4226 
  70 021e 009FF637 		.ascii	"\000\237\3667n"
  70      6E
  71              		.text
  72              		.section	.gnu.lto_vtcb.ef1c8b5fbbec5510,"",%progbits
  73 0000 789CBD54 		.ascii	"x\234\275TAh\023A\024\375\177\266\233F$\220\243E\211"
  73      41681341 
  73      14FD7FB6 
  73      9B462490 
  73      A34589
  74 0013 8BE2414C 		.ascii	"\213\342AL\263\336\274*\205\202`.M\005=\311\272.f\241"
  74      B3DEBC2A 
  74      8582602E 
  74      4D053DC9 
  74      BA2E66A1 
  75 0027 69CAEEA6 		.ascii	"i\312\356\246\264x\3504\315\241\322\022\203 (\"\266"
  75      B478E834 
  75      CDA1D212 
  75      83202822 
  75      B6
  76 0038 A817155A 		.ascii	"\250\027\025Z\364\240T[\203\245\007\021*\275\213,xR"
  76      F4A0545B 
  76      83A50711 
  76      2ABD8B2C 
  76      7852
  77 004a 90D2A345 		.ascii	"\220\322\243E\272\376\331M\266i\014v\017\342$?3\177"
  77      BAFED94D 
  77      B6690C76 
  77      0FE2243F 
  77      337F
  78 005c FE9B79FF 		.ascii	"\376\233y\377\375?\204\001\203\366\321CV\355\002X\242"
  78      FD3F8401 
  78      83F6D143 
  78      56ED0258 
  78      A2
  79 006d 19254056 		.ascii	"\031%@V[\007\230\2143D\261\000\204\011\206\023\227Q"
  79      5B07988C 
  79      3344B100 
  79      84098613 
  79      9751
  80 007f 40F118CC 		.ascii	"@\361\030\314s~\333]\273_\355\341s\345\032\337\361<"
  80      737EDB5D 
  80      BB5FEDE1 
  80      73E51ADF 
  80      F13C
  81 0091 34912E4D 		.ascii	"4\221.M!\350\010\227\310A\305\237X\327^\226\005Vw=\357"
  81      21E80897 
  81      C841C59F 
  81      58D75E96 
  81      0556773D 
  82 00a6 F38FEA97 		.ascii	"\363\217\352\227C\230\210\201\206\363t\031\015\031*"
ARM GAS  /var/folders/c6/c789hm653lg9vtl73krp73tm0000gn/T//ccLq2oST.s 			page 6


  82      43988881 
  82      86F37419 
  82      0D192A
  83 00b5 9CD794A6 		.ascii	"\234\327\224\246\257\373<\203\364+\310/\"\023\263\364"
  83      AFFB3C83 
  83      F42BC82F 
  83      2213B3F4 
  84 00c5 01CA7180 		.ascii	"\001\312q\200\006\371\235\255W\351{\274^\231\343\277"
  84      06F99DAD 
  84      57E97BBC 
  84      5E99E3BF 
  85 00d5 889DA824 		.ascii	"\210\235\250$\006\027\366\243\027{\222B\213u(o=]}1+"
  85      0617F6A3 
  85      177B9242 
  85      8B75286F 
  85      3D5D7D31 
  86 00ea 35889B19 		.ascii	"5\210\233\031\324\237mo&\231\206\217\3754\202=\276\271"
  86      D49F6D6F 
  86      2699868F 
  86      FD34823D 
  86      BEB9
  87 00fc 7C248C7B 		.ascii	"|$\214{\267f\023\275\241\367q\371\024\220\210G(\023"
  87      B76613BD 
  87      A1F771F9 
  87      14908847 
  87      2813
  88 010e B1206764 		.ascii	"\261 gd\022\231\317\213\364yH.\025[\012*\236\202E|\300"
  88      1299CF8B 
  88      F479482E 
  88      155B0A2A 
  88      9E82457C 
  89 0123 EF9E3503 		.ascii	"\357\2365\003@\230\316n\374e#.\007\011\357\225\374\355"
  89      4098CE6E 
  89      FC65232E 
  89      0709EF95 
  89      FCED
  90 0135 6D9B640D 		.ascii	"m\233d\015\237\370\224\373j\206\277j\376\376Sh^l\325"
  90      9FF894FB 
  90      6A86BF6A 
  90      FEFE5368 
  90      5E6CD5
  91 0148 FC6625D5 		.ascii	"\374f%\325\242y)\241\206\336\314J\357\256fa1\262\356"
  91      A27929A1 
  91      86DECC4A 
  91      EFAE6661 
  91      31B2EE
  92 015b 0E9A357C 		.ascii	"\016\2325|N\213\220\276\251Q\303\005LuR\367GC#\253\213"
  92      4E8B90BE 
  92      A951C305 
  92      4C7552F7 
  92      474323AB 
  93 0170 D2D1D711 		.ascii	"\322\321\327\021;\372.bG[\324)\235\325}\202)w\372+\006"
  93      3BFA2E62 
  93      475BD429 
  93      9DD57D82 
  93      2977FA2B 
  94 0185 975DC7D8 		.ascii	"\227]\307\330\015\330\346\323<ibL\307\270\2170\251n"
ARM GAS  /var/folders/c6/c789hm653lg9vtl73krp73tm0000gn/T//ccLq2oST.s 			page 7


  94      0DD8E6D3 
  94      3C69624C 
  94      C7B88F30 
  94      A96E
  95 0197 54041640 		.ascii	"T\004\026@\202\307O@q\264\342\336\\=\030\354\003\204"
  95      82C74F40 
  95      71B4E2DE 
  95      5C3D18EC 
  95      0384
  96 01a9 27E33A1E 		.ascii	"'\343:\036\360O\022\312\024\313\377\371>\336G|\037k"
  96      F04F12CA 
  96      14CBFFF9 
  96      3EDE477C 
  96      1F6B
  97 01bb 1BF2BF7A 		.ascii	"\033\362\277z \0330\351\316\034o\226!\030\203\324\026"
  97      201B30E9 
  97      CE1C6F96 
  97      211883D4 
  97      16
  98 01cc FA3710D0 		.ascii	"\3727\020\320\303\231\214\032|\035\303vT\313\361g{\334"
  98      C3998C1A 
  98      7C1DC376 
  98      54CBF167 
  98      7BDC
  99 01de CEE820D1 		.ascii	"\316\350 \321\342d\030/\332\":R\264\034[=7\220\355\313"
  99      E264182F 
  99      DA223A52 
  99      B41C5B3D 
  99      3790EDCB 
 100 01f2 8EA97A5E 		.ascii	"\216\251z^/Z\306\225\3213\205L\036\344Qm\250d\244[\361"
 100      2F5AC695 
 100      D133854C 
 100      1EE4516D 
 100      A864A45B 
 101 0207 C698A3F6 		.ascii	"\306\230\243\366es\347s\2529\254\017\225\256\031\252"
 101      6573E773 
 101      AA39AC0F 
 101      95AE19AA 
 102 0217 8FD70BFD 		.ascii	"\217\327\013\375\245a\235\216\034m\273<D\345E\002yH"
 102      A5619D8E 
 102      1C6DBB3C 
 102      44E54502 
 102      7948
 103 0229 667303CA 		.ascii	"fs\003\312U\3156F,3\255\2348\015\314\202\356\202Q(Z"
 103      55CD3646 
 103      2C33AD9C 
 103      380DCC82 
 103      EE825128 
 104 023e E3F01B56 		.ascii	"\343\360\033V|LU"
 104      7C4C55
 105              		.text
 106              		.section	.gnu.lto_chVTSetI.ef1c8b5fbbec5510,"",%progbits
 107 0000 789C7D52 		.ascii	"x\234}R\261N\033A\024\234\331\335\263-\207\302-E\020"
 107      B14E1B41 
 107      149CD9DD 
 107      B32D87C2 
 107      2D4510
ARM GAS  /var/folders/c6/c789hm653lg9vtl73krp73tm0000gn/T//ccLq2oST.s 			page 8


 108 0013 41B4D852 		.ascii	"A\264\330Rz\376\002$(O\227\310>)&\010\214\233\024^["
 108      7AFE0224 
 108      284F97C8 
 108      3E292608 
 108      8C9B145E 
 109 0028 46505A14 		.ascii	"FPZ\024F\301) \021i\242\304]\212\200\004I\025\212\004"
 109      46C12920 
 109      1169A2C4 
 109      5D8A8004 
 109      49158A04 
 110 003c A1344134 		.ascii	"\2414A4\327\223\024\024HI\2040o\3570\340\024\254\356"
 110      D7931414 
 110      48498430 
 110      6FEF30E0 
 110      14ACEE
 111 004f DEDB7D37 		.ascii	"\336\333}73;\357\351\024\024\376_\217\345\275 0.\231"
 111      333BEFE9 
 111      1414FE5F 
 111      8FE5BD20 
 111      302E99
 112 0062 1EA85ADF 		.ascii	"\036\250Z\337\201zF)\335\231\204\315\232\363\034\354"
 112      817A4629 
 112      DD9984CD 
 112      9AF31CEC 
 113 0072 90A649CA 		.ascii	"\220\246I\312\206t\033\0205\245\015k\263\214E\272j?"
 113      86741B10 
 113      35A50D6B 
 113      B38C45BA 
 113      6A3F
 114 0084 EAF53E6C 		.ascii	"\352\365>l\234\354\276\342o\365@\261L\030\011\364$\250"
 114      9CECBEE2 
 114      6FF540B1 
 114      4C1809F4 
 114      24A8
 115 0096 94049D41 		.ascii	"\224\004\235A\030c=4\255m\215\002A|\234\222\350\024"
 115      18633D34 
 115      AD6D8D02 
 115      417C9C92 
 115      E814
 116 00a8 A7A95CD6 		.ascii	"\247\251\\\326\007hd\2001lY\273\266\377\262\323\036"
 116      07686480 
 116      316C59BB 
 116      B6FFB2D3 
 116      1E
 117 00b9 B69B8D96 		.ascii	"\266\233\215\226\275\354\365\030R \217\350x3rP\243q"
 117      BDECF518 
 117      52208FE8 
 117      78337250 
 117      A371
 118 00cb D266B09D 		.ascii	"\322f\260\235\242\200p\200/\"R\246\361\371\232cR\375"
 118      A2807080 
 118      2F2252A6 
 118      F1F99A63 
 118      52FD
 119 00dd 86C6A7E5 		.ascii	"\206\306\247\345\235n\311}\317t\260Q\2676\027\322\010"
 119      9D6EC97D 
 119      CF74B051 
ARM GAS  /var/folders/c6/c789hm653lg9vtl73krp73tm0000gn/T//ccLq2oST.s 			page 9


 119      B73617D2 
 119      08
 120 00ee D8697028 		.ascii	"\330ip(\341\312\335\321\237\323\354\215\303dc\367>>"
 120      E1CADDD1 
 120      9FD3EC8D 
 120      C36463F7 
 120      3E3E
 121 0100 ECEBF8DC 		.ascii	"\354\353\370\334\222\031\005\214\255\227\351\311\025"
 121      9219058C 
 121      AD97E9C9 
 121      15
 122 010d 31EDD6F2 		.ascii	"1\355\326\362\217\366\240e\237o\304\2210\356\361,B\300"
 122      8FF6A065 
 122      9F6FC491 
 122      30EEF12C 
 122      42C0
 123 011f 57347F7D 		.ascii	"W4\177}>[\327>\267\345(6\035r\0008M\215\316\244>D3\372"
 123      3E5BD73E 
 123      B7E52836 
 123      1D720038 
 123      4D8DCEA4 
 124 0137 FB2E9BE0 		.ascii	"\373.\233\340\200\027\370gW]7^@\345\363m\\tc\010\231"
 124      8017F867 
 124      575D375E 
 124      40E5F36D 
 124      5C746308 
 125 014c EAF34C3C 		.ascii	"\352\363L<\332C\254D?\337\247\223\036\356\020\323\201"
 125      DA43AC44 
 125      3FDFA793 
 125      1EEE10D3 
 125      81
 126 015d 085F938A 		.ascii	"\010_\223\212n(^\221\251\220\322\323\021\352\321\361"
 126      6E285E91 
 126      A990D2D3 
 126      11EAD1F1 
 127 016d 449F90AC 		.ascii	"D\237\220\254)i^\324\334\2174\222\317\027\222\347\371"
 127      29695ED4 
 127      DC8F3492 
 127      CF1792E7 
 127      F9
 128 017e 6261A152 		.ascii	"ba\241R\010\347\202gKO\236\026\202R\265\222/AW+\363"
 128      08E78267 
 128      4B4F9E16 
 128      8252B592 
 128      2F41572B 
 129 0193 57B6FC85 		.ascii	"W\266\374\205w"
 129      77
 130              		.text
 131              		.section	.gnu.lto_sys1_execute.ef1c8b5fbbec5510,"",%progbits
 132 0000 789CCD58 		.ascii	"x\234\315XkLTG\024\2363\373\340\262\313\012\276\212"
 132      6B4C5447 
 132      149E33FB 
 132      E0B2CB0A 
 132      BE8A
 133 0012 022E84A4 		.ascii	"\002.\204\244\261m\010\3336M\332?M\332\2304\351\017"
 133      B16D08DB 
 133      364DDA3F 
ARM GAS  /var/folders/c6/c789hm653lg9vtl73krp73tm0000gn/T//ccLq2oST.s 			page 10


 133      4DDA9834 
 133      E90F
 134 0024 D2443469 		.ascii	"\322D4i\177\231\353\272\205MY!\313B\264\375\341\345"
 134      7F99EBBA 
 134      854D5921 
 134      CB42B4FD 
 134      E1E5
 135 0036 51C56A08 		.ascii	"Q\305j\010\022\237 \025|\201\261h*\215\370 \272H\021"
 135      129F2015 
 135      7C81B168 
 135      2A8DF820 
 135      BA4811
 136 0049 1F05FAC0 		.ascii	"\037\005\372\300Z\255\215\033\211i*&\242\2461j-=3s\367"
 136      5AAD8D1B 
 136      89692A26 
 136      A2A6316A 
 136      2D3D3373 
 137 005e EE0B7657 		.ascii	"\356\013vW\321Mo\330;\2273g\346\236\307\367\235\271"
 137      D14D6FD8 
 137      3B973367 
 137      E69EC7F7 
 137      9DB9
 138 0070 33945012 		.ascii	"3\224P\022~\265\342\257#\235\220\331@\010\314 @\033"
 138      7EB5E2AF 
 138      239D90D9 
 138      4008CC20 
 138      401B
 139 0082 8608A992 		.ascii	"\206\010\251\222(\325\325-$\212I\317\356):\320\013\261"
 139      28D5D52D 
 139      248A49CF 
 139      EE293AD0 
 139      0BB1
 140 0094 9E1AB8D8 		.ascii	"\236\032\270\330\310\305\0060\012\261\221&q\261\304"
 140      C8C50630 
 140      0AB19126 
 140      71B1C4
 141 00a3 C5492009 		.ascii	"\305I \011\261D\223\271\330\304\305\311`\022b\023M\031"
 141      B14493B9 
 141      D8C4C5C9 
 141      60126213 
 141      4D19
 142 00b5 B1A1D8DC 		.ascii	"\261\241\330\334cE\261\031,B\234\342\177\260\000\260"
 142      6345B119 
 142      2C429CE2 
 142      7FB000B0 
 143 00c5 0702640D 		.ascii	"\007\002d\015\325\351\015\306$)\331dN\261\300\232O\200"
 143      D5E90DC6 
 143      2429D964 
 143      4EB1C09A 
 143      4F80
 144 00d7 596CCC25 		.ascii	"Yl\314%m\212\322\350\353\037\365\301\016\305[\333\252"
 144      6D8AD2E8 
 144      EB1FF5C1 
 144      0EC55BDB 
 144      AA
 145 00e8 FC333101 		.ascii	"\37431\001\340\004\364\316\012\304\016\344c\374\007"
 145      E004F4CE 
ARM GAS  /var/folders/c6/c789hm653lg9vtl73krp73tm0000gn/T//ccLq2oST.s 			page 11


 145      0AC40EE4 
 145      63FC07
 146 00f7 727843F5 		.ascii	"rxC\365\241\356\262\261\336\006\357\256\263[@i\255n"
 146      A1EEB2B1 
 146      DE06EFAE 
 146      B35B4069 
 146      AD6E
 147 0109 50FEC5A1 		.ascii	"P\376\305\241N\320Q\222\033\030\331*Z:'r(\276\266\371"
 147      4ED05192 
 147      1B18D92A 
 147      5A3A2772 
 147      28BEB6F9 
 148 011d C97759A1 		.ascii	"\311wY\241\257\225a7\3208\336\2534*G\024%\231\017\324"
 148      AF956137 
 148      D038DEAB 
 148      342A4714 
 148      25990FD4 
 149 0131 FD4FC71D 		.ascii	"\375O\307\035\246^\337\304\304\241\246\265{{`'}S\217"
 149      A65EDFC4 
 149      C4A1A6B5 
 149      7B7B6027 
 149      7D538F
 150 0144 83DA2097 		.ascii	"\203\332 \227Hj;\2278A\237\316n\031(\331\207\222Ll\367"
 150      486A3B97 
 150      38419FCE 
 150      6E1928D9 
 150      87924C6C 
 151 0159 639B856D 		.ascii	"c\233\205m;\266\013\260\355\300\326\212J\206l\246\211"
 151      3BB60BB0 
 151      EDC0D68A 
 151      4A866CA6 
 151      89
 152 016a B31A48AD 		.ascii	"\263\032H\255\2424\344\2109d\330\203w\302\014\301k\011"
 152      A234E488 
 152      3964D883 
 152      77C20CC1 
 152      6B09
 153 017c DE59B697 		.ascii	"\336Y\266\227\242i\330\352\206I\215\257i\024d8\000\006"
 153      A269D8EA 
 153      86498DAF 
 153      69146438 
 153      0006
 154 018e 5204FA2F 		.ascii	"R\004\372/\310#\245NIs\202\321\016|\000N\231D\310yB"
 154      C823A54E 
 154      497382D1 
 154      0E7C004E 
 154      9944C879 
 155 01a3 858A98B3 		.ascii	"\205\212\230\263\210\275f\230\324\372\232\373\314BN"
 155      88BD6698 
 155      D4FA9AFB 
 155      CC424E
 156 01b2 883652B2 		.ascii	"\2106R\262\203\300=j9!\231\015\256\226\002\371\274\333"
 156      83C03D6A 
 156      3921990D 
 156      AE9602F9 
 156      BCDB
 157 01c4 9D17924F 		.ascii	"\235\027\222O\023%\037\305\202\021\223\231r\360a\210"
ARM GAS  /var/folders/c6/c789hm653lg9vtl73krp73tm0000gn/T//ccLq2oST.s 			page 12


 157      13251FC5 
 157      82119399 
 157      72F06188 
 158 01d4 54DFEDEC 		.ascii	"T\337\355\354;\262Q\247\272\350\367\325\333\375\350"
 158      3BB251A7 
 158      BAE8F7D5 
 158      DBFDE8
 159 01e3 4E1A9AF8 		.ascii	"N\032\232\370\015wU\225\035\334\334c\316\322\376[?\214"
 159      0D775595 
 159      1DDCDC63 
 159      CED2FE5B 
 159      3F8C
 160 01f5 FE0863ED 		.ascii	"\376\010c\355\240\303\237\036\177\314p\004>\220\335"
 160      A0C39F1E 
 160      7FCC7004 
 160      3E90DD
 161 0204 2842AB75 		.ascii	"(B\253u\202\262V\322\005-\312\366\367\234`\016y}\240"
 161      82B256D2 
 161      052DCAF6 
 161      F79C600E 
 161      797DA0
 162 0217 FFA8DA9F 		.ascii	"\377\250\332\237\"\014da\334\025\010\243\024o\030%\021"
 162      220C6461 
 162      DC1508A3 
 162      146F1825 
 162      11
 163 0228 C68EE861 		.ascii	"\306\216\350a\224&\011\343_=aa\224\2413&\334\270#$j"
 163      942609E3 
 163      5F3D6161 
 163      94A13326 
 163      DCB82324 
 164 023d 1C6F3D64 		.ascii	"\034o=dq<\036\032\3071\263UC\225&>?\022\024P#\341\020"
 164      713C1E1A 
 164      C731B355 
 164      4395263E 
 164      3F121450 
 165 0254 4B9A24A6 		.ascii	"K\232$\2462t\341\203\366j\177\014e8\012Va\326\020\251"
 165      3274E183 
 165      F66A7F0C 
 165      65380A56 
 165      61D610A9 
 166 0268 BADBB9E7 		.ascii	"\272\333\271\347\240f\215\360\321{\371FX\305A\250\234"
 166      A0668DF0 
 166      D17BF946 
 166      58C541A8 
 166      9C
 167 0279 82585809 		.ascii	"\202XX\011\270\362\363\255\031A\\\330\027\352\322\220"
 167      B8F2F3AD 
 167      19415CD8 
 167      17EAD290 
 168 0289 C516E9D2 		.ascii	"\305\026\351\322\206_7%\005|\222\204O\311\242\021\306"
 168      865F3725 
 168      057C9284 
 168      4FC9A211 
 168      C6
 169 029a A3CBFD61 		.ascii	"\243\313\375aP\271\252B\301\"\222\225\301\3650Y\343"
 169      50B9AA42 
ARM GAS  /var/folders/c6/c789hm653lg9vtl73krp73tm0000gn/T//ccLq2oST.s 			page 13


 169      C1229295 
 169      C1F53059 
 169      E3
 170 02ab DC25197A 		.ascii	"\334%\031zy\276\317\360|g\210\236\301\221\253\330\321"
 170      79BECFF0 
 170      7C67889E 
 170      C191ABD8 
 170      D1
 171 02bc CF3B845D 		.ascii	"\317;\204]B\376U\177\327c\214\376\000v\2501\330\321"
 171      42FE557F 
 171      D7638CFE 
 171      0076A831 
 171      D8D1
 172 02ce BC757E50 		.ascii	"\274u~P\345\324\212\212\024%\002\3745\347\310\367\177"
 172      E5D48A8A 
 172      142502FC 
 172      35E7C8F7 
 172      7F
 173 02df F6B634EB 		.ascii	"\366\2664\353\304l(b\2323\202\325\226\242\037u\013u"
 173      C46C2862 
 173      9A3382D5 
 173      96A21F75 
 173      0B75
 174 02f1 31D81937 		.ascii	"1\330\0317\254\342\241\347\340\224\364TN\037\265\262"
 174      ACE2A1E7 
 174      E094F454 
 174      4E1FB5B2 
 175 0301 C80F44A5 		.ascii	"\310\017D\245g\020\224\202\351\030\004%\341\230\236"
 175      67109482 
 175      E9180425 
 175      E1989E
 176 0310 D7B6B861 		.ascii	"\327\266\270a%C_L\037\247\202\325\3768`u\361)`%\303"
 176      25435F4C 
 176      1FA782D5 
 176      FE386075 
 176      F1296025 
 177 0325 057C2882 		.ascii	"\005|(\202\314p\030\215p\264\\\3420\312\014\206\321"
 177      CC70188D 
 177      70B45CE2 
 177      30CA0C86 
 177      D1
 178 0336 65DEB13F 		.ascii	"e\336\261?\022FWx\307\017\376\021\014\021U\026!F\301"
 178      12465778 
 178      C70FFE11 
 178      0C115516 
 178      2146C1
 179 0349 24783024 		.ascii	"$x0$\032\017\327b\342\341\312s\301\203\221\343!\221"
 179      1A0FD762 
 179      E2E1CA73 
 179      C18391E3 
 179      2191
 180 035b 0574348E 		.ascii	"\005t4\216\002\272\376\362\363*\240\211\314\331\330"
 180      02BAFEF2 
 180      F32AA089 
 180      CCD9D8
 181 036a D44BECF9 		.ascii	"\324K\354\371kq,\261\261s\226\020\336\266\207\272q\333"
 181      6B712CB1 
ARM GAS  /var/folders/c6/c789hm653lg9vtl73krp73tm0000gn/T//ccLq2oST.s 			page 14


 181      B1739610 
 181      DEB687BA 
 181      71DB
 182 037c F2CE24CB 		.ascii	"\362\316$\313\301\037\337\006\361\326,2\024\203\267"
 182      C11FDF06 
 182      F1D62C32 
 182      1483B7
 183 038b 591A0B55 		.ascii	"Y\032\013U\336\336\343,\274\317Y\230\025\314\333\277"
 183      DEDEE32C 
 183      BCCF5998 
 183      15CCDBBF 
 184 039b 79477B30 		.ascii	"yG{0o\277<\331\207\035\017\002\345\377\322\024\345\337"
 184      6FBF3CD9 
 184      871D0F02 
 184      E5FFD214 
 184      E5DF
 185 03ad 1CB5FC67 		.ascii	"\034\265\374g1\262\327\336\356\275\322\254\316\206\242"
 185      31B2D7DE 
 185      EEBDD2AC 
 185      CE86A2
 186 03bc 49E89E14 		.ascii	"I\350\236\024I\367\027K\212\307\261I\241tw\277\302\202"
 186      49F7174B 
 186      8AC7B149 
 186      A17477BF 
 186      C282
 187 03ce F960FAA4 		.ascii	"\371`\372\244\020NJ\211[\012:\342\200\324\305g\200\324"
 187      104E4A89 
 187      5B0A3AE2 
 187      80D4C567 
 187      80D4
 188 03e0 827048D5 		.ascii	"\202pH\325P\206\234Z\232+:\003\220Z\313;:\"!U\307;\036"
 188      50869C5A 
 188      9A2B3A03 
 188      905ACB3B 
 188      3A222155 
 189 03f7 813A82A1 		.ascii	"\201:\202\241\203-\005L\214\202I\260\221\234hll\240"
 189      832D054C 
 189      8C8249B0 
 189      919C686C 
 189      6CA0
 190 0409 71638359 		.ascii	"qc\203Y\375\\\260a\362/\013\3437\272\367\252\037\357"
 190      FD5CB061 
 190      F22F0BE3 
 190      37BAF7AA 
 190      1FEF
 191 041b 2EC04FF0 		.ascii	".\300O\360\317\235\220*\366M\376\317\362\320\022\373"
 191      CF9D902A 
 191      F64DFECF 
 191      F2D012FB 
 192 042b A4FE521F 		.ascii	"\244\376R\0374\326(\347\224Z/\006#\033\325)y\022\363"
 192      34D628E7 
 192      945A2F06 
 192      231BD529 
 192      7912F3
 193 043e D3D4C5B6 		.ascii	"\323\324\305\266\002\203\244\372\330\366\261^\032Ql"
 193      0283A4FA 
 193      D8F6B15E 
ARM GAS  /var/folders/c6/c789hm653lg9vtl73krp73tm0000gn/T//ccLq2oST.s 			page 15


 193      1A516C
 194 044d AE6F32C8 		.ascii	"\256o2\310\260\231\207\301\217\017\276\273h&MU\012\333"
 194      B09987C1 
 194      8F0FBEBB 
 194      68264D55 
 194      0ADB
 195 045f 11A4B1BD 		.ascii	"\021\244\261\275\001\177J\365o\352\370kf\246\370\237"
 195      017F4AF5 
 195      6FEAF86B 
 195      66A6F89F 
 196 046f D2C22DF5 		.ascii	"\322\302-\3656\237\255\017. 8p\013\215\2253\361\032"
 196      369FAD0F 
 196      2E203870 
 196      0B8D9533 
 196      F11A
 197 0481 EFC45A4B 		.ascii	"\357\304ZK\3640\204O>\213\222*\032\317Vn\026\204\315"
 197      F430844F 
 197      3E8B922A 
 197      1ACF566E 
 197      1684CD
 198 0494 14B2714E 		.ascii	"\024\262qN\243d]\314i\3046I\330h\260\203%.\003gSR\037"
 198      A3645DCC 
 198      69C43649 
 198      D868B083 
 198      252E0367 
 199 04ab 9781B323 		.ascii	"\227\201\263#2\376\202\027\325=t\312E\365a\313\306\324"
 199      32FE8217 
 199      D53D74CA 
 199      45F561CB 
 199      C6D4
 200 04bd 49EAC8F5 		.ascii	"I\352\310\3656\244u\033e\251\371\232\337w\362{S\010"
 200      36A4751B 
 200      65A9F99A 
 200      DF77F27B 
 200      5308
 201 04cf 7E66088E 		.ascii	"~f\010\216<\373R<L\326\215\237j\037\375\035\311\321"
 201      3CFB523C 
 201      4CD68D9F 
 201      6A1FFD1D 
 201      C9D1
 202 04e1 4143B6A7 		.ascii	"AC\266\247s\354\014\033\007\270PE\214\357\346\235\037"
 202      73EC0C1B 
 202      07B85045 
 202      8CEFE69D 
 202      1F
 203 04f2 211C326A 		.ascii	"!\0342j\276\231\206\024\222*5\316N\230\233\330\255\355"
 203      BE998614 
 203      922A35CE 
 203      4E989BD8 
 203      ADED
 204 0504 E1D88506 		.ascii	"\341\330\205\006c^\237\312\342\3201\375J\203\333\373"
 204      635E9FCA 
 204      E2D031FD 
 204      4A83DBFB 
 205 0514 F1EAE39E 		.ascii	"\361\352\343\236\210\355\375Kv\301V\021 \023\306!=\350"
 205      88EDFD4B 
 205      76C15611 
ARM GAS  /var/folders/c6/c789hm653lg9vtl73krp73tm0000gn/T//ccLq2oST.s 			page 16


 205      2013C621 
 205      3DE8
 206 0526 7C40C56F 		.ascii	"|@\305o\323\331\224\206\252:ebb\315\323Qw\313@D\036"
 206      D3D99486 
 206      AA3A6562 
 206      62CDD351 
 206      77CB4044 
 207 053b D8E46724 		.ascii	"\330\344g$V\2030\227\307x\014\022\011\360\023\321\000"
 207      56833097 
 207      C7780C12 
 207      09F013D1 
 207      00
 208 054c 3E68D652 		.ascii	">h\326R\240:\276m\333\306t\305\247\370\211\253\247\244"
 208      A03ABE6D 
 208      DBC674C5 
 208      A7F889AB 
 208      A7A4
 209 055e 3188B892 		.ascii	"1\210\270\222\260\005H\330\345\257\2447\337\360\273"
 209      B00548D8 
 209      E5AFA437 
 209      DFF0BB
 210 056d E827C2CC 		.ascii	"\350'\302\314\351\022\001\253\366\211\376\307-\027\016"
 210      E91201AB 
 210      F689FEC7 
 210      2D170E
 211 057c 66B00F2C 		.ascii	"f\260\017,kxM\366\365\337\2337\031\362S\325\363!\266"
 211      6B784DF6 
 211      F5DF9B37 
 211      19F253D5 
 211      F321B6
 212 058f C69C1AB8 		.ascii	"\306\234\032\270\377\232\014\247)[c\250\213\035\013"
 212      FF9A0CA7 
 212      295B63A8 
 212      8B1D0B
 213 059e 85D4AA5F 		.ascii	"\205\324\252_\266n}\352J\355bGD\203\244\346\267\232"
 213      B66E7DEA 
 213      4AED6247 
 213      4483A4E6 
 213      B79A
 214 05b0 EECEF0C8 		.ascii	"\356\316\360\310+'\017\341z2\240\206\3414G\362,6\250"
 214      2B270FE1 
 214      7A32A086 
 214      E13447F2 
 214      2C36A8
 215 05c3 08B2D183 		.ascii	"\010\262\321\203\240\345\202\212n\031\274T\373pH\030"
 215      A0E5828A 
 215      6E19BC54 
 215      FB704818 
 216 05d3 1D2FC445 		.ascii	"\035/\304E\307as\300\211i\321\021\363\330\323\307\001"
 216      C76173C0 
 216      8969D111 
 216      F3D8D3C7 
 216      01
 217 05e4 224EEAE6 		.ascii	"\"N\352\346b4\030I\015~A\272\306\320yv\261\016\360\371"
 217      62341849 
 217      0D7E41BA 
 217      C6D07976 
ARM GAS  /var/folders/c6/c789hm653lg9vtl73krp73tm0000gn/T//ccLq2oST.s 			page 17


 217      B10EF0F9 
 218 05f8 E6035376 		.ascii	"\346\003Sv\212\223\225\332\333\332I_:\353\014\361})"
 218      8A9395DA 
 218      DBDA495F 
 218      3AEB0CF1 
 218      7D29
 219 060a 7ED5F558 		.ascii	"~\325\365Xu\203\344\314\230v\330\307P\361\026\351R\352"
 219      7583E4CC 
 219      9876D8C7 
 219      50F116E9 
 219      52EA
 220 061c D8E1B7A6 		.ascii	"\330\341\267\246\227BFlL\357\263\350j\026\376\225\362"
 220      9742466C 
 220      4CEFB3E8 
 220      6A16FE95 
 220      F2
 221 062d 13018DC9 		.ascii	"\023\001\215\311\374Z\202\010\302\016\346`f~\276M\374"
 221      FC5A8208 
 221      C20EE660 
 221      667EBE4D 
 221      FC
 222 063e 791CE51E 		.ascii	"y\034\345\036\233\333\303\333\362\325\345\371v\242\303"
 222      9BDBC3DB 
 222      F2D5E5F9 
 222      76A2C3
 223 064d 075AE979 		.ascii	"\007Z\351yUS)-g\012e\245nO\271\355\375\305\005\213\012"
 223      5553292D 
 223      670A65A5 
 223      6E4FB9ED 
 223      FDC5058B 
 224 0662 56D9ECC5 		.ascii	"V\331\354\305\366R\267cY\345\333\256\374bb\250\224K"
 224      F652B763 
 224      59E5DBAE 
 224      FC6262A8 
 224      944B
 225 0674 2A1C79C1 		.ascii	"*\034y\301\372\216U\036\333\242\202\302\017\013m\316"
 225      FA8E551E 
 225      DBA282C2 
 225      0F0B6DCE 
 226 0684 95F6928A 		.ascii	"\225\366\222\212\025\016\033\327\267\273>\250Xi\307"
 226      150E1BD7 
 226      B7BB3EA8 
 226      5869C7
 227 0693 21D96193 		.ascii	"!\331a\223kZ\305\314\206b\222VP\2708g\271\\\356(s;\363"
 227      6B5AC5CC 
 227      86629256 
 227      50B83867 
 227      B95CEE28 
 228 06aa 725E7E9D 		.ascii	"r^~\235P7Ir9\\\245\356\325\304\350v\224W\224x\346\024"
 228      50374972 
 228      395CA5EE 
 228      D5C4E876 
 228      94579478 
 229 06c0 2C2EC49E 		.ascii	",.\304\236<\277\3322\227\274\212\350\336u\023\353\224"
 229      3CBFDA32 
 229      97BC8AE8 
 229      DE7513EB 
ARM GAS  /var/folders/c6/c789hm653lg9vtl73krp73tm0000gn/T//ccLq2oST.s 			page 18


 229      94
 230 06d1 73577A70 		.ascii	"sWzpj]\245\247\314\260\302Q\"\2576Vz>Este\262\033\226"
 230      6A5DA5A7 
 230      CCB0C251 
 230      22AF3656 
 230      7A3E4573 
 231 06ea FF07EB8D 		.ascii	"\377\007\353\215\376\016"
 231      FE0E
 232              		.text
 233              		.section	.gnu.lto_sys3_execute.part.2.ef1c8b5fbbec5510,"",%progbits
 234 0000 789C8592 		.ascii	"x\234\205\222\317k\023Q\020\307g\336\356&[{\311]\211"
 234      CF6B1351 
 234      10C767DE 
 234      EE265B7B 
 234      C95D89
 235 0013 41F02086 		.ascii	"A\360 \206\2547\257JA\360\020\204&\005=\311\372\\\314"
 235      AC37AF4A 
 235      41F01084 
 235      26053DC9 
 235      FA5CCC
 236 0026 42D294DD 		.ascii	"B\322\224\335Mi\361\320\327\230\203\202\207\"\212\026"
 236      4D69F1D0 
 236      D7988382 
 236      87228A16 
 237 0036 11ACBF2E 		.ascii	"\021\254\277.\305\037T\260\227\024\"\342\241\007[\374"
 237      C51F54B0 
 237      971422E2 
 237      A1075BFC 
 238 0046 0734170F 		.ascii	"\0074\027\017\352\241\364h\021\342\274\367\222\335$"
 238      EAA1F468 
 238      11E2BCF7 
 238      92DD24
 239 0055 88EE8FCC 		.ascii	"\210\356\217\314\354\274\331\357|\337'\313\200\301\370"
 239      ECBCD9EF 
 239      7CDF27CB 
 239      80C1F8
 240 0064 7192EE3D 		.ascii	"q\222\356=*oQD\013\320\\\331\241\304D\246\"CC\306e\333"
 240      2A6F5144 
 240      0BD05CD9 
 240      A1C444A6 
 240      224343C6 
 241 007a 40940920 		.ascii	"@\224\011 ,\231\314\300\245K(_\306c\260&\304\235\356"
 241      2C99CCC0 
 241      A54B285F 
 241      C663B026 
 241      C49DEE
 242 008d B717EFF1 		.ascii	"\267\027\357\361\276\350,?\026\277{=D\037iP\026\201"
 242      BEE82C3F 
 242      16BF7B3D 
 242      441F6950 
 242      1681
 243 009f 235CA407 		.ascii	"#\\\244\007\264U`8:\3715\023\335^ouc\302Fpq\215\264"
 243      B4556038 
 243      3AF93513 
 243      DD5E6F75 
 243      63C24670 
 244 00b6 18F8AAC7 		.ascii	"\030\370\252\307\202\226\020+9]\004)CG\231~\245\205"
ARM GAS  /var/folders/c6/c789hm653lg9vtl73krp73tm0000gn/T//ccLq2oST.s 			page 19


 244      8296102B 
 244      395D0429 
 244      4347997E 
 244      A585
 245 00c8 329A321A 		.ascii	"2\2322\0323\310T\334\206\246\015\3207\362p\1773\277"
 245      33C854DC 
 245      86A60DD0 
 245      37F2707F 
 245      33BF
 246 00da 2A3AADD8 		.ascii	"*:\255\330\210\301\340Bb$\247\215\230\243Fd\315\310"
 246      88C1E042 
 246      6224A78D 
 246      98A34664 
 246      CDC8
 247 00ec 51B203CD 		.ascii	"Q\262\003\315\375\227\0376n\033}\003\003'\235\315\203"
 247      FD971F36 
 247      6E1B7D03 
 247      03279DCD 
 247      83
 248 00fd BD0C73F1 		.ascii	"\275\014s\361\231\262\323\257\255\337mO\036\211\237"
 248      99B2D3AF 
 248      ADDF6D4F 
 248      1E899F
 249 010c 6E7D2186 		.ascii	"n}!\206.>%\204\034\345@F\267\241\030\321\371\204RZ7"
 249      2E3E2584 
 249      1CE54046 
 249      B7A118D1 
 249      F984525A 
 250 0121 34FF2CBC 		.ascii	"4\377,\274\305G\342\301\031\037\315\221\361\311\372"
 250      C547E2C1 
 250      191FCD91 
 250      F1C9FA
 251 0130 BBFEBAA5 		.ascii	"\273\376\272\245\015\356B\253\273\3651\245\345\257!"
 251      0DEE42AB 
 251      BBF531A5 
 251      E5AF21
 252 013f 5E870371 		.ascii	"^\207\003qSd|Lq-\2414\3226\341#\024\333\300t\247\346"
 252      53647C4C 
 252      712DA134 
 252      D236E123 
 252      14DBC074 
 253 0155 47FDB236 		.ascii	"G\375\2626\014\351{{\014\222\213\317\225\341\377R\202"
 253      0CE97B7B 
 253      0C928BCF 
 253      95E1FF52 
 253      82
 254 0166 7F52FAF1 		.ascii	"\177R\372\361KRz3J\351\347d6\376G\023\\_\207p\251]r"
 254      4B527A33 
 254      4AE9E764 
 254      36FE4713 
 254      5C5F8770 
 255 017d 4CFD8598 		.ascii	"L\375\205\230\213\353\224\304\243\007\204\\|\205Ym\353"
 255      8BEB94C4 
 255      A307845C 
 255      7C85596D 
 255      EB
 256 018e 1334DB37 		.ascii	"\0234\3337z\367\214\001\034\246\366\273\013\226.\000"
ARM GAS  /var/folders/c6/c789hm653lg9vtl73krp73tm0000gn/T//ccLq2oST.s 			page 20


 256      7AF78C01 
 256      1CA6F6BB 
 256      0B962E00 
 257 019e C4B02638 		.ascii	"\304\260&8\246\023X\246\354\365\361\220V\231!}\3711"
 257      A61358A6 
 257      ECF5F190 
 257      5699217D 
 257      F931
 258 01b0 7DA64F3D 		.ascii	"}\246O=\331r\231\244\250*G\036.\024\034}E^\0309A\244"
 258      D97299A4 
 258      A82A471E 
 258      2E141C7D 
 258      455E1839 
 259 01c6 62B81816 		.ascii	"b\270\030\0268\244\002/lT\243\023qK=\224\015s\365 \012"
 259      38A4022F 
 259      6C54A313 
 259      714B3D94 
 259      0D73F520 
 260 01db 9DB3D3C5 		.ascii	"\235\263\323\305\251\342\202\303+\274\036x\227\347O"
 260      A9E282C3 
 260      2BBC1E78 
 260      97E74F
 261 01ea D70A15B0 		.ascii	"\327\012\025\260\346\335j\303\313\017\367{\013\2213"
 261      E6DD6AC3 
 261      CB0FF77B 
 261      0B9133
 262 01f9 552C9D2F 		.ascii	"U,\235/9\376,\2576\256z\216\352\347\265s\215YN\257\034"
 262      39FE2CAF 
 262      36AE7A8E 
 262      EAE7B573 
 262      8D594EAF 
 263 020e 1D138FBB 		.ascii	"\035\023\217\273*\322C\0052\305\322t\356\212\033zs\201"
 263      2AD24305 
 263      32C5D274 
 263      EE8A1B7A 
 263      7381
 264 0220 9FCF1D3F 		.ascii	"\237\317\035?\005,\200t\315\253\325\203E\370\003\374"
 264      052C8074 
 264      CDABD583 
 264      45F803FC 
 265 0230 8BE540   		.ascii	"\213\345@"
 266              		.text
 267              		.section	.gnu.lto_sys3_execute.ef1c8b5fbbec5510,"",%progbits
 268 0000 789CBD96 		.ascii	"x\234\275\226OH\024Q\034\307\177\2777\177\334\034EY"
 268      4F481451 
 268      1CC77FBF 
 268      377FDC1C 
 268      4559
 269 0012 C44BB16D 		.ascii	"\304K\261mA\207@v\272u-\204\240\303\"\370\007\352\024"
 269      41874076 
 269      BA752D84 
 269      A0C322F8 
 269      07EA14
 270 0025 D334B803 		.ascii	"\3234\270\003\256+3\273\242tp\324=$t\220(*\242\320\254"
 270      AE2B33BB 
 270      A27470D4 
 270      3D247490 
ARM GAS  /var/folders/c6/c789hm653lg9vtl73krp73tm0000gn/T//ccLq2oST.s 			page 21


 270      282AA2D0 
 271 003a 2EF68F82 		.ascii	".\366\217\202,1X\211@\203\334\376P]:H\320\241\014\304"
 271      2C315889 
 271      4083DCFE 
 271      505D3A48 
 271      D0A10CC4 
 272 004e 63126CEF 		.ascii	"c\022l\357\315\314\316\314\252\243{\020\337\356\274"
 272      CDCCCECC 
 272      AAA37B10 
 272      DFEEBC
 273 005d 37BFF77E 		.ascii	"7\277\367~\363\373\375\336\367}\366\017\001\002\033"
 273      F3FBFDDE 
 273      F77DF60F 
 273      01021B
 274 006c 5B1BBDF8 		.ascii	"[\033\275\370\010\300k:b\015 \031_\002\030\216\020\""
 274      08C06B3A 
 274      620D2019 
 274      5F02188E 
 274      1022
 275 007e 7E95C1AA 		.ascii	"~\225\301\252\345fc`\325q\256\305\333\026\357Z\202m"
 275      E5666360 
 275      D571AEC5 
 275      DB16EF5A 
 275      826D
 276 0090 0928B247 		.ascii	"\011(\262GPDd# \014\021\216\027D\034:\213,\001\036\206"
 276      50446423 
 276      200C118E 
 276      17441C3A 
 276      8B2C011E 
 277 00a5 49CBBAB2 		.ascii	"I\313\272\262\374\363\301<^\267\012\303\023\326\277"
 277      FCF3C13C 
 277      5EB70AC3 
 277      13D6BF
 278 00b4 52095147 		.ascii	"R\011QGZL\014AE8C\015\214\330\003\301\312\352\236\220"
 278      5A4C0C41 
 278      4538430D 
 278      8CD803C1 
 278      CAEA9E90 
 279 00c8 C272A9F4 		.ascii	"\302r\251\364\360\363\304\217\005\214\036\342A\301I"
 279      F0F3C48F 
 279      058C1EE2 
 279      41C149
 280 00d7 1A4F04FA 		.ascii	"\032O\004\372t\204u\222;S\317\214\006\326E\335\231&"
 280      74847592 
 280      3B53CF8C 
 280      06D645DD 
 280      9926
 281 00e9 6634B38E 		.ascii	"f4\263\2166\001\362\2265\036wV\200\345\244\255\223\366"
 281      3601F296 
 281      351E7756 
 281      80E5A4AD 
 281      93F6
 282 00fb ACE22E24 		.ascii	"\254\342.$l\344\026a\204\352\340V{km\246\345\246U\310"
 282      6CE41661 
 282      84EAE056 
 282      7B6B6DA6 
 282      E5A655C8 
ARM GAS  /var/folders/c6/c789hm653lg9vtl73krp73tm0000gn/T//ccLq2oST.s 			page 22


 283 010f 7BD57204 		.ascii	"{\325r\004\332\374j\343N\265|e\265l\216\213\323\233"
 283      DAFC6AE3 
 283      4EB57C65 
 283      B56C8E8B 
 283      D39B
 284 0121 2518597B 		.ascii	"%\030Y{\364\346\331e\316M\\\256\2400\263\276\332H\024"
 284      F4E6D965 
 284      CE4D5CAE 
 284      A030B3BE 
 284      DA4814
 285 0134 BC6797E1 		.ascii	"\274g\227\341\316M_\235\223\016x\326\342\022=#\005\247"
 285      CE4D5F9D 
 285      930E78D6 
 285      E2123D23 
 285      05A7
 286 0146 50A0C958 		.ascii	"P\240\311XBB/\316\026\222\276\356\322[\272\3169\007"
 286      42422FCE 
 286      1692BEEE 
 286      D25BBACE 
 286      3907
 287 0158 1983E778 		.ascii	"\031\203\347x\333\272qBG\276\"\275\277\376\302]\027"
 287      DBBA7142 
 287      47BE22BD 
 287      BFFEC25D 
 287      17
 288 0169 9C028B90 		.ascii	"\234\002\213\220_\276\363Vt\302w#\177\021\326\255KV"
 288      5FBEF356 
 288      74C27723 
 288      7F11D6AD 
 288      4B56
 289 017b A38EA2EA 		.ascii	"\243\216\242\352\204\260c\324 \225\215J\261\010\304"
 289      84B063D4 
 289      20958D4A 
 289      B108C4
 290 018a F17474EB 		.ascii	"\361tt\353f.\225\"\375\232\333 \222\202\367\355\202"
 290      662E9522 
 290      FD9ADB20 
 290      9282F7ED 
 290      82
 291 019b 775409B6 		.ascii	"wT\011\266U\351\367_\246\322\323J\225V\244\230w\222"
 291      55E9F75F 
 291      A6D2D34A 
 291      9556A498 
 291      7792
 292 01ad BE5CC580 		.ascii	"\276\\\305\200\\\366.U\024\267PL\301iz\343\245.+\244"
 292      5CF62E55 
 292      14B7504C 
 292      C1697AE3 
 292      A52E2BA4 
 293 01c1 E0638C39 		.ascii	"\340c\2149e\275\207\221\271\321\251k\\Y\034\321\336"
 293      65BD8791 
 293      B9D1A96B 
 293      5C591CD1 
 293      DE
 294 01d2 6F1184F2 		.ascii	"o\021\204\362D\304Sk\237J?)\001\265\250\263\216\265"
 294      44C4536B 
 294      9F4A3F29 
ARM GAS  /var/folders/c6/c789hm653lg9vtl73krp73tm0000gn/T//ccLq2oST.s 			page 23


 294      01B5A8B3 
 294      8EB5
 295 01e4 000B90FF 		.ascii	"\000\013\220\377\203\236;[\254\330x\027\315=\033\333"
 295      839E3B5B 
 295      ACD87817 
 295      CD3D1BDB 
 296 01f4 89B3AA25 		.ascii	"\211\263\252%\254\006\264W\341\240\215}\251\002\264"
 296      AC06B457 
 296      E1A08D7D 
 296      A902B4
 297 0203 806C41B0 		.ascii	"\200lA\260\002\2621\244\246}\244\244\020\244H\010R\322"
 297      02B231A4 
 297      A67DA4A4 
 297      10A44808 
 297      52D2
 298 0215 DE22355F 		.ascii	"\336\"5_\005Rc_w\025\251\031\037\251z{\277\001\244\032"
 298      0552635F 
 298      7715A919 
 298      1FA97A7B 
 298      BF01A41A 
 299 0229 429022CC 		.ascii	"B\220\"\314y3R\015[ \305\303\252\264\247H\275\333\346"
 299      7933520D 
 299      5B20C5C3 
 299      AAB4A748 
 299      BDDBE6
 300 023c BBEBDBAE 		.ascii	"\273\353\333\256!\365\322G*\032\202\024\037\202Tto\221"
 300      21F5D247 
 300      2A1A8214 
 300      1F825474 
 300      6F91
 301 024e FA54CDB7 		.ascii	"\372T\315\267\324\367]Ej\305G\252\311\336o\000\251\346"
 301      D4F75D45 
 301      6AC547AA 
 301      C9DE6F00 
 301      A9E6
 302 0260 10A438E6 		.ascii	"\020\2448\346\274\031\251\346-\220\022\340\003\317\025"
 302      BC19A9E6 
 302      2D9012E0 
 302      03CF15
 303 026f 6134E238 		.ascii	"a4\3428\001x!%\225)N\233\216ueo\321\376\361\374H\377"
 303      01782125 
 303      95294E9B 
 303      8E75656F 
 303      D1FEF1FC 
 304 0285 33F8313A 		.ascii	"3\3701:\351\351\323YV\374\376DBv\336Y\315\314\312F\326"
 304      E9E9D359 
 304      56FCFE44 
 304      4276DE59 
 304      CDCCCA46 
 305 029a 1ECD4133 		.ascii	"\036\315A3\241\202hhf\256'{\324s\311\230\314\241/cd"
 305      A1826868 
 305      66AE277B 
 305      D473C998 
 305      CCA12F63 
 306 02af 4DF9647B 		.ascii	"M\371d{\26259 \253)5ch\347\372\217\247\023)\020\372"
 306      B2353920 
 306      AB293563 
ARM GAS  /var/folders/c6/c789hm653lg9vtl73krp73tm0000gn/T//ccLq2oST.s 			page 24


 306      68E7FA8F 
 306      A7132910 
 307 02c4 959E9CD6 		.ascii	"\225\236\234\326\022\364\327\006\262rk\262\343t\207"
 307      12F4D706 
 307      B2726BB2 
 307      E37487
 308 02d3 ACF7AA3D 		.ascii	"\254\367\252=\271\013\232l\373\253\351S\271^\225>rp"
 308      B90B9A6C 
 308      FBABE953 
 308      B95E953E 
 308      7270
 309 02e5 4370CF2B 		.ascii	"Cp\317+\305jHAc\262\243=~^1\265>Co\211\0379\006\304"
 309      C56A4841 
 309      63B2A33D 
 309      7E5E31B5 
 309      3E436F89 
 310 02fd 809AB496 		.ascii	"\200\232\264\226\316\030\203\360\037X^\003\201"
 310      CE1883F0 
 310      1F585E03 
 310      81
 311              		.text
 312              		.section	.gnu.lto_.symbol_nodes.ef1c8b5fbbec5510,"",%progbits
 313 0000 789C4DCB 		.ascii	"x\234M\313MN\002A\020\206\341\357\253\232F\234A\344"
 313      4D4E0241 
 313      1086E1EF 
 313      AB9A469C 
 313      41E4
 314 0012 069EC4C3 		.ascii	"\006\236\304\303p\0156E2\211\321\235\0336\376\254\330"
 314      700D3645 
 314      3289D19D 
 314      1B36FEAC 
 314      D8
 315 0023 7B069349 		.ascii	"{\006\223IXH2[\2660\343\277\250D\335b\234N#Mo\336<U"
 315      5848325B 
 315      B630E3BF 
 315      A844DD62 
 315      9C4E234D 
 316 003b D502C180 		.ascii	"\325\002\301\200\010O\236i\304y\011\230]\235\365\345"
 316      084F9E69 
 316      C4790998 
 316      5D9DF5E5 
 317 004b 81861DDE 		.ascii	"\201\206\035\336\320d\303\353\323\276<\322tg;\022K\266"
 317      D064C3EB 
 317      D3BE3CD2 
 317      74673B12 
 317      4BB6
 318 005d 5BCA2BCD 		.ascii	"[\312+\315\305\255[\022\316\340\236H\237\027\212\317"
 318      C5AD5B12 
 318      CEE09E48 
 318      9F178ACF 
 319 006d 1BB5093F 		.ascii	"\033\265\011?h\255p:\034\222\357\264\275\250/Z;\352"
 319      68AD703A 
 319      1C92EFB4 
 319      BDA82F5A 
 319      3BEA
 320 007f 9BB61FB5 		.ascii	"\233\266\037\265\242\245Q\237\264,\352\207\326\331J"
 320      A2A5519F 
ARM GAS  /var/folders/c6/c789hm653lg9vtl73krp73tm0000gn/T//ccLq2oST.s 			page 25


 320      B42CEA87 
 320      D6D94A
 321 008e 99A158FC 		.ascii	"\231\241X\3746M\221\237,\217T\016P\254\357\251\322A"
 321      364D919F 
 321      2C8F540E 
 321      50ACEFA9 
 321      D241
 322 00a0 EDE79A21 		.ascii	"\355\347\232!\237\373\246(\346\301\343Ep\330\013\252"
 322      9FFBA628 
 322      E6C1E345 
 322      70D80BAA 
 323 00b0 8BE69F1E 		.ascii	"\213\346\237\036\242\270\364\355\242\256n\327\252I7"
 323      A2B8F4ED 
 323      A2AE6ED7 
 323      AA4937
 324 00bf 1C24BDF0 		.ascii	"\034$\275\360\321\375w3o\\O&-\357\374\316\267\207|:"
 324      D1FD7733 
 324      6F5C4F26 
 324      2DEFFCCE 
 324      B7877C3A 
 325 00d3 13EF71E9 		.ascii	"\023\357q\351\233\240*\217\361\007\230?w\261"
 325      9BA02A8F 
 325      F107983F 
 325      77B1
 326              		.text
 327              		.section	.gnu.lto_.refs.ef1c8b5fbbec5510,"",%progbits
 328 0000 789C25C1 		.ascii	"x\234%\301\301\021\000 \010\003\301\3442\012\224@\377"
 328      C1110020 
 328      0803C1E4 
 328      320A9440 
 328      FF
 329 0011 8DFA7017 		.ascii	"\215\372p\027\241\325\347\340\\\212f\\\304\215<\034"
 329      A1D5E7E0 
 329      5C8A665C 
 329      C48D3C1C 
 330 0021 3D085100 		.ascii	"=\010Q\000u"
 330      75
 331              		.text
 332              		.section	.gnu.lto_.decls.ef1c8b5fbbec5510,"",%progbits
 333 0000 789CB559 		.ascii	"x\234\265Y}t\024\325\025\177o6\037\273d\301\210\212"
 333      7D7414D5 
 333      157F6F36 
 333      1FBB64C1 
 333      888A
 334 0012 69B1125B 		.ascii	"i\261\022[\255\247V\263\210zj\377Q\020?H\225\326\022"
 334      ADA756B3 
 334      887A6AFF 
 334      51103F48 
 334      95D612
 335 0025 E9A1B5E7 		.ascii	"\351\241\265\347l\207\335\201]\335\354\306\335I\024"
 335      6C87DD81 
 335      5DDDECC6 
 335      DD4914
 336 0034 B58747F8 		.ascii	"\265\207G\370F<\304@$\001\202\001\015\342\201#\030\254"
 336      463CC440 
 336      24018201 
 336      0DE28123 
ARM GAS  /var/folders/c6/c789hm653lg9vtl73krp73tm0000gn/T//ccLq2oST.s 			page 26


 336      18AC
 337 0046 C420B860 		.ascii	"\304 \270`\301(\366\010X@\212@\032\012\265\245`@>\005"
 337      C128F608 
 337      58408A40 
 337      1A0AB5A5 
 337      60403E05 
 338 005a 93DE37F3 		.ascii	"\223\3367\363fw\346\355\233\375\2406'w\347\315\314\273"
 338      6677E6ED 
 338      9BFDA036 
 338      2777E7CD 
 338      CCBB
 339 006c 5FBF7BDF 		.ascii	"_\277{\337\235;\363$$\241\347\035\010\365\301\337\362"
 339      9D3BF324 
 339      24A1E71D 
 339      08F5C1DF 
 339      F2
 340 007d 9B115A9E 		.ascii	"\233\021Z\236\217P!B\350\036\240< 8E\313\200V\001\335"
 340      8F502142 
 340      E81EA03C 
 340      203845CB 
 340      805601DD 
 341 0091 8BF4BFFE 		.ascii	"\213\364\277\376@o\002\255\003Z\017\264\037\350 P7\320"
 341      406F02AD 
 341      035A0FB4 
 341      1FE82050 
 341      37D0
 342 00a3 11A0FF00 		.ascii	"\021\240\377\000}\005t\022\350\014\320\267@\0303yp,"
 342      7D057412 
 342      E80CD0B7 
 342      40183379 
 342      702C
 343 00b5 05FA29D0 		.ascii	"\005\372)\320]\030Y\376\3261}\255@\003\200\334\324\016"
 343      5D1859FE 
 343      D6317DAD 
 343      400380DC 
 343      D40E
 344 00c7 98339CCD 		.ascii	"\2303\234\315\353\307\346\334\007\347\017\000\215\002"
 344      EBC7E6DC 
 344      07E70F00 
 344      8D02
 345 00d5 FA35D058 		.ascii	"\3725\320X\240q@\217\003y\201\306sr\021\263\227\362"
 345      A071408F 
 345      037981C6 
 345      737211B3 
 345      97F2
 346 00e7 7F6992DD 		.ascii	"\177i\222\335j\222\257\000\035\207\363\011p<\212\222"
 346      6A92AF00 
 346      1D87F309 
 346      703C8A92 
 347 00f7 FA28DF44 		.ascii	"\372(\337D\270\366\004P%\323Y\005\024\003\252\301\272"
 347      B8F60450 
 347      25D35905 
 347      1403AAC1 
 347      BA
 348 0108 AF4752D5 		.ascii	"\257GR\325i\270\270\030n\035&\235\235@\223\200\357\024"
 348      69B8B818 
 348      6E1D269D 
ARM GAS  /var/folders/c6/c789hm653lg9vtl73krp73tm0000gn/T//ccLq2oST.s 			page 27


 348      9D409380 
 348      EF14
 349 011a 1C9F8563 		.ascii	"\034\237\205c;\233\237\307x\236\303:n\024\277\002\240"
 349      3B9B9FC7 
 349      789EC33A 
 349      6E14BF02 
 349      A0
 350 012b 5D407F05 		.ascii	"]@\177\005\332\003\3649\320d\270O8\377(\376\2039\337"
 350      DA03F439 
 350      D064B84F 
 350      38FF28FE 
 350      8339DF
 351 013e 36009D63 		.ascii	"6\000\235c\372y\337\314~O\301z\274;\230mS\261\036\357"
 351      FA79DFCC 
 351      7E4FC17A 
 351      BC3B986D 
 351      53B11EEF 
 352 0152 7B4DF64D 		.ascii	"{M\366M\203c/\034\247c=>g\231\336\253\231n\003\203\031"
 352      83632F1C 
 352      A7633D3E 
 352      6799DEAB 
 352      996E0383 
 353 0167 268C6633 		.ascii	"&\214f3|\346\002\315\003\252\007Z\010\264\010\353\230"
 353      7CE602CD 
 353      03AA075A 
 353      08B408EB 
 353      98
 354 0178 2EC5BABF 		.ascii	".\305\272\27747Za\274\012\353\271\002\251\210\326\300"
 354      34375A61 
 354      BC0AEBB9 
 354      02A988D6 
 354      C0
 355 0189 78ADC04F 		.ascii	"x\255\300O\232cE\314/Q\014\337b\366IX\267\325\260\323"
 355      9A6345CC 
 355      2F510CDF 
 355      62F64958 
 355      B7D5B0D3 
 356 019d C978CDF6 		.ascii	"\311x\315\366a\223\215g\004\361\243\271\334?G]mp<\304"
 356      61938D67 
 356      04F1A3B9 
 356      DC3F475D 
 356      6D703CC4 
 357 01b1 F85D4C46 		.ascii	"\370]LF:\235\007\005z]h\026!\265\244e\006\031\3259\200"
 357      3A9D0705 
 357      7A5D6816 
 357      21B5A465 
 357      0619D539 
 358 01c6 A6B58C07 		.ascii	"\246\265\214\007\270P\2516p\273\2644\271\011\275FH]"
 358      B850A936 
 358      70BBB434 
 358      B909BD46 
 358      485D
 359 01d8 D79145D7 		.ascii	"\327\221E\327\220<\031/\303.X\3027ct\013z\203\300uB"
 359      903C192F 
 359      C32E58C2 
 359      3763740B 
 359      7A83C075 
ARM GAS  /var/folders/c6/c789hm653lg9vtl73krp73tm0000gn/T//ccLq2oST.s 			page 28


 360 01ed 967FFF7F 		.ascii	"\226\177\377\177\222{\362\215\271\267\022\342\224q\253"
 360      927BF28D 
 360      B9B712E2 
 360      9471AB
 361 01fc 26793A58 		.ascii	"&y:X-\343\327\360-9\013\3328\347\275\237k\202Vj\202"
 361      2DE3D7F0 
 361      2D390BDA 
 361      38E7BD9F 
 361      6B82566A 
 362 0211 8E718264 		.ascii	"\216q\202d\\\3502[\250\235\033\023\2504\3556\033\320"
 362      5CE8325B 
 362      A89D1B13 
 362      A834ED36 
 362      1BD0
 363 0223 F27405FA 		.ascii	"\362t\005\372?O/Bs\222\256\015B\015\000'=!X\225\361"
 363      3F4F2F42 
 363      7392AE0D 
 363      420D0027 
 363      3D215895 
 364 0238 3DD7085D 		.ascii	"=\327\010]\245\202W\343A\332\310\001Nj\027\356-\202"
 364      A58257E3 
 364      41DAC801 
 364      4E6A17EE 
 364      2D82
 365 024a 9FB18E84 		.ascii	"\237\261\216\204n;\306U\270\310\214\310\020\264\224"
 365      6E3BC655 
 365      B8C88CC8 
 365      10B494
 366 0259 C47BBA0E 		.ascii	"\304{\272\016|\372\316\017\232H|\032\351\353\233\314"
 366      7CFACE0F 
 366      9A487C1A 
 366      E9EB9BCC 
 367 0269 A44BA85E 		.ascii	"\244K\250^\262\202w#z\225\220zr\322?JS'\241\205\332"
 367      B2827723 
 367      7A95907A 
 367      72D23F4A 
 367      5327A185 
 368 027e 8437F110 		.ascii	"\2047\361\020\2416m\022\374\375\030\265R\2476\220GK"
 368      A1366D12 
 368      FCFD18B5 
 368      52A73690 
 368      474B
 369 0290 349710E3 		.ascii	"4\227\020\343\261\000\265\006K\346\013\272Y\361=\037"
 369      B100B506 
 369      4BE60BBA 
 369      59F13D1F 
 370 02a0 BAEBA674 		.ascii	"\272\353\246t\365\365\015\311\036\230\267\0310I0$\324"
 370      F5F50DC9 
 370      1E98B719 
 370      30493024 
 370      D4
 371 02b1 C43992B0 		.ascii	"\3049\222\260\211\254$\216\204M\353x\233\376$\262\251"
 371      89AC248E 
 371      844DEB78 
 371      9BFE24B2 
 371      A9
 372 02c2 AB79FED1 		.ascii	"\253y\376\321m\270~*\351$=\020@\342\314\336\264vk\314"
ARM GAS  /var/folders/c6/c789hm653lg9vtl73krp73tm0000gn/T//ccLq2oST.s 			page 29


 372      6DB87E2A 
 372      E9243D10 
 372      40E2CCDE 
 372      B4766BCC 
 373 02d6 2C911F88 		.ascii	",\221\037\210^\242RJM\351\335\202\015\001\264\346\261"
 373      5EA2524A 
 373      4DE9DD82 
 373      0D01B4E6 
 373      B1
 374 02e7 FC6E3DD5 		.ascii	"\374n=\325\231\247\345\367\006<\020\304l\345<\313(F"
 374      99A7E5F7 
 374      063C10C4 
 374      6CE53CCB 
 374      2846
 375 02f9 42BB3596 		.ascii	"B\2735\226M\300\2563j\202IW\363\336\343\323\361\024"
 375      4DC0AE33 
 375      6A824957 
 375      F3DEE3D3 
 375      F114
 376 030b F041BF87 		.ascii	"\360A\277\2078\300L\1777\240\026\260;\376\356\302\346"
 376      38C04C7F 
 376      37A016B0 
 376      3BFEEEC2 
 376      E6
 377 031c EF91962D 		.ascii	"\357\221\226-0\277\003\323d\230\3510\344\212\374gCK"
 377      30BF03D3 
 377      6498E930 
 377      E48AFC67 
 377      434B
 378 032e 6E5AE575 		.ascii	"nZ\345u\354u\327\311\206\260y9\013+\265\010\333\270"
 378      EC75D7C9 
 378      86B07939 
 378      0B2BB508 
 378      DBB8
 379 0340 7709334E 		.ascii	"w\0113N/U\013\263\221\347\2647n\0235\316\0220}\221\244"
 379      2F550BB3 
 379      91E7B437 
 379      6E1335CE 
 379      12307D91 
 380 0355 A944D3BF 		.ascii	"\251D\323\277\212KZ\244:5\217Z\034|%\242+\321\222o\334"
 380      8A4B5AA4 
 380      3A358F5A 
 380      1C7C25A2 
 380      2BD1926F 
 381 036a D294D01B 		.ascii	"\322\224\320\0339[mA\001bz\272\025\317\207T\035\312"
 381      395B6D41 
 381      01627ABA 
 381      15CF8754 
 381      1DCA
 382 037c 16EC5BD9 		.ascii	"\026\354[\331\010,\026\300 \3723'\221\214\343\370&\370"
 382      082C16C0 
 382      20FA3327 
 382      918CE3F8 
 382      26F8
 383 038e DD8C6F80 		.ascii	"\335\214o\200\337\017\264\337\255\332\357\207\332\357"
 383      DF0FB4DF 
 383      ADDAEF87 
ARM GAS  /var/folders/c6/c789hm653lg9vtl73krp73tm0000gn/T//ccLq2oST.s 			page 30


 383      DAEF
 384 039c 27F09BF8 		.ascii	"'\360\233\370\263[\037\035I@\022e\215\206\317|\336\251"
 384      B35B1F1D 
 384      49401265 
 384      8D86CF7C 
 384      DEA9
 385 03ae CF31973D 		.ascii	"\3171\227=d^\354\032n\355\016Q\341\242+\367(n\230JF"
 385      645EEC1A 
 385      6EED0E51 
 385      E1A22BF7 
 385      286E984A 
 386 03c3 1959B659 		.ascii	"\031Y\266Y\233\267\336\266~i\006\261\252wQ\031e$\323"
 386      9BB7DEB6 
 386      7E6906B1 
 386      AA775119 
 386      6524D3
 387 03d6 D60C6C9A 		.ascii	"\326\014l\232\315:[|\361\342\327!\021%#\013\266g`\355"
 387      CD3A5B7C 
 387      F1E2D721 
 387      1125230B 
 387      B66760ED 
 388 03ea 3469DCA7 		.ascii	"4i\334\247\030uvW\006.s\235\2157-\0364\347\017\211\242"
 388      18757657 
 388      062E739D 
 388      8D372D1E 
 388      34E70F89 
 389 03ff B69E2F6A 		.ascii	"\266\236/j;\205E\355\300\247\333v\342\227\214\242\306"
 389      3B8545ED 
 389      C0A7DB76 
 389      E2978CA2 
 389      C6
 390 0410 CAA884F6 		.ascii	"\312\250\204\3668\262)\234\373y\035_\010\213\371\333"
 390      38B2299C 
 390      FB791D5F 
 390      088BF9DB 
 391 0420 1FCF75E6 		.ascii	"\037\317u\346Z\315\017\011\252\371a\261QuV\243\016\362"
 391      5ACD0F09 
 391      AAF961B1 
 391      517556A3 
 391      0EF2
 392 0432 4675898C 		.ascii	"Fu\211\214\"m\204\270\340\241\327G$\303\347sY\371\334"
 392      226D84B8 
 392      E0A1D747 
 392      24C3E773 
 392      59F9DC
 393 0445 CD8B3F9C 		.ascii	"\315\213?\234*\276\253\256\253\251{\307\303\215md\332"
 393      2ABEABAE 
 393      ABA97BC7 
 393      C38D6D64 
 393      DA
 394 0456 6CD2DB37 		.ascii	"l\322\3337\031g\357\367Q\353\243\"\373\376\247\351\360"
 394      1967EFF7 
 394      51EBA322 
 394      FBFEA7E9 
 394      F0
 395 0467 F9928D84 		.ascii	"\371\222\215\204\024\313\370K-W\367\345\361e\247\025"
 395      14CBF84B 
ARM GAS  /var/folders/c6/c789hm653lg9vtl73krp73tm0000gn/T//ccLq2oST.s 			page 31


 395      2D57F7E5 
 395      F165A715 
 396 0477 E7DC0171 		.ascii	"\347\334\001q\313\253;\217GH\027t\314\006\202\316\207"
 396      CBAB3B8F 
 396      47481774 
 396      CC0682CE 
 396      87
 397 0488 97D84140 		.ascii	"\227\330A@\215\264\303\340\270 \366gmT\237\020\252n"
 397      8DB4C3E0 
 397      B820F667 
 397      6D549F10 
 397      AA6E
 398 049a 9EDF5B0B 		.ascii	"\236\337[\013Y\335\222\310\352v-\302/\346\213\205\364"
 398      59DD92C8 
 398      EA762DC2 
 398      2FE68B85 
 398      F4
 399 04ab 8884C42F 		.ascii	"\210\204\304/m\237Kp\256y{\212o\317:p\021\017c\243\215"
 399      6D9F4B70 
 399      AE797B8A 
 399      6FCF3A70 
 399      110F63A3 
 400 04c0 19A785BE 		.ascii	"\031\247\205\276,:\266cp\023\331\242wh\026C\234h&M\216"
 400      2C3AB663 
 400      7013D9A2 
 400      77681643 
 400      9C68264D 
 401 04d5 AEE9640A 		.ascii	"\256\351d\012~*\221\034N\303$\372>\243?\343a\205@\226"
 401      7E2A911C 
 401      4EC324FA 
 401      3EA33FE3 
 401      61854096 
 402 04e9 9FC34E50 		.ascii	"\237\303NP\276)_\360\276\252\353\247\023\350\037\345"
 402      BE295FF0 
 402      BEAAEBA7 
 402      13E81FE5 
 403 04f9 D7C7C608 		.ascii	"\327\307\306\010\333\327\356\263\274\303\371\256\344"
 403      DBD7EEB3 
 403      BCC3F9AE 
 403      E4
 404 0506 9849E4FC 		.ascii	"\230I\344\374\377\263\215\377\227\204\376\357:\321s"
 404      FFB38DFF 
 404      9784FEEF 
 404      3AD173
 405 0515 8BD8FFB4 		.ascii	"\213\330\377\264\201\350\345\355\242\305\2313\344\214"
 405      81E8E5ED 
 405      A2C59933 
 405      E48C
 406 0523 8D214412 		.ascii	"\215!D\022\031\322\330}\376\027v\206PG\355,\251\225"
 406      19D2D87D 
 406      FE177686 
 406      5047ED2C 
 406      A995
 407 0535 5211E20C 		.ascii	"R\021\342\014!\005bC\246Y\015\371!ZF\326\306\273\016"
 407      21056243 
 407      A6590DF9 
 407      215A46D6 
ARM GAS  /var/folders/c6/c789hm653lg9vtl73krp73tm0000gn/T//ccLq2oST.s 			page 32


 407      C6BB0E
 408 0548 CC3BB10B 		.ascii	"\314;\261\013/ P\263I\274\257\017\017\271\022\325\261"
 408      2F2050B3 
 408      49BCAF0F 
 408      0FB912D5 
 408      B1
 409 0559 DE2FD1A8 		.ascii	"\336/\321\250\304\223\235%4\004\330T;H\242+,\326T7\200"
 409      C4939D25 
 409      3404D854 
 409      3B48A22B 
 409      2CD65437 
 410 056e 6A41F368 		.ascii	"jA\363h\235&\343\331`\211\214\347H\\\363\270\370\330"
 410      9D26E3D9 
 410      60898CE7 
 410      485CF3B8 
 410      F8D8
 411 0580 E73359F3 		.ascii	"\3473Y\363H\357en\036/|\333\211I\275\333\322Q\261\""
 411      48EF656E 
 411      1E2F7CDB 
 411      8949BDDB 
 411      D251B122 
 412 0594 D7D51A2F 		.ascii	"\327\325\032/i\034\220)\217\023\223II\211x\256\214\347"
 412      691C9029 
 412      8F139349 
 412      498978AE 
 412      8CE7
 413 05a6 49B425A9 		.ascii	"I\264%\251\223\364zGo\351cc\324\207\251\347K\013lWB"
 413      93F47A47 
 413      6FE96363 
 413      D487A9E7 
 413      4B0B6C57 
 414 05bb 7A56BB40 		.ascii	"zV\273@\277(%\332\030\011\275\252\205\224\202ry]\361"
 414      BF2825DA 
 414      1809BDAA 
 414      85948272 
 414      795DF1
 415 05ce C57FA502 		.ascii	"\305\177\245\002\245?\251\354\324/0\253_\231\263\372"
 415      A53FA9EC 
 415      D42F30AB 
 415      5F99B3FA 
 416 05de 528BFA4B 		.ascii	"R\213\372K\012\355\035\251H\011\275\231\215\2544=t\257"
 416      0AED1DA9 
 416      4809BD99 
 416      8DAC343D 
 416      74AF
 417 05f0 49D6FA9C 		.ascii	"I\326\372\234e\225\246DG\3170\031\317\225h\2079_\373"
 417      6595A644 
 417      47CF3019 
 417      CF956887 
 417      395FFB
 418 0603 7D59FB6D 		.ascii	"}Y\373m\2242v\233\034\240\263l,\241\362\027IE\234n\341"
 418      9432769B 
 418      1CA0B36C 
 418      2CA1F217 
 418      49459C6E 
 419 0618 E24028B9 		.ascii	"\342@(\271\000u&\233i2^,]\251\215\264$&\011#\334\366"
 419      0075269B 
ARM GAS  /var/folders/c6/c789hm653lg9vtl73krp73tm0000gn/T//ccLq2oST.s 			page 33


 419      69325E2C 
 419      5DA98DB4 
 419      24260923 
 420 062e CFC225A6 		.ascii	"\317\302%\246Lt\273\222\003\207\311\252\344,\000\370"
 420      4C74BB92 
 420      0387C9AA 
 420      E42C00F8 
 421 063e FD4429B1 		.ascii	"\375D)\261\265\242\231U\225;\321:2+>\\\3063\300\254"
 421      B5A29955 
 421      953BD13A 
 421      322B3E5C 
 421      C633C0AC 
 422 0652 44E49E43 		.ascii	"D\344\236C\337\220F\002\215\341\211a\2727\264\352\364"
 422      DF904602 
 422      8DE18961 
 422      BA37B4EA 
 422      F4
 423 0663 EC882F9E 		.ascii	"\354\210/\236\331\214IK-\201\247y\037\326\201\223\320"
 423      D98C494B 
 423      2D81A779 
 423      1FD68193 
 423      D0
 424 0674 C799B52D 		.ascii	"\307\231\265-\003m\327\243\317\012\232\211\323\252u"
 424      036DD7A3 
 424      CF0A9A89 
 424      D3AA75
 425 0683 96564C68 		.ascii	"\226VLh\020u\225\361\346\017\261%:\006\254\215\003\364"
 425      107595F1 
 425      E60FB125 
 425      3A06AC8D 
 425      03F4
 426 0695 B5C754B4 		.ascii	"\265\307T\264'T\\\313T\254\310\031\326\327m`\035\224"
 426      27545CCB 
 426      54ACC819 
 426      D6D76D60 
 426      1D94
 427 06a7 3677A087 		.ascii	"6w\240\207J\246\304\365\350\037\340S\343\360\244z=\027"
 427      4AA6C4F5 
 427      E81FE053 
 427      E3F0A47A 
 427      3D17
 428 06b9 2987BE14 		.ascii	")\207\276\024\365\2544\23772gg\221x[\241~\331\332E3"
 428      F5AC349F 
 428      37326767 
 428      91785BA1 
 428      7ED9DA45 
 429 06ce BDD880E4 		.ascii	"\275\330\200\344\275\"K\014\316\211bp)s\014V\363\021"
 429      BD224B0C 
 429      CE896270 
 429      29730C56 
 429      F311
 430 06e0 4FC1FE42 		.ascii	"O\301\376Bv\330w%D_\307D\257\315\031\373\267l\260\037"
 430      76D87725 
 430      445FC744 
 430      AFCD19FB 
 430      B76CB01F 
 431 06f4 9C01FB35 		.ascii	"\234\001\3735f\354\247\027\352\330\257\275\034\354{"
ARM GAS  /var/folders/c6/c789hm653lg9vtl73krp73tm0000gn/T//ccLq2oST.s 			page 34


 431      66ECA717 
 431      EAD8AFBD 
 431      1CEC7B
 432 0703 13D8AF4B 		.ascii	"\023\330\257K\305^2 \331d\305\276\341\005\001\366\313"
 432      C55E3220 
 432      D964C5BE 
 432      E10501F6 
 432      CB
 433 0714 0B3362FF 		.ascii	"\0133b\377NF\354\027n\317\012\373\272\204\350\201Lt"
 433      4E46EC17 
 433      6ECF0AFB 
 433      BA84E881 
 433      4C74
 434 0726 47CED86F 		.ascii	"G\316\330o\260\301\376\312\014\330\277k\306~\025\303"
 434      B0C1FECA 
 434      0CD8BF6B 
 434      C67E15C3 
 435 0736 BEE372B0 		.ascii	"\276\343r\260_Rd`\337\235\212\275C\033\030u\227\341"
 435      5F526460 
 435      DF9D8ABD 
 435      431B1875 
 435      97E1
 436 0748 D0329C03 		.ascii	"\3202\234\003\242\330\260Nb\3527\345\214\303\37368\030"
 436      A2D8B04E 
 436      62EA37E5 
 436      8CC3FB36 
 436      3818
 437 075a 1D814D08 		.ascii	"\035\201M\010\3566\346\02529\361\2345o\266\321\\\300"
 437      EE36E615 
 437      3239F19C 
 437      356FB6D1 
 437      5CC0
 438 076c 34B3F7F2 		.ascii	"4\263\367\362\246\356\370\270\325\360\216\252\275<M"
 438      A6EEF8B8 
 438      D5F08EAA 
 438      BD3C4D
 439 077b 99868D97 		.ascii	"\231\206\215\227\324M\205\331\274\244n\221\270\227\324"
 439      D44D85D9 
 439      BCA46E91 
 439      B897D4
 440 078a 0F523B5A 		.ascii	"\017R;ZP\362No|\262\361\361\367\006C\303\231\2544l\345"
 440      50F24E6F 
 440      7CB2F1F1 
 440      F70643C3 
 440      99AC346C 
 441 079f 356C136A 		.ascii	"5l\023jhX\276y.~i\315\014B\337\243&\277\022\257\313"
 441      6858BE79 
 441      2E7E69CD 
 441      0C42DFA3 
 441      26BF12AF 
 442 07b4 CBBE83FF 		.ascii	"\313\276\203\377\210\357\233[S;\3705N\263\261\332L\011"
 442      88EF9B5B 
 442      533BF835 
 442      4EB3B1DA 
 442      4C09
 443 07c6 6D74B230 		.ascii	"mt\2620\262\357);\267\271"
 443      B2EF293B 
ARM GAS  /var/folders/c6/c789hm653lg9vtl73krp73tm0000gn/T//ccLq2oST.s 			page 35


 443      B7B9
 444 07d0 EBB0B1C3 		.ascii	"\353\260\261\303\260]\343\350\224\354>\251\260\267d"
 444      B05DE3E8 
 444      94EC3EA9 
 444      B0B764
 445 07df E6F3D753 		.ascii	"\346\363\327SL\337\256;y\237\267\213|\216\267\355\321"
 445      4CDFAE3B 
 445      799FB78B 
 445      7C8EB7ED 
 445      D1
 446 07f0 BF5D536F 		.ascii	"\277]So\015Pw\246\332)\343\277$\331E\020\357\344\325"
 446      0D5077A6 
 446      DA29E3BF 
 446      24D94510 
 446      EFE4D5
 447 0803 ED1242DC 		.ascii	"\355\022B\334\324}~\264(S\016:\263\211\343n^\311\036"
 447      D47D7EB4 
 447      28530E3A 
 447      B389E36E 
 447      5EC91E
 448 0816 9B4CE9F9 		.ascii	"\233L\351\371cJ\246\034\313J\303\347\274\206}6\231\362"
 448      634AA61C 
 448      CB4AC3E7 
 448      BC867D36 
 448      99F2
 449 0828 F7DF5D48 		.ascii	"\367\337]H\272\221Pr\3762\220\333\317\253\374\302\016"
 449      BA915072 
 449      FE3290DB 
 449      CFABFCC2 
 449      0E
 450 0839 B9DF8A90 		.ascii	"\271\337\212\220\233\341\312\306\257C\274\222.;\344"
 450      9BE1CAC6 
 450      AF43BC92 
 450      2E3BE4
 451 0848 66253FB0 		.ascii	"f%?\260\2658\015%\365Y)\351\346\225\034\266*\341\272"
 451      B5380D25 
 451      F55929E9 
 451      E6951CB6 
 451      2AE1BA
 452 085b D9E3695E 		.ascii	"\331\343i^\017\216$K8\307u4\015\327\321$\027s\250\261"
 452      0F8E244B 
 452      38C77534 
 452      0DD7D124 
 452      1773A8B1 
 453 086f 7B472025 		.ascii	"{G %\025\226f\345\315?yo\276\264\201\254\363\271\024"
 453      159666E5 
 453      CD3F796F 
 453      BEB481AC 
 453      F3B914
 454 0882 0D6BB2D2 		.ascii	"\015k\262\322\360o^\3031\341\022=\277\337X\242\305\206"
 454      F06F5EC3 
 454      31E1123D 
 454      BFDF58A2 
 454      C586
 455 0894 FC2D59C9 		.ascii	"\374-Y\311?\316\313?!\364\240\261\273\347\211\024\017"
 455      3FCECB3F 
 455      21F4A0B1 
ARM GAS  /var/folders/c6/c789hm653lg9vtl73krp73tm0000gn/T//ccLq2oST.s 			page 36


 455      BBE78914 
 455      0F
 456 08a5 3EC94A43 		.ascii	">\311JC\017\257\341\244\015F]\317\247h8\224\225\206"
 456      0FAFE1A4 
 456      0D465DCF 
 456      A7683894 
 456      9586
 457 08b7 AF790DA7 		.ascii	"\257y\015\247\205\030\275}0\005\243\323Y\311?\313\313"
 457      8518BD7D 
 457      3005A3D3 
 457      59C93FCB 
 457      CB
 458 08c8 3F973667 		.ascii	"?\2276gO\245\311\276\013\2669\333\236\206\353\233\224"
 458      4FA5C9BE 
 458      0BB639DB 
 458      9E86EB9B 
 458      94
 459 08d9 9C5D32FF 		.ascii	"\234]2\377\\\276\011\255S\2327\244\237p\227s\2472\312"
 459      5CBE09AD 
 459      539A37A4 
 459      9F709773 
 459      A732CA
 460 08ec F86AF719 		.ascii	"\370j\367\031\246\037=.\332>+\330\276\005\003a\237y"
 460      A61F3D2E 
 460      DA3E2BD8 
 460      BE050361 
 460      9F79
 461 08fe 9FF3220F 		.ascii	"\237\363\"\017\302%+\0107\243\025\364\373\311\201OO"
 461      C2252B08 
 461      37A315F4 
 461      FBC9814F 
 461      4F
 462 090f 0F6CAA73 		.ascii	"\017l\252sZ\266@\314\023H[K\261\340\246M{Rb};\224\361"
 462      5AB640CC 
 462      13485B4B 
 462      B1E0A64D 
 462      7B52627D 
 463 0926 1447AEED 		.ascii	"\024G\256\355I\255C\334\236\030\306sa\240\333\026v\242"
 463      49AD43DC 
 463      9E18C673 
 463      61A0DB16 
 463      76A2
 464 0938 A63AEC82 		.ascii	"\246:\354\202\327\233&x\323l\271\316\246\341\232\356"
 464      D79B2678 
 464      D36CB9CE 
 464      A6E19AEE 
 465 0948 E043DED4 		.ascii	"\340C\336\324\275\343qQq\177\241_69<\303\301\205o\246"
 465      BDE37151 
 465      717FA15F 
 465      36393CC3 
 465      C1856FA6 
 466 095c 43B44696 		.ascii	"C\264F\226\354MY#\015Y\311\237\315\313\237#\224\337"
 466      EC4D5923 
 466      0D59C99F 
 466      CDCB9F23 
 466      94DF
 467 096e 985AA796 		.ascii	"\230Z\247\226e%\177./\377E\221\374\256\365\275=\301"
ARM GAS  /var/folders/c6/c789hm653lg9vtl73krp73tm0000gn/T//ccLq2oST.s 			page 37


 467      65257F2E 
 467      2FFF4591 
 467      FCAEF5BD 
 467      3DC1
 468 0980 760B48C7 		.ascii	"v\013H\3075%\355b%\265\244m%q\351\037\357\265\357l\016"
 468      3525ED62 
 468      25B5A46D 
 468      2571E91F 
 468      EFB5EF6C 
 469 0995 F1CA603A 		.ascii	"\361\312`:\353\204:\033\226\1774\007\357L\323\022\266"
 469      EB843A1B 
 469      967F3407 
 469      EF4CD312 
 469      B6
 470 09a6 A6D91A98 		.ascii	"\246\331\032\230\357H\335\032\370\244_\026\035\202a"
 470      EF48DD1A 
 470      F8A45F16 
 470      1D8261
 471 09b5 7A2B33BD 		.ascii	"z+3\275>\275\351\013\204\246CN\205E9\365\267\254b\262"
 471      3EBDE90B 
 471      84A6434E 
 471      854539F5 
 471      B7AC62B2 
 472 09c9 908F49A3 		.ascii	"\220\217I\243@\311\016\250U\273\035)\265\352kq\255\332"
 472      40C90EA8 
 472      55BB1D29 
 472      B5EA6B71 
 472      ADDA
 473 09db C7D7AA45 		.ascii	"\307\327\252E6n\245\255U\213x\303\026\013\223\261\336"
 473      366EA5AD 
 473      558B78C3 
 473      160B93B1 
 473      DE
 474 09ec FC40D037 		.ascii	"\374@\3207Tj\213\204fm\340\315Z\232\336,\306v\301\330"
 474      546A8B84 
 474      666DE0CD 
 474      5A9ADE2C 
 474      C676C1D8 
 475 0a00 6985B634 		.ascii	"i\205\2664\003\233y\247\265\341\340\212\344N\253\214"
 475      039B79A7 
 475      B5E1E08A 
 475      E44EAB8C 
 476 0a10 F7666035 		.ascii	"\367f`5\357\264\356e;\255\320\224f\340\262\354\264\316"
 476      EFB4EE65 
 476      3BADD094 
 476      66E0B2EC 
 476      B4CE
 477 0a22 5F6ADE69 		.ascii	"_j\336i]\312\303\367\212\020\276\005\311Z\221\303\346"
 477      5DCAC3F7 
 477      8A10BE05 
 477      C95A91C3 
 477      E6
 478 0a33 C10A47E6 		.ascii	"\301\012G\346\375\2449\342(|\306G\2415\253\344\250%"
 478      FDA439E2 
 478      287CC647 
 478      A135ABE4 
 478      A825
ARM GAS  /var/folders/c6/c789hm653lg9vtl73krp73tm0000gn/T//ccLq2oST.s 			page 38


 479 0a45 FBBEA0C9 		.ascii	"\373\276\240\311\241\357\335X\270,\237\331\231\201+"
 479      A1EFDD58 
 479      B82C9FD9 
 479      99812B
 480 0a54 45491CDF 		.ascii	"EI\034\337\265\307\224+\324\007\011\275,\266r7o\345"
 480      B5C7942B 
 480      D40709BD 
 480      2CB67237 
 480      6FE5
 481 0a66 AACBB272 		.ascii	"\252\313\262rUz+W;\276\303\247/\367\\\242\373;\266\337"
 481      557A2B57 
 481      3BBEC3A7 
 481      2FF75CA2 
 481      FB3BB6DF 
 482 0a7a BA6C9F66 		.ascii	"\272l\237f\207\322<\315\332\222\\\350\306\2622\217\376"
 482      87D23CCD 
 482      DA925CE8 
 482      C6B2328F 
 482      FE
 483 0a8b 1F8979A2 		.ascii	"\037\211y\242\252'\030\366\205\252\375\212\307\027\210"
 483      AA2718F6 
 483      85AAFD8A 
 483      C71788
 484 0a9a 4D8AA993 		.ascii	"M\212\251\223\252\224XY\000\271\3508X\251x\325\202\207"
 484      AA945859 
 484      00B9E838 
 484      58A978D5 
 484      8287
 485 0aac 7E39B674 		.ascii	"~9\266t$z\304S\035\213zB\021\237\034\362\214TB!9\352"
 485      247AC453 
 485      1D8B7A42 
 485      119F1CF2 
 485      8C544221 
 486 0ac2 99E8F3DD 		.ascii	"\231\350\363\335&G+o\013G\302\312m\212<>\350\0316\364"
 486      26472B6F 
 486      0B47C2CA 
 486      6D8A3C3E 
 486      E81936F4 
 487 0ad6 F63B87DE 		.ascii	"\366;\207\336=\364.\217\365\262\241!\246\372\203a\025"
 487      3DF42E8F 
 487      F5B2A121 
 487      A6FA8361 
 487      15
 488 0ae7 A43BABE1 		.ascii	"\244;\253\341x\3070\257\372\373\357@j\245\354\013\004"
 488      78C730AF 
 488      FAFBEF40 
 488      6AA5EC0B 
 488      04
 489 0af8 C38AC7EB 		.ascii	"\303\212\307\353W&\310\325!\325k\370\320\317\3535\364"
 489      5726C8D5 
 489      21D56BF8 
 489      D0CFEB35 
 489      F4
 490 0b09 0C4EF8AC 		.ascii	"\014N\370\254*1\225zM\217\340c\231\017\345\325\250\276"
 490      2A31957A 
 490      4D8FE063 
 490      990FE5D5 
ARM GAS  /var/folders/c6/c789hm653lg9vtl73krp73tm0000gn/T//ccLq2oST.s 			page 39


 490      A8BE
 491 0b1b F1B8CA0D 		.ascii	"\361\270\312\015g\303\274\3123\212\257ZU\256\267\305"
 491      67C3BCCA 
 491      338AAF5A 
 491      55AEB7C5 
 492 0b2b A886DA7F 		.ascii	"\250\206\332\177EM0\252V\313!/\205(\352U\213}\001\257"
 492      454D30AA 
 492      56CB212F 
 492      8528EA55 
 492      8B7D01AF 
 493 0b3f E552A93D 		.ascii	"\345R\251=\306\276\200\037$\024\326\250\336\260\362"
 493      C6BE801F 
 493      2414D6A8 
 493      DEB0F2
 494 0b4e 8C4A8F55 		.ascii	"\214J\217UQ\245\306\011G\277\022Re\030L\250\016\373"
 494      51A5C609 
 494      47BF1252 
 494      65184CA8 
 494      0EFB
 495 0b60 BCDA1D3A 		.ascii	"\274\332\035:*\2403\344\250\323\027\370\315c\025\212"
 495      2AA033E4 
 495      A8D317F8 
 495      CD63158A 
 496 0b70 5AEEA851 		.ascii	"Z\356\250Q\253\362a\252<\251@\237\352\200\273\324\370"
 496      ABF261AA 
 496      3CA9409F 
 496      EA80BBD4 
 496      F8
 497 0b81 DB0DE3AF 		.ascii	"\333\015\343\257\202\223;\214\2232\270\253\226\015s"
 497      82933B8C 
 497      9332B8AB 
 497      960D73
 498 0b90 9BAF0D49 		.ascii	"\233\257\015I\227\001`\334\235\334\375\252HT\215yF\214"
 498      970160DC 
 498      9DDCFDAA 
 498      48548D79 
 498      468C
 499 0ba2 193D72F4 		.ascii	"\031=r\3643\036_\244\262*\030R\2421\317C#G\002\213\201"
 499      331E5FA4 
 499      B22A1852 
 499      A231CF43 
 499      2347028B 
 500 0bb7 B6137801 		.ascii	"\266\023x\001R\257z\225/P1)6\006\360\215D\225\012UV"
 500      52AF7A95 
 500      2F503129 
 500      3606F08D 
 500      44950A55 
 501 0bcc AB63E306 		.ascii	"\253c\343\006i\327\036RT\375|D\330\377H\304\367\344"
 501      69D71E52 
 501      54FD7C44 
 501      D8FF48C4 
 501      F7E4
 502 0bde B87ED4A9 		.ascii	"\270~\324\251\373#\324-\267>\00468)\021\206\013\224"
 502      FB23D42D 
 502      B73E0436 
 502      38291186 
 502      0B94
ARM GAS  /var/folders/c6/c789hm653lg9vtl73krp73tm0000gn/T//ccLq2oST.s 			page 40


 503 0bf0 E47BEF8B 		.ascii	"\344{\357\213DBn/=\365\312\261\230\022U\177d\353\214"
 503      44426E2F 
 503      3DF5CAB1 
 503      9812557F 
 503      64EB8C
 504 0c03 1A882AB2 		.ascii	"\032\210*\262_\313\004_\340\261\200\277\"\244(UWk\226"
 504      5FCB045F 
 504      E0B180BF 
 504      22A42855 
 504      576B96
 505 0c16 94875565 		.ascii	"\224\207Ueb4\250N\032\031P|O\226;\251<\237\034S\362"
 505      6234A84E 
 505      1A19507C 
 505      4F963BA9 
 505      3C9F1C53 
 506 0c2b 7C01399A 		.ascii	"|\0019\232\027\226+\225|\260\243\272\012n\310Q\177\344"
 506      17962B95 
 506      7CB0A3BA 
 506      0A6EC851 
 506      7FE4
 507 0c3d E9702183 		.ascii	"\351p!\203\256_\225\254\252J4\014\316:Y\012\335^\\\026"
 507      AE5F95AC 
 507      AA4A340C 
 507      CE3A590A 
 507      DD5E5C16 
 508 0c51 8DF86555 		.ascii	"\215\370eU.3.\\\013\032T\245\362\326R\037\250\010Bn"
 508      2E332E5C 
 508      0B1A54A5 
 508      F2D6521F 
 508      A808426E 
 509 0c65 973E0B59 		.ascii	"\227>\013Y\033C\006\307\260\353\214\011\220\236J4Z]"
 509      1B4306C7 
 509      B0EB8C09 
 509      909E4A34 
 509      5A5D
 510 0c77 A5C64A03 		.ascii	"\245\306J\003r\330\037\012\206'&f\3351\320<K\263\026"
 510      72D81F0A 
 510      86272666 
 510      DD31D03C 
 510      4BB316
 511 0c8a B935EB2B 		.ascii	"\2715\353+\252cUJ\330\377\223\264a\012\370\000~o\315"
 511      AA63554A 
 511      D8FF93B4 
 511      610AF800 
 511      7E6FCD
 512 0c9d CF2AC17F 		.ascii	"\317*\301\1777\275\345\215\351l\267\232\331 \005=#G"
 512      37BDE58D 
 512      E96CB79A 
 512      D920053D 
 512      2347
 513 0caf 57945724 		.ascii	"W\224W$q\243l\276\312\007!\263\200\263\277\327\013@"
 513      71A36CBE 
 513      CA0721B3 
 513      80B3BFD7 
 513      0B40
 514 0cc1 78EF1B51 		.ascii	"x\357\033Q\361\300\243c\312\373\313\241\247\345I1o0"
 514      F1C0A363 
ARM GAS  /var/folders/c6/c789hm653lg9vtl73krp73tm0000gn/T//ccLq2oST.s 			page 41


 514      CAFBCBA1 
 514      A7E54931 
 514      6F30
 515 0cd3 0C962AF9 		.ascii	"\014\226*\3715r\250Zq{\275JX\036\037R\274\301\350S\272"
 515      3572A85A 
 515      717BBD4A 
 515      581E1F52 
 515      BCC1E853 
 516 0ce8 7DF70763 		.ascii	"}\367\007c\364\202\256\325\257\237\200 6\242\363\212"
 516      F482AED5 
 516      AF9F8020 
 516      36A2F38A 
 517 0cf8 B4790F68 		.ascii	"\264y\017h|E\3324]F\261v\235\346\306\203\321Hey\305"
 517      7C45DA34 
 517      5D46B176 
 517      9DE6C683 
 517      D1486579 
 518 0d0d 9881DA4D 		.ascii	"\230\201\332M(\020Oz'\300\025o0\026u%.\015\324f\217"
 518      28104F7A 
 518      27C0156F 
 518      30167525 
 518      2E0DD466 
 519 0d22 0D8792F3 		.ascii	"\015\207\222\363\257\326nV\207-\034E\246\213Z\312\351"
 519      AFD66E56 
 519      872D1C45 
 519      A68B5ACA 
 519      E9
 520 0d33 59E64A28 		.ascii	"Y\346J(+2\011\032\304\306\276H\330\017\321\213\204\345"
 520      2B32091A 
 520      C4C6BE48 
 520      D80FD18B 
 520      84E5
 521 0d45 109D7295 		.ascii	"\020\235r\225&c\"`\001\346{cZ\032\203O\023\223\340\224"
 521      26632260 
 521      01E67B63 
 521      5A1A834F 
 521      1393E094 
 522 0d59 A432EA12 		.ascii	"\2442\352\022\007P\225\277\032\377\204\342S\313\303"
 522      075095BF 
 522      1AFF84E2 
 522      53CBC3
 523 0d68 41B590AD 		.ascii	"A\265\220\255\344\"z,\217\215\210V*~\267i\\\376_\363"
 523      E4227A2C 
 523      8F8D8856 
 523      2A7EB769 
 523      5CFE5FF3 
 524 0d7c 312F60   		.ascii	"1/`"
 525              		.text
 526              		.section	.gnu.lto_.symtab.ef1c8b5fbbec5510,"",%progbits
 527 0000 70617474 		.ascii	"patternsys\000\000\000\000\000\000\000\000\000\000\000"
 527      65726E73 
 527      79730000 
 527      00000000 
 527      00000000 
 528 0015 00050100 		.ascii	"\000\005\001\000\000testsys1\000\000\000\000\000\000"
 528      00746573 
 528      74737973 
ARM GAS  /var/folders/c6/c789hm653lg9vtl73krp73tm0000gn/T//ccLq2oST.s 			page 42


 528      31000000 
 528      000000
 529 0028 00000000 		.ascii	"\000\000\000\000\000\000 \001\000\000testsys2\000\000"
 529      00002001 
 529      00007465 
 529      73747379 
 529      73320000 
 530 003c 00000000 		.ascii	"\000\000\000\000\000\000\000\000\000\000+\001\000\000"
 530      00000000 
 530      00002B01 
 530      0000
 531 004a 74657374 		.ascii	"testsys3\000\000\000\000\000\000\000\000\000\000\000"
 531      73797333 
 531      00000000 
 531      00000000 
 531      000000
 532 005d 00350100 		.ascii	"\0005\001\000\000chSysRestoreStatusX\000\000\002\000"
 532      00636853 
 532      79735265 
 532      73746F72 
 532      65537461 
 533 0079 00000000 		.ascii	"\000\000\000\000\000\000\000\000\345\000\000\000chS"
 533      00000000 
 533      E5000000 
 533      636853
 534 0088 79734765 		.ascii	"ysGetStatusAndLockX\000\000\002\000\000\000\000\000"
 534      74537461 
 534      74757341 
 534      6E644C6F 
 534      636B5800 
 535 00a3 00000000 		.ascii	"\000\000\000\000\354\000\000\000chVTDoSetI\000\000\002"
 535      EC000000 
 535      63685654 
 535      446F5365 
 535      74490000 
 536 00b8 00000000 		.ascii	"\000\000\000\000\000\000\000\000\000\357\000\000\000"
 536      00000000 
 536      00EF0000 
 536      00
 537 00c5 63685654 		.ascii	"chVTDoResetI\000\000\002\000\000\000\000\000\000\000"
 537      446F5265 
 537      73657449 
 537      00000200 
 537      00000000 
 538 00db 0000F100 		.ascii	"\000\000\361\000\000\000_test_assert\000\000\002\000"
 538      00005F74 
 538      6573745F 
 538      61737365 
 538      72740000 
 539 00f1 00000000 		.ascii	"\000\000\000\000\000\000\000\000\365\000\000\000chT"
 539      00000000 
 539      F5000000 
 539      636854
 540 0100 6864536C 		.ascii	"hdSleep\000\000\002\000\000\000\000\000\000\000\000"
 540      65657000 
 540      00020000 
 540      00000000 
ARM GAS  /var/folders/c6/c789hm653lg9vtl73krp73tm0000gn/T//ccLq2oST.s 			page 43


 540      0000
 541 0112 00FD0000 		.ascii	"\000\375\000\000\000chSysIntegrityCheckI\000\000\002"
 541      00636853 
 541      7973496E 
 541      74656772 
 541      69747943 
 542 012e 00000000 		.ascii	"\000\000\000\000\000\000\000\000\000\001\001\000\000"
 542      00000000 
 542      00010100 
 542      00
 543              		.text
 544              		.section	.gnu.lto_.opts,"",%progbits
 545 0000 272D6D63 		.ascii	"'-mcpu=cortex-m4' '-mno-thumb-interwork' '-mthumb' "
 545      70753D63 
 545      6F727465 
 545      782D6D34 
 545      2720272D 
 546 0033 272D6767 		.ascii	"'-ggdb' '-O2' '-fomit-frame-pointer' '-falign-funct"
 546      64622720 
 546      272D4F32 
 546      2720272D 
 546      666F6D69 
 547 0066 696F6E73 		.ascii	"ions=16' '-ffunction-sections' '-fdata-sections' '-"
 547      3D313627 
 547      20272D66 
 547      66756E63 
 547      74696F6E 
 548 0099 666E6F2D 		.ascii	"fno-common' '-flto'\000"
 548      636F6D6D 
 548      6F6E2720 
 548      272D666C 
 548      746F2700 
 549              		.text
 550              		.cfi_sections	.debug_frame
 551              		.section	.text.sys2_execute,"ax",%progbits
 552              		.align	2
 553              		.p2align 4,,15
 554              		.thumb
 555              		.thumb_func
 556              		.type	sys2_execute, %function
 557              	sys2_execute:
 558              	.LFB231:
 559              		.file 1 "../../../test/rt/testsys.c"
 560              		.loc 1 115 0
 561              		.cfi_startproc
 562              		@ args = 0, pretend = 0, frame = 0
 563              		@ frame_needed = 0, uses_anonymous_args = 0
 564              		@ link register save eliminated.
 565              	.LVL0:
 566              	.LBB324:
 567              	.LBB325:
 568              	.LBB326:
 569              	.LBB327:
 570              		.file 2 "../../../os/ext/CMSIS/include/core_cmFunc.h"
 571              		.loc 2 546 0
 572 0000 2023     		movs	r3, #32
 573              	@ 546 "../../../os/ext/CMSIS/include/core_cmFunc.h" 1
ARM GAS  /var/folders/c6/c789hm653lg9vtl73krp73tm0000gn/T//ccLq2oST.s 			page 44


 574 0002 83F31188 		MSR basepri, r3
 575              	@ 0 "" 2
 576              		.thumb
 577              	.LBE327:
 578              	.LBE326:
 579              	.LBB328:
 580              	.LBB329:
 581              		.loc 2 331 0
 582              	@ 331 "../../../os/ext/CMSIS/include/core_cmFunc.h" 1
 583 0006 62B6     		cpsie i
 584              	@ 0 "" 2
 585              		.thumb
 586              	.LBE329:
 587              	.LBE328:
 588              	.LBE325:
 589              	.LBE324:
 590              	.LBB330:
 591              	.LBB331:
 592              	.LBB332:
 593              	.LBB333:
 594              		.loc 2 342 0
 595              	@ 342 "../../../os/ext/CMSIS/include/core_cmFunc.h" 1
 596 0008 72B6     		cpsid i
 597              	@ 0 "" 2
 598              	.LVL1:
 599              		.thumb
 600              	.LBE333:
 601              	.LBE332:
 602              	.LBE331:
 603              	.LBE330:
 604              	.LBB334:
 605              	.LBB335:
 606              	.LBB336:
 607              	.LBB337:
 608              		.loc 2 546 0
 609              	@ 546 "../../../os/ext/CMSIS/include/core_cmFunc.h" 1
 610 000a 83F31188 		MSR basepri, r3
 611              	@ 0 "" 2
 612              		.thumb
 613              	.LBE337:
 614              	.LBE336:
 615              	.LBB338:
 616              	.LBB339:
 617              		.loc 2 331 0
 618              	@ 331 "../../../os/ext/CMSIS/include/core_cmFunc.h" 1
 619 000e 62B6     		cpsie i
 620              	@ 0 "" 2
 621              	.LVL2:
 622              		.thumb
 623              	.LBE339:
 624              	.LBE338:
 625              	.LBE335:
 626              	.LBE334:
 627              	.LBB340:
 628              	.LBB341:
 629              	.LBB342:
 630              	.LBB343:
ARM GAS  /var/folders/c6/c789hm653lg9vtl73krp73tm0000gn/T//ccLq2oST.s 			page 45


 631              		.loc 2 546 0
 632 0010 0023     		movs	r3, #0
 633              	@ 546 "../../../os/ext/CMSIS/include/core_cmFunc.h" 1
 634 0012 83F31188 		MSR basepri, r3
 635              	@ 0 "" 2
 636              		.thumb
 637              	.LBE343:
 638              	.LBE342:
 639              	.LBB344:
 640              	.LBB345:
 641              		.loc 2 331 0
 642              	@ 331 "../../../os/ext/CMSIS/include/core_cmFunc.h" 1
 643 0016 62B6     		cpsie i
 644              	@ 0 "" 2
 645              		.thumb
 646 0018 7047     		bx	lr
 647              	.LBE345:
 648              	.LBE344:
 649              	.LBE341:
 650              	.LBE340:
 651              		.cfi_endproc
 652              	.LFE231:
 653              		.size	sys2_execute, .-sys2_execute
 654 001a 00BFAFF3 		.section	.text.vtcb,"ax",%progbits
 654      0080
 655              		.align	2
 656              		.p2align 4,,15
 657              		.thumb
 658              		.thumb_func
 659              		.type	vtcb, %function
 660              	vtcb:
 661              	.LFB229:
 662              		.loc 1 53 0
 663              		.cfi_startproc
 664              		@ args = 0, pretend = 0, frame = 0
 665              		@ frame_needed = 0, uses_anonymous_args = 0
 666              	.LVL3:
 667 0000 10B5     		push	{r4, lr}
 668              		.cfi_def_cfa_offset 8
 669              		.cfi_offset 4, -8
 670              		.cfi_offset 14, -4
 671              	.LBB346:
 672              	.LBB347:
 673              	.LBB348:
 674              	.LBB349:
 675              	.LBB350:
 676              		.loc 2 546 0
 677 0002 2023     		movs	r3, #32
 678              	@ 546 "../../../os/ext/CMSIS/include/core_cmFunc.h" 1
 679 0004 83F31188 		MSR basepri, r3
 680              	@ 0 "" 2
 681              	.LVL4:
 682              		.thumb
 683              	.LBE350:
 684              	.LBE349:
 685              	.LBE348:
 686              	.LBE347:
ARM GAS  /var/folders/c6/c789hm653lg9vtl73krp73tm0000gn/T//ccLq2oST.s 			page 46


 687              	.LBE346:
 688              	.LBB351:
 689              	.LBB352:
 690              	.LBB353:
 691              	.LBB354:
 692              	.LBB355:
 693 0008 0024     		movs	r4, #0
 694              	@ 546 "../../../os/ext/CMSIS/include/core_cmFunc.h" 1
 695 000a 84F31188 		MSR basepri, r4
 696              	@ 0 "" 2
 697              	.LVL5:
 698              		.thumb
 699              	.LBE355:
 700              	.LBE354:
 701              	.LBE353:
 702              	.LBE352:
 703              	.LBE351:
 704              	.LBB356:
 705              	.LBB357:
 706              	.LBB358:
 707              	.LBB359:
 708              	.LBB360:
 709              	@ 546 "../../../os/ext/CMSIS/include/core_cmFunc.h" 1
 710 000e 83F31188 		MSR basepri, r3
 711              	@ 0 "" 2
 712              		.thumb
 713              	.LBE360:
 714              	.LBE359:
 715              	.LBE358:
 716              	.LBE357:
 717              	.LBE356:
 718              		.loc 1 64 0
 719 0012 FFF7FEFF 		bl	chSysGetStatusAndLockX
 720              	.LVL6:
 721              		.loc 1 65 0
 722 0016 FFF7FEFF 		bl	chSysRestoreStatusX
 723              	.LVL7:
 724              	.LBB361:
 725              	.LBB362:
 726              	.LBB363:
 727              	.LBB364:
 728              	.LBB365:
 729              		.loc 2 546 0
 730              	@ 546 "../../../os/ext/CMSIS/include/core_cmFunc.h" 1
 731 001a 84F31188 		MSR basepri, r4
 732              	@ 0 "" 2
 733              		.thumb
 734 001e 10BD     		pop	{r4, pc}
 735              	.LBE365:
 736              	.LBE364:
 737              	.LBE363:
 738              	.LBE362:
 739              	.LBE361:
 740              		.cfi_endproc
 741              	.LFE229:
 742              		.size	vtcb, .-vtcb
 743              		.section	.text.sys3_execute,"ax",%progbits
ARM GAS  /var/folders/c6/c789hm653lg9vtl73krp73tm0000gn/T//ccLq2oST.s 			page 47


 744              		.align	2
 745              		.p2align 4,,15
 746              		.thumb
 747              		.thumb_func
 748              		.type	sys3_execute, %function
 749              	sys3_execute:
 750              	.LFB232:
 751              		.loc 1 138 0
 752              		.cfi_startproc
 753              		@ args = 0, pretend = 0, frame = 0
 754              		@ frame_needed = 0, uses_anonymous_args = 0
 755              	.LVL8:
 756 0000 38B5     		push	{r3, r4, r5, lr}
 757              		.cfi_def_cfa_offset 16
 758              		.cfi_offset 3, -16
 759              		.cfi_offset 4, -12
 760              		.cfi_offset 5, -8
 761              		.cfi_offset 14, -4
 762              	.LBB431:
 763              	.LBB432:
 764              	.LBB433:
 765              	.LBB434:
 766              		.loc 2 546 0
 767 0002 2024     		movs	r4, #32
 768              	@ 546 "../../../os/ext/CMSIS/include/core_cmFunc.h" 1
 769 0004 84F31188 		MSR basepri, r4
 770              	@ 0 "" 2
 771              		.thumb
 772              	.LBE434:
 773              	.LBE433:
 774              	.LBE432:
 775              	.LBE431:
 776              		.loc 1 142 0
 777 0008 0120     		movs	r0, #1
 778 000a FFF7FEFF 		bl	chSysIntegrityCheckI
 779              	.LVL9:
 780              	.LBB435:
 781              	.LBB436:
 782              	.LBB437:
 783              	.LBB438:
 784              	.LBB439:
 785              		.loc 2 546 0
 786 000e 0023     		movs	r3, #0
 787              	@ 546 "../../../os/ext/CMSIS/include/core_cmFunc.h" 1
 788 0010 83F31188 		MSR basepri, r3
 789              	@ 0 "" 2
 790              		.thumb
 791              	.LBE439:
 792              	.LBE438:
 793              	.LBE437:
 794              	.LBE436:
 795              	.LBE435:
 796              		.loc 1 144 0
 797 0014 80F00101 		eor	r1, r0, #1
 798 0018 C9B2     		uxtb	r1, r1
 799 001a 0120     		movs	r0, #1
 800              	.LVL10:
ARM GAS  /var/folders/c6/c789hm653lg9vtl73krp73tm0000gn/T//ccLq2oST.s 			page 48


 801 001c FFF7FEFF 		bl	_test_assert
 802              	.LVL11:
 803 0020 0546     		mov	r5, r0
 804 0022 00B1     		cbz	r0, .L8
 805              	.L3:
 806 0024 38BD     		pop	{r3, r4, r5, pc}
 807              	.L8:
 808              	.LVL12:
 809              	.LBB440:
 810              	.LBB441:
 811              	.LBB442:
 812              	.LBB443:
 813              		.loc 2 546 0
 814              	@ 546 "../../../os/ext/CMSIS/include/core_cmFunc.h" 1
 815 0026 84F31188 		MSR basepri, r4
 816              	@ 0 "" 2
 817              		.thumb
 818              	.LBE443:
 819              	.LBE442:
 820              	.LBE441:
 821              	.LBE440:
 822              		.loc 1 147 0
 823 002a 0220     		movs	r0, #2
 824 002c FFF7FEFF 		bl	chSysIntegrityCheckI
 825              	.LVL13:
 826              	.LBB444:
 827              	.LBB445:
 828              	.LBB446:
 829              	.LBB447:
 830              	.LBB448:
 831              		.loc 2 546 0
 832              	@ 546 "../../../os/ext/CMSIS/include/core_cmFunc.h" 1
 833 0030 85F31188 		MSR basepri, r5
 834              	@ 0 "" 2
 835              		.thumb
 836              	.LBE448:
 837              	.LBE447:
 838              	.LBE446:
 839              	.LBE445:
 840              	.LBE444:
 841              		.loc 1 149 0
 842 0034 80F00101 		eor	r1, r0, #1
 843 0038 C9B2     		uxtb	r1, r1
 844 003a 0220     		movs	r0, #2
 845              	.LVL14:
 846 003c FFF7FEFF 		bl	_test_assert
 847              	.LVL15:
 848 0040 0546     		mov	r5, r0
 849 0042 0028     		cmp	r0, #0
 850 0044 EED1     		bne	.L3
 851              	.LVL16:
 852              	.LBB449:
 853              	.LBB450:
 854              	.LBB451:
 855              	.LBB452:
 856              		.loc 2 546 0
 857              	@ 546 "../../../os/ext/CMSIS/include/core_cmFunc.h" 1
ARM GAS  /var/folders/c6/c789hm653lg9vtl73krp73tm0000gn/T//ccLq2oST.s 			page 49


 858 0046 84F31188 		MSR basepri, r4
 859              	@ 0 "" 2
 860              		.thumb
 861              	.LBE452:
 862              	.LBE451:
 863              	.LBE450:
 864              	.LBE449:
 865              		.loc 1 152 0
 866 004a 0420     		movs	r0, #4
 867 004c FFF7FEFF 		bl	chSysIntegrityCheckI
 868              	.LVL17:
 869              	.LBB453:
 870              	.LBB454:
 871              	.LBB455:
 872              	.LBB456:
 873              	.LBB457:
 874              		.loc 2 546 0
 875              	@ 546 "../../../os/ext/CMSIS/include/core_cmFunc.h" 1
 876 0050 85F31188 		MSR basepri, r5
 877              	@ 0 "" 2
 878              		.thumb
 879              	.LBE457:
 880              	.LBE456:
 881              	.LBE455:
 882              	.LBE454:
 883              	.LBE453:
 884              		.loc 1 154 0
 885 0054 80F00101 		eor	r1, r0, #1
 886 0058 C9B2     		uxtb	r1, r1
 887 005a 0320     		movs	r0, #3
 888              	.LVL18:
 889 005c FFF7FEFF 		bl	_test_assert
 890              	.LVL19:
 891 0060 0546     		mov	r5, r0
 892 0062 0028     		cmp	r0, #0
 893 0064 DED1     		bne	.L3
 894              	.LVL20:
 895              	.LBB458:
 896              	.LBB459:
 897              	.LBB460:
 898              	.LBB461:
 899              	.LBB462:
 900              	.LBB463:
 901              		.loc 2 546 0
 902              	@ 546 "../../../os/ext/CMSIS/include/core_cmFunc.h" 1
 903 0066 84F31188 		MSR basepri, r4
 904              	@ 0 "" 2
 905              		.thumb
 906              	.LBE463:
 907              	.LBE462:
 908              	.LBE461:
 909              	.LBE460:
 910              		.loc 1 157 0
 911 006a 0820     		movs	r0, #8
 912 006c FFF7FEFF 		bl	chSysIntegrityCheckI
 913              	.LVL21:
 914              	.LBB464:
ARM GAS  /var/folders/c6/c789hm653lg9vtl73krp73tm0000gn/T//ccLq2oST.s 			page 50


 915              	.LBB465:
 916              	.LBB466:
 917              	.LBB467:
 918              	.LBB468:
 919              		.loc 2 546 0
 920              	@ 546 "../../../os/ext/CMSIS/include/core_cmFunc.h" 1
 921 0070 85F31188 		MSR basepri, r5
 922              	@ 0 "" 2
 923              		.thumb
 924              	.LBE468:
 925              	.LBE467:
 926              	.LBE466:
 927              	.LBE465:
 928              	.LBE464:
 929              		.loc 1 159 0
 930 0074 80F00101 		eor	r1, r0, #1
 931 0078 C9B2     		uxtb	r1, r1
 932 007a 0420     		movs	r0, #4
 933              	.LVL22:
 934              	.LBE459:
 935              	.LBE458:
 936              		.loc 1 160 0
 937 007c BDE83840 		pop	{r3, r4, r5, lr}
 938              	.LBB470:
 939              	.LBB469:
 940              		.loc 1 159 0
 941 0080 FFF7FEBF 		b	_test_assert
 942              	.LVL23:
 943              	.LBE469:
 944              	.LBE470:
 945              		.cfi_endproc
 946              	.LFE232:
 947              		.size	sys3_execute, .-sys3_execute
 948 0084 AFF30080 		.section	.text.sys1_execute,"ax",%progbits
 948      AFF30080 
 948      AFF30080 
 949              		.align	2
 950              		.p2align 4,,15
 951              		.thumb
 952              		.thumb_func
 953              		.type	sys1_execute, %function
 954              	sys1_execute:
 955              	.LFB230:
 956              		.loc 1 69 0
 957              		.cfi_startproc
 958              		@ args = 0, pretend = 0, frame = 24
 959              		@ frame_needed = 0, uses_anonymous_args = 0
 960 0000 10B5     		push	{r4, lr}
 961              		.cfi_def_cfa_offset 8
 962              		.cfi_offset 4, -8
 963              		.cfi_offset 14, -4
 964 0002 86B0     		sub	sp, sp, #24
 965              		.cfi_def_cfa_offset 32
 966              		.loc 1 74 0
 967 0004 FFF7FEFF 		bl	chSysGetStatusAndLockX
 968              	.LVL24:
 969              		.loc 1 75 0
ARM GAS  /var/folders/c6/c789hm653lg9vtl73krp73tm0000gn/T//ccLq2oST.s 			page 51


 970 0008 FFF7FEFF 		bl	chSysRestoreStatusX
 971              	.LVL25:
 972              	.LBB561:
 973              	.LBB562:
 974              	.LBB563:
 975              	.LBB564:
 976              		.loc 2 546 0
 977 000c 2024     		movs	r4, #32
 978              	@ 546 "../../../os/ext/CMSIS/include/core_cmFunc.h" 1
 979 000e 84F31188 		MSR basepri, r4
 980              	@ 0 "" 2
 981              		.thumb
 982              	.LBE564:
 983              	.LBE563:
 984              	.LBE562:
 985              	.LBE561:
 986              		.loc 1 79 0
 987 0012 FFF7FEFF 		bl	chSysGetStatusAndLockX
 988              	.LVL26:
 989              		.loc 1 80 0
 990 0016 FFF7FEFF 		bl	chSysRestoreStatusX
 991              	.LVL27:
 992              	.LBB565:
 993              	.LBB566:
 994              	.LBB567:
 995              	.LBB568:
 996              	.LBB569:
 997              		.loc 2 546 0
 998 001a 0023     		movs	r3, #0
 999              	@ 546 "../../../os/ext/CMSIS/include/core_cmFunc.h" 1
 1000 001c 83F31188 		MSR basepri, r3
 1001              	@ 0 "" 2
 1002              		.thumb
 1003              	.LBE569:
 1004              	.LBE568:
 1005              	.LBE567:
 1006              	.LBE566:
 1007              	.LBE565:
 1008              	.LBB570:
 1009              	.LBB571:
 1010              	.LBB572:
 1011              	.LBB573:
 1012              	.LBB574:
 1013              	.LBB575:
 1014              		.loc 2 533 0
 1015              	@ 533 "../../../os/ext/CMSIS/include/core_cmFunc.h" 1
 1016 0020 EFF31283 		MRS r3, basepri_max
 1017              	@ 0 "" 2
 1018              	.LVL28:
 1019              		.thumb
 1020              	.LBE575:
 1021              	.LBE574:
 1022              	.LBE573:
 1023              	.LBE572:
 1024              		.file 3 "../../../os/rt/include/chsys.h"
 1025              		.loc 3 422 0
 1026 0024 0BB9     		cbnz	r3, .L10
ARM GAS  /var/folders/c6/c789hm653lg9vtl73krp73tm0000gn/T//ccLq2oST.s 			page 52


 1027              	.LVL29:
 1028              	.LBB576:
 1029              	.LBB577:
 1030              	.LBB578:
 1031              	.LBB579:
 1032              		.loc 2 546 0
 1033              	@ 546 "../../../os/ext/CMSIS/include/core_cmFunc.h" 1
 1034 0026 84F31188 		MSR basepri, r4
 1035              	@ 0 "" 2
 1036              	.LVL30:
 1037              		.thumb
 1038              	.L10:
 1039              	.LBE579:
 1040              	.LBE578:
 1041              	.LBE577:
 1042              	.LBE576:
 1043              	.LBE571:
 1044              	.LBE570:
 1045              	.LBB580:
 1046              	.LBB581:
 1047              	.LBB582:
 1048              	.LBB583:
 1049              	.LBB584:
 1050              	.LBB585:
 1051              		.loc 2 533 0
 1052              	@ 533 "../../../os/ext/CMSIS/include/core_cmFunc.h" 1
 1053 002a EFF31283 		MRS r3, basepri_max
 1054              	@ 0 "" 2
 1055              	.LVL31:
 1056              		.thumb
 1057              	.LBE585:
 1058              	.LBE584:
 1059              	.LBE583:
 1060              	.LBE582:
 1061              		.loc 3 422 0
 1062 002e 13B9     		cbnz	r3, .L11
 1063              	.LVL32:
 1064              	.LBB586:
 1065              	.LBB587:
 1066              	.LBB588:
 1067              	.LBB589:
 1068              		.loc 2 546 0
 1069 0030 2023     		movs	r3, #32
 1070              	.LVL33:
 1071              	@ 546 "../../../os/ext/CMSIS/include/core_cmFunc.h" 1
 1072 0032 83F31188 		MSR basepri, r3
 1073              	@ 0 "" 2
 1074              	.LVL34:
 1075              		.thumb
 1076              	.L11:
 1077              	.LBE589:
 1078              	.LBE588:
 1079              	.LBE587:
 1080              	.LBE586:
 1081              	.LBE581:
 1082              	.LBE580:
 1083              	.LBB590:
ARM GAS  /var/folders/c6/c789hm653lg9vtl73krp73tm0000gn/T//ccLq2oST.s 			page 53


 1084              	.LBB591:
 1085              	.LBB592:
 1086              	.LBB593:
 1087              	.LBB594:
 1088 0036 0023     		movs	r3, #0
 1089              	@ 546 "../../../os/ext/CMSIS/include/core_cmFunc.h" 1
 1090 0038 83F31188 		MSR basepri, r3
 1091              	@ 0 "" 2
 1092              	.LVL35:
 1093              		.thumb
 1094              	.LBE594:
 1095              	.LBE593:
 1096              	.LBE592:
 1097              	.LBE591:
 1098              	.LBE590:
 1099              	.LBB595:
 1100              	.LBB596:
 1101              	.LBB597:
 1102              	.LBB598:
 1103 003c 2022     		movs	r2, #32
 1104              	@ 546 "../../../os/ext/CMSIS/include/core_cmFunc.h" 1
 1105 003e 82F31188 		MSR basepri, r2
 1106              	@ 0 "" 2
 1107              		.thumb
 1108              	.LBE598:
 1109              	.LBE597:
 1110              	.LBE596:
 1111              	.LBE595:
 1112              	.LBB599:
 1113              	.LBB600:
 1114              	.LBB601:
 1115              	.LBB602:
 1116              	.LBB603:
 1117              	.LBB604:
 1118              		.loc 2 533 0
 1119              	@ 533 "../../../os/ext/CMSIS/include/core_cmFunc.h" 1
 1120 0042 EFF31282 		MRS r2, basepri_max
 1121              	@ 0 "" 2
 1122              	.LVL36:
 1123              		.thumb
 1124              	.LBE604:
 1125              	.LBE603:
 1126              	.LBE602:
 1127              	.LBE601:
 1128              		.loc 3 436 0
 1129 0046 0AB1     		cbz	r2, .L12
 1130              	.LVL37:
 1131              	.LBB605:
 1132              	.LBB606:
 1133              	.LBB607:
 1134              	.LBB608:
 1135              	.LBB609:
 1136              		.loc 2 546 0
 1137              	@ 546 "../../../os/ext/CMSIS/include/core_cmFunc.h" 1
 1138 0048 83F31188 		MSR basepri, r3
 1139              	@ 0 "" 2
 1140              	.LVL38:
ARM GAS  /var/folders/c6/c789hm653lg9vtl73krp73tm0000gn/T//ccLq2oST.s 			page 54


 1141              		.thumb
 1142              	.L12:
 1143              	.LBE609:
 1144              	.LBE608:
 1145              	.LBE607:
 1146              	.LBE606:
 1147              	.LBE605:
 1148              	.LBE600:
 1149              	.LBE599:
 1150              	.LBB610:
 1151              	.LBB611:
 1152              	.LBB612:
 1153              	.LBB613:
 1154              	.LBB614:
 1155              	.LBB615:
 1156              		.loc 2 533 0
 1157              	@ 533 "../../../os/ext/CMSIS/include/core_cmFunc.h" 1
 1158 004c EFF31283 		MRS r3, basepri_max
 1159              	@ 0 "" 2
 1160              	.LVL39:
 1161              		.thumb
 1162              	.LBE615:
 1163              	.LBE614:
 1164              	.LBE613:
 1165              	.LBE612:
 1166              		.loc 3 436 0
 1167 0050 13B1     		cbz	r3, .L13
 1168              	.LVL40:
 1169              	.LBB616:
 1170              	.LBB617:
 1171              	.LBB618:
 1172              	.LBB619:
 1173              	.LBB620:
 1174              		.loc 2 546 0
 1175 0052 0023     		movs	r3, #0
 1176              	.LVL41:
 1177              	@ 546 "../../../os/ext/CMSIS/include/core_cmFunc.h" 1
 1178 0054 83F31188 		MSR basepri, r3
 1179              	@ 0 "" 2
 1180              	.LVL42:
 1181              		.thumb
 1182              	.L13:
 1183              	.LBE620:
 1184              	.LBE619:
 1185              	.LBE618:
 1186              	.LBE617:
 1187              	.LBE616:
 1188              	.LBE611:
 1189              	.LBE610:
 1190              	.LBB621:
 1191              	.LBB622:
 1192              		.file 4 "../../../os/rt/include/chvt.h"
 1193              		.loc 4 212 0
 1194 0058 0023     		movs	r3, #0
 1195 005a 0493     		str	r3, [sp, #16]
 1196              	.LVL43:
 1197              	.LBE622:
ARM GAS  /var/folders/c6/c789hm653lg9vtl73krp73tm0000gn/T//ccLq2oST.s 			page 55


 1198              	.LBE621:
 1199              	.LBB623:
 1200              	.LBB624:
 1201              	.LBB625:
 1202              	.LBB626:
 1203              	.LBB627:
 1204              		.loc 2 546 0
 1205 005c 2023     		movs	r3, #32
 1206              	@ 546 "../../../os/ext/CMSIS/include/core_cmFunc.h" 1
 1207 005e 83F31188 		MSR basepri, r3
 1208              	@ 0 "" 2
 1209              	.LVL44:
 1210              		.thumb
 1211              	.LBE627:
 1212              	.LBE626:
 1213              	.LBE625:
 1214              	.LBE624:
 1215              	.LBB628:
 1216              	.LBB629:
 1217              	.LBB630:
 1218              	.LBB631:
 1219              		.loc 4 376 0
 1220 0062 049B     		ldr	r3, [sp, #16]
 1221              		.loc 4 377 0
 1222 0064 01AC     		add	r4, sp, #4
 1223              	.LVL45:
 1224              		.loc 4 376 0
 1225 0066 13B1     		cbz	r3, .L14
 1226              		.loc 4 377 0
 1227 0068 2046     		mov	r0, r4
 1228 006a FFF7FEFF 		bl	chVTDoResetI
 1229              	.LVL46:
 1230              	.L14:
 1231              	.LBE631:
 1232              	.LBE630:
 1233              		.loc 4 424 0
 1234 006e 2046     		mov	r0, r4
 1235 0070 0121     		movs	r1, #1
 1236 0072 0C4A     		ldr	r2, .L26
 1237 0074 0023     		movs	r3, #0
 1238 0076 FFF7FEFF 		bl	chVTDoSetI
 1239              	.LVL47:
 1240              	.LBE629:
 1241              	.LBE628:
 1242              	.LBB632:
 1243              	.LBB633:
 1244              	.LBB634:
 1245              	.LBB635:
 1246              	.LBB636:
 1247              		.loc 2 546 0
 1248 007a 0024     		movs	r4, #0
 1249              	.LVL48:
 1250              	@ 546 "../../../os/ext/CMSIS/include/core_cmFunc.h" 1
 1251 007c 84F31188 		MSR basepri, r4
 1252              	@ 0 "" 2
 1253              		.thumb
 1254              	.LBE636:
ARM GAS  /var/folders/c6/c789hm653lg9vtl73krp73tm0000gn/T//ccLq2oST.s 			page 56


 1255              	.LBE635:
 1256              	.LBE634:
 1257              	.LBE633:
 1258              	.LBE632:
 1259              	.LBE623:
 1260              		.loc 1 96 0
 1261 0080 0A20     		movs	r0, #10
 1262 0082 FFF7FEFF 		bl	chThdSleep
 1263              	.LVL49:
 1264              	.LBB637:
 1265              	.LBB638:
 1266              	.LBB639:
 1267              	.LBB640:
 1268              	.LBB641:
 1269              	.LBB642:
 1270              		.loc 2 546 0
 1271 0086 2023     		movs	r3, #32
 1272              	@ 546 "../../../os/ext/CMSIS/include/core_cmFunc.h" 1
 1273 0088 83F31188 		MSR basepri, r3
 1274              	@ 0 "" 2
 1275              		.thumb
 1276              	.LBE642:
 1277              	.LBE641:
 1278              	.LBE640:
 1279              	.LBE639:
 1280              	.LBE638:
 1281              	.LBE637:
 1282              		.loc 4 354 0
 1283 008c 0499     		ldr	r1, [sp, #16]
 1284              	.LVL50:
 1285              	.LBB649:
 1286              	.LBB648:
 1287              	.LBB643:
 1288              	.LBB644:
 1289              	.LBB645:
 1290              	.LBB646:
 1291              	.LBB647:
 1292              		.loc 2 546 0
 1293              	@ 546 "../../../os/ext/CMSIS/include/core_cmFunc.h" 1
 1294 008e 84F31188 		MSR basepri, r4
 1295              	@ 0 "" 2
 1296              		.thumb
 1297              	.LBE647:
 1298              	.LBE646:
 1299              	.LBE645:
 1300              	.LBE644:
 1301              	.LBE643:
 1302              	.LBE648:
 1303              	.LBE649:
 1304              		.loc 1 98 0
 1305 0092 0B1B     		subs	r3, r1, r4
 1306 0094 5942     		rsbs	r1, r3, #0
 1307 0096 5941     		adcs	r1, r1, r3
 1308 0098 0120     		movs	r0, #1
 1309 009a FFF7FEFF 		bl	_test_assert
 1310              	.LVL51:
 1311              		.loc 1 99 0
ARM GAS  /var/folders/c6/c789hm653lg9vtl73krp73tm0000gn/T//ccLq2oST.s 			page 57


 1312 009e 06B0     		add	sp, sp, #24
 1313              		@ sp needed
 1314 00a0 10BD     		pop	{r4, pc}
 1315              	.LVL52:
 1316              	.L27:
 1317 00a2 00BF     		.align	2
 1318              	.L26:
 1319 00a4 00000000 		.word	vtcb
 1320              		.cfi_endproc
 1321              	.LFE230:
 1322              		.size	sys1_execute, .-sys1_execute
 1323              		.global	patternsys
 1324              		.global	testsys3
 1325              		.global	testsys2
 1326              		.global	testsys1
 1327 00a8 AFF30080 		.section	.rodata.testsys1,"a",%progbits
 1327      AFF30080 
 1328              		.align	2
 1329              		.type	testsys1, %object
 1330              		.size	testsys1, 16
 1331              	testsys1:
 1332 0000 30000000 		.word	.LC2
 1333 0004 00000000 		.word	0
 1334 0008 00000000 		.word	0
 1335 000c 00000000 		.word	sys1_execute
 1336              		.section	.rodata.testsys2,"a",%progbits
 1337              		.align	2
 1338              		.type	testsys2, %object
 1339              		.size	testsys2, 16
 1340              	testsys2:
 1341 0000 14000000 		.word	.LC1
 1342 0004 00000000 		.word	0
 1343 0008 00000000 		.word	0
 1344 000c 00000000 		.word	sys2_execute
 1345              		.section	.rodata.testsys3,"a",%progbits
 1346              		.align	2
 1347              		.type	testsys3, %object
 1348              		.size	testsys3, 16
 1349              	testsys3:
 1350 0000 00000000 		.word	.LC0
 1351 0004 00000000 		.word	0
 1352 0008 00000000 		.word	0
 1353 000c 00000000 		.word	sys3_execute
 1354              		.section	.rodata.str1.4,"aMS",%progbits,1
 1355              		.align	2
 1356              	.LC0:
 1357 0000 53797374 		.ascii	"System, integrity\000"
 1357      656D2C20 
 1357      696E7465 
 1357      67726974 
 1357      7900
 1358 0012 0000     		.space	2
 1359              	.LC1:
 1360 0014 53797374 		.ascii	"System, interrupts handling\000"
 1360      656D2C20 
 1360      696E7465 
 1360      72727570 
ARM GAS  /var/folders/c6/c789hm653lg9vtl73krp73tm0000gn/T//ccLq2oST.s 			page 58


 1360      74732068 
 1361              	.LC2:
 1362 0030 53797374 		.ascii	"System, critical zones\000"
 1362      656D2C20 
 1362      63726974 
 1362      6963616C 
 1362      207A6F6E 
 1363 0047 00       		.section	.rodata.patternsys,"a",%progbits
 1364              		.align	2
 1365              		.type	patternsys, %object
 1366              		.size	patternsys, 16
 1367              	patternsys:
 1368 0000 00000000 		.word	testsys1
 1369 0004 00000000 		.word	testsys2
 1370 0008 00000000 		.word	testsys3
 1371 000c 00000000 		.word	0
 1372              		.text
 1373              	.Letext0:
 1374              		.file 5 "/usr/local/Cellar/gcc-arm-none-eabi/20140805/lib/gcc/arm-none-eabi/4.8.4/include/stddef.h
 1375              		.file 6 "/usr/local/Cellar/gcc-arm-none-eabi/20140805/arm-none-eabi/include/machine/_default_types
 1376              		.file 7 "/usr/local/Cellar/gcc-arm-none-eabi/20140805/arm-none-eabi/include/stdint.h"
 1377              		.file 8 "../../../os/rt/ports/ARMCMx/compilers/GCC/chtypes.h"
 1378              		.file 9 "../../../os/rt/include/chsystypes.h"
 1379              		.file 10 "../../../os/rt/include/chschd.h"
 1380              		.file 11 "../../../os/rt/ports/ARMCMx/chcore.h"
 1381              		.file 12 "../../../os/rt/ports/ARMCMx/chcore_v7m.h"
 1382              		.file 13 "../../../os/rt/include/chtm.h"
 1383              		.file 14 "../../../os/rt/include/chsem.h"
 1384              		.file 15 "../../../os/rt/include/chmtx.h"
 1385              		.file 16 "../../../test/rt/test.h"
 1386              		.file 17 "../../../os/ext/CMSIS/include/core_cm4.h"
 1387              		.file 18 "../../../os/rt/include/chthreads.h"