ARM GAS  /var/folders/c6/c789hm653lg9vtl73krp73tm0000gn/T//ccWixtG4.s 			page 1


   1              		.syntax unified
   2              		.cpu cortex-m4
   3              		.fpu softvfp
   4              		.eabi_attribute 20, 1
   5              		.eabi_attribute 21, 1
   6              		.eabi_attribute 23, 3
   7              		.eabi_attribute 24, 1
   8              		.eabi_attribute 25, 1
   9              		.eabi_attribute 26, 1
  10              		.eabi_attribute 30, 2
  11              		.eabi_attribute 34, 1
  12              		.eabi_attribute 18, 4
  13              		.thumb
  14              		.file	"testpools.c"
  15              		.text
  16              	.Ltext0:
  17              		.section	.gnu.lto_.jmpfuncs.5e3975814e75ce12,"",%progbits
  18 0000 789C6362 		.ascii	"x\234cb`b\300\006t\031!4\013\003\003#\0033S5\303\257"
  18      6062C006 
  18      74192134 
  18      0B030323 
  18      03335335 
  19 0016 868E0681 		.ascii	"\206\216\006\201LF\206\\\210\004S\004c&#\343\011&(\013"
  19      4C46865C 
  19      88045304 
  19      632623E3 
  19      0926280B 
  20 002a 64083303 		.ascii	"d\0103\003\023\246:\240v,\232!\272\231\361K\263\200"
  20      13A63AA0 
  20      762C9A21 
  20      BA99F14B 
  20      B380
  21 003c D8B8AC66 		.ascii	"\330\270\254f\026\0002\340R,\311\214\004\354b\005\261"
  21      160032E0 
  21      522CC98C 
  21      04EC6205 
  21      B1
  22 004d 59E15C26 		.ascii	"Y\341\\&\374\252\031qHcq\015\314= \013\000\310\225/"
  22      FCAA1971 
  22      4863710D 
  22      CC3D200B 
  22      00C8952F 
  23 0061 43       		.ascii	"C"
  24              		.text
  25              		.section	.gnu.lto_.inline.5e3975814e75ce12,"",%progbits
  26 0000 789C6362 		.ascii	"x\234cb`b\300\006\366@i\026\006\006f&F\260\"\266\005"
  26      6062C006 
  26      F6406916 
  26      06066626 
  26      46B022B6 
  27 0015 F260B58C 		.ascii	"\362`\265\214\014\354\374\250\",\274@U\014 \254\363"
  27      0CECFCA8 
  27      222CBC40 
  27      550C20AC 
  27      F3
  28 0026 9D112825 		.ascii	"\235\021(%\3230\203\015.\311\314\003R<\301\017D3\002"
  28      D330830D 
ARM GAS  /var/folders/c6/c789hm653lg9vtl73krp73tm0000gn/T//ccWixtG4.s 			page 2


  28      2EC9CC03 
  28      523CC10F 
  28      443302
  29 0039 95C2780C 		.ascii	"\225\302x\014`\036\003\230\0077\000,\012\"A\242\254"
  29      601E0398 
  29      0737002C 
  29      0A2241A2 
  29      AC
  30 004a 0C0A6B40 		.ascii	"\014\012k@\306\211\264\235fF\330\316\005\265\020\331"
  30      C689B49D 
  30      6646D8CE 
  30      05B510D9 
  31 005a 14541B40 		.ascii	"\024T\033@fM\360c`\000\000\2755\017\300"
  31      664DF063 
  31      600000BD 
  31      350FC0
  32              		.text
  33              		.section	.gnu.lto_.pureconst.5e3975814e75ce12,"",%progbits
  34 0000 789C6362 		.ascii	"x\234cb`b\340d\200\000\026\006\006F\011f\011V\011\000"
  34      6062E064 
  34      80001606 
  34      06460966 
  34      09560900 
  35 0014 02160063 		.ascii	"\002\026\000c"
  36              		.text
  37              		.section	.gnu.lto_null_provider.5e3975814e75ce12,"",%progbits
  38 0000 789C6362 		.ascii	"x\234cb`b@\007\222@\034\005\304\362@\314\310\314\300"
  38      60624007 
  38      92401C05 
  38      C4F240CC 
  38      C8CCC0
  39 0013 C834E11C 		.ascii	"\3104\341\034\003C#\007\023##\210\301\300\310P\317\304"
  39      03432307 
  39      13232388 
  39      C1C0C850 
  39      CFC4
  40 0025 581FC908 		.ascii	"X\037\311\010V\273\236\351\300\203\377\377\327\375x"
  40      56BB9EE9 
  40      C083FFFF 
  40      D7FD78
  41 0034 FAA88351 		.ascii	"\372\250\203Q\020d\024+CKC\303\004\005\006\206d\260"
  41      1064142B 
  41      434B43C3 
  41      04050686 
  41      64B0
  42 0046 82102009 		.ascii	"\202\020 \011\322\025\312\310\004\242\231/24>\370\317"
  42      D215CAC8 
  42      04A2992F 
  42      32343EF8 
  42      CF
  43 0057 96C8B890 		.ascii	"\226\310\270\220\221\225!\2021\223\021ni\010##H\001"
  43      91952182 
  43      3193116E 
  43      69082323 
  43      4801
  44 0069 C808593D 		.ascii	"\310\010Y==}\010*I-.\321/*\001\323\005\371\3719\305"
  44      3D7D082A 
ARM GAS  /var/folders/c6/c789hm653lg9vtl73krp73tm0000gn/T//ccWixtG4.s 			page 3


  44      492D2ED1 
  44      2F2A01D3 
  44      05F9F939 
  45 007e 7AC90C00 		.ascii	"z\311\014\0000z#\235"
  45      307A239D 
  46              		.text
  47              		.section	.gnu.lto_pools1_setup.5e3975814e75ce12,"",%progbits
  48 0000 789C6362 		.ascii	"x\234cb`b@\007\222@<\027\210\345\201\230\221\231\201"
  48      60624007 
  48      92403C17 
  48      88E58198 
  48      919981
  49 0013 9169C239 		.ascii	"\221i\3029\006\206F\016&FF\020\203\201\221\241\236\211"
  49      0686460E 
  49      26464610 
  49      838191A1 
  49      9E89
  50 0025 B13E9211 		.ascii	"\261>\222\021\254v=\323\201\007\377\377\257\233\322"
  50      AC763DD3 
  50      8107FFFF 
  50      AF9BD2
  51 0034 B6E40EE3 		.ascii	"\266\344\016\343\014&f\240\010+CKC\303\004\005\006\206"
  51      0C2666A0 
  51      082B434B 
  51      43C30405 
  51      0686
  52 0046 64B08A10 		.ascii	"d\260\212\020 \011\322\026\312\310\004\242\231\3173"
  52      2009D216 
  52      CAC804A2 
  52      99CF33
  53 0055 B43DE879 		.ascii	"\264=\350y\314\225\310\270\220\221\025(]\315\360\253"
  53      CC95C8B8 
  53      90911528 
  53      5DCDF0AB 
  54 0065 A1A34120 		.ascii	"\241\243A \223\021\250\034b\"H\204#\223\2211\227\221"
  54      9311A81C 
  54      62224884 
  54      23939131 
  54      9791
  55 0077 01AA2882 		.ascii	"\001\252(\2021\223\221\351\004\023\230\006\332\220\311"
  55      319391E9 
  55      04139806 
  55      DA90C9
  56 0086 C8C2C070 		.ascii	"\310\302\300p\221\241\361A\2572\314\024\010\010\001"
  56      91A1F141 
  56      AF32CC14 
  56      080801
  57 0095 9A00B402 		.ascii	"\232\000\264\002\344!Y==}\010*I-.\321/*\001\323\005"
  57      E421593D 
  57      3D7D082A 
  57      492D2ED1 
  57      2F2A01D3 
  58 00aa F9F939C5 		.ascii	"\371\3719\305z\311\014\000c\3151\332"
  58      7AC90C00 
  58      63CD31DA 
  59              		.text
  60              		.section	.gnu.lto_pools1_execute.part.0.5e3975814e75ce12,"",%progbits
ARM GAS  /var/folders/c6/c789hm653lg9vtl73krp73tm0000gn/T//ccWixtG4.s 			page 4


  61 0000 789C9D54 		.ascii	"x\234\235T=hSQ\024>\347\336\367s\337O~\324IP\211\356"
  61      3D685351 
  61      143EE7DE 
  61      F773DF4F 
  61      7ED44950 
  62 0016 2620383B 		.ascii	"& 8;\273'\240cyH|`\251\330l\016}\371Q\272\024\202.E"
  62      BB27A063 
  62      79487C60 
  62      A9D86C0E 
  62      7DF951BA 
  63 002e 1D2C5D05 		.ascii	"\035,]\005'\251\024\034\342\324\010m\350\"\015t\210"
  63      27A9141C 
  63      E2D4086D 
  63      E8220D74 
  63      88
  64 003f 2875D0C9 		.ascii	"(u\320\311I\034\214\347\334\367\023\2234\203>\222{\356"
  64      491C8CE7 
  64      DCF71393 
  64      34833E92 
  64      7BEE
  65 0051 B9E77CE7 		.ascii	"\271\347|\347\234\357\273/\021 `\366\351\322\267o\000"
  65      9CEFBB2F 
  65      112060F6 
  65      E9D2B76F 
  65      00
  66 0062 5C268B39 		.ascii	"\\&\2139@\277{@\033\037\205\266\002\015mel{\312\020"
  66      40BF7B40 
  66      1B1F85B6 
  66      020D6D65 
  66      6C7BCA10 
  67 0076 72A30710 		.ascii	"r\243\007\020\271f;\007\221o\242\322qKx\357%\235\332"
  67      B9663B07 
  67      916FA2D2 
  67      714B78EF 
  67      259DDA
  68 0089 071F28E8 		.ascii	"\007\037(\350\333\361qO)a\305\351\216Nw\204\367\261"
  68      DBF1714F 
  68      2961C5E9 
  68      8E4E7784 
  68      F7B1
  69 009b 429EBB7B 		.ascii	"B\236\273{\211<\027=\316j*\017\2217\200\260\346\013"
  69      893C173D 
  69      CE6A2A0F 
  69      913780B0 
  69      E60B
  70 00ad 699896AD 		.ascii	"i\230\226\255\034\327\303\265\333\310\023\342\025\330"
  70      1CD7C3B5 
  70      DBC813E2 
  70      15D8
  71 00bb 8AA2EEE8 		.ascii	"\212\242\356\350\321\311\333\363\321\313V7\372=\036"
  71      D1C9DBF3 
  71      D1CB5637 
  71      FA3D1E
  72 00ca 6388C4A5 		.ascii	"c\210\304\245\204\020 \334\"\007K\332\010c\232\334k"
  72      841020DC 
  72      22074BDA 
  72      08639ADC 
ARM GAS  /var/folders/c6/c789hm653lg9vtl73krp73tm0000gn/T//ccWixtG4.s 			page 5


  72      6B
  73 00db 118DC6E3 		.ascii	"\021\215\306\343\341\017u\001a\011\267\250\222\200\020"
  73      E10F7501 
  73      6109B7A8 
  73      928010
  74 00ea A54C1C83 		.ascii	"\245L\034\203\035\223\026\303\342\305N\216Ub\035\016"
  74      1D9316C3 
  74      E2C54E8E 
  74      55621D0E 
  75 00fa BB1CF178 		.ascii	"\273\034\361x\361\331\315\361.\237$\024\022K\217\011"
  75      F1D9CDF1 
  75      2E9F2414 
  75      124B8F09 
  76 010a 1D9AB194 		.ascii	"\035\232\261\224\372\201\236\274J+\361\256\242OF\326"
  76      FA819EBC 
  76      4A2BF1AE 
  76      A24F46D6 
  77 011a 50B00118 		.ascii	"P\260\001\030B\236\207\245\004\377\370\315]\200\032"
  77      429E87A5 
  77      04FFF8CD 
  77      5D801A
  78 0129 4A2095E4 		.ascii	"J \225\344>\264\216\217\276\375\304%\334F\023\352(\256"
  78      3EB48E8F 
  78      BEFDC425 
  78      DC4613EA 
  78      28AE
  79 013b C2ABA818 		.ascii	"\302\253\250\030\242\371\034\2365\273\274\263\036\302"
  79      A2F91C9E 
  79      35BBBCB3 
  79      1EC2
  80 0149 AF689377 		.ascii	"\257h\223w\366\262\356\300ulM\265\216\230\321\036\200"
  80      F6B2EEC0 
  80      756C4DB5 
  80      8E98D11E 
  80      80
  81 015a 19D70060 		.ascii	"\031\327\000`\300:\003T\220$\360\211\012\321Y\306\244"
  81      C03A0354 
  81      9024F089 
  81      0AD159C6 
  81      A4
  82 016b 11770AD1 		.ascii	"\021w\012\321\005\330\207\366z{g\343f\332_RM=(\003\373"
  82      05D887F6 
  82      7A7B67E3 
  82      66DA5F52 
  82      4D3D2803 
  83 0180 20E2F398 		.ascii	" \342\363\230\"E\343^54\200.O\366\241\245 \013\022b"
  83      2245E35E 
  83      3534802E 
  83      4FF6A1A5 
  83      200B1262 
  84 0194 0F3A274D 		.ascii	"\017:'M;\255\025\027\232\\\317\020\260\216yA\213\224"
  84      3BAD1517 
  84      9A5CCF10 
  84      B08E7941 
  84      8B94
  85 01a6 9B0E9731 		.ascii	"\233\016\2271Sq\012\2118\306\213\035-\216\005O\257\313"
  85      53710A89 
ARM GAS  /var/folders/c6/c789hm653lg9vtl73krp73tm0000gn/T//ccWixtG4.s 			page 6


  85      38C68B1D 
  85      2D8E054F 
  85      AFCB
  86 01b8 017446BB 		.ascii	"\001tF\273\333\2314F\306\313\013P,\340\025\222\356L"
  86      DB993446 
  86      C6CB0B50 
  86      2CE01592 
  86      EE4C
  87 01ca EA48A630 		.ascii	"\352H\2460\223\220\\]N\251T\217u\325\345rAB\214\323"
  87      93905C5D 
  87      4EA9548F 
  87      75D5E572 
  87      41428CD3 
  88 01de F2923121 		.ascii	"\362\2221!\0264\233\357Yw\213\203S\257Z\215n\341\323"
  88      16349BEF 
  88      59778B83 
  88      53AF5A8D 
  88      6EE1D3
  89 01f1 35A915FC 		.ascii	"5\251\025\374:QP\325\321^\254\240J\261\012\276\334\230"
  89      3A5150D5 
  89      D15EACA0 
  89      4AB10ABE 
  89      DC98
  90 0203 11D09E15 		.ascii	"\021\320\236\025\320\236\023\320\256c\301$\001\225\035"
  90      D09E13D0 
  90      AE63C124 
  90      01951D
  91 0212 0BE8C0A1 		.ascii	"\013\350\300\241\253uz\027\244 \347_d\032d2\271\204"
  91      AB757A17 
  91      A420E75F 
  91      641A6432 
  91      B984
  92 0224 3C4D266F 		.ascii	"<M&o\201L\006c\346e\362N\221\311\205'\006\015\371x\264"
  92      814C0663 
  92      E665F24E 
  92      91C98527 
  92      060DF978 
  93 0239 F7D99D7B 		.ascii	"\367\331\235{G\213A\222>?$\227:SL\003g\0034\263\351"
  93      478B4192 
  93      3E3F2497 
  93      3A534C03 
  93      670334B3 
  94 024e CFF18C9D 		.ascii	"\317\361\214\235Q?c\355\377\037\353\034!\347Y\3775\336"
  94      513F63ED 
  94      FF1FEB1C 
  94      21E759FF 
  94      35DE
  95 0260 34690DD1 		.ascii	"4i\015\321\244cf\036\277\277\207\364o6\241[\245\337"
  95      A463661E 
  95      BFBF87F4 
  95      6F36A15B 
  95      A5DF
  96 0272 413BC713 		.ascii	"A;\307\023\\,\227+\361\247qg\265Qy\320\320\366\376\312"
  96      5C2C972B 
  96      F1A77167 
  96      B55179D0 
  96      D0F6FECA 
ARM GAS  /var/folders/c6/c789hm653lg9vtl73krp73tm0000gn/T//ccWixtG4.s 			page 7


  97 0286 CABDD572 		.ascii	"\312\275\325r\000\030\376\001\344\015\016\026"
  97      0018FE01 
  97      E40D0E16 
  98              		.text
  99              		.section	.gnu.lto_pools1_execute.5e3975814e75ce12,"",%progbits
 100 0000 789C9553 		.ascii	"x\234\225SMk\023Q\024=\367\275\371x\371n\304\215\013"
 100      4D6B1351 
 100      143DF7BD 
 100      F978F96E 
 100      C48D0B
 101 0013 25BA37F9 		.ascii	"%\2727\371\007\356\3357\240\3132\224:`\251\330\354\\"
 101      07EEDD37 
 101      A0CB3294 
 101      3A60A9D8 
 101      EC5C
 102 0025 74928950 		.ascii	"t\222\211PA!+)\025\324\322M\021A\\\010.\\X\335\330B"
 102      41212B29 
 102      15D4D24D 
 102      11415C08 
 102      2E5C58DD 
 103 003b 1B05170A 		.ascii	"\033\005\027\012]\004\027Y\371\0034\212\361\336y3ic"
 103      5D041759 
 103      F903348A 
 103      F1DE7933 
 103      6963
 104 004d DB8543F2 		.ascii	"\333\205C\362\336\273_\347\236{\346\215\202\302\277"
 104      DEBB5FE7 
 104      9E7BE68D 
 104      82C2BF
 105 005c CF3CFFEF 		.ascii	"\317<\377\357i\340\"\357\224\003\251\336>\3206\212\\"
 105      69E022EF 
 105      9403A9DE 
 105      3ED0368A 
 105      5C
 106 006d 7BD0CABC 		.ascii	"{\320\312\274\323\210\362\316\376.\020\025\035\353\337"
 106      D388F2CE 
 106      FE2E1015 
 106      1DEBDF
 107 007c 36AED20F 		.ascii	"6\256\322\017\266\331\223\367\342\022\373=e\336\\`\313"
 107      B6D993F7 
 107      E212FB3D 
 107      65DE5C60 
 107      CB
 108 008d FFDC60CB 		.ascii	"\377\334`\313'#Yd\210d\007aEi\307\365|C+\327I\332\322"
 108      27235964 
 108      88640761 
 108      4569C7F5 
 108      7C432BD7 
 109 00a4 256C4451 		.ascii	"%lDQopw\370\372\\\364\264\323\213\376\214\307\024\022"
 109      6F7077F8 
 109      FA5CF4B4 
 109      D38BFE8C 
 109      C71412
 110 00b7 13AC1102 		.ascii	"\023\254\021\002\30256\250\226l\312\231f\374B\275\035"
 110      C23536A8 
 110      966CCA99 
 110      66FC42BD 
ARM GAS  /var/folders/c6/c789hm653lg9vtl73krp73tm0000gn/T//ccWixtG4.s 			page 8


 110      1D
 111 00c8 8CC7BF5F 		.ascii	"\214\307\277_n}\333\245\352Y\302\034m0\232\203\220\264"
 111      6E7DDBA5 
 111      EA59C21C 
 111      6D309A83 
 111      90B4
 112 00da 971A468C 		.ascii	"\227\032F\214\034/NA\226b\352.\213\273\"\236\252,\214"
 112      1C2F4E41 
 112      9662EA2E 
 112      8BBB229E 
 112      AA2C8C
 113 00ed E5A2CB2C 		.ascii	"\345\242\313,j6\014i\314\317,\257\243\012\232\244x\323"
 113      6A360C69 
 113      CCCF2CAF 
 113      A30A9AA4 
 113      78D3
 114 00ff 7BE81CFC 		.ascii	"{\350\034\374\030~Ts\264I.\026\310\271\214\347\321L"
 114      187E5473 
 114      B4492E16 
 114      C8B98CE7 
 114      D14C
 115 0111 48EE23AC 		.ascii	"H\356#\254\267{r\362\356`\024\255\311\311_L\000\204"
 115      B77B72F2 
 115      EE6014AD 
 115      C9C95F4C 
 115      0084
 116 0123 B58FEC74 		.ascii	"\265\217\354t\224{\037\236\305\001\244hU\212L@6G<&\244"
 116      947B1F9E 
 116      C501A468 
 116      558A4C40 
 116      36473C26 
 117 0138 DC22519A 		.ascii	"\334\"Q\232\304\335\004!\3572\335\002\260\203\316\340"
 117      C4DD0421 
 117      EF32DD02 
 117      B083CEE0 
 118 0148 F1FB14C1 		.ascii	"\361\373\024\301r\236j\320$\015~)\272\217\356\340\311"
 118      729E6AD0 
 118      240D7E29 
 118      BA8FEEE0 
 118      C9
 119 0159 26658CCD 		.ascii	"&e\214\315\244U1 uJ\253\220J\300\036\342/:+\313q\245"
 119      A4553120 
 119      754AAB90 
 119      4AC01EE2 
 119      2F3A2BCB 
 120 016f C06B4BDC 		.ascii	"\300kK\334\315\374\205\011\\9\260\301\204E\205\244&"
 120      CDFC8509 
 120      5C39B0C1 
 120      844585A4 
 120      26
 121 0180 A419E003 		.ascii	"\244\031\340\003\272\337'\335\013\022\234z\205M6\037"
 121      BADF27DD 
 121      0B129C7A 
 121      854D361F 
 122 0190 5E6161E3 		.ascii	"^aa\343\325\370\327\375\253Ybq\201(\031G\006\332\201"
 122      D5F8D7FD 
 122      AB596271 
ARM GAS  /var/folders/c6/c789hm653lg9vtl73krp73tm0000gn/T//ccWixtG4.s 			page 9


 122      81281947 
 122      06DA81
 123 01a3 3A3A2647 		.ascii	"::&G\263Z\027|\2454Ka0\011R\322s\330\3663,\013t\330"
 123      B35A177C 
 123      A5344B61 
 123      300952D2 
 123      73D8F633 
 124 01bb F52B2855 		.ascii	"\365+(UJmi\006s\326r\202\345!.%j=\013\262\312\362\377"
 124      4A6D6906 
 124      73D67282 
 124      E5212E25 
 124      6A3D0BB2 
 125 01d2 88D59F88 		.ascii	"\210\325\237\210U\341\312\223\304\252\236\"\226\222"
 125      55E1CA93 
 125      C4AA9E22 
 125      9692
 126 01e0 9AE36255 		.ascii	"\232\343bUO\020\313\307O\237I\306\346\330\315\251\006"
 126      4F10CBC7 
 126      4F9F49C6 
 126      E6D8CDA9 
 126      06
 127 01f1 696E4867 		.ascii	"inHg\354\224^:\245w\360\352\206\324\032\271\301\237"
 127      EC945E3A 
 127      A577F0EA 
 127      86D41AB9 
 127      C19F
 128 0203 F8333E04 		.ascii	"\3703>\004\234e\265F\025\231\354|\275\336\260\277\326"
 128      9C65B546 
 128      1599EC7C 
 128      BDDEB0BF 
 128      D6
 129 0214 FC72AB71 		.ascii	"\374r\253q\273\225\354\267\226\226n.\327\003P\370\027"
 129      BB95ECB7 
 129      96966E2E 
 129      D70350F8 
 129      17
 130 0225 D2AACD2D 		.ascii	"\322\252\315-"
 131              		.text
 132              		.section	.gnu.lto_.symbol_nodes.5e3975814e75ce12,"",%progbits
 133 0000 789C4D8C 		.ascii	"x\234M\214]\216\001Q\024\204\253\356\351\243\333\260"
 133      5D8E0151 
 133      1484ABEE 
 133      E9A3DBB0 
 134 0010 00129BB3 		.ascii	"\000\022\233\263\222#\2210\343\311\002LBz\023\336\373"
 134      92239130 
 134      E3C9024C 
 134      427A13DE 
 134      FB
 135 0021 8DC41A84 		.ascii	"\215\304\032\204\37073$\355\225\271\027\321\316K\345"
 135      F8373324 
 135      ED95B917 
 135      D1CE4BE5 
 136 0031 AB3A550E 		.ascii	"\253:U\016\0165\342qnM\003\3723\300l\360\325t\033\032"
 136      0E35E271 
 136      6E4D03FA 
 136      33C06CF0 
 136      D5741B1A 
ARM GAS  /var/folders/c6/c789hm653lg9vtl73krp73tm0000gn/T//ccWixtG4.s 			page 10


 137 0045 0BD41511 		.ascii	"\013\324\025\021\231\2703\315=\335\357O\352\201\204"
 137      99B833CD 
 137      3DDDEF4F 
 137      EA8184
 138 0054 C16D69F2 		.ascii	"\301mi\362\366\273\247S\203\356(^x\242E\217\260\325"
 138      F6BBA753 
 138      83EE285E 
 138      78A2458F 
 138      B0D5
 139 0066 22FF685A 		.ascii	"\"\377hZ\320\017\255T\320/-.\350HK^$L\320\236_)RA:\275"
 139      D00FAD54 
 139      D02F2D2E 
 139      E8484B5E 
 139      244CD09E 
 140 0080 46221F58 		.ascii	"F\"\037XN\202&\310\356ZA\273\2277\202\237u\203z\356"
 140      4E8226C8 
 140      EE5A41BB 
 140      9737829F 
 140      75837AEE 
 141 0094 E476E7D1 		.ascii	"\344v\347\321-\026)#\035\347u\321*\322\260\243\276?"
 141      2D162923 
 141      1DE775D1 
 141      2AD2B0A3 
 141      BE3F
 142 00a6 F4BEFABD 		.ascii	"\364\276\372\275\220\007\356\370^\340\320W\301\242{"
 142      9007EEF8 
 142      5EE0D057 
 142      C1A27B
 143 00b5 89F10FE7 		.ascii	"\211\361\017\347\\U\236"
 143      5C559E
 144              		.text
 145              		.section	.gnu.lto_.refs.5e3975814e75ce12,"",%progbits
 146 0000 789C35C7 		.ascii	"x\2345\307\301\015\0000\010\303\300\304\2052K\367_\020"
 146      C10D0030 
 146      08C3C0C4 
 146      85324BF7 
 146      5F10
 147 0012 A48AF3CB 		.ascii	"\244\212\363\313\010=}6\324Q\260\004\221\373\276\324"
 147      083D7D36 
 147      D451B004 
 147      91FBBED4 
 148 0022 64520D10 		.ascii	"dR\015\020\271\000\224"
 148      B90094
 149              		.text
 150              		.section	.gnu.lto_.decls.5e3975814e75ce12,"",%progbits
 151 0000 789C9D58 		.ascii	"x\234\235XklTE\024\236\271\333BK\227\002UH\021(\213"
 151      6B6C5445 
 151      149EB9DB 
 151      424B9702 
 151      55481128 
 152 0015 824622BB 		.ascii	"\202F\"\273\255\251\011?\014\005\211\212\211\017\376"
 152      ADA9093F 
 152      0C05898A 
 152      890FFE
 153 0024 9018FFAC 		.ascii	"\220\030\377\254\303\366Bk\266\273\345\356\255\200\376"
 153      C3F6426B 
 153      B6BBE5EE 
ARM GAS  /var/folders/c6/c789hm653lg9vtl73krp73tm0000gn/T//ccWixtG4.s 			page 11


 153      AD80FE
 154 0033 7028B654 		.ascii	"p(\266T$\244\024\320\362(iy(\360\213\207B\")n*\266+"
 154      24A414D0 
 154      F2286979 
 154      28F08B87 
 154      4222296E 
 155 004a 06C22B2A 		.ascii	"\006\302+*h\311F \246\010XDh@`=\363\330\335{\357\336"
 155      68C94620 
 155      A6085844 
 155      6840603D 
 155      F3D8DD7B 
 156 0060 BBB44E7A 		.ascii	"\273\264Nz\356\235;s\036\3379sf\346l\025\244\240k\030"
 156      EE9D3B73 
 156      1EDF3973 
 156      66E66C15 
 156      A4A06B18 
 157 0074 A104B41D 		.ascii	"\241\004\264\035E\010\275\254 \224\213\020\232\205\304"
 157      4508BDAC 
 157      20948B10 
 157      9A85C4
 158 0083 BB43BE0F 		.ascii	"\273C\276\017\001\355\007:\202D\313\007\352\004\352"
 158      01ED073A 
 158      8244CB07 
 158      EA04EA
 159 0092 02EA063A 		.ascii	"\002\352\006:\016t\002\350,\320/@\277\001]\006\312\001"
 159      0E7402E8 
 159      2CD02F40 
 159      BF015D06 
 159      CA01
 160 00a4 BA0A741D 		.ascii	"\272\012t\035\350o\240\221\030\231\032\323\301\206*"
 160      E86FA091 
 160      18991AD3 
 160      C1862A
 161 00b3 E4379663 		.ascii	"\3447\226c\326\326%q\024c3\246\223r^\221<'\244\216\253"
 161      D6D62571 
 161      146333A6 
 161      93725E91 
 161      3C27A48E 
 162 00c8 167986F1 		.ascii	"\026y\206\361q\211\247\020\310-m^\004\372\013\350\006"
 162      7189A710 
 162      C82D6D5E 
 162      04FA0BE8 
 162      06
 163 00d9 D078107C 		.ascii	"\320x\020|B\352?\0074\001\372\347\341=\021\013{\275"
 163      42EA3F07 
 163      3401FAE7 
 163      E13D110B 
 163      7BBD
 164 00eb D27E320E 		.ascii	"\322~2\016I\333\303\244~\243\357'\244\037\212\364\335"
 164      49DBC3A4 
 164      7EA3EF27 
 164      A41F8AF4 
 164      DD
 165 00fc 8A87C5EB 		.ascii	"\212\207\305\353\261A\340\231$\3610\233W\0340\225@\277"
 165      B141E099 
 165      24F1309B 
 165      571C3095 
ARM GAS  /var/folders/c6/c789hm653lg9vtl73krp73tm0000gn/T//ccWixtG4.s 			page 12


 165      40BF
 166 010e 47EACD95 		.ascii	"G\352\315\225\272/\033\260tg\301Q\200VSZO\333\033\351"
 166      BA2F1BB0 
 166      7467C151 
 166      8056535A 
 166      4FDB1BE9 
 167 0122 BC586111 		.ascii	"\274Xa\021ZG\241yb\200\350mLpa>z\227w\334\371\034\340"
 167      5A47A179 
 167      6280E86D 
 167      4C70613E 
 167      7A9777DC 
 168 0139 34B493D2 		.ascii	"4\264\223\322\346\370\367\227\212i\016\301\333q\021"
 168      E6F8F797 
 168      8A690EC1 
 168      DB7111
 169 0148 A87D06A3 		.ascii	"\250}\006\243\351h\017H5S\272}B\346\302\241G)E\210\340"
 169      E9680F48 
 169      3553BA7D 
 169      42E6C2A1 
 169      47294588 
 170 015d 2F4015C1 		.ascii	"/@\025\301\273\360ta\202F\327u\273\231\0116\216\344"
 170      BBF07461 
 170      8246D775 
 170      BB990936 
 170      8EE4
 171 016f 8C4D9B82 		.ascii	"\214M\233\202\332\001|t}c\333x\332\336\205\355|i\037"
 171      DA017C74 
 171      7D63DB78 
 171      DADE85ED 
 171      7C691F
 172 0182 66B0EB49 		.ascii	"f\260\353I\332\315\341\021y\021\203\352\275V\3237\211"
 172      DACDE111 
 172      791183EA 
 172      BD56D337 
 172      89
 173 0193 478C3EDA 		.ascii	"G\214>\332\360\255\276\0370mq\023\274\007l+h^R\237\235"
 173      F0ADBE1F 
 173      306D7113 
 173      BC076C2B 
 173      685E529F 
 174 01a8 39D9154D 		.ascii	"9\331\025M2X\233\235\034C\301\324\313\246\240\371X\006"
 174      32589B9D 
 174      1C43C1D4 
 174      CBA6A0F9 
 174      5806
 175 01ba 6C885624 		.ascii	"l\210V$\346\215\335[y\260\362QS:X\366\246\345r\337l"
 175      E68DDD5B 
 175      79B0F251 
 175      533A58F6 
 175      A6E572DF 
 176 01cf FCE916AE 		.ascii	"\374\351\026\256\247\024&\366\203\230\202\016bl\012"
 176      A71426F6 
 176      8398820E 
 176      626C0A
 177 01de 0DC1B926 		.ascii	"\015\301\271&_\370w\222\201\351\343\323\262\303\016"
 177      5FF87792 
 177      81E9E3D3 
ARM GAS  /var/folders/c6/c789hm653lg9vtl73krp73tm0000gn/T//ccWixtG4.s 			page 13


 177      B2C30E
 178 01ed 9A51CC8F 		.ascii	"\232Q\314\217o\360P\035\361\030\035\2117\\\212\2716"
 178      6FF0501D 
 178      F1181D89 
 178      375C8AB9 
 178      36
 179 01fe D1E8C72E 		.ascii	"\321\350\307.\323\262\217C\033\371\2627\002^\235\340"
 179      D3B28F43 
 179      1BF9B237 
 179      025E9DE0 
 180 020e 8A02C7A0 		.ascii	"\212\002\307\240\036\306\343x\317\305\367\006\022\316"
 180      1EC6E378 
 180      CFC5F706 
 180      12CE
 181 021c 11BCC095 		.ascii	"\021\274\300\225u9dL\016\256=\374,\245y\004\037\342"
 181      7539644C 
 181      0EAE3DFC 
 181      2CA57904 
 181      1FE2
 182 022e 2B7FDD12 		.ascii	"+\177\335\022\021\023$a\312\011\306\021P`\237g\031s"
 182      11132461 
 182      CA09C611 
 182      50609F67 
 182      1973
 183 0240 0ABA3798 		.ascii	"\012\2727\230\230\345eK1\223\376\364\266#\370K<\015"
 183      98E5654B 
 183      3193FEF4 
 183      B623F84B 
 183      3C0D
 184 0252 9EBBF114 		.ascii	"\236\273\361\024x\356\343\317\257\341\2315\026LEG:5"
 184      78EEE3CF 
 184      AFE19935 
 184      164C4547 
 184      3A35
 185 0264 27A36DF4 		.ascii	"'\243m\364T\177\274\255\345h\011[\027\232H|$\303\254"
 185      547FBCAD 
 185      E568095B 
 185      179A487C 
 185      24C3AC
 186 0277 A09D8A39 		.ascii	"\240\235\2129@S\321\016J[\350\347\352\274dR\035\340"
 186      4053D10E 
 186      4A5BE8E7 
 186      EABC6452 
 186      1DE0
 187 0289 1C9D78B2 		.ascii	"\034\235x\262\255)\301\005\355i\264\213E\266\363\362"
 187      AD29C105 
 187      ED69B48B 
 187      45B6F3F2 
 188 0299 FC797C75 		.ascii	"\374y|uQ\026!\011\361(V\214n3\230\321~\330\007ka\037"
 188      51162109 
 188      F128568C 
 188      6E3398D1 
 188      7ED8076B 
 189 02af D4471389 		.ascii	"\324G\023\211\012dI\232Yc\035\335\375N&M:O\024t\330"
 189      0A64499A 
 189      59631DDD 
 189      FD4E264D 
ARM GAS  /var/folders/c6/c789hm653lg9vtl73krp73tm0000gn/T//ccWixtG4.s 			page 14


 189      3A4F1474 
 190 02c4 E29B0409 		.ascii	"\342\233\004\011m7uqm\214\277\013@\232\202\177\314\026"
 190      6D377571 
 190      6D8CBF0B 
 190      409A827F 
 190      CC16
 191 02d6 D6B6EE35 		.ascii	"\326\266\3565y\315+\342\211\304\344\301\203\352\261"
 191      79CD2BE2 
 191      89C4E4C1 
 191      83EAB1
 192 02e5 0175CC1E 		.ascii	"\001u\314\036T\263\031T\267\025T\314\016\024=@i>,g\202"
 192      54B31954 
 192      B71554CC 
 192      0E143D40 
 192      693E2C67 
 193 02fa 2A22020A 		.ascii	"*\"\002\012\2720(\237\217[\325\377\230\251>\336\034"
 193      BA30289F 
 193      8F5BD5FF 
 193      98A93EDE 
 193      1C
 194 030b 6F1888E2 		.ascii	"o\030\210\342M\264Kd\314\340\335>i\335\300,\027M\273"
 194      4DB44B64 
 194      CCE0DD3E 
 194      69DDC02C 
 194      174DBB
 195 031e D9387948 		.ascii	"\3318yH$\252i\203+\250/\303\017\301t\306\016h\364L\317"
 195      24AA6983 
 195      2BA82FC3 
 195      0FC174C6 
 195      0E68F44C 
 196 0333 1A8A87BA 		.ascii	"\032\212\207\272:\347\262\302\254\260Cu\317\001\325"
 196      3AE7B2C2 
 196      ACB04375 
 196      CF01D5
 197 0342 CFB6A8BE 		.ascii	"\317\266\250\276\355Y3\236v\330fr\226\343\357\274\035"
 197      ED59339E 
 197      76D86672 
 197      96E3EFBC 
 197      1D
 198 0353 2C0B8E06 		.ascii	",\013\216\006\227=\216_m\227\361\354\346\336\025x\335"
 198      973D8E5F 
 198      6D97F1EC 
 198      E6DE1578 
 198      DD
 199 0364 CAF618ED 		.ascii	"\312\366\030\355gG\274\011J\036Z\305\266m\274\201\256"
 199      6747BC09 
 199      4A1E5AC5 
 199      B66DBC81 
 199      AE
 200 0375 C04B52A7 		.ascii	"\300KR\247I^\022\024\253\330\304\365\013\011\012Iv\021"
 200      495E1214 
 200      ABD8C4F5 
 200      0B090A49 
 200      7611
 201 0387 E781F9BD 		.ascii	"\347\201\371\275.K\261\230F\300\030Xc\362\242\237\354"
 201      2E4BB198 
 201      46C01858 
ARM GAS  /var/folders/c6/c789hm653lg9vtl73krp73tm0000gn/T//ccWixtG4.s 			page 15


 201      63F2A29F 
 201      EC
 202 0398 61E7B3AA 		.ascii	"a\347\263\252\327\3522\\G\251\276\324h\211\300>\207"
 202      D7EA325C 
 202      47A9BED4 
 202      6889C03E 
 202      87
 203 03a9 085CB28D 		.ascii	"\010\\\262\215\300\316\201\030nj\241\367\023\011\327"
 203      C0CE8118 
 203      6E6AA1F7 
 203      1309D7
 204 03b8 10F2F8CA 		.ascii	"\020\362\370\312 \022\304\232\326\026\230\235\0160\373"
 204      2012C49A 
 204      D616989D 
 204      0E30FB
 205 03c7 CC309F44 		.ascii	"\3140\237D\0354z*\276\365\314W\030\216>J\037&\0228Y"
 205      1D347A2A 
 205      BEF5CC57 
 205      188E3E4A 
 205      1F261238 
 206 03dc C79D48A9 		.ascii	"\307\235H\251p*\322\376\224\312\312\321A\332\024-\025"
 206      702AD2FE 
 206      94CACAD1 
 206      41DA142D 
 206      15
 207 03ed 82E2CA60 		.ascii	"\202\342\312`\234\242H\021\227\207\274\353c\212\274"
 207      9CA24811 
 207      9787BCEB 
 207      638ABC
 208 03fc 46D8F711 		.ascii	"F\330\367\021yS0\020\375\220-\027\256\325\343\365\024"
 208      79533010 
 208      FD902D17 
 208      AED5E3F5 
 208      14
 209 040d B28542E6 		.ascii	"\262\205B\346\342\311cP\263,\023S\227g\224_\236Y\"W"
 209      E2C96350 
 209      B32C1353 
 209      9767945F 
 209      9E592257 
 210 0421 617B75A6 		.ascii	"a{u\2465%\243'\331\373\361\030d\337\024t:#\202\004\337"
 210      3525A327 
 210      D9FBF118 
 210      64DF1474 
 210      3A238204 
 211 0436 4C478F81 		.ascii	"LG\217\201\336\027\205\273\355\237\323x\003\245\026"
 211      DE1785BB 
 211      ED9FD378 
 211      03A516
 212 0445 D0EDB32D 		.ascii	"\320\355\263-\250\223\305'\254\275\241\270\2428\351"
 212      A893C527 
 212      ACBDA1B8 
 212      A238E9
 213 0454 C0686EF3 		.ascii	"\300hn\363\034\330\264\251\216\315l\004\337\301,\214"
 213      1CD8B4A9 
 213      8ECD6C04 
 213      DFC12C8C 
 214 0464 03963A15 		.ascii	"\003\226:\025\002\330Y\314K\220\201A\325\252w\037\304"
ARM GAS  /var/folders/c6/c789hm653lg9vtl73krp73tm0000gn/T//ccWixtG4.s 			page 16


 214      02D859CC 
 214      4B908141 
 214      D5AA771F 
 214      C4
 215 0475 58AD6AAA 		.ascii	"X\255j\252Ld\015\030\337\025-n-|\324\256L1\323\342b"
 215      4C640D18 
 215      DF152D6E 
 215      2D7CD4AE 
 215      4C31D3E2 
 216 048a 7B5E82EF 		.ascii	"{^\202\357\363\"\342\201\310Q>%\372\311^\0023\277{\235"
 216      F322E281 
 216      C8513E25 
 216      FAC95E02 
 216      33BF7B9D 
 217 049e F7757651 		.ascii	"\367uvQ\247<\270g\254\217\177\347+9\360\277\013\344"
 217      A73CB867 
 217      AC8F7FE7 
 217      2B39F0BF 
 217      0BE4
 218 04b0 7FFB3203 		.ascii	"\177\3732\003%\256='\363+\024\203\371?\206l\336c2\177"
 218      25AE3D27 
 218      F32B1483 
 218      F93F866C 
 218      DE63327F 
 219 04c4 5F8D950A 		.ascii	"_\215\225\012\225PV\016F\227]\271'u=4\350\2723d]\236"
 219      9550560E 
 219      46975DB9 
 219      27753D34 
 219      E8BA3364 
 220 04da 8CD51119 		.ascii	"\214\325\021\031F\360]^\037R\205=W\362g\203\362\310"
 220      46F05D5E 
 220      1F52853D 
 220      57F26783 
 220      F2C8
 221 04ec 5AD112D0 		.ascii	"Z\321\022\320\333\016H\230\376U\351\200\232U\3166\003"
 221      DB0E4898 
 221      FE55E980 
 221      9A55CE36 
 221      03
 222 04fd 356C3F21 		.ascii	"5l?!d\317Fp\223\"v>\317a\232\302\000\034N\020>Q\322"
 222      64CF4670 
 222      9322763E 
 222      CF619AC2 
 222      001C4E10 
 223 0514 89E8CE4F 		.ascii	"\211\350\316Ow\214\231\233\346\202\370>\264\236\237"
 223      778C999B 
 223      E682F83E 
 223      B49E9F
 224 0523 1920562B 		.ascii	"\031 V+\306\363\023~d\336\202\363(\265n\037\242{\264"
 224      C6F3137E 
 224      64DE82F3 
 224      28B56E1F 
 224      A27BB4
 225 0536 95C20973 		.ascii	"\225\302\011s\273L\370\302\317\311S\321M\253\332\214"
 225      BB4CF8C2 
 225      CFC953D1 
 225      4DABDA8C 
ARM GAS  /var/folders/c6/c789hm653lg9vtl73krp73tm0000gn/T//ccWixtG4.s 			page 17


 226 0546 87F56D7E 		.ascii	"\207\365m~X\177\232c1f>3\230\265\265`\255\004}\226\323"
 226      587F9A63 
 226      31663E33 
 226      98B5B560 
 226      AD047D96 
 227 055b 46F30C56 		.ascii	"F\363\014Vg\013\015b\011\205\311\350\226\036\363/\347"
 227      670B0D62 
 227      0985C9E8 
 227      961EF32F 
 227      E7
 228 056c E4F9D95A 		.ascii	"\344\371\331Z(v\2364\021O\231\230(M\254\037rT78D5\371"
 228      28769E34 
 228      114F9998 
 228      284DAC1F 
 228      72543738 
 229 0583 7F0327B9 		.ascii	"\177\003'\271\226tB\224\240=\340S\353\354\264y\221\211"
 229      96744294 
 229      A03DE053 
 229      EBECB479 
 229      9189
 230 0595 CC99261A 		.ascii	"\314\231&\032\335:\\$|\252\340\026\031\312\364\211m"
 230      DD3A5C24 
 230      7CAAE016 
 230      19CAF489 
 230      6D
 231 05a6 2A725572 		.ascii	"*rUr\357Kq\033KU\211B\370\233\314EK\372\236\314r\036"
 231      EF4B711B 
 231      4B558942 
 231      F89BCC45 
 231      4BFA9ECC 
 232 05bc B4A6D15A 		.ascii	"\264\246\321Z\244n\244W<Cj\223\243\324\271,\2666;J\235"
 232      A46EA457 
 232      3C436A93 
 232      A3D4B92C 
 232      B6363B4A 
 233 05d1 CF22B5C5 		.ascii	"\317\"\265\305Q\2527\213\324VG\251+Y\244\332\034\245"
 233      51AA378B 
 233      D45647A9 
 233      2B59A4DA 
 233      1CA5
 234 05e3 7AB2486D 		.ascii	"z\262Hm3\034\001S\275^\237\370\013G|\232\356\253\016"
 234      331C0153 
 234      BD5E9FF8 
 234      0B477C9A 
 234      EEAB0E
 235 05f6 05827595 		.ascii	"\005\202u\225\252/PU\243\326\324\206\303\301\210\267"
 235      AA2F5055 
 235      A3D6D486 
 235      C3C188B7 
 236 0606 0A8D847E 		.ascii	"\012\215\204~X[\356g\337~}\330\253o.\360\314E\005\374"
 236      585BEE67 
 236      DF7E7DD8 
 236      AB6F2EF0 
 236      CC4505FC 
 237 061a AB4A2595 		.ascii	"\253J%\225\2526\274\266\312\037R\227\351\303kj\371\373"
 237      AA36BCB6 
 237      CA1F5297 
ARM GAS  /var/folders/c6/c789hm653lg9vtl73krp73tm0000gn/T//ccWixtG4.s 			page 18


 237      E9C36B6A 
 237      F9FB
 238 062c 1D5F5D44 		.ascii	"\035_]D\363\005\303\001\022\364\315U\203A\242\371\026"
 238      F305C301 
 238      12F4CD55 
 238      8341A2F9 
 238      16
 239 063d 07023388 		.ascii	"\007\0023\210V3#\024\016\2513T\262\260\332\367|iYy\351"
 239      56332314 
 239      0EA93354 
 239      B2B0DAF7 
 239      7C695979 
 240 0652 CCD2177C 		.ascii	"\314\322\027|\301\352\205l\332g\236.\367\316\364\226"
 240      C1EA856C 
 240      DA679E2E 
 240      F7CEF496 
 241 0662 A7F044F4 		.ascii	"\247\360D\364\312Ju\021`\031\026\251\376@\365\353\205"
 241      CA4A7511 
 241      601916A9 
 241      FE40F5EB 
 241      85
 242 0673 6029BCF0 		.ascii	"`)\274\360=5\240\373\331\300S\331\334\010\2045\025$"
 242      3D35A0FB 
 242      D9C053D9 
 242      DC088435 
 242      1524
 243 0685 DDD05DAC 		.ascii	"\335\320]\254\352\213\352B\001\277^\000\362\265Z\370"
 243      EA8BEA42 
 243      01BF5E00 
 243      F2B55AF8 
 244 0695 FD6A403F 		.ascii	"\375j@?)%\254\253\021\235\211\263\267p>\200F\206\352"
 244      2925ACAB 
 244      119D89B3 
 244      B7703E80 
 244      4686EA
 245 06a8 82C1146F 		.ascii	"\202\301\024o\016\263\346\346se\376\210\252\327\325"
 245      0EB3E6E6 
 245      7365FE88 
 245      AAD7D5
 246 06b7 8E951FEA 		.ascii	"\216\225\037\35225P\247\253\336Z\242\351\336\322B\363"
 246      323550A7 
 246      ABDE5AA2 
 246      E9DED242 
 246      F3
 247 06c8 E8E840D5 		.ascii	"\350\350@\325|\030x\213#~-T\255\217\020\003\257h\252"
 247      7C18788B 
 247      237E2D54 
 247      AD8F1003 
 247      AF68AA
 248 06db 5A20BA73 		.ascii	"Z \272s\202\020\257b[(\000>\327\377\022\360\270\375"
 248      8210AF62 
 248      5B28003E 
 248      D7FF12F0 
 248      B8FD
 249 06ed ECD34F22 		.ascii	"\354\323O\"\021U\323G\011\271\327\303\244r\216\246\221"
 249      1155D347 
 249      09B9D7C3 
ARM GAS  /var/folders/c6/c789hm653lg9vtl73krp73tm0000gn/T//ccWixtG4.s 			page 19


 249      A4728EA6 
 249      91
 250 06fe E5AE9ADA 		.ascii	"\345\256\232\3322e)\311c,\001\022Qs\002UD\313\011\221"
 250      326529C9 
 250      632C0112 
 250      51730255 
 250      44CB0991 
 251 0712 1A359703 		.ascii	"\0325\227\003\205\011\242U\206\227\206\206KP\356Z\242"
 251      8509A255 
 251      86978686 
 251      4B50EE5A 
 251      A2
 252 0723 EBAA16E2 		.ascii	"\353\252\026\342PG\244|.+\362j\341J\242\023ozh\342\033"
 252      5047A47C 
 252      2E2BF26A 
 252      E14AA213 
 252      6F7A68E2 
 253 0738 3C033CCC 		.ascii	"<\003<\314`\3449\317\222:\265N\365U\252\374\215\376"
 253      60E439CF 
 253      923AB54E 
 253      F555AAFC 
 253      8DFE
 254 074a 038E6466 		.ascii	"\003\216df;"
 254      3B
 255              		.text
 256              		.section	.gnu.lto_.symtab.5e3975814e75ce12,"",%progbits
 257 0000 70617474 		.ascii	"patternpools\000\000\000\000\000\000\000\000\000\000"
 257      65726E70 
 257      6F6F6C73 
 257      00000000 
 257      00000000 
 258 0016 0000F200 		.ascii	"\000\000\362\000\000\000testpools1\000\000\000\000\000"
 258      00007465 
 258      7374706F 
 258      6F6C7331 
 258      00000000 
 259 002b 00000000 		.ascii	"\000\000\000\000\000\000\000\015\001\000\000wa\000\000"
 259      0000000D 
 259      01000077 
 259      610000
 260 003a 02000000 		.ascii	"\002\000\000\000\000\000\000\000\000\000\355\000\000"
 260      00000000 
 260      0000ED00 
 260      00
 261 0047 00636850 		.ascii	"\000chPoolObjectInit\000\000\002\000\000\000\000\000"
 261      6F6F6C4F 
 261      626A6563 
 261      74496E69 
 261      74000002 
 262 0060 00000000 		.ascii	"\000\000\000\000\315\000\000\000chPoolFree\000\000\002"
 262      CD000000 
 262      6368506F 
 262      6F6C4672 
 262      65650000 
 263 0075 00000000 		.ascii	"\000\000\000\000\000\000\000\000\000\323\000\000\000"
 263      00000000 
 263      00D30000 
ARM GAS  /var/folders/c6/c789hm653lg9vtl73krp73tm0000gn/T//ccWixtG4.s 			page 20


 263      00
 264 0082 6368506F 		.ascii	"chPoolAlloc\000\000\002\000\000\000\000\000\000\000"
 264      6F6C416C 
 264      6C6F6300 
 264      00020000 
 264      00000000 
 265 0097 0000D800 		.ascii	"\000\000\330\000\000\000_test_assert\000\000\002\000"
 265      00005F74 
 265      6573745F 
 265      61737365 
 265      72740000 
 266 00ad 00000000 		.ascii	"\000\000\000\000\000\000\000\000\334\000\000\000chP"
 266      00000000 
 266      DC000000 
 266      636850
 267 00bc 6F6F6C4C 		.ascii	"oolLoadArray\000\000\002\000\000\000\000\000\000\000"
 267      6F616441 
 267      72726179 
 267      00000200 
 267      00000000 
 268 00d2 0000E400 		.ascii	"\000\000\344\000\000\000"
 268      0000
 269              		.text
 270              		.section	.gnu.lto_.opts,"",%progbits
 271 0000 272D6D63 		.ascii	"'-mcpu=cortex-m4' '-mno-thumb-interwork' '-mthumb' "
 271      70753D63 
 271      6F727465 
 271      782D6D34 
 271      2720272D 
 272 0033 272D6767 		.ascii	"'-ggdb' '-O2' '-fomit-frame-pointer' '-falign-funct"
 272      64622720 
 272      272D4F32 
 272      2720272D 
 272      666F6D69 
 273 0066 696F6E73 		.ascii	"ions=16' '-ffunction-sections' '-fdata-sections' '-"
 273      3D313627 
 273      20272D66 
 273      66756E63 
 273      74696F6E 
 274 0099 666E6F2D 		.ascii	"fno-common' '-flto'\000"
 274      636F6D6D 
 274      6F6E2720 
 274      272D666C 
 274      746F2700 
 275              		.text
 276              		.cfi_sections	.debug_frame
 277              		.section	.text.null_provider,"ax",%progbits
 278              		.align	2
 279              		.p2align 4,,15
 280              		.thumb
 281              		.thumb_func
 282              		.type	null_provider, %function
 283              	null_provider:
 284              	.LFB229:
 285              		.file 1 "../../../test/rt/testpools.c"
 286              		.loc 1 60 0
 287              		.cfi_startproc
ARM GAS  /var/folders/c6/c789hm653lg9vtl73krp73tm0000gn/T//ccWixtG4.s 			page 21


 288              		@ args = 0, pretend = 0, frame = 0
 289              		@ frame_needed = 0, uses_anonymous_args = 0
 290              		@ link register save eliminated.
 291              	.LVL0:
 292              		.loc 1 64 0
 293 0000 0020     		movs	r0, #0
 294              	.LVL1:
 295 0002 7047     		bx	lr
 296              		.cfi_endproc
 297              	.LFE229:
 298              		.size	null_provider, .-null_provider
 299 0004 AFF30080 		.section	.text.pools1_setup,"ax",%progbits
 299      AFF30080 
 299      AFF30080 
 300              		.align	2
 301              		.p2align 4,,15
 302              		.thumb
 303              		.thumb_func
 304              		.type	pools1_setup, %function
 305              	pools1_setup:
 306              	.LFB230:
 307              		.loc 1 66 0
 308              		.cfi_startproc
 309              		@ args = 0, pretend = 0, frame = 0
 310              		@ frame_needed = 0, uses_anonymous_args = 0
 311              		@ link register save eliminated.
 312              		.loc 1 68 0
 313 0000 0248     		ldr	r0, .L3
 314 0002 4FF4A471 		mov	r1, #328
 315 0006 0022     		movs	r2, #0
 316 0008 FFF7FEBF 		b	chPoolObjectInit
 317              	.LVL2:
 318              	.L4:
 319              		.align	2
 320              	.L3:
 321 000c 00000000 		.word	.LANCHOR0
 322              		.cfi_endproc
 323              	.LFE230:
 324              		.size	pools1_setup, .-pools1_setup
 325              		.section	.text.pools1_execute,"ax",%progbits
 326              		.align	2
 327              		.p2align 4,,15
 328              		.thumb
 329              		.thumb_func
 330              		.type	pools1_execute, %function
 331              	pools1_execute:
 332              	.LFB231:
 333              		.loc 1 71 0
 334              		.cfi_startproc
 335              		@ args = 0, pretend = 0, frame = 0
 336              		@ frame_needed = 0, uses_anonymous_args = 0
 337 0000 38B5     		push	{r3, r4, r5, lr}
 338              		.cfi_def_cfa_offset 16
 339              		.cfi_offset 3, -16
 340              		.cfi_offset 4, -12
 341              		.cfi_offset 5, -8
 342              		.cfi_offset 14, -4
ARM GAS  /var/folders/c6/c789hm653lg9vtl73krp73tm0000gn/T//ccWixtG4.s 			page 22


 343              		.loc 1 75 0
 344 0002 2C4B     		ldr	r3, .L18
 345 0004 2C48     		ldr	r0, .L18+4
 346 0006 1D68     		ldr	r5, [r3]
 347 0008 0522     		movs	r2, #5
 348 000a 2946     		mov	r1, r5
 349 000c FFF7FEFF 		bl	chPoolLoadArray
 350              	.LVL3:
 351 0010 0524     		movs	r4, #5
 352              	.LVL4:
 353              	.L9:
 354              		.loc 1 79 0
 355 0012 2948     		ldr	r0, .L18+4
 356 0014 FFF7FEFF 		bl	chPoolAlloc
 357              	.LVL5:
 358 0018 011C     		adds	r1, r0, #0
 359 001a 18BF     		it	ne
 360 001c 0121     		movne	r1, #1
 361 001e 0120     		movs	r0, #1
 362 0020 FFF7FEFF 		bl	_test_assert
 363              	.LVL6:
 364 0024 A0BB     		cbnz	r0, .L5
 365              		.loc 1 78 0
 366 0026 013C     		subs	r4, r4, #1
 367              	.LVL7:
 368 0028 F3D1     		bne	.L9
 369              		.loc 1 82 0
 370 002a 2348     		ldr	r0, .L18+4
 371 002c FFF7FEFF 		bl	chPoolAlloc
 372              	.LVL8:
 373 0030 D0F10101 		rsbs	r1, r0, #1
 374 0034 38BF     		it	cc
 375 0036 0021     		movcc	r1, #0
 376 0038 0220     		movs	r0, #2
 377 003a FFF7FEFF 		bl	_test_assert
 378              	.LVL9:
 379 003e 38BB     		cbnz	r0, .L5
 380 0040 1C4C     		ldr	r4, .L18
 381              	.LVL10:
 382              	.LBB4:
 383              	.LBB5:
 384              		.loc 1 86 0
 385 0042 1D48     		ldr	r0, .L18+4
 386              	.LBE5:
 387              	.LBE4:
 388              		.loc 1 82 0
 389 0044 2946     		mov	r1, r5
 390 0046 04F11005 		add	r5, r4, #16
 391              	.LBB8:
 392              	.LBB6:
 393              		.loc 1 86 0
 394 004a FFF7FEFF 		bl	chPoolFree
 395              	.LVL11:
 396              		.loc 1 85 0
 397 004e AC42     		cmp	r4, r5
 398 0050 06D0     		beq	.L11
 399              	.L16:
ARM GAS  /var/folders/c6/c789hm653lg9vtl73krp73tm0000gn/T//ccWixtG4.s 			page 23


 400 0052 54F8041F 		ldr	r1, [r4, #4]!
 401              		.loc 1 86 0
 402 0056 1848     		ldr	r0, .L18+4
 403 0058 FFF7FEFF 		bl	chPoolFree
 404              	.LVL12:
 405              		.loc 1 85 0
 406 005c AC42     		cmp	r4, r5
 407 005e F8D1     		bne	.L16
 408              	.L11:
 409 0060 0524     		movs	r4, #5
 410              	.L14:
 411              	.LVL13:
 412              		.loc 1 90 0
 413 0062 1548     		ldr	r0, .L18+4
 414 0064 FFF7FEFF 		bl	chPoolAlloc
 415              	.LVL14:
 416 0068 011C     		adds	r1, r0, #0
 417 006a 18BF     		it	ne
 418 006c 0121     		movne	r1, #1
 419 006e 0320     		movs	r0, #3
 420 0070 FFF7FEFF 		bl	_test_assert
 421              	.LVL15:
 422 0074 60B9     		cbnz	r0, .L5
 423              		.loc 1 89 0
 424 0076 013C     		subs	r4, r4, #1
 425              	.LVL16:
 426 0078 F3D1     		bne	.L14
 427              		.loc 1 93 0
 428 007a 0F48     		ldr	r0, .L18+4
 429 007c FFF7FEFF 		bl	chPoolAlloc
 430              	.LVL17:
 431 0080 D0F10101 		rsbs	r1, r0, #1
 432 0084 38BF     		it	cc
 433 0086 0021     		movcc	r1, #0
 434 0088 0420     		movs	r0, #4
 435 008a FFF7FEFF 		bl	_test_assert
 436              	.LVL18:
 437 008e 00B1     		cbz	r0, .L17
 438              	.LVL19:
 439              	.L5:
 440 0090 38BD     		pop	{r3, r4, r5, pc}
 441              	.LVL20:
 442              	.L17:
 443              		.loc 1 96 0
 444 0092 1021     		movs	r1, #16
 445 0094 0848     		ldr	r0, .L18+4
 446 0096 094A     		ldr	r2, .L18+8
 447 0098 FFF7FEFF 		bl	chPoolObjectInit
 448              	.LVL21:
 449              		.loc 1 97 0
 450 009c 0648     		ldr	r0, .L18+4
 451 009e FFF7FEFF 		bl	chPoolAlloc
 452              	.LVL22:
 453 00a2 D0F10101 		rsbs	r1, r0, #1
 454 00a6 38BF     		it	cc
 455 00a8 0021     		movcc	r1, #0
 456 00aa 0520     		movs	r0, #5
ARM GAS  /var/folders/c6/c789hm653lg9vtl73krp73tm0000gn/T//ccWixtG4.s 			page 24


 457              	.LBE6:
 458              	.LBE8:
 459              		.loc 1 98 0
 460 00ac BDE83840 		pop	{r3, r4, r5, lr}
 461              	.LVL23:
 462              	.LBB9:
 463              	.LBB7:
 464              		.loc 1 97 0
 465 00b0 FFF7FEBF 		b	_test_assert
 466              	.LVL24:
 467              	.L19:
 468              		.align	2
 469              	.L18:
 470 00b4 00000000 		.word	wa
 471 00b8 00000000 		.word	.LANCHOR0
 472 00bc 00000000 		.word	null_provider
 473              	.LBE7:
 474              	.LBE9:
 475              		.cfi_endproc
 476              	.LFE231:
 477              		.size	pools1_execute, .-pools1_execute
 478              		.global	patternpools
 479              		.global	testpools1
 480              		.section	.rodata.str1.4,"aMS",%progbits,1
 481              		.align	2
 482              	.LC0:
 483 0000 4D656D6F 		.ascii	"Memory Pools, queue/dequeue\000"
 483      72792050 
 483      6F6F6C73 
 483      2C207175 
 483      6575652F 
 484              		.section	.rodata.patternpools,"a",%progbits
 485              		.align	2
 486              		.type	patternpools, %object
 487              		.size	patternpools, 8
 488              	patternpools:
 489 0000 00000000 		.word	testpools1
 490 0004 00000000 		.word	0
 491              		.section	.data.mp1,"aw",%progbits
 492              		.align	2
 493              		.set	.LANCHOR0,. + 0
 494              		.type	mp1, %object
 495              		.size	mp1, 12
 496              	mp1:
 497 0000 00000000 		.word	0
 498 0004 48010000 		.word	328
 499 0008 00000000 		.word	0
 500              		.section	.rodata.testpools1,"a",%progbits
 501              		.align	2
 502              		.type	testpools1, %object
 503              		.size	testpools1, 16
 504              	testpools1:
 505 0000 00000000 		.word	.LC0
 506 0004 00000000 		.word	pools1_setup
 507 0008 00000000 		.word	0
 508 000c 00000000 		.word	pools1_execute
 509              		.text
ARM GAS  /var/folders/c6/c789hm653lg9vtl73krp73tm0000gn/T//ccWixtG4.s 			page 25


 510              	.Letext0:
 511              		.file 2 "/usr/local/Cellar/gcc-arm-none-eabi/20140805/lib/gcc/arm-none-eabi/4.8.4/include/stddef.h
 512              		.file 3 "/usr/local/Cellar/gcc-arm-none-eabi/20140805/arm-none-eabi/include/machine/_default_types
 513              		.file 4 "/usr/local/Cellar/gcc-arm-none-eabi/20140805/arm-none-eabi/include/stdint.h"
 514              		.file 5 "../../../os/rt/ports/ARMCMx/compilers/GCC/chtypes.h"
 515              		.file 6 "../../../os/rt/include/chsystypes.h"
 516              		.file 7 "../../../os/rt/include/chschd.h"
 517              		.file 8 "../../../os/rt/ports/ARMCMx/chcore.h"
 518              		.file 9 "../../../os/rt/ports/ARMCMx/chcore_v7m.h"
 519              		.file 10 "../../../os/rt/include/chtm.h"
 520              		.file 11 "../../../os/rt/include/chsem.h"
 521              		.file 12 "../../../os/rt/include/chmtx.h"
 522              		.file 13 "../../../os/rt/include/chmemcore.h"
 523              		.file 14 "../../../os/rt/include/chmempools.h"
 524              		.file 15 "../../../test/rt/test.h"
 525              		.file 16 "../../../os/ext/CMSIS/include/core_cm4.h"