ARM GAS  /var/folders/c6/c789hm653lg9vtl73krp73tm0000gn/T//ccCzjVT0.s 			page 1


   1              		.syntax unified
   2              		.cpu cortex-m4
   3              		.fpu softvfp
   4              		.eabi_attribute 20, 1
   5              		.eabi_attribute 21, 1
   6              		.eabi_attribute 23, 3
   7              		.eabi_attribute 24, 1
   8              		.eabi_attribute 25, 1
   9              		.eabi_attribute 26, 1
  10              		.eabi_attribute 30, 2
  11              		.eabi_attribute 34, 1
  12              		.eabi_attribute 18, 4
  13              		.thumb
  14              		.file	"testmsg.c"
  15              		.text
  16              	.Ltext0:
  17              		.section	.gnu.lto_.jmpfuncs.124cae451a8a9a02,"",%progbits
  18 0000 789C6362 		.ascii	"x\234cb`b\300\006f\0031+\020\003e\231\230\"\0303\031"
  18      6062C006 
  18      6603312B 
  18      10036599 
  18      98221833 
  19 0015 191881AC 		.ascii	"\031\030\201\254j\206_\0153\032\0042\031\031\345\030"
  19      6A865F0D 
  19      331A0432 
  19      1919E518 
  20 0025 18E736CC 		.ascii	"\030\3476\314p\310d\204hgd`\300\305\000\232\0021\340"
  20      70C86484 
  20      68676460 
  20      C0C5009A 
  20      0231E0
  21 0038 04980F36 		.ascii	"\004\230\0176\243\003d\006s2#\3242fF&f U\006U\311\342"
  21      A3036406 
  21      733223D4 
  21      32664626 
  21      66205506 
  22 004f 0C64A008 		.ascii	"\014d\240\0108\241\0138\0029,\216N\316\014\000d\375"
  22      38A10B38 
  22      02392C8E 
  22      4ECE0C00 
  22      64FD
  23 0061 1256     		.ascii	"\022V"
  24              		.text
  25              		.section	.gnu.lto_.inline.124cae451a8a9a02,"",%progbits
  26 0000 789C6362 		.ascii	"x\234cb`b\300\006&Ci\240\254V\017##\003\223@C-\003\333"
  26      6062C006 
  26      264369A0 
  26      AC560F23 
  26      23039340 
  27 0018 0279B06A 		.ascii	"\002y\260jf\036\260\004\0237\003\003\343\004?0o\202"
  27      661EB004 
  27      13370303 
  27      E3043F30 
  27      6F82
  28 002a DF043F10 		.ascii	"\337\004?\020\237\004Av\001\006\006\326\011~\014`\304"
  28      9F044176 
  28      010606D6 
ARM GAS  /var/folders/c6/c789hm653lg9vtl73krp73tm0000gn/T//ccCzjVT0.s 			page 2


  28      097E0C60 
  28      C4
  29 003b CCC0A3C6 		.ascii	"\314\300\243\306\010v\013\212%@9t\232\001\000a\243\022"
  29      08760B8A 
  29      25403974 
  29      9A010061 
  29      A312
  30 004d 0D       		.ascii	"\015"
  31              		.text
  32              		.section	.gnu.lto_.pureconst.124cae451a8a9a02,"",%progbits
  33 0000 789C6362 		.ascii	"x\234cb`b`e\200\000&\006If\011\000\001\005\000@"
  33      60626065 
  33      80002606 
  33      49660900 
  33      01050040 
  34              		.text
  35              		.section	.gnu.lto_msg1_execute.124cae451a8a9a02,"",%progbits
  36 0000 789CAD94 		.ascii	"x\234\255\224\317O\023A\024\307\337\333\266\320Zm)\026"
  36      CF4F1341 
  36      14C7DFDB 
  36      B6D05A6D 
  36      2916
  37 0012 4A29BFD4 		.ascii	"J)\277\324\033\306\326\230x\360\346\217\177\001\023"
  37      1BC6D698 
  37      78F0E68F 
  37      7F0113
  38 0021 3DD685B4 		.ascii	"=\326\205\264\233X5\264\236<0\264`8`R\361\000\210DP"
  38      9B5835B4 
  38      9E3C30B4 
  38      60386052 
  38      F1008844 
  39 0036 0F0A3584 		.ascii	"\017\0125\204\020\023\242&6\222\030\010(r5\036\032P"
  39      1013A226 
  39      36921808 
  39      2872351E 
  39      1A50
  40 0048 63E2C518 		.ascii	"c\342\305\030\023\0235\326\367f\177\324\002\002\007"
  40      131335D6 
  40      F7667FD4 
  40      020207
  41 0057 36EDECDB 		.ascii	"6\355\354\333\231\367\276\363\235\317\316\254\002\012"
  41      99F7BEF3 
  41      9DCFCEAC 
  41      020A
  42 0065 ACBF82F4 		.ascii	"\254\277\202\364\377V\001\220\240;\332\000\225\354\033"
  42      FF560190 
  42      A03BDA00 
  42      95EC1B
  43 0074 806EA782 		.ascii	"\200n\247\202\310\001 t)\330u\0369\025\017\302\270\020"
  43      C8012074 
  43      29D8751E 
  43      39150FC2 
  43      B810
  44 0086 03858FAB 		.ascii	"\003\205\217\253\237qX\344{\306\304\357b\021QC\222m"
  44      9F7158E4 
  44      7BC6C4EF 
  44      62115143 
ARM GAS  /var/folders/c6/c789hm653lg9vtl73krp73tm0000gn/T//ccCzjVT0.s 			page 3


  44      926D
  45 0098 425011CE 		.ascii	"BP\021\316\321\003\266\310\233b/\237gJ\311\027\212\305"
  45      D103B6C8 
  45      9B622F9F 
  45      674AC917 
  45      8AC5
  46 00aa DCF4D8EA 		.ascii	"\334\364\330\352,\372\032\024\320\320f\243\306\356\240"
  46      2CFA1A14 
  46      D0D066A3 
  46      C6EEA0
  47 00b9 069C10C5 		.ascii	"\006\234\020\305q\222w\321\203\303MM\205\307\350\361"
  47      719277D1 
  47      83C34D4D 
  47      85C7E8F1 
  48 00c9 728F8F7B 		.ascii	"r\217\217{\374FO\015\367\004\270\247\236KC\324T\222"
  48      FC464F0D 
  48      F704B8A7 
  48      9E4B43D4 
  48      5492
  49 00db BE037A84 		.ascii	"\276\003z\204\310\266\3509\322h6?\374\252?(\306\322"
  49      C8B6E839 
  49      D268363F 
  49      FCAA3F28 
  49      C6D2
  50 00ed 59F1877C 		.ascii	"Y\361\207|j\350T\340\300v6\201\307\351j\243\226\001"
  50      6AE854E0 
  50      C0763681 
  50      C7E96AA3 
  50      9601
  51 00ff 9C4585EF 		.ascii	"\234E\205\357\266\327\220~?\373i\336\036\305\373\350"
  51      B6D7907E 
  51      3FFB69DE 
  51      1EC5FBE8 
  52 010f 80182A47 		.ascii	"\200\030*G '\2524t\215\300\355\356,G{\256\301O1\304"
  52      2027AA34 
  52      748DC0ED 
  52      EE2C477B 
  52      AEC14F31 
  53 0124 913B2125 		.ascii	"\221;!%X\336\015f\264\367\237)H\354\335\363[\337\217"
  53      58DE0D66 
  53      B4F79F29 
  53      48ECDDF3 
  53      5BDF8F
  54 0137 199E4DF3 		.ascii	"\031\236M\363\342\307`\304Z\210\031\344\027\227\246"
  54      E2C760C4 
  54      5A8819E4 
  54      1797A6
  55 0146 7DA4A74F 		.ascii	"}\244\247O\254\"\352\036\345\213\214a\375a\230\020B"
  55      AC22EA1E 
  55      E58B8C61 
  55      FD619810 
  55      42
  56 0157 1446C607 		.ascii	"\024F\306\007[\011\206\376$Nh\270\217}\011v\343a_}\034"
  56      5B0986FE 
  56      244E68B8 
  56      8F7D0976 
  56      E3615F7D 
ARM GAS  /var/folders/c6/c789hm653lg9vtl73krp73tm0000gn/T//ccCzjVT0.s 			page 4


  57 016c 7913B29A 		.ascii	"y\023\262\232\335x\245\217\013\374\030\305\011\022\246"
  57      DD78A58F 
  57      0BFC18C5 
  57      0912A6
  58 017b 18AD5877 		.ascii	"\030\255Xw8\373\"\030\305I\271\332\220!\234$\326\226"
  58      38FB2218 
  58      C549B9DA 
  58      90219C24 
  58      D696
  59 018d 70154DCF 		.ascii	"p\025M\317Z`h)\\\2373\3533}s\213K7]&/\033\211p\262\235"
  59      5A606829 
  59      5C9F33EB 
  59      337D738B 
  59      4B375D26 
  60 01a7 D397A1CE 		.ascii	"\323\227\241\316\354wX\356|*m?}U\012gV\317+\\\307\343"
  60      EC7758EE 
  60      7C2A6D3F 
  60      7D550A67 
  60      56CF2B5C 
  61 01bd 4E0DF7AB 		.ascii	"N\015\367\253h\260\347Uk\350\227\036\027\336V\352\235"
  61      68B0E755 
  61      6BE8971E 
  61      17DE56EA 
  61      9D
  62 01ce FC36E83A 		.ascii	"\3746\350:Nn,\1775\226tmB\362b\325\332M^H\214U\227!"
  62      4E6E2C7F 
  62      3596746D 
  62      42F262D5 
  62      DA4D5E48 
  63 01e6 53189943 		.ascii	"S\030\231C\323\227\323*\016\250\372\222h\237\325\001"
  63      D397D32A 
  63      0EA8FA92 
  63      689FD501 
  64 01f6 2C80A2A7 		.ascii	",\200\242\247\350\033\215\022\245\221\247\275S\375\215"
  64      E81B8D12 
  64      A591A7BD 
  64      53FD8D
  65 0205 ACC4FB81 		.ascii	"\254\304\373\201\267\032\015H6G\365)\026 ]\270\263f"
  65      B71A0D48 
  65      3647F529 
  65      16205DB8 
  65      B366
  66 0217 A8279886 		.ascii	"\250'\230\206SvRk\034\252\231\353\037Vp #\346EO\236"
  66      5376526B 
  66      1CAA99EB 
  66      1F567020 
  66      23E6454F 
  67 022c 766B33D5 		.ascii	"vk3\325F\361\036\371\336z\277&\030\032\011}}9\323`\032"
  67      46F11EF9 
  67      DE7ABF26 
  67      181A097D 
  67      7D39D360 
  68 0241 7B40C640 		.ascii	"{@\306@b\356-\214\256\031\204\000\254\025\005U\2540"
  68      62EE2D8C 
  68      AE198400 
  68      AC150555 
  68      AC30
ARM GAS  /var/folders/c6/c789hm653lg9vtl73krp73tm0000gn/T//ccCzjVT0.s 			page 5


  69 0253 164E3E5D 		.ascii	"\026N>]\032\326\3135|\311\374\352o5\327\357\246\001"
  69      1AD6CB35 
  69      7CC9FCEA 
  69      6F35D7EF 
  69      A601
  70 0265 56B06FA8 		.ascii	"V\260o\250\016\251\362\274q\265[\303\006\235\334\335"
  70      0EA9F2BC 
  70      71B55BC3 
  70      069DDCDD 
  71 0275 1239CF4E 		.ascii	"\0229\317N\311y\312\311y-r\236\365\344\036\226\221\363"
  71      C979CAC9 
  71      792D729E 
  71      F5E41E96 
  71      91F3
  72 0287 EC32B9F4 		.ascii	"\3542\271\364\223M\311=\332\232\234\207\034\227\310"
  72      934DC93D 
  72      DA9A9C87 
  72      1C97C8
  73 0296 4DDEB0C8 		.ascii	"M\336\260\310\371b|\272\266!\347\263\310M\226\310\371"
  73      F9627CBA 
  73      B621E7B3 
  73      C84D96C8 
  73      F9
  74 02a7 774ACE5F 		.ascii	"wJ\316_N\256\306\"\347_O.WF\316\277\333{nsr\217\267"
  74      4EAEC622 
  74      E75F4F2E 
  74      5746CEBF 
  74      DB7B6E73 
  75 02be 26E727C7 		.ascii	"&\347'\307%r\317J\344\0024\260-\271\200A\256\2670\245"
  75      2572CF4A 
  75      E40234B0 
  75      2DB98041 
  75      AEB730A5 
  76 02d2 6EC86B54 		.ascii	"n\310kT\371\\\031\007\274\032\345@\235\206MM\240\215"
  76      F95C1907 
  76      BC1AE540 
  76      9D864D4D 
  76      A08D
  77 02e4 8AA1931A 		.ascii	"\212\241\223\0326\033\337Q\002\333\002\260\002hJ\350"
  77      361BDF51 
  77      02DB02B0 
  77      02684AE8 
  78 02f4 571B7D04 		.ascii	"W\033}\004\351k\317\037\213P8\034\321\177\251\216d*"
  78      E96BCF1F 
  78      8B50381C 
  78      D17FA98E 
  78      642A
  79 0306 D29992F7 		.ascii	"\322\231\222\367D2\026VAI]\261Qt\310J\271\234\344\004"
  79      44321656 
  79      41495DB1 
  79      5174C84A 
  79      B99CE404 
  80 031a ED927AF1 		.ascii	"\355\222z\361j{GD\215\247\342\235\035\321\366d8\016"
  80      6A7B4744 
  80      8DA7E29D 
  80      1DD1F664 
  80      380E
ARM GAS  /var/folders/c6/c789hm653lg9vtl73krp73tm0000gn/T//ccCzjVT0.s 			page 6


  81 032c CDFFCD61 		.ascii	"\315\377\315a\2518\330O\235>\003\177\001\000\367\270"
  81      A938D84F 
  81      9D3E037F 
  81      0100F7B8 
  82 033c D1       		.ascii	"\321"
  83              		.text
  84              		.section	.gnu.lto_thread.124cae451a8a9a02,"",%progbits
  85 0000 789C6362 		.ascii	"x\234cb`b@\007\222@\374\024\210e\201\230\221\231\201"
  85      60624007 
  85      9240FC14 
  85      88658198 
  85      919981
  86 0013 9169C239 		.ascii	"\221i\3029\006\206F\016&FF\020\203\201\221\241\236\211"
  86      0686460E 
  86      26464610 
  86      838191A1 
  86      9E89
  87 0025 B13E9211 		.ascii	"\261>\222\021\254v=\323\201\007\377\377\257\373\266"
  87      AC763DD3 
  87      8107FFFF 
  87      AFFBB6
  88 0034 F05107A3 		.ascii	"\360Q\007\243 \033\023c.X\230\225\241\245\241a\202\002"
  88      201B1363 
  88      2E589895 
  88      A1A5A161 
  88      8202
  89 0046 03433298 		.ascii	"\003C2\230\033\002$AZC\031\231@4\363y\206\326\007\177"
  89      1B022441 
  89      5A431999 
  89      4034F379 
  89      86D6077F 
  90 005a 2D121917 		.ascii	"-\022\031\0272\262\002e\253\031~5t4\010d2\002UC\014"
  90      32B20265 
  90      AB197E35 
  90      74340864 
  90      32025543 
  91 006f 4D67648A 		.ascii	"Mgd\212`\314ddtd\310\004\352`\000*_PGX\265\023Bu=a\325"
  91      60CC6464 
  91      7464C804 
  91      EA60002A 
  91      5F504758 
  92 008a CE10D517 		.ascii	"\316\020\325\027\031\032\037t(\303\224C@\010P)\320\231"
  92      191A1F74 
  92      28C39443 
  92      40085029 
  92      D099
  93 009c A08091D6 		.ascii	"\240\200\221\326\323\323\207\240\222\324\342\022\375"
  93      D3D387A0 
  93      92D4E212 
  93      FD
  94 00a9 A212309D 		.ascii	"\242\0220\235[\234\256\227\314\000\000?\201>\341"
  94      5B9CAE97 
  94      CC00003F 
  94      813EE1
  95              		.text
  96              		.section	.gnu.lto_.symbol_nodes.124cae451a8a9a02,"",%progbits
  97 0000 789C4DCC 		.ascii	"x\234M\314M\012\3020\024\004\340\231\244\265V\275\203"
ARM GAS  /var/folders/c6/c789hm653lg9vtl73krp73tm0000gn/T//ccCzjVT0.s 			page 7


  97      4D0AC230 
  97      1404E099 
  97      A4B556BD 
  97      83
  98 0011 67F324AF 		.ascii	"g\363$\257\220\205HA\305\265\273\036%{\317\240\024\377"
  98      90854841 
  98      C5B5BB1E 
  98      257BCFA0 
  98      14FF
  99 0023 EBDF05C4 		.ascii	"\353\337\005\304\327F\214\331|\314\314#\006\006\031"
  99      D7468CD9 
  99      7CCCCC23 
  99      060619
 100 0032 119E3950 		.ascii	"\021\2369P\210\345\006\020Y\317&\351Y\007A\372\"\025"
 100      88E50610 
 100      59CF26E9 
 100      590741FA 
 100      2215
 101 0044 B3A7E06F 		.ascii	"\263\247\340o\274\322\264\343\2116U\216L\024>(&\334"
 101      BCD2B4E3 
 101      8936558E 
 101      4C143E28 
 101      26DC
 102 0056 140579A7 		.ascii	"\024\005y\247\330\230n\224$\246\206\222\306t\241\364"
 102      D8986E94 
 102      24A68692 
 102      C674A1F4 
 103 0066 627A52B2 		.ascii	"bzR\262_\262\030\302\355\336\352\000\2763\207\2336c"
 103      5FB218C2 
 103      EDDEEA00 
 103      BE33879B 
 103      3663
 104 0078 8B3E7CE7 		.ascii	"\213>|\347\000ug\216\252\014}]\206\336\315C\357\027"
 104      0075678E 
 104      AA0C7D5D 
 104      86DECD43 
 104      EF17
 105 008a A177ABD6 		.ascii	"\241w\253\326\014U\253\035\301m\365?\265\372\352U|\000"
 105      0C55AB1D 
 105      C16DF53F 
 105      B5FAEA55 
 105      7C00
 106 009c 48134D77 		.ascii	"H\023Mw"
 107              		.text
 108              		.section	.gnu.lto_.refs.124cae451a8a9a02,"",%progbits
 109 0000 789C25C1 		.ascii	"x\234%\301A\001\0000\010\304\260^\007\030\300\277\327"
 109      41010030 
 109      08C4B05E 
 109      0718C0BF 
 109      D7
 110 0011 3D484496 		.ascii	"=HD\226S\020\364\245\322NF\370\004\007\000@"
 110      5310F4A5 
 110      D24E46F8 
 110      04070040 
 111              		.text
 112              		.section	.gnu.lto_.decls.124cae451a8a9a02,"",%progbits
 113 0000 789CBD5B 		.ascii	"x\234\275[{p\024\307\231\237\236]i\265H\010pb\007'\004"
ARM GAS  /var/folders/c6/c789hm653lg9vtl73krp73tm0000gn/T//ccCzjVT0.s 			page 8


 113      7B7014C7 
 113      999F9E5D 
 113      69B54808 
 113      70620727 
 114 0015 969C9D8B 		.ascii	"\226\234\235\213\235\030ABb\222\252\030r\\\225\357\252"
 114      9D184142 
 114      6292AA18 
 114      725C95EF 
 114      AA
 115 0026 E2D4557C 		.ascii	"\342\324U|\251s]]\325\336\260\032\244=\357\313\263#"
 115      A9735D5D 
 115      D5DEB01A 
 115      A43DEFCB 
 115      B323
 116 0038 1E777F78 		.ascii	"\036w\177x$a!0& 0\022 @\2741\212m0`0\030\3308F\210\267"
 116      24612130 
 116      26203012 
 116      2040BC31 
 116      8A6D3060 
 117 0053 7923190B 		.ascii	"y#\031\013a\3400uP\006[\330\020\300\272\257\277\236"
 117      61E03075 
 117      50065BD8 
 117      10C0BAAF 
 117      BF9E
 118 0065 D99D999D 		.ascii	"\331\235\231\235\331\235\021v\2464\275\263=\335\277"
 118      D99D1176 
 118      A634BDB3 
 118      3DDDBF
 119 0074 FEDE5F3F 		.ascii	"\376\336_?\264<\307s\365\204\343z\341\232\375k\216\233"
 119      B43CC773 
 119      F584E37A 
 119      E19AFD6B 
 119      8E9B
 120 0086 E8E3380F 		.ascii	"\350\3438\017\307qO\301]\240\336\313\341^\001\367Z\270"
 120      C7714FC1 
 120      5DA0DECB 
 120      E15E01F7 
 120      5AB8
 121 0098 5B397615 		.ascii	"[9v\025\301\275\031\356w\340\336\011w\033\334\373\341"
 121      C1BD19EE 
 121      77E0DE09 
 121      771BDCFB 
 121      E1
 122 00a9 7E01B064 		.ascii	"~\001\260d\270k\010\353;\035>g\301\375\031\334_\300"
 122      B86B08EB 
 122      3B1D3E67 
 122      C1FD19DC 
 122      5FC0
 123 00bb 5DC27386 		.ascii	"]\302s\206\213\366\037\016\367!\270K\341.\201{,\334"
 123      8BF61F0E 
 123      F721B84B 
 123      E12E817B 
 123      2CDC
 124 00cd 40065708 		.ascii	"@\006W\010\367J\270;\324qg@\177J\353C\200\341\205\357"
 124      F74AB83B 
 124      D4716740 
 124      7F4AEB43 
ARM GAS  /var/folders/c6/c789hm653lg9vtl73krp73tm0000gn/T//ccCzjVT0.s 			page 9


 124      80E185EF 
 125 00e1 F3E1F915 		.ascii	"\363\341\371\025\270\277\003\337\017\303\367\301<\033"
 125      B8BF03DF 
 125      0FC3F7C1 
 125      3C1B
 126 00ef 93D25905 		.ascii	"\223\322Y\005\365\237\303\3750\324}\027n\011\236\277"
 126      F59FC3FD 
 126      30D47D17 
 126      6E099EBF 
 127 00ff 079F07E0 		.ascii	"\007\237\007\340\335\020\370\334\013\237\337\3473\274"
 127      DD10F8DC 
 127      0B9FDFE7 
 127      33BC
 128 010d EDE218DF 		.ascii	"\355\342\030\337\363\240\335*\270\317\300\263_\245o"
 128      F3A0DD2A 
 128      B8CFC0B3 
 128      5FA56F
 129 011c 28B4FB01 		.ascii	"(\264\373\001\317\370\332\254\362\270_\345\231\362\356"
 129      CFF8DAAC 
 129      F2B85FE5 
 129      99F2EE
 130 012b 35F1F9A8 		.ascii	"5\361\371\250\211\307\315*\366\017y\306G-a\365\274\372"
 130      89C7CD2A 
 130      F60F79C6 
 130      472D61F5 
 130      BCFA
 131 013d 8ECA8A56 		.ascii	"\216\312\212V\275m\354\306\025s3\025\245Fi\251S\376"
 131      BD6DECC6 
 131      15733315 
 131      A54669A9 
 131      53FE
 132 014f A9BD7410 		.ascii	"\251\275t\0207G\201\253e\\S\251\237\253\247\365\335"
 132      374781AB 
 132      655C53A9 
 132      9FABA7F5 
 132      DD
 133 0160 AB95C183 		.ascii	"\253\225\301\2039\3569\"\020\250*\302\207\022?\"=\312"
 133      39EE3922 
 133      10A82AC2 
 133      87123F22 
 133      3DCA
 134 0172 AD82B6D0 		.ascii	"\255\202\266\320\201\027\310J\342\207\221x\302Y^\354"
 134      8117C84A 
 134      E2879178 
 134      C2595EEC 
 135 0182 3DBD6877 		.ascii	"=\275hw\366\254=\365\2224z@C\367\252\275V\220A\370\204"
 135      F6AC3DF5 
 135      92347A40 
 135      43F7AABD 
 135      569041F8 
 136 0197 B4282A8D 		.ascii	"\264(*\215\330\302\256\307\032\3358%\376\314\203G\245"
 136      D8C2AEC7 
 136      1ADD3825 
 136      FECC8347 
 136      A5
 137 01a8 C4AEDF72 		.ascii	"\304\256\337rRl)\220\207\270W\325\221\025\"\013\344"
 137      526C2990 
ARM GAS  /var/folders/c6/c789hm653lg9vtl73krp73tm0000gn/T//ccCzjVT0.s 			page 10


 137      87B857D5 
 137      9115220B 
 137      E4
 138 01b9 A9076D11 		.ascii	"\251\007m\021\326\221\207\360\311\203\022\207\212\261"
 138      D69187F0 
 138      C9831287 
 138      8AB1
 139 01c7 C550FC41 		.ascii	"\305P\374A\033\330~\350\2650\364\343\334kL\224\037["
 139      1BD87EE8 
 139      B530F4E3 
 139      DC6B4C94 
 139      1F5B
 140 01d9 48D0C0BD 		.ascii	"H\320\300\2755\016\252bN\367\316\236Y\277V\224\"\201"
 140      350EAA62 
 140      4EF7CE9E 
 140      59BF5694 
 140      2281
 141 01eb B4A23AC6 		.ascii	"\264\242:\306\023\200_O\036w\215\263\251\355\375\215"
 141      13805F4F 
 141      1E778DB3 
 141      A9EDFD8D 
 142 01fb A4065816 		.ascii	"\244\006X\026\310\033\210\264\200\364\025\352\336\376"
 142      C81B88B4 
 142      80F415EA 
 142      DEFE
 143 0209 AD6390A4 		.ascii	"\255c\220\244\215\010t\307\004$\220B\277\321R\340\273"
 143      8D0874C7 
 143      04249042 
 143      BFD152E0 
 143      BB
 144 021a D680A2C1 		.ascii	"\326\200\242\301W:\322-\032:\310\213j\015\375\342\343"
 144      573AD22D 
 144      1A3AC88B 
 144      6A0DFDE2 
 144      E3
 145 022b FEE6FD86 		.ascii	"\376\346\375\206qK\225\324\365\356\305\307v\016^\250"
 145      714B95D4 
 145      F5EEC5C7 
 145      760E5EA8 
 146 023b A4A629BD 		.ascii	"\244\246)\275\275/\252\212\347\271\345\274\221\261G"
 146      BD2FAA8A 
 146      E7B9E5BC 
 146      91B147
 147 024a B8958AD2 		.ascii	"\270\225\212\322\240\274\245(~4\005\236[\207-6\223a"
 147      A0BCA528 
 147      7E34059E 
 147      5B872D36 
 147      9361
 148 025c 96E2C246 		.ascii	"\226\342\302Fp\375\220[M\307W\326)\03647N\355c\240y"
 148      70FD905B 
 148      4DC757D6 
 148      291E3437 
 148      4EED63A0 
 149 0271 0B31383F 		.ascii	"\01318?\243+\365j\333\354\207\225\226\232To\357X\316"
 149      A32BF56A 
 149      DBEC8795 
 149      969A546F 
ARM GAS  /var/folders/c6/c789hm653lg9vtl73krp73tm0000gn/T//ccCzjVT0.s 			page 11


 149      EF58CE
 150 0284 B9DD6E57 		.ascii	"\271\335nW\3556c\253<\267\336\304\2145Y\357\230\311"
 150      ED3663AB 
 150      3CB7DEC4 
 150      8C3559EF 
 150      98C9
 151 0296 DA914D56 		.ascii	"\332\221MV\367\234\356s\307?\252&sk[\332\225\353\275"
 151      F79CEE73 
 151      C73FAA26 
 151      736B5BDA 
 151      95EBBD
 152 02a9 BD038C94 		.ascii	"\275\003\214\224\025q\3231\310\274\244T\223\027\362"
 152      1571D331 
 152      C8BCA454 
 152      9317F2
 153 02b8 4799DDA4 		.ascii	"G\231\335\244\010\250\373\300>\314\320\006\234\252I"
 153      08A8FBC0 
 153      3ECCD006 
 153      9CAA49
 154 02c7 F6AC3DE5 		.ascii	"\366\254=\345\2102\273\314\236[\340\327\236\015\261"
 154      8832BBCC 
 154      9E5BE0D7 
 154      9E0DB1
 155 02d6 80C52B3B 		.ascii	"\200\305+;\224\3673\021\304 M\024\350\251,\201\262F"
 155      94F73311 
 155      C4204D14 
 155      E8A92C81 
 155      B246
 156 02e8 7BAC2496 		.ascii	"{\254$\226\272\3366K!s\252\273{{\2079\327\343^3\027"
 156      BADE364B 
 156      2173AABB 
 156      7B7B8739 
 156      D7E35E33 
 157 02fd 94581319 		.ascii	"\224X\023\031Wm\310\330g\251\270[\215\273\037V\226\273"
 157      576DC8D8 
 157      67A9B85B 
 157      8DBB1F56 
 157      96BB
 158 030f B5A70346 		.ascii	"\265\247\003F:\014\022|\200\233KQ\002\272\230\321\342"
 158      3A0C127C 
 158      809B4B51 
 158      02BA98D1 
 158      E2
 159 0320 D500FE91 		.ascii	"\325\000\376\221K\007\215\333\235\273\177\205A\3430"
 159      4B078DDB 
 159      9DBB7F85 
 159      41E330
 160 032f 790060FE 		.ascii	"y\000`\376\3541\222\235\027\206\347\366c\227\243\320"
 160      EC31929D 
 160      1786E7F6 
 160      6397A3D0 
 161 033f 9D756456 		.ascii	"\235udV\324\335\261tO-\251\306\300F\337q\026\322P\257"
 161      D4DDB174 
 161      4F2DA9C6 
 161      C046DF71 
 161      16D250AF 
 162 0353 E15C0BD0 		.ascii	"\341\\\013\320\235j\234\275\004|\352=h\177\210P'\276"
ARM GAS  /var/folders/c6/c789hm653lg9vtl73krp73tm0000gn/T//ccCzjVT0.s 			page 12


 162      9D6A9CBD 
 162      047CEA3D 
 162      687F8850 
 162      27BE
 163 0365 99C6B5E2 		.ascii	"\231\306\265\342?\235u4\033,\365\233\360\026\035.\231"
 163      3F9D7534 
 163      1B2CF59B 
 163      F0161D2E 
 163      99
 164 0376 23686077 		.ascii	"#h`w]\203\005\014`\313\0167#qj\252v\222 \256\253\011"
 164      5D83050C 
 164      60CB0E37 
 164      23716AAA 
 164      769220AE 
 165 038c A203A371 		.ascii	"\242\003\243q\255\327\"\254;\002\332T\267\347\317j\206"
 165      ADD722AC 
 165      3B02DA54 
 165      B7E7CF6A 
 165      86
 166 039d 388B502F 		.ascii	"8\213P/\367\031\352\336\314w\177\2114\235C\240\371^"
 166      F719EADE 
 166      CC777F89 
 166      349D43A0 
 166      F95E
 167 03af 7386F099 		.ascii	"s\206\360\2312\204\317\030\261}\376\314\003\015\324"
 167      3284CF18 
 167      B17DFECC 
 167      030DD4
 168 03be 03B86FB8 		.ascii	"\003\270o\2709\317-\363:P\\&\022\231\254@\351>\263\364"
 168      39CF2DF3 
 168      3A505C26 
 168      1299AC40 
 168      E93EB3F4 
 169 03d2 A0876610 		.ascii	"\240\207f\020\217j\311-\205v2\342\27158\326E\263%\357"
 169      8F6AC92D 
 169      857632E2 
 169      B93538D6 
 169      45B325EF 
 170 03e6 BCD0FE58 		.ascii	"\274\320\376X\223\242\014d\257\362\033\362\226\375\215"
 170      93A20C64 
 170      AFF21BF2 
 170      96FD8D
 171 03f5 682B79FD 		.ascii	"h+y\375\221\327\206\177\004\207?\201\303_1\017?\367"
 171      91D7867F 
 171      04873F81 
 171      C35F310F 
 171      3FF7
 172 0407 72F7536C 		.ascii	"r\367Sl\370+\216\206_vl~\366\360\266qD\263\326\013\237"
 172      F82B8E86 
 172      5F766C7E 
 172      F6F0B671 
 172      44B3D60B 
 173 041c 0C598683 		.ascii	"\014Y\206\203\\C\177\231Y`6\215\261\372\230\253\315"
 173      5C437F99 
 173      5960368D 
 173      B1FA98AB 
 173      CD
ARM GAS  /var/folders/c6/c789hm653lg9vtl73krp73tm0000gn/T//ccCzjVT0.s 			page 13


 174 042d B9D20D78 		.ascii	"\271\322\015xn^\201F}\237\334\025\330L\375\363k\220"
 174      6E5E8146 
 174      7D9FDC15 
 174      D84CFDF3 
 174      6B90
 175 043f C367146A 		.ascii	"\303g\024j4,p\215\0300\010\342\255c\030\000\030\330"
 175      342C708D 
 175      183008E2 
 175      AD631800 
 175      18D8
 176 0451 422760B6 		.ascii	"B'`\266vT\223\332\254\007kv\015f\244\354m=\3302'`\003"
 176      765493DA 
 176      AC076B76 
 176      0D66A4EC 
 176      6D3DD832 
 177 0468 ED29DBA6 		.ascii	"\355)\333\246\007[\341\032\314H\331v=\330j'`\203\355"
 177      075BE11A 
 177      CC48D976 
 177      3DD86A27 
 177      6083ED
 178 047b 297B570F 		.ascii	"){W\017\366\232k0#e\273\364`\257;\001\013XP\226\276"
 178      F69A6B30 
 178      2365BBF4 
 178      60AF3B01 
 178      0B585096 
 179 0490 EC72EA27 		.ascii	"\354r\352'\231\271\005\317m(\320\002\202K\233\3462\030"
 179      99B905CF 
 179      6D28D002 
 179      824B9BE6 
 179      3218
 180 04a2 9B0BDC06 		.ascii	"\233\013\334\0060\003\337\220G\017\255$\363j\225\366"
 180      3003DF90 
 180      470FAD24 
 180      F36A95F6 
 181 04b2 915A2EDB 		.ascii	"\221Z.\333\356\0041\207\301\274\255O\214\357\271\006"
 181      EE043187 
 181      C1BCAD4F 
 181      8CEFB906 
 182 04c2 33AAE504 		.ascii	"3\252\345\004\0053\204\232\364j65\270)\023\354\014\023"
 182      0533849A 
 182      F46A3635 
 182      B82913EC 
 182      0C13
 183 04d4 4D81AC22 		.ascii	"M\201\254\"\217\366y\251Z\317\353T\264\337\011\3759"
 183      8FF679A9 
 183      5ACFEB54 
 183      B4DF09FD 
 183      39
 184 04e5 6CF4CEE1 		.ascii	"l\364\316\341\346\357(\335)\242[\203\333Q\255\205\312"
 184      E6EF28DD 
 184      29A25B83 
 184      DB51AD85 
 184      CA
 185 04f6 8B6A629F 		.ascii	"\213jb\237\305\323$z\264\3002\033;\000\332T\367\372"
 185      C5D3247A 
 185      B4C0321B 
 185      3B00DA54 
ARM GAS  /var/folders/c6/c789hm653lg9vtl73krp73tm0000gn/T//ccCzjVT0.s 			page 14


 185      F7FA
 186 0508 8F11E88F 		.ascii	"\217\021\350\217\010\324\331g\240{3\227\262\205_\003"
 186      08D4D967 
 186      A07B3397 
 186      B2855F03 
 187 0518 027D9C15 		.ascii	"\002}\234\025\273\211)\255\023c\342MK^\025\3747\325"
 187      BB8929AD 
 187      1363E24D 
 187      4B5E15FC 
 187      37D5
 188 052a 1666C566 		.ascii	"\026f\305fm\031\330\311\033\004\272;\272.\316#\237\327"
 188      6D19D8C9 
 188      1B04BA3B 
 188      BA2ECE23 
 188      9FD7
 189 053c 284D235D 		.ascii	"(M#]\350\253[\325W#J\247'K:T\374\356\330\270\353\232"
 189      E8AB5BD5 
 189      57234AA7 
 189      274B3A54 
 189      FCEED8B8 
 190 0552 8D1F19D9 		.ascii	"\215\037\031\331Xz\331=\033\237\250l4#\033\323\012\357"
 190      587AD93D 
 190      1B9FA86C 
 190      34231BD3 
 190      0AEF
 191 0564 9F8D5985 		.ascii	"\237\215Y\205n\331\030\251c\003\246\370]=\363Yh\372"
 191      6ED918A9 
 191      6303A6F8 
 191      5D3DF359 
 191      68FA
 192 0576 16D7907B 		.ascii	"\026\327\220{r\205\033?\374\267\0143\233\324\315#$\300"
 192      72851B3F 
 192      FCB70C33 
 192      9BD4CD23 
 192      24C0
 193 0588 AAF3CD6A 		.ascii	"\252\363\315j\224\324\274c\315\352\352\200m\270\314"
 193      94D4BC63 
 193      CDEAEA80 
 193      6DB8CC
 194 0597 43DA69DF 		.ascii	"C\332i\337\276L7\224\324\006\226N\030\330\242\373\002"
 194      BE4C3794 
 194      D406964E 
 194      18D8A2FB 
 194      02
 195 05a8 AB49ED6E 		.ascii	"\253I\355n\320\226.\270\375\260\362>\341\316\0363\307"
 195      D0962EB8 
 195      FDB0F23E 
 195      E1CE1E33 
 195      C7
 196 05b9 54D35CEE 		.ascii	"T\323\\\356\260M\270\323\326t\213\332\264\025C+O\011"
 196      B04DB8D3 
 196      D6748BDA 
 196      B415432B 
 196      4F09
 197 05cb 5A9F652C 		.ascii	"Z\237e,\207\210i:G+tM\354t\270^\037{w\336\037\237\340"
 197      8788693A 
 197      472B744D 
ARM GAS  /var/folders/c6/c789hm653lg9vtl73krp73tm0000gn/T//ccCzjVT0.s 			page 15


 197      EC74B85E 
 197      1F7B77DE 
 198 05e2 06E75631 		.ascii	"\006\347V1\373\3117U\376O\015\255\004\007\376\013\016"
 198      FBC93755 
 198      FE4F0DAD 
 198      0407FE0B 
 198      0E
 199 05f3 BC9137CD 		.ascii	"\274\2217\315\224\217~\321]\247\362M\337\3457\252\017"
 199      948F7ED1 
 199      5DA7F24D 
 199      DFE537AA 
 199      0F
 200 0604 2FF99586 		.ascii	"/\371\225\206\022\213\361\306\351\023sZ\252'\346\222"
 200      128BF1C6 
 200      E913735A 
 200      AA27E692 
 201 0614 6988BE85 		.ascii	"i\210\276\205\247k\345\353&\251j+\214qv@<\247\370h\227"
 201      A76BE5EB 
 201      26A96A2B 
 201      8C717640 
 201      3CA7F868 
 202 0629 6D66C23B 		.ascii	"mf\302;\272\276\254Q\327\312\333\034\020^\223\272\361"
 202      BABEAC51 
 202      D7CADB1C 
 202      105E93BA 
 202      F1
 203 063a B27EAD2C 		.ascii	"\262~\255,\220\223\204Wq\373fq\237\035HO\011\004r\332"
 203      90938457 
 203      71FB6671 
 203      9F1D484F 
 203      090472DA 
 204 064e 3558C08A 		.ascii	"5X\300\212T\315\2622\334\012d;O\323\376\016~8\224\357"
 204      54CDB232 
 204      DC0A643B 
 204      4FD3FE0E 
 204      7E3894EF 
 205 0662 F2C333CD 		.ascii	"\362\3033\315xn\256O\323\251\225\350\362:4(\377\326"
 205      786EAE4F 
 205      D3A995E8 
 205      F23A3428 
 205      FFD6
 206 0674 02664C2E 		.ascii	"\002fL.6qW\275\302b\352n\214\251\013}f7y\303\2349]l"
 206      367157BD 
 206      C262EA6E 
 206      8CA90B7D 
 206      663779C3 
 207 068c 61C2CCDE 		.ascii	"a\302\314\336\314\222\3235G\372\262s\303\015z7\\\355"
 207      CC92D335 
 207      47FAB273 
 207      C30D7A37 
 207      5CED
 208 069e BB4F37EC 		.ascii	"\273O7\354\272\354\320\015\025\242\237\021\362\334\237"
 208      BAECD00D 
 208      15A29F11 
 208      F2DC9F
 209 06ad 70E436B3 		.ascii	"p\3446\2639\177x\247}\272j\316m\216\374\360&\372\241"
 209      397F78A7 
ARM GAS  /var/folders/c6/c789hm653lg9vtl73krp73tm0000gn/T//ccCzjVT0.s 			page 16


 209      7DBA6ACE 
 209      6D8EFCF0 
 209      26FAA1
 210 06c0 E65727D3 		.ascii	"\346W'\323\250}\261\204\232\324\355+\373\010\302\261"
 210      A87DB184 
 210      9AD4ED2B 
 210      FB08C2B1 
 211 06d0 19EE4766 		.ascii	"\031\356Gf8\227+\277\273\242[\3010\353Ju\\\242\351\355"
 211      38972BBF 
 211      BBA25BC1 
 211      30EB4A75 
 211      5CA2E9ED 
 212 06e4 08F27429 		.ascii	"\010\362t)\313\264\230dt\246\325\246\363\223v\364\223"
 212      CBB49864 
 212      74A6D5A6 
 212      F39376F4 
 212      93
 213 06f5 7DE82707 		.ascii	"}\350'\007\260<\244\367\026;\2638\2547\213k\256\371"
 213      B03CA4F7 
 213      163BB338 
 213      AC378B6B 
 213      AEF9
 214 0707 0E38B4BE 		.ascii	"\0168\264\276=\372az\356\323\372\316t}\352\305\015\032"
 214      3DFA617A 
 214      EED3FACE 
 214      747DEAC5 
 214      0D1A
 215 0719 175B6B77 		.ascii	"\027[kw\325\251\320It\333;Y\262=kv[';M\323\213\372\310"
 215      D5A9D049 
 215      74DB3B59 
 215      B23D6B76 
 215      5B273B4D 
 216 0731 48FAE2B9 		.ascii	"H\372\342\271\331E\016V#\001;a\320M\323/\325\031U\336"
 216      D9450E56 
 216      23013B61 
 216      D04DD32F 
 216      D51955DE 
 217 0745 EDAAF4FE 		.ascii	"\355\252\364\376\355\301j5+}\210\226\326Pd\235\225r"
 217      EDC16A35 
 217      2B7D8896 
 217      D650649D 
 217      9572
 218 0757 EC7B2DC7 		.ascii	"\354{-\307.]YYii\217\226\225\272\034e\245\343\226Y\251"
 218      2E5D5959 
 218      69698F96 
 218      95BA1C65 
 218      A5E39659 
 219 076c CB7D56B2 		.ascii	"\313}V\262\272\364\004\012\244\033\035\344\2741\205"
 219      BAF4040A 
 219      A41B1DE4 
 219      BC3185
 220 077b 6C742DFD 		.ascii	"lt-\375\200^\372\251\333\307\233\011\243\237\005\242"
 220      805EFAA9 
 220      DBC79B09 
 220      A39F05A2 
 221 078b 1D663CAB 		.ascii	"\035f<\253@\364#[m\246\346\234\322\3151\333\234\020"
 221      40F4235B 
ARM GAS  /var/folders/c6/c789hm653lg9vtl73krp73tm0000gn/T//ccCzjVT0.s 			page 17


 221      6DA6E69C 
 221      D2CD31DB 
 221      9C10
 222 079d 37D20EAC 		.ascii	"7\322\016\254&\325\314\300\230\311\037t\015\0260\200"
 222      26D5CCC0 
 222      98C91F74 
 222      0D163080 
 223 07ad ED58A069 		.ascii	"\355X\240ij\017N\020O;\301\033cO\334\361S\332\354\234"
 223      6A0F4E10 
 223      4F3BC11B 
 223      634FDCF1 
 223      53DAEC9C 
 224 07c1 ED769F77 		.ascii	"\355v\237w\215g\244\357\306\002\303\204\372\252\023"
 224      8D67A4EF 
 224      C602C384 
 224      FAAA13
 225 07d0 B8718E0D 		.ascii	"\270q\216\015)sV!\220\343\270\021q\202\320\030{\012"
 225      29735621 
 225      90E3B811 
 225      7182D018 
 225      7B0A
 226 07e2 CB33585E 		.ascii	"\3133X^\300\262\026c\357KXN\307\362e,\027`\271\030\313"
 226      C0B21663 
 226      EF4B584E 
 226      C7F2652C 
 226      1760B918 
 227 07f7 162C3BB1 		.ascii	"\026,;\261\274\200\345%,/cy\005\313\377\303\362\232"
 227      BC80E525 
 227      2C2F6379 
 227      05CBFFC3 
 227      F29A
 228 0809 93186E9A 		.ascii	"\223\030n\232\210\247\317\230ZYL3\0353\365\230\274]"
 228      88A7CF98 
 228      5A594C33 
 228      1D33F598 
 228      BC5D
 229 081b 63F13A6F 		.ascii	"c\361:ou\314t\373\364\256\241\013\225\367\330q\252\351"
 229      75CC74FB 
 229      F4AEA10B 
 229      95F7D871 
 229      AAE9
 230 082d 9C898E6B 		.ascii	"\234\211\216kG\323g|\366\301e\265\337z\344\317-G\336"
 230      47D3677C 
 230      F6C165B5 
 230      DF7AE4CF 
 230      2D47DE
 231 0840 BA7EDF63 		.ascii	"\272~\337cK\336R\246\315P\276\352}\221\270\030\372&"
 231      4BDE52A6 
 231      CD50BEEA 
 231      7D91B818 
 231      FA26
 232 0852 9F7DD6AF 		.ascii	"\237}\326\257>;O\030\273[\317\377\352M\334\335\276\205"
 232      3E3B4F18 
 232      BB5BCFFF 
 232      EA4DDCDD 
 232      BE85
 233 0864 EE33B39F 		.ascii	"\3563\263\2379c\024\230\022F\2011a\024\3703\017\231"
ARM GAS  /var/folders/c6/c789hm653lg9vtl73krp73tm0000gn/T//ccCzjVT0.s 			page 18


 233      39631498 
 233      12468131 
 233      6114F833 
 233      0F99
 234 0876 938C344D 		.ascii	"\223\2144M\035L7\326'\231\364\320:\007m[\327\237\327"
 234      1D4C37D6 
 234      2799F4D0 
 234      3A076D5B 
 234      D79FD7
 235 0889 162DF7D0 		.ascii	"\026-\367\320\027\347f\021\267\326\274X[k\264\021\223"
 235      17E76611 
 235      B7D6BC58 
 235      5B6BB411 
 235      93
 236 089a 78B2AD64 		.ascii	"x\262\255da?k]U{,\255\244q\327\303vV\322\232\343X\266"
 236      613F6B5D 
 236      557B2CAD 
 236      A471D7C3 
 236      7656D29A 
 237 08b1 D6635215 		.ascii	"\326cR\025\325k\036\373m\265\241\254\316H\331\017\270"
 237      D56B1EFB 
 237      6DB5A1AC 
 237      CE48D90F 
 237      B8
 238 08c2 E5CA067A 		.ascii	"\345\312\006z\276}\265\206\314SZ\332!\270\302\204{\230"
 238      BE7DB586 
 238      CC535ADA 
 238      21B8C284 
 238      7B98
 239 08d4 FA3F3401 		.ascii	"\372?4\001\335\0029\225\353\260#\373\334B\2732H\206"
 239      DD023995 
 239      EBB023FB 
 239      DC42BB32 
 239      4886
 240 08e6 930E81CC 		.ascii	"\223\016\201\314\364\014\342\254/\236\333\222E<\304"
 240      F40CE2AC 
 240      2F9EDB92 
 240      453CC4
 241 08f5 870CE194 		.ascii	"\207\014\341\224h\020gG\327\301\301\177\252Q\246m\004"
 241      68106747 
 241      D7C1C17F 
 241      AA51A66D 
 241      04
 242 0906 FC5ED23B 		.ascii	"\374^\322;V\233>\326_\310\354q*\017jd~@\273\247W\234"
 242      569B3ED6 
 242      5FC8EC71 
 242      2A0F6A64 
 242      7E40BBA7 
 243 091c 3DCB492D 		.ascii	"=\313I-\232\306+\036\232\220\266\231\006t\000\305s\357"
 243      9AC62B1E 
 243      9A90B699 
 243      067400C5 
 243      73EF
 244 092e 63A7399E 		.ascii	"c\2479\236\354\363Ym\222N\337\345\237\244/\351b\331"
 244      ECF3596D 
 244      924EDFE5 
 244      9FA42FE9 
ARM GAS  /var/folders/c6/c789hm653lg9vtl73krp73tm0000gn/T//ccCzjVT0.s 			page 19


 244      62D9
 245 0940 D162FADB 		.ascii	"\321b\372\333\235\236\376\016\321Q\337y\372\274J\375"
 245      9D9EFE0E 
 245      D151DF79 
 245      FABC4AFD 
 246 0950 7CA4FEB0 		.ascii	"|\244\376\260\015\365\266@<\367!vi\314\246\375D\235"
 246      0DF5B640 
 246      3CF72176 
 246      69CCA6FD 
 246      449D
 247 0962 4A7BA323 		.ascii	"J{\243#\332\217w\0323\373\2254n\337\226\030':1\031\263"
 247      DA8F771A 
 247      33FB9534 
 247      6EDF9618 
 247      273A3119 
 248 0977 6477C30C 		.ascii	"dw\303\014\346j\201\241\244\3160\260\213x\000\177\313"
 248      E66A81A1 
 248      A4CE30B0 
 248      8B78007F 
 248      CB
 249 0988 3558C040 		.ascii	"5X\300@\331\271E\306S\364\257\234\340\3458,\270\336"
 249      D9B945C6 
 249      53F4AF9C 
 249      E0E5382C 
 249      B8DE
 250 099a A93B2CA8 		.ascii	"\251;,\250+v\013f$\356\013=\330l'`V;\367V\227\336H\004"
 250      2B760B66 
 250      24EE0B3D 
 250      D86C2760 
 250      563BF756 
 251 09b2 B2D04393 		.ascii	"\262\320C\223\372\"\017M\272\315X.\305\262\005\313\025"
 251      FA220F4D 
 251      BACD582E 
 251      C5B205CB 
 251      15
 252 09c3 58AEF218 		.ascii	"X\256\362\030\346\216M\305\232\227X\232b>\223PR[\354"
 252      E68E4DC5 
 252      9A97589A 
 252      623E9350 
 252      525BEC
 253 09d6 DDC36A75 		.ascii	"\335\303ju\010\316}\271\232\274\2046\274\016\335ciq"
 253      08CE7DB9 
 253      9ABC8436 
 253      BC0EDD63 
 253      6971
 254 09e8 5EF730AF 		.ascii	"^\3670\257\2777c\227\326,\367\350\272\367\222\352\036"
 254      BF376397 
 254      D62CF7E8 
 254      BAF792EA 
 254      1E
 255 09f9 AD0EDC03 		.ascii	"\255\016\334\003V\314\215K\234\235X\247\307\377\266"
 255      56CC8D4B 
 255      9C9D58A7 
 255      C7FFB6
 256 0a08 8E91CE8B 		.ascii	"\216\221\316\213\332\276\330\006d\344@~F\214@\340\347"
 256      DABED806 
 256      64E4407E 
ARM GAS  /var/folders/c6/c789hm653lg9vtl73krp73tm0000gn/T//ccCzjVT0.s 			page 20


 256      468C40E0 
 256      E7
 257 0a19 D8655336 		.ascii	"\330eS6#\3274F69b\344\235F\315\372\337\364\340\3041"
 257      23D73446 
 257      363962E4 
 257      9D46CDFA 
 257      DFF4E0C4 
 258 0a2e 8DDBA7C5 		.ascii	"\215\333\247\305ij\373i4X\006\326\343\032\314h\375;"
 258      696AFB69 
 258      345806D6 
 258      E31ACC68 
 258      FD3B
 259 0a40 4FBBFD1F 		.ascii	"O\273\375\037\222\333\235[\036\307\205\356\016\017\015"
 259      92DB9D5B 
 259      1EC785EE 
 259      0E0F0D
 260 0a4f 34778BCD 		.ascii	"4w\213\3153\203>-t\353J\034\360a\277!\002Z\371\364U"
 260      33833E2D 
 260      74EB4A1C 
 260      F061BF21 
 260      025AF9F4 
 261 0a64 8BFDA2BC 		.ascii	"\213\375\242\2743\235\333\213\272\252\325\231N\012\005"
 261      339DDB8B 
 261      BAAAD599 
 261      4E0A05
 262 0a73 FAC712B7 		.ascii	"\372\307\022\2673\035\360S\327\304\007L\304\367\254"
 262      331DF053 
 262      D7C4074C 
 262      C4F7AC
 263 0a82 D68E5371 		.ascii	"\326\216Sqm\321\342\004\320*@Z]z\033\206\\\203a\350"
 263      6DD1E204 
 263      D02A405A 
 263      5D7A1B86 
 263      5C8361E8 
 264 0a96 6D0C37DB 		.ascii	"m\0147\333\260\334\216\345n,\337\3678X\015P\313Kco\365"
 264      B0DC8EE5 
 264      6E2CDFF7 
 264      38580D50 
 264      CB4B636F 
 265 0aab F0AABBF7 		.ascii	"\360\252\273\367\315\232\357f\254Y \357\270\0063Z\363"
 265      CD9AEF66 
 265      AC5920EF 
 265      B806335A 
 265      F3
 266 0abc DC4E6DC9 		.ascii	"\334Nm\311G\215S \273\234\340\345\330f\333\300r\003"
 266      478D5320 
 266      BB9CE0E5 
 266      D866DBC0 
 266      7203
 267 0ace B3F4B525 		.ascii	"\263\364\265%\304%X \227RZuJy\035\225\362\006\252\240"
 267      C4255820 
 267      97525A75 
 267      4A791D95 
 267      F206AAA0 
 268 0ae2 0DCBBD58 		.ascii	"\015\313\275X\266\033\363\301\246\022S>0\306^\253\364"
 268      B61BF3C1 
 268      A612533E 
ARM GAS  /var/folders/c6/c789hm653lg9vtl73krp73tm0000gn/T//ccCzjVT0.s 			page 21


 268      30C65EAB 
 268      F4
 269 0af3 A4978F92 		.ascii	"\244\227\217\222z\267\013\370q\276\213sM\333\3059\210"
 269      7AB70BF8 
 269      71BE8B73 
 269      4DDBC539 
 269      88
 270 0b04 31747B89 		.ascii	"1t{\211e\014\315\265\213\263\017\273\034\311\236+]\322"
 270      650CCDB5 
 270      8BB30FBB 
 270      1CC99E2B 
 270      5DD2
 271 0b16 E64A47F2 		.ascii	"\346JG\362\307\320i\265\251-\213\327d\222Am\332\271"
 271      C7D069B5 
 271      A92D8BD7 
 271      6492416D 
 271      DAB9
 272 0b28 67F0F633 		.ascii	"g\360\3663\177\303\211|G\232\016\227Vj\255\273#:\335"
 272      7FC3897C 
 272      479A0E97 
 272      566AADBB 
 272      233ADD
 273 0b3b 1D45DD1D 		.ascii	"\035E\335\0353j\352\202YSV\343\031vi\214\212:\331\245"
 273      336AEA82 
 273      595356E3 
 273      1976698C 
 273      8A3AD9A5 
 274 0b4f CD0DD9BF 		.ascii	"\315\015\331\277@^6\343\031\377\341Q}\264\335\251QR"
 274      405E36E3 
 274      19FFE151 
 274      7DB4DDA9 
 274      5152
 275 0b61 5D6E347F 		.ascii	"]n4\177\362\362\225'\331\277\011\242\336\347\366w\251"
 275      F2F29527 
 275      D9BF09A2 
 275      DEE7F677 
 275      A9
 276 0b72 77CC0226 		.ascii	"w\314\002&\235\247n\210\001V\353 \365_\302\315r\027"
 276      9DA76E88 
 276      0156EB20 
 276      F55FC2CD 
 276      7217
 277 0b84 9BAF9BD5 		.ascii	"\233\257\233\325\315\327s\350\251+\372\177-9i=\302\234"
 277      CDD773E8 
 277      A92BFA7F 
 277      2D39693D 
 277      C29C
 278 0b96 FDBA8CE6 		.ascii	"\375\272\214\346\254\316h>B\243\3512\032\315\306\376"
 278      ACCE683E 
 278      42A3E932 
 278      1ACDC6FE 
 279 0ba6 0E8C2661 		.ascii	"\016\214&ak4\220F.=Y\255\244\232Fj\013GX\202\2512L\325"
 279      6B349046 
 279      2E3D59AD 
 279      A49A466A 
 279      0B475882 
 280 0bbe 29F5A47A 		.ascii	")\365\244z\343\220tO\303\332\"\363\377v\337_\217;\022"
ARM GAS  /var/folders/c6/c789hm653lg9vtl73krp73tm0000gn/T//ccCzjVT0.s 			page 22


 280      E390744F 
 280      C3DA22F3 
 280      FF76DF5F 
 280      8F3B12
 281 0bd1 FF8B62DC 		.ascii	"\377\213b\334l\022\243\033\254MuG\264\343\336+\010\266"
 281      6C12A31B 
 281      AC4D7547 
 281      B4E3DE2B 
 281      08B6
 282 0be3 BBEF602D 		.ascii	"\273\357`-\367\366\017Q\274\002\271\212@\355Y\312\365"
 282      F7F60F51 
 282      BC02B98A 
 282      40ED59CA 
 282      F5
 283 0bf4 9B74EB37 		.ascii	"\233t\3537\352\326\357\317<\364j\227\371\277D\276\301"
 283      EAD6EFCF 
 283      3CF46A97 
 283      F9BF44BE 
 283      C1
 284 0c05 3E2A63A9 		.ascii	">*c\251\376\032gg\210\012p\311\343\366\367-\237z\254"
 284      FE1A6767 
 284      880A70C9 
 284      E3F6F72D 
 284      9F7AAC
 285 0c18 7FDFF2DD 		.ascii	"\177\337\362\335\264\021\0357\033\221i\\\365y\212c\263"
 285      B4111D37 
 285      1B91695C 
 285      F5798A63 
 285      B3
 286 0c29 9DA333DB 		.ascii	"\235\2433\333\0064\333y\230\233\326by\000\313SX\236"
 286      0634DB79 
 286      989BD662 
 286      7900CB53 
 286      589E
 287 0c3b C1F2A2D1 		.ascii	"\301\362\242\321\250?N\253K\313Y\306\275\000:\304\015"
 287      A83F4EAB 
 287      4BCB59C6 
 287      BD003AC4 
 287      0D
 288 0c4c E3FE440B 		.ascii	"\343\376D\013\335T\271\274\2024Xm\252\030v\346\214S"
 288      DD54B9BC 
 288      8234586D 
 288      AA1876E6 
 288      8C53
 289 0c5e 76DCE973 		.ascii	"v\334\351s-\322\036\033\221z\323,\\2\263\220=\354M#"
 289      2DD21E1B 
 289      917AD32C 
 289      5C32B390 
 289      3DEC4D23 
 290 0c72 071B52DD 		.ascii	"\007\033R\335\213\033.\037%\363\025\305\304\001=\210"
 290      8B1B2E1F 
 290      25F315C5 
 290      C4013D88 
 291 0c82 37EC0B69 		.ascii	"7\354\013i\301\024\\%\307\242\352\032\220\220w\355%"
 291      C1145C25 
 291      C7A2EA1A 
 291      909077ED 
ARM GAS  /var/folders/c6/c789hm653lg9vtl73krp73tm0000gn/T//ccCzjVT0.s 			page 23


 291      25
 292 0c93 90BFE27C 		.ascii	"\220\277\342|\347\2169\335\236;\276s0\206\307;\316\302"
 292      E78E39DD 
 292      9E3BBE73 
 292      3086C73B 
 292      CEC2
 293 0ca5 EFBD7676 		.ascii	"\357\275vvVY\217{\177_ \373w\372<\303\273s\005\341L"
 293      56598F7B 
 293      7F5F20FB 
 293      77FA3CC3 
 293      BB7305E1 
 294 0cba F3F2ED36 		.ascii	"\363\362\3556\363rJ\236\342\325\245\356;\256\207\017"
 294      F3724A9E 
 294      E2D5A5EE 
 294      3BAE870F 
 295 0cca 1886A747 		.ascii	"\030\206\247G\245\014\222\347\252K\035`\345\230\017"
 295      A50C92E7 
 295      AA4B1D60 
 295      E5980F
 296 0cd9 7EA5C39A 		.ascii	"~\245\303\232\351\032+\220\345[L\017\002\271\207\236"
 296      E91A2B90 
 296      E55B4C0F 
 296      02B9879E 
 297 0ce9 D38B658D 		.ascii	"\323\213e\215\227\226\323\274y'\342&\201\336\266\241"
 297      9796D3BC 
 297      7927E226 
 297      81DEB6A1 
 298 0cf9 04772EBD 		.ascii	"\004w.\275\305\246\261\255\242mz\307\221\032)\353d\335"
 298      C5A6B1AD 
 298      A26D7AC7 
 298      911A29EB 
 298      64DD
 299 0d0b 4C20D3BD 		.ascii	"L \323\275n\335\254\336k\355f\372\240\232iE\317\014"
 299      6EDDACDE 
 299      6BED66FA 
 299      A09A6945 
 299      CF0C
 300 0d1d 4B4D5E97 		.ascii	"KM^\227E\304\014/s\272\321\334&\245>\005\263\213/\301"
 300      45C40C2F 
 300      73BAD1DC 
 300      26A53E05 
 300      B38B2FC1 
 301 0d31 F9D37AFB 		.ascii	"\371\323z\373\037\356\257J\223\002~xu\024\343\205:\346"
 301      1FEEAF4A 
 301      93027E78 
 301      7514E385 
 301      3AE6
 302 0d43 F50F5237 		.ascii	"\365\017R7\353\226\300\324\012R\323W\340\226Ll<\267"
 302      EB96C0D4 
 302      0A52D357 
 302      E0964C6C 
 302      3CB7
 303 0d55 C43C98D1 		.ascii	"\304<\230\321\263\350h\257\300hC\2715\245K\224\"\335"
 303      B3E868AF 
 303      C06843B9 
 303      35A54B94 
 303      22DD
ARM GAS  /var/folders/c6/c789hm653lg9vtl73krp73tm0000gn/T//ccCzjVT0.s 			page 24


 304 0d67 A8E31802 		.ascii	"\250\343\030\002S!\0332\365e\033\261\372Ue\240\311\370"
 304      53211B32 
 304      F5651BB1 
 304      FA5565A0 
 304      C9F8
 305 0d79 13A229DA 		.ascii	"\023\242)\332\010\003\324\021\032\\\013u\236\215PKs"
 305      0803D411 
 305      1A5C0B75 
 305      9E8D504B 
 305      73
 306 0d8a 1A8E40E6 		.ascii	"\032\216@\346f\354a(\267\025Xj\032\227\031\236\031\""
 306      66EC6128 
 306      B715586A 
 306      1A97199E 
 306      1922
 307 0d9c EDC1FC90 		.ascii	"\355\301\374\220\231\244\376;5N\312k\275\222\272[\310"
 307      99A4FE3B 
 307      354ECA6B 
 307      BD92BA5B 
 307      C8
 308 0dad AA8D3F07 		.ascii	"\252\215?\007S\307e2\324\214\317d\257\365\031ee\321"
 308      53C76532 
 308      D48CCF64 
 308      AFF51965 
 308      65D1
 309 0dbf B7C06BFD 		.ascii	"\267\300k\375sL\266\347l\327\253\321\266\027=\260\261"
 309      734CB6E7 
 309      6CD7ABD1 
 309      B6173DB0 
 309      B1
 310 0dd0 EBD564DB 		.ascii	"\353\325d\333\353\363\034\024.\264\355\365Y\216\261"
 310      EBF31C14 
 310      2EB4EDF5 
 310      598EB1
 311 0ddf 16D9F63A 		.ascii	"\026\331\366:\220#\034.\266\355\2657G\257f\333^\273"
 311      90231C2E 
 311      B6EDB537 
 311      47AF66DB 
 311      5EBB
 312 0df1 72F45A92 		.ascii	"r\364Z\222\351\245\376\334q\353\372\216\2627\351o \350"
 312      E9A5FEDC 
 312      71EBFA8E 
 312      B237E96F 
 312      20E8
 313 0e03 2959F5B4 		.ascii	")Y\365\264\337\230\016_:r\034\276,\363f\037\321\355"
 313      DF980E5F 
 313      3A721CBE 
 313      2CF3661F 
 313      D1ED
 314 0e15 2D354EDF 		.ascii	"-5N\337\324\337\026\326(o\255\243?\225d\247V\002Y\352"
 314      D4DF16D6 
 314      286FADA3 
 314      3F9564A7 
 314      560259EA 
 315 0e29 B5FE9DA4 		.ascii	"\265\376\235\244\212\327\342\265\372\005\344\316\003"
 315      8AD7E2B5 
 315      FA05E4CE 
ARM GAS  /var/folders/c6/c789hm653lg9vtl73krp73tm0000gn/T//ccCzjVT0.s 			page 25


 315      03
 316 0e36 CDEA2F20 		.ascii	"\315\352/ w+\303\213\230*`\355\227{D\366_\207\002Y\221"
 316      772BC38B 
 316      982A60ED 
 316      977B44F6 
 316      5F870259 
 317 0e4b 7BC495C6 		.ascii	"{\304\225\306\021\377\236[C3\353\342c\327\006-\234S"
 317      11FF9E5B 
 317      4333EBE2 
 317      63D7062D 
 317      9C53
 318 0e5d 94F5BF8B 		.ascii	"\224\365\277\213Y2\247\347PvbZ\243\213\316\336P\245"
 318      5932A7E7 
 318      5076625A 
 318      A38BCEDE 
 318      50A5
 319 0e6f 20153EFD 		.ascii	" \025>\375\273?\004\306s\243G\214(c\177\361d\231$\227"
 319      BB3F04C6 
 319      73A3478C 
 319      28637FF1 
 319      64992497 
 320 0e83 25E2929C 		.ascii	"%\342\222\234,\373\315\357\237\031\377\314\224\262P"
 320      2CFBCDEF 
 320      9F19FFCC 
 320      94B250
 321 0e92 3C9A0847 		.ascii	"<\232\010GD)Y\366\364\370\361e\241JyjBL\216\250\344"
 321      442959F6 
 321      F4F8F165 
 321      A14A796A 
 321      424C8EA8 
 322 0ea7 0AA2C98A 		.ascii	"\012\242\311\212\240\374\333\262\252\244T\026\211\207"
 322      A0FCDBB2 
 322      AAA45416 
 322      8987
 323 0eb5 8448D978 		.ascii	"\204H\331x1\022\021\244\262\212P\350\011A\212>\021\213"
 323      311211A4 
 323      B28A50E8 
 323      09418A3E 
 323      118B
 324 0ec7 C7C42744 		.ascii	"\307\304'DaB\270\354\247#G\215\0369f\344\317\313\214"
 324      6142B8EC 
 324      A723478D 
 324      1E3966E4 
 324      CFCB8C
 325 0eda D5E15828 		.ascii	"\325\341X(RU.\226%\345\362pL\006H\037|\374\354\247A"
 325      52552E96 
 325      25E5F270 
 325      4C06481F 
 325      7CFCECA7 
 326 0eef F93FBE06 		.ascii	"\371?\276\006\320\250\020\252\014\307\304\262`\2718"
 326      D0A810AA 
 326      0CC7C4B2 
 326      60B938
 327 0efe 51A88AC8 		.ascii	"Q\250\212\310A\215n\1770\250\016\363\2754\333\262\230"
 327      418D6E7F 
 327      30A80EF3 
 327      BD34DBB2 
ARM GAS  /var/folders/c6/c789hm653lg9vtl73krp73tm0000gn/T//ccCzjVT0.s 			page 26


 327      98
 328 0f0f 9429E3F4 		.ascii	"\224)\343\364\023\330\032\021\342\012\345JI\024\312"
 328      13D81A11 
 328      E20AE54A 
 328      4914CA
 329 0f1e 49A204BE 		.ascii	"I\242\004\276\217\012\212S\304P\225,\016\266\354A\205"
 329      8F0A8A53 
 329      C450952C 
 329      0EB6EC41 
 329      85
 330 0f2f 11FC8778 		.ascii	"\021\374\207x<\362`\220~\015\012\311\244(\311\301\244"
 330      3CF26090 
 330      7E0D0AC9 
 330      A428C9C1 
 330      A4
 331 0f40 F8429518 		.ascii	"\370B\225\030\013\211\003\260R\214\206\201\206\370\363"
 331      0B8903B0 
 331      528C8681 
 331      86F8F3
 332 0f4f 626C9849 		.ascii	"bl\230I\332\032\305\241J:t%\367\210\355\373\344\324"
 332      DA1AC5A1 
 332      4A3A7425 
 332      F788EDFB 
 332      E4D4
 333 0f61 A4C64511 		.ascii	"\244\306E\021\243/(\373C\225A\366\034\260\357\027\252"
 333      A32F28FB 
 333      439541F6 
 333      1CB0EF17 
 333      AA
 334 0f72 2C873E85 		.ascii	",\207>\205\211`L\234\"\303GB\022'\371\344\204\024\216"
 334      89604C9C 
 334      22C34742 
 334      1227F9E4 
 334      84148E
 335 0f85 07E5A22A 		.ascii	"\007\345\242*U\034\375\202A\355\021\233\204\343\276"
 335      551CFD82 
 335      41ED119B 
 335      84E3BE
 336 0f94 503C2643 		.ascii	"P<&C\217Gs\332Ge(."
 336      8F4773DA 
 336      4765282E 
 337 0fa0 89005F4C 		.ascii	"\211\000_L\253\251lC\362\224\307\362\367\010Nz2J\031"
 337      ABA96C43 
 337      F294C7F2 
 337      F7084E7A 
 337      324A19
 338 0fb3 91C40AD0 		.ascii	"\221\304\012\320`P\346\245\321\274\364s^\372\005/=\311"
 338      6050E6A5 
 338      D1BCF473 
 338      5EFA052F 
 338      3DC9
 339 0fc5 4B6378E9 		.ascii	"Kcx\351\227\036i\324H\270G\361\021\011>~V\220\010\002"
 339      971E69D4 
 339      48B847F1 
 339      11093E7E 
 339      56900802 
 340 0fd9 B28F3231 		.ascii	"\262\21721Y\224\3403\036)\027%\312\224\020\025\213\344"
ARM GAS  /var/folders/c6/c789hm653lg9vtl73krp73tm0000gn/T//ccCzjVT0.s 			page 27


 340      5994E033 
 340      1E291725 
 340      CA941015 
 340      8BE4
 341 0feb A42CC862 		.ascii	"\244,\310bP\366Q\036\306\200\\\0307\360\004-\361\235"
 341      50F6511E 
 341      C6805C18 
 341      37F0042D 
 341      F19D
 342 0ffd 4F8EC6   		.ascii	"O\216\306"
 343 1000 CB45FC3E 		.ascii	"\313E\374>1\"T$}\262$NL\"\263\364\241P*\237\012\012"
 343      31225424 
 343      7DB2244E 
 343      4C22B3F4 
 343      A1502A9F 
 344 1016 2812A784 		.ascii	"(\022\247\204\345\0204,\234,\307'\374W\342\001U\320"
 344      E510342C 
 344      9C2CC727 
 344      FC57E201 
 344      55D0
 345 1028 D04494A8 		.ascii	"\320D\224\250:\203r\301dY\226\022% \370\244\030\025"
 345      3A8372C1 
 345      64599612 
 345      2520F8A4 
 345      1815
 346 103a 1295C08C 		.ascii	"\022\225\300\214\275N\241\011p9\200\241$\203`\022U\000"
 346      BD4EA109 
 346      703980A1 
 346      24836012 
 346      5500
 347 104c 3130AD35 		.ascii	"10\2555\265\312\247~\026\204b`&\005\311 |\002\005\320"
 347      B5CAA77E 
 347      16846260 
 347      2605C920 
 347      7C0205D0 
 348 1060 3B51046D 		.ascii	";Q\004m\243`|Sr\030\216<\205\272OT\305\212\006\343\223"
 348      A3607C53 
 348      72188E3C 
 348      85BA4F54 
 348      C58A06E3 
 349 1075 632022EC 		.ascii	"c \"\354\005\014F\231\336'\313\320.Q,N\022crTH>\017"
 349      050C4699 
 349      DE27CBD0 
 349      2E512C4E 
 349      12637254 
 350 108c 6FC4C9F4 		.ascii	"o\304\311\364\301\223\010V\225j\344D\302`\255\362\000"
 350      C1930856 
 350      956AE444 
 350      C260ADF2 
 350      00
 351 109d 1D81B4C6 		.ascii	"\035\201\264\306\237\010N\026\302r8V\321/\021\00411"
 351      9F084E16 
 351      C2723856 
 351      D12F1104 
 351      3131
 352 10af 62F1112A 		.ascii	"b\361\021*\304\204\030\003\037\256\200V0\004m\337\217"
 352      C4841803 
ARM GAS  /var/folders/c6/c789hm653lg9vtl73krp73tm0000gn/T//ccCzjVT0.s 			page 28


 352      1FAE8056 
 352      30046DDF 
 352      8F
 353 10c0 0A5588A0 		.ascii	"\012U\210\240\025Ae\002\274\003\004\366L\262\342\367"
 353      15416502 
 353      BC0304F6 
 353      4CB2E2F7 
 354 10d0 62441492 		.ascii	"bD\024\222\242\037\277\374\033@\376\235-W\352\370\300"
 354      A21FBFFC 
 354      1B40FE9D 
 354      2D57EAF8 
 354      C0
 355 10e1 D9BFBB0A 		.ascii	"\331\277\273\012\010\221\360\004\372\332\024\030F\217"
 355      0891F004 
 355      FADA1418 
 355      468F
 356 10ef 183362B4 		.ascii	"\0303b\264>\346@`\240N\221\014\37775\012ybU,\024\224"
 356      3EE64060 
 356      A04E910C 
 356      FF37350A 
 356      7962552C 
 357 1105 07852AFF 		.ascii	"\007\205*\377\265\262|<\014,\213\317\202\325\204C\214"
 357      B5B27C3C 
 357      0C2C8BCF 
 357      82D58443 
 357      8C
 358 1116 D2678141 		.ascii	"\322g\201A~\262PL\225\016^(F\231\347\261\347\022J\347"
 358      7EB2504C 
 358      950E5E28 
 358      4699E7B1 
 358      E7124AE7 
 359 112a 545572FD 		.ascii	"TUr\375\241:\363\335'1\235\024J\350Q\005\022\332\260"
 359      A13AF3DD 
 359      27319D14 
 359      4AE85105 
 359      12DAB0
 360 113d A4DAB0C4 		.ascii	"\244\332\260\304l\330\017\265U\022X\227\\ \321N\017"
 360      6CD80FB5 
 360      55125897 
 360      5C20D14E 
 360      0F
 361 114e 4E0A4B72 		.ascii	"N\012Kr\225\020\011\312\341(\004^\025\370!\000\266x"
 361      951009CA 
 361      E128045E 
 361      15F82100 
 361      B678
 362 1160 31C050C7 		.ascii	"1\300P\307L\313P\345\233$\243\376\351'u|?%\032^\200"
 362      4CCB50E5 
 362      9B24A3FE 
 362      E927757C 
 362      3F251A5E 
 363 1175 EB434DB9 		.ascii	"\353CM\271\030\221\005x`\354\3236\364\251\220\266\025"
 363      18910578 
 363      60ECD336 
 363      F4A990B6 
 363      15
 364 1186 A462F888 		.ascii	"\244b\370\210\010I\2316\207*:\\\251\312~\2718\241\252"
ARM GAS  /var/folders/c6/c789hm653lg9vtl73krp73tm0000gn/T//ccCzjVT0.s 			page 29


 364      08499936 
 364      872A3A5C 
 364      A9CA7EB9 
 364      38A1AA
 365 1199 82D989BE 		.ascii	"\202\331\211\276\306\237\020b\341\0205\013O\371\204"
 365      C69F1062 
 365      E110350B 
 365      4FF984
 366 11a8 8A7E5101 		.ascii	"\212~Q\001|\020\3258\324^\315\324A\006\312\321 h7<A"
 366      7C10D538 
 366      D45ECDD4 
 366      4106CAD1 
 366      2068373C 
 367 11bd 0299C763 		.ascii	"\002\231\307c@\211$\243+\024\306'NL\2122/G\373%\345"
 367      408924A3 
 367      2B14C627 
 367      4E4C8A32 
 367      2F47FB25 
 368 11d2 E7A14545 		.ascii	"\347\241EEL\215Y\277\030\235\216Y\364\2614\\\036\021"
 368      4C8D59BF 
 368      189D8E59 
 368      F4B1345C 
 368      1E11
 369 11e4 559B055B 		.ascii	"U\233\005[\345C\225>\325\200\212h\000\016\201\321yi"
 369      E543953E 
 369      D5808A68 
 369      000E81D1 
 369      7969
 370 11f6 A42800B4 		.ascii	"\244(\000\264\252\004\324\011R9\270\211O\015\355\375"
 370      AA04D409 
 370      5239B889 
 370      4F0DEDFD 
 371 1206 12822C8B 		.ascii	"\022\202,\213R\214\206\0005\015\214\0328B\212\227\013"
 371      528C8600 
 371      350D8C1A 
 371      38428A97 
 371      0B
 372 1217 B23042AB 		.ascii	"\2620B\253\030\360\214\230L\012\025b\362'\201H<\236"
 372      18F08C98 
 372      4C0A1562 
 372      F2278148 
 372      3C9E
 373 1229 E098B53C 		.ascii	"\340\230\265<-\312\377\002\272\225\302\362\324\347\372"
 373      2DCAFF02 
 373      BA95C2F2 
 373      D4E7FA
 374 1238 6B35CF8A 		.ascii	"k5\317\212\221\211\317\375?\272\316\015|"
 374      9189CFFD 
 374      3FBACE0D 
 374      7C
 375              		.text
 376              		.section	.gnu.lto_.symtab.124cae451a8a9a02,"",%progbits
 377 0000 70617474 		.ascii	"patternmsg\000\000\000\000\000\000\000\000\000\000\000"
 377      65726E6D 
 377      73670000 
 377      00000000 
 377      00000000 
ARM GAS  /var/folders/c6/c789hm653lg9vtl73krp73tm0000gn/T//ccCzjVT0.s 			page 30


 378 0015 00F60100 		.ascii	"\000\366\001\000\000testmsg1\000\000\000\000\000\000"
 378      00746573 
 378      746D7367 
 378      31000000 
 378      000000
 379 0028 00000000 		.ascii	"\000\000\000\000\000\000\014\002\000\000wa\000\000\002"
 379      00000C02 
 379      00007761 
 379      000002
 380 0037 00000000 		.ascii	"\000\000\000\000\000\000\000\000\000\207\001\000\000"
 380      00000000 
 380      00870100 
 380      00
 381 0044 63680000 		.ascii	"ch\000\000\002\000\000\000\000\000\000\000\000\000\214"
 381      02000000 
 381      00000000 
 381      00008C
 382 0053 01000074 		.ascii	"\001\000\000threads\000\000\002\000\000\000\000\000"
 382      68726561 
 382      64730000 
 382      02000000 
 382      0000
 383 0065 00000000 		.ascii	"\000\000\000\000\362\001\000\000_test_assert_sequen"
 383      F2010000 
 383      5F746573 
 383      745F6173 
 383      73657274 
 384 0080 63650000 		.ascii	"ce\000\000\002\000\000\000\000\000\000\000\000\000\275"
 384      02000000 
 384      00000000 
 384      0000BD
 385 008f 00000074 		.ascii	"\000\000\000test_emit_token\000\000\002\000\000\000"
 385      6573745F 
 385      656D6974 
 385      5F746F6B 
 385      656E0000 
 386 00a7 00000000 		.ascii	"\000\000\000\000\000\000\306\000\000\000chMsgReleas"
 386      0000C600 
 386      00006368 
 386      4D736752 
 386      656C6561 
 387 00bc 65000002 		.ascii	"e\000\000\002\000\000\000\000\000\000\000\000\000\312"
 387      00000000 
 387      00000000 
 387      00CA
 388 00ca 00000063 		.ascii	"\000\000\000chMsgWait\000\000\002\000\000\000\000\000"
 388      684D7367 
 388      57616974 
 388      00000200 
 388      00000000 
 389 00de 00000000 		.ascii	"\000\000\000\000q\001\000\000chThdCreateStatic\000\000"
 389      71010000 
 389      63685468 
 389      64437265 
 389      61746553 
 390 00f9 02000000 		.ascii	"\002\000\000\000\000\000\000\000\000\000t\001\000\000"
 390      00000000 
ARM GAS  /var/folders/c6/c789hm653lg9vtl73krp73tm0000gn/T//ccCzjVT0.s 			page 31


 390      00007401 
 390      0000
 391 0107 63684D73 		.ascii	"chMsgSend\000\000\002\000\000\000\000\000\000\000\000"
 391      6753656E 
 391      64000002 
 391      00000000 
 391      00000000 
 392 011b 00820100 		.ascii	"\000\202\001\000\000"
 392      00
 393              		.text
 394              		.section	.gnu.lto_.opts,"",%progbits
 395 0000 272D6D63 		.ascii	"'-mcpu=cortex-m4' '-mno-thumb-interwork' '-mthumb' "
 395      70753D63 
 395      6F727465 
 395      782D6D34 
 395      2720272D 
 396 0033 272D6767 		.ascii	"'-ggdb' '-O2' '-fomit-frame-pointer' '-falign-funct"
 396      64622720 
 396      272D4F32 
 396      2720272D 
 396      666F6D69 
 397 0066 696F6E73 		.ascii	"ions=16' '-ffunction-sections' '-fdata-sections' '-"
 397      3D313627 
 397      20272D66 
 397      66756E63 
 397      74696F6E 
 398 0099 666E6F2D 		.ascii	"fno-common' '-flto'\000"
 398      636F6D6D 
 398      6F6E2720 
 398      272D666C 
 398      746F2700 
 399              		.text
 400              		.cfi_sections	.debug_frame
 401              		.section	.text.msg1_execute,"ax",%progbits
 402              		.align	2
 403              		.p2align 4,,15
 404              		.thumb
 405              		.thumb_func
 406              		.type	msg1_execute, %function
 407              	msg1_execute:
 408              	.LFB230:
 409              		.file 1 "../../../test/rt/testmsg.c"
 410              		.loc 1 66 0
 411              		.cfi_startproc
 412              		@ args = 0, pretend = 0, frame = 0
 413              		@ frame_needed = 0, uses_anonymous_args = 0
 414 0000 10B5     		push	{r4, lr}
 415              		.cfi_def_cfa_offset 8
 416              		.cfi_offset 4, -8
 417              		.cfi_offset 14, -4
 418              	.LBB16:
 419              	.LBB17:
 420              	.LBB18:
 421              	.LBB19:
 422              		.file 2 "../../../os/rt/include/chthreads.h"
 423              		.loc 2 176 0
 424 0002 184A     		ldr	r2, .L2
ARM GAS  /var/folders/c6/c789hm653lg9vtl73krp73tm0000gn/T//ccCzjVT0.s 			page 32


 425              	.LBE19:
 426              	.LBE18:
 427              	.LBE17:
 428              	.LBE16:
 429              		.loc 1 73 0
 430 0004 184B     		ldr	r3, .L2+4
 431              	.LBB23:
 432              	.LBB22:
 433              	.LBB21:
 434              	.LBB20:
 435              		.loc 2 176 0
 436 0006 9169     		ldr	r1, [r2, #24]
 437              	.LBE20:
 438              	.LBE21:
 439              	.LBE22:
 440              	.LBE23:
 441              		.loc 1 73 0
 442 0008 1868     		ldr	r0, [r3]
 443 000a 8A68     		ldr	r2, [r1, #8]
 444 000c 174B     		ldr	r3, .L2+8
 445              		.loc 1 66 0
 446 000e 82B0     		sub	sp, sp, #8
 447              		.cfi_def_cfa_offset 16
 448              		.loc 1 73 0
 449 0010 0132     		adds	r2, r2, #1
 450 0012 0091     		str	r1, [sp]
 451 0014 4FF4A471 		mov	r1, #328
 452 0018 FFF7FEFF 		bl	chThdCreateStatic
 453              	.LVL0:
 454 001c 144B     		ldr	r3, .L2+12
 455 001e 1860     		str	r0, [r3]
 456              		.loc 1 75 0
 457 0020 FFF7FEFF 		bl	chMsgWait
 458              	.LVL1:
 459              		.loc 1 67 0
 460 0024 046B     		ldr	r4, [r0, #48]
 461              	.LVL2:
 462              		.loc 1 77 0
 463 0026 2146     		mov	r1, r4
 464 0028 FFF7FEFF 		bl	chMsgRelease
 465              	.LVL3:
 466              		.loc 1 78 0
 467 002c E0B2     		uxtb	r0, r4
 468 002e FFF7FEFF 		bl	test_emit_token
 469              	.LVL4:
 470              		.loc 1 79 0
 471 0032 FFF7FEFF 		bl	chMsgWait
 472              	.LVL5:
 473              		.loc 1 67 0
 474 0036 046B     		ldr	r4, [r0, #48]
 475              	.LVL6:
 476              		.loc 1 81 0
 477 0038 2146     		mov	r1, r4
 478 003a FFF7FEFF 		bl	chMsgRelease
 479              	.LVL7:
 480              		.loc 1 82 0
 481 003e E0B2     		uxtb	r0, r4
ARM GAS  /var/folders/c6/c789hm653lg9vtl73krp73tm0000gn/T//ccCzjVT0.s 			page 33


 482 0040 FFF7FEFF 		bl	test_emit_token
 483              	.LVL8:
 484              		.loc 1 83 0
 485 0044 FFF7FEFF 		bl	chMsgWait
 486              	.LVL9:
 487              		.loc 1 67 0
 488 0048 046B     		ldr	r4, [r0, #48]
 489              	.LVL10:
 490              		.loc 1 85 0
 491 004a 2146     		mov	r1, r4
 492 004c FFF7FEFF 		bl	chMsgRelease
 493              	.LVL11:
 494              		.loc 1 86 0
 495 0050 E0B2     		uxtb	r0, r4
 496 0052 FFF7FEFF 		bl	test_emit_token
 497              	.LVL12:
 498              		.loc 1 87 0
 499 0056 0749     		ldr	r1, .L2+16
 500 0058 0120     		movs	r0, #1
 501              		.loc 1 88 0
 502 005a 02B0     		add	sp, sp, #8
 503              		@ sp needed
 504 005c BDE81040 		pop	{r4, lr}
 505              		.loc 1 87 0
 506 0060 FFF7FEBF 		b	_test_assert_sequence
 507              	.LVL13:
 508              	.L3:
 509              		.align	2
 510              	.L2:
 511 0064 00000000 		.word	ch
 512 0068 00000000 		.word	wa
 513 006c 00000000 		.word	thread
 514 0070 00000000 		.word	threads
 515 0074 00000000 		.word	.LC0
 516              		.cfi_endproc
 517              	.LFE230:
 518              		.size	msg1_execute, .-msg1_execute
 519 0078 AFF30080 		.section	.text.thread,"ax",%progbits
 519      AFF30080 
 520              		.align	2
 521              		.p2align 4,,15
 522              		.thumb
 523              		.thumb_func
 524              		.type	thread, %function
 525              	thread:
 526              	.LFB229:
 527              		.loc 1 59 0
 528              		.cfi_startproc
 529              		@ args = 0, pretend = 0, frame = 0
 530              		@ frame_needed = 0, uses_anonymous_args = 0
 531              	.LVL14:
 532 0000 10B5     		push	{r4, lr}
 533              		.cfi_def_cfa_offset 8
 534              		.cfi_offset 4, -8
 535              		.cfi_offset 14, -4
 536              		.loc 1 61 0
 537 0002 4121     		movs	r1, #65
ARM GAS  /var/folders/c6/c789hm653lg9vtl73krp73tm0000gn/T//ccCzjVT0.s 			page 34


 538              		.loc 1 59 0
 539 0004 0446     		mov	r4, r0
 540              		.loc 1 61 0
 541 0006 FFF7FEFF 		bl	chMsgSend
 542              	.LVL15:
 543              		.loc 1 62 0
 544 000a 2046     		mov	r0, r4
 545 000c 4221     		movs	r1, #66
 546 000e FFF7FEFF 		bl	chMsgSend
 547              	.LVL16:
 548              		.loc 1 63 0
 549 0012 2046     		mov	r0, r4
 550 0014 4321     		movs	r1, #67
 551              		.loc 1 64 0
 552 0016 BDE81040 		pop	{r4, lr}
 553              	.LVL17:
 554              		.loc 1 63 0
 555 001a FFF7FEBF 		b	chMsgSend
 556              	.LVL18:
 557              		.cfi_endproc
 558              	.LFE229:
 559              		.size	thread, .-thread
 560              		.global	patternmsg
 561              		.global	testmsg1
 562 001e 00BF     		.section	.rodata.testmsg1,"a",%progbits
 563              		.align	2
 564              		.type	testmsg1, %object
 565              		.size	testmsg1, 16
 566              	testmsg1:
 567 0000 04000000 		.word	.LC1
 568 0004 00000000 		.word	0
 569 0008 00000000 		.word	0
 570 000c 00000000 		.word	msg1_execute
 571              		.section	.rodata.str1.4,"aMS",%progbits,1
 572              		.align	2
 573              	.LC0:
 574 0000 41424300 		.ascii	"ABC\000"
 575              	.LC1:
 576 0004 4D657373 		.ascii	"Messages, loop\000"
 576      61676573 
 576      2C206C6F 
 576      6F7000
 577 0013 00       		.section	.rodata.patternmsg,"a",%progbits
 578              		.align	2
 579              		.type	patternmsg, %object
 580              		.size	patternmsg, 8
 581              	patternmsg:
 582 0000 00000000 		.word	testmsg1
 583 0004 00000000 		.word	0
 584              		.text
 585              	.Letext0:
 586              		.file 3 "/usr/local/Cellar/gcc-arm-none-eabi/20140805/lib/gcc/arm-none-eabi/4.8.4/include/stddef.h
 587              		.file 4 "/usr/local/Cellar/gcc-arm-none-eabi/20140805/arm-none-eabi/include/machine/_default_types
 588              		.file 5 "/usr/local/Cellar/gcc-arm-none-eabi/20140805/arm-none-eabi/include/stdint.h"
 589              		.file 6 "../../../os/rt/ports/ARMCMx/compilers/GCC/chtypes.h"
 590              		.file 7 "../../../os/rt/include/chsystypes.h"
 591              		.file 8 "../../../os/rt/include/chschd.h"
ARM GAS  /var/folders/c6/c789hm653lg9vtl73krp73tm0000gn/T//ccCzjVT0.s 			page 35


 592              		.file 9 "../../../os/rt/ports/ARMCMx/chcore.h"
 593              		.file 10 "../../../os/rt/ports/ARMCMx/chcore_v7m.h"
 594              		.file 11 "../../../os/rt/include/chtm.h"
 595              		.file 12 "../../../os/rt/include/chsem.h"
 596              		.file 13 "../../../os/rt/include/chmtx.h"
 597              		.file 14 "../../../test/rt/test.h"
 598              		.file 15 "../../../os/ext/CMSIS/include/core_cm4.h"
 599              		.file 16 "../../../os/rt/include/chmsg.h"
 600              		.section	.debug_info,"",%progbits
 601              	.Ldebug_info0:
 602 0000 54090000 		.4byte	0x954
 603 0004 0400     		.2byte	0x4
 604 0006 00000000 		.4byte	.Ldebug_abbrev0
 605 000a 04       		.byte	0x4
 606 000b 01       		.uleb128 0x1
 607 000c 4E050000 		.4byte	.LASF122
 608 0010 01       		.byte	0x1
 609 0011 D9020000 		.4byte	.LASF123
 610 0015 2D040000 		.4byte	.LASF124
 611 0019 30000000 		.4byte	.Ldebug_ranges0+0x30
 612 001d 00000000 		.4byte	0
 613 0021 00000000 		.4byte	.Ldebug_line0
 614 0025 02       		.uleb128 0x2
 615 0026 04       		.byte	0x4
 616 0027 05       		.byte	0x5
 617 0028 696E7400 		.ascii	"int\000"
 618 002c 03       		.uleb128 0x3
 619 002d 15000000 		.4byte	.LASF2
 620 0031 03       		.byte	0x3
 621 0032 D4       		.byte	0xd4
 622 0033 37000000 		.4byte	0x37
 623 0037 04       		.uleb128 0x4
 624 0038 04       		.byte	0x4
 625 0039 07       		.byte	0x7
 626 003a 6A010000 		.4byte	.LASF0
 627 003e 04       		.uleb128 0x4
 628 003f 01       		.byte	0x1
 629 0040 06       		.byte	0x6
 630 0041 C5000000 		.4byte	.LASF1
 631 0045 03       		.uleb128 0x3
 632 0046 2C000000 		.4byte	.LASF3
 633 004a 04       		.byte	0x4
 634 004b 1C       		.byte	0x1c
 635 004c 50000000 		.4byte	0x50
 636 0050 04       		.uleb128 0x4
 637 0051 01       		.byte	0x1
 638 0052 08       		.byte	0x8
 639 0053 53030000 		.4byte	.LASF4
 640 0057 04       		.uleb128 0x4
 641 0058 02       		.byte	0x2
 642 0059 05       		.byte	0x5
 643 005a 6B030000 		.4byte	.LASF5
 644 005e 04       		.uleb128 0x4
 645 005f 02       		.byte	0x2
 646 0060 07       		.byte	0x7
 647 0061 AE010000 		.4byte	.LASF6
 648 0065 03       		.uleb128 0x3
ARM GAS  /var/folders/c6/c789hm653lg9vtl73krp73tm0000gn/T//ccCzjVT0.s 			page 36


 649 0066 FF010000 		.4byte	.LASF7
 650 006a 04       		.byte	0x4
 651 006b 37       		.byte	0x37
 652 006c 70000000 		.4byte	0x70
 653 0070 04       		.uleb128 0x4
 654 0071 04       		.byte	0x4
 655 0072 05       		.byte	0x5
 656 0073 08010000 		.4byte	.LASF8
 657 0077 03       		.uleb128 0x3
 658 0078 AB040000 		.4byte	.LASF9
 659 007c 04       		.byte	0x4
 660 007d 38       		.byte	0x38
 661 007e 82000000 		.4byte	0x82
 662 0082 04       		.uleb128 0x4
 663 0083 04       		.byte	0x4
 664 0084 07       		.byte	0x7
 665 0085 1B040000 		.4byte	.LASF10
 666 0089 04       		.uleb128 0x4
 667 008a 08       		.byte	0x8
 668 008b 05       		.byte	0x5
 669 008c B7000000 		.4byte	.LASF11
 670 0090 03       		.uleb128 0x3
 671 0091 F4020000 		.4byte	.LASF12
 672 0095 04       		.byte	0x4
 673 0096 4E       		.byte	0x4e
 674 0097 9B000000 		.4byte	0x9b
 675 009b 04       		.uleb128 0x4
 676 009c 08       		.byte	0x8
 677 009d 07       		.byte	0x7
 678 009e 51000000 		.4byte	.LASF13
 679 00a2 03       		.uleb128 0x3
 680 00a3 1C050000 		.4byte	.LASF14
 681 00a7 05       		.byte	0x5
 682 00a8 2A       		.byte	0x2a
 683 00a9 45000000 		.4byte	0x45
 684 00ad 03       		.uleb128 0x3
 685 00ae 4B030000 		.4byte	.LASF15
 686 00b2 05       		.byte	0x5
 687 00b3 41       		.byte	0x41
 688 00b4 65000000 		.4byte	0x65
 689 00b8 03       		.uleb128 0x3
 690 00b9 EA030000 		.4byte	.LASF16
 691 00bd 05       		.byte	0x5
 692 00be 42       		.byte	0x42
 693 00bf 77000000 		.4byte	0x77
 694 00c3 03       		.uleb128 0x3
 695 00c4 23000000 		.4byte	.LASF17
 696 00c8 05       		.byte	0x5
 697 00c9 4E       		.byte	0x4e
 698 00ca 90000000 		.4byte	0x90
 699 00ce 05       		.uleb128 0x5
 700 00cf AD000000 		.4byte	0xad
 701 00d3 03       		.uleb128 0x3
 702 00d4 CF040000 		.4byte	.LASF18
 703 00d8 06       		.byte	0x6
 704 00d9 45       		.byte	0x45
 705 00da B8000000 		.4byte	0xb8
ARM GAS  /var/folders/c6/c789hm653lg9vtl73krp73tm0000gn/T//ccCzjVT0.s 			page 37


 706 00de 03       		.uleb128 0x3
 707 00df DD010000 		.4byte	.LASF19
 708 00e3 06       		.byte	0x6
 709 00e4 48       		.byte	0x48
 710 00e5 A2000000 		.4byte	0xa2
 711 00e9 03       		.uleb128 0x3
 712 00ea 1B010000 		.4byte	.LASF20
 713 00ee 06       		.byte	0x6
 714 00ef 49       		.byte	0x49
 715 00f0 A2000000 		.4byte	0xa2
 716 00f4 03       		.uleb128 0x3
 717 00f5 FF020000 		.4byte	.LASF21
 718 00f9 06       		.byte	0x6
 719 00fa 4A       		.byte	0x4a
 720 00fb A2000000 		.4byte	0xa2
 721 00ff 03       		.uleb128 0x3
 722 0100 26030000 		.4byte	.LASF22
 723 0104 06       		.byte	0x6
 724 0105 4C       		.byte	0x4c
 725 0106 B8000000 		.4byte	0xb8
 726 010a 03       		.uleb128 0x3
 727 010b CB010000 		.4byte	.LASF23
 728 010f 06       		.byte	0x6
 729 0110 4D       		.byte	0x4d
 730 0111 AD000000 		.4byte	0xad
 731 0115 03       		.uleb128 0x3
 732 0116 F3010000 		.4byte	.LASF24
 733 011a 06       		.byte	0x6
 734 011b 4F       		.byte	0x4f
 735 011c B8000000 		.4byte	0xb8
 736 0120 03       		.uleb128 0x3
 737 0121 64010000 		.4byte	.LASF25
 738 0125 06       		.byte	0x6
 739 0126 51       		.byte	0x51
 740 0127 AD000000 		.4byte	0xad
 741 012b 03       		.uleb128 0x3
 742 012c 8D040000 		.4byte	.LASF26
 743 0130 07       		.byte	0x7
 744 0131 33       		.byte	0x33
 745 0132 B8000000 		.4byte	0xb8
 746 0136 03       		.uleb128 0x3
 747 0137 7D040000 		.4byte	.LASF27
 748 013b 07       		.byte	0x7
 749 013c 3F       		.byte	0x3f
 750 013d 41010000 		.4byte	0x141
 751 0141 06       		.uleb128 0x6
 752 0142 C1010000 		.4byte	.LASF47
 753 0146 44       		.byte	0x44
 754 0147 08       		.byte	0x8
 755 0148 C2       		.byte	0xc2
 756 0149 2E020000 		.4byte	0x22e
 757 014d 07       		.uleb128 0x7
 758 014e 9C030000 		.4byte	.LASF28
 759 0152 08       		.byte	0x8
 760 0153 C3       		.byte	0xc3
 761 0154 39020000 		.4byte	0x239
 762 0158 00       		.byte	0
ARM GAS  /var/folders/c6/c789hm653lg9vtl73krp73tm0000gn/T//ccCzjVT0.s 			page 38


 763 0159 07       		.uleb128 0x7
 764 015a 17030000 		.4byte	.LASF29
 765 015e 08       		.byte	0x8
 766 015f C5       		.byte	0xc5
 767 0160 39020000 		.4byte	0x239
 768 0164 04       		.byte	0x4
 769 0165 07       		.uleb128 0x7
 770 0166 B0000000 		.4byte	.LASF30
 771 016a 08       		.byte	0x8
 772 016b C7       		.byte	0xc7
 773 016c FF000000 		.4byte	0xff
 774 0170 08       		.byte	0x8
 775 0171 07       		.uleb128 0x7
 776 0172 3C060000 		.4byte	.LASF31
 777 0176 08       		.byte	0x8
 778 0177 C8       		.byte	0xc8
 779 0178 69040000 		.4byte	0x469
 780 017c 0C       		.byte	0xc
 781 017d 07       		.uleb128 0x7
 782 017e 24010000 		.4byte	.LASF32
 783 0182 08       		.byte	0x8
 784 0183 CA       		.byte	0xca
 785 0184 39020000 		.4byte	0x239
 786 0188 10       		.byte	0x10
 787 0189 07       		.uleb128 0x7
 788 018a 8B020000 		.4byte	.LASF33
 789 018e 08       		.byte	0x8
 790 018f CB       		.byte	0xcb
 791 0190 39020000 		.4byte	0x239
 792 0194 14       		.byte	0x14
 793 0195 07       		.uleb128 0x7
 794 0196 38050000 		.4byte	.LASF34
 795 019a 08       		.byte	0x8
 796 019b D2       		.byte	0xd2
 797 019c E8050000 		.4byte	0x5e8
 798 01a0 18       		.byte	0x18
 799 01a1 07       		.uleb128 0x7
 800 01a2 75030000 		.4byte	.LASF35
 801 01a6 08       		.byte	0x8
 802 01a7 DD       		.byte	0xdd
 803 01a8 E9000000 		.4byte	0xe9
 804 01ac 1C       		.byte	0x1c
 805 01ad 07       		.uleb128 0x7
 806 01ae A3030000 		.4byte	.LASF36
 807 01b2 08       		.byte	0x8
 808 01b3 E1       		.byte	0xe1
 809 01b4 DE000000 		.4byte	0xde
 810 01b8 1D       		.byte	0x1d
 811 01b9 07       		.uleb128 0x7
 812 01ba 01050000 		.4byte	.LASF37
 813 01be 08       		.byte	0x8
 814 01bf E6       		.byte	0xe6
 815 01c0 F4000000 		.4byte	0xf4
 816 01c4 1E       		.byte	0x1e
 817 01c5 08       		.uleb128 0x8
 818 01c6 705F7500 		.ascii	"p_u\000"
 819 01ca 08       		.byte	0x8
ARM GAS  /var/folders/c6/c789hm653lg9vtl73krp73tm0000gn/T//ccCzjVT0.s 			page 39


 820 01cb 3101     		.2byte	0x131
 821 01cd 23050000 		.4byte	0x523
 822 01d1 20       		.byte	0x20
 823 01d2 09       		.uleb128 0x9
 824 01d3 26020000 		.4byte	.LASF38
 825 01d7 08       		.byte	0x8
 826 01d8 3601     		.2byte	0x136
 827 01da 3F020000 		.4byte	0x23f
 828 01de 24       		.byte	0x24
 829 01df 09       		.uleb128 0x9
 830 01e0 86010000 		.4byte	.LASF39
 831 01e4 08       		.byte	0x8
 832 01e5 3C01     		.2byte	0x13c
 833 01e7 63020000 		.4byte	0x263
 834 01eb 28       		.byte	0x28
 835 01ec 09       		.uleb128 0x9
 836 01ed 2E060000 		.4byte	.LASF40
 837 01f1 08       		.byte	0x8
 838 01f2 4001     		.2byte	0x140
 839 01f4 0A010000 		.4byte	0x10a
 840 01f8 30       		.byte	0x30
 841 01f9 09       		.uleb128 0x9
 842 01fa DF030000 		.4byte	.LASF41
 843 01fe 08       		.byte	0x8
 844 01ff 4601     		.2byte	0x146
 845 0201 15010000 		.4byte	0x115
 846 0205 34       		.byte	0x34
 847 0206 09       		.uleb128 0x9
 848 0207 61030000 		.4byte	.LASF42
 849 020b 08       		.byte	0x8
 850 020c 4D01     		.2byte	0x14d
 851 020e E2050000 		.4byte	0x5e2
 852 0212 38       		.byte	0x38
 853 0213 09       		.uleb128 0x9
 854 0214 97040000 		.4byte	.LASF43
 855 0218 08       		.byte	0x8
 856 0219 5101     		.2byte	0x151
 857 021b FF000000 		.4byte	0xff
 858 021f 3C       		.byte	0x3c
 859 0220 09       		.uleb128 0x9
 860 0221 D1000000 		.4byte	.LASF44
 861 0225 08       		.byte	0x8
 862 0226 5801     		.2byte	0x158
 863 0228 16030000 		.4byte	0x316
 864 022c 40       		.byte	0x40
 865 022d 00       		.byte	0
 866 022e 03       		.uleb128 0x3
 867 022f 44020000 		.4byte	.LASF45
 868 0233 07       		.byte	0x7
 869 0234 44       		.byte	0x44
 870 0235 39020000 		.4byte	0x239
 871 0239 0A       		.uleb128 0xa
 872 023a 04       		.byte	0x4
 873 023b 36010000 		.4byte	0x136
 874 023f 03       		.uleb128 0x3
 875 0240 3F050000 		.4byte	.LASF46
 876 0244 07       		.byte	0x7
ARM GAS  /var/folders/c6/c789hm653lg9vtl73krp73tm0000gn/T//ccCzjVT0.s 			page 40


 877 0245 49       		.byte	0x49
 878 0246 4A020000 		.4byte	0x24a
 879 024a 06       		.uleb128 0x6
 880 024b 0B040000 		.4byte	.LASF48
 881 024f 04       		.byte	0x4
 882 0250 08       		.byte	0x8
 883 0251 B0       		.byte	0xb0
 884 0252 63020000 		.4byte	0x263
 885 0256 07       		.uleb128 0x7
 886 0257 9C030000 		.4byte	.LASF28
 887 025b 08       		.byte	0x8
 888 025c B1       		.byte	0xb1
 889 025d 39020000 		.4byte	0x239
 890 0261 00       		.byte	0
 891 0262 00       		.byte	0
 892 0263 03       		.uleb128 0x3
 893 0264 E8040000 		.4byte	.LASF49
 894 0268 07       		.byte	0x7
 895 0269 50       		.byte	0x50
 896 026a 6E020000 		.4byte	0x26e
 897 026e 06       		.uleb128 0x6
 898 026f 9F000000 		.4byte	.LASF50
 899 0273 08       		.byte	0x8
 900 0274 08       		.byte	0x8
 901 0275 B7       		.byte	0xb7
 902 0276 93020000 		.4byte	0x293
 903 027a 07       		.uleb128 0x7
 904 027b 9C030000 		.4byte	.LASF28
 905 027f 08       		.byte	0x8
 906 0280 B8       		.byte	0xb8
 907 0281 39020000 		.4byte	0x239
 908 0285 00       		.byte	0
 909 0286 07       		.uleb128 0x7
 910 0287 17030000 		.4byte	.LASF29
 911 028b 08       		.byte	0x8
 912 028c B9       		.byte	0xb9
 913 028d 39020000 		.4byte	0x239
 914 0291 04       		.byte	0x4
 915 0292 00       		.byte	0
 916 0293 03       		.uleb128 0x3
 917 0294 08000000 		.4byte	.LASF51
 918 0298 07       		.byte	0x7
 919 0299 57       		.byte	0x57
 920 029a 9E020000 		.4byte	0x29e
 921 029e 0B       		.uleb128 0xb
 922 029f E5010000 		.4byte	.LASF52
 923 02a3 1C       		.byte	0x1c
 924 02a4 08       		.byte	0x8
 925 02a5 9001     		.2byte	0x190
 926 02a7 FA020000 		.4byte	0x2fa
 927 02ab 09       		.uleb128 0x9
 928 02ac FA030000 		.4byte	.LASF53
 929 02b0 08       		.byte	0x8
 930 02b1 9101     		.2byte	0x191
 931 02b3 63020000 		.4byte	0x263
 932 02b7 00       		.byte	0
 933 02b8 09       		.uleb128 0x9
ARM GAS  /var/folders/c6/c789hm653lg9vtl73krp73tm0000gn/T//ccCzjVT0.s 			page 41


 934 02b9 85030000 		.4byte	.LASF54
 935 02bd 08       		.byte	0x8
 936 02be 9201     		.2byte	0x192
 937 02c0 FF000000 		.4byte	0xff
 938 02c4 08       		.byte	0x8
 939 02c5 09       		.uleb128 0x9
 940 02c6 93020000 		.4byte	.LASF55
 941 02ca 08       		.byte	0x8
 942 02cb 9401     		.2byte	0x194
 943 02cd 69040000 		.4byte	0x469
 944 02d1 0C       		.byte	0xc
 945 02d2 09       		.uleb128 0x9
 946 02d3 34010000 		.4byte	.LASF56
 947 02d7 08       		.byte	0x8
 948 02d8 9701     		.2byte	0x197
 949 02da 39020000 		.4byte	0x239
 950 02de 10       		.byte	0x10
 951 02df 09       		.uleb128 0x9
 952 02e0 D1020000 		.4byte	.LASF57
 953 02e4 08       		.byte	0x8
 954 02e5 9801     		.2byte	0x198
 955 02e7 39020000 		.4byte	0x239
 956 02eb 14       		.byte	0x14
 957 02ec 09       		.uleb128 0x9
 958 02ed C7020000 		.4byte	.LASF58
 959 02f1 08       		.byte	0x8
 960 02f2 9B01     		.2byte	0x19b
 961 02f4 39020000 		.4byte	0x239
 962 02f8 18       		.byte	0x18
 963 02f9 00       		.byte	0
 964 02fa 03       		.uleb128 0x3
 965 02fb A2040000 		.4byte	.LASF59
 966 02ff 07       		.byte	0x7
 967 0300 5C       		.byte	0x5c
 968 0301 05030000 		.4byte	0x305
 969 0305 0A       		.uleb128 0xa
 970 0306 04       		.byte	0x4
 971 0307 0B030000 		.4byte	0x30b
 972 030b 0C       		.uleb128 0xc
 973 030c 16030000 		.4byte	0x316
 974 0310 0D       		.uleb128 0xd
 975 0311 16030000 		.4byte	0x316
 976 0315 00       		.byte	0
 977 0316 0E       		.uleb128 0xe
 978 0317 04       		.byte	0x4
 979 0318 03       		.uleb128 0x3
 980 0319 07030000 		.4byte	.LASF60
 981 031d 07       		.byte	0x7
 982 031e 61       		.byte	0x61
 983 031f 23030000 		.4byte	0x323
 984 0323 0B       		.uleb128 0xb
 985 0324 AB030000 		.4byte	.LASF61
 986 0328 14       		.byte	0x14
 987 0329 08       		.byte	0x8
 988 032a 6B01     		.2byte	0x16b
 989 032c 72030000 		.4byte	0x372
 990 0330 09       		.uleb128 0x9
ARM GAS  /var/folders/c6/c789hm653lg9vtl73krp73tm0000gn/T//ccCzjVT0.s 			page 42


 991 0331 77010000 		.4byte	.LASF62
 992 0335 08       		.byte	0x8
 993 0336 6C01     		.2byte	0x16c
 994 0338 FA050000 		.4byte	0x5fa
 995 033c 00       		.byte	0
 996 033d 09       		.uleb128 0x9
 997 033e 45010000 		.4byte	.LASF63
 998 0342 08       		.byte	0x8
 999 0343 6D01     		.2byte	0x16d
 1000 0345 FA050000 		.4byte	0x5fa
 1001 0349 04       		.byte	0x4
 1002 034a 09       		.uleb128 0x9
 1003 034b 02040000 		.4byte	.LASF64
 1004 034f 08       		.byte	0x8
 1005 0350 6E01     		.2byte	0x16e
 1006 0352 2B010000 		.4byte	0x12b
 1007 0356 08       		.byte	0x8
 1008 0357 09       		.uleb128 0x9
 1009 0358 42060000 		.4byte	.LASF65
 1010 035c 08       		.byte	0x8
 1011 035d 6F01     		.2byte	0x16f
 1012 035f FA020000 		.4byte	0x2fa
 1013 0363 0C       		.byte	0xc
 1014 0364 09       		.uleb128 0x9
 1015 0365 D7040000 		.4byte	.LASF66
 1016 0369 08       		.byte	0x8
 1017 036a 7101     		.2byte	0x171
 1018 036c 16030000 		.4byte	0x316
 1019 0370 10       		.byte	0x10
 1020 0371 00       		.byte	0
 1021 0372 03       		.uleb128 0x3
 1022 0373 7C000000 		.4byte	.LASF67
 1023 0377 07       		.byte	0x7
 1024 0378 66       		.byte	0x66
 1025 0379 7D030000 		.4byte	0x37d
 1026 037d 0B       		.uleb128 0xb
 1027 037e 57020000 		.4byte	.LASF68
 1028 0382 10       		.byte	0x10
 1029 0383 08       		.byte	0x8
 1030 0384 7B01     		.2byte	0x17b
 1031 0386 BF030000 		.4byte	0x3bf
 1032 038a 09       		.uleb128 0x9
 1033 038b 77010000 		.4byte	.LASF62
 1034 038f 08       		.byte	0x8
 1035 0390 7C01     		.2byte	0x17c
 1036 0392 FA050000 		.4byte	0x5fa
 1037 0396 00       		.byte	0
 1038 0397 09       		.uleb128 0x9
 1039 0398 45010000 		.4byte	.LASF63
 1040 039c 08       		.byte	0x8
 1041 039d 7E01     		.2byte	0x17e
 1042 039f FA050000 		.4byte	0x5fa
 1043 03a3 04       		.byte	0x4
 1044 03a4 09       		.uleb128 0x9
 1045 03a5 02040000 		.4byte	.LASF64
 1046 03a9 08       		.byte	0x8
 1047 03aa 8001     		.2byte	0x180
ARM GAS  /var/folders/c6/c789hm653lg9vtl73krp73tm0000gn/T//ccCzjVT0.s 			page 43


 1048 03ac 2B010000 		.4byte	0x12b
 1049 03b0 08       		.byte	0x8
 1050 03b1 09       		.uleb128 0x9
 1051 03b2 7F020000 		.4byte	.LASF69
 1052 03b6 08       		.byte	0x8
 1053 03b7 8801     		.2byte	0x188
 1054 03b9 2B010000 		.4byte	0x12b
 1055 03bd 0C       		.byte	0xc
 1056 03be 00       		.byte	0
 1057 03bf 03       		.uleb128 0x3
 1058 03c0 42000000 		.4byte	.LASF70
 1059 03c4 07       		.byte	0x7
 1060 03c5 6B       		.byte	0x6b
 1061 03c6 CA030000 		.4byte	0x3ca
 1062 03ca 0B       		.uleb128 0xb
 1063 03cb 35030000 		.4byte	.LASF71
 1064 03cf 04       		.byte	0x4
 1065 03d0 08       		.byte	0x8
 1066 03d1 A201     		.2byte	0x1a2
 1067 03d3 E5030000 		.4byte	0x3e5
 1068 03d7 09       		.uleb128 0x9
 1069 03d8 B6040000 		.4byte	.LASF72
 1070 03dc 08       		.byte	0x8
 1071 03dd AA01     		.2byte	0x1aa
 1072 03df 00060000 		.4byte	0x600
 1073 03e3 00       		.byte	0
 1074 03e4 00       		.byte	0
 1075 03e5 03       		.uleb128 0x3
 1076 03e6 D1010000 		.4byte	.LASF73
 1077 03ea 07       		.byte	0x7
 1078 03eb 70       		.byte	0x70
 1079 03ec F0030000 		.4byte	0x3f0
 1080 03f0 0F       		.uleb128 0xf
 1081 03f1 FE000000 		.4byte	.LASF74
 1082 03f5 5001     		.2byte	0x150
 1083 03f7 08       		.byte	0x8
 1084 03f8 C201     		.2byte	0x1c2
 1085 03fa 4C040000 		.4byte	0x44c
 1086 03fe 09       		.uleb128 0x9
 1087 03ff 08050000 		.4byte	.LASF75
 1088 0403 08       		.byte	0x8
 1089 0404 C601     		.2byte	0x1c6
 1090 0406 93020000 		.4byte	0x293
 1091 040a 00       		.byte	0
 1092 040b 09       		.uleb128 0x9
 1093 040c F1000000 		.4byte	.LASF76
 1094 0410 08       		.byte	0x8
 1095 0411 CA01     		.2byte	0x1ca
 1096 0413 72030000 		.4byte	0x372
 1097 0417 1C       		.byte	0x1c
 1098 0418 08       		.uleb128 0x8
 1099 0419 64626700 		.ascii	"dbg\000"
 1100 041d 08       		.byte	0x8
 1101 041e CE01     		.2byte	0x1ce
 1102 0420 BF030000 		.4byte	0x3bf
 1103 0424 2C       		.byte	0x2c
 1104 0425 09       		.uleb128 0x9
ARM GAS  /var/folders/c6/c789hm653lg9vtl73krp73tm0000gn/T//ccCzjVT0.s 			page 44


 1105 0426 71000000 		.4byte	.LASF77
 1106 042a 08       		.byte	0x8
 1107 042b D201     		.2byte	0x1d2
 1108 042d 36010000 		.4byte	0x136
 1109 0431 30       		.byte	0x30
 1110 0432 08       		.uleb128 0x8
 1111 0433 746D00   		.ascii	"tm\000"
 1112 0436 08       		.byte	0x8
 1113 0437 D701     		.2byte	0x1d7
 1114 0439 18050000 		.4byte	0x518
 1115 043d 74       		.byte	0x74
 1116 043e 09       		.uleb128 0x9
 1117 043f 55010000 		.4byte	.LASF78
 1118 0443 08       		.byte	0x8
 1119 0444 E301     		.2byte	0x1e3
 1120 0446 05060000 		.4byte	0x605
 1121 044a 78       		.byte	0x78
 1122 044b 00       		.byte	0
 1123 044c 04       		.uleb128 0x4
 1124 044d 04       		.byte	0x4
 1125 044e 07       		.byte	0x7
 1126 044f 3B020000 		.4byte	.LASF79
 1127 0453 03       		.uleb128 0x3
 1128 0454 3C010000 		.4byte	.LASF80
 1129 0458 09       		.byte	0x9
 1130 0459 65       		.byte	0x65
 1131 045a 16030000 		.4byte	0x316
 1132 045e 03       		.uleb128 0x3
 1133 045f 09020000 		.4byte	.LASF81
 1134 0463 09       		.byte	0x9
 1135 0464 6D       		.byte	0x6d
 1136 0465 C3000000 		.4byte	0xc3
 1137 0469 06       		.uleb128 0x6
 1138 046a C7040000 		.4byte	.LASF82
 1139 046e 04       		.byte	0x4
 1140 046f 09       		.byte	0x9
 1141 0470 89       		.byte	0x89
 1142 0471 82040000 		.4byte	0x482
 1143 0475 10       		.uleb128 0x10
 1144 0476 72313300 		.ascii	"r13\000"
 1145 047a 09       		.byte	0x9
 1146 047b 8A       		.byte	0x8a
 1147 047c FD040000 		.4byte	0x4fd
 1148 0480 00       		.byte	0
 1149 0481 00       		.byte	0
 1150 0482 06       		.uleb128 0x6
 1151 0483 36000000 		.4byte	.LASF83
 1152 0487 24       		.byte	0x24
 1153 0488 0A       		.byte	0xa
 1154 0489 F4       		.byte	0xf4
 1155 048a FD040000 		.4byte	0x4fd
 1156 048e 08       		.uleb128 0x8
 1157 048f 723400   		.ascii	"r4\000"
 1158 0492 0A       		.byte	0xa
 1159 0493 0701     		.2byte	0x107
 1160 0495 53040000 		.4byte	0x453
 1161 0499 00       		.byte	0
ARM GAS  /var/folders/c6/c789hm653lg9vtl73krp73tm0000gn/T//ccCzjVT0.s 			page 45


 1162 049a 08       		.uleb128 0x8
 1163 049b 723500   		.ascii	"r5\000"
 1164 049e 0A       		.byte	0xa
 1165 049f 0801     		.2byte	0x108
 1166 04a1 53040000 		.4byte	0x453
 1167 04a5 04       		.byte	0x4
 1168 04a6 08       		.uleb128 0x8
 1169 04a7 723600   		.ascii	"r6\000"
 1170 04aa 0A       		.byte	0xa
 1171 04ab 0901     		.2byte	0x109
 1172 04ad 53040000 		.4byte	0x453
 1173 04b1 08       		.byte	0x8
 1174 04b2 08       		.uleb128 0x8
 1175 04b3 723700   		.ascii	"r7\000"
 1176 04b6 0A       		.byte	0xa
 1177 04b7 0A01     		.2byte	0x10a
 1178 04b9 53040000 		.4byte	0x453
 1179 04bd 0C       		.byte	0xc
 1180 04be 08       		.uleb128 0x8
 1181 04bf 723800   		.ascii	"r8\000"
 1182 04c2 0A       		.byte	0xa
 1183 04c3 0B01     		.2byte	0x10b
 1184 04c5 53040000 		.4byte	0x453
 1185 04c9 10       		.byte	0x10
 1186 04ca 08       		.uleb128 0x8
 1187 04cb 723900   		.ascii	"r9\000"
 1188 04ce 0A       		.byte	0xa
 1189 04cf 0C01     		.2byte	0x10c
 1190 04d1 53040000 		.4byte	0x453
 1191 04d5 14       		.byte	0x14
 1192 04d6 08       		.uleb128 0x8
 1193 04d7 72313000 		.ascii	"r10\000"
 1194 04db 0A       		.byte	0xa
 1195 04dc 0D01     		.2byte	0x10d
 1196 04de 53040000 		.4byte	0x453
 1197 04e2 18       		.byte	0x18
 1198 04e3 08       		.uleb128 0x8
 1199 04e4 72313100 		.ascii	"r11\000"
 1200 04e8 0A       		.byte	0xa
 1201 04e9 0E01     		.2byte	0x10e
 1202 04eb 53040000 		.4byte	0x453
 1203 04ef 1C       		.byte	0x1c
 1204 04f0 08       		.uleb128 0x8
 1205 04f1 6C7200   		.ascii	"lr\000"
 1206 04f4 0A       		.byte	0xa
 1207 04f5 0F01     		.2byte	0x10f
 1208 04f7 53040000 		.4byte	0x453
 1209 04fb 20       		.byte	0x20
 1210 04fc 00       		.byte	0
 1211 04fd 0A       		.uleb128 0xa
 1212 04fe 04       		.byte	0x4
 1213 04ff 82040000 		.4byte	0x482
 1214 0503 11       		.uleb128 0x11
 1215 0504 04       		.byte	0x4
 1216 0505 0B       		.byte	0xb
 1217 0506 38       		.byte	0x38
 1218 0507 18050000 		.4byte	0x518
ARM GAS  /var/folders/c6/c789hm653lg9vtl73krp73tm0000gn/T//ccCzjVT0.s 			page 46


 1219 050b 07       		.uleb128 0x7
 1220 050c C0040000 		.4byte	.LASF84
 1221 0510 0B       		.byte	0xb
 1222 0511 3C       		.byte	0x3c
 1223 0512 D3000000 		.4byte	0xd3
 1224 0516 00       		.byte	0
 1225 0517 00       		.byte	0
 1226 0518 03       		.uleb128 0x3
 1227 0519 6E020000 		.4byte	.LASF85
 1228 051d 0B       		.byte	0xb
 1229 051e 3D       		.byte	0x3d
 1230 051f 03050000 		.4byte	0x503
 1231 0523 12       		.uleb128 0x12
 1232 0524 04       		.byte	0x4
 1233 0525 08       		.byte	0x8
 1234 0526 FA       		.byte	0xfa
 1235 0527 80050000 		.4byte	0x580
 1236 052b 13       		.uleb128 0x13
 1237 052c 1C000000 		.4byte	.LASF86
 1238 0530 08       		.byte	0x8
 1239 0531 0101     		.2byte	0x101
 1240 0533 0A010000 		.4byte	0x10a
 1241 0537 13       		.uleb128 0x13
 1242 0538 68000000 		.4byte	.LASF87
 1243 053c 08       		.byte	0x8
 1244 053d 0801     		.2byte	0x108
 1245 053f 0A010000 		.4byte	0x10a
 1246 0543 13       		.uleb128 0x13
 1247 0544 31050000 		.4byte	.LASF88
 1248 0548 08       		.byte	0x8
 1249 0549 0F01     		.2byte	0x10f
 1250 054b 16030000 		.4byte	0x316
 1251 054f 13       		.uleb128 0x13
 1252 0550 F8000000 		.4byte	.LASF89
 1253 0554 08       		.byte	0x8
 1254 0555 1601     		.2byte	0x116
 1255 0557 80050000 		.4byte	0x580
 1256 055b 13       		.uleb128 0x13
 1257 055c 7F010000 		.4byte	.LASF90
 1258 0560 08       		.byte	0x8
 1259 0561 1E01     		.2byte	0x11e
 1260 0563 AB050000 		.4byte	0x5ab
 1261 0567 13       		.uleb128 0x13
 1262 0568 F3030000 		.4byte	.LASF91
 1263 056c 08       		.byte	0x8
 1264 056d 2701     		.2byte	0x127
 1265 056f E2050000 		.4byte	0x5e2
 1266 0573 13       		.uleb128 0x13
 1267 0574 95030000 		.4byte	.LASF92
 1268 0578 08       		.byte	0x8
 1269 0579 2F01     		.2byte	0x12f
 1270 057b 15010000 		.4byte	0x115
 1271 057f 00       		.byte	0
 1272 0580 0A       		.uleb128 0xa
 1273 0581 04       		.byte	0x4
 1274 0582 2E020000 		.4byte	0x22e
 1275 0586 06       		.uleb128 0x6
ARM GAS  /var/folders/c6/c789hm653lg9vtl73krp73tm0000gn/T//ccCzjVT0.s 			page 47


 1276 0587 D2030000 		.4byte	.LASF93
 1277 058b 0C       		.byte	0xc
 1278 058c 0C       		.byte	0xc
 1279 058d 34       		.byte	0x34
 1280 058e AB050000 		.4byte	0x5ab
 1281 0592 07       		.uleb128 0x7
 1282 0593 2C010000 		.4byte	.LASF94
 1283 0597 0C       		.byte	0xc
 1284 0598 35       		.byte	0x35
 1285 0599 63020000 		.4byte	0x263
 1286 059d 00       		.byte	0
 1287 059e 07       		.uleb128 0x7
 1288 059f A8010000 		.4byte	.LASF95
 1289 05a3 0C       		.byte	0xc
 1290 05a4 37       		.byte	0x37
 1291 05a5 20010000 		.4byte	0x120
 1292 05a9 08       		.byte	0x8
 1293 05aa 00       		.byte	0
 1294 05ab 0A       		.uleb128 0xa
 1295 05ac 04       		.byte	0x4
 1296 05ad 86050000 		.4byte	0x586
 1297 05b1 06       		.uleb128 0x6
 1298 05b2 F8040000 		.4byte	.LASF96
 1299 05b6 10       		.byte	0x10
 1300 05b7 0D       		.byte	0xd
 1301 05b8 39       		.byte	0x39
 1302 05b9 E2050000 		.4byte	0x5e2
 1303 05bd 07       		.uleb128 0x7
 1304 05be D9000000 		.4byte	.LASF97
 1305 05c2 0D       		.byte	0xd
 1306 05c3 3A       		.byte	0x3a
 1307 05c4 63020000 		.4byte	0x263
 1308 05c8 00       		.byte	0
 1309 05c9 07       		.uleb128 0x7
 1310 05ca 34060000 		.4byte	.LASF98
 1311 05ce 0D       		.byte	0xd
 1312 05cf 3C       		.byte	0x3c
 1313 05d0 39020000 		.4byte	0x239
 1314 05d4 08       		.byte	0x8
 1315 05d5 07       		.uleb128 0x7
 1316 05d6 86040000 		.4byte	.LASF99
 1317 05da 0D       		.byte	0xd
 1318 05db 3E       		.byte	0x3e
 1319 05dc 2B060000 		.4byte	0x62b
 1320 05e0 0C       		.byte	0xc
 1321 05e1 00       		.byte	0
 1322 05e2 0A       		.uleb128 0xa
 1323 05e3 04       		.byte	0x4
 1324 05e4 B1050000 		.4byte	0x5b1
 1325 05e8 0A       		.uleb128 0xa
 1326 05e9 04       		.byte	0x4
 1327 05ea EE050000 		.4byte	0x5ee
 1328 05ee 14       		.uleb128 0x14
 1329 05ef F3050000 		.4byte	0x5f3
 1330 05f3 04       		.uleb128 0x4
 1331 05f4 01       		.byte	0x1
 1332 05f5 08       		.byte	0x8
ARM GAS  /var/folders/c6/c789hm653lg9vtl73krp73tm0000gn/T//ccCzjVT0.s 			page 48


 1333 05f6 78040000 		.4byte	.LASF100
 1334 05fa 0A       		.uleb128 0xa
 1335 05fb 04       		.byte	0x4
 1336 05fc 18030000 		.4byte	0x318
 1337 0600 05       		.uleb128 0x5
 1338 0601 E8050000 		.4byte	0x5e8
 1339 0605 15       		.uleb128 0x15
 1340 0606 5E040000 		.4byte	0x45e
 1341 060a 15060000 		.4byte	0x615
 1342 060e 16       		.uleb128 0x16
 1343 060f 4C040000 		.4byte	0x44c
 1344 0613 1A       		.byte	0x1a
 1345 0614 00       		.byte	0
 1346 0615 03       		.uleb128 0x3
 1347 0616 00000000 		.4byte	.LASF101
 1348 061a 02       		.byte	0x2
 1349 061b 34       		.byte	0x34
 1350 061c 05030000 		.4byte	0x305
 1351 0620 03       		.uleb128 0x3
 1352 0621 4D010000 		.4byte	.LASF102
 1353 0625 0D       		.byte	0xd
 1354 0626 34       		.byte	0x34
 1355 0627 B1050000 		.4byte	0x5b1
 1356 062b 0A       		.uleb128 0xa
 1357 062c 04       		.byte	0x4
 1358 062d 20060000 		.4byte	0x620
 1359 0631 06       		.uleb128 0x6
 1360 0632 C9030000 		.4byte	.LASF103
 1361 0636 10       		.byte	0x10
 1362 0637 0E       		.byte	0xe
 1363 0638 3B       		.byte	0x3b
 1364 0639 6E060000 		.4byte	0x66e
 1365 063d 07       		.uleb128 0x7
 1366 063e A3010000 		.4byte	.LASF104
 1367 0642 0E       		.byte	0xe
 1368 0643 3C       		.byte	0x3c
 1369 0644 E8050000 		.4byte	0x5e8
 1370 0648 00       		.byte	0
 1371 0649 07       		.uleb128 0x7
 1372 064a AB020000 		.4byte	.LASF105
 1373 064e 0E       		.byte	0xe
 1374 064f 3D       		.byte	0x3d
 1375 0650 6F060000 		.4byte	0x66f
 1376 0654 04       		.byte	0x4
 1377 0655 07       		.uleb128 0x7
 1378 0656 91010000 		.4byte	.LASF106
 1379 065a 0E       		.byte	0xe
 1380 065b 3E       		.byte	0x3e
 1381 065c 6F060000 		.4byte	0x66f
 1382 0660 08       		.byte	0x8
 1383 0661 07       		.uleb128 0x7
 1384 0662 1E030000 		.4byte	.LASF107
 1385 0666 0E       		.byte	0xe
 1386 0667 3F       		.byte	0x3f
 1387 0668 6F060000 		.4byte	0x66f
 1388 066c 0C       		.byte	0xc
 1389 066d 00       		.byte	0
ARM GAS  /var/folders/c6/c789hm653lg9vtl73krp73tm0000gn/T//ccCzjVT0.s 			page 49


 1390 066e 17       		.uleb128 0x17
 1391 066f 0A       		.uleb128 0xa
 1392 0670 04       		.byte	0x4
 1393 0671 6E060000 		.4byte	0x66e
 1394 0675 18       		.uleb128 0x18
 1395 0676 0E050000 		.4byte	.LASF108
 1396 067a 02       		.byte	0x2
 1397 067b AE       		.byte	0xae
 1398 067c 39020000 		.4byte	0x239
 1399 0680 03       		.byte	0x3
 1400 0681 19       		.uleb128 0x19
 1401 0682 9A010000 		.4byte	.LASF125
 1402 0686 10       		.byte	0x10
 1403 0687 60       		.byte	0x60
 1404 0688 0A010000 		.4byte	0x10a
 1405 068c 03       		.byte	0x3
 1406 068d 9C060000 		.4byte	0x69c
 1407 0691 1A       		.uleb128 0x1a
 1408 0692 747000   		.ascii	"tp\000"
 1409 0695 10       		.byte	0x10
 1410 0696 60       		.byte	0x60
 1411 0697 39020000 		.4byte	0x239
 1412 069b 00       		.byte	0
 1413 069c 18       		.uleb128 0x18
 1414 069d 99020000 		.4byte	.LASF109
 1415 06a1 02       		.byte	0x2
 1416 06a2 BB       		.byte	0xbb
 1417 06a3 FF000000 		.4byte	0xff
 1418 06a7 03       		.byte	0x3
 1419 06a8 1B       		.uleb128 0x1b
 1420 06a9 24050000 		.4byte	.LASF110
 1421 06ad 01       		.byte	0x1
 1422 06ae 42       		.byte	0x42
 1423 06af 00000000 		.4byte	.LFB230
 1424 06b3 78000000 		.4byte	.LFE230-.LFB230
 1425 06b7 01       		.uleb128 0x1
 1426 06b8 9C       		.byte	0x9c
 1427 06b9 C3070000 		.4byte	0x7c3
 1428 06bd 1C       		.uleb128 0x1c
 1429 06be 747000   		.ascii	"tp\000"
 1430 06c1 01       		.byte	0x1
 1431 06c2 43       		.byte	0x43
 1432 06c3 39020000 		.4byte	0x239
 1433 06c7 00000000 		.4byte	.LLST0
 1434 06cb 1D       		.uleb128 0x1d
 1435 06cc 6D736700 		.ascii	"msg\000"
 1436 06d0 01       		.byte	0x1
 1437 06d1 44       		.byte	0x44
 1438 06d2 0A010000 		.4byte	0x10a
 1439 06d6 1E       		.uleb128 0x1e
 1440 06d7 9C060000 		.4byte	0x69c
 1441 06db 02000000 		.4byte	.LBB16
 1442 06df 00000000 		.4byte	.Ldebug_ranges0+0
 1443 06e3 01       		.byte	0x1
 1444 06e4 49       		.byte	0x49
 1445 06e5 F9060000 		.4byte	0x6f9
 1446 06e9 1F       		.uleb128 0x1f
ARM GAS  /var/folders/c6/c789hm653lg9vtl73krp73tm0000gn/T//ccCzjVT0.s 			page 50


 1447 06ea 75060000 		.4byte	0x675
 1448 06ee 02000000 		.4byte	.LBB18
 1449 06f2 18000000 		.4byte	.Ldebug_ranges0+0x18
 1450 06f6 02       		.byte	0x2
 1451 06f7 BD       		.byte	0xbd
 1452 06f8 00       		.byte	0
 1453 06f9 20       		.uleb128 0x20
 1454 06fa 1C000000 		.4byte	.LVL0
 1455 06fe BF080000 		.4byte	0x8bf
 1456 0702 17070000 		.4byte	0x717
 1457 0706 21       		.uleb128 0x21
 1458 0707 01       		.uleb128 0x1
 1459 0708 53       		.byte	0x53
 1460 0709 05       		.uleb128 0x5
 1461 070a 03       		.byte	0x3
 1462 070b 00000000 		.4byte	thread
 1463 070f 21       		.uleb128 0x21
 1464 0710 01       		.uleb128 0x1
 1465 0711 51       		.byte	0x51
 1466 0712 03       		.uleb128 0x3
 1467 0713 0A       		.byte	0xa
 1468 0714 4801     		.2byte	0x148
 1469 0716 00       		.byte	0
 1470 0717 22       		.uleb128 0x22
 1471 0718 24000000 		.4byte	.LVL1
 1472 071c E8080000 		.4byte	0x8e8
 1473 0720 20       		.uleb128 0x20
 1474 0721 2C000000 		.4byte	.LVL3
 1475 0725 F3080000 		.4byte	0x8f3
 1476 0729 34070000 		.4byte	0x734
 1477 072d 21       		.uleb128 0x21
 1478 072e 01       		.uleb128 0x1
 1479 072f 51       		.byte	0x51
 1480 0730 02       		.uleb128 0x2
 1481 0731 74       		.byte	0x74
 1482 0732 00       		.sleb128 0
 1483 0733 00       		.byte	0
 1484 0734 20       		.uleb128 0x20
 1485 0735 32000000 		.4byte	.LVL4
 1486 0739 09090000 		.4byte	0x909
 1487 073d 48070000 		.4byte	0x748
 1488 0741 21       		.uleb128 0x21
 1489 0742 01       		.uleb128 0x1
 1490 0743 50       		.byte	0x50
 1491 0744 02       		.uleb128 0x2
 1492 0745 74       		.byte	0x74
 1493 0746 00       		.sleb128 0
 1494 0747 00       		.byte	0
 1495 0748 22       		.uleb128 0x22
 1496 0749 36000000 		.4byte	.LVL5
 1497 074d E8080000 		.4byte	0x8e8
 1498 0751 20       		.uleb128 0x20
 1499 0752 3E000000 		.4byte	.LVL7
 1500 0756 F3080000 		.4byte	0x8f3
 1501 075a 65070000 		.4byte	0x765
 1502 075e 21       		.uleb128 0x21
 1503 075f 01       		.uleb128 0x1
ARM GAS  /var/folders/c6/c789hm653lg9vtl73krp73tm0000gn/T//ccCzjVT0.s 			page 51


 1504 0760 51       		.byte	0x51
 1505 0761 02       		.uleb128 0x2
 1506 0762 74       		.byte	0x74
 1507 0763 00       		.sleb128 0
 1508 0764 00       		.byte	0
 1509 0765 20       		.uleb128 0x20
 1510 0766 44000000 		.4byte	.LVL8
 1511 076a 09090000 		.4byte	0x909
 1512 076e 79070000 		.4byte	0x779
 1513 0772 21       		.uleb128 0x21
 1514 0773 01       		.uleb128 0x1
 1515 0774 50       		.byte	0x50
 1516 0775 02       		.uleb128 0x2
 1517 0776 74       		.byte	0x74
 1518 0777 00       		.sleb128 0
 1519 0778 00       		.byte	0
 1520 0779 22       		.uleb128 0x22
 1521 077a 48000000 		.4byte	.LVL9
 1522 077e E8080000 		.4byte	0x8e8
 1523 0782 20       		.uleb128 0x20
 1524 0783 50000000 		.4byte	.LVL11
 1525 0787 F3080000 		.4byte	0x8f3
 1526 078b 96070000 		.4byte	0x796
 1527 078f 21       		.uleb128 0x21
 1528 0790 01       		.uleb128 0x1
 1529 0791 51       		.byte	0x51
 1530 0792 02       		.uleb128 0x2
 1531 0793 74       		.byte	0x74
 1532 0794 00       		.sleb128 0
 1533 0795 00       		.byte	0
 1534 0796 20       		.uleb128 0x20
 1535 0797 56000000 		.4byte	.LVL12
 1536 079b 09090000 		.4byte	0x909
 1537 079f AA070000 		.4byte	0x7aa
 1538 07a3 21       		.uleb128 0x21
 1539 07a4 01       		.uleb128 0x1
 1540 07a5 50       		.byte	0x50
 1541 07a6 02       		.uleb128 0x2
 1542 07a7 74       		.byte	0x74
 1543 07a8 00       		.sleb128 0
 1544 07a9 00       		.byte	0
 1545 07aa 23       		.uleb128 0x23
 1546 07ab 64000000 		.4byte	.LVL13
 1547 07af 1A090000 		.4byte	0x91a
 1548 07b3 21       		.uleb128 0x21
 1549 07b4 01       		.uleb128 0x1
 1550 07b5 51       		.byte	0x51
 1551 07b6 05       		.uleb128 0x5
 1552 07b7 03       		.byte	0x3
 1553 07b8 00000000 		.4byte	.LC0
 1554 07bc 21       		.uleb128 0x21
 1555 07bd 01       		.uleb128 0x1
 1556 07be 50       		.byte	0x50
 1557 07bf 01       		.uleb128 0x1
 1558 07c0 31       		.byte	0x31
 1559 07c1 00       		.byte	0
 1560 07c2 00       		.byte	0
ARM GAS  /var/folders/c6/c789hm653lg9vtl73krp73tm0000gn/T//ccCzjVT0.s 			page 52


 1561 07c3 1B       		.uleb128 0x1b
 1562 07c4 2E030000 		.4byte	.LASF111
 1563 07c8 01       		.byte	0x1
 1564 07c9 3B       		.byte	0x3b
 1565 07ca 00000000 		.4byte	.LFB229
 1566 07ce 1E000000 		.4byte	.LFE229-.LFB229
 1567 07d2 01       		.uleb128 0x1
 1568 07d3 9C       		.byte	0x9c
 1569 07d4 31080000 		.4byte	0x831
 1570 07d8 24       		.uleb128 0x24
 1571 07d9 7000     		.ascii	"p\000"
 1572 07db 01       		.byte	0x1
 1573 07dc 3B       		.byte	0x3b
 1574 07dd 16030000 		.4byte	0x316
 1575 07e1 29000000 		.4byte	.LLST1
 1576 07e5 20       		.uleb128 0x20
 1577 07e6 0A000000 		.4byte	.LVL15
 1578 07ea 41090000 		.4byte	0x941
 1579 07ee FF070000 		.4byte	0x7ff
 1580 07f2 21       		.uleb128 0x21
 1581 07f3 01       		.uleb128 0x1
 1582 07f4 51       		.byte	0x51
 1583 07f5 02       		.uleb128 0x2
 1584 07f6 08       		.byte	0x8
 1585 07f7 41       		.byte	0x41
 1586 07f8 21       		.uleb128 0x21
 1587 07f9 01       		.uleb128 0x1
 1588 07fa 50       		.byte	0x50
 1589 07fb 02       		.uleb128 0x2
 1590 07fc 74       		.byte	0x74
 1591 07fd 00       		.sleb128 0
 1592 07fe 00       		.byte	0
 1593 07ff 20       		.uleb128 0x20
 1594 0800 12000000 		.4byte	.LVL16
 1595 0804 41090000 		.4byte	0x941
 1596 0808 19080000 		.4byte	0x819
 1597 080c 21       		.uleb128 0x21
 1598 080d 01       		.uleb128 0x1
 1599 080e 51       		.byte	0x51
 1600 080f 02       		.uleb128 0x2
 1601 0810 08       		.byte	0x8
 1602 0811 42       		.byte	0x42
 1603 0812 21       		.uleb128 0x21
 1604 0813 01       		.uleb128 0x1
 1605 0814 50       		.byte	0x50
 1606 0815 02       		.uleb128 0x2
 1607 0816 74       		.byte	0x74
 1608 0817 00       		.sleb128 0
 1609 0818 00       		.byte	0
 1610 0819 23       		.uleb128 0x23
 1611 081a 1E000000 		.4byte	.LVL18
 1612 081e 41090000 		.4byte	0x941
 1613 0822 21       		.uleb128 0x21
 1614 0823 01       		.uleb128 0x1
 1615 0824 51       		.byte	0x51
 1616 0825 02       		.uleb128 0x2
 1617 0826 08       		.byte	0x8
ARM GAS  /var/folders/c6/c789hm653lg9vtl73krp73tm0000gn/T//ccCzjVT0.s 			page 53


 1618 0827 43       		.byte	0x43
 1619 0828 21       		.uleb128 0x21
 1620 0829 01       		.uleb128 0x1
 1621 082a 50       		.byte	0x50
 1622 082b 03       		.uleb128 0x3
 1623 082c F3       		.byte	0xf3
 1624 082d 01       		.uleb128 0x1
 1625 082e 50       		.byte	0x50
 1626 082f 00       		.byte	0
 1627 0830 00       		.byte	0
 1628 0831 25       		.uleb128 0x25
 1629 0832 92000000 		.4byte	.LASF112
 1630 0836 0F       		.byte	0xf
 1631 0837 A706     		.2byte	0x6a7
 1632 0839 CE000000 		.4byte	0xce
 1633 083d 26       		.uleb128 0x26
 1634 083e 636800   		.ascii	"ch\000"
 1635 0841 08       		.byte	0x8
 1636 0842 0902     		.2byte	0x209
 1637 0844 E5030000 		.4byte	0x3e5
 1638 0848 15       		.uleb128 0x15
 1639 0849 39020000 		.4byte	0x239
 1640 084d 58080000 		.4byte	0x858
 1641 0851 16       		.uleb128 0x16
 1642 0852 4C040000 		.4byte	0x44c
 1643 0856 04       		.byte	0x4
 1644 0857 00       		.byte	0
 1645 0858 27       		.uleb128 0x27
 1646 0859 7D030000 		.4byte	.LASF113
 1647 085d 0E       		.byte	0xe
 1648 085e A7       		.byte	0xa7
 1649 085f 48080000 		.4byte	0x848
 1650 0863 15       		.uleb128 0x15
 1651 0864 16030000 		.4byte	0x316
 1652 0868 6E080000 		.4byte	0x86e
 1653 086c 28       		.uleb128 0x28
 1654 086d 00       		.byte	0
 1655 086e 29       		.uleb128 0x29
 1656 086f 776100   		.ascii	"wa\000"
 1657 0872 0E       		.byte	0xe
 1658 0873 A9       		.byte	0xa9
 1659 0874 78080000 		.4byte	0x878
 1660 0878 14       		.uleb128 0x14
 1661 0879 63080000 		.4byte	0x863
 1662 087d 2A       		.uleb128 0x2a
 1663 087e 8C030000 		.4byte	.LASF114
 1664 0882 01       		.byte	0x1
 1665 0883 5A       		.byte	0x5a
 1666 0884 8E080000 		.4byte	0x88e
 1667 0888 05       		.uleb128 0x5
 1668 0889 03       		.byte	0x3
 1669 088a 00000000 		.4byte	testmsg1
 1670 088e 14       		.uleb128 0x14
 1671 088f 31060000 		.4byte	0x631
 1672 0893 15       		.uleb128 0x15
 1673 0894 A3080000 		.4byte	0x8a3
 1674 0898 A3080000 		.4byte	0x8a3
ARM GAS  /var/folders/c6/c789hm653lg9vtl73krp73tm0000gn/T//ccCzjVT0.s 			page 54


 1675 089c 16       		.uleb128 0x16
 1676 089d 4C040000 		.4byte	0x44c
 1677 08a1 01       		.byte	0x1
 1678 08a2 00       		.byte	0
 1679 08a3 0A       		.uleb128 0xa
 1680 08a4 04       		.byte	0x4
 1681 08a5 8E080000 		.4byte	0x88e
 1682 08a9 2A       		.uleb128 0x2a
 1683 08aa 30020000 		.4byte	.LASF115
 1684 08ae 01       		.byte	0x1
 1685 08af 66       		.byte	0x66
 1686 08b0 BA080000 		.4byte	0x8ba
 1687 08b4 05       		.uleb128 0x5
 1688 08b5 03       		.byte	0x3
 1689 08b6 00000000 		.4byte	patternmsg
 1690 08ba 14       		.uleb128 0x14
 1691 08bb 93080000 		.4byte	0x893
 1692 08bf 2B       		.uleb128 0x2b
 1693 08c0 14020000 		.4byte	.LASF118
 1694 08c4 02       		.byte	0x2
 1695 08c5 89       		.byte	0x89
 1696 08c6 39020000 		.4byte	0x239
 1697 08ca E8080000 		.4byte	0x8e8
 1698 08ce 0D       		.uleb128 0xd
 1699 08cf 16030000 		.4byte	0x316
 1700 08d3 0D       		.uleb128 0xd
 1701 08d4 2C000000 		.4byte	0x2c
 1702 08d8 0D       		.uleb128 0xd
 1703 08d9 FF000000 		.4byte	0xff
 1704 08dd 0D       		.uleb128 0xd
 1705 08de 15060000 		.4byte	0x615
 1706 08e2 0D       		.uleb128 0xd
 1707 08e3 16030000 		.4byte	0x316
 1708 08e7 00       		.byte	0
 1709 08e8 2C       		.uleb128 0x2c
 1710 08e9 DE040000 		.4byte	.LASF126
 1711 08ed 10       		.byte	0x10
 1712 08ee 3D       		.byte	0x3d
 1713 08ef 39020000 		.4byte	0x239
 1714 08f3 2D       		.uleb128 0x2d
 1715 08f4 BC030000 		.4byte	.LASF116
 1716 08f8 10       		.byte	0x10
 1717 08f9 3E       		.byte	0x3e
 1718 08fa 09090000 		.4byte	0x909
 1719 08fe 0D       		.uleb128 0xd
 1720 08ff 39020000 		.4byte	0x239
 1721 0903 0D       		.uleb128 0xd
 1722 0904 0A010000 		.4byte	0x10a
 1723 0908 00       		.byte	0
 1724 0909 2D       		.uleb128 0x2d
 1725 090a E1000000 		.4byte	.LASF117
 1726 090e 0E       		.byte	0xe
 1727 090f 58       		.byte	0x58
 1728 0910 1A090000 		.4byte	0x91a
 1729 0914 0D       		.uleb128 0xd
 1730 0915 F3050000 		.4byte	0x5f3
 1731 0919 00       		.byte	0
ARM GAS  /var/folders/c6/c789hm653lg9vtl73krp73tm0000gn/T//ccCzjVT0.s 			page 55


 1732 091a 2B       		.uleb128 0x2b
 1733 091b B1020000 		.4byte	.LASF119
 1734 091f 0E       		.byte	0xe
 1735 0920 5B       		.byte	0x5b
 1736 0921 34090000 		.4byte	0x934
 1737 0925 34090000 		.4byte	0x934
 1738 0929 0D       		.uleb128 0xd
 1739 092a 37000000 		.4byte	0x37
 1740 092e 0D       		.uleb128 0xd
 1741 092f 3B090000 		.4byte	0x93b
 1742 0933 00       		.byte	0
 1743 0934 04       		.uleb128 0x4
 1744 0935 01       		.byte	0x1
 1745 0936 02       		.byte	0x2
 1746 0937 45030000 		.4byte	.LASF120
 1747 093b 0A       		.uleb128 0xa
 1748 093c 04       		.byte	0x4
 1749 093d F3050000 		.4byte	0x5f3
 1750 0941 2E       		.uleb128 0x2e
 1751 0942 11010000 		.4byte	.LASF121
 1752 0946 10       		.byte	0x10
 1753 0947 3C       		.byte	0x3c
 1754 0948 0A010000 		.4byte	0x10a
 1755 094c 0D       		.uleb128 0xd
 1756 094d 39020000 		.4byte	0x239
 1757 0951 0D       		.uleb128 0xd
 1758 0952 0A010000 		.4byte	0x10a
 1759 0956 00       		.byte	0
 1760 0957 00       		.byte	0
 1761              		.section	.debug_abbrev,"",%progbits
 1762              	.Ldebug_abbrev0:
 1763 0000 01       		.uleb128 0x1
 1764 0001 11       		.uleb128 0x11
 1765 0002 01       		.byte	0x1
 1766 0003 25       		.uleb128 0x25
 1767 0004 0E       		.uleb128 0xe
 1768 0005 13       		.uleb128 0x13
 1769 0006 0B       		.uleb128 0xb
 1770 0007 03       		.uleb128 0x3
 1771 0008 0E       		.uleb128 0xe
 1772 0009 1B       		.uleb128 0x1b
 1773 000a 0E       		.uleb128 0xe
 1774 000b 55       		.uleb128 0x55
 1775 000c 17       		.uleb128 0x17
 1776 000d 11       		.uleb128 0x11
 1777 000e 01       		.uleb128 0x1
 1778 000f 10       		.uleb128 0x10
 1779 0010 17       		.uleb128 0x17
 1780 0011 00       		.byte	0
 1781 0012 00       		.byte	0
 1782 0013 02       		.uleb128 0x2
 1783 0014 24       		.uleb128 0x24
 1784 0015 00       		.byte	0
 1785 0016 0B       		.uleb128 0xb
 1786 0017 0B       		.uleb128 0xb
 1787 0018 3E       		.uleb128 0x3e
 1788 0019 0B       		.uleb128 0xb
ARM GAS  /var/folders/c6/c789hm653lg9vtl73krp73tm0000gn/T//ccCzjVT0.s 			page 56


 1789 001a 03       		.uleb128 0x3
 1790 001b 08       		.uleb128 0x8
 1791 001c 00       		.byte	0
 1792 001d 00       		.byte	0
 1793 001e 03       		.uleb128 0x3
 1794 001f 16       		.uleb128 0x16
 1795 0020 00       		.byte	0
 1796 0021 03       		.uleb128 0x3
 1797 0022 0E       		.uleb128 0xe
 1798 0023 3A       		.uleb128 0x3a
 1799 0024 0B       		.uleb128 0xb
 1800 0025 3B       		.uleb128 0x3b
 1801 0026 0B       		.uleb128 0xb
 1802 0027 49       		.uleb128 0x49
 1803 0028 13       		.uleb128 0x13
 1804 0029 00       		.byte	0
 1805 002a 00       		.byte	0
 1806 002b 04       		.uleb128 0x4
 1807 002c 24       		.uleb128 0x24
 1808 002d 00       		.byte	0
 1809 002e 0B       		.uleb128 0xb
 1810 002f 0B       		.uleb128 0xb
 1811 0030 3E       		.uleb128 0x3e
 1812 0031 0B       		.uleb128 0xb
 1813 0032 03       		.uleb128 0x3
 1814 0033 0E       		.uleb128 0xe
 1815 0034 00       		.byte	0
 1816 0035 00       		.byte	0
 1817 0036 05       		.uleb128 0x5
 1818 0037 35       		.uleb128 0x35
 1819 0038 00       		.byte	0
 1820 0039 49       		.uleb128 0x49
 1821 003a 13       		.uleb128 0x13
 1822 003b 00       		.byte	0
 1823 003c 00       		.byte	0
 1824 003d 06       		.uleb128 0x6
 1825 003e 13       		.uleb128 0x13
 1826 003f 01       		.byte	0x1
 1827 0040 03       		.uleb128 0x3
 1828 0041 0E       		.uleb128 0xe
 1829 0042 0B       		.uleb128 0xb
 1830 0043 0B       		.uleb128 0xb
 1831 0044 3A       		.uleb128 0x3a
 1832 0045 0B       		.uleb128 0xb
 1833 0046 3B       		.uleb128 0x3b
 1834 0047 0B       		.uleb128 0xb
 1835 0048 01       		.uleb128 0x1
 1836 0049 13       		.uleb128 0x13
 1837 004a 00       		.byte	0
 1838 004b 00       		.byte	0
 1839 004c 07       		.uleb128 0x7
 1840 004d 0D       		.uleb128 0xd
 1841 004e 00       		.byte	0
 1842 004f 03       		.uleb128 0x3
 1843 0050 0E       		.uleb128 0xe
 1844 0051 3A       		.uleb128 0x3a
 1845 0052 0B       		.uleb128 0xb
ARM GAS  /var/folders/c6/c789hm653lg9vtl73krp73tm0000gn/T//ccCzjVT0.s 			page 57


 1846 0053 3B       		.uleb128 0x3b
 1847 0054 0B       		.uleb128 0xb
 1848 0055 49       		.uleb128 0x49
 1849 0056 13       		.uleb128 0x13
 1850 0057 38       		.uleb128 0x38
 1851 0058 0B       		.uleb128 0xb
 1852 0059 00       		.byte	0
 1853 005a 00       		.byte	0
 1854 005b 08       		.uleb128 0x8
 1855 005c 0D       		.uleb128 0xd
 1856 005d 00       		.byte	0
 1857 005e 03       		.uleb128 0x3
 1858 005f 08       		.uleb128 0x8
 1859 0060 3A       		.uleb128 0x3a
 1860 0061 0B       		.uleb128 0xb
 1861 0062 3B       		.uleb128 0x3b
 1862 0063 05       		.uleb128 0x5
 1863 0064 49       		.uleb128 0x49
 1864 0065 13       		.uleb128 0x13
 1865 0066 38       		.uleb128 0x38
 1866 0067 0B       		.uleb128 0xb
 1867 0068 00       		.byte	0
 1868 0069 00       		.byte	0
 1869 006a 09       		.uleb128 0x9
 1870 006b 0D       		.uleb128 0xd
 1871 006c 00       		.byte	0
 1872 006d 03       		.uleb128 0x3
 1873 006e 0E       		.uleb128 0xe
 1874 006f 3A       		.uleb128 0x3a
 1875 0070 0B       		.uleb128 0xb
 1876 0071 3B       		.uleb128 0x3b
 1877 0072 05       		.uleb128 0x5
 1878 0073 49       		.uleb128 0x49
 1879 0074 13       		.uleb128 0x13
 1880 0075 38       		.uleb128 0x38
 1881 0076 0B       		.uleb128 0xb
 1882 0077 00       		.byte	0
 1883 0078 00       		.byte	0
 1884 0079 0A       		.uleb128 0xa
 1885 007a 0F       		.uleb128 0xf
 1886 007b 00       		.byte	0
 1887 007c 0B       		.uleb128 0xb
 1888 007d 0B       		.uleb128 0xb
 1889 007e 49       		.uleb128 0x49
 1890 007f 13       		.uleb128 0x13
 1891 0080 00       		.byte	0
 1892 0081 00       		.byte	0
 1893 0082 0B       		.uleb128 0xb
 1894 0083 13       		.uleb128 0x13
 1895 0084 01       		.byte	0x1
 1896 0085 03       		.uleb128 0x3
 1897 0086 0E       		.uleb128 0xe
 1898 0087 0B       		.uleb128 0xb
 1899 0088 0B       		.uleb128 0xb
 1900 0089 3A       		.uleb128 0x3a
 1901 008a 0B       		.uleb128 0xb
 1902 008b 3B       		.uleb128 0x3b
ARM GAS  /var/folders/c6/c789hm653lg9vtl73krp73tm0000gn/T//ccCzjVT0.s 			page 58


 1903 008c 05       		.uleb128 0x5
 1904 008d 01       		.uleb128 0x1
 1905 008e 13       		.uleb128 0x13
 1906 008f 00       		.byte	0
 1907 0090 00       		.byte	0
 1908 0091 0C       		.uleb128 0xc
 1909 0092 15       		.uleb128 0x15
 1910 0093 01       		.byte	0x1
 1911 0094 27       		.uleb128 0x27
 1912 0095 19       		.uleb128 0x19
 1913 0096 01       		.uleb128 0x1
 1914 0097 13       		.uleb128 0x13
 1915 0098 00       		.byte	0
 1916 0099 00       		.byte	0
 1917 009a 0D       		.uleb128 0xd
 1918 009b 05       		.uleb128 0x5
 1919 009c 00       		.byte	0
 1920 009d 49       		.uleb128 0x49
 1921 009e 13       		.uleb128 0x13
 1922 009f 00       		.byte	0
 1923 00a0 00       		.byte	0
 1924 00a1 0E       		.uleb128 0xe
 1925 00a2 0F       		.uleb128 0xf
 1926 00a3 00       		.byte	0
 1927 00a4 0B       		.uleb128 0xb
 1928 00a5 0B       		.uleb128 0xb
 1929 00a6 00       		.byte	0
 1930 00a7 00       		.byte	0
 1931 00a8 0F       		.uleb128 0xf
 1932 00a9 13       		.uleb128 0x13
 1933 00aa 01       		.byte	0x1
 1934 00ab 03       		.uleb128 0x3
 1935 00ac 0E       		.uleb128 0xe
 1936 00ad 0B       		.uleb128 0xb
 1937 00ae 05       		.uleb128 0x5
 1938 00af 3A       		.uleb128 0x3a
 1939 00b0 0B       		.uleb128 0xb
 1940 00b1 3B       		.uleb128 0x3b
 1941 00b2 05       		.uleb128 0x5
 1942 00b3 01       		.uleb128 0x1
 1943 00b4 13       		.uleb128 0x13
 1944 00b5 00       		.byte	0
 1945 00b6 00       		.byte	0
 1946 00b7 10       		.uleb128 0x10
 1947 00b8 0D       		.uleb128 0xd
 1948 00b9 00       		.byte	0
 1949 00ba 03       		.uleb128 0x3
 1950 00bb 08       		.uleb128 0x8
 1951 00bc 3A       		.uleb128 0x3a
 1952 00bd 0B       		.uleb128 0xb
 1953 00be 3B       		.uleb128 0x3b
 1954 00bf 0B       		.uleb128 0xb
 1955 00c0 49       		.uleb128 0x49
 1956 00c1 13       		.uleb128 0x13
 1957 00c2 38       		.uleb128 0x38
 1958 00c3 0B       		.uleb128 0xb
 1959 00c4 00       		.byte	0
ARM GAS  /var/folders/c6/c789hm653lg9vtl73krp73tm0000gn/T//ccCzjVT0.s 			page 59


 1960 00c5 00       		.byte	0
 1961 00c6 11       		.uleb128 0x11
 1962 00c7 13       		.uleb128 0x13
 1963 00c8 01       		.byte	0x1
 1964 00c9 0B       		.uleb128 0xb
 1965 00ca 0B       		.uleb128 0xb
 1966 00cb 3A       		.uleb128 0x3a
 1967 00cc 0B       		.uleb128 0xb
 1968 00cd 3B       		.uleb128 0x3b
 1969 00ce 0B       		.uleb128 0xb
 1970 00cf 01       		.uleb128 0x1
 1971 00d0 13       		.uleb128 0x13
 1972 00d1 00       		.byte	0
 1973 00d2 00       		.byte	0
 1974 00d3 12       		.uleb128 0x12
 1975 00d4 17       		.uleb128 0x17
 1976 00d5 01       		.byte	0x1
 1977 00d6 0B       		.uleb128 0xb
 1978 00d7 0B       		.uleb128 0xb
 1979 00d8 3A       		.uleb128 0x3a
 1980 00d9 0B       		.uleb128 0xb
 1981 00da 3B       		.uleb128 0x3b
 1982 00db 0B       		.uleb128 0xb
 1983 00dc 01       		.uleb128 0x1
 1984 00dd 13       		.uleb128 0x13
 1985 00de 00       		.byte	0
 1986 00df 00       		.byte	0
 1987 00e0 13       		.uleb128 0x13
 1988 00e1 0D       		.uleb128 0xd
 1989 00e2 00       		.byte	0
 1990 00e3 03       		.uleb128 0x3
 1991 00e4 0E       		.uleb128 0xe
 1992 00e5 3A       		.uleb128 0x3a
 1993 00e6 0B       		.uleb128 0xb
 1994 00e7 3B       		.uleb128 0x3b
 1995 00e8 05       		.uleb128 0x5
 1996 00e9 49       		.uleb128 0x49
 1997 00ea 13       		.uleb128 0x13
 1998 00eb 00       		.byte	0
 1999 00ec 00       		.byte	0
 2000 00ed 14       		.uleb128 0x14
 2001 00ee 26       		.uleb128 0x26
 2002 00ef 00       		.byte	0
 2003 00f0 49       		.uleb128 0x49
 2004 00f1 13       		.uleb128 0x13
 2005 00f2 00       		.byte	0
 2006 00f3 00       		.byte	0
 2007 00f4 15       		.uleb128 0x15
 2008 00f5 01       		.uleb128 0x1
 2009 00f6 01       		.byte	0x1
 2010 00f7 49       		.uleb128 0x49
 2011 00f8 13       		.uleb128 0x13
 2012 00f9 01       		.uleb128 0x1
 2013 00fa 13       		.uleb128 0x13
 2014 00fb 00       		.byte	0
 2015 00fc 00       		.byte	0
 2016 00fd 16       		.uleb128 0x16
ARM GAS  /var/folders/c6/c789hm653lg9vtl73krp73tm0000gn/T//ccCzjVT0.s 			page 60


 2017 00fe 21       		.uleb128 0x21
 2018 00ff 00       		.byte	0
 2019 0100 49       		.uleb128 0x49
 2020 0101 13       		.uleb128 0x13
 2021 0102 2F       		.uleb128 0x2f
 2022 0103 0B       		.uleb128 0xb
 2023 0104 00       		.byte	0
 2024 0105 00       		.byte	0
 2025 0106 17       		.uleb128 0x17
 2026 0107 15       		.uleb128 0x15
 2027 0108 00       		.byte	0
 2028 0109 27       		.uleb128 0x27
 2029 010a 19       		.uleb128 0x19
 2030 010b 00       		.byte	0
 2031 010c 00       		.byte	0
 2032 010d 18       		.uleb128 0x18
 2033 010e 2E       		.uleb128 0x2e
 2034 010f 00       		.byte	0
 2035 0110 03       		.uleb128 0x3
 2036 0111 0E       		.uleb128 0xe
 2037 0112 3A       		.uleb128 0x3a
 2038 0113 0B       		.uleb128 0xb
 2039 0114 3B       		.uleb128 0x3b
 2040 0115 0B       		.uleb128 0xb
 2041 0116 27       		.uleb128 0x27
 2042 0117 19       		.uleb128 0x19
 2043 0118 49       		.uleb128 0x49
 2044 0119 13       		.uleb128 0x13
 2045 011a 20       		.uleb128 0x20
 2046 011b 0B       		.uleb128 0xb
 2047 011c 00       		.byte	0
 2048 011d 00       		.byte	0
 2049 011e 19       		.uleb128 0x19
 2050 011f 2E       		.uleb128 0x2e
 2051 0120 01       		.byte	0x1
 2052 0121 03       		.uleb128 0x3
 2053 0122 0E       		.uleb128 0xe
 2054 0123 3A       		.uleb128 0x3a
 2055 0124 0B       		.uleb128 0xb
 2056 0125 3B       		.uleb128 0x3b
 2057 0126 0B       		.uleb128 0xb
 2058 0127 27       		.uleb128 0x27
 2059 0128 19       		.uleb128 0x19
 2060 0129 49       		.uleb128 0x49
 2061 012a 13       		.uleb128 0x13
 2062 012b 20       		.uleb128 0x20
 2063 012c 0B       		.uleb128 0xb
 2064 012d 01       		.uleb128 0x1
 2065 012e 13       		.uleb128 0x13
 2066 012f 00       		.byte	0
 2067 0130 00       		.byte	0
 2068 0131 1A       		.uleb128 0x1a
 2069 0132 05       		.uleb128 0x5
 2070 0133 00       		.byte	0
 2071 0134 03       		.uleb128 0x3
 2072 0135 08       		.uleb128 0x8
 2073 0136 3A       		.uleb128 0x3a
ARM GAS  /var/folders/c6/c789hm653lg9vtl73krp73tm0000gn/T//ccCzjVT0.s 			page 61


 2074 0137 0B       		.uleb128 0xb
 2075 0138 3B       		.uleb128 0x3b
 2076 0139 0B       		.uleb128 0xb
 2077 013a 49       		.uleb128 0x49
 2078 013b 13       		.uleb128 0x13
 2079 013c 00       		.byte	0
 2080 013d 00       		.byte	0
 2081 013e 1B       		.uleb128 0x1b
 2082 013f 2E       		.uleb128 0x2e
 2083 0140 01       		.byte	0x1
 2084 0141 03       		.uleb128 0x3
 2085 0142 0E       		.uleb128 0xe
 2086 0143 3A       		.uleb128 0x3a
 2087 0144 0B       		.uleb128 0xb
 2088 0145 3B       		.uleb128 0x3b
 2089 0146 0B       		.uleb128 0xb
 2090 0147 27       		.uleb128 0x27
 2091 0148 19       		.uleb128 0x19
 2092 0149 11       		.uleb128 0x11
 2093 014a 01       		.uleb128 0x1
 2094 014b 12       		.uleb128 0x12
 2095 014c 06       		.uleb128 0x6
 2096 014d 40       		.uleb128 0x40
 2097 014e 18       		.uleb128 0x18
 2098 014f 9742     		.uleb128 0x2117
 2099 0151 19       		.uleb128 0x19
 2100 0152 01       		.uleb128 0x1
 2101 0153 13       		.uleb128 0x13
 2102 0154 00       		.byte	0
 2103 0155 00       		.byte	0
 2104 0156 1C       		.uleb128 0x1c
 2105 0157 34       		.uleb128 0x34
 2106 0158 00       		.byte	0
 2107 0159 03       		.uleb128 0x3
 2108 015a 08       		.uleb128 0x8
 2109 015b 3A       		.uleb128 0x3a
 2110 015c 0B       		.uleb128 0xb
 2111 015d 3B       		.uleb128 0x3b
 2112 015e 0B       		.uleb128 0xb
 2113 015f 49       		.uleb128 0x49
 2114 0160 13       		.uleb128 0x13
 2115 0161 02       		.uleb128 0x2
 2116 0162 17       		.uleb128 0x17
 2117 0163 00       		.byte	0
 2118 0164 00       		.byte	0
 2119 0165 1D       		.uleb128 0x1d
 2120 0166 34       		.uleb128 0x34
 2121 0167 00       		.byte	0
 2122 0168 03       		.uleb128 0x3
 2123 0169 08       		.uleb128 0x8
 2124 016a 3A       		.uleb128 0x3a
 2125 016b 0B       		.uleb128 0xb
 2126 016c 3B       		.uleb128 0x3b
 2127 016d 0B       		.uleb128 0xb
 2128 016e 49       		.uleb128 0x49
 2129 016f 13       		.uleb128 0x13
 2130 0170 00       		.byte	0
ARM GAS  /var/folders/c6/c789hm653lg9vtl73krp73tm0000gn/T//ccCzjVT0.s 			page 62


 2131 0171 00       		.byte	0
 2132 0172 1E       		.uleb128 0x1e
 2133 0173 1D       		.uleb128 0x1d
 2134 0174 01       		.byte	0x1
 2135 0175 31       		.uleb128 0x31
 2136 0176 13       		.uleb128 0x13
 2137 0177 52       		.uleb128 0x52
 2138 0178 01       		.uleb128 0x1
 2139 0179 55       		.uleb128 0x55
 2140 017a 17       		.uleb128 0x17
 2141 017b 58       		.uleb128 0x58
 2142 017c 0B       		.uleb128 0xb
 2143 017d 59       		.uleb128 0x59
 2144 017e 0B       		.uleb128 0xb
 2145 017f 01       		.uleb128 0x1
 2146 0180 13       		.uleb128 0x13
 2147 0181 00       		.byte	0
 2148 0182 00       		.byte	0
 2149 0183 1F       		.uleb128 0x1f
 2150 0184 1D       		.uleb128 0x1d
 2151 0185 00       		.byte	0
 2152 0186 31       		.uleb128 0x31
 2153 0187 13       		.uleb128 0x13
 2154 0188 52       		.uleb128 0x52
 2155 0189 01       		.uleb128 0x1
 2156 018a 55       		.uleb128 0x55
 2157 018b 17       		.uleb128 0x17
 2158 018c 58       		.uleb128 0x58
 2159 018d 0B       		.uleb128 0xb
 2160 018e 59       		.uleb128 0x59
 2161 018f 0B       		.uleb128 0xb
 2162 0190 00       		.byte	0
 2163 0191 00       		.byte	0
 2164 0192 20       		.uleb128 0x20
 2165 0193 898201   		.uleb128 0x4109
 2166 0196 01       		.byte	0x1
 2167 0197 11       		.uleb128 0x11
 2168 0198 01       		.uleb128 0x1
 2169 0199 31       		.uleb128 0x31
 2170 019a 13       		.uleb128 0x13
 2171 019b 01       		.uleb128 0x1
 2172 019c 13       		.uleb128 0x13
 2173 019d 00       		.byte	0
 2174 019e 00       		.byte	0
 2175 019f 21       		.uleb128 0x21
 2176 01a0 8A8201   		.uleb128 0x410a
 2177 01a3 00       		.byte	0
 2178 01a4 02       		.uleb128 0x2
 2179 01a5 18       		.uleb128 0x18
 2180 01a6 9142     		.uleb128 0x2111
 2181 01a8 18       		.uleb128 0x18
 2182 01a9 00       		.byte	0
 2183 01aa 00       		.byte	0
 2184 01ab 22       		.uleb128 0x22
 2185 01ac 898201   		.uleb128 0x4109
 2186 01af 00       		.byte	0
 2187 01b0 11       		.uleb128 0x11
ARM GAS  /var/folders/c6/c789hm653lg9vtl73krp73tm0000gn/T//ccCzjVT0.s 			page 63


 2188 01b1 01       		.uleb128 0x1
 2189 01b2 31       		.uleb128 0x31
 2190 01b3 13       		.uleb128 0x13
 2191 01b4 00       		.byte	0
 2192 01b5 00       		.byte	0
 2193 01b6 23       		.uleb128 0x23
 2194 01b7 898201   		.uleb128 0x4109
 2195 01ba 01       		.byte	0x1
 2196 01bb 11       		.uleb128 0x11
 2197 01bc 01       		.uleb128 0x1
 2198 01bd 9542     		.uleb128 0x2115
 2199 01bf 19       		.uleb128 0x19
 2200 01c0 31       		.uleb128 0x31
 2201 01c1 13       		.uleb128 0x13
 2202 01c2 00       		.byte	0
 2203 01c3 00       		.byte	0
 2204 01c4 24       		.uleb128 0x24
 2205 01c5 05       		.uleb128 0x5
 2206 01c6 00       		.byte	0
 2207 01c7 03       		.uleb128 0x3
 2208 01c8 08       		.uleb128 0x8
 2209 01c9 3A       		.uleb128 0x3a
 2210 01ca 0B       		.uleb128 0xb
 2211 01cb 3B       		.uleb128 0x3b
 2212 01cc 0B       		.uleb128 0xb
 2213 01cd 49       		.uleb128 0x49
 2214 01ce 13       		.uleb128 0x13
 2215 01cf 02       		.uleb128 0x2
 2216 01d0 17       		.uleb128 0x17
 2217 01d1 00       		.byte	0
 2218 01d2 00       		.byte	0
 2219 01d3 25       		.uleb128 0x25
 2220 01d4 34       		.uleb128 0x34
 2221 01d5 00       		.byte	0
 2222 01d6 03       		.uleb128 0x3
 2223 01d7 0E       		.uleb128 0xe
 2224 01d8 3A       		.uleb128 0x3a
 2225 01d9 0B       		.uleb128 0xb
 2226 01da 3B       		.uleb128 0x3b
 2227 01db 05       		.uleb128 0x5
 2228 01dc 49       		.uleb128 0x49
 2229 01dd 13       		.uleb128 0x13
 2230 01de 3F       		.uleb128 0x3f
 2231 01df 19       		.uleb128 0x19
 2232 01e0 3C       		.uleb128 0x3c
 2233 01e1 19       		.uleb128 0x19
 2234 01e2 00       		.byte	0
 2235 01e3 00       		.byte	0
 2236 01e4 26       		.uleb128 0x26
 2237 01e5 34       		.uleb128 0x34
 2238 01e6 00       		.byte	0
 2239 01e7 03       		.uleb128 0x3
 2240 01e8 08       		.uleb128 0x8
 2241 01e9 3A       		.uleb128 0x3a
 2242 01ea 0B       		.uleb128 0xb
 2243 01eb 3B       		.uleb128 0x3b
 2244 01ec 05       		.uleb128 0x5
ARM GAS  /var/folders/c6/c789hm653lg9vtl73krp73tm0000gn/T//ccCzjVT0.s 			page 64


 2245 01ed 49       		.uleb128 0x49
 2246 01ee 13       		.uleb128 0x13
 2247 01ef 3F       		.uleb128 0x3f
 2248 01f0 19       		.uleb128 0x19
 2249 01f1 3C       		.uleb128 0x3c
 2250 01f2 19       		.uleb128 0x19
 2251 01f3 00       		.byte	0
 2252 01f4 00       		.byte	0
 2253 01f5 27       		.uleb128 0x27
 2254 01f6 34       		.uleb128 0x34
 2255 01f7 00       		.byte	0
 2256 01f8 03       		.uleb128 0x3
 2257 01f9 0E       		.uleb128 0xe
 2258 01fa 3A       		.uleb128 0x3a
 2259 01fb 0B       		.uleb128 0xb
 2260 01fc 3B       		.uleb128 0x3b
 2261 01fd 0B       		.uleb128 0xb
 2262 01fe 49       		.uleb128 0x49
 2263 01ff 13       		.uleb128 0x13
 2264 0200 3F       		.uleb128 0x3f
 2265 0201 19       		.uleb128 0x19
 2266 0202 3C       		.uleb128 0x3c
 2267 0203 19       		.uleb128 0x19
 2268 0204 00       		.byte	0
 2269 0205 00       		.byte	0
 2270 0206 28       		.uleb128 0x28
 2271 0207 21       		.uleb128 0x21
 2272 0208 00       		.byte	0
 2273 0209 00       		.byte	0
 2274 020a 00       		.byte	0
 2275 020b 29       		.uleb128 0x29
 2276 020c 34       		.uleb128 0x34
 2277 020d 00       		.byte	0
 2278 020e 03       		.uleb128 0x3
 2279 020f 08       		.uleb128 0x8
 2280 0210 3A       		.uleb128 0x3a
 2281 0211 0B       		.uleb128 0xb
 2282 0212 3B       		.uleb128 0x3b
 2283 0213 0B       		.uleb128 0xb
 2284 0214 49       		.uleb128 0x49
 2285 0215 13       		.uleb128 0x13
 2286 0216 3F       		.uleb128 0x3f
 2287 0217 19       		.uleb128 0x19
 2288 0218 3C       		.uleb128 0x3c
 2289 0219 19       		.uleb128 0x19
 2290 021a 00       		.byte	0
 2291 021b 00       		.byte	0
 2292 021c 2A       		.uleb128 0x2a
 2293 021d 34       		.uleb128 0x34
 2294 021e 00       		.byte	0
 2295 021f 03       		.uleb128 0x3
 2296 0220 0E       		.uleb128 0xe
 2297 0221 3A       		.uleb128 0x3a
 2298 0222 0B       		.uleb128 0xb
 2299 0223 3B       		.uleb128 0x3b
 2300 0224 0B       		.uleb128 0xb
 2301 0225 49       		.uleb128 0x49
ARM GAS  /var/folders/c6/c789hm653lg9vtl73krp73tm0000gn/T//ccCzjVT0.s 			page 65


 2302 0226 13       		.uleb128 0x13
 2303 0227 3F       		.uleb128 0x3f
 2304 0228 19       		.uleb128 0x19
 2305 0229 02       		.uleb128 0x2
 2306 022a 18       		.uleb128 0x18
 2307 022b 00       		.byte	0
 2308 022c 00       		.byte	0
 2309 022d 2B       		.uleb128 0x2b
 2310 022e 2E       		.uleb128 0x2e
 2311 022f 01       		.byte	0x1
 2312 0230 3F       		.uleb128 0x3f
 2313 0231 19       		.uleb128 0x19
 2314 0232 03       		.uleb128 0x3
 2315 0233 0E       		.uleb128 0xe
 2316 0234 3A       		.uleb128 0x3a
 2317 0235 0B       		.uleb128 0xb
 2318 0236 3B       		.uleb128 0x3b
 2319 0237 0B       		.uleb128 0xb
 2320 0238 27       		.uleb128 0x27
 2321 0239 19       		.uleb128 0x19
 2322 023a 49       		.uleb128 0x49
 2323 023b 13       		.uleb128 0x13
 2324 023c 3C       		.uleb128 0x3c
 2325 023d 19       		.uleb128 0x19
 2326 023e 01       		.uleb128 0x1
 2327 023f 13       		.uleb128 0x13
 2328 0240 00       		.byte	0
 2329 0241 00       		.byte	0
 2330 0242 2C       		.uleb128 0x2c
 2331 0243 2E       		.uleb128 0x2e
 2332 0244 00       		.byte	0
 2333 0245 3F       		.uleb128 0x3f
 2334 0246 19       		.uleb128 0x19
 2335 0247 03       		.uleb128 0x3
 2336 0248 0E       		.uleb128 0xe
 2337 0249 3A       		.uleb128 0x3a
 2338 024a 0B       		.uleb128 0xb
 2339 024b 3B       		.uleb128 0x3b
 2340 024c 0B       		.uleb128 0xb
 2341 024d 27       		.uleb128 0x27
 2342 024e 19       		.uleb128 0x19
 2343 024f 49       		.uleb128 0x49
 2344 0250 13       		.uleb128 0x13
 2345 0251 3C       		.uleb128 0x3c
 2346 0252 19       		.uleb128 0x19
 2347 0253 00       		.byte	0
 2348 0254 00       		.byte	0
 2349 0255 2D       		.uleb128 0x2d
 2350 0256 2E       		.uleb128 0x2e
 2351 0257 01       		.byte	0x1
 2352 0258 3F       		.uleb128 0x3f
 2353 0259 19       		.uleb128 0x19
 2354 025a 03       		.uleb128 0x3
 2355 025b 0E       		.uleb128 0xe
 2356 025c 3A       		.uleb128 0x3a
 2357 025d 0B       		.uleb128 0xb
 2358 025e 3B       		.uleb128 0x3b
ARM GAS  /var/folders/c6/c789hm653lg9vtl73krp73tm0000gn/T//ccCzjVT0.s 			page 66


 2359 025f 0B       		.uleb128 0xb
 2360 0260 27       		.uleb128 0x27
 2361 0261 19       		.uleb128 0x19
 2362 0262 3C       		.uleb128 0x3c
 2363 0263 19       		.uleb128 0x19
 2364 0264 01       		.uleb128 0x1
 2365 0265 13       		.uleb128 0x13
 2366 0266 00       		.byte	0
 2367 0267 00       		.byte	0
 2368 0268 2E       		.uleb128 0x2e
 2369 0269 2E       		.uleb128 0x2e
 2370 026a 01       		.byte	0x1
 2371 026b 3F       		.uleb128 0x3f
 2372 026c 19       		.uleb128 0x19
 2373 026d 03       		.uleb128 0x3
 2374 026e 0E       		.uleb128 0xe
 2375 026f 3A       		.uleb128 0x3a
 2376 0270 0B       		.uleb128 0xb
 2377 0271 3B       		.uleb128 0x3b
 2378 0272 0B       		.uleb128 0xb
 2379 0273 27       		.uleb128 0x27
 2380 0274 19       		.uleb128 0x19
 2381 0275 49       		.uleb128 0x49
 2382 0276 13       		.uleb128 0x13
 2383 0277 3C       		.uleb128 0x3c
 2384 0278 19       		.uleb128 0x19
 2385 0279 00       		.byte	0
 2386 027a 00       		.byte	0
 2387 027b 00       		.byte	0
 2388              		.section	.debug_loc,"",%progbits
 2389              	.Ldebug_loc0:
 2390              	.LLST0:
 2391 0000 24000000 		.4byte	.LVL1
 2392 0004 2B000000 		.4byte	.LVL3-1
 2393 0008 0100     		.2byte	0x1
 2394 000a 50       		.byte	0x50
 2395 000b 36000000 		.4byte	.LVL5
 2396 000f 3D000000 		.4byte	.LVL7-1
 2397 0013 0100     		.2byte	0x1
 2398 0015 50       		.byte	0x50
 2399 0016 48000000 		.4byte	.LVL9
 2400 001a 4F000000 		.4byte	.LVL11-1
 2401 001e 0100     		.2byte	0x1
 2402 0020 50       		.byte	0x50
 2403 0021 00000000 		.4byte	0
 2404 0025 00000000 		.4byte	0
 2405              	.LLST1:
 2406 0029 00000000 		.4byte	.LVL14
 2407 002d 09000000 		.4byte	.LVL15-1
 2408 0031 0100     		.2byte	0x1
 2409 0033 50       		.byte	0x50
 2410 0034 09000000 		.4byte	.LVL15-1
 2411 0038 1A000000 		.4byte	.LVL17
 2412 003c 0100     		.2byte	0x1
 2413 003e 54       		.byte	0x54
 2414 003f 1A000000 		.4byte	.LVL17
 2415 0043 1D000000 		.4byte	.LVL18-1
ARM GAS  /var/folders/c6/c789hm653lg9vtl73krp73tm0000gn/T//ccCzjVT0.s 			page 67


 2416 0047 0100     		.2byte	0x1
 2417 0049 50       		.byte	0x50
 2418 004a 1D000000 		.4byte	.LVL18-1
 2419 004e 1E000000 		.4byte	.LFE229
 2420 0052 0400     		.2byte	0x4
 2421 0054 F3       		.byte	0xf3
 2422 0055 01       		.uleb128 0x1
 2423 0056 50       		.byte	0x50
 2424 0057 9F       		.byte	0x9f
 2425 0058 00000000 		.4byte	0
 2426 005c 00000000 		.4byte	0
 2427              		.section	.debug_aranges,"",%progbits
 2428 0000 24000000 		.4byte	0x24
 2429 0004 0200     		.2byte	0x2
 2430 0006 00000000 		.4byte	.Ldebug_info0
 2431 000a 04       		.byte	0x4
 2432 000b 00       		.byte	0
 2433 000c 0000     		.2byte	0
 2434 000e 0000     		.2byte	0
 2435 0010 00000000 		.4byte	.LFB230
 2436 0014 78000000 		.4byte	.LFE230-.LFB230
 2437 0018 00000000 		.4byte	.LFB229
 2438 001c 1E000000 		.4byte	.LFE229-.LFB229
 2439 0020 00000000 		.4byte	0
 2440 0024 00000000 		.4byte	0
 2441              		.section	.debug_ranges,"",%progbits
 2442              	.Ldebug_ranges0:
 2443 0000 02000000 		.4byte	.LBB16
 2444 0004 04000000 		.4byte	.LBE16
 2445 0008 06000000 		.4byte	.LBB23
 2446 000c 08000000 		.4byte	.LBE23
 2447 0010 00000000 		.4byte	0
 2448 0014 00000000 		.4byte	0
 2449 0018 02000000 		.4byte	.LBB18
 2450 001c 04000000 		.4byte	.LBE18
 2451 0020 06000000 		.4byte	.LBB21
 2452 0024 08000000 		.4byte	.LBE21
 2453 0028 00000000 		.4byte	0
 2454 002c 00000000 		.4byte	0
 2455 0030 00000000 		.4byte	.LFB230
 2456 0034 78000000 		.4byte	.LFE230
 2457 0038 00000000 		.4byte	.LFB229
 2458 003c 1E000000 		.4byte	.LFE229
 2459 0040 00000000 		.4byte	0
 2460 0044 00000000 		.4byte	0
 2461              		.section	.debug_line,"",%progbits
 2462              	.Ldebug_line0:
 2463 0000 B1020000 		.section	.debug_str,"MS",%progbits,1
 2463      02004E02 
 2463      00000201 
 2463      FB0E0D00 
 2463      01010101 
 2464              	.LASF101:
 2465 0000 7466756E 		.ascii	"tfunc_t\000"
 2465      635F7400 
 2466              	.LASF51:
 2467 0008 72656164 		.ascii	"ready_list_t\000"
ARM GAS  /var/folders/c6/c789hm653lg9vtl73krp73tm0000gn/T//ccCzjVT0.s 			page 68


 2467      795F6C69 
 2467      73745F74 
 2467      00
 2468              	.LASF2:
 2469 0015 73697A65 		.ascii	"size_t\000"
 2469      5F7400
 2470              	.LASF86:
 2471 001c 7264796D 		.ascii	"rdymsg\000"
 2471      736700
 2472              	.LASF17:
 2473 0023 75696E74 		.ascii	"uint64_t\000"
 2473      36345F74 
 2473      00
 2474              	.LASF3:
 2475 002c 5F5F7569 		.ascii	"__uint8_t\000"
 2475      6E74385F 
 2475      7400
 2476              	.LASF83:
 2477 0036 706F7274 		.ascii	"port_intctx\000"
 2477      5F696E74 
 2477      63747800 
 2478              	.LASF70:
 2479 0042 73797374 		.ascii	"system_debug_t\000"
 2479      656D5F64 
 2479      65627567 
 2479      5F7400
 2480              	.LASF13:
 2481 0051 6C6F6E67 		.ascii	"long long unsigned int\000"
 2481      206C6F6E 
 2481      6720756E 
 2481      7369676E 
 2481      65642069 
 2482              	.LASF87:
 2483 0068 65786974 		.ascii	"exitcode\000"
 2483      636F6465 
 2483      00
 2484              	.LASF77:
 2485 0071 6D61696E 		.ascii	"mainthread\000"
 2485      74687265 
 2485      616400
 2486              	.LASF67:
 2487 007c 76697274 		.ascii	"virtual_timers_list_t\000"
 2487      75616C5F 
 2487      74696D65 
 2487      72735F6C 
 2487      6973745F 
 2488              	.LASF112:
 2489 0092 49544D5F 		.ascii	"ITM_RxBuffer\000"
 2489      52784275 
 2489      66666572 
 2489      00
 2490              	.LASF50:
 2491 009f 63685F74 		.ascii	"ch_threads_queue\000"
 2491      68726561 
 2491      64735F71 
 2491      75657565 
 2491      00
ARM GAS  /var/folders/c6/c789hm653lg9vtl73krp73tm0000gn/T//ccCzjVT0.s 			page 69


 2492              	.LASF30:
 2493 00b0 705F7072 		.ascii	"p_prio\000"
 2493      696F00
 2494              	.LASF11:
 2495 00b7 6C6F6E67 		.ascii	"long long int\000"
 2495      206C6F6E 
 2495      6720696E 
 2495      7400
 2496              	.LASF1:
 2497 00c5 7369676E 		.ascii	"signed char\000"
 2497      65642063 
 2497      68617200 
 2498              	.LASF44:
 2499 00d1 705F6D70 		.ascii	"p_mpool\000"
 2499      6F6F6C00 
 2500              	.LASF97:
 2501 00d9 6D5F7175 		.ascii	"m_queue\000"
 2501      65756500 
 2502              	.LASF117:
 2503 00e1 74657374 		.ascii	"test_emit_token\000"
 2503      5F656D69 
 2503      745F746F 
 2503      6B656E00 
 2504              	.LASF76:
 2505 00f1 76746C69 		.ascii	"vtlist\000"
 2505      737400
 2506              	.LASF89:
 2507 00f8 77747472 		.ascii	"wttrp\000"
 2507      7000
 2508              	.LASF74:
 2509 00fe 63685F73 		.ascii	"ch_system\000"
 2509      79737465 
 2509      6D00
 2510              	.LASF8:
 2511 0108 6C6F6E67 		.ascii	"long int\000"
 2511      20696E74 
 2511      00
 2512              	.LASF121:
 2513 0111 63684D73 		.ascii	"chMsgSend\000"
 2513      6753656E 
 2513      6400
 2514              	.LASF20:
 2515 011b 74737461 		.ascii	"tstate_t\000"
 2515      74655F74 
 2515      00
 2516              	.LASF32:
 2517 0124 705F6E65 		.ascii	"p_newer\000"
 2517      77657200 
 2518              	.LASF94:
 2519 012c 735F7175 		.ascii	"s_queue\000"
 2519      65756500 
 2520              	.LASF56:
 2521 0134 725F6E65 		.ascii	"r_newer\000"
 2521      77657200 
 2522              	.LASF80:
 2523 013c 72656761 		.ascii	"regarm_t\000"
 2523      726D5F74 
ARM GAS  /var/folders/c6/c789hm653lg9vtl73krp73tm0000gn/T//ccCzjVT0.s 			page 70


 2523      00
 2524              	.LASF63:
 2525 0145 76745F70 		.ascii	"vt_prev\000"
 2525      72657600 
 2526              	.LASF102:
 2527 014d 6D757465 		.ascii	"mutex_t\000"
 2527      785F7400 
 2528              	.LASF78:
 2529 0155 69646C65 		.ascii	"idle_thread_wa\000"
 2529      5F746872 
 2529      6561645F 
 2529      776100
 2530              	.LASF25:
 2531 0164 636E745F 		.ascii	"cnt_t\000"
 2531      7400
 2532              	.LASF0:
 2533 016a 756E7369 		.ascii	"unsigned int\000"
 2533      676E6564 
 2533      20696E74 
 2533      00
 2534              	.LASF62:
 2535 0177 76745F6E 		.ascii	"vt_next\000"
 2535      65787400 
 2536              	.LASF90:
 2537 017f 77747365 		.ascii	"wtsemp\000"
 2537      6D7000
 2538              	.LASF39:
 2539 0186 705F6D73 		.ascii	"p_msgqueue\000"
 2539      67717565 
 2539      756500
 2540              	.LASF106:
 2541 0191 74656172 		.ascii	"teardown\000"
 2541      646F776E 
 2541      00
 2542              	.LASF125:
 2543 019a 63684D73 		.ascii	"chMsgGet\000"
 2543      67476574 
 2543      00
 2544              	.LASF104:
 2545 01a3 6E616D65 		.ascii	"name\000"
 2545      00
 2546              	.LASF95:
 2547 01a8 735F636E 		.ascii	"s_cnt\000"
 2547      7400
 2548              	.LASF6:
 2549 01ae 73686F72 		.ascii	"short unsigned int\000"
 2549      7420756E 
 2549      7369676E 
 2549      65642069 
 2549      6E7400
 2550              	.LASF47:
 2551 01c1 63685F74 		.ascii	"ch_thread\000"
 2551      68726561 
 2551      6400
 2552              	.LASF23:
 2553 01cb 6D73675F 		.ascii	"msg_t\000"
 2553      7400
ARM GAS  /var/folders/c6/c789hm653lg9vtl73krp73tm0000gn/T//ccCzjVT0.s 			page 71


 2554              	.LASF73:
 2555 01d1 63685F73 		.ascii	"ch_system_t\000"
 2555      79737465 
 2555      6D5F7400 
 2556              	.LASF19:
 2557 01dd 746D6F64 		.ascii	"tmode_t\000"
 2557      655F7400 
 2558              	.LASF52:
 2559 01e5 63685F72 		.ascii	"ch_ready_list\000"
 2559      65616479 
 2559      5F6C6973 
 2559      7400
 2560              	.LASF24:
 2561 01f3 6576656E 		.ascii	"eventmask_t\000"
 2561      746D6173 
 2561      6B5F7400 
 2562              	.LASF7:
 2563 01ff 5F5F696E 		.ascii	"__int32_t\000"
 2563      7433325F 
 2563      7400
 2564              	.LASF81:
 2565 0209 73746B61 		.ascii	"stkalign_t\000"
 2565      6C69676E 
 2565      5F7400
 2566              	.LASF118:
 2567 0214 63685468 		.ascii	"chThdCreateStatic\000"
 2567      64437265 
 2567      61746553 
 2567      74617469 
 2567      6300
 2568              	.LASF38:
 2569 0226 705F7761 		.ascii	"p_waiting\000"
 2569      6974696E 
 2569      6700
 2570              	.LASF115:
 2571 0230 70617474 		.ascii	"patternmsg\000"
 2571      65726E6D 
 2571      736700
 2572              	.LASF79:
 2573 023b 73697A65 		.ascii	"sizetype\000"
 2573      74797065 
 2573      00
 2574              	.LASF45:
 2575 0244 74687265 		.ascii	"thread_reference_t\000"
 2575      61645F72 
 2575      65666572 
 2575      656E6365 
 2575      5F7400
 2576              	.LASF68:
 2577 0257 63685F76 		.ascii	"ch_virtual_timers_list\000"
 2577      69727475 
 2577      616C5F74 
 2577      696D6572 
 2577      735F6C69 
 2578              	.LASF85:
 2579 026e 746D5F63 		.ascii	"tm_calibration_t\000"
 2579      616C6962 
ARM GAS  /var/folders/c6/c789hm653lg9vtl73krp73tm0000gn/T//ccCzjVT0.s 			page 72


 2579      72617469 
 2579      6F6E5F74 
 2579      00
 2580              	.LASF69:
 2581 027f 76745F6C 		.ascii	"vt_lasttime\000"
 2581      61737474 
 2581      696D6500 
 2582              	.LASF33:
 2583 028b 705F6F6C 		.ascii	"p_older\000"
 2583      64657200 
 2584              	.LASF55:
 2585 0293 725F6374 		.ascii	"r_ctx\000"
 2585      7800
 2586              	.LASF109:
 2587 0299 63685468 		.ascii	"chThdGetPriorityX\000"
 2587      64476574 
 2587      5072696F 
 2587      72697479 
 2587      5800
 2588              	.LASF105:
 2589 02ab 73657475 		.ascii	"setup\000"
 2589      7000
 2590              	.LASF119:
 2591 02b1 5F746573 		.ascii	"_test_assert_sequence\000"
 2591      745F6173 
 2591      73657274 
 2591      5F736571 
 2591      75656E63 
 2592              	.LASF58:
 2593 02c7 725F6375 		.ascii	"r_current\000"
 2593      7272656E 
 2593      7400
 2594              	.LASF57:
 2595 02d1 725F6F6C 		.ascii	"r_older\000"
 2595      64657200 
 2596              	.LASF123:
 2597 02d9 2E2E2F2E 		.ascii	"../../../test/rt/testmsg.c\000"
 2597      2E2F2E2E 
 2597      2F746573 
 2597      742F7274 
 2597      2F746573 
 2598              	.LASF12:
 2599 02f4 5F5F7569 		.ascii	"__uint64_t\000"
 2599      6E743634 
 2599      5F7400
 2600              	.LASF21:
 2601 02ff 74726566 		.ascii	"trefs_t\000"
 2601      735F7400 
 2602              	.LASF60:
 2603 0307 76697274 		.ascii	"virtual_timer_t\000"
 2603      75616C5F 
 2603      74696D65 
 2603      725F7400 
 2604              	.LASF29:
 2605 0317 705F7072 		.ascii	"p_prev\000"
 2605      657600
 2606              	.LASF107:
ARM GAS  /var/folders/c6/c789hm653lg9vtl73krp73tm0000gn/T//ccCzjVT0.s 			page 73


 2607 031e 65786563 		.ascii	"execute\000"
 2607      75746500 
 2608              	.LASF22:
 2609 0326 74707269 		.ascii	"tprio_t\000"
 2609      6F5F7400 
 2610              	.LASF111:
 2611 032e 74687265 		.ascii	"thread\000"
 2611      616400
 2612              	.LASF71:
 2613 0335 63685F73 		.ascii	"ch_system_debug\000"
 2613      79737465 
 2613      6D5F6465 
 2613      62756700 
 2614              	.LASF120:
 2615 0345 5F426F6F 		.ascii	"_Bool\000"
 2615      6C00
 2616              	.LASF15:
 2617 034b 696E7433 		.ascii	"int32_t\000"
 2617      325F7400 
 2618              	.LASF4:
 2619 0353 756E7369 		.ascii	"unsigned char\000"
 2619      676E6564 
 2619      20636861 
 2619      7200
 2620              	.LASF42:
 2621 0361 705F6D74 		.ascii	"p_mtxlist\000"
 2621      786C6973 
 2621      7400
 2622              	.LASF5:
 2623 036b 73686F72 		.ascii	"short int\000"
 2623      7420696E 
 2623      7400
 2624              	.LASF35:
 2625 0375 705F7374 		.ascii	"p_state\000"
 2625      61746500 
 2626              	.LASF113:
 2627 037d 74687265 		.ascii	"threads\000"
 2627      61647300 
 2628              	.LASF54:
 2629 0385 725F7072 		.ascii	"r_prio\000"
 2629      696F00
 2630              	.LASF114:
 2631 038c 74657374 		.ascii	"testmsg1\000"
 2631      6D736731 
 2631      00
 2632              	.LASF92:
 2633 0395 65776D61 		.ascii	"ewmask\000"
 2633      736B00
 2634              	.LASF28:
 2635 039c 705F6E65 		.ascii	"p_next\000"
 2635      787400
 2636              	.LASF36:
 2637 03a3 705F666C 		.ascii	"p_flags\000"
 2637      61677300 
 2638              	.LASF61:
 2639 03ab 63685F76 		.ascii	"ch_virtual_timer\000"
 2639      69727475 
ARM GAS  /var/folders/c6/c789hm653lg9vtl73krp73tm0000gn/T//ccCzjVT0.s 			page 74


 2639      616C5F74 
 2639      696D6572 
 2639      00
 2640              	.LASF116:
 2641 03bc 63684D73 		.ascii	"chMsgRelease\000"
 2641      6752656C 
 2641      65617365 
 2641      00
 2642              	.LASF103:
 2643 03c9 74657374 		.ascii	"testcase\000"
 2643      63617365 
 2643      00
 2644              	.LASF93:
 2645 03d2 63685F73 		.ascii	"ch_semaphore\000"
 2645      656D6170 
 2645      686F7265 
 2645      00
 2646              	.LASF41:
 2647 03df 705F6570 		.ascii	"p_epending\000"
 2647      656E6469 
 2647      6E6700
 2648              	.LASF16:
 2649 03ea 75696E74 		.ascii	"uint32_t\000"
 2649      33325F74 
 2649      00
 2650              	.LASF91:
 2651 03f3 77746D74 		.ascii	"wtmtxp\000"
 2651      787000
 2652              	.LASF53:
 2653 03fa 725F7175 		.ascii	"r_queue\000"
 2653      65756500 
 2654              	.LASF64:
 2655 0402 76745F64 		.ascii	"vt_delta\000"
 2655      656C7461 
 2655      00
 2656              	.LASF48:
 2657 040b 63685F74 		.ascii	"ch_threads_list\000"
 2657      68726561 
 2657      64735F6C 
 2657      69737400 
 2658              	.LASF10:
 2659 041b 6C6F6E67 		.ascii	"long unsigned int\000"
 2659      20756E73 
 2659      69676E65 
 2659      6420696E 
 2659      7400
 2660              	.LASF124:
 2661 042d 2F557365 		.ascii	"/Users/savonetj/Downloads/ChibiOS_3.0.2/demos/STM32"
 2661      72732F73 
 2661      61766F6E 
 2661      65746A2F 
 2661      446F776E 
 2662 0460 2F52542D 		.ascii	"/RT-STM32F407-DISCOVERY\000"
 2662      53544D33 
 2662      32463430 
 2662      372D4449 
 2662      53434F56 
ARM GAS  /var/folders/c6/c789hm653lg9vtl73krp73tm0000gn/T//ccCzjVT0.s 			page 75


 2663              	.LASF100:
 2664 0478 63686172 		.ascii	"char\000"
 2664      00
 2665              	.LASF27:
 2666 047d 74687265 		.ascii	"thread_t\000"
 2666      61645F74 
 2666      00
 2667              	.LASF99:
 2668 0486 6D5F6E65 		.ascii	"m_next\000"
 2668      787400
 2669              	.LASF26:
 2670 048d 73797374 		.ascii	"systime_t\000"
 2670      696D655F 
 2670      7400
 2671              	.LASF43:
 2672 0497 705F7265 		.ascii	"p_realprio\000"
 2672      616C7072 
 2672      696F00
 2673              	.LASF59:
 2674 04a2 76746675 		.ascii	"vtfunc_t\000"
 2674      6E635F74 
 2674      00
 2675              	.LASF9:
 2676 04ab 5F5F7569 		.ascii	"__uint32_t\000"
 2676      6E743332 
 2676      5F7400
 2677              	.LASF72:
 2678 04b6 70616E69 		.ascii	"panic_msg\000"
 2678      635F6D73 
 2678      6700
 2679              	.LASF84:
 2680 04c0 6F666673 		.ascii	"offset\000"
 2680      657400
 2681              	.LASF82:
 2682 04c7 636F6E74 		.ascii	"context\000"
 2682      65787400 
 2683              	.LASF18:
 2684 04cf 7274636E 		.ascii	"rtcnt_t\000"
 2684      745F7400 
 2685              	.LASF66:
 2686 04d7 76745F70 		.ascii	"vt_par\000"
 2686      617200
 2687              	.LASF126:
 2688 04de 63684D73 		.ascii	"chMsgWait\000"
 2688      67576169 
 2688      7400
 2689              	.LASF49:
 2690 04e8 74687265 		.ascii	"threads_queue_t\000"
 2690      6164735F 
 2690      71756575 
 2690      655F7400 
 2691              	.LASF96:
 2692 04f8 63685F6D 		.ascii	"ch_mutex\000"
 2692      75746578 
 2692      00
 2693              	.LASF37:
 2694 0501 705F7265 		.ascii	"p_refs\000"
ARM GAS  /var/folders/c6/c789hm653lg9vtl73krp73tm0000gn/T//ccCzjVT0.s 			page 76


 2694      667300
 2695              	.LASF75:
 2696 0508 726C6973 		.ascii	"rlist\000"
 2696      7400
 2697              	.LASF108:
 2698 050e 63685468 		.ascii	"chThdGetSelfX\000"
 2698      64476574 
 2698      53656C66 
 2698      5800
 2699              	.LASF14:
 2700 051c 75696E74 		.ascii	"uint8_t\000"
 2700      385F7400 
 2701              	.LASF110:
 2702 0524 6D736731 		.ascii	"msg1_execute\000"
 2702      5F657865 
 2702      63757465 
 2702      00
 2703              	.LASF88:
 2704 0531 77746F62 		.ascii	"wtobjp\000"
 2704      6A7000
 2705              	.LASF34:
 2706 0538 705F6E61 		.ascii	"p_name\000"
 2706      6D6500
 2707              	.LASF46:
 2708 053f 74687265 		.ascii	"threads_list_t\000"
 2708      6164735F 
 2708      6C697374 
 2708      5F7400
 2709              	.LASF122:
 2710 054e 474E5520 		.ascii	"GNU C 4.8.4 20140725 (release) [ARM/embedded-4_8-br"
 2710      4320342E 
 2710      382E3420 
 2710      32303134 
 2710      30373235 
 2711 0581 616E6368 		.ascii	"anch revision 213147] -mcpu=cortex-m4 -mno-thumb-in"
 2711      20726576 
 2711      6973696F 
 2711      6E203231 
 2711      33313437 
 2712 05b4 74657277 		.ascii	"terwork -mthumb -ggdb -O2 -fomit-frame-pointer -fal"
 2712      6F726B20 
 2712      2D6D7468 
 2712      756D6220 
 2712      2D676764 
 2713 05e7 69676E2D 		.ascii	"ign-functions=16 -ffunction-sections -fdata-section"
 2713      66756E63 
 2713      74696F6E 
 2713      733D3136 
 2713      202D6666 
 2714 061a 73202D66 		.ascii	"s -fno-common -flto\000"
 2714      6E6F2D63 
 2714      6F6D6D6F 
 2714      6E202D66 
 2714      6C746F00 
 2715              	.LASF40:
 2716 062e 705F6D73 		.ascii	"p_msg\000"
 2716      6700
ARM GAS  /var/folders/c6/c789hm653lg9vtl73krp73tm0000gn/T//ccCzjVT0.s 			page 77


 2717              	.LASF98:
 2718 0634 6D5F6F77 		.ascii	"m_owner\000"
 2718      6E657200 
 2719              	.LASF31:
 2720 063c 705F6374 		.ascii	"p_ctx\000"
 2720      7800
 2721              	.LASF65:
 2722 0642 76745F66 		.ascii	"vt_func\000"
 2722      756E6300 
 2723              		.comm	__gnu_lto_v1,1,1
 2724              		.ident	"GCC: (GNU Tools for ARM Embedded Processors) 4.8.4 20140725 (release) [ARM/embedded-4_8-br
ARM GAS  /var/folders/c6/c789hm653lg9vtl73krp73tm0000gn/T//ccCzjVT0.s 			page 78


DEFINED SYMBOLS
                            *ABS*:0000000000000000 testmsg.c
/var/folders/c6/c789hm653lg9vtl73krp73tm0000gn/T//ccCzjVT0.s:402    .text.msg1_execute:0000000000000000 $t
/var/folders/c6/c789hm653lg9vtl73krp73tm0000gn/T//ccCzjVT0.s:407    .text.msg1_execute:0000000000000000 msg1_execute
/var/folders/c6/c789hm653lg9vtl73krp73tm0000gn/T//ccCzjVT0.s:511    .text.msg1_execute:0000000000000064 $d
/var/folders/c6/c789hm653lg9vtl73krp73tm0000gn/T//ccCzjVT0.s:525    .text.thread:0000000000000000 thread
/var/folders/c6/c789hm653lg9vtl73krp73tm0000gn/T//ccCzjVT0.s:520    .text.thread:0000000000000000 $t
/var/folders/c6/c789hm653lg9vtl73krp73tm0000gn/T//ccCzjVT0.s:581    .rodata.patternmsg:0000000000000000 patternmsg
/var/folders/c6/c789hm653lg9vtl73krp73tm0000gn/T//ccCzjVT0.s:566    .rodata.testmsg1:0000000000000000 testmsg1
/var/folders/c6/c789hm653lg9vtl73krp73tm0000gn/T//ccCzjVT0.s:563    .rodata.testmsg1:0000000000000000 $d
/var/folders/c6/c789hm653lg9vtl73krp73tm0000gn/T//ccCzjVT0.s:572    .rodata.str1.4:0000000000000000 $d
/var/folders/c6/c789hm653lg9vtl73krp73tm0000gn/T//ccCzjVT0.s:578    .rodata.patternmsg:0000000000000000 $d
                            *COM*:0000000000000001 __gnu_lto_v1
                     .debug_frame:0000000000000010 $d
/var/folders/c6/c789hm653lg9vtl73krp73tm0000gn/T//ccCzjVT0.s:519    .text.msg1_execute:0000000000000078 $t

UNDEFINED SYMBOLS
chThdCreateStatic
chMsgWait
chMsgRelease
test_emit_token
_test_assert_sequence
ch
wa
threads
chMsgSend
