ARM GAS  /var/folders/c6/c789hm653lg9vtl73krp73tm0000gn/T//ccj6qQHm.s 			page 1


   1              		.syntax unified
   2              		.cpu cortex-m4
   3              		.fpu softvfp
   4              		.eabi_attribute 20, 1
   5              		.eabi_attribute 21, 1
   6              		.eabi_attribute 23, 3
   7              		.eabi_attribute 24, 1
   8              		.eabi_attribute 25, 1
   9              		.eabi_attribute 26, 1
  10              		.eabi_attribute 30, 2
  11              		.eabi_attribute 34, 1
  12              		.eabi_attribute 18, 4
  13              		.thumb
  14              		.file	"testheap.c"
  15              		.text
  16              	.Ltext0:
  17              		.section	.gnu.lto_.jmpfuncs.64bbd8f52d4b5916,"",%progbits
  18 0000 789C6362 		.ascii	"x\234cb`b\300\006f2Ch\240,\023S\004c&#\003\017\230\013"
  18      6062C006 
  18      66324368 
  18      A02C1353 
  18      04632623 
  19 0018 617343D8 		.ascii	"asC\330\325\014\277\032:\032\0042\031\031s\031\241\372"
  19      D50CBF1A 
  19      3A1A0432 
  19      19197319 
  19      A1FA
  20 002a 18E16AB8 		.ascii	"\030\341j\270p\252!E\020l\024'>\353\030\261J\20152)"
  20      70AA2145 
  20      106C1427 
  20      3EEB18B1 
  20      4A813532 
  21 003f C08DE0C0 		.ascii	"\300\215\340\300\357b\034\372\005\010\311\201\315f'"
  21      EF621CFA 
  21      0508C981 
  21      CD6627
  22 004e E83CB032 		.ascii	"\350<\26026\212\003\004\335bV\252{J\020n6\013\001OQ"
  22      368A0304 
  22      DD6256AA 
  22      7B4A106E 
  22      360B014F 
  23 0063 146C047D 		.ascii	"\024l\004}\306<P\266\343N\204L\0106#L\017C\303\277\377"
  23      C63C50B6 
  23      E34E844C 
  23      0836234C 
  23      0F43C3BF 
  24 0078 FFF99123 		.ascii	"\377\371\221#\231\021\213*\204\277\240F210cq\004\\\204"
  24      99118B2A 
  24      84BFA046 
  24      32313063 
  24      71045C84 
  25 008c 599B6155 		.ascii	"Y\233aUC\003\210\305\222\313\310\230\004s\007\334\322"
  25      430388C5 
  25      92CBC898 
  25      047307DC 
  25      D2
  26 009d 17A0AC08 		.ascii	"\027\240\254\010\000\207\223\212\230"
ARM GAS  /var/folders/c6/c789hm653lg9vtl73krp73tm0000gn/T//ccj6qQHm.s 			page 2


  26      0087938A 
  26      98
  27              		.text
  28              		.section	.gnu.lto_.inline.64bbd8f52d4b5916,"",%progbits
  29 0000 789C6362 		.ascii	"x\234cb`b\300\006\3662Bh&\006\216\347\214g\031\030\031"
  29      6062C006 
  29      F6324268 
  29      26068EE7 
  29      8C671918 
  30 0015 98429A9C 		.ascii	"\230B\232\234\030\330\026\310\203\225\263\360\202d&"
  30      18D816C8 
  30      8395B3F0 
  30      826426
  31 0024 F8A1D20C 		.ascii	"\370\241\322\014L\334\014\014\214\030\2420.3\017\012"
  31      4CDC0C0C 
  31      8C18A230 
  31      2E330F0A 
  32 0034 17550F8A 		.ascii	"\027U\017\212V\034jP$\2111\007\273\026\312M\307\243"
  32      561C6A50 
  32      24893107 
  32      BB16CA4D 
  32      C7A3
  33 0046 837C8D78 		.ascii	"\203|\215x\203\007M\024\252\226\221\013\034C\354\374"
  33      83074D14 
  33      AA96910B 
  33      1C43ECFC 
  34 0056 8CE05844 		.ascii	"\214\340XD\216\035f\020\003\000\363\332 \205"
  34      8E1D6610 
  34      0300F3DA 
  34      2085
  35              		.text
  36              		.section	.gnu.lto_.pureconst.64bbd8f52d4b5916,"",%progbits
  37 0000 789C6362 		.ascii	"x\234cb`b`e\200\000&\006\011&\011\000\001\000\000>"
  37      60626065 
  37      80002606 
  37      09260900 
  37      0100003E 
  38              		.text
  39              		.section	.gnu.lto_heap1_execute.64bbd8f52d4b5916,"",%progbits
  40 0000 789CAD58 		.ascii	"x\234\255X]hTG\024>s\357\376ew\223\335l\262\206@\361"
  40      5D685447 
  40      143E73EF 
  40      FE657793 
  40      DD6CB286 
  41 0016 2FA42954 		.ascii	"/\244)T\023\323\024m\010!\342\203\022B@\321\245\306"
  41      13D3146D 
  41      0821E283 
  41      124240D1 
  41      A5C6
  42 0028 8A246E53 		.ascii	"\212$nS\263\215\011K\223\276\350\203\327d-V\032*BA\244"
  42      B38D094B 
  42      93BEE883 
  42      D7642D56 
  42      1A2A4241 
  43 003d A5116B5B 		.ascii	"\245\021k[IE\304\007\013\3066\264\245M\244\032\012B"
  43      4945C407 
  43      0BC636B4 
ARM GAS  /var/folders/c6/c789hm653lg9vtl73krp73tm0000gn/T//ccj6qQHm.s 			page 3


  43      A54DA41A 
  43      0A42
  44 004f B5F467E9 		.ascii	"\265\364g\351K-\025\353C\241\245\266n\317\231\231\235"
  44      4B2D15EB 
  44      43A1A5B6 
  44      6ECF9999 
  44      9D
  45 0060 DDCDFDE9 		.ascii	"\335\315\375\351\212w\0113\367\2349\347\314\234\357"
  45      8A770933 
  45      F79C39E7 
  45      CC9CEF
  46 006f FBEEDDBB 		.ascii	"\373\356\335\273\321@\203\245\237\000\003\370\263\026"
  46      D14083A5 
  46      9F0003F8 
  46      B316
  47 007d A013AF59 		.ascii	"\240\023\257Y\034\230v\374\006\300\341\200\246\305f"
  47      1C9876FC 
  47      06C0E180 
  47      A6C566
  48 008c 378011D4 		.ascii	"7\200\021\324o.\003#\254K\313\303-\217\264\274\334\362"
  48      6F2E0323 
  48      AC4BCBC3 
  48      2D8FB4BC 
  48      DCF2
  49 009e 4ACBC72D 		.ascii	"J\313\307-\237\264\374\334\362k\301\251'\321\012L>\205"
  49      9FB4FCDC 
  49      F26BC1A9 
  49      27D10A4C 
  49      3E85
  50 00b0 5640ABBD 		.ascii	"V@\253\275\037G+8\375\034Z\265,H[\261\240\314\010\361"
  50      1F472B38 
  50      FD1C5AB5 
  50      2C485BB1 
  50      A0CC08F1 
  51 00c4 8C90B4C2 		.ascii	"\214\220\264\302\334\012K\253\222[\225\322\252\342V"
  51      DC0A4BAB 
  51      925B95D2 
  51      AAE256
  52 00d3 95B422DC 		.ascii	"\225\264\"\334\212H+\312\255\250\026\273\331\202V\365"
  52      8A482BCA 
  52      ADA816BB 
  52      D98256F5 
  53 00e3 EC72B4AA 		.ascii	"\354r\264\252Y\215h*\226\277\250a\214.\200\301!M\367"
  53      598D682A 
  53      96BFA861 
  53      8C2E80C1 
  53      214DF7
  54 00f6 787DFE40 		.ascii	"x}\376@m0\024\256\254\212D\253c5\354P\037\343\310\254"
  54      6D3014AE 
  54      AC8A44AB 
  54      6335EC50 
  54      1FE3C8AC 
  55 010a 86D38671 		.ascii	"\206\323\206q<{\344\301\311\372c\323\023\307\215\207"
  55      3C7BE4C1 
  55      C9FA63D3 
  55      13C78D87 
  56 011a B91C4B31 		.ascii	"\271\034K1\304p\005\203$\203\235h\260\225|\322<\245"
ARM GAS  /var/folders/c6/c789hm653lg9vtl73krp73tm0000gn/T//ccj6qQHm.s 			page 4


  56      C4700583 
  56      24839D68 
  56      B0957CD2 
  56      3CA5
  57 012c A0F2CC13 		.ascii	"\240\362\314\023s\357\\{\2538S\327\240\251\314\314\313"
  57      73EF5C7B 
  57      AB3853D7 
  57      A0A9CCCC 
  57      CB
  58 013d D7164E33 		.ascii	"\327\026N3\343\204q\370~.\027\341\231O\227\273\347\227"
  58      E38471F8 
  58      7E2E17E1 
  58      994F97BB 
  58      E797
  59 014f 6FD41B85 		.ascii	"o\324\033\205==\032\254+/\323\270\372\342\274\221\231"
  59      3D3D1AAC 
  59      2B2FD3B8 
  59      FAE2BC91 
  59      99
  60 0160 CBE5BA78 		.ascii	"\313\345\272xV[\231Y\337\226d\255/'k\356\304\334\273"
  60      565B9959 
  60      DF9664AD 
  60      2F276BEE 
  60      C4DCBB
  61 0173 AF4D159F 		.ascii	"\257M\025\237\322\253A{y\231\306\225\302~\230\325\361"
  61      D2AB417B 
  61      7999C695 
  61      C27E98D5 
  61      F1
  62 0184 7F5917B4 		.ascii	"\177Y\027\264\271l.\367\375\305\367~~\233\305^e0\300"
  62      B96C2EF7 
  62      FDC5F77E 
  62      7E9BC55E 
  62      6530C0
  63 0197 4EB3D550 		.ascii	"N\263\325P\201\363\0078\007!\305|a\032\"\322\023%#F"
  63      81F30738 
  63      0721C57C 
  63      611A22D2 
  63      13252346 
  64 01ab 435C7AEA 		.ascii	"C\\z\352p>\207s=\31638/\307E}\005E\254\242\241A\206"
  64      703E8773 
  64      3DCE3338 
  64      2FC7457D 
  64      0545ACA2 
  65 01c2 35CAB026 		.ascii	"5\312\260&\031\266\206\302\326RD\013\015\2552\254M\206"
  65      19B686C2 
  65      D652440B 
  65      0DAD32AC 
  65      4D86
  66 01d4 ADA7E50D 		.ascii	"\255\247\345\015\264\322NC\207\\\356$w\027\015\033\311"
  66      B4D24E43 
  66      875CEE24 
  66      77170D1B 
  66      C9
  67 01e5 BD8986CD 		.ascii	"\275\211\206\315dn\241\253n\032zdh\257\254\264\225\226"
  67      646EA1AB 
  67      6E1A7A64 
ARM GAS  /var/folders/c6/c789hm653lg9vtl73krp73tm0000gn/T//ccj6qQHm.s 			page 5


  67      68AFACB4 
  67      9596
  68 01f7 B7D1CA76 		.ascii	"\267\321\312v\032\022r\271\217\334\273\310\263\233\206"
  68      1A1272B9 
  68      8FDCBBC8 
  68      B39B86
  69 0206 3DE83E83 		.ascii	"=\350>\203\356~\271\274\227\226\223\2642H\303\020\231"
  69      EE7EB9BC 
  69      979693B4 
  69      3248C310 
  69      99
  70 0217 29BA1AA6 		.ascii	")\272\032\246a\277\214\036\301\371,\316\243\344L\323"
  70      61BF8C1E 
  70      C1F92CCE 
  70      A3E44CD3 
  71 0227 80907A21 		.ascii	"\200\220z!\203\267\305JQG\234A\264<\300\316\363\361"
  71      83B7C54A 
  71      51479C41 
  71      B43CC0CE 
  71      F3F1
  72 0239 028E40BC 		.ascii	"\002\216@\274\340g\007\216t\253%\230F\263\276\010\223"
  72      E067078E 
  72      74AB2598 
  72      46B3BE08 
  72      93
  73 024a D953C901 		.ascii	"\331S\311\001v\221yq\365 \374m\0345\242)\346O2\036\216"
  73      76917971 
  73      F520FC6D 
  73      1C35A229 
  73      E64F321E 
  74 025f 5B040016 		.ascii	"[\004\000\026\341\310\364\207\272)\250\"\311\304\363"
  74      E1C8F487 
  74      BA29A822 
  74      C9C4F3
  75 026e 8B880E8A 		.ascii	"\213\210\016\212\005\374\274\220b!\261\251\314H\261"
  75      05FCBC90 
  75      6221B1A9 
  75      CC48B1
  76 027d 30AF913D 		.ascii	"0\257\221=\3679\023\256}\254BU\251L2\275\270\012M^\242"
  76      F73913AE 
  76      7DAC4255 
  76      A94C32BD 
  76      B80A4D5E 
  77 0292 BD0A6001 		.ascii	"\275\012`\0014\221 \232\3034\200\3530ykrfJ\317W\012"
  77      3491209A 
  77      C33480EB 
  77      30796B72 
  77      664ACF57 
  78 02a7 A29772B8 		.ascii	"\242\227r\270\320\026\301\233\367\207\325\016\221\244"
  78      D016C19B 
  78      F787D50E 
  78      91A4
  79 02b5 58E4A575 		.ascii	"X\344\245uF9)\026\005\230\207\314]u\2400-\372\212\245"
  79      46392916 
  79      059887CC 
  79      5D75A030 
  79      2DFA8AA5 
ARM GAS  /var/folders/c6/c789hm653lg9vtl73krp73tm0000gn/T//ccj6qQHm.s 			page 6


  80 02c9 9AC073DD 		.ascii	"\232\300s\335\\\206\010e\2623g\374\246\356\253\223\334"
  80      5C860865 
  80      B23367FC 
  80      A6EEAB93 
  80      DC
  81 02da 063A558A 		.ascii	"\006:U\212\305D\207\037\025:\2148v\250\323\235\026\261"
  81      C544871F 
  81      153A8C38 
  81      76A8D39D 
  81      16B1
  82 02ec E932C2BB 		.ascii	"\3512\302\273\\\234\274\\\3502\212^\253.c6]j\224c\356"
  82      5C9CBC5C 
  82      E8328A5E 
  82      AB2E6336 
  82      5D6A9463 
  83 0301 3266D1A5 		.ascii	"2f\321\245\007\026|:Q\374\261\003\305\302C\334\006G"
  83      07167C3A 
  83      51FCB103 
  83      C5C243DC 
  83      0647
  84 0313 589ED883 		.ascii	"X\236\330\203p\300\226\353+\005$\342f$d\271\347K\312"
  84      70C096EB 
  84      2B0524E2 
  84      662464B9 
  84      E74BCA
  85 0326 95323F31 		.ascii	"\2252?1\347+E%.\2048\2530\251{\334\272\347x\335:Q\367"
  85      E72B4525 
  85      2E8438AB 
  85      30A97BDC 
  85      BAE778DD 
  86 033d AAAA5BFF 		.ascii	"\252\252[\377\270ugx\335z\252\233\311~\342\254\235\270"
  86      B8756778 
  86      DD7AAA9B 
  86      C97EE2AC 
  86      9DB8
  87 034f D44E66FA 		.ascii	"\324Nf\372S3\374Equ*n\3361\256^iq!\231oh\2715\237\001"
  87      5333FC45 
  87      71752A6E 
  87      DE31AE5E 
  87      69712199 
  88 0369 4B32CF2F 		.ascii	"K2\317/!\223\224\250\240Y\201\305x\333\254T\206\253"
  88      219394A8 
  88      A05981C5 
  88      78DBAC54 
  88      86AB
  89 037b 6C64A853 		.ascii	"ld\250S\216Y\206\253,d\350\205?\030\3110\373uA9\015"
  89      8E5986AB 
  89      2C64E885 
  89      3F18C930 
  89      FB754139 
  90 0390 EE28A741 		.ascii	"\356(\247A0|]\265\321\350\216r\032E\335\033\252n\223"
  90      307C5DB5 
  90      D1E88E72 
  90      1A45DD1B 
  90      AA6E93
  91 03a3 3BCA6912 		.ascii	";\312i\022\312YtVN\223R\304-GE4\252\270\333\216q\015"
  91      CA597456 
ARM GAS  /var/folders/c6/c789hm653lg9vtl73krp73tm0000gn/T//ccj6qQHm.s 			page 7


  91      4E9352C4 
  91      2D474534 
  91      AAB8DB8E 
  92 03b9 4A39DF29 		.ascii	"J9\337)\345\254qM9k\261\230\225rZl\224\343\241\034\263"
  92      E5AC714D 
  92      396BB198 
  92      95725A6C 
  92      94E3A11C 
  93 03ce 725A2C94 		.ascii	"rZ,\224\343\203\257\200+\347\207\202rZ\037\205\211j"
  93      E383AF80 
  93      2BE78782 
  93      725A1F85 
  93      896A
  94 03e0 5BE5B40A 		.ascii	"[\345\264\012\206\177Tm\264\271\243\2346\301\360O\316"
  94      867F546D 
  94      B4B9A39C 
  94      36C1F04F 
  94      CE
  95 03f1 0CB72A46 		.ascii	"\014\267*F\356(F\326\273\306\310\006,\266S\274\354\225"
  95      EE2846D6 
  95      BBC6C806 
  95      2CB653BC 
  95      EC95
  96 0403 30D26EC3 		.ascii	"0\322n\303\010\31713\322n\301\210\037\342\234\220_\013"
  96      08CF3133 
  96      D26EC188 
  96      1FE29C90 
  96      5F0B
  97 0415 8474B873 		.ascii	"\204t\270s+w\010<\356*<:\037\007\217y\370\342\027u\302"
  97      2B77083C 
  97      EE2A3C3A 
  97      1F078F79 
  97      F8E21775 
  98 042a 4E25CF42 		.ascii	"N%\317B#\001\010\351E\320t\271\266Y\227B>\377\331\301"
  98      230108E9 
  98      45D074B9 
  98      B6599742 
  98      3EFFD9C1 
  99 043e 6A416709 		.ascii	"jAg\011|A\210\353\327a\342\236\342i\343>z\027+:\305"
  99      7C4188EB 
  99      D761E29E 
  99      E269E33E 
  99      7A172B3A 
 100 0453 261B827C 		.ascii	"&\033\202|\024l&h\323\022\202n\003#\017\376\330\252"
 100      146C2668 
 100      D312826E 
 100      03230FFE 
 100      D8AA
 101 0465 E579E80A 		.ascii	"\345y\350\012\200\364\370y\327!\360\361\327\236{\316"
 101      80F4F879 
 101      D721F0F1 
 101      D79E7BCE 
 102 0475 F26C530F 		.ascii	"\362lS\017\226\337\035\037,\035J\306\177)\3326\273&"
 102      96DF1D1F 
 102      2C1D4AC6 
 102      7F29DA36 
 102      BB26
ARM GAS  /var/folders/c6/c789hm653lg9vtl73krp73tm0000gn/T//ccj6qQHm.s 			page 8


 103 0487 E32D58CC 		.ascii	"\343-X\314\352\301\322m\203\222\237r\314(u[\3108\014"
 103      EAC1D26D 
 103      83929F72 
 103      CC28755B 
 103      C8380C
 104 049a 1A97F183 		.ascii	"\032\227\361\203\202\214{\334\221q\217x\256\374\243"
 104      828C7BDC 
 104      91718F78 
 104      AEFCA3
 105 04a9 BAE875E7 		.ascii	"\272\350u\347\271\322+\236+\377:\023\327\243\010y\250"
 105      B9D22B9E 
 105      2BFF3A13 
 105      D7A30879 
 105      A8
 106 04ba 08D9EA1A 		.ascii	"\010\331\352\032!\333\260\230\325se\273\015!\001\312"
 106      21DBB098 
 106      D57365BB 
 106      0D2101CA 
 107 04ca 3113B2DD 		.ascii	"1\023\262\335\202\220J\020\257\010\271\002!\211G\001"
 107      82904A10 
 107      AF08B902 
 107      21894701 
 108 04da 6EA52D21 		.ascii	"n\245-!\011\001\334\321\263\216\300%\224\342_\367:\305"
 108      0901DCD1 
 108      B38EC025 
 108      94E25FF7 
 108      3AC5
 109 04ec F52A808F 		.ascii	"\365*\200\217\015\346\017\332\347\032\300\273\260\230"
 109      0DE60FDA 
 109      E71AC0BB 
 109      B098
 110 04fa 95E277DB 		.ascii	"\225\342w\333\000\\A9f\200w[\000\214\340\360\237\002"
 110      005C4139 
 110      6680775B 
 110      008CE0F0 
 110      9F02
 111 050c 53E6F6CA 		.ascii	"S\346\366\312\373)`>\370\304\302\2553\267\265\374\246"
 111      FB29603E 
 111      F8C4C2AD 
 111      33B7B5FC 
 111      A6
 112 051d 7B440807 		.ascii	"{D\010\007'\317\301>\326_&\211\230oG`\277\300\373M\205"
 112      27CFC13E 
 112      D65F2689 
 112      986F4760 
 112      BFC0FB4D 
 113 0532 F75ED7F0 		.ascii	"\367^\327\360Nb1\2167\224\342=h\203w\220r\314x\017Z"
 113      4E62318E 
 113      3794E23D 
 113      68837790 
 113      72CC780F 
 114 0547 E01DE178 		.ascii	"\340\035\341xg\262'\235u\327\257\364tJ\3657\344Z\177"
 114      67B2279D 
 114      75D7AFF4 
 114      744AF537 
 114      E45A7F
 115 055a 292C66A5 		.ascii	"),f\245\247a\233\376B\224c\356o\330\242?\214\241/\263"
ARM GAS  /var/folders/c6/c789hm653lg9vtl73krp73tm0000gn/T//ccj6qQHm.s 			page 9


 115      A7619BFE 
 115      429463EE 
 115      6FD8A23F 
 115      8CA12FB3 
 116 056e 853BEFAB 		.ascii	"\205;\357\253\260\375y\005\240\277;\357\034\311\377"
 116      B0FD7905 
 116      A0BF3BEF 
 116      1CC9FF
 117 057d 97A2E460 		.ascii	"\227\242\344`\243\030\215k%\207J\333\034*L\361\346C"
 117      A3188D6B 
 117      25874ADB 
 117      1C2A4CF1 
 117      E643
 118 058f A52D0E55 		.ascii	"\245-\016U\315\017\365\331o\352W7\235\347Y\270d\034"
 118      CD0FF5D9 
 118      6FEA5737 
 118      9DE759B8 
 118      641C
 119 05a1 9524972C 		.ascii	"\225$\227,^X\262(j\304\370\177O(p\376e\2072\303\316"
 119      5E58B228 
 119      6AC4F87F 
 119      4F2870FE 
 119      658732C3 
 120 05b6 556A7895 		.ascii	"Ujx\225o\340p\240p\276\035\370m\217^b\364\211\346\346"
 120      6FE070A0 
 120      70BE1DF8 
 120      6D8F5E62 
 120      F489E6E6 
 121 05ca 16F1373E 		.ascii	"\026\3617>86\336\362\3128\237\207\006\007\322\315I\360"
 121      3836DEF2 
 121      CA389F87 
 121      0607D2CD 
 121      49F0
 122 05dc A75E1A1F 		.ascii	"\247^\032\037I7\257\323G\233[=c\007\232\237\321\322"
 122      4937AFD3 
 122      479B5B3D 
 122      63079A9F 
 122      D1D2
 123 05ee AD5A1AC7 		.ascii	"\255Z\032\30766\252\215\035\370\0174(\2757"
 123      3636AA8D 
 123      1DF80F34 
 123      28BD37
 124              		.text
 125              		.section	.gnu.lto_heap1_setup.64bbd8f52d4b5916,"",%progbits
 126 0000 789C6362 		.ascii	"x\234cb`b@\007\222@|\000\210\345\200\230\221\231\201"
 126      60624007 
 126      92407C00 
 126      88E58098 
 126      919981
 127 0013 9169C239 		.ascii	"\221i\3029\006\206F\016&FF\020\203\201\221\241\236\211"
 127      0686460E 
 127      26464610 
 127      838191A1 
 127      9E89
 128 0025 B13E9211 		.ascii	"\261>\222\021\254v=\323\201\007\377\377\257\233pl\376"
 128      AC763DD3 
 128      8107FFFF 
ARM GAS  /var/folders/c6/c789hm653lg9vtl73krp73tm0000gn/T//ccj6qQHm.s 			page 10


 128      AF9B706C 
 128      FE
 129 0036 1EC6194C 		.ascii	"\036\306\031L\314@\021V\206\226\206\206\011\012\014"
 129      CC401156 
 129      86968686 
 129      090A0C
 130 0045 0CC96015 		.ascii	"\014\311`\025!@\022\244-\224\221\011D3\237gh{\320\365"
 130      214012A4 
 130      2D949109 
 130      44339F67 
 130      687BD0F5 
 131 0059 982B9171 		.ascii	"\230+\221q!#+P\272\232\341WCG\203@&#P9\304D\220\010"
 131      21232B50 
 131      BA9AE157 
 131      43478340 
 131      26235039 
 132 0071 47262363 		.ascii	"G&#c.#\003T\021DM\303D\306LF&m\206U\015@0\023\310f\316"
 132      2E230354 
 132      11444DC3 
 132      44C64C46 
 132      266D8655 
 133 008c 65644C82 		.ascii	"edL\202\350\201\251\214\000\012\263\274\340a\310\004"
 133      E881A98C 
 133      000AB3BC 
 133      E061C804 
 134 009c 712E3234 		.ascii	"q.24>\350V\206Y\004\001!@K\200\256\000\371YFOO\037\202"
 134      3EE85686 
 134      59040121 
 134      404B80AE 
 134      00F95946 
 135 00b4 4A528B4B 		.ascii	"JR\213K\364\213J\300tFjb\201^2\003\000\233\337;\030"
 135      F48B4AC0 
 135      74466A62 
 135      815E3203 
 135      009BDF3B 
 136              		.text
 137              		.section	.gnu.lto_.symbol_nodes.64bbd8f52d4b5916,"",%progbits
 138 0000 789C4D90 		.ascii	"x\234M\220\313J\003A\020E\253\272g2QW\356C\262\363\247"
 138      CB4A0341 
 138      1045ABBA 
 138      67325157 
 138      EE43B2F3 
 139 0015 5C990103 		.ascii	"\\\231\001\003\011D\360\007*\320\240\250\020\305\354"
 139      0944F007 
 139      2AD0A0A8 
 139      10C5EC
 140 0024 44DCF4CA 		.ascii	"D\334\364\312\357\350\275\313d\2534\361\375\372\002"
 140      EFE8BDCB 
 140      64AB34F1 
 140      FDFA02
 141 0033 B1EBF6E0 		.ascii	"\261\353\366\3408\213>}\353q\253z\014\031\3326\224?"
 141      388B3E7D 
 141      EB71AB7A 
 141      0C19DA36 
 141      943F
 142 0045 F3C44274 		.ascii	"\363\304BtqG$r}\262W\256\231\012\261\346\221\205\377"
 142      71472472 
ARM GAS  /var/folders/c6/c789hm653lg9vtl73krp73tm0000gn/T//ccj6qQHm.s 			page 11


 142      7DB257AE 
 142      990AB1E6 
 142      9185FF
 143 0058 45BF9949 		.ascii	"E\277\231I\250|aS&<\263M\340\017\026\223kf3\3467\026"
 143      A87C6153 
 143      263CB34D 
 143      E00F1693 
 143      6B6633E6 
 144 006e DBAA4F96 		.ascii	"\333\252O\226\242U\357,e\253^Y:\255\372b\251\376\224"
 144      A255EF2C 
 144      65AB5E59 
 144      3AADFA62 
 144      A9FE94
 145 0081 A54D72F7 		.ascii	"\245Mr\367?\211\025yp\203\002\330!\377\240\354R\274"
 145      3F891579 
 145      708302D8 
 145      21FFA0EC 
 145      52BC
 146 0093 DDD1B03B 		.ascii	"\335\321\260;Z\027\032\216`*?^\346\362\206\356\264\321"
 146      5A171A8E 
 146      602A3F5E 
 146      E6F286EE 
 146      B4D1
 147 00a5 6097DC59 		.ascii	"`\227\334Y\246o\030\300\212\"\230\354\347\271>\316{"
 147      A66F18C0 
 147      8A2298EC 
 147      E7B93ECE 
 147      7B
 148 00b6 0A7F0E44 		.ascii	"\012\177\016DEj\272\004BFTT\344\026=m\014\013T\272\245"
 148      456ABA04 
 148      42465454 
 148      E4163D6D 
 148      0C0B54BA 
 149 00cb C538459A 		.ascii	"\3058E\232\266\262XJ\221v\\!\347\257\362\304\014\277"
 149      B6B2584A 
 149      91765C21 
 149      E7AFF2C4 
 149      0CBF
 150 00dd AB297793 		.ascii	"\253)w\223\267\351\303\270\017\337\001l\007p\035\302"
 150      B7E9C3B8 
 150      0FDF016C 
 150      07701DC2 
 151 00ed 7408CF1A 		.ascii	"t\010\317\032m5\034k\030\356\243\013\247\033!;B6\337"
 151      6D351C6B 
 151      18EEA30B 
 151      A71B213B 
 151      4236DF
 152 0100 C778C118 		.ascii	"\307x\301\030\367\011\342\023<f\252\2210\305\370\003"
 152      F709E213 
 152      3C66AA91 
 152      30C5F803 
 153 0110 BCFDD09A 		.ascii	"\274\375\320\232-\374x\372\005\014\366\200\233"
 153      2DFC78FA 
 153      050CF680 
 153      9B
 154              		.text
 155              		.section	.gnu.lto_.refs.64bbd8f52d4b5916,"",%progbits
ARM GAS  /var/folders/c6/c789hm653lg9vtl73krp73tm0000gn/T//ccj6qQHm.s 			page 12


 156 0000 789C6362 		.ascii	"x\234cb`bpe\200\000I\006&F\222!\023\02033\2620\261\002"
 156      60627065 
 156      80004906 
 156      26469221 
 156      13103333 
 157 0018 21131303 		.ascii	"!\023\023\003\003\000*\354\000\323"
 157      03002AEC 
 157      00D3
 158              		.text
 159              		.section	.gnu.lto_.decls.64bbd8f52d4b5916,"",%progbits
 160 0000 789CBD5A 		.ascii	"x\234\275Z\177p\024\325\035\337\267\227\344r\311\211"
 160      7F7014D5 
 160      1DDFB797 
 160      E472C989 
 161 0010 A8AD0DD4 		.ascii	"\250\255\015\324\221\263j\213Z\222\240Q\303LGb\351\370"
 161      91B36A8B 
 161      5A92A051 
 161      C34C4762 
 161      E9F8
 162 0022 63AA76A6 		.ascii	"c\252v\246\305\031\307\351\314u\271l\222\323\313\335"
 162      C519C7E9 
 162      CC75B96C 
 162      92D3CBDD 
 163 0032 B9B7E147 		.ascii	"\271\267\341G\373\207\313\201!\012\243\021\005\202$"
 163      FB87CB81 
 163      210AA311 
 163      058224
 164 0041 E4C20F05 		.ascii	"\344\302\017\005-H\370\241\002\211Y\021B\004\025\010"
 164      2D48F8A1 
 164      02895911 
 164      42041508 
 165 0051 941F2299 		.ascii	"\224\037\"\231@*\277U\020\265\200\302\365\373\336\333"
 165      402ABF55 
 165      10B580C2 
 165      F5FBDEDB 
 166 0061 BDDBDDEC 		.ascii	"\275\333\335\354\336\355\035\266;yo\337\355\276\367"
 166      DEED1DB6 
 166      3B796FDF 
 166      EDBEF7
 167 0070 F9FEFEBE 		.ascii	"\371\376\376\276\037Y\226a\231\012\3040q\270\012\312"
 167      1F599661 
 167      990AC430 
 167      71B80ACA 
 168 0080 18E6C93C 		.ascii	"\030\346\311<\206q0\014s\037\224\\\245\264AY\001e\032"
 168      8671300C 
 168      731F945C 
 168      A5B44159 
 168      01651A
 169 0093 F49B0E05 		.ascii	"\364\233\016\005\376\230z\250\362\341\276\000\356\255"
 169      FE987AA8 
 169      F2E1BE00 
 169      EEAD
 170 00a1 50164179 		.ascii	"P\026Ay\023\312*(k\241\254\207\322\001%\007\372l\202"
 170      13CA2A28 
 170      6BA1AC87 
 170      D2012507 
 170      FA6C82
ARM GAS  /var/folders/c6/c789hm653lg9vtl73krp73tm0000gn/T//ccj6qQHm.s 			page 13


 171 00b4 FB6628DD 		.ascii	"\373f(\335P>\307\2035\027\036\177\035C\373\015\201\342"
 171      503EC783 
 171      35171E7F 
 171      1D43FB0D 
 171      81E2
 172 00c6 56688E55 		.ascii	"Vh\216Uh.\201\367\307\240l\200r\034Q^V\302\375-('\240"
 172      682E81F7 
 172      C7A06C80 
 172      721C515E 
 172      56C2FD2D 
 173 00dd AC837212 		.ascii	"\254\203r\022\312b(\247\240\264+\370y\012\366z\205\257"
 173      CA6228A7 
 173      A0B42BF8 
 173      790AF67A 
 173      85AF
 174 00ef B50A8FAB 		.ascii	"\265\012\217\253\024\3767\031\370\3002\3401\247\025"
 174      14FE3719 
 174      F8C032E0 
 174      31A715
 175 00fe 1AAAAC98 		.ascii	"\032\252\254\230\227N\215\314\254\322\267Ci\253\262"
 175      974E8DCC 
 175      ACD2B743 
 175      69ABB2
 176 010d 69AF42E6 		.ascii	"i\257B\346\005I\212J\261z\351\241\236!\3272/Kpy\032"
 176      05498A4A 
 176      B17AE9A1 
 176      9E21D732 
 176      2F4B7079 
 177 0122 06A0D713 		.ascii	"\006\240\327\023\210CC\\\214\304\222\226\333\305x\240"
 177      8843435C 
 177      8CC49296 
 177      DBC578A0 
 178 0132 FBADCC12 		.ascii	"\373\255\314\022Ij\354\177\256\365F)\207C\213\320\265"
 178      496AEC7F 
 178      AEF54629 
 178      87438BD0 
 178      B5
 179 0143 007C3362 		.ascii	"\000|3bng\226\303\270FIZ4\234\031|\245\207e\231r\304"
 179      6E6796C3 
 179      B846495A 
 179      349C197C 
 179      A5876599 
 180 0159 70E875C0 		.ascii	"p\350u\300\343\320Rt;\245#\311]\365nL\007?g\2247&\327"
 180      E3D05274 
 180      3BA523C9 
 180      5DF56E4C 
 180      073F6794 
 181 0170 4D4C0C64 		.ascii	"ML\014d\220wu7\017\223b\233\220N\244\353\2319\2306\374"
 181      90777537 
 181      0F93629B 
 181      904EA4EB 
 181      99399836 
 182 0185 9090C8A1 		.ascii	"\220\220\310\241\261\205*\003\036\225~\016\301\340\320"
 182      B1852A03 
 182      1E957E0E 
 182      C1E0D0
 183 0194 5BE87AD2 		.ascii	"[\350z\322r\020]1.\246!\211\302\230\216R\2241\277~\357"
ARM GAS  /var/folders/c6/c789hm653lg9vtl73krp73tm0000gn/T//ccj6qQHm.s 			page 14


 183      72105D31 
 183      2EA62189 
 183      C2988E52 
 183      9431BF7E 
 184 01a9 3914057C 		.ascii	"9\024\005|\016\255@.\030\335\212\220\216Y\016\345\272"
 184      0EAD402E 
 184      18DD8A90 
 184      8E590EE5 
 184      BA
 185 01ba B4FC92DF 		.ascii	"\264\374\222\337j\007\214G^+\015\354\334W\343>\217;"
 185      6A078C47 
 185      5E2B0DEC 
 185      DC57E33E 
 185      8F3B
 186 01cc 12035210 		.ascii	"\022\003R\020o\231\371\356m\222\224\317\2417An\226\331"
 186      6F99F9EE 
 186      6D9294CF 
 186      A137416E 
 186      96D9
 187 01de 6620ADD3 		.ascii	"f \255\323\005\225\321J\376\325\000`\256\342A\357Xf"
 187      0595D14A 
 187      FED50060 
 187      AEE241EF 
 187      5866
 188 01f0 1F52ED65 		.ascii	"\037R\355e\006\2474u\314km%\365o9\331\343xM\222\233"
 188      06A73475 
 188      CC6B6D25 
 188      F56F39D9 
 188      E3784D92 
 189 0205 4AAF6366 		.ascii	"J\257cfc\373\310yZ\347\250P\021\362\011\261#\204\330"
 189      63FBC879 
 189      5AE7A850 
 189      11F209B1 
 189      2384D8
 190 0218 3A749DDE 		.ascii	":t\235\3369^\351vx\350\343\364\2761\247\376\245\341"
 190      395EE976 
 190      78E8E3F4 
 190      BE31A7FE 
 190      A5E1
 191 022a 526C5691 		.ascii	"RlV\221bU\271^j@S\333o0\247\250\250\266s\307Wm\212]"
 191      6255B95E 
 191      6A4053DB 
 191      6F30A7A8 
 191      A8B673C7 
 192 0242 D713BBBE 		.ascii	"\327\023\273\276\312\352\225\233\011X|\366\216\017\024"
 192      CAEA959B 
 192      09587CF6 
 192      8E0F14
 193 0251 B00E0276 		.ascii	"\260\016\002v:{\260\330\301}7\340\260\350\"@\275\016"
 193      3A7BB0D8 
 193      C17D37E0 
 193      B0E82240 
 193      BD0E
 194 0263 A3B7B90C 		.ascii	"\243\267\271\014\336\346\322{\233\313\225l\304\325K"
 194      DEE6D27B 
 194      9BCB956C 
 194      C4D54B
ARM GAS  /var/folders/c6/c789hm653lg9vtl73krp73tm0000gn/T//ccj6qQHm.s 			page 15


 195 0272 9F16FEA7 		.ascii	"\237\026\376\247cX\346\220C5\250\231\220\351\275g\351"
 195      6358E690 
 195      4335A899 
 195      90E9BD67 
 195      E9
 196 0283 D1650847 		.ascii	"\321e\010G\272\222Xb\025\232\010\325Aa\2566\033\223"
 196      BA925862 
 196      159A08D5 
 196      4161AE36 
 196      1B93
 197 0295 CABC6EE4 		.ascii	"\312\274n\344\241\217\323\371\215$\267voG\322l\267\342"
 197      A18FD3F9 
 197      8D24B776 
 197      6F47D26C 
 197      B7E2
 198 02a7 A5B13CAB 		.ascii	"\245\261<\253T\200\221\266\032\035t~7\353\241\217\323"
 198      548091B6 
 198      1A1D747E 
 198      37EBA18F 
 198      D3
 199 02b8 3BE882FA 		.ascii	";\350\202\372\226\301\311K\247\243A\364\266Ag\345b\231"
 199      96C1C94B 
 199      A7A341F4 
 199      B64167E5 
 199      6299
 200 02ca 01A2D2AD 		.ascii	"\001\242\322\255\026\335\323\2514*7w\273\0339\016\265"
 200      16DDD3A9 
 200      342A3777 
 200      BB1B390E 
 200      B5
 201 02db 912C723C 		.ascii	"\221,r<[\260\304\3052_\022\214\315Yf\210\250\334\256"
 201      5BB0C4C5 
 201      325F128C 
 201      CD596688 
 201      A8DCAE
 202 02ee 647335A9 		.ascii	"ds5\251~\2351\236g\020O\337f\353w\032\214\357\035\206"
 202      7E9D319E 
 202      67104FDF 
 202      66EB771A 
 202      8CEF1D86 
 203 0302 CC678691 		.ascii	"\314g\206\221o%\227$\357\177\240\221S'D\2157IH\035;"
 203      6F259724 
 203      EF7FA091 
 203      5327448D 
 203      3749481D 
 204 0317 9449248D 		.ascii	"\224I$\215\213\255\367\3408\337C\246\331\226\034}\234"
 204      8BADF7E0 
 204      38DF43A6 
 204      D9961C7D 
 204      9C
 205 0328 A7056199 		.ascii	"\247\005a\231\245d\310>c\000\234\343<\364iz\377\377"
 205      A564C83E 
 205      63009CE3 
 205      3CF4697A 
 205      FFFF
 206 033a EE0B17B8 		.ascii	"\356\013\027\270\277\011)\323\2049 \017\377H\222\206"
 206      BF0929D3 
ARM GAS  /var/folders/c6/c789hm653lg9vtl73krp73tm0000gn/T//ccj6qQHm.s 			page 16


 206      8439200F 
 206      FF489286 
 207 034a 72E820E1 		.ascii	"r\350 \341x\2679\307\326\341\012nL\206\364\0318\356"
 207      78B739C7 
 207      D6E10A6E 
 207      4C86F419 
 207      38EE
 208 035c 3F70EC7C 		.ascii	"?p\354|q\023A\356\263\265\0248;\323$\232L\244\210\345"
 208      711341EE 
 208      B3B51438 
 208      3BD3249A 
 208      4CA488E5 
 209 0370 A8E4FF90 		.ascii	"\250\344\377\220\024\243c\340\274\223L\251\003D\212"
 209      14A363E0 
 209      BC934CA9 
 209      03448A
 210 037f 39B969F5 		.ascii	"9\271i\365\256\207a\231\205d\310\321\301R\354,\247R"
 210      AE876199 
 210      8564C8D1 
 210      C152EC2C 
 210      A752
 211 0391 1CB525C5 		.ascii	"\034\265%\305\274\027[\224\0208B\302rY\0026\273\220"
 211      BC175B94 
 211      103842C2 
 211      72590236 
 211      BB90
 212 03a3 7AED5312 		.ascii	"z\355S\022\343\024\354\355\214\301<:\260\326Oi|\332"
 212      E314ECED 
 212      8CC13C3A 
 212      B0D64F69 
 212      7CDA
 213 03b5 5F271D3A 		.ascii	"_'\035:\325?\254\223\210\377\025\211\350S\271\2463\240"
 213      D53FAC93 
 213      88FF1589 
 213      E853B9A6 
 213      33A0
 214 03c7 0DA4F8EC 		.ascii	"\015\244\370\354-\352dz\226@\235\313\032\352\340\274"
 214      2DEA647A 
 214      96409DCB 
 214      1AEAE0BC 
 215 03d7 8E31C4D8 		.ascii	"\2161\304\330\337\022\240\037s\215\223\251\3230\231"
 215      DF12A01F 
 215      738D93A9 
 215      D33099
 216 03e6 3AF5939C 		.ascii	":\365\223\234\323\225l(K\267\377mw\226\231\221g\303"
 216      D3956C28 
 216      4BB7FF6D 
 216      77969991 
 216      67C3
 217 03f8 72D619A8 		.ascii	"r\326\031\250\177\3771y\314|I\236\356P\343\321rVc\231"
 217      7FFF3179 
 217      CC7C499E 
 217      EE50E3D1 
 217      72566399 
 218 040c 1709AD0B 		.ascii	"\027\011\255\013FO\356\334\361q\024M%\006\270`\313\225"
 218      464FEEDC 
 218      F171144D 
ARM GAS  /var/folders/c6/c789hm653lg9vtl73krp73tm0000gn/T//ccj6qQHm.s 			page 17


 218      2506B860 
 218      CB95
 219 041e D76D9B67 		.ascii	"\327m\233g/ \023\333\202[\010\375\271\204\376e#\375"
 219      2F2013DB 
 219      825B08FD 
 219      B984FE65 
 219      23FD
 220 0430 39E7FAEF 		.ascii	"9\347\372\357\243\221t\331\026\371\326\336W\315f\327"
 220      A39174D9 
 220      16F9D6DE 
 220      57CD66D7 
 221 0440 FB7E9ECA 		.ascii	"\373~\236\3125:w\034=\253\010\031eq\310|\234gt\216\261"
 221      353A771C 
 221      3DAB0819 
 221      6571C87C 
 221      9C67748E 
 222 0455 855A62E4 		.ascii	"\205Zb\344\267n\231\374\257\004\373YE,\310)?\274|\265"
 222      B76E99FC 
 222      AF04FB59 
 222      452CC829 
 222      3FBC7CB5 
 223 0469 243D9FA7 		.ascii	"$=\237\247\362\260?cD\217N\023\253{I\016\240`\007\355"
 223      F2B03F63 
 223      448F4E13 
 223      AB7B490E 
 223      A06007ED 
 224 047d 80597A52 		.ascii	"\200YzRT^\253\005\353\313\030L\317\331;Z\260\303v\300"
 224      545EAB05 
 224      EBCB184C 
 224      CFD93B5A 
 224      B0C376C0 
 225 0491 865A73F6 		.ascii	"\206Zs\366\236\026\354\337\031\203\3519\333\240\005"
 225      9E16ECDF 
 225      1983E939 
 225      DBA005
 226 04a0 3B6607AC 		.ascii	";f\007\254\310\232\263\016-\330\251\214\301\364\234"
 226      C89AB30E 
 226      2DD8A98C 
 226      C1F49C
 227 04af BDAF05FB 		.ascii	"\275\257\005\373\332\016\230\307\204\263\304e\265\322"
 227      DA0E98C7 
 227      84B3C465 
 227      B5D2
 228 04bd BCA45D69 		.ascii	"\274\244]i~\223H\011\331/\016\277\3178\205\351\344\306"
 228      7E934809 
 228      D92F0EBF 
 228      CF3885E9 
 228      E4C6
 229 04cf 33E9980D 		.ascii	"3\351\230\015J\\\320\351\354G;\210)\034\346\035\355"
 229      4A5CD0E9 
 229      EC473B88 
 229      291CE61D 
 229      ED
 230 04e0 DC38DD99 		.ascii	"\3348\335\231)\230\336,{0\230.\327(\023R\377R\271\250"
 230      2998DE2C 
 230      7B30982E 
 230      D7281352 
ARM GAS  /var/folders/c6/c789hm653lg9vtl73krp73tm0000gn/T//ccj6qQHm.s 			page 18


 230      FF52B9A8 
 231 04f4 2999EDF2 		.ascii	")\231\355\362U,\274\223\242\251\255Q\222\330Dg\251\250"
 231      552CBC93 
 231      A2A9AD51 
 231      92D84467 
 231      A9A8
 232 0506 C8BC2F87 		.ascii	"\310\274/\207Z\331[\241\216\261\256\004\027\264\255"
 232      5AD95BA1 
 232      8EB1AE04 
 232      17B4AD
 233 0515 B6E8466B 		.ascii	"\266\350Fk\226\323p\334\243^\351\206ZyB\013\253\361"
 233      96D370DC 
 233      A35EE986 
 233      5A79420B 
 233      ABF1
 234 0527 8497EDA8 		.ascii	"\204\227\355\250)E(\374\360i\363/\244~\031i\344M\251"
 234      294528FC 
 234      F069F32F 
 234      A47E1969 
 234      E44DA9
 235 053a 1CBC84E8 		.ascii	"\034\274\204\350Q\226\020KX<]79M\347}\033H\361\331+"
 235      5196104B 
 235      583C5D37 
 235      394DE77D 
 235      1B48F1D9 
 236 054f EE20F3FE 		.ascii	"\356 \363\376\033\004\250-k\240\203\363\026\226\323"
 236      1B04A82D 
 236      6BA083F3 
 236      1696D3
 237 055e 031802B4 		.ascii	"\003\030\002\264\334i\234#\220a\001\201\364S<r%\033"
 237      DC699C23 
 237      90610181 
 237      F4533C72 
 237      251B
 238 0570 8376D43F 		.ascii	"\203v\324?a_\226Yc4\227N\234\264\311\006\202\256\347"
 238      615F9659 
 238      6334974E 
 238      9CB4C906 
 238      82AEE7
 239 0583 77EB574A 		.ascii	"w\353WJ\322\264\274L\014&+\006{\233\250g\343 \365\274"
 239      D2B4BC4C 
 239      0C262B06 
 239      7B9BA867 
 239      E320F5BC 
 240 0597 C166A61F 		.ascii	"\301f\246\037\226\3710c9F\032\3448\223\205\034;\025"
 240      96F93063 
 240      39461AE4 
 240      3893851C 
 240      3B15
 241 05a9 39D61239 		.ascii	"9\326\0229\266\377\004r\354\316X\216R\215\034x;\321"
 241      B6FF0472 
 241      ECCE588E 
 241      528D1C78 
 241      3BD1
 242 05bb F3D87A92 		.ascii	"\363\330z\222\004m\035O\254g\015\307\023\337\355\300"
 242      046D1D4F 
 242      AC670DC7 
ARM GAS  /var/folders/c6/c789hm653lg9vtl73krp73tm0000gn/T//ccj6qQHm.s 			page 19


 242      13DFEDC0 
 243 05cb E720F871 		.ascii	"\347 \370q\372}\340+\275\232\325\276do\265\177\\\321"
 243      FA7DE02B 
 243      BD9AD5BE 
 243      646FB57F 
 243      5CD1
 244 05dd 5807D1D8 		.ascii	"X\007\321\330gf\021f\013)\336\273\271]Y\355w\021\250"
 244      67661166 
 244      0B29DEBB 
 244      B95D59ED 
 244      7711A8
 245 05f0 FEACA10E 		.ascii	"\376\254\241\016\356{\227\006\353&\002t|\220\025\363"
 245      EE7B9706 
 245      EB260274 
 245      7C9015F3 
 246 0600 0C46CCD3 		.ascii	"\014F\314\323\033\021~bJ\347\311I\326\263\312\023\374"
 246      1B117E62 
 246      4AE7C949 
 246      D6B3CA13 
 246      FC
 247 0611 C3C9FCDF 		.ascii	"\303\311\374\337\307\301LL\330\307\006\314fu\211\035"
 247      C7C14C4C 
 247      D8C706CC 
 247      6675891D 
 248 0621 487E78BD 		.ascii	"H~x\2752\213R#]\270\"\304\250\3345[\335\261\216\305"
 248      328B5223 
 248      5DB822C4 
 248      A8DC355B 
 248      DDB18EC5 
 249 0635 F36834FF 		.ascii	"\363h4\377\312\340>\3575\316\243\206\005\374\200\305"
 249      CAE03EEF 
 249      35CEA386 
 249      05FC80C5 
 250 0645 DC933890 		.ascii	"\334\2238\220\350/\372'\361\301\217\311\012\351\371"
 250      E82FFA27 
 250      F1C18FC9 
 250      0AE9F9
 251 0654 7CA3BD8F 		.ascii	"|\243\275\217 \303\012\376\210\376\244\333*\230\266"
 251      20C30AFE 
 251      88FEA4DB 
 251      2A98B6
 252 0663 6BE7C1E6 		.ascii	"k\347\301\346+\023\023'\244?\322\325L\272\355\321\337"
 252      2B131327 
 252      A43FD2D5 
 252      4CBAEDD1 
 252      DF
 253 0674 54343721 		.ascii	"T47!\274\210\020\356e\015\273\243\256\305\207\353\225"
 253      BC8810EE 
 253      650DBBA3 
 253      AEC587EB 
 253      95
 254 0685 80C1EFD2 		.ascii	"\200\301\357\322G\367Ar\312\243\036\333\354H\240*T+"
 254      47F74172 
 254      CAA31EDB 
 254      EC48A02A 
 254      542B
 255 0697 B42BB2B4 		.ascii	"\264+\262\264n%\367\361=\245\231\344\211\236\3414O\354"
ARM GAS  /var/folders/c6/c789hm653lg9vtl73krp73tm0000gn/T//ccj6qQHm.s 			page 20


 255      6E25F7F1 
 255      3DA599E4 
 255      899EE134 
 255      4FEC
 256 06a9 272EB86F 		.ascii	"'.\270o\220\215\272\214\2315\243 9d\224\306\356\036"
 256      908DBA8C 
 256      9935A320 
 256      396494C6 
 256      EE1E
 257 06bb 277159F9 		.ascii	"'qY\371\300.\255\017\014\\\261\017\234\177\304\304\007"
 257      C02EAD0F 
 257      0C5CB10F 
 257      9C7FC4C4 
 257      07
 258 06cc E8399D15 		.ascii	"\3509\235\025\007}Z\016N^a\260u\355\316\374@\347\274"
 258      077D5A0E 
 258      4E5E61B0 
 258      75EDCEFC 
 258      40E7BC
 259 06df 92E20F13 		.ascii	"\222\342\017\023\323\235\035d\272\263\306\305\217\235"
 259      D39D1D64 
 259      BAB3C6C5 
 259      8F9D
 260 06ed F38D4BD9 		.ascii	"\363\215K\331\012\222\270`\005\357\262\2614\365X\372"
 260      0A92B860 
 260      05EFB2B1 
 260      34F558FA 
 261 06fd 300E4965 		.ascii	"0\016IenM{H\222\3105=\303z\2102\216\2618\212\032\\\346"
 261      6E4D7B48 
 261      92C8353D 
 261      C37A8832 
 261      8EB1388A 
 262 0714 879F290E 		.ascii	"\207\237)\016[\346\221!'\215\341\014iZ9\374<i#\232\243"
 262      5BE69121 
 262      278DE10C 
 262      695A39FC 
 262      3C69239A 
 263 0729 F2EE99DA 		.ascii	"\362\356\231\332cC\030\205X\0056[}\352L\230\344\217"
 263      63431885 
 263      5805365B 
 263      7DEA4C98 
 263      E48F
 264 073b 43A7C92E 		.ascii	"C\247\311.\344K\366&\255\356\337\310X\367\036\255\356"
 264      E44BF626 
 264      ADEEDFC8 
 264      58F71EAD 
 264      EE
 265 074c E50BBB9B 		.ascii	"\345\013\273\233\021\345\237\346\243v#\236Y>\032iiK"
 265      11E59FE6 
 265      A376239E 
 265      593E1A69 
 265      694B
 266 075e B9712FD9 		.ascii	"\271q/\331\332\321\031\256\303\016s\245V`Q\271\231\202"
 266      DAD119AE 
 266      C30E73A5 
 266      566051B9 
 266      9982
ARM GAS  /var/folders/c6/c789hm653lg9vtl73krp73tm0000gn/T//ccj6qQHm.s 			page 21


 267 0770 5187DF94 		.ascii	"Q\207\337\2241\230G\007\266q\256j\251>2?}b\007\257\334"
 267      31984707 
 267      B671AE6A 
 267      A93E323F 
 267      7D6207AF 
 268 0785 9AB9DD7B 		.ascii	"\232\271\335{\325\377\231\320\023\326}\031\343\351\371"
 268      D5FF99D0 
 268      13D67D19 
 268      E3E9F9
 269 0794 3B3B5737 		.ascii	";;W7\235\037\261\003Wa\333\221\222\347\343\034:\216"
 269      9D1FB103 
 269      5761DB91 
 269      92E7E31C 
 269      3A8E
 270 07a6 B0239D40 		.ascii	"\260#\235@7A}\212\324_\222\372<\251\233X\\\277F\352"
 270      37417D8A 
 270      D45F92FA 
 270      3CA99B58 
 270      5CBF46EA 
 271 07ba 66522F26 		.ascii	"fR/&\365JR\257!\365{\244>J\352\257I}\226\324\347H"
 271      F54A52AF 
 271      21F57BA4 
 271      3E4AEAAF 
 271      497D96D4 
 272 07d0 FD1DA9FF 		.ascii	"\375\035\251\377C\352\013Zw\265J\255\206u\200\032E}"
 272      43EA0B5A 
 272      77B54AAD 
 272      8675801A 
 272      457D
 273 07e2 591FBE7F 		.ascii	"Y\037\276\177\263=q\300\000q\2231\230'\225&\3734\232"
 273      B33D71C0 
 273      00719331 
 273      98279526 
 273      FB349A
 274 07f5 EC279A3C 		.ascii	"\354'\232<L\364\366\203>0O\272\324\177\007e3\261G\373"
 274      4CF4F683 
 274      3E304FBA 
 274      D47F0765 
 274      33B147FB 
 275 0809 2FB6BEAF 		.ascii	"/\266\276\257\373\177\3047F<\273S\253\242\222\037a\241"
 275      FB7FC437 
 275      463CBB53 
 275      ABA2921F 
 275      61A1
 276 081b 6098EDF6 		.ascii	"`\230\355\366\244\230\355$\207f\266\273\2301\355\224"
 276      A498ED24 
 276      8766B6BB 
 276      9831ED94 
 277 082b 1ADCA7D1 		.ascii	"\032\334\247\321\340\001\242\301\317\210\006/\021\217"
 277      E001A2C1 
 277      CF88062F 
 277      118F
 278 0839 89EBF538 		.ascii	"\211\353\3658\265\300\360/@\375\377\3354M{\201\360\272"
 278      B5C0F02F 
 278      40FDFFDD 
 278      344D7B81 
 278      F0BA
ARM GAS  /var/folders/c6/c789hm653lg9vtl73krp73tm0000gn/T//ccj6qQHm.s 			page 22


 279 084b 86F83242 		.ascii	"\206\3702B|9!\276\226\324\273\221\015wmK\256cu\032\275"
 279      7C3921BE 
 279      96D4BB91 
 279      0D776D4B 
 279      AE63751A 
 280 0860 8669246B 		.ascii	"\206i$k\310\246!t\207\252\214\227\253T\200\343n\005"
 280      C8A62174 
 280      87AA8C97 
 280      AB5480E3 
 280      6E05
 281 0872 61BAE31A 		.ascii	"a\272\343\032\322\322\255\334H\027+\232\3179\222'Hn"
 281      D2D2ADDC 
 281      48172B9A 
 281      CF399227 
 281      486E
 282 0884 57B271CC 		.ascii	"W\262q\314\235\206\331iIC*\323m\353\352\003\303\026"
 282      9D86D969 
 282      49432AD3 
 282      6DEBEA03 
 282      C316
 283 0896 44F1969C 		.ascii	"D\361\226\2342\30221\320\261\262\255\325}7d\340\034"
 283      32C23231 
 283      D0B1B2AD 
 283      D57D3764 
 283      E01C
 284 08a8 661B628C 		.ascii	"f\033b\214\006\207as;\217|\034\202\037\247_\376\256"
 284      06876173 
 284      3B8F7C1C 
 284      821FA75F 
 284      FEAE
 285 08ba EB2E908E 		.ascii	"\353.\220\216\310\310\3543%\023E\315r\030\376\235:\237"
 285      C8C8EC33 
 285      251345CD 
 285      7218FE9D 
 285      3A9F
 286 08cc 7C4F801F 		.ascii	"|O\200\037\247'\265\200\222R\315\002\244\350\307%*\271"
 286      A727B580 
 286      9252CD02 
 286      A4E8C725 
 286      2AB9
 287 08de 9FA9E47A 		.ascii	"\237\251\344zX\205\334K\031\333\245\321\302.\312)\010"
 287      5885DC4B 
 287      19DBA5D1 
 287      C22ECA29 
 287      08
 288 08ef E86C2DD1 		.ascii	"\350l-\321\031\346\330\234n\3725~\363\003\215\365n\312"
 288      19E6D89C 
 288      6EFA357E 
 288      F3038DF5 
 288      6ECA
 289 0901 1CCBBC6B 		.ascii	"\034\313\274k\017N\021\311\024o\241\026o\203=\274\306"
 289      0F4E11C9 
 289      146FA116 
 289      6F833DBC 
 289      C6
 290 0912 5C6BBC55 		.ascii	"\\k\274UZ\274N{x\373\235\326x\253\265x\262=\274X\201"
 290      5ABC4E7B 
ARM GAS  /var/folders/c6/c789hm653lg9vtl73krp73tm0000gn/T//ccj6qQHm.s 			page 23


 290      78FB9DD6 
 290      78ABB578 
 290      B23DBC58 
 291 0927 095EE262 		.ascii	"\011^\342b\231\017\023\236k\356l)\254\300\241z\307\340"
 291      990F139E 
 291      6BEE6C29 
 291      ACC0A17A 
 291      C7E0
 292 0939 AC607FFC 		.ascii	"\254`\177\374\010f\241$\237\351oy\347DQ\013^\345J\227"
 292      0866A124 
 292      9FE96F79 
 292      E744510B 
 292      5EE54A97 
 293 094d E3CF22C3 		.ascii	"\343\317\"\303\247r\026\377\034\303\304\233\035\327"
 293      A77216FF 
 293      1CC3C49B 
 293      1DD7
 294 095b 2B2DF523 		.ascii	"+-\365#5\330\000\025 \203\367\377\232Y\212\361\244e"
 294      35D80015 
 294      2083F7FF 
 294      9A598AF1 
 294      A465
 295 096d 9283A0E1 		.ascii	"\222\203\240\341\376\013\034#\264J\340P\213\203\325"
 295      FE0B1C23 
 295      B44AE050 
 295      8B83D5
 296 097c 3EA08CC9 		.ascii	">\240\214\311\215\335\356\306\251\375\361\370\010J\013"
 296      8DDDEEC6 
 296      A9FDF1F8 
 296      084A0B
 297 098b B616B6D0 		.ascii	"\266\026\266\320[\215\350\261\301\350\375\215\220mv"
 297      5B8DE8B1 
 297      C1E8FD8D 
 297      906D76
 298 099a FDB269B5 		.ascii	"\375\262i\2654\335D\354|f\0069\021|N\232\212\236Ih\315"
 298      34DD44EC 
 298      7C660639 
 298      117C4E9A 
 298      8A9E4968 
 299 09af E29C9E43 		.ascii	"\342\234\236CK\034\371x\303R`y\312\216;\250\352\247"
 299      4B1CF978 
 299      C3526079 
 299      CA8E3BA8 
 299      EAA7
 300 09c1 6DB595E2 		.ascii	"m\265\225\342\220}\261C\367%\"\371,0\321V\020u\337\007"
 300      907DB143 
 300      F72522F9 
 300      2C30D156 
 300      1075DF07 
 301 09d5 B2CCB442 		.ascii	"\262\314\264B\243~h\247\345\246\012X\372\375N4_\332"
 301      A37E68A7 
 301      E5A60A58 
 301      FAFD4E34 
 301      5FDA
 302 09e7 345D8AC7 		.ascii	"4]\212\307\237e\014f_\201\2543\313[F\306\360\264\243"
 302      9F650C66 
 302      5F81AC33 
ARM GAS  /var/folders/c6/c789hm653lg9vtl73krp73tm0000gn/T//ccj6qQHm.s 			page 24


 302      CB5B46C6 
 302      F0B4A3
 303 09fa FC304CE4 		.ascii	"\3740L\344\251`V:\012uL\352$i\264\220\344m3I\344\366"
 303      A960563A 
 303      0A754CEA 
 303      2469B490 
 303      E46D3349 
 304 0a10 19B38649 		.ascii	"\031\263\206ImQ9\036\037k\024$\205\377\266\033\345 "
 304      6D51391E 
 304      1F6B1424 
 304      85FFB61B 
 304      E520
 305 0a22 FFB7D5B1 		.ascii	"\377\267\325\261\321b\301\306\032S6Z\267Z\262\221\342"
 305      D162C1C6 
 305      1A53365A 
 305      B75AB291 
 305      E2
 306 0a33 8BD37529 		.ascii	"\213\323u)\324I58X=\313,\370z\317\324\320-3\217\266"
 306      D4493538 
 306      583DCB2C 
 306      F87ACFD4 
 306      D02D338F 
 307 0a48 A197A7C5 		.ascii	"\241\227\247\305z\2443xs\235\201\2517\230\204\370Z\013"
 307      7AA43378 
 307      739D81A9 
 307      379884F8 
 307      5A0B
 308 0a5a DA1B4D69 		.ascii	"\332\033Mio9'[:Y\012\333t\246T\012\375\207{\032\035"
 308      6F39275B 
 308      3A590ADB 
 308      74A6540A 
 308      FD877B1A 
 309 0a6f 6DB1E0F3 		.ascii	"m\261\340\363\003=\237\277b\332$y'$\301\003G\021,4\032"
 309      033D9FBF 
 309      62DA2479 
 309      2724C103 
 309      47112C34 
 310 0a84 A6E13324 		.ascii	"\246\3413$\024w\250\3375\357M\300\250\313<\3357\313"
 310      1477A8DF 
 310      35EF4DC0 
 310      A8CB3CDD 
 310      37CB
 311 0a96 18F1C324 		.ascii	"\030\361\303$\"F#\271\345\203Q\033\243\322\364v\220"
 311      224623B9 
 311      E583511B 
 311      A3D2F476 
 311      90
 312 0aa7 16C0C6D2 		.ascii	"\026\300\306\322\004\3172\375F0\223\225\305\026=\332"
 312      04CF32FD 
 312      46309395 
 312      C5163DDA 
 313 0ab7 2A1978DB 		.ascii	"*\031x\333u\307'Q\234\240)k\312\272\001\177A\225\210"
 313      75C72751 
 313      9CA0296B 
 313      CABA017F 
 313      419588
 314 0aca 37397954 		.ascii	"79yT\010S\025J\3619\330\027\300C\332\257\3068\264\315"
ARM GAS  /var/folders/c6/c789hm653lg9vtl73krp73tm0000gn/T//ccj6qQHm.s 			page 25


 314      0853154A 
 314      F139D817 
 314      C043DAAF 
 314      C638B4CD 
 315 0ade 813727DB 		.ascii	"\2017'\333\015\313\034\274F\233\241|\016\261\335\306"
 315      0DCB1CBC 
 315      469BA17C 
 315      0EB1DDC6 
 316 0aee 5A272A5F 		.ascii	"Z'*_\270\324\203\310\261b\013\331\334~E4\260\335\221"
 316      B8D483C8 
 316      B1620BD9 
 316      DC7E4534 
 316      B0DD91
 317 0b01 ED06EA87 		.ascii	"\355\006\352\207\023\004\316\220g\360\364`\345J;\265"
 317      1304CE90 
 317      67F0F460 
 317      E54A3BB5 
 318 0b11 1B867319 		.ascii	"\033\206s\031\223\367\350\310\343\315\012\205d\231\013"
 318      93F7E8C8 
 318      E3CD0A85 
 318      64990B
 319 0b20 76B0526C 		.ascii	"v\260Rl|.k\260\242\356L\261<\006u\253v\340\320'\016"
 319      7C2E6BB0 
 319      A2EE4CB1 
 319      3C0675AB 
 319      76E0D027 
 320 0b35 BC61D841 		.ascii	"\274a\330A\352^R\3571Y&\030\364dP\350G\026\234`\374"
 320      EA5E52EF 
 320      31592618 
 320      F46450E8 
 320      47169C60 
 321 0b4a BDBAC4AD 		.ascii	"\275\272\304\255\201\254\3203\252qS:\310\274\033l\273"
 321      81ACD033 
 321      AA71533A 
 321      C8BC1B6C 
 321      BB
 322 0b5b 325EDCEE 		.ascii	"2^\334\356\267X\334jg\340d/\320\357\013nC\340\015b\342"
 322      B758DC6A 
 322      67E0642F 
 322      D0EF0B6E 
 322      43E00D62 
 323 0b70 80127665 		.ascii	"\200\022ve\314\032\251A\206\245\374V\340*a\267\1770"
 323      CC1AA941 
 323      86A5FC56 
 323      E02A61B7 
 323      7F30
 324 0b82 17A52609 		.ascii	"\027\245&\011\"\361\360\035\016*\014\216\3153;\345\316"
 324      22F1F01D 
 324      0E2A0C8E 
 324      CD333BE5 
 324      CE
 325 0b93 175A9014 		.ascii	"\027Z\220\024\203\340\274\034\217#\2527\226\231k\244"
 325      83E0BC1C 
 325      8F23AA37 
 325      96996BA4 
 326 0ba3 A60F2E4C 		.ascii	"\246\017.L\356\020\220\273\221\211\271[\244|\015\331"
 326      EE1090BB 
ARM GAS  /var/folders/c6/c789hm653lg9vtl73krp73tm0000gn/T//ccj6qQHm.s 			page 26


 326      9189B95B 
 326      A47C0DD9 
 327 0bb3 0A8A406D 		.ascii	"\012\212@mHi\312]\333\220\345f.\246\331\314%\322\322"
 327      4869CA5D 
 327      DB90E566 
 327      2EA6D9CC 
 327      25D2D2
 328 0bc6 4885C491 		.ascii	"H\205\304\221\214\325:`\241\326\337\244t\035\016\035"
 328      8CD53A60 
 328      A1D6DFA4 
 328      741D0E1D 
 329 0bd6 4E7AC48D 		.ascii	"Nz\304\215\314j\220\251\251\"I\236\272\"\026\246\001"
 329      CC6A90A9 
 329      A922499E 
 329      BA2216A6 
 329      01
 330 0be7 126D01F5 		.ascii	"\022m\001\365\370\304*\215\272(\306\243qJ\235U\351\275"
 330      F8C42A8D 
 330      BA28C6A3 
 330      714A9D55 
 330      E9BD
 331 0bf9 27D15BBB 		.ascii	"'\321[\273bT\270\240*U\235\321\340\277\033R$\204c\016"
 331      6254B8A0 
 331      2A559DD1 
 331      E0BF1B52 
 331      2484630E 
 332 0c0d F35D325D 		.ascii	"\363]2]\331X\215:n9j]\212Q',G-N1\352\244\345\250\366"
 332      D9588D3A 
 332      6E396A5D 
 332      8A51272C 
 332      472D4E31 
 333 0c26 14A34E39 		.ascii	"\024\243N9t\207U\206\221\235)F\236\326D\264\247\270"
 333      74875586 
 333      919D2946 
 333      9ED644B4 
 333      A7B8
 334 0c38 B884FE85 		.ascii	"\270\204\376\205\"%\202X\342\017\372\002u\225|\211\257"
 334      22258258 
 334      E20FFA02 
 334      75957C89 
 334      AF
 335 0c49 A686E7C2 		.ascii	"\246\206\347\302\3055\314U\265|mH\230\342\305?\275b"
 335      C535CC55 
 335      B57C6D48 
 335      98E2C53F 
 335      BD62
 336 0c5b DE838F3D 		.ascii	"\336\203\217=\356\031\307\024j\036>YR\027\021J\002!"
 336      EE19C714 
 336      6A1E3E59 
 336      5217114A 
 336      0221
 337 0c6d 1F172819 		.ascii	"\037\027(\031\307\007\002\234PR\355\363\215\342\204"
 337      C707029C 
 337      5052EDF3 
 337      8DE284
 338 0c7c DA51C150 		.ascii	"\332Q\301P\220\037\305s\023\374%w\226\216.+-/\275\273"
 338      901FC573 
ARM GAS  /var/folders/c6/c789hm653lg9vtl73krp73tm0000gn/T//ccj6qQHm.s 			page 27


 338      13FC2577 
 338      968E2E2B 
 338      2D2FBDBB 
 339 0c90 24E09F80 		.ascii	"$\340\237\200_\227\350_\227\025\227\027\227%hG\304\312"
 339      5F97E85F 
 339      97159717 
 339      97256847 
 339      C4CA
 340 0ca2 4ABE0A68 		.ascii	"J\276\012h\347E\374\177\347\275\342\315\226<\002\033"
 340      E745FC7F 
 340      E7BDE2CD 
 340      963C021B 
 341 0cb2 BE90C043 		.ascii	"\276\220\300CW74\253y\261\252.\350\363\212\0055\336"
 341      573734AB 
 341      79B1AA2E 
 341      E8F38A05 
 341      35DE
 342 0cc4 B0109AE8 		.ascii	"\260\020\232\350\257\344\205B\3027T\320\276\325\200"
 342      AFE48542 
 342      C23754D0 
 342      BED580
 343 0cd3 130E0962 		.ascii	"\023\016\011b\244\344\376??:\356\321\311\000\246 \025"
 343      A4E4FE3F 
 343      3F3AEED1 
 343      C900A620 
 343      15
 344 0ce4 44C4A7B9 		.ascii	"D\304\247\271\200\277:\350\025\037\311H4\375c\2150\376"
 344      80BF3AE8 
 344      151FC948 
 344      34FD638D 
 344      30FE
 345 0cf6 A008B8F9 		.ascii	"\240\010\270\371up\277\247\314+\376\365'@\255\345|5"
 345      7570BFA7 
 345      CC2BFEF5 
 345      2740ADE5 
 345      7C35
 346 0d08 FE205FE2 		.ascii	"\376 _\342\005Equ\001\321+N\011\363\021\314\275\327"
 346      05457175 
 346      01D12B4E 
 346      09F311CC 
 346      BDD7
 347 0d1a ABD2C925 		.ascii	"\253\322\311%R\344\004\371\311b\016\326\002\252\313"
 347      52E404F9 
 347      C9620ED6 
 347      02AACB
 348 0d29 C1FA4435 		.ascii	"\301\372D5y5\336*\201\347GX\253U\234\014P\316\332:\221"
 348      7935DE2A 
 348      81E74758 
 348      AB559C0C 
 348      50CEDA3A 
 349 0d3e 9FEC15F3 		.ascii	"\237\354\025\363}5^\322\274\305r@dJDe\340j\261F\000"
 349      7D355ED2 
 349      BCC57240 
 349      644A4465 
 349      E06AB146 
 350 0d53 6D47BCCF 		.ascii	"mG\274\317\324\361u`\274\2410Z\367\310\332\343\"\276"
 350      D4F17560 
ARM GAS  /var/folders/c6/c789hm653lg9vtl73krp73tm0000gn/T//ccj6qQHm.s 			page 28


 350      BCA1305A 
 350      F7C8DAE3 
 350      22BE
 351 0d65 9A4AAC28 		.ascii	"\232J\254(\332\335+\272\022C\363\302^,\006\334\302\002"
 351      DADD2BBA 
 351      1243F3C2 
 351      5E2C06DC 
 351      C202
 352 0d77 3FB12CA5 		.ascii	"?\261,\245\035C\265a\177\200\027\"%\017\216\033\007"
 352      1D43B561 
 352      7F801722 
 352      250F8E1B 
 352      07
 353 0d88 A02A5F4E 		.ascii	"\240*_N1,\370C \015V\317]w\202\223PM\341&\301\365\207"
 353      312CF843 
 353      200D56CF 
 353      5D778293 
 353      504DE126 
 354 0d9f 9CBE5010 		.ascii	"\234\276P\020\304\024\0131\240\027\336\371\304\311\267"
 354      C4140B31 
 354      A017DEF9 
 354      C4C9B7
 355 0dae A5F719EF 		.ascii	"\245\367\031\357\304{k1\333\002_\015\306\362\212\254"
 355      C47B6B31 
 355      DB025F0D 
 355      C6F28AAC 
 356 0dbe 50C60A77 		.ascii	"P\306\012w\263\302=\254p/+\224\263\302\030\2070\272"
 356      B3C23DAC 
 356      702F2B94 
 356      B3C21887 
 356      30BA
 357 0dd0 14CA6836 		.ascii	"\024\312h6 \300\355\256\334\260\027\220\235X\246I\274"
 357      20C0EDAE 
 357      DCB01790 
 357      9D58A649 
 357      BC
 358 0de1 00F75000 		.ascii	"\000\367P\000\2743\307W\303\011XP\256\226\317\027#\""
 358      BC33C757 
 358      C3095850 
 358      AE96CF17 
 358      2322
 359 0df3 2782F69C 		.ascii	"'\202\366\234\230\305rP\005e\026Z\320\235\274s\212\265"
 359      98C57250 
 359      0565165A 
 359      D09DBC73 
 359      8AB5
 360 0e05 A14A9EFC 		.ascii	"\241J\236\374\256\012p\325\021\247(\360U\021\"\013n"
 360      AE0A70D5 
 360      11A728F0 
 360      5511220B 
 360      6E
 361 0e16 E4D646AA 		.ascii	"\344\326F\252\341\245\" \014WE\025*\247\300\253|~\262"
 361      E1A52220 
 361      0C574515 
 361      2AA7C0AB 
 361      7C7EB2
 362 0e29 5FF40140 		.ascii	"_\364\001@\336$14\341\251\360\265\212\316a(/\360A\037"
ARM GAS  /var/folders/c6/c789hm653lg9vtl73krp73tm0000gn/T//ccj6qQHm.s 			page 29


 362      DE243134 
 362      E1A9F0B5 
 362      8ACE6128 
 362      2FF0411F 
 363 0e3d 00E74E12 		.ascii	"\000\347N\022E!\354\006\033D\370Z.\\\003\222Z{\014t"
 363      4521EC06 
 363      1B44F85A 
 363      2E5C0392 
 363      5A7B0C74 
 364 0e51 C13A564C 		.ascii	"\301:VL\234\353\013\202G\346F\274p\007\002\3602\014"
 364      9CEB0B82 
 364      47E646BC 
 364      700702F0 
 364      320C
 365 0e63 37F0AA70 		.ascii	"7\360\252p!?\221\017\212\265\\\344i`\205\237\204\033"
 365      213F910F 
 365      8AB55CE4 
 365      6960859F 
 365      841B
 366 0e75 8EB0B76E 		.ascii	"\216\260\267n\210\352!\001\177\004F^\255\361\031\374"
 366      88EA2101 
 366      7F04465E 
 366      ADF119FC 
 367 0e85 C415F64E 		.ascii	"\304\025\366N\342\374\242?X]\020\366\002\367\224\010"
 367      E2FCA23F 
 367      585D10F6 
 367      02F79408 
 368 0e95 69C2033E 		.ascii	"i\302\003>\314\007!\306\252\241\027\220\300\375\013"
 368      CC0721C6 
 368      AAA11790 
 368      C0FD0B
 369 0ea4 B00EB800 		.ascii	"\260\016\270\000\261)<\014\207B\001g-e\015\356\241I"
 369      B1293C0C 
 369      87420167 
 369      2D650DEE 
 369      A149
 370 0eb6 415EC8AB 		.ascii	"A^\310\253%\036\225[\203\307\024%\344\022\371\210\210"
 370      251E955B 
 370      83C71425 
 370      E412F988 
 370      88
 371 0ec7 25C3779C 		.ascii	"%\303w\234\200&\324U\201B\334\370\247\227\266#\354\370"
 371      8026D455 
 371      8142DCF8 
 371      A797B623 
 371      ECF8
 372 0ed9 5276FC68 		.ascii	"Rv\374hv\374\235\354\370\273\330\361e\354$\356\006\323"
 372      76FC9DEC 
 372      F8BBD8F1 
 372      65EC24EE 
 372      06D3
 373 0eeb E1247FFA 		.ascii	"\341$\177\372\230\253\360}\264\227\237\314\373 \206"
 373      98ABF07D 
 373      B4979FCC 
 373      FB2086
 374 0efa 0AE9AF08 		.ascii	"\012\351\257\010/\326\205s\275\277\007\306\334^\002"
 374      2FD68573 
ARM GAS  /var/folders/c6/c789hm653lg9vtl73krp73tm0000gn/T//ccj6qQHm.s 			page 30


 374      BDBF07C6 
 374      DC5E02
 375 0f09 CE4522BC 		.ascii	"\316E\"\274 \202\266\037\202\016\177\001\003\327E\012"
 375      2082B61F 
 375      820E7F01 
 375      03D7450A 
 376 0f19 E88F0720 		.ascii	"\350\217\007 T\013i\363\376\000d\015\010\250q`\213\007"
 376      540B69F3 
 376      FE00640D 
 376      08A87160 
 376      8B07
 377 0f2b 7991767B 		.ascii	"y\221v{b(}\371\247\011O\361>\361\341\240_t\021DL)\007"
 377      62287DF9 
 377      A7094FF1 
 377      3EF1E1A0 
 377      5F741144 
 378 0f42 B7F271E5 		.ascii	"\267\362q\345\343\"|\016v\255\\B\033\236qB%h\302\251"
 378      E3227C0E 
 378      76AD5C42 
 378      1B9E7142 
 378      2568C2A9 
 379 0f56 3216E644 		.ascii	"2\026\346D\221\027\202x\224Ke\177\3645\305B\250\222"
 379      91178278 
 379      944B657F 
 379      F435C542 
 379      A892
 380 0f68 13B9E2C4 		.ascii	"\023\271\342\304\223\221\230\324o=\034\346\204\023\375"
 380      939198D4 
 380      6F3D1CE6 
 380      8413FD
 381 0f77 A1A0870B 		.ascii	"\241\240\207\013Vz\252\004\256\272\026\014K\237\340"
 381      567AAA04 
 381      AEBA160C 
 381      4B9FE0
 382 0f86 CECC7F01 		.ascii	"\316\314\177\001\026(\344\275"
 382      1628E4BD 
 383              		.text
 384              		.section	.gnu.lto_.symtab.64bbd8f52d4b5916,"",%progbits
 385 0000 70617474 		.ascii	"patternheap\000\000\000\000\000\000\000\000\000\000"
 385      65726E68 
 385      65617000 
 385      00000000 
 385      00000000 
 386 0015 0000C601 		.ascii	"\000\000\306\001\000\000testheap1\000\000\000\000\000"
 386      00007465 
 386      73746865 
 386      61703100 
 386      00000000 
 387 0029 00000000 		.ascii	"\000\000\000\000\000\000\000\334\001\000\000test\000"
 387      000000DC 
 387      01000074 
 387      65737400 
 388 0039 00020000 		.ascii	"\000\002\000\000\000\000\000\000\000\000\000\304\001"
 388      00000000 
 388      000000C4 
 388      01
 389 0046 00005F74 		.ascii	"\000\000_test_assert\000\000\002\000\000\000\000\000"
ARM GAS  /var/folders/c6/c789hm653lg9vtl73krp73tm0000gn/T//ccj6qQHm.s 			page 31


 389      6573745F 
 389      61737365 
 389      72740000 
 389      02000000 
 390 005c 00000000 		.ascii	"\000\000\000\000\242\001\000\000chHeapStatus\000\000"
 390      A2010000 
 390      63684865 
 390      61705374 
 390      61747573 
 391 0072 02000000 		.ascii	"\002\000\000\000\000\000\000\000\000\000\252\001\000"
 391      00000000 
 391      0000AA01 
 391      00
 392 007f 00636848 		.ascii	"\000chHeapFree\000\000\002\000\000\000\000\000\000\000"
 392      65617046 
 392      72656500 
 392      00020000 
 392      00000000 
 393 0094 0000B001 		.ascii	"\000\000\260\001\000\000chHeapAlloc\000\000\002\000"
 393      00006368 
 393      48656170 
 393      416C6C6F 
 393      63000002 
 394 00a9 00000000 		.ascii	"\000\000\000\000\000\000\000\000\264\001\000\000chC"
 394      00000000 
 394      B4010000 
 394      636843
 395 00b8 6F726547 		.ascii	"oreGetStatusX\000\000\002\000\000\000\000\000\000\000"
 395      65745374 
 395      61747573 
 395      58000002 
 395      00000000 
 396 00cf 0000B901 		.ascii	"\000\000\271\001\000\000chHeapObjectInit\000\000\002"
 396      00006368 
 396      48656170 
 396      4F626A65 
 396      6374496E 
 397 00e8 00000000 		.ascii	"\000\000\000\000\000\000\000\000\000\274\001\000\000"
 397      00000000 
 397      00BC0100 
 397      00
 398              		.text
 399              		.section	.gnu.lto_.opts,"",%progbits
 400 0000 272D6D63 		.ascii	"'-mcpu=cortex-m4' '-mno-thumb-interwork' '-mthumb' "
 400      70753D63 
 400      6F727465 
 400      782D6D34 
 400      2720272D 
 401 0033 272D6767 		.ascii	"'-ggdb' '-O2' '-fomit-frame-pointer' '-falign-funct"
 401      64622720 
 401      272D4F32 
 401      2720272D 
 401      666F6D69 
 402 0066 696F6E73 		.ascii	"ions=16' '-ffunction-sections' '-fdata-sections' '-"
 402      3D313627 
 402      20272D66 
 402      66756E63 
ARM GAS  /var/folders/c6/c789hm653lg9vtl73krp73tm0000gn/T//ccj6qQHm.s 			page 32


 402      74696F6E 
 403 0099 666E6F2D 		.ascii	"fno-common' '-flto'\000"
 403      636F6D6D 
 403      6F6E2720 
 403      272D666C 
 403      746F2700 
 404              		.text
 405              		.cfi_sections	.debug_frame
 406              		.section	.text.heap1_execute,"ax",%progbits
 407              		.align	2
 408              		.p2align 4,,15
 409              		.thumb
 410              		.thumb_func
 411              		.type	heap1_execute, %function
 412              	heap1_execute:
 413              	.LFB230:
 414              		.file 1 "../../../test/rt/testheap.c"
 415              		.loc 1 69 0
 416              		.cfi_startproc
 417              		@ args = 0, pretend = 0, frame = 8
 418              		@ frame_needed = 0, uses_anonymous_args = 0
 419 0000 70B5     		push	{r4, r5, r6, lr}
 420              		.cfi_def_cfa_offset 16
 421              		.cfi_offset 4, -16
 422              		.cfi_offset 5, -12
 423              		.cfi_offset 6, -8
 424              		.cfi_offset 14, -4
 425 0002 82B0     		sub	sp, sp, #8
 426              		.cfi_def_cfa_offset 24
 427              		.loc 1 74 0
 428 0004 FFF7FEFF 		bl	chCoreGetStatusX
 429              	.LVL0:
 430              		.loc 1 80 0
 431 0008 01A9     		add	r1, sp, #4
 432 000a 0020     		movs	r0, #0
 433 000c FFF7FEFF 		bl	chHeapStatus
 434              	.LVL1:
 435              		.loc 1 81 0
 436 0010 1021     		movs	r1, #16
 437 0012 0020     		movs	r0, #0
 438 0014 FFF7FEFF 		bl	chHeapAlloc
 439              	.LVL2:
 440              		.loc 1 82 0
 441 0018 011C     		adds	r1, r0, #0
 442 001a 0446     		mov	r4, r0
 443 001c 18BF     		it	ne
 444 001e 0121     		movne	r1, #1
 445 0020 0120     		movs	r0, #1
 446              	.LVL3:
 447 0022 FFF7FEFF 		bl	_test_assert
 448              	.LVL4:
 449 0026 0546     		mov	r5, r0
 450 0028 08B1     		cbz	r0, .L7
 451              	.LVL5:
 452              	.L1:
 453              		.loc 1 140 0
 454 002a 02B0     		add	sp, sp, #8
ARM GAS  /var/folders/c6/c789hm653lg9vtl73krp73tm0000gn/T//ccj6qQHm.s 			page 33


 455              		@ sp needed
 456 002c 70BD     		pop	{r4, r5, r6, pc}
 457              	.LVL6:
 458              	.L7:
 459              		.loc 1 83 0
 460 002e 2046     		mov	r0, r4
 461 0030 FFF7FEFF 		bl	chHeapFree
 462              	.LVL7:
 463              		.loc 1 84 0
 464 0034 6FF0FF01 		mvn	r1, #255
 465 0038 2846     		mov	r0, r5
 466 003a FFF7FEFF 		bl	chHeapAlloc
 467              	.LVL8:
 468              		.loc 1 85 0
 469 003e D0F10101 		rsbs	r1, r0, #1
 470 0042 38BF     		it	cc
 471 0044 0021     		movcc	r1, #0
 472 0046 0220     		movs	r0, #2
 473              	.LVL9:
 474 0048 FFF7FEFF 		bl	_test_assert
 475              	.LVL10:
 476 004c 0028     		cmp	r0, #0
 477 004e ECD1     		bne	.L1
 478              		.loc 1 88 0
 479 0050 01A9     		add	r1, sp, #4
 480 0052 7B48     		ldr	r0, .L8
 481 0054 FFF7FEFF 		bl	chHeapStatus
 482              	.LVL11:
 483              		.loc 1 91 0
 484 0058 1021     		movs	r1, #16
 485 005a 7948     		ldr	r0, .L8
 486 005c FFF7FEFF 		bl	chHeapAlloc
 487              	.LVL12:
 488              		.loc 1 92 0
 489 0060 1021     		movs	r1, #16
 490              		.loc 1 91 0
 491 0062 0546     		mov	r5, r0
 492              	.LVL13:
 493              		.loc 1 92 0
 494 0064 7648     		ldr	r0, .L8
 495              	.LVL14:
 496 0066 FFF7FEFF 		bl	chHeapAlloc
 497              	.LVL15:
 498              		.loc 1 93 0
 499 006a 1021     		movs	r1, #16
 500              		.loc 1 92 0
 501 006c 0446     		mov	r4, r0
 502              	.LVL16:
 503              		.loc 1 93 0
 504 006e 7448     		ldr	r0, .L8
 505              	.LVL17:
 506 0070 FFF7FEFF 		bl	chHeapAlloc
 507              	.LVL18:
 508 0074 0646     		mov	r6, r0
 509              	.LVL19:
 510              		.loc 1 94 0
 511 0076 2846     		mov	r0, r5
ARM GAS  /var/folders/c6/c789hm653lg9vtl73krp73tm0000gn/T//ccj6qQHm.s 			page 34


 512              	.LVL20:
 513 0078 FFF7FEFF 		bl	chHeapFree
 514              	.LVL21:
 515              		.loc 1 95 0
 516 007c 2046     		mov	r0, r4
 517 007e FFF7FEFF 		bl	chHeapFree
 518              	.LVL22:
 519              		.loc 1 96 0
 520 0082 3046     		mov	r0, r6
 521 0084 FFF7FEFF 		bl	chHeapFree
 522              	.LVL23:
 523              		.loc 1 97 0
 524 0088 6946     		mov	r1, sp
 525 008a 6D48     		ldr	r0, .L8
 526 008c FFF7FEFF 		bl	chHeapStatus
 527              	.LVL24:
 528 0090 421E     		subs	r2, r0, #1
 529 0092 5142     		rsbs	r1, r2, #0
 530 0094 5141     		adcs	r1, r1, r2
 531 0096 0320     		movs	r0, #3
 532 0098 FFF7FEFF 		bl	_test_assert
 533              	.LVL25:
 534 009c 0028     		cmp	r0, #0
 535 009e C4D1     		bne	.L1
 536              		.loc 1 100 0
 537 00a0 1021     		movs	r1, #16
 538 00a2 6748     		ldr	r0, .L8
 539 00a4 FFF7FEFF 		bl	chHeapAlloc
 540              	.LVL26:
 541              		.loc 1 101 0
 542 00a8 1021     		movs	r1, #16
 543              		.loc 1 100 0
 544 00aa 0446     		mov	r4, r0
 545              	.LVL27:
 546              		.loc 1 101 0
 547 00ac 6448     		ldr	r0, .L8
 548              	.LVL28:
 549 00ae FFF7FEFF 		bl	chHeapAlloc
 550              	.LVL29:
 551              		.loc 1 102 0
 552 00b2 1021     		movs	r1, #16
 553              		.loc 1 101 0
 554 00b4 0546     		mov	r5, r0
 555              	.LVL30:
 556              		.loc 1 102 0
 557 00b6 6248     		ldr	r0, .L8
 558              	.LVL31:
 559 00b8 FFF7FEFF 		bl	chHeapAlloc
 560              	.LVL32:
 561              		.loc 1 103 0
 562 00bc FFF7FEFF 		bl	chHeapFree
 563              	.LVL33:
 564              		.loc 1 104 0
 565 00c0 2846     		mov	r0, r5
 566 00c2 FFF7FEFF 		bl	chHeapFree
 567              	.LVL34:
 568              		.loc 1 105 0
ARM GAS  /var/folders/c6/c789hm653lg9vtl73krp73tm0000gn/T//ccj6qQHm.s 			page 35


 569 00c6 2046     		mov	r0, r4
 570 00c8 FFF7FEFF 		bl	chHeapFree
 571              	.LVL35:
 572              		.loc 1 106 0
 573 00cc 6946     		mov	r1, sp
 574 00ce 5C48     		ldr	r0, .L8
 575 00d0 FFF7FEFF 		bl	chHeapStatus
 576              	.LVL36:
 577 00d4 431E     		subs	r3, r0, #1
 578 00d6 5942     		rsbs	r1, r3, #0
 579 00d8 5941     		adcs	r1, r1, r3
 580 00da 0420     		movs	r0, #4
 581 00dc FFF7FEFF 		bl	_test_assert
 582              	.LVL37:
 583 00e0 0028     		cmp	r0, #0
 584 00e2 A2D1     		bne	.L1
 585              		.loc 1 109 0
 586 00e4 1121     		movs	r1, #17
 587 00e6 5648     		ldr	r0, .L8
 588 00e8 FFF7FEFF 		bl	chHeapAlloc
 589              	.LVL38:
 590              		.loc 1 110 0
 591 00ec 1021     		movs	r1, #16
 592              		.loc 1 109 0
 593 00ee 0446     		mov	r4, r0
 594              	.LVL39:
 595              		.loc 1 110 0
 596 00f0 5348     		ldr	r0, .L8
 597              	.LVL40:
 598 00f2 FFF7FEFF 		bl	chHeapAlloc
 599              	.LVL41:
 600 00f6 0546     		mov	r5, r0
 601              	.LVL42:
 602              		.loc 1 111 0
 603 00f8 2046     		mov	r0, r4
 604              	.LVL43:
 605 00fa FFF7FEFF 		bl	chHeapFree
 606              	.LVL44:
 607              		.loc 1 112 0
 608 00fe 6946     		mov	r1, sp
 609 0100 4F48     		ldr	r0, .L8
 610 0102 FFF7FEFF 		bl	chHeapStatus
 611              	.LVL45:
 612 0106 B0F1020C 		subs	ip, r0, #2
 613 010a DCF10001 		rsbs	r1, ip, #0
 614 010e 51EB0C01 		adcs	r1, r1, ip
 615 0112 0520     		movs	r0, #5
 616 0114 FFF7FEFF 		bl	_test_assert
 617              	.LVL46:
 618 0118 0028     		cmp	r0, #0
 619 011a 86D1     		bne	.L1
 620              		.loc 1 113 0
 621 011c 1021     		movs	r1, #16
 622 011e 4848     		ldr	r0, .L8
 623 0120 FFF7FEFF 		bl	chHeapAlloc
 624              	.LVL47:
 625              		.loc 1 116 0
ARM GAS  /var/folders/c6/c789hm653lg9vtl73krp73tm0000gn/T//ccj6qQHm.s 			page 36


 626 0124 6946     		mov	r1, sp
 627              		.loc 1 113 0
 628 0126 0446     		mov	r4, r0
 629              	.LVL48:
 630              		.loc 1 116 0
 631 0128 4548     		ldr	r0, .L8
 632              	.LVL49:
 633 012a FFF7FEFF 		bl	chHeapStatus
 634              	.LVL50:
 635 012e 0128     		cmp	r0, #1
 636 0130 00F08380 		beq	.L5
 637              		.loc 1 116 0 is_stmt 0 discriminator 2
 638 0134 6946     		mov	r1, sp
 639 0136 4248     		ldr	r0, .L8
 640 0138 FFF7FEFF 		bl	chHeapStatus
 641              	.LVL51:
 642 013c B0F1020E 		subs	lr, r0, #2
 643 0140 DEF10001 		rsbs	r1, lr, #0
 644 0144 51EB0E01 		adcs	r1, r1, lr
 645              	.L3:
 646              		.loc 1 116 0 discriminator 4
 647 0148 0620     		movs	r0, #6
 648 014a FFF7FEFF 		bl	_test_assert
 649              	.LVL52:
 650 014e 0028     		cmp	r0, #0
 651 0150 7FF46BAF 		bne	.L1
 652              		.loc 1 118 0 is_stmt 1
 653 0154 2846     		mov	r0, r5
 654 0156 FFF7FEFF 		bl	chHeapFree
 655              	.LVL53:
 656              		.loc 1 119 0
 657 015a 2046     		mov	r0, r4
 658 015c FFF7FEFF 		bl	chHeapFree
 659              	.LVL54:
 660              		.loc 1 120 0
 661 0160 6946     		mov	r1, sp
 662 0162 3748     		ldr	r0, .L8
 663 0164 FFF7FEFF 		bl	chHeapStatus
 664              	.LVL55:
 665 0168 461E     		subs	r6, r0, #1
 666 016a 7142     		rsbs	r1, r6, #0
 667 016c 7141     		adcs	r1, r1, r6
 668 016e 0720     		movs	r0, #7
 669 0170 FFF7FEFF 		bl	_test_assert
 670              	.LVL56:
 671 0174 0028     		cmp	r0, #0
 672 0176 7FF458AF 		bne	.L1
 673              		.loc 1 123 0
 674 017a 1021     		movs	r1, #16
 675 017c 3048     		ldr	r0, .L8
 676 017e FFF7FEFF 		bl	chHeapAlloc
 677              	.LVL57:
 678              		.loc 1 124 0
 679 0182 1021     		movs	r1, #16
 680              		.loc 1 123 0
 681 0184 0546     		mov	r5, r0
 682              	.LVL58:
ARM GAS  /var/folders/c6/c789hm653lg9vtl73krp73tm0000gn/T//ccj6qQHm.s 			page 37


 683              		.loc 1 124 0
 684 0186 2E48     		ldr	r0, .L8
 685              	.LVL59:
 686 0188 FFF7FEFF 		bl	chHeapAlloc
 687              	.LVL60:
 688 018c 0446     		mov	r4, r0
 689              	.LVL61:
 690              		.loc 1 125 0
 691 018e 2846     		mov	r0, r5
 692              	.LVL62:
 693 0190 FFF7FEFF 		bl	chHeapFree
 694              	.LVL63:
 695              		.loc 1 126 0
 696 0194 6946     		mov	r1, sp
 697 0196 2A48     		ldr	r0, .L8
 698 0198 FFF7FEFF 		bl	chHeapStatus
 699              	.LVL64:
 700 019c 851E     		subs	r5, r0, #2
 701              	.LVL65:
 702 019e 6942     		rsbs	r1, r5, #0
 703 01a0 6941     		adcs	r1, r1, r5
 704 01a2 0820     		movs	r0, #8
 705 01a4 FFF7FEFF 		bl	_test_assert
 706              	.LVL66:
 707 01a8 0028     		cmp	r0, #0
 708 01aa 7FF43EAF 		bne	.L1
 709              		.loc 1 127 0
 710 01ae 2021     		movs	r1, #32
 711 01b0 2348     		ldr	r0, .L8
 712 01b2 FFF7FEFF 		bl	chHeapAlloc
 713              	.LVL67:
 714              		.loc 1 128 0
 715 01b6 FFF7FEFF 		bl	chHeapFree
 716              	.LVL68:
 717              		.loc 1 129 0
 718 01ba 2046     		mov	r0, r4
 719 01bc FFF7FEFF 		bl	chHeapFree
 720              	.LVL69:
 721              		.loc 1 130 0
 722 01c0 6946     		mov	r1, sp
 723 01c2 1F48     		ldr	r0, .L8
 724 01c4 FFF7FEFF 		bl	chHeapStatus
 725              	.LVL70:
 726 01c8 0138     		subs	r0, r0, #1
 727 01ca 4142     		rsbs	r1, r0, #0
 728 01cc 4141     		adcs	r1, r1, r0
 729 01ce 0920     		movs	r0, #9
 730 01d0 FFF7FEFF 		bl	_test_assert
 731              	.LVL71:
 732 01d4 0028     		cmp	r0, #0
 733 01d6 7FF428AF 		bne	.L1
 734              		.loc 1 133 0
 735 01da 6946     		mov	r1, sp
 736 01dc 1848     		ldr	r0, .L8
 737 01de FFF7FEFF 		bl	chHeapStatus
 738              	.LVL72:
 739              		.loc 1 134 0
ARM GAS  /var/folders/c6/c789hm653lg9vtl73krp73tm0000gn/T//ccj6qQHm.s 			page 38


 740 01e2 0099     		ldr	r1, [sp]
 741 01e4 1648     		ldr	r0, .L8
 742 01e6 FFF7FEFF 		bl	chHeapAlloc
 743              	.LVL73:
 744              		.loc 1 135 0
 745 01ea 6946     		mov	r1, sp
 746              		.loc 1 134 0
 747 01ec 0446     		mov	r4, r0
 748              	.LVL74:
 749              		.loc 1 135 0
 750 01ee 1448     		ldr	r0, .L8
 751              	.LVL75:
 752 01f0 FFF7FEFF 		bl	chHeapStatus
 753              	.LVL76:
 754 01f4 D0F10101 		rsbs	r1, r0, #1
 755 01f8 38BF     		it	cc
 756 01fa 0021     		movcc	r1, #0
 757 01fc 0A20     		movs	r0, #10
 758 01fe FFF7FEFF 		bl	_test_assert
 759              	.LVL77:
 760 0202 0028     		cmp	r0, #0
 761 0204 7FF411AF 		bne	.L1
 762              		.loc 1 136 0
 763 0208 2046     		mov	r0, r4
 764 020a FFF7FEFF 		bl	chHeapFree
 765              	.LVL78:
 766              		.loc 1 138 0
 767 020e 6946     		mov	r1, sp
 768 0210 0B48     		ldr	r0, .L8
 769 0212 FFF7FEFF 		bl	chHeapStatus
 770              	.LVL79:
 771 0216 421E     		subs	r2, r0, #1
 772 0218 5142     		rsbs	r1, r2, #0
 773 021a 5141     		adcs	r1, r1, r2
 774 021c 0B20     		movs	r0, #11
 775 021e FFF7FEFF 		bl	_test_assert
 776              	.LVL80:
 777 0222 0028     		cmp	r0, #0
 778 0224 7FF401AF 		bne	.L1
 779              		.loc 1 139 0
 780 0228 9DE80A00 		ldmia	sp, {r1, r3}
 781 022c CB1A     		subs	r3, r1, r3
 782 022e 5942     		rsbs	r1, r3, #0
 783 0230 5941     		adcs	r1, r1, r3
 784 0232 0C20     		movs	r0, #12
 785 0234 FFF7FEFF 		bl	_test_assert
 786              	.LVL81:
 787 0238 F7E6     		b	.L1
 788              	.LVL82:
 789              	.L5:
 790 023a 0146     		mov	r1, r0
 791 023c 84E7     		b	.L3
 792              	.L9:
 793 023e 00BF     		.align	2
 794              	.L8:
 795 0240 00000000 		.word	.LANCHOR0
 796              		.cfi_endproc
ARM GAS  /var/folders/c6/c789hm653lg9vtl73krp73tm0000gn/T//ccj6qQHm.s 			page 39


 797              	.LFE230:
 798              		.size	heap1_execute, .-heap1_execute
 799 0244 AFF30080 		.section	.text.heap1_setup,"ax",%progbits
 799      AFF30080 
 799      AFF30080 
 800              		.align	2
 801              		.p2align 4,,15
 802              		.thumb
 803              		.thumb_func
 804              		.type	heap1_setup, %function
 805              	heap1_setup:
 806              	.LFB229:
 807              		.loc 1 64 0
 808              		.cfi_startproc
 809              		@ args = 0, pretend = 0, frame = 0
 810              		@ frame_needed = 0, uses_anonymous_args = 0
 811              		@ link register save eliminated.
 812              		.loc 1 66 0
 813 0000 0248     		ldr	r0, .L11
 814 0002 0349     		ldr	r1, .L11+4
 815 0004 4FF4CD62 		mov	r2, #1640
 816 0008 FFF7FEBF 		b	chHeapObjectInit
 817              	.LVL83:
 818              	.L12:
 819              		.align	2
 820              	.L11:
 821 000c 00000000 		.word	.LANCHOR0
 822 0010 00000000 		.word	test
 823              		.cfi_endproc
 824              	.LFE229:
 825              		.size	heap1_setup, .-heap1_setup
 826              		.global	patternheap
 827              		.global	testheap1
 828 0014 AFF30080 		.section	.rodata.patternheap,"a",%progbits
 828      AFF30080 
 828      AFF30080 
 829              		.align	2
 830              		.type	patternheap, %object
 831              		.size	patternheap, 8
 832              	patternheap:
 833 0000 00000000 		.word	testheap1
 834 0004 00000000 		.word	0
 835              		.section	.rodata.str1.4,"aMS",%progbits,1
 836              		.align	2
 837              	.LC0:
 838 0000 48656170 		.ascii	"Heap, allocation and fragmentation test\000"
 838      2C20616C 
 838      6C6F6361 
 838      74696F6E 
 838      20616E64 
 839              		.section	.rodata.testheap1,"a",%progbits
 840              		.align	2
 841              		.type	testheap1, %object
 842              		.size	testheap1, 16
 843              	testheap1:
 844 0000 00000000 		.word	.LC0
 845 0004 00000000 		.word	heap1_setup
ARM GAS  /var/folders/c6/c789hm653lg9vtl73krp73tm0000gn/T//ccj6qQHm.s 			page 40


 846 0008 00000000 		.word	0
 847 000c 00000000 		.word	heap1_execute
 848              		.section	.bss.test_heap,"aw",%nobits
 849              		.align	3
 850              		.set	.LANCHOR0,. + 0
 851              		.type	test_heap, %object
 852              		.size	test_heap, 32
 853              	test_heap:
 854 0000 00000000 		.space	32
 854      00000000 
 854      00000000 
 854      00000000 
 854      00000000 
 855              		.text
 856              	.Letext0:
 857              		.file 2 "/usr/local/Cellar/gcc-arm-none-eabi/20140805/lib/gcc/arm-none-eabi/4.8.4/include/stddef.h
 858              		.file 3 "/usr/local/Cellar/gcc-arm-none-eabi/20140805/arm-none-eabi/include/machine/_default_types
 859              		.file 4 "/usr/local/Cellar/gcc-arm-none-eabi/20140805/arm-none-eabi/include/stdint.h"
 860              		.file 5 "../../../os/rt/ports/ARMCMx/compilers/GCC/chtypes.h"
 861              		.file 6 "../../../os/rt/include/chsystypes.h"
 862              		.file 7 "../../../os/rt/include/chschd.h"
 863              		.file 8 "../../../os/rt/ports/ARMCMx/chcore.h"
 864              		.file 9 "../../../os/rt/ports/ARMCMx/chcore_v7m.h"
 865              		.file 10 "../../../os/rt/include/chtm.h"
 866              		.file 11 "../../../os/rt/include/chsem.h"
 867              		.file 12 "../../../os/rt/include/chmtx.h"
 868              		.file 13 "../../../os/rt/include/chmemcore.h"
 869              		.file 14 "../../../os/rt/include/chheap.h"
 870              		.file 15 "../../../test/rt/test.h"
 871              		.file 16 "../../../os/ext/CMSIS/include/core_cm4.h"
 872              		.section	.debug_info,"",%progbits
 873              	.Ldebug_info0:
 874 0000 5E0E0000 		.4byte	0xe5e
 875 0004 0400     		.2byte	0x4
 876 0006 00000000 		.4byte	.Ldebug_abbrev0
 877 000a 04       		.byte	0x4
 878 000b 01       		.uleb128 0x1
 879 000c 00000000 		.4byte	.LASF131
 880 0010 01       		.byte	0x1
 881 0011 19060000 		.4byte	.LASF132
 882 0015 15050000 		.4byte	.LASF133
 883 0019 00000000 		.4byte	.Ldebug_ranges0+0
 884 001d 00000000 		.4byte	0
 885 0021 00000000 		.4byte	.Ldebug_line0
 886 0025 02       		.uleb128 0x2
 887 0026 04       		.byte	0x4
 888 0027 05       		.byte	0x5
 889 0028 696E7400 		.ascii	"int\000"
 890 002c 03       		.uleb128 0x3
 891 002d ED000000 		.4byte	.LASF2
 892 0031 02       		.byte	0x2
 893 0032 D4       		.byte	0xd4
 894 0033 37000000 		.4byte	0x37
 895 0037 04       		.uleb128 0x4
 896 0038 04       		.byte	0x4
 897 0039 07       		.byte	0x7
 898 003a 92020000 		.4byte	.LASF0
ARM GAS  /var/folders/c6/c789hm653lg9vtl73krp73tm0000gn/T//ccj6qQHm.s 			page 41


 899 003e 04       		.uleb128 0x4
 900 003f 01       		.byte	0x1
 901 0040 06       		.byte	0x6
 902 0041 C4010000 		.4byte	.LASF1
 903 0045 03       		.uleb128 0x3
 904 0046 04010000 		.4byte	.LASF3
 905 004a 03       		.byte	0x3
 906 004b 1C       		.byte	0x1c
 907 004c 50000000 		.4byte	0x50
 908 0050 04       		.uleb128 0x4
 909 0051 01       		.byte	0x1
 910 0052 08       		.byte	0x8
 911 0053 3D040000 		.4byte	.LASF4
 912 0057 04       		.uleb128 0x4
 913 0058 02       		.byte	0x2
 914 0059 05       		.byte	0x5
 915 005a 61040000 		.4byte	.LASF5
 916 005e 04       		.uleb128 0x4
 917 005f 02       		.byte	0x2
 918 0060 07       		.byte	0x7
 919 0061 CD020000 		.4byte	.LASF6
 920 0065 03       		.uleb128 0x3
 921 0066 29030000 		.4byte	.LASF7
 922 006a 03       		.byte	0x3
 923 006b 37       		.byte	0x37
 924 006c 70000000 		.4byte	0x70
 925 0070 04       		.uleb128 0x4
 926 0071 04       		.byte	0x4
 927 0072 05       		.byte	0x5
 928 0073 19020000 		.4byte	.LASF8
 929 0077 03       		.uleb128 0x3
 930 0078 A0050000 		.4byte	.LASF9
 931 007c 03       		.byte	0x3
 932 007d 38       		.byte	0x38
 933 007e 82000000 		.4byte	0x82
 934 0082 04       		.uleb128 0x4
 935 0083 04       		.byte	0x4
 936 0084 07       		.byte	0x7
 937 0085 03050000 		.4byte	.LASF10
 938 0089 04       		.uleb128 0x4
 939 008a 08       		.byte	0x8
 940 008b 05       		.byte	0x5
 941 008c B6010000 		.4byte	.LASF11
 942 0090 03       		.uleb128 0x3
 943 0091 D9030000 		.4byte	.LASF12
 944 0095 03       		.byte	0x3
 945 0096 4E       		.byte	0x4e
 946 0097 9B000000 		.4byte	0x9b
 947 009b 04       		.uleb128 0x4
 948 009c 08       		.byte	0x8
 949 009d 07       		.byte	0x7
 950 009e 36010000 		.4byte	.LASF13
 951 00a2 03       		.uleb128 0x3
 952 00a3 07060000 		.4byte	.LASF14
 953 00a7 04       		.byte	0x4
 954 00a8 2A       		.byte	0x2a
 955 00a9 45000000 		.4byte	0x45
ARM GAS  /var/folders/c6/c789hm653lg9vtl73krp73tm0000gn/T//ccj6qQHm.s 			page 42


 956 00ad 03       		.uleb128 0x3
 957 00ae 35040000 		.4byte	.LASF15
 958 00b2 04       		.byte	0x4
 959 00b3 41       		.byte	0x41
 960 00b4 65000000 		.4byte	0x65
 961 00b8 03       		.uleb128 0x3
 962 00b9 CD040000 		.4byte	.LASF16
 963 00bd 04       		.byte	0x4
 964 00be 42       		.byte	0x42
 965 00bf 77000000 		.4byte	0x77
 966 00c3 03       		.uleb128 0x3
 967 00c4 FB000000 		.4byte	.LASF17
 968 00c8 04       		.byte	0x4
 969 00c9 4E       		.byte	0x4e
 970 00ca 90000000 		.4byte	0x90
 971 00ce 05       		.uleb128 0x5
 972 00cf AD000000 		.4byte	0xad
 973 00d3 03       		.uleb128 0x3
 974 00d4 D5050000 		.4byte	.LASF18
 975 00d8 05       		.byte	0x5
 976 00d9 45       		.byte	0x45
 977 00da B8000000 		.4byte	0xb8
 978 00de 03       		.uleb128 0x3
 979 00df 07030000 		.4byte	.LASF19
 980 00e3 05       		.byte	0x5
 981 00e4 48       		.byte	0x48
 982 00e5 A2000000 		.4byte	0xa2
 983 00e9 03       		.uleb128 0x3
 984 00ea 22020000 		.4byte	.LASF20
 985 00ee 05       		.byte	0x5
 986 00ef 49       		.byte	0x49
 987 00f0 A2000000 		.4byte	0xa2
 988 00f4 03       		.uleb128 0x3
 989 00f5 E4030000 		.4byte	.LASF21
 990 00f9 05       		.byte	0x5
 991 00fa 4A       		.byte	0x4a
 992 00fb A2000000 		.4byte	0xa2
 993 00ff 03       		.uleb128 0x3
 994 0100 0B040000 		.4byte	.LASF22
 995 0104 05       		.byte	0x5
 996 0105 4C       		.byte	0x4c
 997 0106 B8000000 		.4byte	0xb8
 998 010a 03       		.uleb128 0x3
 999 010b F5020000 		.4byte	.LASF23
 1000 010f 05       		.byte	0x5
 1001 0110 4D       		.byte	0x4d
 1002 0111 AD000000 		.4byte	0xad
 1003 0115 03       		.uleb128 0x3
 1004 0116 1D030000 		.4byte	.LASF24
 1005 011a 05       		.byte	0x5
 1006 011b 4F       		.byte	0x4f
 1007 011c B8000000 		.4byte	0xb8
 1008 0120 03       		.uleb128 0x3
 1009 0121 8C020000 		.4byte	.LASF25
 1010 0125 05       		.byte	0x5
 1011 0126 51       		.byte	0x51
 1012 0127 AD000000 		.4byte	0xad
ARM GAS  /var/folders/c6/c789hm653lg9vtl73krp73tm0000gn/T//ccj6qQHm.s 			page 43


 1013 012b 03       		.uleb128 0x3
 1014 012c 82050000 		.4byte	.LASF26
 1015 0130 06       		.byte	0x6
 1016 0131 33       		.byte	0x33
 1017 0132 B8000000 		.4byte	0xb8
 1018 0136 03       		.uleb128 0x3
 1019 0137 65050000 		.4byte	.LASF27
 1020 013b 06       		.byte	0x6
 1021 013c 3F       		.byte	0x3f
 1022 013d 41010000 		.4byte	0x141
 1023 0141 06       		.uleb128 0x6
 1024 0142 E0020000 		.4byte	.LASF47
 1025 0146 44       		.byte	0x44
 1026 0147 07       		.byte	0x7
 1027 0148 C2       		.byte	0xc2
 1028 0149 2E020000 		.4byte	0x22e
 1029 014d 07       		.uleb128 0x7
 1030 014e 81040000 		.4byte	.LASF28
 1031 0152 07       		.byte	0x7
 1032 0153 C3       		.byte	0xc3
 1033 0154 39020000 		.4byte	0x239
 1034 0158 00       		.byte	0
 1035 0159 07       		.uleb128 0x7
 1036 015a FC030000 		.4byte	.LASF29
 1037 015e 07       		.byte	0x7
 1038 015f C5       		.byte	0xc5
 1039 0160 39020000 		.4byte	0x239
 1040 0164 04       		.byte	0x4
 1041 0165 07       		.uleb128 0x7
 1042 0166 9B010000 		.4byte	.LASF30
 1043 016a 07       		.byte	0x7
 1044 016b C7       		.byte	0xc7
 1045 016c FF000000 		.4byte	0xff
 1046 0170 08       		.byte	0x8
 1047 0171 07       		.uleb128 0x7
 1048 0172 7D060000 		.4byte	.LASF31
 1049 0176 07       		.byte	0x7
 1050 0177 C8       		.byte	0xc8
 1051 0178 69040000 		.4byte	0x469
 1052 017c 0C       		.byte	0xc
 1053 017d 07       		.uleb128 0x7
 1054 017e 40020000 		.4byte	.LASF32
 1055 0182 07       		.byte	0x7
 1056 0183 CA       		.byte	0xca
 1057 0184 39020000 		.4byte	0x239
 1058 0188 10       		.byte	0x10
 1059 0189 07       		.uleb128 0x7
 1060 018a A2030000 		.4byte	.LASF33
 1061 018e 07       		.byte	0x7
 1062 018f CB       		.byte	0xcb
 1063 0190 39020000 		.4byte	0x239
 1064 0194 14       		.byte	0x14
 1065 0195 07       		.uleb128 0x7
 1066 0196 47060000 		.4byte	.LASF34
 1067 019a 07       		.byte	0x7
 1068 019b D2       		.byte	0xd2
 1069 019c E8050000 		.4byte	0x5e8
ARM GAS  /var/folders/c6/c789hm653lg9vtl73krp73tm0000gn/T//ccj6qQHm.s 			page 44


 1070 01a0 18       		.byte	0x18
 1071 01a1 07       		.uleb128 0x7
 1072 01a2 6B040000 		.4byte	.LASF35
 1073 01a6 07       		.byte	0x7
 1074 01a7 DD       		.byte	0xdd
 1075 01a8 E9000000 		.4byte	0xe9
 1076 01ac 1C       		.byte	0x1c
 1077 01ad 07       		.uleb128 0x7
 1078 01ae 88040000 		.4byte	.LASF36
 1079 01b2 07       		.byte	0x7
 1080 01b3 E1       		.byte	0xe1
 1081 01b4 DE000000 		.4byte	0xde
 1082 01b8 1D       		.byte	0x1d
 1083 01b9 07       		.uleb128 0x7
 1084 01ba FA050000 		.4byte	.LASF37
 1085 01be 07       		.byte	0x7
 1086 01bf E6       		.byte	0xe6
 1087 01c0 F4000000 		.4byte	0xf4
 1088 01c4 1E       		.byte	0x1e
 1089 01c5 08       		.uleb128 0x8
 1090 01c6 705F7500 		.ascii	"p_u\000"
 1091 01ca 07       		.byte	0x7
 1092 01cb 3101     		.2byte	0x131
 1093 01cd 23050000 		.4byte	0x523
 1094 01d1 20       		.byte	0x20
 1095 01d2 09       		.uleb128 0x9
 1096 01d3 59030000 		.4byte	.LASF38
 1097 01d7 07       		.byte	0x7
 1098 01d8 3601     		.2byte	0x136
 1099 01da 3F020000 		.4byte	0x23f
 1100 01de 24       		.byte	0x24
 1101 01df 09       		.uleb128 0x9
 1102 01e0 AE020000 		.4byte	.LASF39
 1103 01e4 07       		.byte	0x7
 1104 01e5 3C01     		.2byte	0x13c
 1105 01e7 63020000 		.4byte	0x263
 1106 01eb 28       		.byte	0x28
 1107 01ec 09       		.uleb128 0x9
 1108 01ed 6F060000 		.4byte	.LASF40
 1109 01f1 07       		.byte	0x7
 1110 01f2 4001     		.2byte	0x140
 1111 01f4 0A010000 		.4byte	0x10a
 1112 01f8 30       		.byte	0x30
 1113 01f9 09       		.uleb128 0x9
 1114 01fa C2040000 		.4byte	.LASF41
 1115 01fe 07       		.byte	0x7
 1116 01ff 4601     		.2byte	0x146
 1117 0201 15010000 		.4byte	0x115
 1118 0205 34       		.byte	0x34
 1119 0206 09       		.uleb128 0x9
 1120 0207 57040000 		.4byte	.LASF42
 1121 020b 07       		.byte	0x7
 1122 020c 4D01     		.2byte	0x14d
 1123 020e E2050000 		.4byte	0x5e2
 1124 0212 38       		.byte	0x38
 1125 0213 09       		.uleb128 0x9
 1126 0214 8C050000 		.4byte	.LASF43
ARM GAS  /var/folders/c6/c789hm653lg9vtl73krp73tm0000gn/T//ccj6qQHm.s 			page 45


 1127 0218 07       		.byte	0x7
 1128 0219 5101     		.2byte	0x151
 1129 021b FF000000 		.4byte	0xff
 1130 021f 3C       		.byte	0x3c
 1131 0220 09       		.uleb128 0x9
 1132 0221 D6010000 		.4byte	.LASF44
 1133 0225 07       		.byte	0x7
 1134 0226 5801     		.2byte	0x158
 1135 0228 16030000 		.4byte	0x316
 1136 022c 40       		.byte	0x40
 1137 022d 00       		.byte	0
 1138 022e 03       		.uleb128 0x3
 1139 022f 6C030000 		.4byte	.LASF45
 1140 0233 06       		.byte	0x6
 1141 0234 44       		.byte	0x44
 1142 0235 39020000 		.4byte	0x239
 1143 0239 0A       		.uleb128 0xa
 1144 023a 04       		.byte	0x4
 1145 023b 36010000 		.4byte	0x136
 1146 023f 03       		.uleb128 0x3
 1147 0240 60060000 		.4byte	.LASF46
 1148 0244 06       		.byte	0x6
 1149 0245 49       		.byte	0x49
 1150 0246 4A020000 		.4byte	0x24a
 1151 024a 06       		.uleb128 0x6
 1152 024b EE040000 		.4byte	.LASF48
 1153 024f 04       		.byte	0x4
 1154 0250 07       		.byte	0x7
 1155 0251 B0       		.byte	0xb0
 1156 0252 63020000 		.4byte	0x263
 1157 0256 07       		.uleb128 0x7
 1158 0257 81040000 		.4byte	.LASF28
 1159 025b 07       		.byte	0x7
 1160 025c B1       		.byte	0xb1
 1161 025d 39020000 		.4byte	0x239
 1162 0261 00       		.byte	0
 1163 0262 00       		.byte	0
 1164 0263 03       		.uleb128 0x3
 1165 0264 90040000 		.4byte	.LASF49
 1166 0268 06       		.byte	0x6
 1167 0269 50       		.byte	0x50
 1168 026a 6E020000 		.4byte	0x26e
 1169 026e 06       		.uleb128 0x6
 1170 026f 8A010000 		.4byte	.LASF50
 1171 0273 08       		.byte	0x8
 1172 0274 07       		.byte	0x7
 1173 0275 B7       		.byte	0xb7
 1174 0276 93020000 		.4byte	0x293
 1175 027a 07       		.uleb128 0x7
 1176 027b 81040000 		.4byte	.LASF28
 1177 027f 07       		.byte	0x7
 1178 0280 B8       		.byte	0xb8
 1179 0281 39020000 		.4byte	0x239
 1180 0285 00       		.byte	0
 1181 0286 07       		.uleb128 0x7
 1182 0287 FC030000 		.4byte	.LASF29
 1183 028b 07       		.byte	0x7
ARM GAS  /var/folders/c6/c789hm653lg9vtl73krp73tm0000gn/T//ccj6qQHm.s 			page 46


 1184 028c B9       		.byte	0xb9
 1185 028d 39020000 		.4byte	0x239
 1186 0291 04       		.byte	0x4
 1187 0292 00       		.byte	0
 1188 0293 03       		.uleb128 0x3
 1189 0294 E0000000 		.4byte	.LASF51
 1190 0298 06       		.byte	0x6
 1191 0299 57       		.byte	0x57
 1192 029a 9E020000 		.4byte	0x29e
 1193 029e 0B       		.uleb128 0xb
 1194 029f 0F030000 		.4byte	.LASF52
 1195 02a3 1C       		.byte	0x1c
 1196 02a4 07       		.byte	0x7
 1197 02a5 9001     		.2byte	0x190
 1198 02a7 FA020000 		.4byte	0x2fa
 1199 02ab 09       		.uleb128 0x9
 1200 02ac DD040000 		.4byte	.LASF53
 1201 02b0 07       		.byte	0x7
 1202 02b1 9101     		.2byte	0x191
 1203 02b3 63020000 		.4byte	0x263
 1204 02b7 00       		.byte	0
 1205 02b8 09       		.uleb128 0x9
 1206 02b9 73040000 		.4byte	.LASF54
 1207 02bd 07       		.byte	0x7
 1208 02be 9201     		.2byte	0x192
 1209 02c0 FF000000 		.4byte	0xff
 1210 02c4 08       		.byte	0x8
 1211 02c5 09       		.uleb128 0x9
 1212 02c6 AA030000 		.4byte	.LASF55
 1213 02ca 07       		.byte	0x7
 1214 02cb 9401     		.2byte	0x194
 1215 02cd 69040000 		.4byte	0x469
 1216 02d1 0C       		.byte	0xc
 1217 02d2 09       		.uleb128 0x9
 1218 02d3 50020000 		.4byte	.LASF56
 1219 02d7 07       		.byte	0x7
 1220 02d8 9701     		.2byte	0x197
 1221 02da 39020000 		.4byte	0x239
 1222 02de 10       		.byte	0x10
 1223 02df 09       		.uleb128 0x9
 1224 02e0 D1030000 		.4byte	.LASF57
 1225 02e4 07       		.byte	0x7
 1226 02e5 9801     		.2byte	0x198
 1227 02e7 39020000 		.4byte	0x239
 1228 02eb 14       		.byte	0x14
 1229 02ec 09       		.uleb128 0x9
 1230 02ed C7030000 		.4byte	.LASF58
 1231 02f1 07       		.byte	0x7
 1232 02f2 9B01     		.2byte	0x19b
 1233 02f4 39020000 		.4byte	0x239
 1234 02f8 18       		.byte	0x18
 1235 02f9 00       		.byte	0
 1236 02fa 03       		.uleb128 0x3
 1237 02fb 97050000 		.4byte	.LASF59
 1238 02ff 06       		.byte	0x6
 1239 0300 5C       		.byte	0x5c
 1240 0301 05030000 		.4byte	0x305
ARM GAS  /var/folders/c6/c789hm653lg9vtl73krp73tm0000gn/T//ccj6qQHm.s 			page 47


 1241 0305 0A       		.uleb128 0xa
 1242 0306 04       		.byte	0x4
 1243 0307 0B030000 		.4byte	0x30b
 1244 030b 0C       		.uleb128 0xc
 1245 030c 16030000 		.4byte	0x316
 1246 0310 0D       		.uleb128 0xd
 1247 0311 16030000 		.4byte	0x316
 1248 0315 00       		.byte	0
 1249 0316 0E       		.uleb128 0xe
 1250 0317 04       		.byte	0x4
 1251 0318 03       		.uleb128 0x3
 1252 0319 EC030000 		.4byte	.LASF60
 1253 031d 06       		.byte	0x6
 1254 031e 61       		.byte	0x61
 1255 031f 23030000 		.4byte	0x323
 1256 0323 0B       		.uleb128 0xb
 1257 0324 C4050000 		.4byte	.LASF61
 1258 0328 14       		.byte	0x14
 1259 0329 07       		.byte	0x7
 1260 032a 6B01     		.2byte	0x16b
 1261 032c 72030000 		.4byte	0x372
 1262 0330 09       		.uleb128 0x9
 1263 0331 9F020000 		.4byte	.LASF62
 1264 0335 07       		.byte	0x7
 1265 0336 6C01     		.2byte	0x16c
 1266 0338 FA050000 		.4byte	0x5fa
 1267 033c 00       		.byte	0
 1268 033d 09       		.uleb128 0x9
 1269 033e 61020000 		.4byte	.LASF63
 1270 0342 07       		.byte	0x7
 1271 0343 6D01     		.2byte	0x16d
 1272 0345 FA050000 		.4byte	0x5fa
 1273 0349 04       		.byte	0x4
 1274 034a 09       		.uleb128 0x9
 1275 034b E5040000 		.4byte	.LASF64
 1276 034f 07       		.byte	0x7
 1277 0350 6E01     		.2byte	0x16e
 1278 0352 2B010000 		.4byte	0x12b
 1279 0356 08       		.byte	0x8
 1280 0357 09       		.uleb128 0x9
 1281 0358 83060000 		.4byte	.LASF65
 1282 035c 07       		.byte	0x7
 1283 035d 6F01     		.2byte	0x16f
 1284 035f FA020000 		.4byte	0x2fa
 1285 0363 0C       		.byte	0xc
 1286 0364 09       		.uleb128 0x9
 1287 0365 DD050000 		.4byte	.LASF66
 1288 0369 07       		.byte	0x7
 1289 036a 7101     		.2byte	0x171
 1290 036c 16030000 		.4byte	0x316
 1291 0370 10       		.byte	0x10
 1292 0371 00       		.byte	0
 1293 0372 03       		.uleb128 0x3
 1294 0373 62010000 		.4byte	.LASF67
 1295 0377 06       		.byte	0x6
 1296 0378 66       		.byte	0x66
 1297 0379 7D030000 		.4byte	0x37d
ARM GAS  /var/folders/c6/c789hm653lg9vtl73krp73tm0000gn/T//ccj6qQHm.s 			page 48


 1298 037d 0B       		.uleb128 0xb
 1299 037e 7F030000 		.4byte	.LASF68
 1300 0382 10       		.byte	0x10
 1301 0383 07       		.byte	0x7
 1302 0384 7B01     		.2byte	0x17b
 1303 0386 BF030000 		.4byte	0x3bf
 1304 038a 09       		.uleb128 0x9
 1305 038b 9F020000 		.4byte	.LASF62
 1306 038f 07       		.byte	0x7
 1307 0390 7C01     		.2byte	0x17c
 1308 0392 FA050000 		.4byte	0x5fa
 1309 0396 00       		.byte	0
 1310 0397 09       		.uleb128 0x9
 1311 0398 61020000 		.4byte	.LASF63
 1312 039c 07       		.byte	0x7
 1313 039d 7E01     		.2byte	0x17e
 1314 039f FA050000 		.4byte	0x5fa
 1315 03a3 04       		.byte	0x4
 1316 03a4 09       		.uleb128 0x9
 1317 03a5 E5040000 		.4byte	.LASF64
 1318 03a9 07       		.byte	0x7
 1319 03aa 8001     		.2byte	0x180
 1320 03ac 2B010000 		.4byte	0x12b
 1321 03b0 08       		.byte	0x8
 1322 03b1 09       		.uleb128 0x9
 1323 03b2 96030000 		.4byte	.LASF69
 1324 03b6 07       		.byte	0x7
 1325 03b7 8801     		.2byte	0x188
 1326 03b9 2B010000 		.4byte	0x12b
 1327 03bd 0C       		.byte	0xc
 1328 03be 00       		.byte	0
 1329 03bf 03       		.uleb128 0x3
 1330 03c0 1A010000 		.4byte	.LASF70
 1331 03c4 06       		.byte	0x6
 1332 03c5 6B       		.byte	0x6b
 1333 03c6 CA030000 		.4byte	0x3ca
 1334 03ca 0B       		.uleb128 0xb
 1335 03cb 1F040000 		.4byte	.LASF71
 1336 03cf 04       		.byte	0x4
 1337 03d0 07       		.byte	0x7
 1338 03d1 A201     		.2byte	0x1a2
 1339 03d3 E5030000 		.4byte	0x3e5
 1340 03d7 09       		.uleb128 0x9
 1341 03d8 AB050000 		.4byte	.LASF72
 1342 03dc 07       		.byte	0x7
 1343 03dd AA01     		.2byte	0x1aa
 1344 03df 00060000 		.4byte	0x600
 1345 03e3 00       		.byte	0
 1346 03e4 00       		.byte	0
 1347 03e5 03       		.uleb128 0x3
 1348 03e6 FB020000 		.4byte	.LASF73
 1349 03ea 06       		.byte	0x6
 1350 03eb 70       		.byte	0x70
 1351 03ec F0030000 		.4byte	0x3f0
 1352 03f0 0F       		.uleb128 0xf
 1353 03f1 0F020000 		.4byte	.LASF74
 1354 03f5 5001     		.2byte	0x150
ARM GAS  /var/folders/c6/c789hm653lg9vtl73krp73tm0000gn/T//ccj6qQHm.s 			page 49


 1355 03f7 07       		.byte	0x7
 1356 03f8 C201     		.2byte	0x1c2
 1357 03fa 4C040000 		.4byte	0x44c
 1358 03fe 09       		.uleb128 0x9
 1359 03ff 01060000 		.4byte	.LASF75
 1360 0403 07       		.byte	0x7
 1361 0404 C601     		.2byte	0x1c6
 1362 0406 93020000 		.4byte	0x293
 1363 040a 00       		.byte	0
 1364 040b 09       		.uleb128 0x9
 1365 040c F1010000 		.4byte	.LASF76
 1366 0410 07       		.byte	0x7
 1367 0411 CA01     		.2byte	0x1ca
 1368 0413 72030000 		.4byte	0x372
 1369 0417 1C       		.byte	0x1c
 1370 0418 08       		.uleb128 0x8
 1371 0419 64626700 		.ascii	"dbg\000"
 1372 041d 07       		.byte	0x7
 1373 041e CE01     		.2byte	0x1ce
 1374 0420 BF030000 		.4byte	0x3bf
 1375 0424 2C       		.byte	0x2c
 1376 0425 09       		.uleb128 0x9
 1377 0426 EA020000 		.4byte	.LASF77
 1378 042a 07       		.byte	0x7
 1379 042b D201     		.2byte	0x1d2
 1380 042d 36010000 		.4byte	0x136
 1381 0431 30       		.byte	0x30
 1382 0432 08       		.uleb128 0x8
 1383 0433 746D00   		.ascii	"tm\000"
 1384 0436 07       		.byte	0x7
 1385 0437 D701     		.2byte	0x1d7
 1386 0439 18050000 		.4byte	0x518
 1387 043d 74       		.byte	0x74
 1388 043e 09       		.uleb128 0x9
 1389 043f 7D020000 		.4byte	.LASF78
 1390 0443 07       		.byte	0x7
 1391 0444 E301     		.2byte	0x1e3
 1392 0446 05060000 		.4byte	0x605
 1393 044a 78       		.byte	0x78
 1394 044b 00       		.byte	0
 1395 044c 04       		.uleb128 0x4
 1396 044d 04       		.byte	0x4
 1397 044e 07       		.byte	0x7
 1398 044f 63030000 		.4byte	.LASF79
 1399 0453 03       		.uleb128 0x3
 1400 0454 58020000 		.4byte	.LASF80
 1401 0458 08       		.byte	0x8
 1402 0459 65       		.byte	0x65
 1403 045a 16030000 		.4byte	0x316
 1404 045e 03       		.uleb128 0x3
 1405 045f 33030000 		.4byte	.LASF81
 1406 0463 08       		.byte	0x8
 1407 0464 6D       		.byte	0x6d
 1408 0465 C3000000 		.4byte	0xc3
 1409 0469 06       		.uleb128 0x6
 1410 046a BC050000 		.4byte	.LASF82
 1411 046e 04       		.byte	0x4
ARM GAS  /var/folders/c6/c789hm653lg9vtl73krp73tm0000gn/T//ccj6qQHm.s 			page 50


 1412 046f 08       		.byte	0x8
 1413 0470 89       		.byte	0x89
 1414 0471 82040000 		.4byte	0x482
 1415 0475 10       		.uleb128 0x10
 1416 0476 72313300 		.ascii	"r13\000"
 1417 047a 08       		.byte	0x8
 1418 047b 8A       		.byte	0x8a
 1419 047c FD040000 		.4byte	0x4fd
 1420 0480 00       		.byte	0
 1421 0481 00       		.byte	0
 1422 0482 06       		.uleb128 0x6
 1423 0483 0E010000 		.4byte	.LASF83
 1424 0487 24       		.byte	0x24
 1425 0488 09       		.byte	0x9
 1426 0489 F4       		.byte	0xf4
 1427 048a FD040000 		.4byte	0x4fd
 1428 048e 08       		.uleb128 0x8
 1429 048f 723400   		.ascii	"r4\000"
 1430 0492 09       		.byte	0x9
 1431 0493 0701     		.2byte	0x107
 1432 0495 53040000 		.4byte	0x453
 1433 0499 00       		.byte	0
 1434 049a 08       		.uleb128 0x8
 1435 049b 723500   		.ascii	"r5\000"
 1436 049e 09       		.byte	0x9
 1437 049f 0801     		.2byte	0x108
 1438 04a1 53040000 		.4byte	0x453
 1439 04a5 04       		.byte	0x4
 1440 04a6 08       		.uleb128 0x8
 1441 04a7 723600   		.ascii	"r6\000"
 1442 04aa 09       		.byte	0x9
 1443 04ab 0901     		.2byte	0x109
 1444 04ad 53040000 		.4byte	0x453
 1445 04b1 08       		.byte	0x8
 1446 04b2 08       		.uleb128 0x8
 1447 04b3 723700   		.ascii	"r7\000"
 1448 04b6 09       		.byte	0x9
 1449 04b7 0A01     		.2byte	0x10a
 1450 04b9 53040000 		.4byte	0x453
 1451 04bd 0C       		.byte	0xc
 1452 04be 08       		.uleb128 0x8
 1453 04bf 723800   		.ascii	"r8\000"
 1454 04c2 09       		.byte	0x9
 1455 04c3 0B01     		.2byte	0x10b
 1456 04c5 53040000 		.4byte	0x453
 1457 04c9 10       		.byte	0x10
 1458 04ca 08       		.uleb128 0x8
 1459 04cb 723900   		.ascii	"r9\000"
 1460 04ce 09       		.byte	0x9
 1461 04cf 0C01     		.2byte	0x10c
 1462 04d1 53040000 		.4byte	0x453
 1463 04d5 14       		.byte	0x14
 1464 04d6 08       		.uleb128 0x8
 1465 04d7 72313000 		.ascii	"r10\000"
 1466 04db 09       		.byte	0x9
 1467 04dc 0D01     		.2byte	0x10d
 1468 04de 53040000 		.4byte	0x453
ARM GAS  /var/folders/c6/c789hm653lg9vtl73krp73tm0000gn/T//ccj6qQHm.s 			page 51


 1469 04e2 18       		.byte	0x18
 1470 04e3 08       		.uleb128 0x8
 1471 04e4 72313100 		.ascii	"r11\000"
 1472 04e8 09       		.byte	0x9
 1473 04e9 0E01     		.2byte	0x10e
 1474 04eb 53040000 		.4byte	0x453
 1475 04ef 1C       		.byte	0x1c
 1476 04f0 08       		.uleb128 0x8
 1477 04f1 6C7200   		.ascii	"lr\000"
 1478 04f4 09       		.byte	0x9
 1479 04f5 0F01     		.2byte	0x10f
 1480 04f7 53040000 		.4byte	0x453
 1481 04fb 20       		.byte	0x20
 1482 04fc 00       		.byte	0
 1483 04fd 0A       		.uleb128 0xa
 1484 04fe 04       		.byte	0x4
 1485 04ff 82040000 		.4byte	0x482
 1486 0503 11       		.uleb128 0x11
 1487 0504 04       		.byte	0x4
 1488 0505 0A       		.byte	0xa
 1489 0506 38       		.byte	0x38
 1490 0507 18050000 		.4byte	0x518
 1491 050b 07       		.uleb128 0x7
 1492 050c B5050000 		.4byte	.LASF84
 1493 0510 0A       		.byte	0xa
 1494 0511 3C       		.byte	0x3c
 1495 0512 D3000000 		.4byte	0xd3
 1496 0516 00       		.byte	0
 1497 0517 00       		.byte	0
 1498 0518 03       		.uleb128 0x3
 1499 0519 B0030000 		.4byte	.LASF85
 1500 051d 0A       		.byte	0xa
 1501 051e 3D       		.byte	0x3d
 1502 051f 03050000 		.4byte	0x503
 1503 0523 12       		.uleb128 0x12
 1504 0524 04       		.byte	0x4
 1505 0525 07       		.byte	0x7
 1506 0526 FA       		.byte	0xfa
 1507 0527 80050000 		.4byte	0x580
 1508 052b 13       		.uleb128 0x13
 1509 052c F4000000 		.4byte	.LASF86
 1510 0530 07       		.byte	0x7
 1511 0531 0101     		.2byte	0x101
 1512 0533 0A010000 		.4byte	0x10a
 1513 0537 13       		.uleb128 0x13
 1514 0538 4D010000 		.4byte	.LASF87
 1515 053c 07       		.byte	0x7
 1516 053d 0801     		.2byte	0x108
 1517 053f 0A010000 		.4byte	0x10a
 1518 0543 13       		.uleb128 0x13
 1519 0544 40060000 		.4byte	.LASF88
 1520 0548 07       		.byte	0x7
 1521 0549 0F01     		.2byte	0x10f
 1522 054b 16030000 		.4byte	0x316
 1523 054f 13       		.uleb128 0x13
 1524 0550 09020000 		.4byte	.LASF89
 1525 0554 07       		.byte	0x7
ARM GAS  /var/folders/c6/c789hm653lg9vtl73krp73tm0000gn/T//ccj6qQHm.s 			page 52


 1526 0555 1601     		.2byte	0x116
 1527 0557 80050000 		.4byte	0x580
 1528 055b 13       		.uleb128 0x13
 1529 055c A7020000 		.4byte	.LASF90
 1530 0560 07       		.byte	0x7
 1531 0561 1E01     		.2byte	0x11e
 1532 0563 AB050000 		.4byte	0x5ab
 1533 0567 13       		.uleb128 0x13
 1534 0568 D6040000 		.4byte	.LASF91
 1535 056c 07       		.byte	0x7
 1536 056d 2701     		.2byte	0x127
 1537 056f E2050000 		.4byte	0x5e2
 1538 0573 13       		.uleb128 0x13
 1539 0574 7A040000 		.4byte	.LASF92
 1540 0578 07       		.byte	0x7
 1541 0579 2F01     		.2byte	0x12f
 1542 057b 15010000 		.4byte	0x115
 1543 057f 00       		.byte	0
 1544 0580 0A       		.uleb128 0xa
 1545 0581 04       		.byte	0x4
 1546 0582 2E020000 		.4byte	0x22e
 1547 0586 06       		.uleb128 0x6
 1548 0587 B5040000 		.4byte	.LASF93
 1549 058b 0C       		.byte	0xc
 1550 058c 0B       		.byte	0xb
 1551 058d 34       		.byte	0x34
 1552 058e AB050000 		.4byte	0x5ab
 1553 0592 07       		.uleb128 0x7
 1554 0593 48020000 		.4byte	.LASF94
 1555 0597 0B       		.byte	0xb
 1556 0598 35       		.byte	0x35
 1557 0599 63020000 		.4byte	0x263
 1558 059d 00       		.byte	0
 1559 059e 07       		.uleb128 0x7
 1560 059f C7020000 		.4byte	.LASF95
 1561 05a3 0B       		.byte	0xb
 1562 05a4 37       		.byte	0x37
 1563 05a5 20010000 		.4byte	0x120
 1564 05a9 08       		.byte	0x8
 1565 05aa 00       		.byte	0
 1566 05ab 0A       		.uleb128 0xa
 1567 05ac 04       		.byte	0x4
 1568 05ad 86050000 		.4byte	0x586
 1569 05b1 06       		.uleb128 0x6
 1570 05b2 F1050000 		.4byte	.LASF96
 1571 05b6 10       		.byte	0x10
 1572 05b7 0C       		.byte	0xc
 1573 05b8 39       		.byte	0x39
 1574 05b9 E2050000 		.4byte	0x5e2
 1575 05bd 07       		.uleb128 0x7
 1576 05be DE010000 		.4byte	.LASF97
 1577 05c2 0C       		.byte	0xc
 1578 05c3 3A       		.byte	0x3a
 1579 05c4 63020000 		.4byte	0x263
 1580 05c8 00       		.byte	0
 1581 05c9 07       		.uleb128 0x7
 1582 05ca 75060000 		.4byte	.LASF98
ARM GAS  /var/folders/c6/c789hm653lg9vtl73krp73tm0000gn/T//ccj6qQHm.s 			page 53


 1583 05ce 0C       		.byte	0xc
 1584 05cf 3C       		.byte	0x3c
 1585 05d0 39020000 		.4byte	0x239
 1586 05d4 08       		.byte	0x8
 1587 05d5 07       		.uleb128 0x7
 1588 05d6 7B050000 		.4byte	.LASF99
 1589 05da 0C       		.byte	0xc
 1590 05db 3E       		.byte	0x3e
 1591 05dc 20060000 		.4byte	0x620
 1592 05e0 0C       		.byte	0xc
 1593 05e1 00       		.byte	0
 1594 05e2 0A       		.uleb128 0xa
 1595 05e3 04       		.byte	0x4
 1596 05e4 B1050000 		.4byte	0x5b1
 1597 05e8 0A       		.uleb128 0xa
 1598 05e9 04       		.byte	0x4
 1599 05ea EE050000 		.4byte	0x5ee
 1600 05ee 14       		.uleb128 0x14
 1601 05ef F3050000 		.4byte	0x5f3
 1602 05f3 04       		.uleb128 0x4
 1603 05f4 01       		.byte	0x1
 1604 05f5 08       		.byte	0x8
 1605 05f6 60050000 		.4byte	.LASF100
 1606 05fa 0A       		.uleb128 0xa
 1607 05fb 04       		.byte	0x4
 1608 05fc 18030000 		.4byte	0x318
 1609 0600 05       		.uleb128 0x5
 1610 0601 E8050000 		.4byte	0x5e8
 1611 0605 15       		.uleb128 0x15
 1612 0606 5E040000 		.4byte	0x45e
 1613 060a 15060000 		.4byte	0x615
 1614 060e 16       		.uleb128 0x16
 1615 060f 4C040000 		.4byte	0x44c
 1616 0613 1A       		.byte	0x1a
 1617 0614 00       		.byte	0
 1618 0615 03       		.uleb128 0x3
 1619 0616 AE010000 		.4byte	.LASF101
 1620 061a 0C       		.byte	0xc
 1621 061b 34       		.byte	0x34
 1622 061c B1050000 		.4byte	0x5b1
 1623 0620 0A       		.uleb128 0xa
 1624 0621 04       		.byte	0x4
 1625 0622 15060000 		.4byte	0x615
 1626 0626 03       		.uleb128 0x3
 1627 0627 29010000 		.4byte	.LASF102
 1628 062b 0D       		.byte	0xd
 1629 062c 36       		.byte	0x36
 1630 062d 31060000 		.4byte	0x631
 1631 0631 0A       		.uleb128 0xa
 1632 0632 04       		.byte	0x4
 1633 0633 37060000 		.4byte	0x637
 1634 0637 17       		.uleb128 0x17
 1635 0638 16030000 		.4byte	0x316
 1636 063c 46060000 		.4byte	0x646
 1637 0640 0D       		.uleb128 0xd
 1638 0641 2C000000 		.4byte	0x2c
 1639 0645 00       		.byte	0
ARM GAS  /var/folders/c6/c789hm653lg9vtl73krp73tm0000gn/T//ccj6qQHm.s 			page 54


 1640 0646 03       		.uleb128 0x3
 1641 0647 2B020000 		.4byte	.LASF103
 1642 064b 0E       		.byte	0xe
 1643 064c 3C       		.byte	0x3c
 1644 064d 51060000 		.4byte	0x651
 1645 0651 06       		.uleb128 0x6
 1646 0652 8B060000 		.4byte	.LASF104
 1647 0656 20       		.byte	0x20
 1648 0657 0E       		.byte	0xe
 1649 0658 4F       		.byte	0x4f
 1650 0659 82060000 		.4byte	0x682
 1651 065d 07       		.uleb128 0x7
 1652 065e 35060000 		.4byte	.LASF105
 1653 0662 0E       		.byte	0xe
 1654 0663 50       		.byte	0x50
 1655 0664 26060000 		.4byte	0x626
 1656 0668 00       		.byte	0
 1657 0669 07       		.uleb128 0x7
 1658 066a 56010000 		.4byte	.LASF106
 1659 066e 0E       		.byte	0xe
 1660 066f 52       		.byte	0x52
 1661 0670 A1060000 		.4byte	0x6a1
 1662 0674 08       		.byte	0x8
 1663 0675 07       		.uleb128 0x7
 1664 0676 D0010000 		.4byte	.LASF107
 1665 067a 0E       		.byte	0xe
 1666 067b 54       		.byte	0x54
 1667 067c 15060000 		.4byte	0x615
 1668 0680 10       		.byte	0x10
 1669 0681 00       		.byte	0
 1670 0682 12       		.uleb128 0x12
 1671 0683 04       		.byte	0x4
 1672 0684 0E       		.byte	0xe
 1673 0685 44       		.byte	0x44
 1674 0686 A1060000 		.4byte	0x6a1
 1675 068a 18       		.uleb128 0x18
 1676 068b 85010000 		.4byte	.LASF108
 1677 068f 0E       		.byte	0xe
 1678 0690 45       		.byte	0x45
 1679 0691 C2060000 		.4byte	0x6c2
 1680 0695 18       		.uleb128 0x18
 1681 0696 FE040000 		.4byte	.LASF109
 1682 069a 0E       		.byte	0xe
 1683 069b 46       		.byte	0x46
 1684 069c C8060000 		.4byte	0x6c8
 1685 06a0 00       		.byte	0
 1686 06a1 19       		.uleb128 0x19
 1687 06a2 4B040000 		.4byte	.LASF117
 1688 06a6 08       		.byte	0x8
 1689 06a7 0E       		.byte	0xe
 1690 06a8 41       		.byte	0x41
 1691 06a9 C2060000 		.4byte	0x6c2
 1692 06ad 18       		.uleb128 0x18
 1693 06ae 77020000 		.4byte	.LASF110
 1694 06b2 0E       		.byte	0xe
 1695 06b3 42       		.byte	0x42
 1696 06b4 5E040000 		.4byte	0x45e
ARM GAS  /var/folders/c6/c789hm653lg9vtl73krp73tm0000gn/T//ccj6qQHm.s 			page 55


 1697 06b8 1A       		.uleb128 0x1a
 1698 06b9 6800     		.ascii	"h\000"
 1699 06bb 0E       		.byte	0xe
 1700 06bc 49       		.byte	0x49
 1701 06bd CE060000 		.4byte	0x6ce
 1702 06c1 00       		.byte	0
 1703 06c2 0A       		.uleb128 0xa
 1704 06c3 04       		.byte	0x4
 1705 06c4 A1060000 		.4byte	0x6a1
 1706 06c8 0A       		.uleb128 0xa
 1707 06c9 04       		.byte	0x4
 1708 06ca 46060000 		.4byte	0x646
 1709 06ce 11       		.uleb128 0x11
 1710 06cf 08       		.byte	0x8
 1711 06d0 0E       		.byte	0xe
 1712 06d1 43       		.byte	0x43
 1713 06d2 ED060000 		.4byte	0x6ed
 1714 06d6 10       		.uleb128 0x10
 1715 06d7 7500     		.ascii	"u\000"
 1716 06d9 0E       		.byte	0xe
 1717 06da 47       		.byte	0x47
 1718 06db 82060000 		.4byte	0x682
 1719 06df 00       		.byte	0
 1720 06e0 07       		.uleb128 0x7
 1721 06e1 4E060000 		.4byte	.LASF111
 1722 06e5 0E       		.byte	0xe
 1723 06e6 48       		.byte	0x48
 1724 06e7 2C000000 		.4byte	0x2c
 1725 06eb 04       		.byte	0x4
 1726 06ec 00       		.byte	0
 1727 06ed 06       		.uleb128 0x6
 1728 06ee AC040000 		.4byte	.LASF112
 1729 06f2 10       		.byte	0x10
 1730 06f3 0F       		.byte	0xf
 1731 06f4 3B       		.byte	0x3b
 1732 06f5 2A070000 		.4byte	0x72a
 1733 06f9 07       		.uleb128 0x7
 1734 06fa C2020000 		.4byte	.LASF113
 1735 06fe 0F       		.byte	0xf
 1736 06ff 3C       		.byte	0x3c
 1737 0700 E8050000 		.4byte	0x5e8
 1738 0704 00       		.byte	0
 1739 0705 07       		.uleb128 0x7
 1740 0706 C1030000 		.4byte	.LASF114
 1741 070a 0F       		.byte	0xf
 1742 070b 3D       		.byte	0x3d
 1743 070c 2B070000 		.4byte	0x72b
 1744 0710 04       		.byte	0x4
 1745 0711 07       		.uleb128 0x7
 1746 0712 B9020000 		.4byte	.LASF115
 1747 0716 0F       		.byte	0xf
 1748 0717 3E       		.byte	0x3e
 1749 0718 2B070000 		.4byte	0x72b
 1750 071c 08       		.byte	0x8
 1751 071d 07       		.uleb128 0x7
 1752 071e 03040000 		.4byte	.LASF116
 1753 0722 0F       		.byte	0xf
ARM GAS  /var/folders/c6/c789hm653lg9vtl73krp73tm0000gn/T//ccj6qQHm.s 			page 56


 1754 0723 3F       		.byte	0x3f
 1755 0724 2B070000 		.4byte	0x72b
 1756 0728 0C       		.byte	0xc
 1757 0729 00       		.byte	0
 1758 072a 1B       		.uleb128 0x1b
 1759 072b 0A       		.uleb128 0xa
 1760 072c 04       		.byte	0x4
 1761 072d 2A070000 		.4byte	0x72a
 1762 0731 1C       		.uleb128 0x1c
 1763 0732 6806     		.2byte	0x668
 1764 0734 0F       		.byte	0xf
 1765 0735 44       		.byte	0x44
 1766 0736 76070000 		.4byte	0x776
 1767 073a 10       		.uleb128 0x10
 1768 073b 543000   		.ascii	"T0\000"
 1769 073e 0F       		.byte	0xf
 1770 073f 45       		.byte	0x45
 1771 0740 76070000 		.4byte	0x776
 1772 0744 00       		.byte	0
 1773 0745 1D       		.uleb128 0x1d
 1774 0746 543100   		.ascii	"T1\000"
 1775 0749 0F       		.byte	0xf
 1776 074a 46       		.byte	0x46
 1777 074b 76070000 		.4byte	0x776
 1778 074f 4801     		.2byte	0x148
 1779 0751 1D       		.uleb128 0x1d
 1780 0752 543200   		.ascii	"T2\000"
 1781 0755 0F       		.byte	0xf
 1782 0756 47       		.byte	0x47
 1783 0757 76070000 		.4byte	0x776
 1784 075b 9002     		.2byte	0x290
 1785 075d 1D       		.uleb128 0x1d
 1786 075e 543300   		.ascii	"T3\000"
 1787 0761 0F       		.byte	0xf
 1788 0762 48       		.byte	0x48
 1789 0763 76070000 		.4byte	0x776
 1790 0767 D803     		.2byte	0x3d8
 1791 0769 1D       		.uleb128 0x1d
 1792 076a 543400   		.ascii	"T4\000"
 1793 076d 0F       		.byte	0xf
 1794 076e 49       		.byte	0x49
 1795 076f 76070000 		.4byte	0x776
 1796 0773 2005     		.2byte	0x520
 1797 0775 00       		.byte	0
 1798 0776 15       		.uleb128 0x15
 1799 0777 5E040000 		.4byte	0x45e
 1800 077b 86070000 		.4byte	0x786
 1801 077f 16       		.uleb128 0x16
 1802 0780 4C040000 		.4byte	0x44c
 1803 0784 28       		.byte	0x28
 1804 0785 00       		.byte	0
 1805 0786 1E       		.uleb128 0x1e
 1806 0787 E4050000 		.4byte	.LASF118
 1807 078b 6806     		.2byte	0x668
 1808 078d 0F       		.byte	0xf
 1809 078e 43       		.byte	0x43
 1810 078f A9070000 		.4byte	0x7a9
ARM GAS  /var/folders/c6/c789hm653lg9vtl73krp73tm0000gn/T//ccj6qQHm.s 			page 57


 1811 0793 1A       		.uleb128 0x1a
 1812 0794 776100   		.ascii	"wa\000"
 1813 0797 0F       		.byte	0xf
 1814 0798 4A       		.byte	0x4a
 1815 0799 31070000 		.4byte	0x731
 1816 079d 18       		.uleb128 0x18
 1817 079e 39020000 		.4byte	.LASF119
 1818 07a2 0F       		.byte	0xf
 1819 07a3 4B       		.byte	0x4b
 1820 07a4 A9070000 		.4byte	0x7a9
 1821 07a8 00       		.byte	0
 1822 07a9 15       		.uleb128 0x15
 1823 07aa A2000000 		.4byte	0xa2
 1824 07ae BA070000 		.4byte	0x7ba
 1825 07b2 1F       		.uleb128 0x1f
 1826 07b3 4C040000 		.4byte	0x44c
 1827 07b7 6706     		.2byte	0x667
 1828 07b9 00       		.byte	0
 1829 07ba 20       		.uleb128 0x20
 1830 07bb 69020000 		.4byte	.LASF120
 1831 07bf 01       		.byte	0x1
 1832 07c0 45       		.byte	0x45
 1833 07c1 00000000 		.4byte	.LFB230
 1834 07c5 44020000 		.4byte	.LFE230-.LFB230
 1835 07c9 01       		.uleb128 0x1
 1836 07ca 9C       		.byte	0x9c
 1837 07cb 2E0D0000 		.4byte	0xd2e
 1838 07cf 21       		.uleb128 0x21
 1839 07d0 703100   		.ascii	"p1\000"
 1840 07d3 01       		.byte	0x1
 1841 07d4 46       		.byte	0x46
 1842 07d5 16030000 		.4byte	0x316
 1843 07d9 00000000 		.4byte	.LLST0
 1844 07dd 21       		.uleb128 0x21
 1845 07de 703200   		.ascii	"p2\000"
 1846 07e1 01       		.byte	0x1
 1847 07e2 46       		.byte	0x46
 1848 07e3 16030000 		.4byte	0x316
 1849 07e7 C3000000 		.4byte	.LLST1
 1850 07eb 21       		.uleb128 0x21
 1851 07ec 703300   		.ascii	"p3\000"
 1852 07ef 01       		.byte	0x1
 1853 07f0 46       		.byte	0x46
 1854 07f1 16030000 		.4byte	0x316
 1855 07f5 2E010000 		.4byte	.LLST2
 1856 07f9 22       		.uleb128 0x22
 1857 07fa 6E00     		.ascii	"n\000"
 1858 07fc 01       		.byte	0x1
 1859 07fd 47       		.byte	0x47
 1860 07fe 2C000000 		.4byte	0x2c
 1861 0802 02       		.uleb128 0x2
 1862 0803 91       		.byte	0x91
 1863 0804 68       		.sleb128 -24
 1864 0805 22       		.uleb128 0x22
 1865 0806 737A00   		.ascii	"sz\000"
 1866 0809 01       		.byte	0x1
 1867 080a 47       		.byte	0x47
ARM GAS  /var/folders/c6/c789hm653lg9vtl73krp73tm0000gn/T//ccj6qQHm.s 			page 58


 1868 080b 2C000000 		.4byte	0x2c
 1869 080f 02       		.uleb128 0x2
 1870 0810 91       		.byte	0x91
 1871 0811 6C       		.sleb128 -20
 1872 0812 23       		.uleb128 0x23
 1873 0813 08000000 		.4byte	.LVL0
 1874 0817 D30D0000 		.4byte	0xdd3
 1875 081b 24       		.uleb128 0x24
 1876 081c 10000000 		.4byte	.LVL1
 1877 0820 DE0D0000 		.4byte	0xdde
 1878 0824 34080000 		.4byte	0x834
 1879 0828 25       		.uleb128 0x25
 1880 0829 01       		.uleb128 0x1
 1881 082a 51       		.byte	0x51
 1882 082b 02       		.uleb128 0x2
 1883 082c 91       		.byte	0x91
 1884 082d 6C       		.sleb128 -20
 1885 082e 25       		.uleb128 0x25
 1886 082f 01       		.uleb128 0x1
 1887 0830 50       		.byte	0x50
 1888 0831 01       		.uleb128 0x1
 1889 0832 30       		.byte	0x30
 1890 0833 00       		.byte	0
 1891 0834 24       		.uleb128 0x24
 1892 0835 18000000 		.4byte	.LVL2
 1893 0839 FE0D0000 		.4byte	0xdfe
 1894 083d 4C080000 		.4byte	0x84c
 1895 0841 25       		.uleb128 0x25
 1896 0842 01       		.uleb128 0x1
 1897 0843 51       		.byte	0x51
 1898 0844 01       		.uleb128 0x1
 1899 0845 40       		.byte	0x40
 1900 0846 25       		.uleb128 0x25
 1901 0847 01       		.uleb128 0x1
 1902 0848 50       		.byte	0x50
 1903 0849 01       		.uleb128 0x1
 1904 084a 30       		.byte	0x30
 1905 084b 00       		.byte	0
 1906 084c 24       		.uleb128 0x24
 1907 084d 26000000 		.4byte	.LVL4
 1908 0851 180E0000 		.4byte	0xe18
 1909 0855 6F080000 		.4byte	0x86f
 1910 0859 25       		.uleb128 0x25
 1911 085a 01       		.uleb128 0x1
 1912 085b 51       		.byte	0x51
 1913 085c 0C       		.uleb128 0xc
 1914 085d 31       		.byte	0x31
 1915 085e 74       		.byte	0x74
 1916 085f 00       		.sleb128 0
 1917 0860 74       		.byte	0x74
 1918 0861 00       		.sleb128 0
 1919 0862 30       		.byte	0x30
 1920 0863 2E       		.byte	0x2e
 1921 0864 28       		.byte	0x28
 1922 0865 0100     		.2byte	0x1
 1923 0867 16       		.byte	0x16
 1924 0868 13       		.byte	0x13
ARM GAS  /var/folders/c6/c789hm653lg9vtl73krp73tm0000gn/T//ccj6qQHm.s 			page 59


 1925 0869 25       		.uleb128 0x25
 1926 086a 01       		.uleb128 0x1
 1927 086b 50       		.byte	0x50
 1928 086c 01       		.uleb128 0x1
 1929 086d 31       		.byte	0x31
 1930 086e 00       		.byte	0
 1931 086f 24       		.uleb128 0x24
 1932 0870 34000000 		.4byte	.LVL7
 1933 0874 390E0000 		.4byte	0xe39
 1934 0878 83080000 		.4byte	0x883
 1935 087c 25       		.uleb128 0x25
 1936 087d 01       		.uleb128 0x1
 1937 087e 50       		.byte	0x50
 1938 087f 02       		.uleb128 0x2
 1939 0880 74       		.byte	0x74
 1940 0881 00       		.sleb128 0
 1941 0882 00       		.byte	0
 1942 0883 24       		.uleb128 0x24
 1943 0884 3E000000 		.4byte	.LVL8
 1944 0888 FE0D0000 		.4byte	0xdfe
 1945 088c 9E080000 		.4byte	0x89e
 1946 0890 25       		.uleb128 0x25
 1947 0891 01       		.uleb128 0x1
 1948 0892 51       		.byte	0x51
 1949 0893 03       		.uleb128 0x3
 1950 0894 0B       		.byte	0xb
 1951 0895 00FF     		.2byte	0xff00
 1952 0897 25       		.uleb128 0x25
 1953 0898 01       		.uleb128 0x1
 1954 0899 50       		.byte	0x50
 1955 089a 02       		.uleb128 0x2
 1956 089b 75       		.byte	0x75
 1957 089c 00       		.sleb128 0
 1958 089d 00       		.byte	0
 1959 089e 24       		.uleb128 0x24
 1960 089f 4C000000 		.4byte	.LVL10
 1961 08a3 180E0000 		.4byte	0xe18
 1962 08a7 B1080000 		.4byte	0x8b1
 1963 08ab 25       		.uleb128 0x25
 1964 08ac 01       		.uleb128 0x1
 1965 08ad 50       		.byte	0x50
 1966 08ae 01       		.uleb128 0x1
 1967 08af 32       		.byte	0x32
 1968 08b0 00       		.byte	0
 1969 08b1 24       		.uleb128 0x24
 1970 08b2 58000000 		.4byte	.LVL11
 1971 08b6 DE0D0000 		.4byte	0xdde
 1972 08ba CE080000 		.4byte	0x8ce
 1973 08be 25       		.uleb128 0x25
 1974 08bf 01       		.uleb128 0x1
 1975 08c0 51       		.byte	0x51
 1976 08c1 02       		.uleb128 0x2
 1977 08c2 91       		.byte	0x91
 1978 08c3 6C       		.sleb128 -20
 1979 08c4 25       		.uleb128 0x25
 1980 08c5 01       		.uleb128 0x1
 1981 08c6 50       		.byte	0x50
ARM GAS  /var/folders/c6/c789hm653lg9vtl73krp73tm0000gn/T//ccj6qQHm.s 			page 60


 1982 08c7 05       		.uleb128 0x5
 1983 08c8 03       		.byte	0x3
 1984 08c9 00000000 		.4byte	.LANCHOR0
 1985 08cd 00       		.byte	0
 1986 08ce 24       		.uleb128 0x24
 1987 08cf 60000000 		.4byte	.LVL12
 1988 08d3 FE0D0000 		.4byte	0xdfe
 1989 08d7 EA080000 		.4byte	0x8ea
 1990 08db 25       		.uleb128 0x25
 1991 08dc 01       		.uleb128 0x1
 1992 08dd 51       		.byte	0x51
 1993 08de 01       		.uleb128 0x1
 1994 08df 40       		.byte	0x40
 1995 08e0 25       		.uleb128 0x25
 1996 08e1 01       		.uleb128 0x1
 1997 08e2 50       		.byte	0x50
 1998 08e3 05       		.uleb128 0x5
 1999 08e4 03       		.byte	0x3
 2000 08e5 00000000 		.4byte	.LANCHOR0
 2001 08e9 00       		.byte	0
 2002 08ea 24       		.uleb128 0x24
 2003 08eb 6A000000 		.4byte	.LVL15
 2004 08ef FE0D0000 		.4byte	0xdfe
 2005 08f3 06090000 		.4byte	0x906
 2006 08f7 25       		.uleb128 0x25
 2007 08f8 01       		.uleb128 0x1
 2008 08f9 51       		.byte	0x51
 2009 08fa 01       		.uleb128 0x1
 2010 08fb 40       		.byte	0x40
 2011 08fc 25       		.uleb128 0x25
 2012 08fd 01       		.uleb128 0x1
 2013 08fe 50       		.byte	0x50
 2014 08ff 05       		.uleb128 0x5
 2015 0900 03       		.byte	0x3
 2016 0901 00000000 		.4byte	.LANCHOR0
 2017 0905 00       		.byte	0
 2018 0906 24       		.uleb128 0x24
 2019 0907 74000000 		.4byte	.LVL18
 2020 090b FE0D0000 		.4byte	0xdfe
 2021 090f 22090000 		.4byte	0x922
 2022 0913 25       		.uleb128 0x25
 2023 0914 01       		.uleb128 0x1
 2024 0915 51       		.byte	0x51
 2025 0916 01       		.uleb128 0x1
 2026 0917 40       		.byte	0x40
 2027 0918 25       		.uleb128 0x25
 2028 0919 01       		.uleb128 0x1
 2029 091a 50       		.byte	0x50
 2030 091b 05       		.uleb128 0x5
 2031 091c 03       		.byte	0x3
 2032 091d 00000000 		.4byte	.LANCHOR0
 2033 0921 00       		.byte	0
 2034 0922 24       		.uleb128 0x24
 2035 0923 7C000000 		.4byte	.LVL21
 2036 0927 390E0000 		.4byte	0xe39
 2037 092b 36090000 		.4byte	0x936
 2038 092f 25       		.uleb128 0x25
ARM GAS  /var/folders/c6/c789hm653lg9vtl73krp73tm0000gn/T//ccj6qQHm.s 			page 61


 2039 0930 01       		.uleb128 0x1
 2040 0931 50       		.byte	0x50
 2041 0932 02       		.uleb128 0x2
 2042 0933 75       		.byte	0x75
 2043 0934 00       		.sleb128 0
 2044 0935 00       		.byte	0
 2045 0936 24       		.uleb128 0x24
 2046 0937 82000000 		.4byte	.LVL22
 2047 093b 390E0000 		.4byte	0xe39
 2048 093f 4A090000 		.4byte	0x94a
 2049 0943 25       		.uleb128 0x25
 2050 0944 01       		.uleb128 0x1
 2051 0945 50       		.byte	0x50
 2052 0946 02       		.uleb128 0x2
 2053 0947 74       		.byte	0x74
 2054 0948 00       		.sleb128 0
 2055 0949 00       		.byte	0
 2056 094a 24       		.uleb128 0x24
 2057 094b 88000000 		.4byte	.LVL23
 2058 094f 390E0000 		.4byte	0xe39
 2059 0953 5E090000 		.4byte	0x95e
 2060 0957 25       		.uleb128 0x25
 2061 0958 01       		.uleb128 0x1
 2062 0959 50       		.byte	0x50
 2063 095a 02       		.uleb128 0x2
 2064 095b 76       		.byte	0x76
 2065 095c 00       		.sleb128 0
 2066 095d 00       		.byte	0
 2067 095e 24       		.uleb128 0x24
 2068 095f 90000000 		.4byte	.LVL24
 2069 0963 DE0D0000 		.4byte	0xdde
 2070 0967 7B090000 		.4byte	0x97b
 2071 096b 25       		.uleb128 0x25
 2072 096c 01       		.uleb128 0x1
 2073 096d 51       		.byte	0x51
 2074 096e 02       		.uleb128 0x2
 2075 096f 7D       		.byte	0x7d
 2076 0970 00       		.sleb128 0
 2077 0971 25       		.uleb128 0x25
 2078 0972 01       		.uleb128 0x1
 2079 0973 50       		.byte	0x50
 2080 0974 05       		.uleb128 0x5
 2081 0975 03       		.byte	0x3
 2082 0976 00000000 		.4byte	.LANCHOR0
 2083 097a 00       		.byte	0
 2084 097b 24       		.uleb128 0x24
 2085 097c 9C000000 		.4byte	.LVL25
 2086 0980 180E0000 		.4byte	0xe18
 2087 0984 8E090000 		.4byte	0x98e
 2088 0988 25       		.uleb128 0x25
 2089 0989 01       		.uleb128 0x1
 2090 098a 50       		.byte	0x50
 2091 098b 01       		.uleb128 0x1
 2092 098c 33       		.byte	0x33
 2093 098d 00       		.byte	0
 2094 098e 24       		.uleb128 0x24
 2095 098f A8000000 		.4byte	.LVL26
ARM GAS  /var/folders/c6/c789hm653lg9vtl73krp73tm0000gn/T//ccj6qQHm.s 			page 62


 2096 0993 FE0D0000 		.4byte	0xdfe
 2097 0997 AA090000 		.4byte	0x9aa
 2098 099b 25       		.uleb128 0x25
 2099 099c 01       		.uleb128 0x1
 2100 099d 51       		.byte	0x51
 2101 099e 01       		.uleb128 0x1
 2102 099f 40       		.byte	0x40
 2103 09a0 25       		.uleb128 0x25
 2104 09a1 01       		.uleb128 0x1
 2105 09a2 50       		.byte	0x50
 2106 09a3 05       		.uleb128 0x5
 2107 09a4 03       		.byte	0x3
 2108 09a5 00000000 		.4byte	.LANCHOR0
 2109 09a9 00       		.byte	0
 2110 09aa 24       		.uleb128 0x24
 2111 09ab B2000000 		.4byte	.LVL29
 2112 09af FE0D0000 		.4byte	0xdfe
 2113 09b3 C6090000 		.4byte	0x9c6
 2114 09b7 25       		.uleb128 0x25
 2115 09b8 01       		.uleb128 0x1
 2116 09b9 51       		.byte	0x51
 2117 09ba 01       		.uleb128 0x1
 2118 09bb 40       		.byte	0x40
 2119 09bc 25       		.uleb128 0x25
 2120 09bd 01       		.uleb128 0x1
 2121 09be 50       		.byte	0x50
 2122 09bf 05       		.uleb128 0x5
 2123 09c0 03       		.byte	0x3
 2124 09c1 00000000 		.4byte	.LANCHOR0
 2125 09c5 00       		.byte	0
 2126 09c6 24       		.uleb128 0x24
 2127 09c7 BC000000 		.4byte	.LVL32
 2128 09cb FE0D0000 		.4byte	0xdfe
 2129 09cf E2090000 		.4byte	0x9e2
 2130 09d3 25       		.uleb128 0x25
 2131 09d4 01       		.uleb128 0x1
 2132 09d5 51       		.byte	0x51
 2133 09d6 01       		.uleb128 0x1
 2134 09d7 40       		.byte	0x40
 2135 09d8 25       		.uleb128 0x25
 2136 09d9 01       		.uleb128 0x1
 2137 09da 50       		.byte	0x50
 2138 09db 05       		.uleb128 0x5
 2139 09dc 03       		.byte	0x3
 2140 09dd 00000000 		.4byte	.LANCHOR0
 2141 09e1 00       		.byte	0
 2142 09e2 23       		.uleb128 0x23
 2143 09e3 C0000000 		.4byte	.LVL33
 2144 09e7 390E0000 		.4byte	0xe39
 2145 09eb 24       		.uleb128 0x24
 2146 09ec C6000000 		.4byte	.LVL34
 2147 09f0 390E0000 		.4byte	0xe39
 2148 09f4 FF090000 		.4byte	0x9ff
 2149 09f8 25       		.uleb128 0x25
 2150 09f9 01       		.uleb128 0x1
 2151 09fa 50       		.byte	0x50
 2152 09fb 02       		.uleb128 0x2
ARM GAS  /var/folders/c6/c789hm653lg9vtl73krp73tm0000gn/T//ccj6qQHm.s 			page 63


 2153 09fc 75       		.byte	0x75
 2154 09fd 00       		.sleb128 0
 2155 09fe 00       		.byte	0
 2156 09ff 24       		.uleb128 0x24
 2157 0a00 CC000000 		.4byte	.LVL35
 2158 0a04 390E0000 		.4byte	0xe39
 2159 0a08 130A0000 		.4byte	0xa13
 2160 0a0c 25       		.uleb128 0x25
 2161 0a0d 01       		.uleb128 0x1
 2162 0a0e 50       		.byte	0x50
 2163 0a0f 02       		.uleb128 0x2
 2164 0a10 74       		.byte	0x74
 2165 0a11 00       		.sleb128 0
 2166 0a12 00       		.byte	0
 2167 0a13 24       		.uleb128 0x24
 2168 0a14 D4000000 		.4byte	.LVL36
 2169 0a18 DE0D0000 		.4byte	0xdde
 2170 0a1c 300A0000 		.4byte	0xa30
 2171 0a20 25       		.uleb128 0x25
 2172 0a21 01       		.uleb128 0x1
 2173 0a22 51       		.byte	0x51
 2174 0a23 02       		.uleb128 0x2
 2175 0a24 7D       		.byte	0x7d
 2176 0a25 00       		.sleb128 0
 2177 0a26 25       		.uleb128 0x25
 2178 0a27 01       		.uleb128 0x1
 2179 0a28 50       		.byte	0x50
 2180 0a29 05       		.uleb128 0x5
 2181 0a2a 03       		.byte	0x3
 2182 0a2b 00000000 		.4byte	.LANCHOR0
 2183 0a2f 00       		.byte	0
 2184 0a30 24       		.uleb128 0x24
 2185 0a31 E0000000 		.4byte	.LVL37
 2186 0a35 180E0000 		.4byte	0xe18
 2187 0a39 430A0000 		.4byte	0xa43
 2188 0a3d 25       		.uleb128 0x25
 2189 0a3e 01       		.uleb128 0x1
 2190 0a3f 50       		.byte	0x50
 2191 0a40 01       		.uleb128 0x1
 2192 0a41 34       		.byte	0x34
 2193 0a42 00       		.byte	0
 2194 0a43 24       		.uleb128 0x24
 2195 0a44 EC000000 		.4byte	.LVL38
 2196 0a48 FE0D0000 		.4byte	0xdfe
 2197 0a4c 5F0A0000 		.4byte	0xa5f
 2198 0a50 25       		.uleb128 0x25
 2199 0a51 01       		.uleb128 0x1
 2200 0a52 51       		.byte	0x51
 2201 0a53 01       		.uleb128 0x1
 2202 0a54 41       		.byte	0x41
 2203 0a55 25       		.uleb128 0x25
 2204 0a56 01       		.uleb128 0x1
 2205 0a57 50       		.byte	0x50
 2206 0a58 05       		.uleb128 0x5
 2207 0a59 03       		.byte	0x3
 2208 0a5a 00000000 		.4byte	.LANCHOR0
 2209 0a5e 00       		.byte	0
ARM GAS  /var/folders/c6/c789hm653lg9vtl73krp73tm0000gn/T//ccj6qQHm.s 			page 64


 2210 0a5f 24       		.uleb128 0x24
 2211 0a60 F6000000 		.4byte	.LVL41
 2212 0a64 FE0D0000 		.4byte	0xdfe
 2213 0a68 7B0A0000 		.4byte	0xa7b
 2214 0a6c 25       		.uleb128 0x25
 2215 0a6d 01       		.uleb128 0x1
 2216 0a6e 51       		.byte	0x51
 2217 0a6f 01       		.uleb128 0x1
 2218 0a70 40       		.byte	0x40
 2219 0a71 25       		.uleb128 0x25
 2220 0a72 01       		.uleb128 0x1
 2221 0a73 50       		.byte	0x50
 2222 0a74 05       		.uleb128 0x5
 2223 0a75 03       		.byte	0x3
 2224 0a76 00000000 		.4byte	.LANCHOR0
 2225 0a7a 00       		.byte	0
 2226 0a7b 24       		.uleb128 0x24
 2227 0a7c FE000000 		.4byte	.LVL44
 2228 0a80 390E0000 		.4byte	0xe39
 2229 0a84 8F0A0000 		.4byte	0xa8f
 2230 0a88 25       		.uleb128 0x25
 2231 0a89 01       		.uleb128 0x1
 2232 0a8a 50       		.byte	0x50
 2233 0a8b 02       		.uleb128 0x2
 2234 0a8c 74       		.byte	0x74
 2235 0a8d 00       		.sleb128 0
 2236 0a8e 00       		.byte	0
 2237 0a8f 24       		.uleb128 0x24
 2238 0a90 06010000 		.4byte	.LVL45
 2239 0a94 DE0D0000 		.4byte	0xdde
 2240 0a98 AC0A0000 		.4byte	0xaac
 2241 0a9c 25       		.uleb128 0x25
 2242 0a9d 01       		.uleb128 0x1
 2243 0a9e 51       		.byte	0x51
 2244 0a9f 02       		.uleb128 0x2
 2245 0aa0 7D       		.byte	0x7d
 2246 0aa1 00       		.sleb128 0
 2247 0aa2 25       		.uleb128 0x25
 2248 0aa3 01       		.uleb128 0x1
 2249 0aa4 50       		.byte	0x50
 2250 0aa5 05       		.uleb128 0x5
 2251 0aa6 03       		.byte	0x3
 2252 0aa7 00000000 		.4byte	.LANCHOR0
 2253 0aab 00       		.byte	0
 2254 0aac 24       		.uleb128 0x24
 2255 0aad 18010000 		.4byte	.LVL46
 2256 0ab1 180E0000 		.4byte	0xe18
 2257 0ab5 BF0A0000 		.4byte	0xabf
 2258 0ab9 25       		.uleb128 0x25
 2259 0aba 01       		.uleb128 0x1
 2260 0abb 50       		.byte	0x50
 2261 0abc 01       		.uleb128 0x1
 2262 0abd 35       		.byte	0x35
 2263 0abe 00       		.byte	0
 2264 0abf 24       		.uleb128 0x24
 2265 0ac0 24010000 		.4byte	.LVL47
 2266 0ac4 FE0D0000 		.4byte	0xdfe
ARM GAS  /var/folders/c6/c789hm653lg9vtl73krp73tm0000gn/T//ccj6qQHm.s 			page 65


 2267 0ac8 DB0A0000 		.4byte	0xadb
 2268 0acc 25       		.uleb128 0x25
 2269 0acd 01       		.uleb128 0x1
 2270 0ace 51       		.byte	0x51
 2271 0acf 01       		.uleb128 0x1
 2272 0ad0 40       		.byte	0x40
 2273 0ad1 25       		.uleb128 0x25
 2274 0ad2 01       		.uleb128 0x1
 2275 0ad3 50       		.byte	0x50
 2276 0ad4 05       		.uleb128 0x5
 2277 0ad5 03       		.byte	0x3
 2278 0ad6 00000000 		.4byte	.LANCHOR0
 2279 0ada 00       		.byte	0
 2280 0adb 24       		.uleb128 0x24
 2281 0adc 2E010000 		.4byte	.LVL50
 2282 0ae0 DE0D0000 		.4byte	0xdde
 2283 0ae4 F80A0000 		.4byte	0xaf8
 2284 0ae8 25       		.uleb128 0x25
 2285 0ae9 01       		.uleb128 0x1
 2286 0aea 51       		.byte	0x51
 2287 0aeb 02       		.uleb128 0x2
 2288 0aec 7D       		.byte	0x7d
 2289 0aed 00       		.sleb128 0
 2290 0aee 25       		.uleb128 0x25
 2291 0aef 01       		.uleb128 0x1
 2292 0af0 50       		.byte	0x50
 2293 0af1 05       		.uleb128 0x5
 2294 0af2 03       		.byte	0x3
 2295 0af3 00000000 		.4byte	.LANCHOR0
 2296 0af7 00       		.byte	0
 2297 0af8 24       		.uleb128 0x24
 2298 0af9 3C010000 		.4byte	.LVL51
 2299 0afd DE0D0000 		.4byte	0xdde
 2300 0b01 150B0000 		.4byte	0xb15
 2301 0b05 25       		.uleb128 0x25
 2302 0b06 01       		.uleb128 0x1
 2303 0b07 51       		.byte	0x51
 2304 0b08 02       		.uleb128 0x2
 2305 0b09 7D       		.byte	0x7d
 2306 0b0a 00       		.sleb128 0
 2307 0b0b 25       		.uleb128 0x25
 2308 0b0c 01       		.uleb128 0x1
 2309 0b0d 50       		.byte	0x50
 2310 0b0e 05       		.uleb128 0x5
 2311 0b0f 03       		.byte	0x3
 2312 0b10 00000000 		.4byte	.LANCHOR0
 2313 0b14 00       		.byte	0
 2314 0b15 24       		.uleb128 0x24
 2315 0b16 4E010000 		.4byte	.LVL52
 2316 0b1a 180E0000 		.4byte	0xe18
 2317 0b1e 280B0000 		.4byte	0xb28
 2318 0b22 25       		.uleb128 0x25
 2319 0b23 01       		.uleb128 0x1
 2320 0b24 50       		.byte	0x50
 2321 0b25 01       		.uleb128 0x1
 2322 0b26 36       		.byte	0x36
 2323 0b27 00       		.byte	0
ARM GAS  /var/folders/c6/c789hm653lg9vtl73krp73tm0000gn/T//ccj6qQHm.s 			page 66


 2324 0b28 24       		.uleb128 0x24
 2325 0b29 5A010000 		.4byte	.LVL53
 2326 0b2d 390E0000 		.4byte	0xe39
 2327 0b31 3C0B0000 		.4byte	0xb3c
 2328 0b35 25       		.uleb128 0x25
 2329 0b36 01       		.uleb128 0x1
 2330 0b37 50       		.byte	0x50
 2331 0b38 02       		.uleb128 0x2
 2332 0b39 75       		.byte	0x75
 2333 0b3a 00       		.sleb128 0
 2334 0b3b 00       		.byte	0
 2335 0b3c 24       		.uleb128 0x24
 2336 0b3d 60010000 		.4byte	.LVL54
 2337 0b41 390E0000 		.4byte	0xe39
 2338 0b45 500B0000 		.4byte	0xb50
 2339 0b49 25       		.uleb128 0x25
 2340 0b4a 01       		.uleb128 0x1
 2341 0b4b 50       		.byte	0x50
 2342 0b4c 02       		.uleb128 0x2
 2343 0b4d 74       		.byte	0x74
 2344 0b4e 00       		.sleb128 0
 2345 0b4f 00       		.byte	0
 2346 0b50 24       		.uleb128 0x24
 2347 0b51 68010000 		.4byte	.LVL55
 2348 0b55 DE0D0000 		.4byte	0xdde
 2349 0b59 6D0B0000 		.4byte	0xb6d
 2350 0b5d 25       		.uleb128 0x25
 2351 0b5e 01       		.uleb128 0x1
 2352 0b5f 51       		.byte	0x51
 2353 0b60 02       		.uleb128 0x2
 2354 0b61 7D       		.byte	0x7d
 2355 0b62 00       		.sleb128 0
 2356 0b63 25       		.uleb128 0x25
 2357 0b64 01       		.uleb128 0x1
 2358 0b65 50       		.byte	0x50
 2359 0b66 05       		.uleb128 0x5
 2360 0b67 03       		.byte	0x3
 2361 0b68 00000000 		.4byte	.LANCHOR0
 2362 0b6c 00       		.byte	0
 2363 0b6d 24       		.uleb128 0x24
 2364 0b6e 74010000 		.4byte	.LVL56
 2365 0b72 180E0000 		.4byte	0xe18
 2366 0b76 880B0000 		.4byte	0xb88
 2367 0b7a 25       		.uleb128 0x25
 2368 0b7b 01       		.uleb128 0x1
 2369 0b7c 51       		.byte	0x51
 2370 0b7d 04       		.uleb128 0x4
 2371 0b7e 76       		.byte	0x76
 2372 0b7f 00       		.sleb128 0
 2373 0b80 30       		.byte	0x30
 2374 0b81 29       		.byte	0x29
 2375 0b82 25       		.uleb128 0x25
 2376 0b83 01       		.uleb128 0x1
 2377 0b84 50       		.byte	0x50
 2378 0b85 01       		.uleb128 0x1
 2379 0b86 37       		.byte	0x37
 2380 0b87 00       		.byte	0
ARM GAS  /var/folders/c6/c789hm653lg9vtl73krp73tm0000gn/T//ccj6qQHm.s 			page 67


 2381 0b88 24       		.uleb128 0x24
 2382 0b89 82010000 		.4byte	.LVL57
 2383 0b8d FE0D0000 		.4byte	0xdfe
 2384 0b91 A40B0000 		.4byte	0xba4
 2385 0b95 25       		.uleb128 0x25
 2386 0b96 01       		.uleb128 0x1
 2387 0b97 51       		.byte	0x51
 2388 0b98 01       		.uleb128 0x1
 2389 0b99 40       		.byte	0x40
 2390 0b9a 25       		.uleb128 0x25
 2391 0b9b 01       		.uleb128 0x1
 2392 0b9c 50       		.byte	0x50
 2393 0b9d 05       		.uleb128 0x5
 2394 0b9e 03       		.byte	0x3
 2395 0b9f 00000000 		.4byte	.LANCHOR0
 2396 0ba3 00       		.byte	0
 2397 0ba4 24       		.uleb128 0x24
 2398 0ba5 8C010000 		.4byte	.LVL60
 2399 0ba9 FE0D0000 		.4byte	0xdfe
 2400 0bad C00B0000 		.4byte	0xbc0
 2401 0bb1 25       		.uleb128 0x25
 2402 0bb2 01       		.uleb128 0x1
 2403 0bb3 51       		.byte	0x51
 2404 0bb4 01       		.uleb128 0x1
 2405 0bb5 40       		.byte	0x40
 2406 0bb6 25       		.uleb128 0x25
 2407 0bb7 01       		.uleb128 0x1
 2408 0bb8 50       		.byte	0x50
 2409 0bb9 05       		.uleb128 0x5
 2410 0bba 03       		.byte	0x3
 2411 0bbb 00000000 		.4byte	.LANCHOR0
 2412 0bbf 00       		.byte	0
 2413 0bc0 24       		.uleb128 0x24
 2414 0bc1 94010000 		.4byte	.LVL63
 2415 0bc5 390E0000 		.4byte	0xe39
 2416 0bc9 D40B0000 		.4byte	0xbd4
 2417 0bcd 25       		.uleb128 0x25
 2418 0bce 01       		.uleb128 0x1
 2419 0bcf 50       		.byte	0x50
 2420 0bd0 02       		.uleb128 0x2
 2421 0bd1 75       		.byte	0x75
 2422 0bd2 00       		.sleb128 0
 2423 0bd3 00       		.byte	0
 2424 0bd4 24       		.uleb128 0x24
 2425 0bd5 9C010000 		.4byte	.LVL64
 2426 0bd9 DE0D0000 		.4byte	0xdde
 2427 0bdd F10B0000 		.4byte	0xbf1
 2428 0be1 25       		.uleb128 0x25
 2429 0be2 01       		.uleb128 0x1
 2430 0be3 51       		.byte	0x51
 2431 0be4 02       		.uleb128 0x2
 2432 0be5 7D       		.byte	0x7d
 2433 0be6 00       		.sleb128 0
 2434 0be7 25       		.uleb128 0x25
 2435 0be8 01       		.uleb128 0x1
 2436 0be9 50       		.byte	0x50
 2437 0bea 05       		.uleb128 0x5
ARM GAS  /var/folders/c6/c789hm653lg9vtl73krp73tm0000gn/T//ccj6qQHm.s 			page 68


 2438 0beb 03       		.byte	0x3
 2439 0bec 00000000 		.4byte	.LANCHOR0
 2440 0bf0 00       		.byte	0
 2441 0bf1 24       		.uleb128 0x24
 2442 0bf2 A8010000 		.4byte	.LVL66
 2443 0bf6 180E0000 		.4byte	0xe18
 2444 0bfa 0C0C0000 		.4byte	0xc0c
 2445 0bfe 25       		.uleb128 0x25
 2446 0bff 01       		.uleb128 0x1
 2447 0c00 51       		.byte	0x51
 2448 0c01 04       		.uleb128 0x4
 2449 0c02 75       		.byte	0x75
 2450 0c03 00       		.sleb128 0
 2451 0c04 30       		.byte	0x30
 2452 0c05 29       		.byte	0x29
 2453 0c06 25       		.uleb128 0x25
 2454 0c07 01       		.uleb128 0x1
 2455 0c08 50       		.byte	0x50
 2456 0c09 01       		.uleb128 0x1
 2457 0c0a 38       		.byte	0x38
 2458 0c0b 00       		.byte	0
 2459 0c0c 24       		.uleb128 0x24
 2460 0c0d B6010000 		.4byte	.LVL67
 2461 0c11 FE0D0000 		.4byte	0xdfe
 2462 0c15 290C0000 		.4byte	0xc29
 2463 0c19 25       		.uleb128 0x25
 2464 0c1a 01       		.uleb128 0x1
 2465 0c1b 51       		.byte	0x51
 2466 0c1c 02       		.uleb128 0x2
 2467 0c1d 08       		.byte	0x8
 2468 0c1e 20       		.byte	0x20
 2469 0c1f 25       		.uleb128 0x25
 2470 0c20 01       		.uleb128 0x1
 2471 0c21 50       		.byte	0x50
 2472 0c22 05       		.uleb128 0x5
 2473 0c23 03       		.byte	0x3
 2474 0c24 00000000 		.4byte	.LANCHOR0
 2475 0c28 00       		.byte	0
 2476 0c29 23       		.uleb128 0x23
 2477 0c2a BA010000 		.4byte	.LVL68
 2478 0c2e 390E0000 		.4byte	0xe39
 2479 0c32 24       		.uleb128 0x24
 2480 0c33 C0010000 		.4byte	.LVL69
 2481 0c37 390E0000 		.4byte	0xe39
 2482 0c3b 460C0000 		.4byte	0xc46
 2483 0c3f 25       		.uleb128 0x25
 2484 0c40 01       		.uleb128 0x1
 2485 0c41 50       		.byte	0x50
 2486 0c42 02       		.uleb128 0x2
 2487 0c43 74       		.byte	0x74
 2488 0c44 00       		.sleb128 0
 2489 0c45 00       		.byte	0
 2490 0c46 24       		.uleb128 0x24
 2491 0c47 C8010000 		.4byte	.LVL70
 2492 0c4b DE0D0000 		.4byte	0xdde
 2493 0c4f 630C0000 		.4byte	0xc63
 2494 0c53 25       		.uleb128 0x25
ARM GAS  /var/folders/c6/c789hm653lg9vtl73krp73tm0000gn/T//ccj6qQHm.s 			page 69


 2495 0c54 01       		.uleb128 0x1
 2496 0c55 51       		.byte	0x51
 2497 0c56 02       		.uleb128 0x2
 2498 0c57 7D       		.byte	0x7d
 2499 0c58 00       		.sleb128 0
 2500 0c59 25       		.uleb128 0x25
 2501 0c5a 01       		.uleb128 0x1
 2502 0c5b 50       		.byte	0x50
 2503 0c5c 05       		.uleb128 0x5
 2504 0c5d 03       		.byte	0x3
 2505 0c5e 00000000 		.4byte	.LANCHOR0
 2506 0c62 00       		.byte	0
 2507 0c63 24       		.uleb128 0x24
 2508 0c64 D4010000 		.4byte	.LVL71
 2509 0c68 180E0000 		.4byte	0xe18
 2510 0c6c 760C0000 		.4byte	0xc76
 2511 0c70 25       		.uleb128 0x25
 2512 0c71 01       		.uleb128 0x1
 2513 0c72 50       		.byte	0x50
 2514 0c73 01       		.uleb128 0x1
 2515 0c74 39       		.byte	0x39
 2516 0c75 00       		.byte	0
 2517 0c76 24       		.uleb128 0x24
 2518 0c77 E2010000 		.4byte	.LVL72
 2519 0c7b DE0D0000 		.4byte	0xdde
 2520 0c7f 930C0000 		.4byte	0xc93
 2521 0c83 25       		.uleb128 0x25
 2522 0c84 01       		.uleb128 0x1
 2523 0c85 51       		.byte	0x51
 2524 0c86 02       		.uleb128 0x2
 2525 0c87 7D       		.byte	0x7d
 2526 0c88 00       		.sleb128 0
 2527 0c89 25       		.uleb128 0x25
 2528 0c8a 01       		.uleb128 0x1
 2529 0c8b 50       		.byte	0x50
 2530 0c8c 05       		.uleb128 0x5
 2531 0c8d 03       		.byte	0x3
 2532 0c8e 00000000 		.4byte	.LANCHOR0
 2533 0c92 00       		.byte	0
 2534 0c93 24       		.uleb128 0x24
 2535 0c94 EA010000 		.4byte	.LVL73
 2536 0c98 FE0D0000 		.4byte	0xdfe
 2537 0c9c AA0C0000 		.4byte	0xcaa
 2538 0ca0 25       		.uleb128 0x25
 2539 0ca1 01       		.uleb128 0x1
 2540 0ca2 50       		.byte	0x50
 2541 0ca3 05       		.uleb128 0x5
 2542 0ca4 03       		.byte	0x3
 2543 0ca5 00000000 		.4byte	.LANCHOR0
 2544 0ca9 00       		.byte	0
 2545 0caa 24       		.uleb128 0x24
 2546 0cab F4010000 		.4byte	.LVL76
 2547 0caf DE0D0000 		.4byte	0xdde
 2548 0cb3 C70C0000 		.4byte	0xcc7
 2549 0cb7 25       		.uleb128 0x25
 2550 0cb8 01       		.uleb128 0x1
 2551 0cb9 51       		.byte	0x51
ARM GAS  /var/folders/c6/c789hm653lg9vtl73krp73tm0000gn/T//ccj6qQHm.s 			page 70


 2552 0cba 02       		.uleb128 0x2
 2553 0cbb 7D       		.byte	0x7d
 2554 0cbc 00       		.sleb128 0
 2555 0cbd 25       		.uleb128 0x25
 2556 0cbe 01       		.uleb128 0x1
 2557 0cbf 50       		.byte	0x50
 2558 0cc0 05       		.uleb128 0x5
 2559 0cc1 03       		.byte	0x3
 2560 0cc2 00000000 		.4byte	.LANCHOR0
 2561 0cc6 00       		.byte	0
 2562 0cc7 24       		.uleb128 0x24
 2563 0cc8 02020000 		.4byte	.LVL77
 2564 0ccc 180E0000 		.4byte	0xe18
 2565 0cd0 DA0C0000 		.4byte	0xcda
 2566 0cd4 25       		.uleb128 0x25
 2567 0cd5 01       		.uleb128 0x1
 2568 0cd6 50       		.byte	0x50
 2569 0cd7 01       		.uleb128 0x1
 2570 0cd8 3A       		.byte	0x3a
 2571 0cd9 00       		.byte	0
 2572 0cda 24       		.uleb128 0x24
 2573 0cdb 0E020000 		.4byte	.LVL78
 2574 0cdf 390E0000 		.4byte	0xe39
 2575 0ce3 EE0C0000 		.4byte	0xcee
 2576 0ce7 25       		.uleb128 0x25
 2577 0ce8 01       		.uleb128 0x1
 2578 0ce9 50       		.byte	0x50
 2579 0cea 02       		.uleb128 0x2
 2580 0ceb 74       		.byte	0x74
 2581 0cec 00       		.sleb128 0
 2582 0ced 00       		.byte	0
 2583 0cee 24       		.uleb128 0x24
 2584 0cef 16020000 		.4byte	.LVL79
 2585 0cf3 DE0D0000 		.4byte	0xdde
 2586 0cf7 0B0D0000 		.4byte	0xd0b
 2587 0cfb 25       		.uleb128 0x25
 2588 0cfc 01       		.uleb128 0x1
 2589 0cfd 51       		.byte	0x51
 2590 0cfe 02       		.uleb128 0x2
 2591 0cff 7D       		.byte	0x7d
 2592 0d00 00       		.sleb128 0
 2593 0d01 25       		.uleb128 0x25
 2594 0d02 01       		.uleb128 0x1
 2595 0d03 50       		.byte	0x50
 2596 0d04 05       		.uleb128 0x5
 2597 0d05 03       		.byte	0x3
 2598 0d06 00000000 		.4byte	.LANCHOR0
 2599 0d0a 00       		.byte	0
 2600 0d0b 24       		.uleb128 0x24
 2601 0d0c 22020000 		.4byte	.LVL80
 2602 0d10 180E0000 		.4byte	0xe18
 2603 0d14 1E0D0000 		.4byte	0xd1e
 2604 0d18 25       		.uleb128 0x25
 2605 0d19 01       		.uleb128 0x1
 2606 0d1a 50       		.byte	0x50
 2607 0d1b 01       		.uleb128 0x1
 2608 0d1c 3B       		.byte	0x3b
ARM GAS  /var/folders/c6/c789hm653lg9vtl73krp73tm0000gn/T//ccj6qQHm.s 			page 71


 2609 0d1d 00       		.byte	0
 2610 0d1e 26       		.uleb128 0x26
 2611 0d1f 38020000 		.4byte	.LVL81
 2612 0d23 180E0000 		.4byte	0xe18
 2613 0d27 25       		.uleb128 0x25
 2614 0d28 01       		.uleb128 0x1
 2615 0d29 50       		.byte	0x50
 2616 0d2a 01       		.uleb128 0x1
 2617 0d2b 3C       		.byte	0x3c
 2618 0d2c 00       		.byte	0
 2619 0d2d 00       		.byte	0
 2620 0d2e 20       		.uleb128 0x20
 2621 0d2f 13040000 		.4byte	.LASF121
 2622 0d33 01       		.byte	0x1
 2623 0d34 40       		.byte	0x40
 2624 0d35 00000000 		.4byte	.LFB229
 2625 0d39 14000000 		.4byte	.LFE229-.LFB229
 2626 0d3d 01       		.uleb128 0x1
 2627 0d3e 9C       		.byte	0x9c
 2628 0d3f 5E0D0000 		.4byte	0xd5e
 2629 0d43 27       		.uleb128 0x27
 2630 0d44 0C000000 		.4byte	.LVL83
 2631 0d48 4A0E0000 		.4byte	0xe4a
 2632 0d4c 25       		.uleb128 0x25
 2633 0d4d 01       		.uleb128 0x1
 2634 0d4e 52       		.byte	0x52
 2635 0d4f 03       		.uleb128 0x3
 2636 0d50 0A       		.byte	0xa
 2637 0d51 6806     		.2byte	0x668
 2638 0d53 25       		.uleb128 0x25
 2639 0d54 01       		.uleb128 0x1
 2640 0d55 50       		.byte	0x50
 2641 0d56 05       		.uleb128 0x5
 2642 0d57 03       		.byte	0x3
 2643 0d58 00000000 		.4byte	.LANCHOR0
 2644 0d5c 00       		.byte	0
 2645 0d5d 00       		.byte	0
 2646 0d5e 28       		.uleb128 0x28
 2647 0d5f 0F060000 		.4byte	.LASF122
 2648 0d63 01       		.byte	0x1
 2649 0d64 33       		.byte	0x33
 2650 0d65 46060000 		.4byte	0x646
 2651 0d69 05       		.uleb128 0x5
 2652 0d6a 03       		.byte	0x3
 2653 0d6b 00000000 		.4byte	test_heap
 2654 0d6f 29       		.uleb128 0x29
 2655 0d70 78010000 		.4byte	.LASF123
 2656 0d74 10       		.byte	0x10
 2657 0d75 A706     		.2byte	0x6a7
 2658 0d77 CE000000 		.4byte	0xce
 2659 0d7b 2A       		.uleb128 0x2a
 2660 0d7c 636800   		.ascii	"ch\000"
 2661 0d7f 07       		.byte	0x7
 2662 0d80 0902     		.2byte	0x209
 2663 0d82 E5030000 		.4byte	0x3e5
 2664 0d86 2B       		.uleb128 0x2b
 2665 0d87 5D010000 		.4byte	.LASF124
ARM GAS  /var/folders/c6/c789hm653lg9vtl73krp73tm0000gn/T//ccj6qQHm.s 			page 72


 2666 0d8b 0F       		.byte	0xf
 2667 0d8c A8       		.byte	0xa8
 2668 0d8d 86070000 		.4byte	0x786
 2669 0d91 2C       		.uleb128 0x2c
 2670 0d92 3E030000 		.4byte	.LASF125
 2671 0d96 01       		.byte	0x1
 2672 0d97 8E       		.byte	0x8e
 2673 0d98 A20D0000 		.4byte	0xda2
 2674 0d9c 05       		.uleb128 0x5
 2675 0d9d 03       		.byte	0x3
 2676 0d9e 00000000 		.4byte	testheap1
 2677 0da2 14       		.uleb128 0x14
 2678 0da3 ED060000 		.4byte	0x6ed
 2679 0da7 15       		.uleb128 0x15
 2680 0da8 B70D0000 		.4byte	0xdb7
 2681 0dac B70D0000 		.4byte	0xdb7
 2682 0db0 16       		.uleb128 0x16
 2683 0db1 4C040000 		.4byte	0x44c
 2684 0db5 01       		.byte	0x1
 2685 0db6 00       		.byte	0
 2686 0db7 0A       		.uleb128 0xa
 2687 0db8 04       		.byte	0x4
 2688 0db9 A20D0000 		.4byte	0xda2
 2689 0dbd 2C       		.uleb128 0x2c
 2690 0dbe A2010000 		.4byte	.LASF126
 2691 0dc2 01       		.byte	0x1
 2692 0dc3 9A       		.byte	0x9a
 2693 0dc4 CE0D0000 		.4byte	0xdce
 2694 0dc8 05       		.uleb128 0x5
 2695 0dc9 03       		.byte	0x3
 2696 0dca 00000000 		.4byte	patternheap
 2697 0dce 14       		.uleb128 0x14
 2698 0dcf A70D0000 		.4byte	0xda7
 2699 0dd3 2D       		.uleb128 0x2d
 2700 0dd4 F8010000 		.4byte	.LASF134
 2701 0dd8 0D       		.byte	0xd
 2702 0dd9 64       		.byte	0x64
 2703 0dda 2C000000 		.4byte	0x2c
 2704 0dde 2E       		.uleb128 0x2e
 2705 0ddf 6E050000 		.4byte	.LASF127
 2706 0de3 0E       		.byte	0xe
 2707 0de4 69       		.byte	0x69
 2708 0de5 2C000000 		.4byte	0x2c
 2709 0de9 F80D0000 		.4byte	0xdf8
 2710 0ded 0D       		.uleb128 0xd
 2711 0dee C8060000 		.4byte	0x6c8
 2712 0df2 0D       		.uleb128 0xd
 2713 0df3 F80D0000 		.4byte	0xdf8
 2714 0df7 00       		.byte	0
 2715 0df8 0A       		.uleb128 0xa
 2716 0df9 04       		.byte	0x4
 2717 0dfa 2C000000 		.4byte	0x2c
 2718 0dfe 2E       		.uleb128 0x2e
 2719 0dff A0040000 		.4byte	.LASF128
 2720 0e03 0E       		.byte	0xe
 2721 0e04 67       		.byte	0x67
 2722 0e05 16030000 		.4byte	0x316
ARM GAS  /var/folders/c6/c789hm653lg9vtl73krp73tm0000gn/T//ccj6qQHm.s 			page 73


 2723 0e09 180E0000 		.4byte	0xe18
 2724 0e0d 0D       		.uleb128 0xd
 2725 0e0e C8060000 		.4byte	0x6c8
 2726 0e12 0D       		.uleb128 0xd
 2727 0e13 2C000000 		.4byte	0x2c
 2728 0e17 00       		.byte	0
 2729 0e18 2E       		.uleb128 0x2e
 2730 0e19 53060000 		.4byte	.LASF129
 2731 0e1d 0F       		.byte	0xf
 2732 0e1e 5A       		.byte	0x5a
 2733 0e1f 320E0000 		.4byte	0xe32
 2734 0e23 320E0000 		.4byte	0xe32
 2735 0e27 0D       		.uleb128 0xd
 2736 0e28 37000000 		.4byte	0x37
 2737 0e2c 0D       		.uleb128 0xd
 2738 0e2d 320E0000 		.4byte	0xe32
 2739 0e31 00       		.byte	0
 2740 0e32 04       		.uleb128 0x4
 2741 0e33 01       		.byte	0x1
 2742 0e34 02       		.byte	0x2
 2743 0e35 2F040000 		.4byte	.LASF130
 2744 0e39 2F       		.uleb128 0x2f
 2745 0e3a E6010000 		.4byte	.LASF135
 2746 0e3e 0E       		.byte	0xe
 2747 0e3f 68       		.byte	0x68
 2748 0e40 4A0E0000 		.4byte	0xe4a
 2749 0e44 0D       		.uleb128 0xd
 2750 0e45 16030000 		.4byte	0x316
 2751 0e49 00       		.byte	0
 2752 0e4a 30       		.uleb128 0x30
 2753 0e4b 48030000 		.4byte	.LASF136
 2754 0e4f 0E       		.byte	0xe
 2755 0e50 66       		.byte	0x66
 2756 0e51 0D       		.uleb128 0xd
 2757 0e52 C8060000 		.4byte	0x6c8
 2758 0e56 0D       		.uleb128 0xd
 2759 0e57 16030000 		.4byte	0x316
 2760 0e5b 0D       		.uleb128 0xd
 2761 0e5c 2C000000 		.4byte	0x2c
 2762 0e60 00       		.byte	0
 2763 0e61 00       		.byte	0
 2764              		.section	.debug_abbrev,"",%progbits
 2765              	.Ldebug_abbrev0:
 2766 0000 01       		.uleb128 0x1
 2767 0001 11       		.uleb128 0x11
 2768 0002 01       		.byte	0x1
 2769 0003 25       		.uleb128 0x25
 2770 0004 0E       		.uleb128 0xe
 2771 0005 13       		.uleb128 0x13
 2772 0006 0B       		.uleb128 0xb
 2773 0007 03       		.uleb128 0x3
 2774 0008 0E       		.uleb128 0xe
 2775 0009 1B       		.uleb128 0x1b
 2776 000a 0E       		.uleb128 0xe
 2777 000b 55       		.uleb128 0x55
 2778 000c 17       		.uleb128 0x17
 2779 000d 11       		.uleb128 0x11
ARM GAS  /var/folders/c6/c789hm653lg9vtl73krp73tm0000gn/T//ccj6qQHm.s 			page 74


 2780 000e 01       		.uleb128 0x1
 2781 000f 10       		.uleb128 0x10
 2782 0010 17       		.uleb128 0x17
 2783 0011 00       		.byte	0
 2784 0012 00       		.byte	0
 2785 0013 02       		.uleb128 0x2
 2786 0014 24       		.uleb128 0x24
 2787 0015 00       		.byte	0
 2788 0016 0B       		.uleb128 0xb
 2789 0017 0B       		.uleb128 0xb
 2790 0018 3E       		.uleb128 0x3e
 2791 0019 0B       		.uleb128 0xb
 2792 001a 03       		.uleb128 0x3
 2793 001b 08       		.uleb128 0x8
 2794 001c 00       		.byte	0
 2795 001d 00       		.byte	0
 2796 001e 03       		.uleb128 0x3
 2797 001f 16       		.uleb128 0x16
 2798 0020 00       		.byte	0
 2799 0021 03       		.uleb128 0x3
 2800 0022 0E       		.uleb128 0xe
 2801 0023 3A       		.uleb128 0x3a
 2802 0024 0B       		.uleb128 0xb
 2803 0025 3B       		.uleb128 0x3b
 2804 0026 0B       		.uleb128 0xb
 2805 0027 49       		.uleb128 0x49
 2806 0028 13       		.uleb128 0x13
 2807 0029 00       		.byte	0
 2808 002a 00       		.byte	0
 2809 002b 04       		.uleb128 0x4
 2810 002c 24       		.uleb128 0x24
 2811 002d 00       		.byte	0
 2812 002e 0B       		.uleb128 0xb
 2813 002f 0B       		.uleb128 0xb
 2814 0030 3E       		.uleb128 0x3e
 2815 0031 0B       		.uleb128 0xb
 2816 0032 03       		.uleb128 0x3
 2817 0033 0E       		.uleb128 0xe
 2818 0034 00       		.byte	0
 2819 0035 00       		.byte	0
 2820 0036 05       		.uleb128 0x5
 2821 0037 35       		.uleb128 0x35
 2822 0038 00       		.byte	0
 2823 0039 49       		.uleb128 0x49
 2824 003a 13       		.uleb128 0x13
 2825 003b 00       		.byte	0
 2826 003c 00       		.byte	0
 2827 003d 06       		.uleb128 0x6
 2828 003e 13       		.uleb128 0x13
 2829 003f 01       		.byte	0x1
 2830 0040 03       		.uleb128 0x3
 2831 0041 0E       		.uleb128 0xe
 2832 0042 0B       		.uleb128 0xb
 2833 0043 0B       		.uleb128 0xb
 2834 0044 3A       		.uleb128 0x3a
 2835 0045 0B       		.uleb128 0xb
 2836 0046 3B       		.uleb128 0x3b
ARM GAS  /var/folders/c6/c789hm653lg9vtl73krp73tm0000gn/T//ccj6qQHm.s 			page 75


 2837 0047 0B       		.uleb128 0xb
 2838 0048 01       		.uleb128 0x1
 2839 0049 13       		.uleb128 0x13
 2840 004a 00       		.byte	0
 2841 004b 00       		.byte	0
 2842 004c 07       		.uleb128 0x7
 2843 004d 0D       		.uleb128 0xd
 2844 004e 00       		.byte	0
 2845 004f 03       		.uleb128 0x3
 2846 0050 0E       		.uleb128 0xe
 2847 0051 3A       		.uleb128 0x3a
 2848 0052 0B       		.uleb128 0xb
 2849 0053 3B       		.uleb128 0x3b
 2850 0054 0B       		.uleb128 0xb
 2851 0055 49       		.uleb128 0x49
 2852 0056 13       		.uleb128 0x13
 2853 0057 38       		.uleb128 0x38
 2854 0058 0B       		.uleb128 0xb
 2855 0059 00       		.byte	0
 2856 005a 00       		.byte	0
 2857 005b 08       		.uleb128 0x8
 2858 005c 0D       		.uleb128 0xd
 2859 005d 00       		.byte	0
 2860 005e 03       		.uleb128 0x3
 2861 005f 08       		.uleb128 0x8
 2862 0060 3A       		.uleb128 0x3a
 2863 0061 0B       		.uleb128 0xb
 2864 0062 3B       		.uleb128 0x3b
 2865 0063 05       		.uleb128 0x5
 2866 0064 49       		.uleb128 0x49
 2867 0065 13       		.uleb128 0x13
 2868 0066 38       		.uleb128 0x38
 2869 0067 0B       		.uleb128 0xb
 2870 0068 00       		.byte	0
 2871 0069 00       		.byte	0
 2872 006a 09       		.uleb128 0x9
 2873 006b 0D       		.uleb128 0xd
 2874 006c 00       		.byte	0
 2875 006d 03       		.uleb128 0x3
 2876 006e 0E       		.uleb128 0xe
 2877 006f 3A       		.uleb128 0x3a
 2878 0070 0B       		.uleb128 0xb
 2879 0071 3B       		.uleb128 0x3b
 2880 0072 05       		.uleb128 0x5
 2881 0073 49       		.uleb128 0x49
 2882 0074 13       		.uleb128 0x13
 2883 0075 38       		.uleb128 0x38
 2884 0076 0B       		.uleb128 0xb
 2885 0077 00       		.byte	0
 2886 0078 00       		.byte	0
 2887 0079 0A       		.uleb128 0xa
 2888 007a 0F       		.uleb128 0xf
 2889 007b 00       		.byte	0
 2890 007c 0B       		.uleb128 0xb
 2891 007d 0B       		.uleb128 0xb
 2892 007e 49       		.uleb128 0x49
 2893 007f 13       		.uleb128 0x13
ARM GAS  /var/folders/c6/c789hm653lg9vtl73krp73tm0000gn/T//ccj6qQHm.s 			page 76


 2894 0080 00       		.byte	0
 2895 0081 00       		.byte	0
 2896 0082 0B       		.uleb128 0xb
 2897 0083 13       		.uleb128 0x13
 2898 0084 01       		.byte	0x1
 2899 0085 03       		.uleb128 0x3
 2900 0086 0E       		.uleb128 0xe
 2901 0087 0B       		.uleb128 0xb
 2902 0088 0B       		.uleb128 0xb
 2903 0089 3A       		.uleb128 0x3a
 2904 008a 0B       		.uleb128 0xb
 2905 008b 3B       		.uleb128 0x3b
 2906 008c 05       		.uleb128 0x5
 2907 008d 01       		.uleb128 0x1
 2908 008e 13       		.uleb128 0x13
 2909 008f 00       		.byte	0
 2910 0090 00       		.byte	0
 2911 0091 0C       		.uleb128 0xc
 2912 0092 15       		.uleb128 0x15
 2913 0093 01       		.byte	0x1
 2914 0094 27       		.uleb128 0x27
 2915 0095 19       		.uleb128 0x19
 2916 0096 01       		.uleb128 0x1
 2917 0097 13       		.uleb128 0x13
 2918 0098 00       		.byte	0
 2919 0099 00       		.byte	0
 2920 009a 0D       		.uleb128 0xd
 2921 009b 05       		.uleb128 0x5
 2922 009c 00       		.byte	0
 2923 009d 49       		.uleb128 0x49
 2924 009e 13       		.uleb128 0x13
 2925 009f 00       		.byte	0
 2926 00a0 00       		.byte	0
 2927 00a1 0E       		.uleb128 0xe
 2928 00a2 0F       		.uleb128 0xf
 2929 00a3 00       		.byte	0
 2930 00a4 0B       		.uleb128 0xb
 2931 00a5 0B       		.uleb128 0xb
 2932 00a6 00       		.byte	0
 2933 00a7 00       		.byte	0
 2934 00a8 0F       		.uleb128 0xf
 2935 00a9 13       		.uleb128 0x13
 2936 00aa 01       		.byte	0x1
 2937 00ab 03       		.uleb128 0x3
 2938 00ac 0E       		.uleb128 0xe
 2939 00ad 0B       		.uleb128 0xb
 2940 00ae 05       		.uleb128 0x5
 2941 00af 3A       		.uleb128 0x3a
 2942 00b0 0B       		.uleb128 0xb
 2943 00b1 3B       		.uleb128 0x3b
 2944 00b2 05       		.uleb128 0x5
 2945 00b3 01       		.uleb128 0x1
 2946 00b4 13       		.uleb128 0x13
 2947 00b5 00       		.byte	0
 2948 00b6 00       		.byte	0
 2949 00b7 10       		.uleb128 0x10
 2950 00b8 0D       		.uleb128 0xd
ARM GAS  /var/folders/c6/c789hm653lg9vtl73krp73tm0000gn/T//ccj6qQHm.s 			page 77


 2951 00b9 00       		.byte	0
 2952 00ba 03       		.uleb128 0x3
 2953 00bb 08       		.uleb128 0x8
 2954 00bc 3A       		.uleb128 0x3a
 2955 00bd 0B       		.uleb128 0xb
 2956 00be 3B       		.uleb128 0x3b
 2957 00bf 0B       		.uleb128 0xb
 2958 00c0 49       		.uleb128 0x49
 2959 00c1 13       		.uleb128 0x13
 2960 00c2 38       		.uleb128 0x38
 2961 00c3 0B       		.uleb128 0xb
 2962 00c4 00       		.byte	0
 2963 00c5 00       		.byte	0
 2964 00c6 11       		.uleb128 0x11
 2965 00c7 13       		.uleb128 0x13
 2966 00c8 01       		.byte	0x1
 2967 00c9 0B       		.uleb128 0xb
 2968 00ca 0B       		.uleb128 0xb
 2969 00cb 3A       		.uleb128 0x3a
 2970 00cc 0B       		.uleb128 0xb
 2971 00cd 3B       		.uleb128 0x3b
 2972 00ce 0B       		.uleb128 0xb
 2973 00cf 01       		.uleb128 0x1
 2974 00d0 13       		.uleb128 0x13
 2975 00d1 00       		.byte	0
 2976 00d2 00       		.byte	0
 2977 00d3 12       		.uleb128 0x12
 2978 00d4 17       		.uleb128 0x17
 2979 00d5 01       		.byte	0x1
 2980 00d6 0B       		.uleb128 0xb
 2981 00d7 0B       		.uleb128 0xb
 2982 00d8 3A       		.uleb128 0x3a
 2983 00d9 0B       		.uleb128 0xb
 2984 00da 3B       		.uleb128 0x3b
 2985 00db 0B       		.uleb128 0xb
 2986 00dc 01       		.uleb128 0x1
 2987 00dd 13       		.uleb128 0x13
 2988 00de 00       		.byte	0
 2989 00df 00       		.byte	0
 2990 00e0 13       		.uleb128 0x13
 2991 00e1 0D       		.uleb128 0xd
 2992 00e2 00       		.byte	0
 2993 00e3 03       		.uleb128 0x3
 2994 00e4 0E       		.uleb128 0xe
 2995 00e5 3A       		.uleb128 0x3a
 2996 00e6 0B       		.uleb128 0xb
 2997 00e7 3B       		.uleb128 0x3b
 2998 00e8 05       		.uleb128 0x5
 2999 00e9 49       		.uleb128 0x49
 3000 00ea 13       		.uleb128 0x13
 3001 00eb 00       		.byte	0
 3002 00ec 00       		.byte	0
 3003 00ed 14       		.uleb128 0x14
 3004 00ee 26       		.uleb128 0x26
 3005 00ef 00       		.byte	0
 3006 00f0 49       		.uleb128 0x49
 3007 00f1 13       		.uleb128 0x13
ARM GAS  /var/folders/c6/c789hm653lg9vtl73krp73tm0000gn/T//ccj6qQHm.s 			page 78


 3008 00f2 00       		.byte	0
 3009 00f3 00       		.byte	0
 3010 00f4 15       		.uleb128 0x15
 3011 00f5 01       		.uleb128 0x1
 3012 00f6 01       		.byte	0x1
 3013 00f7 49       		.uleb128 0x49
 3014 00f8 13       		.uleb128 0x13
 3015 00f9 01       		.uleb128 0x1
 3016 00fa 13       		.uleb128 0x13
 3017 00fb 00       		.byte	0
 3018 00fc 00       		.byte	0
 3019 00fd 16       		.uleb128 0x16
 3020 00fe 21       		.uleb128 0x21
 3021 00ff 00       		.byte	0
 3022 0100 49       		.uleb128 0x49
 3023 0101 13       		.uleb128 0x13
 3024 0102 2F       		.uleb128 0x2f
 3025 0103 0B       		.uleb128 0xb
 3026 0104 00       		.byte	0
 3027 0105 00       		.byte	0
 3028 0106 17       		.uleb128 0x17
 3029 0107 15       		.uleb128 0x15
 3030 0108 01       		.byte	0x1
 3031 0109 27       		.uleb128 0x27
 3032 010a 19       		.uleb128 0x19
 3033 010b 49       		.uleb128 0x49
 3034 010c 13       		.uleb128 0x13
 3035 010d 01       		.uleb128 0x1
 3036 010e 13       		.uleb128 0x13
 3037 010f 00       		.byte	0
 3038 0110 00       		.byte	0
 3039 0111 18       		.uleb128 0x18
 3040 0112 0D       		.uleb128 0xd
 3041 0113 00       		.byte	0
 3042 0114 03       		.uleb128 0x3
 3043 0115 0E       		.uleb128 0xe
 3044 0116 3A       		.uleb128 0x3a
 3045 0117 0B       		.uleb128 0xb
 3046 0118 3B       		.uleb128 0x3b
 3047 0119 0B       		.uleb128 0xb
 3048 011a 49       		.uleb128 0x49
 3049 011b 13       		.uleb128 0x13
 3050 011c 00       		.byte	0
 3051 011d 00       		.byte	0
 3052 011e 19       		.uleb128 0x19
 3053 011f 17       		.uleb128 0x17
 3054 0120 01       		.byte	0x1
 3055 0121 03       		.uleb128 0x3
 3056 0122 0E       		.uleb128 0xe
 3057 0123 0B       		.uleb128 0xb
 3058 0124 0B       		.uleb128 0xb
 3059 0125 3A       		.uleb128 0x3a
 3060 0126 0B       		.uleb128 0xb
 3061 0127 3B       		.uleb128 0x3b
 3062 0128 0B       		.uleb128 0xb
 3063 0129 01       		.uleb128 0x1
 3064 012a 13       		.uleb128 0x13
ARM GAS  /var/folders/c6/c789hm653lg9vtl73krp73tm0000gn/T//ccj6qQHm.s 			page 79


 3065 012b 00       		.byte	0
 3066 012c 00       		.byte	0
 3067 012d 1A       		.uleb128 0x1a
 3068 012e 0D       		.uleb128 0xd
 3069 012f 00       		.byte	0
 3070 0130 03       		.uleb128 0x3
 3071 0131 08       		.uleb128 0x8
 3072 0132 3A       		.uleb128 0x3a
 3073 0133 0B       		.uleb128 0xb
 3074 0134 3B       		.uleb128 0x3b
 3075 0135 0B       		.uleb128 0xb
 3076 0136 49       		.uleb128 0x49
 3077 0137 13       		.uleb128 0x13
 3078 0138 00       		.byte	0
 3079 0139 00       		.byte	0
 3080 013a 1B       		.uleb128 0x1b
 3081 013b 15       		.uleb128 0x15
 3082 013c 00       		.byte	0
 3083 013d 27       		.uleb128 0x27
 3084 013e 19       		.uleb128 0x19
 3085 013f 00       		.byte	0
 3086 0140 00       		.byte	0
 3087 0141 1C       		.uleb128 0x1c
 3088 0142 13       		.uleb128 0x13
 3089 0143 01       		.byte	0x1
 3090 0144 0B       		.uleb128 0xb
 3091 0145 05       		.uleb128 0x5
 3092 0146 3A       		.uleb128 0x3a
 3093 0147 0B       		.uleb128 0xb
 3094 0148 3B       		.uleb128 0x3b
 3095 0149 0B       		.uleb128 0xb
 3096 014a 01       		.uleb128 0x1
 3097 014b 13       		.uleb128 0x13
 3098 014c 00       		.byte	0
 3099 014d 00       		.byte	0
 3100 014e 1D       		.uleb128 0x1d
 3101 014f 0D       		.uleb128 0xd
 3102 0150 00       		.byte	0
 3103 0151 03       		.uleb128 0x3
 3104 0152 08       		.uleb128 0x8
 3105 0153 3A       		.uleb128 0x3a
 3106 0154 0B       		.uleb128 0xb
 3107 0155 3B       		.uleb128 0x3b
 3108 0156 0B       		.uleb128 0xb
 3109 0157 49       		.uleb128 0x49
 3110 0158 13       		.uleb128 0x13
 3111 0159 38       		.uleb128 0x38
 3112 015a 05       		.uleb128 0x5
 3113 015b 00       		.byte	0
 3114 015c 00       		.byte	0
 3115 015d 1E       		.uleb128 0x1e
 3116 015e 17       		.uleb128 0x17
 3117 015f 01       		.byte	0x1
 3118 0160 03       		.uleb128 0x3
 3119 0161 0E       		.uleb128 0xe
 3120 0162 0B       		.uleb128 0xb
 3121 0163 05       		.uleb128 0x5
ARM GAS  /var/folders/c6/c789hm653lg9vtl73krp73tm0000gn/T//ccj6qQHm.s 			page 80


 3122 0164 3A       		.uleb128 0x3a
 3123 0165 0B       		.uleb128 0xb
 3124 0166 3B       		.uleb128 0x3b
 3125 0167 0B       		.uleb128 0xb
 3126 0168 01       		.uleb128 0x1
 3127 0169 13       		.uleb128 0x13
 3128 016a 00       		.byte	0
 3129 016b 00       		.byte	0
 3130 016c 1F       		.uleb128 0x1f
 3131 016d 21       		.uleb128 0x21
 3132 016e 00       		.byte	0
 3133 016f 49       		.uleb128 0x49
 3134 0170 13       		.uleb128 0x13
 3135 0171 2F       		.uleb128 0x2f
 3136 0172 05       		.uleb128 0x5
 3137 0173 00       		.byte	0
 3138 0174 00       		.byte	0
 3139 0175 20       		.uleb128 0x20
 3140 0176 2E       		.uleb128 0x2e
 3141 0177 01       		.byte	0x1
 3142 0178 03       		.uleb128 0x3
 3143 0179 0E       		.uleb128 0xe
 3144 017a 3A       		.uleb128 0x3a
 3145 017b 0B       		.uleb128 0xb
 3146 017c 3B       		.uleb128 0x3b
 3147 017d 0B       		.uleb128 0xb
 3148 017e 27       		.uleb128 0x27
 3149 017f 19       		.uleb128 0x19
 3150 0180 11       		.uleb128 0x11
 3151 0181 01       		.uleb128 0x1
 3152 0182 12       		.uleb128 0x12
 3153 0183 06       		.uleb128 0x6
 3154 0184 40       		.uleb128 0x40
 3155 0185 18       		.uleb128 0x18
 3156 0186 9742     		.uleb128 0x2117
 3157 0188 19       		.uleb128 0x19
 3158 0189 01       		.uleb128 0x1
 3159 018a 13       		.uleb128 0x13
 3160 018b 00       		.byte	0
 3161 018c 00       		.byte	0
 3162 018d 21       		.uleb128 0x21
 3163 018e 34       		.uleb128 0x34
 3164 018f 00       		.byte	0
 3165 0190 03       		.uleb128 0x3
 3166 0191 08       		.uleb128 0x8
 3167 0192 3A       		.uleb128 0x3a
 3168 0193 0B       		.uleb128 0xb
 3169 0194 3B       		.uleb128 0x3b
 3170 0195 0B       		.uleb128 0xb
 3171 0196 49       		.uleb128 0x49
 3172 0197 13       		.uleb128 0x13
 3173 0198 02       		.uleb128 0x2
 3174 0199 17       		.uleb128 0x17
 3175 019a 00       		.byte	0
 3176 019b 00       		.byte	0
 3177 019c 22       		.uleb128 0x22
 3178 019d 34       		.uleb128 0x34
ARM GAS  /var/folders/c6/c789hm653lg9vtl73krp73tm0000gn/T//ccj6qQHm.s 			page 81


 3179 019e 00       		.byte	0
 3180 019f 03       		.uleb128 0x3
 3181 01a0 08       		.uleb128 0x8
 3182 01a1 3A       		.uleb128 0x3a
 3183 01a2 0B       		.uleb128 0xb
 3184 01a3 3B       		.uleb128 0x3b
 3185 01a4 0B       		.uleb128 0xb
 3186 01a5 49       		.uleb128 0x49
 3187 01a6 13       		.uleb128 0x13
 3188 01a7 02       		.uleb128 0x2
 3189 01a8 18       		.uleb128 0x18
 3190 01a9 00       		.byte	0
 3191 01aa 00       		.byte	0
 3192 01ab 23       		.uleb128 0x23
 3193 01ac 898201   		.uleb128 0x4109
 3194 01af 00       		.byte	0
 3195 01b0 11       		.uleb128 0x11
 3196 01b1 01       		.uleb128 0x1
 3197 01b2 31       		.uleb128 0x31
 3198 01b3 13       		.uleb128 0x13
 3199 01b4 00       		.byte	0
 3200 01b5 00       		.byte	0
 3201 01b6 24       		.uleb128 0x24
 3202 01b7 898201   		.uleb128 0x4109
 3203 01ba 01       		.byte	0x1
 3204 01bb 11       		.uleb128 0x11
 3205 01bc 01       		.uleb128 0x1
 3206 01bd 31       		.uleb128 0x31
 3207 01be 13       		.uleb128 0x13
 3208 01bf 01       		.uleb128 0x1
 3209 01c0 13       		.uleb128 0x13
 3210 01c1 00       		.byte	0
 3211 01c2 00       		.byte	0
 3212 01c3 25       		.uleb128 0x25
 3213 01c4 8A8201   		.uleb128 0x410a
 3214 01c7 00       		.byte	0
 3215 01c8 02       		.uleb128 0x2
 3216 01c9 18       		.uleb128 0x18
 3217 01ca 9142     		.uleb128 0x2111
 3218 01cc 18       		.uleb128 0x18
 3219 01cd 00       		.byte	0
 3220 01ce 00       		.byte	0
 3221 01cf 26       		.uleb128 0x26
 3222 01d0 898201   		.uleb128 0x4109
 3223 01d3 01       		.byte	0x1
 3224 01d4 11       		.uleb128 0x11
 3225 01d5 01       		.uleb128 0x1
 3226 01d6 31       		.uleb128 0x31
 3227 01d7 13       		.uleb128 0x13
 3228 01d8 00       		.byte	0
 3229 01d9 00       		.byte	0
 3230 01da 27       		.uleb128 0x27
 3231 01db 898201   		.uleb128 0x4109
 3232 01de 01       		.byte	0x1
 3233 01df 11       		.uleb128 0x11
 3234 01e0 01       		.uleb128 0x1
 3235 01e1 9542     		.uleb128 0x2115
ARM GAS  /var/folders/c6/c789hm653lg9vtl73krp73tm0000gn/T//ccj6qQHm.s 			page 82


 3236 01e3 19       		.uleb128 0x19
 3237 01e4 31       		.uleb128 0x31
 3238 01e5 13       		.uleb128 0x13
 3239 01e6 00       		.byte	0
 3240 01e7 00       		.byte	0
 3241 01e8 28       		.uleb128 0x28
 3242 01e9 34       		.uleb128 0x34
 3243 01ea 00       		.byte	0
 3244 01eb 03       		.uleb128 0x3
 3245 01ec 0E       		.uleb128 0xe
 3246 01ed 3A       		.uleb128 0x3a
 3247 01ee 0B       		.uleb128 0xb
 3248 01ef 3B       		.uleb128 0x3b
 3249 01f0 0B       		.uleb128 0xb
 3250 01f1 49       		.uleb128 0x49
 3251 01f2 13       		.uleb128 0x13
 3252 01f3 02       		.uleb128 0x2
 3253 01f4 18       		.uleb128 0x18
 3254 01f5 00       		.byte	0
 3255 01f6 00       		.byte	0
 3256 01f7 29       		.uleb128 0x29
 3257 01f8 34       		.uleb128 0x34
 3258 01f9 00       		.byte	0
 3259 01fa 03       		.uleb128 0x3
 3260 01fb 0E       		.uleb128 0xe
 3261 01fc 3A       		.uleb128 0x3a
 3262 01fd 0B       		.uleb128 0xb
 3263 01fe 3B       		.uleb128 0x3b
 3264 01ff 05       		.uleb128 0x5
 3265 0200 49       		.uleb128 0x49
 3266 0201 13       		.uleb128 0x13
 3267 0202 3F       		.uleb128 0x3f
 3268 0203 19       		.uleb128 0x19
 3269 0204 3C       		.uleb128 0x3c
 3270 0205 19       		.uleb128 0x19
 3271 0206 00       		.byte	0
 3272 0207 00       		.byte	0
 3273 0208 2A       		.uleb128 0x2a
 3274 0209 34       		.uleb128 0x34
 3275 020a 00       		.byte	0
 3276 020b 03       		.uleb128 0x3
 3277 020c 08       		.uleb128 0x8
 3278 020d 3A       		.uleb128 0x3a
 3279 020e 0B       		.uleb128 0xb
 3280 020f 3B       		.uleb128 0x3b
 3281 0210 05       		.uleb128 0x5
 3282 0211 49       		.uleb128 0x49
 3283 0212 13       		.uleb128 0x13
 3284 0213 3F       		.uleb128 0x3f
 3285 0214 19       		.uleb128 0x19
 3286 0215 3C       		.uleb128 0x3c
 3287 0216 19       		.uleb128 0x19
 3288 0217 00       		.byte	0
 3289 0218 00       		.byte	0
 3290 0219 2B       		.uleb128 0x2b
 3291 021a 34       		.uleb128 0x34
 3292 021b 00       		.byte	0
ARM GAS  /var/folders/c6/c789hm653lg9vtl73krp73tm0000gn/T//ccj6qQHm.s 			page 83


 3293 021c 03       		.uleb128 0x3
 3294 021d 0E       		.uleb128 0xe
 3295 021e 3A       		.uleb128 0x3a
 3296 021f 0B       		.uleb128 0xb
 3297 0220 3B       		.uleb128 0x3b
 3298 0221 0B       		.uleb128 0xb
 3299 0222 49       		.uleb128 0x49
 3300 0223 13       		.uleb128 0x13
 3301 0224 3F       		.uleb128 0x3f
 3302 0225 19       		.uleb128 0x19
 3303 0226 3C       		.uleb128 0x3c
 3304 0227 19       		.uleb128 0x19
 3305 0228 00       		.byte	0
 3306 0229 00       		.byte	0
 3307 022a 2C       		.uleb128 0x2c
 3308 022b 34       		.uleb128 0x34
 3309 022c 00       		.byte	0
 3310 022d 03       		.uleb128 0x3
 3311 022e 0E       		.uleb128 0xe
 3312 022f 3A       		.uleb128 0x3a
 3313 0230 0B       		.uleb128 0xb
 3314 0231 3B       		.uleb128 0x3b
 3315 0232 0B       		.uleb128 0xb
 3316 0233 49       		.uleb128 0x49
 3317 0234 13       		.uleb128 0x13
 3318 0235 3F       		.uleb128 0x3f
 3319 0236 19       		.uleb128 0x19
 3320 0237 02       		.uleb128 0x2
 3321 0238 18       		.uleb128 0x18
 3322 0239 00       		.byte	0
 3323 023a 00       		.byte	0
 3324 023b 2D       		.uleb128 0x2d
 3325 023c 2E       		.uleb128 0x2e
 3326 023d 00       		.byte	0
 3327 023e 3F       		.uleb128 0x3f
 3328 023f 19       		.uleb128 0x19
 3329 0240 03       		.uleb128 0x3
 3330 0241 0E       		.uleb128 0xe
 3331 0242 3A       		.uleb128 0x3a
 3332 0243 0B       		.uleb128 0xb
 3333 0244 3B       		.uleb128 0x3b
 3334 0245 0B       		.uleb128 0xb
 3335 0246 27       		.uleb128 0x27
 3336 0247 19       		.uleb128 0x19
 3337 0248 49       		.uleb128 0x49
 3338 0249 13       		.uleb128 0x13
 3339 024a 3C       		.uleb128 0x3c
 3340 024b 19       		.uleb128 0x19
 3341 024c 00       		.byte	0
 3342 024d 00       		.byte	0
 3343 024e 2E       		.uleb128 0x2e
 3344 024f 2E       		.uleb128 0x2e
 3345 0250 01       		.byte	0x1
 3346 0251 3F       		.uleb128 0x3f
 3347 0252 19       		.uleb128 0x19
 3348 0253 03       		.uleb128 0x3
 3349 0254 0E       		.uleb128 0xe
ARM GAS  /var/folders/c6/c789hm653lg9vtl73krp73tm0000gn/T//ccj6qQHm.s 			page 84


 3350 0255 3A       		.uleb128 0x3a
 3351 0256 0B       		.uleb128 0xb
 3352 0257 3B       		.uleb128 0x3b
 3353 0258 0B       		.uleb128 0xb
 3354 0259 27       		.uleb128 0x27
 3355 025a 19       		.uleb128 0x19
 3356 025b 49       		.uleb128 0x49
 3357 025c 13       		.uleb128 0x13
 3358 025d 3C       		.uleb128 0x3c
 3359 025e 19       		.uleb128 0x19
 3360 025f 01       		.uleb128 0x1
 3361 0260 13       		.uleb128 0x13
 3362 0261 00       		.byte	0
 3363 0262 00       		.byte	0
 3364 0263 2F       		.uleb128 0x2f
 3365 0264 2E       		.uleb128 0x2e
 3366 0265 01       		.byte	0x1
 3367 0266 3F       		.uleb128 0x3f
 3368 0267 19       		.uleb128 0x19
 3369 0268 03       		.uleb128 0x3
 3370 0269 0E       		.uleb128 0xe
 3371 026a 3A       		.uleb128 0x3a
 3372 026b 0B       		.uleb128 0xb
 3373 026c 3B       		.uleb128 0x3b
 3374 026d 0B       		.uleb128 0xb
 3375 026e 27       		.uleb128 0x27
 3376 026f 19       		.uleb128 0x19
 3377 0270 3C       		.uleb128 0x3c
 3378 0271 19       		.uleb128 0x19
 3379 0272 01       		.uleb128 0x1
 3380 0273 13       		.uleb128 0x13
 3381 0274 00       		.byte	0
 3382 0275 00       		.byte	0
 3383 0276 30       		.uleb128 0x30
 3384 0277 2E       		.uleb128 0x2e
 3385 0278 01       		.byte	0x1
 3386 0279 3F       		.uleb128 0x3f
 3387 027a 19       		.uleb128 0x19
 3388 027b 03       		.uleb128 0x3
 3389 027c 0E       		.uleb128 0xe
 3390 027d 3A       		.uleb128 0x3a
 3391 027e 0B       		.uleb128 0xb
 3392 027f 3B       		.uleb128 0x3b
 3393 0280 0B       		.uleb128 0xb
 3394 0281 27       		.uleb128 0x27
 3395 0282 19       		.uleb128 0x19
 3396 0283 3C       		.uleb128 0x3c
 3397 0284 19       		.uleb128 0x19
 3398 0285 00       		.byte	0
 3399 0286 00       		.byte	0
 3400 0287 00       		.byte	0
 3401              		.section	.debug_loc,"",%progbits
 3402              	.Ldebug_loc0:
 3403              	.LLST0:
 3404 0000 18000000 		.4byte	.LVL2
 3405 0004 22000000 		.4byte	.LVL3
 3406 0008 0100     		.2byte	0x1
ARM GAS  /var/folders/c6/c789hm653lg9vtl73krp73tm0000gn/T//ccj6qQHm.s 			page 85


 3407 000a 50       		.byte	0x50
 3408 000b 22000000 		.4byte	.LVL3
 3409 000f 2A000000 		.4byte	.LVL5
 3410 0013 0100     		.2byte	0x1
 3411 0015 54       		.byte	0x54
 3412 0016 2E000000 		.4byte	.LVL6
 3413 001a 3E000000 		.4byte	.LVL8
 3414 001e 0100     		.2byte	0x1
 3415 0020 54       		.byte	0x54
 3416 0021 3E000000 		.4byte	.LVL8
 3417 0025 48000000 		.4byte	.LVL9
 3418 0029 0100     		.2byte	0x1
 3419 002b 50       		.byte	0x50
 3420 002c 64000000 		.4byte	.LVL13
 3421 0030 66000000 		.4byte	.LVL14
 3422 0034 0100     		.2byte	0x1
 3423 0036 50       		.byte	0x50
 3424 0037 66000000 		.4byte	.LVL14
 3425 003b AC000000 		.4byte	.LVL27
 3426 003f 0100     		.2byte	0x1
 3427 0041 55       		.byte	0x55
 3428 0042 AC000000 		.4byte	.LVL27
 3429 0046 AE000000 		.4byte	.LVL28
 3430 004a 0100     		.2byte	0x1
 3431 004c 50       		.byte	0x50
 3432 004d AE000000 		.4byte	.LVL28
 3433 0051 F0000000 		.4byte	.LVL39
 3434 0055 0100     		.2byte	0x1
 3435 0057 54       		.byte	0x54
 3436 0058 F0000000 		.4byte	.LVL39
 3437 005c F2000000 		.4byte	.LVL40
 3438 0060 0100     		.2byte	0x1
 3439 0062 50       		.byte	0x50
 3440 0063 F2000000 		.4byte	.LVL40
 3441 0067 28010000 		.4byte	.LVL48
 3442 006b 0100     		.2byte	0x1
 3443 006d 54       		.byte	0x54
 3444 006e 28010000 		.4byte	.LVL48
 3445 0072 2A010000 		.4byte	.LVL49
 3446 0076 0100     		.2byte	0x1
 3447 0078 50       		.byte	0x50
 3448 0079 2A010000 		.4byte	.LVL49
 3449 007d 86010000 		.4byte	.LVL58
 3450 0081 0100     		.2byte	0x1
 3451 0083 54       		.byte	0x54
 3452 0084 86010000 		.4byte	.LVL58
 3453 0088 88010000 		.4byte	.LVL59
 3454 008c 0100     		.2byte	0x1
 3455 008e 50       		.byte	0x50
 3456 008f 88010000 		.4byte	.LVL59
 3457 0093 9E010000 		.4byte	.LVL65
 3458 0097 0100     		.2byte	0x1
 3459 0099 55       		.byte	0x55
 3460 009a B6010000 		.4byte	.LVL67
 3461 009e B9010000 		.4byte	.LVL68-1
 3462 00a2 0100     		.2byte	0x1
 3463 00a4 50       		.byte	0x50
ARM GAS  /var/folders/c6/c789hm653lg9vtl73krp73tm0000gn/T//ccj6qQHm.s 			page 86


 3464 00a5 EE010000 		.4byte	.LVL74
 3465 00a9 F0010000 		.4byte	.LVL75
 3466 00ad 0100     		.2byte	0x1
 3467 00af 50       		.byte	0x50
 3468 00b0 F0010000 		.4byte	.LVL75
 3469 00b4 44020000 		.4byte	.LFE230
 3470 00b8 0100     		.2byte	0x1
 3471 00ba 54       		.byte	0x54
 3472 00bb 00000000 		.4byte	0
 3473 00bf 00000000 		.4byte	0
 3474              	.LLST1:
 3475 00c3 6E000000 		.4byte	.LVL16
 3476 00c7 70000000 		.4byte	.LVL17
 3477 00cb 0100     		.2byte	0x1
 3478 00cd 50       		.byte	0x50
 3479 00ce 70000000 		.4byte	.LVL17
 3480 00d2 AC000000 		.4byte	.LVL27
 3481 00d6 0100     		.2byte	0x1
 3482 00d8 54       		.byte	0x54
 3483 00d9 B6000000 		.4byte	.LVL30
 3484 00dd B8000000 		.4byte	.LVL31
 3485 00e1 0100     		.2byte	0x1
 3486 00e3 50       		.byte	0x50
 3487 00e4 B8000000 		.4byte	.LVL31
 3488 00e8 F8000000 		.4byte	.LVL42
 3489 00ec 0100     		.2byte	0x1
 3490 00ee 55       		.byte	0x55
 3491 00ef F8000000 		.4byte	.LVL42
 3492 00f3 FA000000 		.4byte	.LVL43
 3493 00f7 0100     		.2byte	0x1
 3494 00f9 50       		.byte	0x50
 3495 00fa FA000000 		.4byte	.LVL43
 3496 00fe 86010000 		.4byte	.LVL58
 3497 0102 0100     		.2byte	0x1
 3498 0104 55       		.byte	0x55
 3499 0105 8E010000 		.4byte	.LVL61
 3500 0109 90010000 		.4byte	.LVL62
 3501 010d 0100     		.2byte	0x1
 3502 010f 50       		.byte	0x50
 3503 0110 90010000 		.4byte	.LVL62
 3504 0114 EE010000 		.4byte	.LVL74
 3505 0118 0100     		.2byte	0x1
 3506 011a 54       		.byte	0x54
 3507 011b 3A020000 		.4byte	.LVL82
 3508 011f 44020000 		.4byte	.LFE230
 3509 0123 0100     		.2byte	0x1
 3510 0125 55       		.byte	0x55
 3511 0126 00000000 		.4byte	0
 3512 012a 00000000 		.4byte	0
 3513              	.LLST2:
 3514 012e 76000000 		.4byte	.LVL19
 3515 0132 78000000 		.4byte	.LVL20
 3516 0136 0100     		.2byte	0x1
 3517 0138 50       		.byte	0x50
 3518 0139 78000000 		.4byte	.LVL20
 3519 013d BC000000 		.4byte	.LVL32
 3520 0141 0100     		.2byte	0x1
ARM GAS  /var/folders/c6/c789hm653lg9vtl73krp73tm0000gn/T//ccj6qQHm.s 			page 87


 3521 0143 56       		.byte	0x56
 3522 0144 BC000000 		.4byte	.LVL32
 3523 0148 BF000000 		.4byte	.LVL33-1
 3524 014c 0100     		.2byte	0x1
 3525 014e 50       		.byte	0x50
 3526 014f 00000000 		.4byte	0
 3527 0153 00000000 		.4byte	0
 3528              		.section	.debug_aranges,"",%progbits
 3529 0000 24000000 		.4byte	0x24
 3530 0004 0200     		.2byte	0x2
 3531 0006 00000000 		.4byte	.Ldebug_info0
 3532 000a 04       		.byte	0x4
 3533 000b 00       		.byte	0
 3534 000c 0000     		.2byte	0
 3535 000e 0000     		.2byte	0
 3536 0010 00000000 		.4byte	.LFB230
 3537 0014 44020000 		.4byte	.LFE230-.LFB230
 3538 0018 00000000 		.4byte	.LFB229
 3539 001c 14000000 		.4byte	.LFE229-.LFB229
 3540 0020 00000000 		.4byte	0
 3541 0024 00000000 		.4byte	0
 3542              		.section	.debug_ranges,"",%progbits
 3543              	.Ldebug_ranges0:
 3544 0000 00000000 		.4byte	.LFB230
 3545 0004 44020000 		.4byte	.LFE230
 3546 0008 00000000 		.4byte	.LFB229
 3547 000c 14000000 		.4byte	.LFE229
 3548 0010 00000000 		.4byte	0
 3549 0014 00000000 		.4byte	0
 3550              		.section	.debug_line,"",%progbits
 3551              	.Ldebug_line0:
 3552 0000 C4020000 		.section	.debug_str,"MS",%progbits,1
 3552      02005002 
 3552      00000201 
 3552      FB0E0D00 
 3552      01010101 
 3553              	.LASF131:
 3554 0000 474E5520 		.ascii	"GNU C 4.8.4 20140725 (release) [ARM/embedded-4_8-br"
 3554      4320342E 
 3554      382E3420 
 3554      32303134 
 3554      30373235 
 3555 0033 616E6368 		.ascii	"anch revision 213147] -mcpu=cortex-m4 -mno-thumb-in"
 3555      20726576 
 3555      6973696F 
 3555      6E203231 
 3555      33313437 
 3556 0066 74657277 		.ascii	"terwork -mthumb -ggdb -O2 -fomit-frame-pointer -fal"
 3556      6F726B20 
 3556      2D6D7468 
 3556      756D6220 
 3556      2D676764 
 3557 0099 69676E2D 		.ascii	"ign-functions=16 -ffunction-sections -fdata-section"
 3557      66756E63 
 3557      74696F6E 
 3557      733D3136 
 3557      202D6666 
ARM GAS  /var/folders/c6/c789hm653lg9vtl73krp73tm0000gn/T//ccj6qQHm.s 			page 88


 3558 00cc 73202D66 		.ascii	"s -fno-common -flto\000"
 3558      6E6F2D63 
 3558      6F6D6D6F 
 3558      6E202D66 
 3558      6C746F00 
 3559              	.LASF51:
 3560 00e0 72656164 		.ascii	"ready_list_t\000"
 3560      795F6C69 
 3560      73745F74 
 3560      00
 3561              	.LASF2:
 3562 00ed 73697A65 		.ascii	"size_t\000"
 3562      5F7400
 3563              	.LASF86:
 3564 00f4 7264796D 		.ascii	"rdymsg\000"
 3564      736700
 3565              	.LASF17:
 3566 00fb 75696E74 		.ascii	"uint64_t\000"
 3566      36345F74 
 3566      00
 3567              	.LASF3:
 3568 0104 5F5F7569 		.ascii	"__uint8_t\000"
 3568      6E74385F 
 3568      7400
 3569              	.LASF83:
 3570 010e 706F7274 		.ascii	"port_intctx\000"
 3570      5F696E74 
 3570      63747800 
 3571              	.LASF70:
 3572 011a 73797374 		.ascii	"system_debug_t\000"
 3572      656D5F64 
 3572      65627567 
 3572      5F7400
 3573              	.LASF102:
 3574 0129 6D656D67 		.ascii	"memgetfunc_t\000"
 3574      65746675 
 3574      6E635F74 
 3574      00
 3575              	.LASF13:
 3576 0136 6C6F6E67 		.ascii	"long long unsigned int\000"
 3576      206C6F6E 
 3576      6720756E 
 3576      7369676E 
 3576      65642069 
 3577              	.LASF87:
 3578 014d 65786974 		.ascii	"exitcode\000"
 3578      636F6465 
 3578      00
 3579              	.LASF106:
 3580 0156 685F6672 		.ascii	"h_free\000"
 3580      656500
 3581              	.LASF124:
 3582 015d 74657374 		.ascii	"test\000"
 3582      00
 3583              	.LASF67:
 3584 0162 76697274 		.ascii	"virtual_timers_list_t\000"
 3584      75616C5F 
ARM GAS  /var/folders/c6/c789hm653lg9vtl73krp73tm0000gn/T//ccj6qQHm.s 			page 89


 3584      74696D65 
 3584      72735F6C 
 3584      6973745F 
 3585              	.LASF123:
 3586 0178 49544D5F 		.ascii	"ITM_RxBuffer\000"
 3586      52784275 
 3586      66666572 
 3586      00
 3587              	.LASF108:
 3588 0185 6E657874 		.ascii	"next\000"
 3588      00
 3589              	.LASF50:
 3590 018a 63685F74 		.ascii	"ch_threads_queue\000"
 3590      68726561 
 3590      64735F71 
 3590      75657565 
 3590      00
 3591              	.LASF30:
 3592 019b 705F7072 		.ascii	"p_prio\000"
 3592      696F00
 3593              	.LASF126:
 3594 01a2 70617474 		.ascii	"patternheap\000"
 3594      65726E68 
 3594      65617000 
 3595              	.LASF101:
 3596 01ae 6D757465 		.ascii	"mutex_t\000"
 3596      785F7400 
 3597              	.LASF11:
 3598 01b6 6C6F6E67 		.ascii	"long long int\000"
 3598      206C6F6E 
 3598      6720696E 
 3598      7400
 3599              	.LASF1:
 3600 01c4 7369676E 		.ascii	"signed char\000"
 3600      65642063 
 3600      68617200 
 3601              	.LASF107:
 3602 01d0 685F6D74 		.ascii	"h_mtx\000"
 3602      7800
 3603              	.LASF44:
 3604 01d6 705F6D70 		.ascii	"p_mpool\000"
 3604      6F6F6C00 
 3605              	.LASF97:
 3606 01de 6D5F7175 		.ascii	"m_queue\000"
 3606      65756500 
 3607              	.LASF135:
 3608 01e6 63684865 		.ascii	"chHeapFree\000"
 3608      61704672 
 3608      656500
 3609              	.LASF76:
 3610 01f1 76746C69 		.ascii	"vtlist\000"
 3610      737400
 3611              	.LASF134:
 3612 01f8 6368436F 		.ascii	"chCoreGetStatusX\000"
 3612      72654765 
 3612      74537461 
 3612      74757358 
ARM GAS  /var/folders/c6/c789hm653lg9vtl73krp73tm0000gn/T//ccj6qQHm.s 			page 90


 3612      00
 3613              	.LASF89:
 3614 0209 77747472 		.ascii	"wttrp\000"
 3614      7000
 3615              	.LASF74:
 3616 020f 63685F73 		.ascii	"ch_system\000"
 3616      79737465 
 3616      6D00
 3617              	.LASF8:
 3618 0219 6C6F6E67 		.ascii	"long int\000"
 3618      20696E74 
 3618      00
 3619              	.LASF20:
 3620 0222 74737461 		.ascii	"tstate_t\000"
 3620      74655F74 
 3620      00
 3621              	.LASF103:
 3622 022b 6D656D6F 		.ascii	"memory_heap_t\000"
 3622      72795F68 
 3622      6561705F 
 3622      7400
 3623              	.LASF119:
 3624 0239 62756666 		.ascii	"buffer\000"
 3624      657200
 3625              	.LASF32:
 3626 0240 705F6E65 		.ascii	"p_newer\000"
 3626      77657200 
 3627              	.LASF94:
 3628 0248 735F7175 		.ascii	"s_queue\000"
 3628      65756500 
 3629              	.LASF56:
 3630 0250 725F6E65 		.ascii	"r_newer\000"
 3630      77657200 
 3631              	.LASF80:
 3632 0258 72656761 		.ascii	"regarm_t\000"
 3632      726D5F74 
 3632      00
 3633              	.LASF63:
 3634 0261 76745F70 		.ascii	"vt_prev\000"
 3634      72657600 
 3635              	.LASF120:
 3636 0269 68656170 		.ascii	"heap1_execute\000"
 3636      315F6578 
 3636      65637574 
 3636      6500
 3637              	.LASF110:
 3638 0277 616C6967 		.ascii	"align\000"
 3638      6E00
 3639              	.LASF78:
 3640 027d 69646C65 		.ascii	"idle_thread_wa\000"
 3640      5F746872 
 3640      6561645F 
 3640      776100
 3641              	.LASF25:
 3642 028c 636E745F 		.ascii	"cnt_t\000"
 3642      7400
 3643              	.LASF0:
ARM GAS  /var/folders/c6/c789hm653lg9vtl73krp73tm0000gn/T//ccj6qQHm.s 			page 91


 3644 0292 756E7369 		.ascii	"unsigned int\000"
 3644      676E6564 
 3644      20696E74 
 3644      00
 3645              	.LASF62:
 3646 029f 76745F6E 		.ascii	"vt_next\000"
 3646      65787400 
 3647              	.LASF90:
 3648 02a7 77747365 		.ascii	"wtsemp\000"
 3648      6D7000
 3649              	.LASF39:
 3650 02ae 705F6D73 		.ascii	"p_msgqueue\000"
 3650      67717565 
 3650      756500
 3651              	.LASF115:
 3652 02b9 74656172 		.ascii	"teardown\000"
 3652      646F776E 
 3652      00
 3653              	.LASF113:
 3654 02c2 6E616D65 		.ascii	"name\000"
 3654      00
 3655              	.LASF95:
 3656 02c7 735F636E 		.ascii	"s_cnt\000"
 3656      7400
 3657              	.LASF6:
 3658 02cd 73686F72 		.ascii	"short unsigned int\000"
 3658      7420756E 
 3658      7369676E 
 3658      65642069 
 3658      6E7400
 3659              	.LASF47:
 3660 02e0 63685F74 		.ascii	"ch_thread\000"
 3660      68726561 
 3660      6400
 3661              	.LASF77:
 3662 02ea 6D61696E 		.ascii	"mainthread\000"
 3662      74687265 
 3662      616400
 3663              	.LASF23:
 3664 02f5 6D73675F 		.ascii	"msg_t\000"
 3664      7400
 3665              	.LASF73:
 3666 02fb 63685F73 		.ascii	"ch_system_t\000"
 3666      79737465 
 3666      6D5F7400 
 3667              	.LASF19:
 3668 0307 746D6F64 		.ascii	"tmode_t\000"
 3668      655F7400 
 3669              	.LASF52:
 3670 030f 63685F72 		.ascii	"ch_ready_list\000"
 3670      65616479 
 3670      5F6C6973 
 3670      7400
 3671              	.LASF24:
 3672 031d 6576656E 		.ascii	"eventmask_t\000"
 3672      746D6173 
 3672      6B5F7400 
ARM GAS  /var/folders/c6/c789hm653lg9vtl73krp73tm0000gn/T//ccj6qQHm.s 			page 92


 3673              	.LASF7:
 3674 0329 5F5F696E 		.ascii	"__int32_t\000"
 3674      7433325F 
 3674      7400
 3675              	.LASF81:
 3676 0333 73746B61 		.ascii	"stkalign_t\000"
 3676      6C69676E 
 3676      5F7400
 3677              	.LASF125:
 3678 033e 74657374 		.ascii	"testheap1\000"
 3678      68656170 
 3678      3100
 3679              	.LASF136:
 3680 0348 63684865 		.ascii	"chHeapObjectInit\000"
 3680      61704F62 
 3680      6A656374 
 3680      496E6974 
 3680      00
 3681              	.LASF38:
 3682 0359 705F7761 		.ascii	"p_waiting\000"
 3682      6974696E 
 3682      6700
 3683              	.LASF79:
 3684 0363 73697A65 		.ascii	"sizetype\000"
 3684      74797065 
 3684      00
 3685              	.LASF45:
 3686 036c 74687265 		.ascii	"thread_reference_t\000"
 3686      61645F72 
 3686      65666572 
 3686      656E6365 
 3686      5F7400
 3687              	.LASF68:
 3688 037f 63685F76 		.ascii	"ch_virtual_timers_list\000"
 3688      69727475 
 3688      616C5F74 
 3688      696D6572 
 3688      735F6C69 
 3689              	.LASF69:
 3690 0396 76745F6C 		.ascii	"vt_lasttime\000"
 3690      61737474 
 3690      696D6500 
 3691              	.LASF33:
 3692 03a2 705F6F6C 		.ascii	"p_older\000"
 3692      64657200 
 3693              	.LASF55:
 3694 03aa 725F6374 		.ascii	"r_ctx\000"
 3694      7800
 3695              	.LASF85:
 3696 03b0 746D5F63 		.ascii	"tm_calibration_t\000"
 3696      616C6962 
 3696      72617469 
 3696      6F6E5F74 
 3696      00
 3697              	.LASF114:
 3698 03c1 73657475 		.ascii	"setup\000"
 3698      7000
ARM GAS  /var/folders/c6/c789hm653lg9vtl73krp73tm0000gn/T//ccj6qQHm.s 			page 93


 3699              	.LASF58:
 3700 03c7 725F6375 		.ascii	"r_current\000"
 3700      7272656E 
 3700      7400
 3701              	.LASF57:
 3702 03d1 725F6F6C 		.ascii	"r_older\000"
 3702      64657200 
 3703              	.LASF12:
 3704 03d9 5F5F7569 		.ascii	"__uint64_t\000"
 3704      6E743634 
 3704      5F7400
 3705              	.LASF21:
 3706 03e4 74726566 		.ascii	"trefs_t\000"
 3706      735F7400 
 3707              	.LASF60:
 3708 03ec 76697274 		.ascii	"virtual_timer_t\000"
 3708      75616C5F 
 3708      74696D65 
 3708      725F7400 
 3709              	.LASF29:
 3710 03fc 705F7072 		.ascii	"p_prev\000"
 3710      657600
 3711              	.LASF116:
 3712 0403 65786563 		.ascii	"execute\000"
 3712      75746500 
 3713              	.LASF22:
 3714 040b 74707269 		.ascii	"tprio_t\000"
 3714      6F5F7400 
 3715              	.LASF121:
 3716 0413 68656170 		.ascii	"heap1_setup\000"
 3716      315F7365 
 3716      74757000 
 3717              	.LASF71:
 3718 041f 63685F73 		.ascii	"ch_system_debug\000"
 3718      79737465 
 3718      6D5F6465 
 3718      62756700 
 3719              	.LASF130:
 3720 042f 5F426F6F 		.ascii	"_Bool\000"
 3720      6C00
 3721              	.LASF15:
 3722 0435 696E7433 		.ascii	"int32_t\000"
 3722      325F7400 
 3723              	.LASF4:
 3724 043d 756E7369 		.ascii	"unsigned char\000"
 3724      676E6564 
 3724      20636861 
 3724      7200
 3725              	.LASF117:
 3726 044b 68656170 		.ascii	"heap_header\000"
 3726      5F686561 
 3726      64657200 
 3727              	.LASF42:
 3728 0457 705F6D74 		.ascii	"p_mtxlist\000"
 3728      786C6973 
 3728      7400
 3729              	.LASF5:
ARM GAS  /var/folders/c6/c789hm653lg9vtl73krp73tm0000gn/T//ccj6qQHm.s 			page 94


 3730 0461 73686F72 		.ascii	"short int\000"
 3730      7420696E 
 3730      7400
 3731              	.LASF35:
 3732 046b 705F7374 		.ascii	"p_state\000"
 3732      61746500 
 3733              	.LASF54:
 3734 0473 725F7072 		.ascii	"r_prio\000"
 3734      696F00
 3735              	.LASF92:
 3736 047a 65776D61 		.ascii	"ewmask\000"
 3736      736B00
 3737              	.LASF28:
 3738 0481 705F6E65 		.ascii	"p_next\000"
 3738      787400
 3739              	.LASF36:
 3740 0488 705F666C 		.ascii	"p_flags\000"
 3740      61677300 
 3741              	.LASF49:
 3742 0490 74687265 		.ascii	"threads_queue_t\000"
 3742      6164735F 
 3742      71756575 
 3742      655F7400 
 3743              	.LASF128:
 3744 04a0 63684865 		.ascii	"chHeapAlloc\000"
 3744      6170416C 
 3744      6C6F6300 
 3745              	.LASF112:
 3746 04ac 74657374 		.ascii	"testcase\000"
 3746      63617365 
 3746      00
 3747              	.LASF93:
 3748 04b5 63685F73 		.ascii	"ch_semaphore\000"
 3748      656D6170 
 3748      686F7265 
 3748      00
 3749              	.LASF41:
 3750 04c2 705F6570 		.ascii	"p_epending\000"
 3750      656E6469 
 3750      6E6700
 3751              	.LASF16:
 3752 04cd 75696E74 		.ascii	"uint32_t\000"
 3752      33325F74 
 3752      00
 3753              	.LASF91:
 3754 04d6 77746D74 		.ascii	"wtmtxp\000"
 3754      787000
 3755              	.LASF53:
 3756 04dd 725F7175 		.ascii	"r_queue\000"
 3756      65756500 
 3757              	.LASF64:
 3758 04e5 76745F64 		.ascii	"vt_delta\000"
 3758      656C7461 
 3758      00
 3759              	.LASF48:
 3760 04ee 63685F74 		.ascii	"ch_threads_list\000"
 3760      68726561 
ARM GAS  /var/folders/c6/c789hm653lg9vtl73krp73tm0000gn/T//ccj6qQHm.s 			page 95


 3760      64735F6C 
 3760      69737400 
 3761              	.LASF109:
 3762 04fe 68656170 		.ascii	"heap\000"
 3762      00
 3763              	.LASF10:
 3764 0503 6C6F6E67 		.ascii	"long unsigned int\000"
 3764      20756E73 
 3764      69676E65 
 3764      6420696E 
 3764      7400
 3765              	.LASF133:
 3766 0515 2F557365 		.ascii	"/Users/savonetj/Downloads/ChibiOS_3.0.2/demos/STM32"
 3766      72732F73 
 3766      61766F6E 
 3766      65746A2F 
 3766      446F776E 
 3767 0548 2F52542D 		.ascii	"/RT-STM32F407-DISCOVERY\000"
 3767      53544D33 
 3767      32463430 
 3767      372D4449 
 3767      53434F56 
 3768              	.LASF100:
 3769 0560 63686172 		.ascii	"char\000"
 3769      00
 3770              	.LASF27:
 3771 0565 74687265 		.ascii	"thread_t\000"
 3771      61645F74 
 3771      00
 3772              	.LASF127:
 3773 056e 63684865 		.ascii	"chHeapStatus\000"
 3773      61705374 
 3773      61747573 
 3773      00
 3774              	.LASF99:
 3775 057b 6D5F6E65 		.ascii	"m_next\000"
 3775      787400
 3776              	.LASF26:
 3777 0582 73797374 		.ascii	"systime_t\000"
 3777      696D655F 
 3777      7400
 3778              	.LASF43:
 3779 058c 705F7265 		.ascii	"p_realprio\000"
 3779      616C7072 
 3779      696F00
 3780              	.LASF59:
 3781 0597 76746675 		.ascii	"vtfunc_t\000"
 3781      6E635F74 
 3781      00
 3782              	.LASF9:
 3783 05a0 5F5F7569 		.ascii	"__uint32_t\000"
 3783      6E743332 
 3783      5F7400
 3784              	.LASF72:
 3785 05ab 70616E69 		.ascii	"panic_msg\000"
 3785      635F6D73 
 3785      6700
ARM GAS  /var/folders/c6/c789hm653lg9vtl73krp73tm0000gn/T//ccj6qQHm.s 			page 96


 3786              	.LASF84:
 3787 05b5 6F666673 		.ascii	"offset\000"
 3787      657400
 3788              	.LASF82:
 3789 05bc 636F6E74 		.ascii	"context\000"
 3789      65787400 
 3790              	.LASF61:
 3791 05c4 63685F76 		.ascii	"ch_virtual_timer\000"
 3791      69727475 
 3791      616C5F74 
 3791      696D6572 
 3791      00
 3792              	.LASF18:
 3793 05d5 7274636E 		.ascii	"rtcnt_t\000"
 3793      745F7400 
 3794              	.LASF66:
 3795 05dd 76745F70 		.ascii	"vt_par\000"
 3795      617200
 3796              	.LASF118:
 3797 05e4 74657374 		.ascii	"test_buffers\000"
 3797      5F627566 
 3797      66657273 
 3797      00
 3798              	.LASF96:
 3799 05f1 63685F6D 		.ascii	"ch_mutex\000"
 3799      75746578 
 3799      00
 3800              	.LASF37:
 3801 05fa 705F7265 		.ascii	"p_refs\000"
 3801      667300
 3802              	.LASF75:
 3803 0601 726C6973 		.ascii	"rlist\000"
 3803      7400
 3804              	.LASF14:
 3805 0607 75696E74 		.ascii	"uint8_t\000"
 3805      385F7400 
 3806              	.LASF122:
 3807 060f 74657374 		.ascii	"test_heap\000"
 3807      5F686561 
 3807      7000
 3808              	.LASF132:
 3809 0619 2E2E2F2E 		.ascii	"../../../test/rt/testheap.c\000"
 3809      2E2F2E2E 
 3809      2F746573 
 3809      742F7274 
 3809      2F746573 
 3810              	.LASF105:
 3811 0635 685F7072 		.ascii	"h_provider\000"
 3811      6F766964 
 3811      657200
 3812              	.LASF88:
 3813 0640 77746F62 		.ascii	"wtobjp\000"
 3813      6A7000
 3814              	.LASF34:
 3815 0647 705F6E61 		.ascii	"p_name\000"
 3815      6D6500
 3816              	.LASF111:
ARM GAS  /var/folders/c6/c789hm653lg9vtl73krp73tm0000gn/T//ccj6qQHm.s 			page 97


 3817 064e 73697A65 		.ascii	"size\000"
 3817      00
 3818              	.LASF129:
 3819 0653 5F746573 		.ascii	"_test_assert\000"
 3819      745F6173 
 3819      73657274 
 3819      00
 3820              	.LASF46:
 3821 0660 74687265 		.ascii	"threads_list_t\000"
 3821      6164735F 
 3821      6C697374 
 3821      5F7400
 3822              	.LASF40:
 3823 066f 705F6D73 		.ascii	"p_msg\000"
 3823      6700
 3824              	.LASF98:
 3825 0675 6D5F6F77 		.ascii	"m_owner\000"
 3825      6E657200 
 3826              	.LASF31:
 3827 067d 705F6374 		.ascii	"p_ctx\000"
 3827      7800
 3828              	.LASF65:
 3829 0683 76745F66 		.ascii	"vt_func\000"
 3829      756E6300 
 3830              	.LASF104:
 3831 068b 6D656D6F 		.ascii	"memory_heap\000"
 3831      72795F68 
 3831      65617000 
 3832              		.comm	__gnu_lto_v1,1,1
 3833              		.ident	"GCC: (GNU Tools for ARM Embedded Processors) 4.8.4 20140725 (release) [ARM/embedded-4_8-br
ARM GAS  /var/folders/c6/c789hm653lg9vtl73krp73tm0000gn/T//ccj6qQHm.s 			page 98


DEFINED SYMBOLS
                            *ABS*:0000000000000000 testheap.c
/var/folders/c6/c789hm653lg9vtl73krp73tm0000gn/T//ccj6qQHm.s:407    .text.heap1_execute:0000000000000000 $t
/var/folders/c6/c789hm653lg9vtl73krp73tm0000gn/T//ccj6qQHm.s:412    .text.heap1_execute:0000000000000000 heap1_execute
/var/folders/c6/c789hm653lg9vtl73krp73tm0000gn/T//ccj6qQHm.s:795    .text.heap1_execute:0000000000000240 $d
/var/folders/c6/c789hm653lg9vtl73krp73tm0000gn/T//ccj6qQHm.s:800    .text.heap1_setup:0000000000000000 $t
/var/folders/c6/c789hm653lg9vtl73krp73tm0000gn/T//ccj6qQHm.s:805    .text.heap1_setup:0000000000000000 heap1_setup
/var/folders/c6/c789hm653lg9vtl73krp73tm0000gn/T//ccj6qQHm.s:821    .text.heap1_setup:000000000000000c $d
/var/folders/c6/c789hm653lg9vtl73krp73tm0000gn/T//ccj6qQHm.s:832    .rodata.patternheap:0000000000000000 patternheap
/var/folders/c6/c789hm653lg9vtl73krp73tm0000gn/T//ccj6qQHm.s:843    .rodata.testheap1:0000000000000000 testheap1
/var/folders/c6/c789hm653lg9vtl73krp73tm0000gn/T//ccj6qQHm.s:829    .rodata.patternheap:0000000000000000 $d
/var/folders/c6/c789hm653lg9vtl73krp73tm0000gn/T//ccj6qQHm.s:836    .rodata.str1.4:0000000000000000 $d
/var/folders/c6/c789hm653lg9vtl73krp73tm0000gn/T//ccj6qQHm.s:840    .rodata.testheap1:0000000000000000 $d
/var/folders/c6/c789hm653lg9vtl73krp73tm0000gn/T//ccj6qQHm.s:849    .bss.test_heap:0000000000000000 $d
/var/folders/c6/c789hm653lg9vtl73krp73tm0000gn/T//ccj6qQHm.s:853    .bss.test_heap:0000000000000000 test_heap
                            *COM*:0000000000000001 __gnu_lto_v1
                     .debug_frame:0000000000000010 $d
/var/folders/c6/c789hm653lg9vtl73krp73tm0000gn/T//ccj6qQHm.s:799    .text.heap1_execute:0000000000000244 $t
/var/folders/c6/c789hm653lg9vtl73krp73tm0000gn/T//ccj6qQHm.s:828    .text.heap1_setup:0000000000000014 $t

UNDEFINED SYMBOLS
chCoreGetStatusX
chHeapStatus
chHeapAlloc
_test_assert
chHeapFree
chHeapObjectInit
test
